
Pig_Scales-2.elf:     file format elf32-avr

Sections:
Idx Name          Size      VMA       LMA       File off  Algn
  0 .data         00000176  00804000  0000832a  00007dde  2**0
                  CONTENTS, ALLOC, LOAD, DATA
  1 .text         00007d2a  00000600  00000600  000000b4  2**1
                  CONTENTS, ALLOC, LOAD, READONLY, CODE
  2 .bss          00001124  00804176  00804176  00007f54  2**0
                  ALLOC
  3 .fuse         00000009  00820000  00820000  00007f54  2**0
                  CONTENTS, ALLOC, LOAD, DATA
  4 .comment      0000005c  00000000  00000000  00007f5d  2**0
                  CONTENTS, READONLY
  5 .note.gnu.avr.deviceinfo 00000040  00000000  00000000  00007fbc  2**2
                  CONTENTS, READONLY
  6 .debug_aranges 00000600  00000000  00000000  00008000  2**3
                  CONTENTS, READONLY, DEBUGGING
  7 .debug_info   0000eeff  00000000  00000000  00008600  2**0
                  CONTENTS, READONLY, DEBUGGING
  8 .debug_abbrev 00004dd6  00000000  00000000  000174ff  2**0
                  CONTENTS, READONLY, DEBUGGING
  9 .debug_line   00005d54  00000000  00000000  0001c2d5  2**0
                  CONTENTS, READONLY, DEBUGGING
 10 .debug_frame  0000129c  00000000  00000000  0002202c  2**2
                  CONTENTS, READONLY, DEBUGGING
 11 .debug_str    00003856  00000000  00000000  000232c8  2**0
                  CONTENTS, READONLY, DEBUGGING
 12 .debug_loc    00004ab9  00000000  00000000  00026b1e  2**0
                  CONTENTS, READONLY, DEBUGGING
 13 .debug_ranges 00000538  00000000  00000000  0002b5d7  2**0
                  CONTENTS, READONLY, DEBUGGING

Disassembly of section .text:

00000600 <__vectors>:
     600:	0c 94 1e 04 	jmp	0x83c	; 0x83c <__ctors_end>
     604:	0c 94 3d 04 	jmp	0x87a	; 0x87a <__bad_interrupt>
     608:	0c 94 3d 04 	jmp	0x87a	; 0x87a <__bad_interrupt>
     60c:	0c 94 3d 04 	jmp	0x87a	; 0x87a <__bad_interrupt>
     610:	0c 94 3d 04 	jmp	0x87a	; 0x87a <__bad_interrupt>
     614:	0c 94 3d 04 	jmp	0x87a	; 0x87a <__bad_interrupt>
     618:	0c 94 3d 04 	jmp	0x87a	; 0x87a <__bad_interrupt>
     61c:	0c 94 3d 04 	jmp	0x87a	; 0x87a <__bad_interrupt>
     620:	0c 94 3d 04 	jmp	0x87a	; 0x87a <__bad_interrupt>
     624:	0c 94 3d 04 	jmp	0x87a	; 0x87a <__bad_interrupt>
     628:	0c 94 3d 04 	jmp	0x87a	; 0x87a <__bad_interrupt>
     62c:	0c 94 3d 04 	jmp	0x87a	; 0x87a <__bad_interrupt>
     630:	0c 94 3d 04 	jmp	0x87a	; 0x87a <__bad_interrupt>
     634:	0c 94 3d 04 	jmp	0x87a	; 0x87a <__bad_interrupt>
     638:	0c 94 3d 04 	jmp	0x87a	; 0x87a <__bad_interrupt>
     63c:	0c 94 3d 04 	jmp	0x87a	; 0x87a <__bad_interrupt>
     640:	0c 94 3d 04 	jmp	0x87a	; 0x87a <__bad_interrupt>
     644:	0c 94 3d 04 	jmp	0x87a	; 0x87a <__bad_interrupt>
     648:	0c 94 3d 04 	jmp	0x87a	; 0x87a <__bad_interrupt>
     64c:	0c 94 3d 04 	jmp	0x87a	; 0x87a <__bad_interrupt>
     650:	0c 94 3d 04 	jmp	0x87a	; 0x87a <__bad_interrupt>
     654:	0c 94 3d 04 	jmp	0x87a	; 0x87a <__bad_interrupt>
     658:	0c 94 3d 04 	jmp	0x87a	; 0x87a <__bad_interrupt>
     65c:	0c 94 3d 04 	jmp	0x87a	; 0x87a <__bad_interrupt>
     660:	0c 94 3d 04 	jmp	0x87a	; 0x87a <__bad_interrupt>
     664:	0c 94 3d 04 	jmp	0x87a	; 0x87a <__bad_interrupt>
     668:	0c 94 3d 04 	jmp	0x87a	; 0x87a <__bad_interrupt>
     66c:	0c 94 3d 04 	jmp	0x87a	; 0x87a <__bad_interrupt>
     670:	0c 94 3d 04 	jmp	0x87a	; 0x87a <__bad_interrupt>
     674:	0c 94 3d 04 	jmp	0x87a	; 0x87a <__bad_interrupt>
     678:	0c 94 3d 04 	jmp	0x87a	; 0x87a <__bad_interrupt>
     67c:	0c 94 4a 04 	jmp	0x894	; 0x894 <__vector_31>
     680:	0c 94 3d 04 	jmp	0x87a	; 0x87a <__bad_interrupt>
     684:	0c 94 3d 04 	jmp	0x87a	; 0x87a <__bad_interrupt>
     688:	0c 94 3d 04 	jmp	0x87a	; 0x87a <__bad_interrupt>
     68c:	0c 94 3d 04 	jmp	0x87a	; 0x87a <__bad_interrupt>
     690:	0c 94 3d 04 	jmp	0x87a	; 0x87a <__bad_interrupt>
     694:	0c 94 3d 04 	jmp	0x87a	; 0x87a <__bad_interrupt>
     698:	0c 94 3d 04 	jmp	0x87a	; 0x87a <__bad_interrupt>
     69c:	0c 94 3d 04 	jmp	0x87a	; 0x87a <__bad_interrupt>
     6a0:	0c 94 3d 04 	jmp	0x87a	; 0x87a <__bad_interrupt>
     6a4:	0c 94 3d 04 	jmp	0x87a	; 0x87a <__bad_interrupt>
     6a8:	0c 94 3d 04 	jmp	0x87a	; 0x87a <__bad_interrupt>
     6ac:	0c 94 55 18 	jmp	0x30aa	; 0x30aa <__vector_43>
     6b0:	0c 94 3d 04 	jmp	0x87a	; 0x87a <__bad_interrupt>
     6b4:	0c 94 3d 04 	jmp	0x87a	; 0x87a <__bad_interrupt>
     6b8:	0c 94 a2 04 	jmp	0x944	; 0x944 <__vector_46>
     6bc:	0c 94 3d 04 	jmp	0x87a	; 0x87a <__bad_interrupt>
     6c0:	0c 94 3d 04 	jmp	0x87a	; 0x87a <__bad_interrupt>
     6c4:	0c 94 3d 04 	jmp	0x87a	; 0x87a <__bad_interrupt>
     6c8:	0c 94 3d 04 	jmp	0x87a	; 0x87a <__bad_interrupt>
     6cc:	0c 94 3d 04 	jmp	0x87a	; 0x87a <__bad_interrupt>
     6d0:	0c 94 76 04 	jmp	0x8ec	; 0x8ec <__vector_52>
     6d4:	0c 94 3d 04 	jmp	0x87a	; 0x87a <__bad_interrupt>
     6d8:	0c 94 3d 04 	jmp	0x87a	; 0x87a <__bad_interrupt>
     6dc:	0c 94 3d 04 	jmp	0x87a	; 0x87a <__bad_interrupt>
     6e0:	0c 94 3d 04 	jmp	0x87a	; 0x87a <__bad_interrupt>
     6e4:	0c 94 3d 04 	jmp	0x87a	; 0x87a <__bad_interrupt>
     6e8:	0c 94 3d 04 	jmp	0x87a	; 0x87a <__bad_interrupt>
     6ec:	0c 94 3d 04 	jmp	0x87a	; 0x87a <__bad_interrupt>
     6f0:	0c 94 3d 04 	jmp	0x87a	; 0x87a <__bad_interrupt>
     6f4:	0c 94 3d 04 	jmp	0x87a	; 0x87a <__bad_interrupt>
     6f8:	0c 94 3d 04 	jmp	0x87a	; 0x87a <__bad_interrupt>
     6fc:	0c 94 3d 04 	jmp	0x87a	; 0x87a <__bad_interrupt>
     700:	38 12       	cpse	r3, r24
     702:	3a 12       	cpse	r3, r26
     704:	4d 12       	cpse	r4, r29
     706:	5c 12       	cpse	r5, r28
     708:	6c 12       	cpse	r6, r28
     70a:	7b 12       	cpse	r7, r27
     70c:	36 12       	cpse	r3, r22
     70e:	93 29       	or	r25, r3
     710:	98 29       	or	r25, r8
     712:	c4 29       	or	r28, r4
     714:	f0 29       	or	r31, r0
     716:	1c 2a       	or	r1, r28
     718:	4f 2a       	or	r4, r31
     71a:	82 2a       	or	r8, r18
     71c:	90 29       	or	r25, r0
     71e:	2a 2b       	or	r18, r26
     720:	2d 2b       	or	r18, r29
     722:	30 2b       	or	r19, r16
     724:	33 2b       	or	r19, r19
     726:	38 2b       	or	r19, r24
     728:	3b 2b       	or	r19, r27
     72a:	3e 2b       	or	r19, r30
     72c:	37 2c       	mov	r3, r7
     72e:	95 2c       	mov	r9, r5
     730:	f4 2c       	mov	r15, r4
     732:	53 2d       	mov	r21, r3
     734:	b2 2d       	mov	r27, r2
     736:	11 2e       	mov	r1, r17
     738:	66 2e       	mov	r6, r22

0000073a <__trampolines_end>:
     73a:	6e 61       	ori	r22, 0x1E	; 30
     73c:	6e 00       	.word	0x006e	; ????

0000073e <__c.2332>:
     73e:	69 6e 66 00 00 40 7a 10 f3 5a 00 a0 72 4e 18 09     inf..@z..Z..rN..
     74e:	00 10 a5 d4 e8 00 00 e8 76 48 17 00 00 e4 0b 54     ........vH.....T
     75e:	02 00 00 ca 9a 3b 00 00 00 e1 f5 05 00 00 80 96     .....;..........
     76e:	98 00 00 00 40 42 0f 00 00 00 a0 86 01 00 00 00     ....@B..........
     77e:	10 27 00 00 00 00 e8 03 00 00 00 00 64 00 00 00     .'..........d...
     78e:	00 00 0a 00 00 00 00 00 01 00 00 00 00 00 2c 76     ..............,v
     79e:	d8 88 dc 67 4f 08 23 df c1 df ae 59 e1 b1 b7 96     ...gO.#....Y....
     7ae:	e5 e3 e4 53 c6 3a e6 51 99 76 96 e8 e6 c2 84 26     ...S.:.Q.v.....&
     7be:	eb 89 8c 9b 62 ed 40 7c 6f fc ef bc 9c 9f 40 f2     ....b.@|o.....@.
     7ce:	ba a5 6f a5 f4 90 05 5a 2a f7 5c 93 6b 6c f9 67     ..o....Z*.\.kl.g
     7de:	6d c1 1b fc e0 e4 0d 47 fe f5 20 e6 b5 00 d0 ed     m......G.. .....
     7ee:	90 2e 03 00 94 35 77 05 00 80 84 1e 08 00 00 20     .....5w........ 
     7fe:	4e 0a 00 00 00 c8 0c 33 33 33 33 0f 98 6e 12 83     N......3333..n..
     80e:	11 41 ef 8d 21 14 89 3b e6 55 16 cf fe e6 db 18     .A..!..;.U......
     81e:	d1 84 4b 38 1b f7 7c 1d 90 1d a4 bb e4 24 20 32     ..K8..|......$ 2
     82e:	84 72 5e 22 81 00 c9 f1 24 ec a1 e5 3d 27           .r^"....$...='

0000083c <__ctors_end>:
     83c:	11 24       	eor	r1, r1
     83e:	1f be       	out	0x3f, r1	; 63
     840:	cf ef       	ldi	r28, 0xFF	; 255
     842:	cd bf       	out	0x3d, r28	; 61
     844:	df e7       	ldi	r29, 0x7F	; 127
     846:	de bf       	out	0x3e, r29	; 62

00000848 <__do_copy_data>:
     848:	11 e4       	ldi	r17, 0x41	; 65
     84a:	a0 e0       	ldi	r26, 0x00	; 0
     84c:	b0 e4       	ldi	r27, 0x40	; 64
     84e:	ea e2       	ldi	r30, 0x2A	; 42
     850:	f3 e8       	ldi	r31, 0x83	; 131
     852:	00 e0       	ldi	r16, 0x00	; 0
     854:	0b bf       	out	0x3b, r16	; 59
     856:	02 c0       	rjmp	.+4      	; 0x85c <__do_copy_data+0x14>
     858:	07 90       	elpm	r0, Z+
     85a:	0d 92       	st	X+, r0
     85c:	a6 37       	cpi	r26, 0x76	; 118
     85e:	b1 07       	cpc	r27, r17
     860:	d9 f7       	brne	.-10     	; 0x858 <__do_copy_data+0x10>

00000862 <__do_clear_bss>:
     862:	22 e5       	ldi	r18, 0x52	; 82
     864:	a6 e7       	ldi	r26, 0x76	; 118
     866:	b1 e4       	ldi	r27, 0x41	; 65
     868:	01 c0       	rjmp	.+2      	; 0x86c <.do_clear_bss_start>

0000086a <.do_clear_bss_loop>:
     86a:	1d 92       	st	X+, r1

0000086c <.do_clear_bss_start>:
     86c:	aa 39       	cpi	r26, 0x9A	; 154
     86e:	b2 07       	cpc	r27, r18
     870:	e1 f7       	brne	.-8      	; 0x86a <.do_clear_bss_loop>
     872:	0e 94 a8 12 	call	0x2550	; 0x2550 <main>
     876:	0c 94 93 41 	jmp	0x8326	; 0x8326 <_exit>

0000087a <__bad_interrupt>:
     87a:	0c 94 00 03 	jmp	0x600	; 0x600 <__vectors>

0000087e <atmel_start_init>:
/**
 * Initializes MCU, drivers and middleware in the project
 **/
void atmel_start_init(void)
{
	system_init();
     87e:	0e 94 a8 14 	call	0x2950	; 0x2950 <system_init>
     882:	08 95       	ret

00000884 <Beep>:
#include <compiler.h>

//=================================================================================================
void Beep(uint16_t BeepTimer_1ms)
{
	Buzzer_ON;								// Buzzer on
     884:	e4 e0       	ldi	r30, 0x04	; 4
     886:	f4 e0       	ldi	r31, 0x04	; 4
     888:	90 81       	ld	r25, Z
     88a:	92 60       	ori	r25, 0x02	; 2
     88c:	90 83       	st	Z, r25
	Beep_Timer = BeepTimer_1ms;
     88e:	80 93 61 51 	sts	0x5161, r24	; 0x805161 <Beep_Timer>
     892:	08 95       	ret

00000894 <__vector_31>:
#endif

//=================================================================================================
#ifdef Usart_1
ISR(USART1_RXC_vect)
{
     894:	1f 92       	push	r1
     896:	0f 92       	push	r0
     898:	0f b6       	in	r0, 0x3f	; 63
     89a:	0f 92       	push	r0
     89c:	11 24       	eor	r1, r1
     89e:	0b b6       	in	r0, 0x3b	; 59
     8a0:	0f 92       	push	r0
     8a2:	8f 93       	push	r24
     8a4:	9f 93       	push	r25
     8a6:	ef 93       	push	r30
     8a8:	ff 93       	push	r31
	while(!(USART1.STATUS & USART_RXCIF_bm));
     8aa:	e0 e2       	ldi	r30, 0x20	; 32
     8ac:	f8 e0       	ldi	r31, 0x08	; 8
     8ae:	84 81       	ldd	r24, Z+4	; 0x04
     8b0:	88 23       	and	r24, r24
     8b2:	ec f7       	brge	.-6      	; 0x8ae <__vector_31+0x1a>
	Rx1_Buff[Rx1_Cnt] = USART1.RXDATAL;
     8b4:	80 91 ea 50 	lds	r24, 0x50EA	; 0x8050ea <Rx1_Cnt>
     8b8:	90 91 20 08 	lds	r25, 0x0820	; 0x800820 <__TEXT_REGION_LENGTH__+0x7e0820>
     8bc:	e8 2f       	mov	r30, r24
     8be:	f0 e0       	ldi	r31, 0x00	; 0
     8c0:	e1 51       	subi	r30, 0x11	; 17
     8c2:	ff 4a       	sbci	r31, 0xAF	; 175
     8c4:	90 83       	st	Z, r25
	Rx1_Cnt++;
     8c6:	8f 5f       	subi	r24, 0xFF	; 255
	if(Rx1_Cnt >= RX1_SIZE) {Rx1_Cnt = 0;}					// RX1_SIZE : 250
     8c8:	89 31       	cpi	r24, 0x19	; 25
     8ca:	18 f4       	brcc	.+6      	; 0x8d2 <__vector_31+0x3e>
#ifdef Usart_1
ISR(USART1_RXC_vect)
{
	while(!(USART1.STATUS & USART_RXCIF_bm));
	Rx1_Buff[Rx1_Cnt] = USART1.RXDATAL;
	Rx1_Cnt++;
     8cc:	80 93 ea 50 	sts	0x50EA, r24	; 0x8050ea <Rx1_Cnt>
     8d0:	02 c0       	rjmp	.+4      	; 0x8d6 <__vector_31+0x42>
	if(Rx1_Cnt >= RX1_SIZE) {Rx1_Cnt = 0;}					// RX1_SIZE : 250
     8d2:	10 92 ea 50 	sts	0x50EA, r1	; 0x8050ea <Rx1_Cnt>
}
     8d6:	ff 91       	pop	r31
     8d8:	ef 91       	pop	r30
     8da:	9f 91       	pop	r25
     8dc:	8f 91       	pop	r24
     8de:	0f 90       	pop	r0
     8e0:	0b be       	out	0x3b, r0	; 59
     8e2:	0f 90       	pop	r0
     8e4:	0f be       	out	0x3f, r0	; 63
     8e6:	0f 90       	pop	r0
     8e8:	1f 90       	pop	r1
     8ea:	18 95       	reti

000008ec <__vector_52>:
#endif

//=================================================================================================
#ifdef Usart_3
ISR(USART3_RXC_vect)
{
     8ec:	1f 92       	push	r1
     8ee:	0f 92       	push	r0
     8f0:	0f b6       	in	r0, 0x3f	; 63
     8f2:	0f 92       	push	r0
     8f4:	11 24       	eor	r1, r1
     8f6:	0b b6       	in	r0, 0x3b	; 59
     8f8:	0f 92       	push	r0
     8fa:	8f 93       	push	r24
     8fc:	9f 93       	push	r25
     8fe:	ef 93       	push	r30
     900:	ff 93       	push	r31
	while(!(USART3.STATUS & USART_RXCIF_bm));
     902:	e0 e6       	ldi	r30, 0x60	; 96
     904:	f8 e0       	ldi	r31, 0x08	; 8
     906:	84 81       	ldd	r24, Z+4	; 0x04
     908:	88 23       	and	r24, r24
     90a:	ec f7       	brge	.-6      	; 0x906 <__vector_52+0x1a>
	Rx3_Buff[Rx3_Cnt] = USART3.RXDATAL;
     90c:	80 91 68 51 	lds	r24, 0x5168	; 0x805168 <Rx3_Cnt>
     910:	90 91 60 08 	lds	r25, 0x0860	; 0x800860 <__TEXT_REGION_LENGTH__+0x7e0860>
     914:	e8 2f       	mov	r30, r24
     916:	f0 e0       	ldi	r31, 0x00	; 0
     918:	e3 58       	subi	r30, 0x83	; 131
     91a:	fe 4a       	sbci	r31, 0xAE	; 174
     91c:	90 83       	st	Z, r25
	Rx3_Cnt++;
     91e:	8f 5f       	subi	r24, 0xFF	; 255
	if(Rx3_Cnt >= RX3_SIZE) {Rx3_Cnt = 0;}					// RX3_SIZE : 250
     920:	8a 3f       	cpi	r24, 0xFA	; 250
     922:	18 f4       	brcc	.+6      	; 0x92a <__vector_52+0x3e>
#ifdef Usart_3
ISR(USART3_RXC_vect)
{
	while(!(USART3.STATUS & USART_RXCIF_bm));
	Rx3_Buff[Rx3_Cnt] = USART3.RXDATAL;
	Rx3_Cnt++;
     924:	80 93 68 51 	sts	0x5168, r24	; 0x805168 <Rx3_Cnt>
     928:	02 c0       	rjmp	.+4      	; 0x92e <__vector_52+0x42>
	if(Rx3_Cnt >= RX3_SIZE) {Rx3_Cnt = 0;}					// RX3_SIZE : 250
     92a:	10 92 68 51 	sts	0x5168, r1	; 0x805168 <Rx3_Cnt>
}
     92e:	ff 91       	pop	r31
     930:	ef 91       	pop	r30
     932:	9f 91       	pop	r25
     934:	8f 91       	pop	r24
     936:	0f 90       	pop	r0
     938:	0b be       	out	0x3b, r0	; 59
     93a:	0f 90       	pop	r0
     93c:	0f be       	out	0x3f, r0	; 63
     93e:	0f 90       	pop	r0
     940:	1f 90       	pop	r1
     942:	18 95       	reti

00000944 <__vector_46>:
#endif

//=================================================================================================
#ifdef Timer_1
ISR(TCA1_OVF_vect)								// 5mSec Timer
{
     944:	1f 92       	push	r1
     946:	0f 92       	push	r0
     948:	0f b6       	in	r0, 0x3f	; 63
     94a:	0f 92       	push	r0
     94c:	11 24       	eor	r1, r1
     94e:	0b b6       	in	r0, 0x3b	; 59
     950:	0f 92       	push	r0
     952:	2f 93       	push	r18
     954:	3f 93       	push	r19
     956:	4f 93       	push	r20
     958:	5f 93       	push	r21
     95a:	6f 93       	push	r22
     95c:	7f 93       	push	r23
     95e:	8f 93       	push	r24
     960:	9f 93       	push	r25
     962:	af 93       	push	r26
     964:	bf 93       	push	r27
     966:	ef 93       	push	r30
     968:	ff 93       	push	r31
	TCA1.SINGLE.INTFLAGS = TCA_SINGLE_OVF_bm;				// TCA1 я┐╜я┐╜я┐╜я┐╜я┐╜├╖╬┐я┐╜ SET
     96a:	81 e0       	ldi	r24, 0x01	; 1
     96c:	80 93 4b 0a 	sts	0x0A4B, r24	; 0x800a4b <__TEXT_REGION_LENGTH__+0x7e0a4b>

	Fnd_Display();								// FND Display
     970:	0e 94 48 05 	call	0xa90	; 0xa90 <Fnd_Display>
	Key_Scan();								// key я┐╜╘╖я┐╜ ├╝┼й
     974:	0e 94 f7 05 	call	0xbee	; 0xbee <Key_Scan>

	if(Timer.Input_Key == 0) {KEY.Buff = 0; KEY.Key = 0;}			// Timer.Input_Key я┐╜я┐╜ 0 я┐╜╠╕я┐╜ Key я┐╜я┐╜ я┐╜я┐╜ Key я┐╜╘╖я┐╜ я┐╜╩▒я┐╜╚н
     978:	80 91 32 51 	lds	r24, 0x5132	; 0x805132 <Timer>
     97c:	81 11       	cpse	r24, r1
     97e:	05 c0       	rjmp	.+10     	; 0x98a <__vector_46+0x46>
     980:	eb e4       	ldi	r30, 0x4B	; 75
     982:	f1 e5       	ldi	r31, 0x51	; 81
     984:	11 82       	std	Z+1, r1	; 0x01
     986:	12 82       	std	Z+2, r1	; 0x02
     988:	05 c0       	rjmp	.+10     	; 0x994 <__vector_46+0x50>
	else			 {Timer.Input_Key--;}				// Timer.Input_Key я┐╜я┐╜ 0 я┐╜я┐╜ я┐╜╞┤╧╕я┐╜ Timer.Input_Key я┐╜я┐╜я┐╜я┐╜
     98a:	e2 e3       	ldi	r30, 0x32	; 50
     98c:	f1 e5       	ldi	r31, 0x51	; 81
     98e:	80 81       	ld	r24, Z
     990:	81 50       	subi	r24, 0x01	; 1
     992:	80 83       	st	Z, r24
//-------------------------------------------------------------------------------------------------
	if(Beep_Timer == 0) {Buzzer_OFF;}					// Beep_Timer я┐╜я┐╜ 0 я┐╜╠╕я┐╜ Buzzer OFF
     994:	80 91 61 51 	lds	r24, 0x5161	; 0x805161 <Beep_Timer>
     998:	81 11       	cpse	r24, r1
     99a:	06 c0       	rjmp	.+12     	; 0x9a8 <__vector_46+0x64>
     99c:	e4 e0       	ldi	r30, 0x04	; 4
     99e:	f4 e0       	ldi	r31, 0x04	; 4
     9a0:	80 81       	ld	r24, Z
     9a2:	8d 7f       	andi	r24, 0xFD	; 253
     9a4:	80 83       	st	Z, r24
     9a6:	03 c0       	rjmp	.+6      	; 0x9ae <__vector_46+0x6a>
	else		    {Beep_Timer--;}					// Beep_Timer я┐╜я┐╜ 0 я┐╜я┐╜ я┐╜╞┤╧╕я┐╜ Beep_Timer я┐╜я┐╜я┐╜я┐╜
     9a8:	81 50       	subi	r24, 0x01	; 1
     9aa:	80 93 61 51 	sts	0x5161, r24	; 0x805161 <Beep_Timer>
//-------------------------------------------------------------------------------------------------
	Timer.RegExitTimer++;							// Timer.RegExitTimer я┐╜я┐╜я┐╜я┐╜ (5mSec я┐╜я┐╜я┐╜я┐╜)
     9ae:	e2 e3       	ldi	r30, 0x32	; 50
     9b0:	f1 e5       	ldi	r31, 0x51	; 81
     9b2:	81 81       	ldd	r24, Z+1	; 0x01
     9b4:	92 81       	ldd	r25, Z+2	; 0x02
     9b6:	01 96       	adiw	r24, 0x01	; 1
     9b8:	81 83       	std	Z+1, r24	; 0x01
     9ba:	92 83       	std	Z+2, r25	; 0x02
	if(Timer.RegExitTimer >= REG_EXIT_TIME)					// Timer.RegExitTimer я┐╜я┐╜ REG_EXIT_TIME я┐╜я┐╜ я┐╜я┐╜я┐╜┼│я┐╜ ┼йя┐╜я┐╜
     9bc:	81 81       	ldd	r24, Z+1	; 0x01
     9be:	92 81       	ldd	r25, Z+2	; 0x02
     9c0:	80 3d       	cpi	r24, 0xD0	; 208
     9c2:	97 40       	sbci	r25, 0x07	; 7
     9c4:	28 f0       	brcs	.+10     	; 0x9d0 <__vector_46+0x8c>
	{									// я┐╜я┐╜я┐╜я┐╜ я┐╜я┐╜я┐╜я┐╜я┐╜ я┐╜я┐╜я┐╜я┐╜я┐╜├░я┐╜(10я┐╜я┐╜) я┐╜я┐╜╞░ я┐╜╘╖я┐╜ я┐╜я┐╜я┐╜я┐╜я┐╜я┐╜ ┼╗я┐╜я┐╜
		SET.Menu = 0;							// Menu я┐╜я┐╜я┐╜ я┐╜╩▒я┐╜╚н
     9c6:	ee e0       	ldi	r30, 0x0E	; 14
     9c8:	f1 e5       	ldi	r31, 0x51	; 81
     9ca:	10 82       	st	Z, r1
		SET.Select = 0;							// Select я┐╜я┐╜я┐╜ я┐╜╩▒я┐╜╚н
     9cc:	11 82       	std	Z+1, r1	; 0x01
		SET.NumSET = 0;							// я┐╜я┐╜я┐╜╚г Set я┐╜я┐╜я┐╜ я┐╜╩▒я┐╜╚н
     9ce:	12 82       	std	Z+2, r1	; 0x02
	}
//-------------------------------------------------------------------------------------------------
	Timer.RTC_Timer++;							// Timer.RTC_Timer я┐╜я┐╜я┐╜я┐╜ (5mSec я┐╜я┐╜я┐╜я┐╜)
     9d0:	e2 e3       	ldi	r30, 0x32	; 50
     9d2:	f1 e5       	ldi	r31, 0x51	; 81
     9d4:	83 81       	ldd	r24, Z+3	; 0x03
     9d6:	94 81       	ldd	r25, Z+4	; 0x04
     9d8:	01 96       	adiw	r24, 0x01	; 1
     9da:	83 83       	std	Z+3, r24	; 0x03
     9dc:	94 83       	std	Z+4, r25	; 0x04
//-------------------------------------------------------------------------------------------------
	Blink_Timer++;								// Blink_Timer я┐╜я┐╜я┐╜я┐╜ (5mSec я┐╜я┐╜я┐╜я┐╜)
     9de:	80 91 1b 51 	lds	r24, 0x511B	; 0x80511b <Blink_Timer>
     9e2:	8f 5f       	subi	r24, 0xFF	; 255
     9e4:	80 93 1b 51 	sts	0x511B, r24	; 0x80511b <Blink_Timer>
	if(Blink_Timer > 50)							// Blink_Timer я┐╜я┐╜ 50(0.25я┐╜я┐╜)я┐╜я┐╜я┐╜я┐╜ ┼йя┐╜я┐╜
     9e8:	83 33       	cpi	r24, 0x33	; 51
     9ea:	48 f0       	brcs	.+18     	; 0x9fe <__vector_46+0xba>
	{
		Blink = Blink ? 0 : 1;						// Blink я┐╜я┐╜ 1я┐╜╠╕я┐╜ 0я┐╜я┐╜я┐╜я┐╜ 0я┐╜╠╕я┐╜ 1я┐╜я┐╜ я┐╜я┐╜я┐╜я┐╜
     9ec:	81 e0       	ldi	r24, 0x01	; 1
     9ee:	90 91 71 51 	lds	r25, 0x5171	; 0x805171 <Blink>
     9f2:	91 11       	cpse	r25, r1
     9f4:	80 e0       	ldi	r24, 0x00	; 0
     9f6:	80 93 71 51 	sts	0x5171, r24	; 0x805171 <Blink>
		Blink_Timer = 0;						// Blink_Timer я┐╜╩▒я┐╜╚н
     9fa:	10 92 1b 51 	sts	0x511B, r1	; 0x80511b <Blink_Timer>
	}
//-------------------------------------------------------------------------------------------------
}
     9fe:	ff 91       	pop	r31
     a00:	ef 91       	pop	r30
     a02:	bf 91       	pop	r27
     a04:	af 91       	pop	r26
     a06:	9f 91       	pop	r25
     a08:	8f 91       	pop	r24
     a0a:	7f 91       	pop	r23
     a0c:	6f 91       	pop	r22
     a0e:	5f 91       	pop	r21
     a10:	4f 91       	pop	r20
     a12:	3f 91       	pop	r19
     a14:	2f 91       	pop	r18
     a16:	0f 90       	pop	r0
     a18:	0b be       	out	0x3b, r0	; 59
     a1a:	0f 90       	pop	r0
     a1c:	0f be       	out	0x3f, r0	; 63
     a1e:	0f 90       	pop	r0
     a20:	1f 90       	pop	r1
     a22:	18 95       	reti

00000a24 <std_putchar>:
}

//=================================================================================================
#ifdef USART_SET
int std_putchar(char c,FILE *stream)						// printf data ╕ж ╝│┴д╟╤ USART Port ╖╬ └№╝█
{
     a24:	cf 93       	push	r28
     a26:	c8 2f       	mov	r28, r24
	#ifdef Usart_0
		if(printf_port == 0) {USART0_Write(c);}
	#endif

	#ifdef Usart_1
		if(printf_port == 1) {USART1_Write(c);}
     a28:	80 91 4a 51 	lds	r24, 0x514A	; 0x80514a <printf_port>
     a2c:	81 30       	cpi	r24, 0x01	; 1
     a2e:	19 f4       	brne	.+6      	; 0xa36 <std_putchar+0x12>
     a30:	8c 2f       	mov	r24, r28
     a32:	0e 94 ad 2e 	call	0x5d5a	; 0x5d5a <USART1_Write>
	#ifdef Usart_2
		if(printf_port == 2) {USART2_Write(c);}
	#endif

	#ifdef Usart_3
		if(printf_port == 3) {USART3_Write(c);}
     a36:	80 91 4a 51 	lds	r24, 0x514A	; 0x80514a <printf_port>
     a3a:	83 30       	cpi	r24, 0x03	; 3
     a3c:	19 f4       	brne	.+6      	; 0xa44 <std_putchar+0x20>
     a3e:	8c 2f       	mov	r24, r28
     a40:	0e 94 c3 2e 	call	0x5d86	; 0x5d86 <USART3_Write>
	#ifdef Usart_5
		if(printf_port == 5) {USART5_Write(c);}
	#endif

	return 0;
}
     a44:	80 e0       	ldi	r24, 0x00	; 0
     a46:	90 e0       	ldi	r25, 0x00	; 0
     a48:	cf 91       	pop	r28
     a4a:	08 95       	ret

00000a4c <MCU_Init>:
uint16_t EepCnt;

//=================================================================================================
void MCU_Init(void)								// AVR128DA64 MCU Initialize
{
	PORTA_DIR = 0x0E;							//   Key4,   Key3,   Key2,   Key1,      x,  relay, buzzer,    CLK
     a4c:	8e e0       	ldi	r24, 0x0E	; 14
     a4e:	80 93 00 04 	sts	0x0400, r24	; 0x800400 <__TEXT_REGION_LENGTH__+0x7e0400>
	PORTB_DIR = 0x0D;							//      x,   IN 3,   IN 2,   IN 1,  RxLed,  TxLed,   RXD3,   TXD3
     a52:	8d e0       	ldi	r24, 0x0D	; 13
     a54:	80 93 20 04 	sts	0x0420, r24	; 0x800420 <__TEXT_REGION_LENGTH__+0x7e0420>
	PORTC_DIR = 0x55;							//    DO3,   SCK3,    DO2,   SCK2,    DO1,   SCK1,   RXD1,   TXD1
     a58:	85 e5       	ldi	r24, 0x55	; 85
     a5a:	80 93 40 04 	sts	0x0440, r24	; 0x800440 <__TEXT_REGION_LENGTH__+0x7e0440>
	PORTD_DIR = 0x00;							//      x,      x,      x,      x,      x,   ADC2,   ADC1,   ADC0
     a5e:	10 92 60 04 	sts	0x0460, r1	; 0x800460 <__TEXT_REGION_LENGTH__+0x7e0460>
	PORTE_DIR = 0x00;							//      x,      x,      x,      x,      x,      x,      x,      x
     a62:	10 92 80 04 	sts	0x0480, r1	; 0x800480 <__TEXT_REGION_LENGTH__+0x7e0480>
	PORTF_DIR = 0x0C;							//      x,      x,      x,      x,   SCL1,   SDA1,      x,      x
     a66:	8c e0       	ldi	r24, 0x0C	; 12
     a68:	80 93 a0 04 	sts	0x04A0, r24	; 0x8004a0 <__TEXT_REGION_LENGTH__+0x7e04a0>
	PORTG_DIR = 0xF7;							// DIGIT3, DIGIT2, DIGIT1, DIGIT0,      x,   DATA,  SHIFT,  LATCH : FND Display Control
     a6c:	87 ef       	ldi	r24, 0xF7	; 247
     a6e:	80 93 c0 04 	sts	0x04C0, r24	; 0x8004c0 <__TEXT_REGION_LENGTH__+0x7e04c0>
//-------------------------------------------------------------------------------------------------
	PORTA_OUT = 0x00;
     a72:	10 92 04 04 	sts	0x0404, r1	; 0x800404 <__TEXT_REGION_LENGTH__+0x7e0404>
	PORTB_OUT = 0x00;
     a76:	10 92 24 04 	sts	0x0424, r1	; 0x800424 <__TEXT_REGION_LENGTH__+0x7e0424>
	PORTC_OUT = 0x00;
     a7a:	10 92 44 04 	sts	0x0444, r1	; 0x800444 <__TEXT_REGION_LENGTH__+0x7e0444>
	PORTD_OUT = 0x00;
     a7e:	10 92 64 04 	sts	0x0464, r1	; 0x800464 <__TEXT_REGION_LENGTH__+0x7e0464>
	PORTE_OUT = 0x00;
     a82:	10 92 84 04 	sts	0x0484, r1	; 0x800484 <__TEXT_REGION_LENGTH__+0x7e0484>
	PORTF_OUT = 0x00;
     a86:	10 92 a4 04 	sts	0x04A4, r1	; 0x8004a4 <__TEXT_REGION_LENGTH__+0x7e04a4>
	PORTG_OUT = 0x00;
     a8a:	10 92 c4 04 	sts	0x04C4, r1	; 0x8004c4 <__TEXT_REGION_LENGTH__+0x7e04c4>
     a8e:	08 95       	ret

00000a90 <Fnd_Display>:
}

//=================================================================================================
void Fnd_Display(void)								// FND Display
{
     a90:	62 e0       	ldi	r22, 0x02	; 2
     a92:	70 e0       	ldi	r23, 0x00	; 0

	for(int8_t j = 2; j >= 0; j--)						// FND ░╣╝І╕╕┼н (3╚╕ ╣▌║╣)
	{
		for(uint8_t i = 0; i < 8; i++)					// FND 8bit data └№╝█(░э┴д)
		{
			HC595_SHIFT_OFF;					// 8 X 1 bit Data Shift └№ HC595 SHIFT OFF
     a94:	e4 ec       	ldi	r30, 0xC4	; 196
     a96:	f4 e0       	ldi	r31, 0x04	; 4
     a98:	24 c0       	rjmp	.+72     	; 0xae2 <Fnd_Display+0x52>
     a9a:	80 81       	ld	r24, Z
     a9c:	8d 7f       	andi	r24, 0xFD	; 253
     a9e:	80 83       	st	Z, r24
			if((DIGIT[j][cnt] >> i) & 0x01) {HC595_DATA_ON;}	// DIGIT[FND╣Ї╚г][DIGIT╣Ї╚г] ░б 1 └╠╕щ HC595_DATA_ON
     aa0:	80 91 78 41 	lds	r24, 0x4178	; 0x804178 <cnt.6449>
     aa4:	da 01       	movw	r26, r20
     aa6:	a8 0f       	add	r26, r24
     aa8:	b1 1d       	adc	r27, r1
     aaa:	8c 91       	ld	r24, X
     aac:	90 e0       	ldi	r25, 0x00	; 0
     aae:	02 2e       	mov	r0, r18
     ab0:	02 c0       	rjmp	.+4      	; 0xab6 <Fnd_Display+0x26>
     ab2:	95 95       	asr	r25
     ab4:	87 95       	ror	r24
     ab6:	0a 94       	dec	r0
     ab8:	e2 f7       	brpl	.-8      	; 0xab2 <Fnd_Display+0x22>
     aba:	80 ff       	sbrs	r24, 0
     abc:	04 c0       	rjmp	.+8      	; 0xac6 <Fnd_Display+0x36>
     abe:	80 81       	ld	r24, Z
     ac0:	84 60       	ori	r24, 0x04	; 4
     ac2:	80 83       	st	Z, r24
     ac4:	03 c0       	rjmp	.+6      	; 0xacc <Fnd_Display+0x3c>
			else				{HC595_DATA_OFF;}	// DIGIT[FND╣Ї╚г][DIGIT╣Ї╚г] ░б 0 └╠╕щ HC595_DATA_OFF
     ac6:	80 81       	ld	r24, Z
     ac8:	8b 7f       	andi	r24, 0xFB	; 251
     aca:	80 83       	st	Z, r24
			HC595_SHIFT_ON;						// 8 X 1 bit Data Shift ╚─ HC595 SHIFT ON
     acc:	80 81       	ld	r24, Z
     ace:	82 60       	ori	r24, 0x02	; 2
     ad0:	80 83       	st	Z, r24
     ad2:	2f 5f       	subi	r18, 0xFF	; 255
     ad4:	3f 4f       	sbci	r19, 0xFF	; 255
{
	static uint8_t cnt = 0;							// cnt ║п╝І ├╩▒т╚н

	for(int8_t j = 2; j >= 0; j--)						// FND ░╣╝І╕╕┼н (3╚╕ ╣▌║╣)
	{
		for(uint8_t i = 0; i < 8; i++)					// FND 8bit data └№╝█(░э┴д)
     ad6:	28 30       	cpi	r18, 0x08	; 8
     ad8:	31 05       	cpc	r19, r1
     ada:	f9 f6       	brne	.-66     	; 0xa9a <Fnd_Display+0xa>
     adc:	61 50       	subi	r22, 0x01	; 1
     ade:	71 09       	sbc	r23, r1
     ae0:	50 f0       	brcs	.+20     	; 0xaf6 <Fnd_Display+0x66>
	PORTG_OUT = 0x00;
}

//=================================================================================================
void Fnd_Display(void)								// FND Display
{
     ae2:	20 e0       	ldi	r18, 0x00	; 0
     ae4:	30 e0       	ldi	r19, 0x00	; 0
	for(int8_t j = 2; j >= 0; j--)						// FND ░╣╝І╕╕┼н (3╚╕ ╣▌║╣)
	{
		for(uint8_t i = 0; i < 8; i++)					// FND 8bit data └№╝█(░э┴д)
		{
			HC595_SHIFT_OFF;					// 8 X 1 bit Data Shift └№ HC595 SHIFT OFF
			if((DIGIT[j][cnt] >> i) & 0x01) {HC595_DATA_ON;}	// DIGIT[FND╣Ї╚г][DIGIT╣Ї╚г] ░б 1 └╠╕щ HC595_DATA_ON
     ae6:	ab 01       	movw	r20, r22
     ae8:	44 0f       	add	r20, r20
     aea:	55 1f       	adc	r21, r21
     aec:	44 0f       	add	r20, r20
     aee:	55 1f       	adc	r21, r21
     af0:	47 58       	subi	r20, 0x87	; 135
     af2:	5e 4b       	sbci	r21, 0xBE	; 190
     af4:	d2 cf       	rjmp	.-92     	; 0xa9a <Fnd_Display+0xa>
			else				{HC595_DATA_OFF;}	// DIGIT[FND╣Ї╚г][DIGIT╣Ї╚г] ░б 0 └╠╕щ HC595_DATA_OFF
			HC595_SHIFT_ON;						// 8 X 1 bit Data Shift ╚─ HC595 SHIFT ON
		}
	}
	HC595_LATCH_ON;								// FND ░╣╝І X 8bit Data Shift ╚─
     af6:	e4 ec       	ldi	r30, 0xC4	; 196
     af8:	f4 e0       	ldi	r31, 0x04	; 4
     afa:	80 81       	ld	r24, Z
     afc:	81 60       	ori	r24, 0x01	; 1
     afe:	80 83       	st	Z, r24
	HC595_LATCH_OFF;							// HC595 LATCH ON, OFF
     b00:	80 81       	ld	r24, Z
     b02:	8e 7f       	andi	r24, 0xFE	; 254
     b04:	80 83       	st	Z, r24
//-------------------------------------------------------------------------------------------------
	switch(cnt)
     b06:	80 91 78 41 	lds	r24, 0x4178	; 0x804178 <cnt.6449>
     b0a:	81 30       	cpi	r24, 0x01	; 1
     b0c:	a9 f0       	breq	.+42     	; 0xb38 <Fnd_Display+0xa8>
     b0e:	28 f0       	brcs	.+10     	; 0xb1a <Fnd_Display+0x8a>
     b10:	82 30       	cpi	r24, 0x02	; 2
     b12:	09 f1       	breq	.+66     	; 0xb56 <Fnd_Display+0xc6>
     b14:	83 30       	cpi	r24, 0x03	; 3
     b16:	71 f1       	breq	.+92     	; 0xb74 <Fnd_Display+0xe4>
     b18:	3b c0       	rjmp	.+118    	; 0xb90 <Fnd_Display+0x100>
	{
		case 0: DIGIT3_OFF; DIGIT2_OFF; DIGIT1_OFF; DIGIT0_ON;  break;	// DIGIT0 ON │к╕╙┴І OFF
     b1a:	e4 ec       	ldi	r30, 0xC4	; 196
     b1c:	f4 e0       	ldi	r31, 0x04	; 4
     b1e:	80 81       	ld	r24, Z
     b20:	8f 7e       	andi	r24, 0xEF	; 239
     b22:	80 83       	st	Z, r24
     b24:	80 81       	ld	r24, Z
     b26:	8f 7d       	andi	r24, 0xDF	; 223
     b28:	80 83       	st	Z, r24
     b2a:	80 81       	ld	r24, Z
     b2c:	8f 7b       	andi	r24, 0xBF	; 191
     b2e:	80 83       	st	Z, r24
     b30:	80 81       	ld	r24, Z
     b32:	80 68       	ori	r24, 0x80	; 128
     b34:	80 83       	st	Z, r24
     b36:	2c c0       	rjmp	.+88     	; 0xb90 <Fnd_Display+0x100>
		case 1: DIGIT3_OFF; DIGIT2_OFF; DIGIT1_ON;  DIGIT0_OFF; break;	// DIGIT1 ON │к╕╙┴І OFF
     b38:	e4 ec       	ldi	r30, 0xC4	; 196
     b3a:	f4 e0       	ldi	r31, 0x04	; 4
     b3c:	80 81       	ld	r24, Z
     b3e:	8f 7e       	andi	r24, 0xEF	; 239
     b40:	80 83       	st	Z, r24
     b42:	80 81       	ld	r24, Z
     b44:	8f 7d       	andi	r24, 0xDF	; 223
     b46:	80 83       	st	Z, r24
     b48:	80 81       	ld	r24, Z
     b4a:	80 64       	ori	r24, 0x40	; 64
     b4c:	80 83       	st	Z, r24
     b4e:	80 81       	ld	r24, Z
     b50:	8f 77       	andi	r24, 0x7F	; 127
     b52:	80 83       	st	Z, r24
     b54:	1d c0       	rjmp	.+58     	; 0xb90 <Fnd_Display+0x100>
		case 2: DIGIT3_OFF; DIGIT2_ON;  DIGIT1_OFF; DIGIT0_OFF; break;	// DIGIT2 ON │к╕╙┴І OFF
     b56:	e4 ec       	ldi	r30, 0xC4	; 196
     b58:	f4 e0       	ldi	r31, 0x04	; 4
     b5a:	80 81       	ld	r24, Z
     b5c:	8f 7e       	andi	r24, 0xEF	; 239
     b5e:	80 83       	st	Z, r24
     b60:	80 81       	ld	r24, Z
     b62:	80 62       	ori	r24, 0x20	; 32
     b64:	80 83       	st	Z, r24
     b66:	80 81       	ld	r24, Z
     b68:	8f 7b       	andi	r24, 0xBF	; 191
     b6a:	80 83       	st	Z, r24
     b6c:	80 81       	ld	r24, Z
     b6e:	8f 77       	andi	r24, 0x7F	; 127
     b70:	80 83       	st	Z, r24
     b72:	0e c0       	rjmp	.+28     	; 0xb90 <Fnd_Display+0x100>
		case 3: DIGIT3_ON;  DIGIT2_OFF; DIGIT1_OFF; DIGIT0_OFF; break;	// DIGIT3 ON │к╕╙┴І OFF
     b74:	e4 ec       	ldi	r30, 0xC4	; 196
     b76:	f4 e0       	ldi	r31, 0x04	; 4
     b78:	80 81       	ld	r24, Z
     b7a:	80 61       	ori	r24, 0x10	; 16
     b7c:	80 83       	st	Z, r24
     b7e:	80 81       	ld	r24, Z
     b80:	8f 7d       	andi	r24, 0xDF	; 223
     b82:	80 83       	st	Z, r24
     b84:	80 81       	ld	r24, Z
     b86:	8f 7b       	andi	r24, 0xBF	; 191
     b88:	80 83       	st	Z, r24
     b8a:	80 81       	ld	r24, Z
     b8c:	8f 77       	andi	r24, 0x7F	; 127
     b8e:	80 83       	st	Z, r24
	}
	cnt++;									// ┤┘└╜ Digit ╕ж └з╟╪ cnt ┴є░б
     b90:	80 91 78 41 	lds	r24, 0x4178	; 0x804178 <cnt.6449>
     b94:	8f 5f       	subi	r24, 0xFF	; 255
	if(cnt >= 4) {cnt = 0;}							// FND Digit ╝І╕╕┼н (4╚╕) ╣▌║╣ ╚─ ├╩▒т╚н
     b96:	84 30       	cpi	r24, 0x04	; 4
     b98:	18 f4       	brcc	.+6      	; 0xba0 <Fnd_Display+0x110>
		case 0: DIGIT3_OFF; DIGIT2_OFF; DIGIT1_OFF; DIGIT0_ON;  break;	// DIGIT0 ON │к╕╙┴І OFF
		case 1: DIGIT3_OFF; DIGIT2_OFF; DIGIT1_ON;  DIGIT0_OFF; break;	// DIGIT1 ON │к╕╙┴І OFF
		case 2: DIGIT3_OFF; DIGIT2_ON;  DIGIT1_OFF; DIGIT0_OFF; break;	// DIGIT2 ON │к╕╙┴І OFF
		case 3: DIGIT3_ON;  DIGIT2_OFF; DIGIT1_OFF; DIGIT0_OFF; break;	// DIGIT3 ON │к╕╙┴І OFF
	}
	cnt++;									// ┤┘└╜ Digit ╕ж └з╟╪ cnt ┴є░б
     b9a:	80 93 78 41 	sts	0x4178, r24	; 0x804178 <cnt.6449>
     b9e:	08 95       	ret
	if(cnt >= 4) {cnt = 0;}							// FND Digit ╝І╕╕┼н (4╚╕) ╣▌║╣ ╚─ ├╩▒т╚н
     ba0:	10 92 78 41 	sts	0x4178, r1	; 0x804178 <cnt.6449>
     ba4:	08 95       	ret

00000ba6 <FND_Value_Data>:
}

//=================================================================================================
void FND_Value_Data(uint8_t start, uint8_t end, uint8_t value)			// FND ┐б ╣▌║╣ ╡╟┤┬ Data ╟е╜├
{
	for(uint8_t i = start; i <= end; i++)					// FND ┐б start ║╬┼═ end ▒ю┴І
     ba6:	68 17       	cp	r22, r24
     ba8:	a0 f0       	brcs	.+40     	; 0xbd2 <FND_Value_Data+0x2c>
	{
		for(uint8_t j = 0; j <= 3; j++)					// FND DIGIT 0 ║╬┼═ 3 ▒ю┴І value Data ╟е╜├
		{
			DIGIT[i][j] = fnd_tbl[value];				// DIGIT[j] value Data ╟е╜├
     baa:	e4 2f       	mov	r30, r20
     bac:	f0 e0       	ldi	r31, 0x00	; 0
     bae:	ed 5b       	subi	r30, 0xBD	; 189
     bb0:	fe 4b       	sbci	r31, 0xBE	; 190
     bb2:	90 81       	ld	r25, Z
     bb4:	e8 2f       	mov	r30, r24
     bb6:	f0 e0       	ldi	r31, 0x00	; 0
     bb8:	ee 0f       	add	r30, r30
     bba:	ff 1f       	adc	r31, r31
     bbc:	ee 0f       	add	r30, r30
     bbe:	ff 1f       	adc	r31, r31
     bc0:	e7 58       	subi	r30, 0x87	; 135
     bc2:	fe 4b       	sbci	r31, 0xBE	; 190
     bc4:	90 83       	st	Z, r25
     bc6:	91 83       	std	Z+1, r25	; 0x01
     bc8:	92 83       	std	Z+2, r25	; 0x02
     bca:	93 83       	std	Z+3, r25	; 0x03
}

//=================================================================================================
void FND_Value_Data(uint8_t start, uint8_t end, uint8_t value)			// FND ┐б ╣▌║╣ ╡╟┤┬ Data ╟е╜├
{
	for(uint8_t i = start; i <= end; i++)					// FND ┐б start ║╬┼═ end ▒ю┴І
     bcc:	8f 5f       	subi	r24, 0xFF	; 255
     bce:	68 17       	cp	r22, r24
     bd0:	88 f7       	brcc	.-30     	; 0xbb4 <FND_Value_Data+0xe>
     bd2:	08 95       	ret

00000bd4 <FND_ALL_OFF>:
	}
}

//=================================================================================================
void FND_ALL_OFF(void)								// FND └№├╝ OFF
{
     bd4:	e9 e7       	ldi	r30, 0x79	; 121
     bd6:	f1 e4       	ldi	r31, 0x41	; 65
     bd8:	85 e8       	ldi	r24, 0x85	; 133
     bda:	91 e4       	ldi	r25, 0x41	; 65
	for(uint8_t i = 0; i <= 2; i++)						// 0╣Ї FND ║╬┼═ 2╣Ї FND ▒ю┴І
	{
		for(uint8_t j = 0; j <= 3; j++)					// FND DIGIT 0 ║╬┼═ 3 ▒ю┴І FND OFF
		{
			DIGIT[i][j] = FND_OFF;					// DIGIT[j] FND OFF
     bdc:	10 82       	st	Z, r1
     bde:	11 82       	std	Z+1, r1	; 0x01
     be0:	12 82       	std	Z+2, r1	; 0x02
     be2:	13 82       	std	Z+3, r1	; 0x03
     be4:	34 96       	adiw	r30, 0x04	; 4
}

//=================================================================================================
void FND_ALL_OFF(void)								// FND └№├╝ OFF
{
	for(uint8_t i = 0; i <= 2; i++)						// 0╣Ї FND ║╬┼═ 2╣Ї FND ▒ю┴І
     be6:	8e 17       	cp	r24, r30
     be8:	9f 07       	cpc	r25, r31
     bea:	c1 f7       	brne	.-16     	; 0xbdc <FND_ALL_OFF+0x8>
		for(uint8_t j = 0; j <= 3; j++)					// FND DIGIT 0 ║╬┼═ 3 ▒ю┴І FND OFF
		{
			DIGIT[i][j] = FND_OFF;					// DIGIT[j] FND OFF
		}
	}
}
     bec:	08 95       	ret

00000bee <Key_Scan>:
//=================================================================================================
//		key ░к scan
//=================================================================================================
void Key_Scan(void)								// key └╘╖┬ ├╝┼й
{
	if(!KEY.Buff)								// Key └╘╖┬└╠ ╛Ї╛·└╕╕щ
     bee:	80 91 4c 51 	lds	r24, 0x514C	; 0x80514c <KEY+0x1>
     bf2:	81 11       	cpse	r24, r1
     bf4:	d5 c0       	rjmp	.+426    	; 0xda0 <Key_Scan+0x1b2>
	{
		if(keytemp & 0x10) {Beep(10); KEY.Key = 1; KEY.Buff = 1; Timer.RegExitTimer = 0; Sec_Count = 0;}	// +(UP)  бу key └╘╖┬└╠ └╓└╕╕щ
     bf6:	80 91 08 04 	lds	r24, 0x0408	; 0x800408 <__TEXT_REGION_LENGTH__+0x7e0408>
     bfa:	84 fd       	sbrc	r24, 4
     bfc:	11 c0       	rjmp	.+34     	; 0xc20 <Key_Scan+0x32>
     bfe:	8a e0       	ldi	r24, 0x0A	; 10
     c00:	90 e0       	ldi	r25, 0x00	; 0
     c02:	0e 94 42 04 	call	0x884	; 0x884 <Beep>
     c06:	eb e4       	ldi	r30, 0x4B	; 75
     c08:	f1 e5       	ldi	r31, 0x51	; 81
     c0a:	81 e0       	ldi	r24, 0x01	; 1
     c0c:	82 83       	std	Z+2, r24	; 0x02
     c0e:	81 83       	std	Z+1, r24	; 0x01
     c10:	10 92 33 51 	sts	0x5133, r1	; 0x805133 <Timer+0x1>
     c14:	10 92 34 51 	sts	0x5134, r1	; 0x805134 <Timer+0x2>
     c18:	10 92 81 52 	sts	0x5281, r1	; 0x805281 <Sec_Count>
     c1c:	10 92 82 52 	sts	0x5282, r1	; 0x805282 <Sec_Count+0x1>
		if(keytemp & 0x20) {Beep(10); KEY.Key = 2; KEY.Buff = 1; Timer.RegExitTimer = 0; Sec_Count = 0;}	// Select   key └╘╖┬└╠ └╓└╕╕щ
     c20:	80 91 08 04 	lds	r24, 0x0408	; 0x800408 <__TEXT_REGION_LENGTH__+0x7e0408>
     c24:	85 fd       	sbrc	r24, 5
     c26:	12 c0       	rjmp	.+36     	; 0xc4c <Key_Scan+0x5e>
     c28:	8a e0       	ldi	r24, 0x0A	; 10
     c2a:	90 e0       	ldi	r25, 0x00	; 0
     c2c:	0e 94 42 04 	call	0x884	; 0x884 <Beep>
     c30:	eb e4       	ldi	r30, 0x4B	; 75
     c32:	f1 e5       	ldi	r31, 0x51	; 81
     c34:	82 e0       	ldi	r24, 0x02	; 2
     c36:	82 83       	std	Z+2, r24	; 0x02
     c38:	81 e0       	ldi	r24, 0x01	; 1
     c3a:	81 83       	std	Z+1, r24	; 0x01
     c3c:	10 92 33 51 	sts	0x5133, r1	; 0x805133 <Timer+0x1>
     c40:	10 92 34 51 	sts	0x5134, r1	; 0x805134 <Timer+0x2>
     c44:	10 92 81 52 	sts	0x5281, r1	; 0x805281 <Sec_Count>
     c48:	10 92 82 52 	sts	0x5282, r1	; 0x805282 <Sec_Count+0x1>
		if(keytemp & 0x40) {Beep(10); KEY.Key = 3; KEY.Buff = 1; Timer.RegExitTimer = 0; Sec_Count = 0;}	// -(Down)бх key └╘╖┬└╠ └╓└╕╕щ
     c4c:	80 91 08 04 	lds	r24, 0x0408	; 0x800408 <__TEXT_REGION_LENGTH__+0x7e0408>
     c50:	86 fd       	sbrc	r24, 6
     c52:	12 c0       	rjmp	.+36     	; 0xc78 <Key_Scan+0x8a>
     c54:	8a e0       	ldi	r24, 0x0A	; 10
     c56:	90 e0       	ldi	r25, 0x00	; 0
     c58:	0e 94 42 04 	call	0x884	; 0x884 <Beep>
     c5c:	eb e4       	ldi	r30, 0x4B	; 75
     c5e:	f1 e5       	ldi	r31, 0x51	; 81
     c60:	83 e0       	ldi	r24, 0x03	; 3
     c62:	82 83       	std	Z+2, r24	; 0x02
     c64:	81 e0       	ldi	r24, 0x01	; 1
     c66:	81 83       	std	Z+1, r24	; 0x01
     c68:	10 92 33 51 	sts	0x5133, r1	; 0x805133 <Timer+0x1>
     c6c:	10 92 34 51 	sts	0x5134, r1	; 0x805134 <Timer+0x2>
     c70:	10 92 81 52 	sts	0x5281, r1	; 0x805281 <Sec_Count>
     c74:	10 92 82 52 	sts	0x5282, r1	; 0x805282 <Sec_Count+0x1>
		if(keytemp & 0x80) {Beep(10); KEY.Key = 4; KEY.Buff = 1; Timer.RegExitTimer = 0; Sec_Count = 0;}	// Menu     key └╘╖┬└╠ └╓└╕╕щ
     c78:	80 91 08 04 	lds	r24, 0x0408	; 0x800408 <__TEXT_REGION_LENGTH__+0x7e0408>
     c7c:	88 23       	and	r24, r24
     c7e:	94 f0       	brlt	.+36     	; 0xca4 <Key_Scan+0xb6>
     c80:	8a e0       	ldi	r24, 0x0A	; 10
     c82:	90 e0       	ldi	r25, 0x00	; 0
     c84:	0e 94 42 04 	call	0x884	; 0x884 <Beep>
     c88:	eb e4       	ldi	r30, 0x4B	; 75
     c8a:	f1 e5       	ldi	r31, 0x51	; 81
     c8c:	84 e0       	ldi	r24, 0x04	; 4
     c8e:	82 83       	std	Z+2, r24	; 0x02
     c90:	81 e0       	ldi	r24, 0x01	; 1
     c92:	81 83       	std	Z+1, r24	; 0x01
     c94:	10 92 33 51 	sts	0x5133, r1	; 0x805133 <Timer+0x1>
     c98:	10 92 34 51 	sts	0x5134, r1	; 0x805134 <Timer+0x2>
     c9c:	10 92 81 52 	sts	0x5281, r1	; 0x805281 <Sec_Count>
     ca0:	10 92 82 52 	sts	0x5282, r1	; 0x805282 <Sec_Count+0x1>

		if(KEY.Key == 4)						// Menu key └╘╖┬└╠ └╓└╕╕щ
     ca4:	80 91 4d 51 	lds	r24, 0x514D	; 0x80514d <KEY+0x2>
     ca8:	84 30       	cpi	r24, 0x04	; 4
     caa:	51 f4       	brne	.+20     	; 0xcc0 <Key_Scan+0xd2>
		{
			if(SET.Menu) {SET.Menu = 0;}				// ╕▐┤║╕Ё╡х = 1 └╠╕щ ╕▐┤║╕Ё╡х ╟╪┴ж
     cac:	80 91 0e 51 	lds	r24, 0x510E	; 0x80510e <SET>
     cb0:	88 23       	and	r24, r24
     cb2:	19 f0       	breq	.+6      	; 0xcba <Key_Scan+0xcc>
     cb4:	10 92 0e 51 	sts	0x510E, r1	; 0x80510e <SET>
     cb8:	03 c0       	rjmp	.+6      	; 0xcc0 <Key_Scan+0xd2>
			else	     {SET.Menu = 1;}				// ╕▐┤║╕Ё╡х = 0 └╠╕щ ╕▐┤║╕Ё╡х ╝│┴д
     cba:	81 e0       	ldi	r24, 0x01	; 1
     cbc:	80 93 0e 51 	sts	0x510E, r24	; 0x80510e <SET>
		}

		if(SET.Menu && KEY.Key == 2 && !SET.Blink)			// ╕▐┤║╕Ё╡х └╠░э Blink = 0 └╠░э ╝▒┼├ Key └╘╖┬└╠ └╓└╕╕щ
     cc0:	80 91 0e 51 	lds	r24, 0x510E	; 0x80510e <SET>
     cc4:	88 23       	and	r24, r24
     cc6:	91 f0       	breq	.+36     	; 0xcec <Key_Scan+0xfe>
     cc8:	80 91 4d 51 	lds	r24, 0x514D	; 0x80514d <KEY+0x2>
     ccc:	82 30       	cpi	r24, 0x02	; 2
     cce:	71 f4       	brne	.+28     	; 0xcec <Key_Scan+0xfe>
     cd0:	80 91 11 51 	lds	r24, 0x5111	; 0x805111 <SET+0x3>
     cd4:	81 11       	cpse	r24, r1
     cd6:	0a c0       	rjmp	.+20     	; 0xcec <Key_Scan+0xfe>
		{
			if(SET.Select) {SET.Select = 0;}			// ╝▒┼├╕Ё╡х = 1 └╠╕щ ╝▒┼├╕Ё╡х ╟╪┴ж
     cd8:	80 91 0f 51 	lds	r24, 0x510F	; 0x80510f <SET+0x1>
     cdc:	88 23       	and	r24, r24
     cde:	19 f0       	breq	.+6      	; 0xce6 <Key_Scan+0xf8>
     ce0:	10 92 0f 51 	sts	0x510F, r1	; 0x80510f <SET+0x1>
     ce4:	03 c0       	rjmp	.+6      	; 0xcec <Key_Scan+0xfe>
			else	       {SET.Select = 1;}			// ╝▒┼├╕Ё╡х = 0 └╠╕щ ╝▒┼├╕Ё╡х ╝│┴д
     ce6:	81 e0       	ldi	r24, 0x01	; 1
     ce8:	80 93 0f 51 	sts	0x510F, r24	; 0x80510f <SET+0x1>
		}

		if(!SET.Menu && !SET.NumSET && KEY.Key == 2)			// ╕▐┤║╕Ё╡х ┐═ SET.NumSET ░б 1└╠ ╛╞┤╧░э ╝▒┼├ Key └╘╖┬└╠ └╓└╕╕щ
     cec:	80 91 0e 51 	lds	r24, 0x510E	; 0x80510e <SET>
     cf0:	81 11       	cpse	r24, r1
     cf2:	17 c0       	rjmp	.+46     	; 0xd22 <Key_Scan+0x134>
     cf4:	80 91 10 51 	lds	r24, 0x5110	; 0x805110 <SET+0x2>
     cf8:	81 11       	cpse	r24, r1
     cfa:	13 c0       	rjmp	.+38     	; 0xd22 <Key_Scan+0x134>
     cfc:	80 91 4d 51 	lds	r24, 0x514D	; 0x80514d <KEY+0x2>
     d00:	82 30       	cpi	r24, 0x02	; 2
     d02:	79 f4       	brne	.+30     	; 0xd22 <Key_Scan+0x134>
		{
			if(SET.Save) {SET.Save = 0;}				// └·└х╕Ё╡х = 1 └╠╕щ └·└х╕Ё╡х ╟╪┴ж
     d04:	80 91 12 51 	lds	r24, 0x5112	; 0x805112 <SET+0x4>
     d08:	88 23       	and	r24, r24
     d0a:	19 f0       	breq	.+6      	; 0xd12 <Key_Scan+0x124>
     d0c:	10 92 12 51 	sts	0x5112, r1	; 0x805112 <SET+0x4>
     d10:	08 c0       	rjmp	.+16     	; 0xd22 <Key_Scan+0x134>
			else							// └·└х╕Ё╡х = 0 └╠╕щ └·└х╕Ё╡х ╝│┴д
			{
				SET.Save = 1;
     d12:	81 e0       	ldi	r24, 0x01	; 1
     d14:	80 93 12 51 	sts	0x5112, r24	; 0x805112 <SET+0x4>
				FND_Value_Data(2, 2, 10);			// FND 2 FND_MINUS ╟е╜├
     d18:	4a e0       	ldi	r20, 0x0A	; 10
     d1a:	62 e0       	ldi	r22, 0x02	; 2
     d1c:	82 e0       	ldi	r24, 0x02	; 2
     d1e:	0e 94 d3 05 	call	0xba6	; 0xba6 <FND_Value_Data>
			}
		}

		if(SET.Menu && KEY.Key == 2 && SET.Blink) {KEY.Count++;}	// ╕▐┤║╕Ё╡х └╠░э Blink = 1 └╠░э ╝▒┼├ Key └╘╖┬└╠ └╓└╕╕щ Key ░б ┤н╕░╚╜╝І ┴є░б
     d22:	80 91 0e 51 	lds	r24, 0x510E	; 0x80510e <SET>
     d26:	88 23       	and	r24, r24
     d28:	69 f0       	breq	.+26     	; 0xd44 <Key_Scan+0x156>
     d2a:	80 91 4d 51 	lds	r24, 0x514D	; 0x80514d <KEY+0x2>
     d2e:	82 30       	cpi	r24, 0x02	; 2
     d30:	49 f4       	brne	.+18     	; 0xd44 <Key_Scan+0x156>
     d32:	80 91 11 51 	lds	r24, 0x5111	; 0x805111 <SET+0x3>
     d36:	88 23       	and	r24, r24
     d38:	29 f0       	breq	.+10     	; 0xd44 <Key_Scan+0x156>
     d3a:	eb e4       	ldi	r30, 0x4B	; 75
     d3c:	f1 e5       	ldi	r31, 0x51	; 81
     d3e:	80 81       	ld	r24, Z
     d40:	8f 5f       	subi	r24, 0xFF	; 255
     d42:	80 83       	st	Z, r24

		if(!SET.Menu && KEY.Key == 1) {if(!SET.NumSET) {SET.NumSET = 1;}}	// ╕▐┤║╕Ё╡х░б ╛╞┤╧░э ╝▒┼├ Key └╘╖┬└╠ └╓└╕╕щ NumSET╕Ё╡х = 1 ╛╞┤╧╕щ NumSET╕Ё╡х ╝│┴д
     d44:	80 91 0e 51 	lds	r24, 0x510E	; 0x80510e <SET>
     d48:	81 11       	cpse	r24, r1
     d4a:	0b c0       	rjmp	.+22     	; 0xd62 <Key_Scan+0x174>
     d4c:	80 91 4d 51 	lds	r24, 0x514D	; 0x80514d <KEY+0x2>
     d50:	81 30       	cpi	r24, 0x01	; 1
     d52:	39 f4       	brne	.+14     	; 0xd62 <Key_Scan+0x174>
     d54:	80 91 10 51 	lds	r24, 0x5110	; 0x805110 <SET+0x2>
     d58:	81 11       	cpse	r24, r1
     d5a:	03 c0       	rjmp	.+6      	; 0xd62 <Key_Scan+0x174>
     d5c:	81 e0       	ldi	r24, 0x01	; 1
     d5e:	80 93 10 51 	sts	0x5110, r24	; 0x805110 <SET+0x2>

		if(KEY.Old == KEY.Key)						// Old Key ░к└╠ New Key ░к└╠ ░░└╕╕щ
     d62:	eb e4       	ldi	r30, 0x4B	; 75
     d64:	f1 e5       	ldi	r31, 0x51	; 81
     d66:	93 81       	ldd	r25, Z+3	; 0x03
     d68:	82 81       	ldd	r24, Z+2	; 0x02
     d6a:	98 13       	cpse	r25, r24
     d6c:	11 c0       	rjmp	.+34     	; 0xd90 <Key_Scan+0x1a2>
		{
			if(KEY.In_Count >= 2) {Timer.Input_Key = 20;}		// ┐м╝╙└╘╖┬└╠ 2║╕┤┘ ╕╣└╕╕щ ┐м╝╙└╘╖┬╜├░г = 20
     d6e:	80 91 4f 51 	lds	r24, 0x514F	; 0x80514f <KEY+0x4>
     d72:	82 30       	cpi	r24, 0x02	; 2
     d74:	20 f0       	brcs	.+8      	; 0xd7e <Key_Scan+0x190>
     d76:	84 e1       	ldi	r24, 0x14	; 20
     d78:	80 93 32 51 	sts	0x5132, r24	; 0x805132 <Timer>
     d7c:	08 95       	ret
			else {Timer.Input_Key = 50; KEY.In_Count++;}		// ┐м╝╙└╘╖┬└╠ 2║╕┤┘ └█└╕╕щ ┐м╝╙└╘╖┬╜├░г = 50, ┐м╝╙└╘╖┬ ┴є░б
     d7e:	82 e3       	ldi	r24, 0x32	; 50
     d80:	80 93 32 51 	sts	0x5132, r24	; 0x805132 <Timer>
     d84:	eb e4       	ldi	r30, 0x4B	; 75
     d86:	f1 e5       	ldi	r31, 0x51	; 81
     d88:	84 81       	ldd	r24, Z+4	; 0x04
     d8a:	8f 5f       	subi	r24, 0xFF	; 255
     d8c:	84 83       	std	Z+4, r24	; 0x04
     d8e:	08 95       	ret
		}
		else								// Old Key ░к└╠ New Key ░к└╠ ░░┴І ╛╩└╕╕щ
		{
			Timer.Input_Key = 50;					// ┐м╝╙└╘╖┬ = 50
     d90:	82 e3       	ldi	r24, 0x32	; 50
     d92:	80 93 32 51 	sts	0x5132, r24	; 0x805132 <Timer>
			KEY.Old = KEY.Key;					// Old Key ┐б New Key └·└х
     d96:	eb e4       	ldi	r30, 0x4B	; 75
     d98:	f1 e5       	ldi	r31, 0x51	; 81
     d9a:	82 81       	ldd	r24, Z+2	; 0x02
     d9c:	83 83       	std	Z+3, r24	; 0x03
			KEY.In_Count = 0;					// ┐м╝╙└╘╖┬ ├╩▒т╚н
     d9e:	14 82       	std	Z+4, r1	; 0x04
     da0:	08 95       	ret

00000da2 <Read_eeprom>:
	}
}

//=================================================================================================
void Read_eeprom(void)								// EEPROM Data └╨▒т
{
     da2:	cf 92       	push	r12
     da4:	df 92       	push	r13
     da6:	ef 92       	push	r14
     da8:	ff 92       	push	r15
//-------------------------------------------------------------------------------------------------
//		░╘└╠╞о┐■└╠ ID
//-------------------------------------------------------------------------------------------------
	Gwid = ee_read_byte(Gateway_GWID_Addr);					// ░╘└╠╞о┐■└╠ ID ╝│┴д░к ║╥╖п┐└▒т
     daa:	81 e0       	ldi	r24, 0x01	; 1
     dac:	90 e0       	ldi	r25, 0x00	; 0
     dae:	0e 94 bb 14 	call	0x2976	; 0x2976 <ee_read_byte>
	if(Gwid > 60 || Gwid == 0)						// ░╘└╠╞о┐■└╠ ID ╝│┴д░к└╠ 60║╕┤┘ ┼й░┼│к 0░· ░░└╕╕щ
     db2:	9f ef       	ldi	r25, 0xFF	; 255
     db4:	98 0f       	add	r25, r24
     db6:	9c 33       	cpi	r25, 0x3C	; 60
     db8:	18 f4       	brcc	.+6      	; 0xdc0 <Read_eeprom+0x1e>
void Read_eeprom(void)								// EEPROM Data └╨▒т
{
//-------------------------------------------------------------------------------------------------
//		░╘└╠╞о┐■└╠ ID
//-------------------------------------------------------------------------------------------------
	Gwid = ee_read_byte(Gateway_GWID_Addr);					// ░╘└╠╞о┐■└╠ ID ╝│┴д░к ║╥╖п┐└▒т
     dba:	80 93 85 52 	sts	0x5285, r24	; 0x805285 <Gwid>
     dbe:	08 c0       	rjmp	.+16     	; 0xdd0 <Read_eeprom+0x2e>
	if(Gwid > 60 || Gwid == 0)						// ░╘└╠╞о┐■└╠ ID ╝│┴д░к└╠ 60║╕┤┘ ┼й░┼│к 0░· ░░└╕╕щ
	{
		Gwid = 1;							// ░╘└╠╞о┐■└╠ ID ╝│┴д░к└╗ 1╖╬ ├╩▒т╚н
     dc0:	81 e0       	ldi	r24, 0x01	; 1
     dc2:	80 93 85 52 	sts	0x5285, r24	; 0x805285 <Gwid>
		ee_write_byte(Gateway_GWID_Addr, Gwid);				// ░╘└╠╞о┐■└╠ ID ╝│┴д░к└╗ EEPROM ┐б └·└х
     dc6:	61 e0       	ldi	r22, 0x01	; 1
     dc8:	81 e0       	ldi	r24, 0x01	; 1
     dca:	90 e0       	ldi	r25, 0x00	; 0
     dcc:	0e 94 dd 14 	call	0x29ba	; 0x29ba <ee_write_byte>
	}
//-------------------------------------------------------------------------------------------------
//		└·└х╡╚ │п┬е Date
//-------------------------------------------------------------------------------------------------
	RTC_T.OLD_D = ee_read_byte(OLD_Date_Addr);				// │п┬е ╝│┴д░к ║╥╖п┐└▒т
     dd0:	82 e0       	ldi	r24, 0x02	; 2
     dd2:	90 e0       	ldi	r25, 0x00	; 0
     dd4:	0e 94 bb 14 	call	0x2976	; 0x2976 <ee_read_byte>
	if(RTC_T.OLD_D > 31 || RTC_T.OLD_D == 0)				// │п┬е ╝│┴д░к└╠ 31└╧║╕┤┘ ┼й░┼│к 0░· ░░└╕╕щ
     dd8:	9f ef       	ldi	r25, 0xFF	; 255
     dda:	98 0f       	add	r25, r24
     ddc:	9f 31       	cpi	r25, 0x1F	; 31
     dde:	18 f4       	brcc	.+6      	; 0xde6 <Read_eeprom+0x44>
		ee_write_byte(Gateway_GWID_Addr, Gwid);				// ░╘└╠╞о┐■└╠ ID ╝│┴д░к└╗ EEPROM ┐б └·└х
	}
//-------------------------------------------------------------------------------------------------
//		└·└х╡╚ │п┬е Date
//-------------------------------------------------------------------------------------------------
	RTC_T.OLD_D = ee_read_byte(OLD_Date_Addr);				// │п┬е ╝│┴д░к ║╥╖п┐└▒т
     de0:	80 93 3e 51 	sts	0x513E, r24	; 0x80513e <RTC_T+0x7>
     de4:	08 c0       	rjmp	.+16     	; 0xdf6 <Read_eeprom+0x54>
	if(RTC_T.OLD_D > 31 || RTC_T.OLD_D == 0)				// │п┬е ╝│┴д░к└╠ 31└╧║╕┤┘ ┼й░┼│к 0░· ░░└╕╕щ
	{
		RTC_T.OLD_D = 1;						// │п┬е ╝│┴д░к└╗ 1╖╬ ├╩▒т╚н
     de6:	81 e0       	ldi	r24, 0x01	; 1
     de8:	80 93 3e 51 	sts	0x513E, r24	; 0x80513e <RTC_T+0x7>
		ee_write_byte(OLD_Date_Addr, RTC_T.OLD_D);			// │п┬е ╝│┴д░к└╗ EEPROM ┐б └·└х
     dec:	61 e0       	ldi	r22, 0x01	; 1
     dee:	82 e0       	ldi	r24, 0x02	; 2
     df0:	90 e0       	ldi	r25, 0x00	; 0
     df2:	0e 94 dd 14 	call	0x29ba	; 0x29ba <ee_write_byte>
	}
//-------------------------------------------------------------------------------------------------
//		╖╬╡х╝┐ ID
//-------------------------------------------------------------------------------------------------
	Cell_ID = ee_read_byte(Cell_ID_Addr);					// ╖╬╡х╝┐ ID ╝│┴д░к ║╥╖п┐└▒т
     df6:	83 e0       	ldi	r24, 0x03	; 3
     df8:	90 e0       	ldi	r25, 0x00	; 0
     dfa:	0e 94 bb 14 	call	0x2976	; 0x2976 <ee_read_byte>
	if(Cell_ID > 60 || Cell_ID == 0)					// ╖╬╡х╝┐ ID ╝│┴д░к└╠ 60║╕┤┘ ┼й░┼│к 0░· ░░└╕╕щ
     dfe:	9f ef       	ldi	r25, 0xFF	; 255
     e00:	98 0f       	add	r25, r24
     e02:	9c 33       	cpi	r25, 0x3C	; 60
     e04:	18 f4       	brcc	.+6      	; 0xe0c <Read_eeprom+0x6a>
		ee_write_byte(OLD_Date_Addr, RTC_T.OLD_D);			// │п┬е ╝│┴д░к└╗ EEPROM ┐б └·└х
	}
//-------------------------------------------------------------------------------------------------
//		╖╬╡х╝┐ ID
//-------------------------------------------------------------------------------------------------
	Cell_ID = ee_read_byte(Cell_ID_Addr);					// ╖╬╡х╝┐ ID ╝│┴д░к ║╥╖п┐└▒т
     e06:	80 93 e9 50 	sts	0x50E9, r24	; 0x8050e9 <Cell_ID>
     e0a:	08 c0       	rjmp	.+16     	; 0xe1c <Read_eeprom+0x7a>
	if(Cell_ID > 60 || Cell_ID == 0)					// ╖╬╡х╝┐ ID ╝│┴д░к└╠ 60║╕┤┘ ┼й░┼│к 0░· ░░└╕╕щ
	{
		Cell_ID = 1;							// ╖╬╡х╝┐ ID ╝│┴д░к└╗ 1╖╬ ├╩▒т╚н
     e0c:	81 e0       	ldi	r24, 0x01	; 1
     e0e:	80 93 e9 50 	sts	0x50E9, r24	; 0x8050e9 <Cell_ID>
		ee_write_byte(Cell_ID_Addr, Cell_ID);				// ╖╬╡х╝┐ ID ╝│┴д░к└╗ EEPROM ┐б └·└х
     e12:	61 e0       	ldi	r22, 0x01	; 1
     e14:	83 e0       	ldi	r24, 0x03	; 3
     e16:	90 e0       	ldi	r25, 0x00	; 0
     e18:	0e 94 dd 14 	call	0x29ba	; 0x29ba <ee_write_byte>
	}
//-------------------------------------------------------------------------------------------------
//		╖╬╡х╝┐ ░╣╝І
//-------------------------------------------------------------------------------------------------
	Cell_CNT = ee_read_byte(Cell_CNT_Addr);					// ╖╬╡х╝┐ ░╣╝І ╝│┴д░к ║╥╖п┐└▒т
     e1c:	84 e0       	ldi	r24, 0x04	; 4
     e1e:	90 e0       	ldi	r25, 0x00	; 0
     e20:	0e 94 bb 14 	call	0x2976	; 0x2976 <ee_read_byte>
	if(Cell_CNT > 4 || Cell_CNT < 1)					// ╖╬╡х╝┐ ░╣╝І ╝│┴д░к└╠ 8║╕┤┘ ┼й░┼│к 2║╕┤┘ └█└╕╕щ
     e24:	9f ef       	ldi	r25, 0xFF	; 255
     e26:	98 0f       	add	r25, r24
     e28:	94 30       	cpi	r25, 0x04	; 4
     e2a:	18 f4       	brcc	.+6      	; 0xe32 <Read_eeprom+0x90>
		ee_write_byte(Cell_ID_Addr, Cell_ID);				// ╖╬╡х╝┐ ID ╝│┴д░к└╗ EEPROM ┐б └·└х
	}
//-------------------------------------------------------------------------------------------------
//		╖╬╡х╝┐ ░╣╝І
//-------------------------------------------------------------------------------------------------
	Cell_CNT = ee_read_byte(Cell_CNT_Addr);					// ╖╬╡х╝┐ ░╣╝І ╝│┴д░к ║╥╖п┐└▒т
     e2c:	80 93 73 51 	sts	0x5173, r24	; 0x805173 <Cell_CNT>
     e30:	08 c0       	rjmp	.+16     	; 0xe42 <Read_eeprom+0xa0>
	if(Cell_CNT > 4 || Cell_CNT < 1)					// ╖╬╡х╝┐ ░╣╝І ╝│┴д░к└╠ 8║╕┤┘ ┼й░┼│к 2║╕┤┘ └█└╕╕щ
	{
		Cell_CNT = 2;							// ╖╬╡х╝┐ ░╣╝І ╝│┴д░к└╗ 2╖╬ ├╩▒т╚н
     e32:	82 e0       	ldi	r24, 0x02	; 2
     e34:	80 93 73 51 	sts	0x5173, r24	; 0x805173 <Cell_CNT>
		ee_write_byte(Cell_CNT_Addr, Cell_CNT);				// ╖╬╡х╝┐ ░╣╝І ╝│┴д░к└╗ EEPROM ┐б └·└х
     e38:	62 e0       	ldi	r22, 0x02	; 2
     e3a:	84 e0       	ldi	r24, 0x04	; 4
     e3c:	90 e0       	ldi	r25, 0x00	; 0
     e3e:	0e 94 dd 14 	call	0x29ba	; 0x29ba <ee_write_byte>
	}
//-------------------------------------------------------------------------------------------------
//		╖╬╡х╝┐ CAPA (┐ы╖о)
//-------------------------------------------------------------------------------------------------
	Cell_Capa = ee_read_word(Cell_Capa_Addr);				// ╖╬╡х╝┐ CAPA ╝│┴д░к ║╥╖п┐└▒т
     e42:	88 e0       	ldi	r24, 0x08	; 8
     e44:	90 e0       	ldi	r25, 0x00	; 0
     e46:	0e 94 c5 14 	call	0x298a	; 0x298a <ee_read_word>
     e4a:	a0 e0       	ldi	r26, 0x00	; 0
     e4c:	b0 e0       	ldi	r27, 0x00	; 0
	if(Cell_Capa > 1000 || Cell_Capa < 100)					// ╖╬╡х╝┐ CAPA ╝│┴д░к└╠ 1000║╕┤┘ ┼й░┼│к 100║╕┤┘ └█└╕╕щ
     e4e:	ac 01       	movw	r20, r24
     e50:	bd 01       	movw	r22, r26
     e52:	44 56       	subi	r20, 0x64	; 100
     e54:	51 09       	sbc	r21, r1
     e56:	61 09       	sbc	r22, r1
     e58:	71 09       	sbc	r23, r1
     e5a:	45 38       	cpi	r20, 0x85	; 133
     e5c:	53 40       	sbci	r21, 0x03	; 3
     e5e:	61 05       	cpc	r22, r1
     e60:	71 05       	cpc	r23, r1
     e62:	48 f4       	brcc	.+18     	; 0xe76 <Read_eeprom+0xd4>
		ee_write_byte(Cell_CNT_Addr, Cell_CNT);				// ╖╬╡х╝┐ ░╣╝І ╝│┴д░к└╗ EEPROM ┐б └·└х
	}
//-------------------------------------------------------------------------------------------------
//		╖╬╡х╝┐ CAPA (┐ы╖о)
//-------------------------------------------------------------------------------------------------
	Cell_Capa = ee_read_word(Cell_Capa_Addr);				// ╖╬╡х╝┐ CAPA ╝│┴д░к ║╥╖п┐└▒т
     e64:	80 93 63 51 	sts	0x5163, r24	; 0x805163 <Cell_Capa>
     e68:	90 93 64 51 	sts	0x5164, r25	; 0x805164 <Cell_Capa+0x1>
     e6c:	a0 93 65 51 	sts	0x5165, r26	; 0x805165 <Cell_Capa+0x2>
     e70:	b0 93 66 51 	sts	0x5166, r27	; 0x805166 <Cell_Capa+0x3>
     e74:	12 c0       	rjmp	.+36     	; 0xe9a <Read_eeprom+0xf8>
	if(Cell_Capa > 1000 || Cell_Capa < 100)					// ╖╬╡х╝┐ CAPA ╝│┴д░к└╠ 1000║╕┤┘ ┼й░┼│к 100║╕┤┘ └█└╕╕щ
	{
		Cell_Capa = 100;						// ╖╬╡х╝┐ CAPA ╝│┴д░к└╗ 100kg╖╬ ├╩▒т╚н, ░І╟╧▒т 1,000└╕╖╬ ░ш╗ъ 100kg = 100000g
     e76:	84 e6       	ldi	r24, 0x64	; 100
     e78:	90 e0       	ldi	r25, 0x00	; 0
     e7a:	a0 e0       	ldi	r26, 0x00	; 0
     e7c:	b0 e0       	ldi	r27, 0x00	; 0
     e7e:	80 93 63 51 	sts	0x5163, r24	; 0x805163 <Cell_Capa>
     e82:	90 93 64 51 	sts	0x5164, r25	; 0x805164 <Cell_Capa+0x1>
     e86:	a0 93 65 51 	sts	0x5165, r26	; 0x805165 <Cell_Capa+0x2>
     e8a:	b0 93 66 51 	sts	0x5166, r27	; 0x805166 <Cell_Capa+0x3>
		ee_write_word(Cell_Capa_Addr, Cell_Capa);			// ╖╬╡х╝┐ CAPA ╝│┴д░к└╗ EEPROM ┐б └·└х
     e8e:	64 e6       	ldi	r22, 0x64	; 100
     e90:	70 e0       	ldi	r23, 0x00	; 0
     e92:	88 e0       	ldi	r24, 0x08	; 8
     e94:	90 e0       	ldi	r25, 0x00	; 0
     e96:	0e 94 01 15 	call	0x2a02	; 0x2a02 <ee_write_word>
	}
//-------------------------------------------------------------------------------------------------
//		╖╬╡х╝┐ RO (┴д░▌├т╖┬)
//-------------------------------------------------------------------------------------------------
	Cell_RO = ee_read_dword(Cell_RO_Addr);					// ╖╬╡х╝┐ RO ╝│┴д░к ║╥╖п┐└▒т
     e9a:	8c e0       	ldi	r24, 0x0C	; 12
     e9c:	90 e0       	ldi	r25, 0x00	; 0
     e9e:	0e 94 d0 14 	call	0x29a0	; 0x29a0 <ee_read_dword>
     ea2:	0e 94 af 37 	call	0x6f5e	; 0x6f5e <__floatunsisf>
     ea6:	6b 01       	movw	r12, r22
     ea8:	7c 01       	movw	r14, r24
	if(Cell_RO > 90000 || Cell_RO < 10000)					// ╖╬╡х╝┐ RO ╝│┴д░к└╠ 9.000mV║╕┤┘ ┼й░┼│к 3.000mV║╕┤┘ └█└╕╕щ
     eaa:	20 e0       	ldi	r18, 0x00	; 0
     eac:	38 ec       	ldi	r19, 0xC8	; 200
     eae:	4f ea       	ldi	r20, 0xAF	; 175
     eb0:	57 e4       	ldi	r21, 0x47	; 71
     eb2:	0e 94 9f 38 	call	0x713e	; 0x713e <__gesf2>
     eb6:	18 16       	cp	r1, r24
     eb8:	9c f0       	brlt	.+38     	; 0xee0 <Read_eeprom+0x13e>
     eba:	20 e0       	ldi	r18, 0x00	; 0
     ebc:	30 e4       	ldi	r19, 0x40	; 64
     ebe:	4c e1       	ldi	r20, 0x1C	; 28
     ec0:	56 e4       	ldi	r21, 0x46	; 70
     ec2:	c7 01       	movw	r24, r14
     ec4:	b6 01       	movw	r22, r12
     ec6:	0e 94 02 37 	call	0x6e04	; 0x6e04 <__cmpsf2>
     eca:	88 23       	and	r24, r24
     ecc:	4c f0       	brlt	.+18     	; 0xee0 <Read_eeprom+0x13e>
		ee_write_word(Cell_Capa_Addr, Cell_Capa);			// ╖╬╡х╝┐ CAPA ╝│┴д░к└╗ EEPROM ┐б └·└х
	}
//-------------------------------------------------------------------------------------------------
//		╖╬╡х╝┐ RO (┴д░▌├т╖┬)
//-------------------------------------------------------------------------------------------------
	Cell_RO = ee_read_dword(Cell_RO_Addr);					// ╖╬╡х╝┐ RO ╝│┴д░к ║╥╖п┐└▒т
     ece:	c0 92 50 51 	sts	0x5150, r12	; 0x805150 <Cell_RO>
     ed2:	d0 92 51 51 	sts	0x5151, r13	; 0x805151 <Cell_RO+0x1>
     ed6:	e0 92 52 51 	sts	0x5152, r14	; 0x805152 <Cell_RO+0x2>
     eda:	f0 92 53 51 	sts	0x5153, r15	; 0x805153 <Cell_RO+0x3>
     ede:	14 c0       	rjmp	.+40     	; 0xf08 <Read_eeprom+0x166>
	if(Cell_RO > 90000 || Cell_RO < 10000)					// ╖╬╡х╝┐ RO ╝│┴д░к└╠ 9.000mV║╕┤┘ ┼й░┼│к 3.000mV║╕┤┘ └█└╕╕щ
	{
		Cell_RO = 40000;						// ╖╬╡х╝┐ RO ╝│┴д░к└╗ 4.000mV╖╬ ├╩▒т╚н, │к┤й▒т 10,000└╕╖╬ ░ш╗ъ
     ee0:	80 e0       	ldi	r24, 0x00	; 0
     ee2:	90 e4       	ldi	r25, 0x40	; 64
     ee4:	ac e1       	ldi	r26, 0x1C	; 28
     ee6:	b7 e4       	ldi	r27, 0x47	; 71
     ee8:	80 93 50 51 	sts	0x5150, r24	; 0x805150 <Cell_RO>
     eec:	90 93 51 51 	sts	0x5151, r25	; 0x805151 <Cell_RO+0x1>
     ef0:	a0 93 52 51 	sts	0x5152, r26	; 0x805152 <Cell_RO+0x2>
     ef4:	b0 93 53 51 	sts	0x5153, r27	; 0x805153 <Cell_RO+0x3>
		ee_write_dword(Cell_RO_Addr, Cell_RO);				// ╖╬╡х╝┐ RO ╝│┴д░к└╗ EEPROM ┐б └·└х
     ef8:	40 e4       	ldi	r20, 0x40	; 64
     efa:	5c e9       	ldi	r21, 0x9C	; 156
     efc:	60 e0       	ldi	r22, 0x00	; 0
     efe:	70 e0       	ldi	r23, 0x00	; 0
     f00:	8c e0       	ldi	r24, 0x0C	; 12
     f02:	90 e0       	ldi	r25, 0x00	; 0
     f04:	0e 94 1e 15 	call	0x2a3c	; 0x2a3c <ee_write_dword>
	}
//-------------------------------------------------------------------------------------------------
//		└╘▒╕ ├╝┴▀
//-------------------------------------------------------------------------------------------------
	IN_Scales = ee_read_word(Cell_IN_S_Addr);				// └╘▒╕├╝┴▀ ╝│┴д░к ║╥╖п┐└▒т
     f08:	8a e0       	ldi	r24, 0x0A	; 10
     f0a:	90 e0       	ldi	r25, 0x00	; 0
     f0c:	0e 94 c5 14 	call	0x298a	; 0x298a <ee_read_word>
	if(IN_Scales > 10000 || IN_Scales < 10)					// └╘▒╕├╝┴▀ ╝│┴д░к└╠ 10000g(10Kg)║╕┤┘ ┼й░┼│к 10g║╕┤┘ └█└╕╕щ
     f10:	9c 01       	movw	r18, r24
     f12:	2a 50       	subi	r18, 0x0A	; 10
     f14:	31 09       	sbc	r19, r1
     f16:	27 30       	cpi	r18, 0x07	; 7
     f18:	37 42       	sbci	r19, 0x27	; 39
     f1a:	28 f4       	brcc	.+10     	; 0xf26 <Read_eeprom+0x184>
		ee_write_dword(Cell_RO_Addr, Cell_RO);				// ╖╬╡х╝┐ RO ╝│┴д░к└╗ EEPROM ┐б └·└х
	}
//-------------------------------------------------------------------------------------------------
//		└╘▒╕ ├╝┴▀
//-------------------------------------------------------------------------------------------------
	IN_Scales = ee_read_word(Cell_IN_S_Addr);				// └╘▒╕├╝┴▀ ╝│┴д░к ║╥╖п┐└▒т
     f1c:	80 93 08 51 	sts	0x5108, r24	; 0x805108 <IN_Scales>
     f20:	90 93 09 51 	sts	0x5109, r25	; 0x805109 <IN_Scales+0x1>
     f24:	0c c0       	rjmp	.+24     	; 0xf3e <Read_eeprom+0x19c>
	if(IN_Scales > 10000 || IN_Scales < 10)					// └╘▒╕├╝┴▀ ╝│┴д░к└╠ 10000g(10Kg)║╕┤┘ ┼й░┼│к 10g║╕┤┘ └█└╕╕щ
	{
		IN_Scales = 500;						// └╘▒╕├╝┴▀ ╝│┴д░к└╗ 500└╕╖╬ ├╩▒т╚н (500g)
     f26:	84 ef       	ldi	r24, 0xF4	; 244
     f28:	91 e0       	ldi	r25, 0x01	; 1
     f2a:	80 93 08 51 	sts	0x5108, r24	; 0x805108 <IN_Scales>
     f2e:	90 93 09 51 	sts	0x5109, r25	; 0x805109 <IN_Scales+0x1>
		ee_write_word(Cell_IN_S_Addr, IN_Scales);			// └╘▒╕├╝┴▀ ╝│┴д░к└╗ EEPROM ┐б └·└х
     f32:	64 ef       	ldi	r22, 0xF4	; 244
     f34:	71 e0       	ldi	r23, 0x01	; 1
     f36:	8a e0       	ldi	r24, 0x0A	; 10
     f38:	90 e0       	ldi	r25, 0x00	; 0
     f3a:	0e 94 01 15 	call	0x2a02	; 0x2a02 <ee_write_word>
	}
//-------------------------------------------------------------------------------------------------
//		╣ц ╣Ї╚г ░к
//-------------------------------------------------------------------------------------------------
	Room_Number = ee_read_byte(Cell_ROOM_Addr);				// ╣ц╣Ї╚г ╝│┴д░к ║╥╖п┐└▒т
     f3e:	85 e0       	ldi	r24, 0x05	; 5
     f40:	90 e0       	ldi	r25, 0x00	; 0
     f42:	0e 94 bb 14 	call	0x2976	; 0x2976 <ee_read_byte>
	if(Room_Number > 100 || Room_Number <= 0)				// ╣ц╣Ї╚г ╝│┴д░к└╠ 100║╕┤┘ ┼й░┼│к 0░· ░░░┼│к └█└╕╕щ
     f46:	9f ef       	ldi	r25, 0xFF	; 255
     f48:	98 0f       	add	r25, r24
     f4a:	94 36       	cpi	r25, 0x64	; 100
     f4c:	18 f4       	brcc	.+6      	; 0xf54 <Read_eeprom+0x1b2>
		ee_write_word(Cell_IN_S_Addr, IN_Scales);			// └╘▒╕├╝┴▀ ╝│┴д░к└╗ EEPROM ┐б └·└х
	}
//-------------------------------------------------------------------------------------------------
//		╣ц ╣Ї╚г ░к
//-------------------------------------------------------------------------------------------------
	Room_Number = ee_read_byte(Cell_ROOM_Addr);				// ╣ц╣Ї╚г ╝│┴д░к ║╥╖п┐└▒т
     f4e:	80 93 8c 52 	sts	0x528C, r24	; 0x80528c <Room_Number>
     f52:	08 c0       	rjmp	.+16     	; 0xf64 <Read_eeprom+0x1c2>
	if(Room_Number > 100 || Room_Number <= 0)				// ╣ц╣Ї╚г ╝│┴д░к└╠ 100║╕┤┘ ┼й░┼│к 0░· ░░░┼│к └█└╕╕щ
	{
		Room_Number = 1;						// ╣ц╣Ї╚г ╝│┴д░к└╗ 1 └╕╖╬ ├╩▒т╚н
     f54:	81 e0       	ldi	r24, 0x01	; 1
     f56:	80 93 8c 52 	sts	0x528C, r24	; 0x80528c <Room_Number>
		ee_write_byte(Cell_ROOM_Addr, Room_Number);			// ╣ц╣Ї╚г ╝│┴д░к└╗ EEPROM ┐б └·└х
     f5a:	61 e0       	ldi	r22, 0x01	; 1
     f5c:	85 e0       	ldi	r24, 0x05	; 5
     f5e:	90 e0       	ldi	r25, 0x00	; 0
     f60:	0e 94 dd 14 	call	0x29ba	; 0x29ba <ee_write_byte>
	}
//-------------------------------------------------------------------------------------------------
//		╜║┼ч ╣Ї╚г ░к
//-------------------------------------------------------------------------------------------------
	Stal_Number = ee_read_byte(Cell_STAL_Addr);				// ╜║┼ч╣Ї╚г ╝│┴д ║╥╖п┐└▒т
     f64:	86 e0       	ldi	r24, 0x06	; 6
     f66:	90 e0       	ldi	r25, 0x00	; 0
     f68:	0e 94 bb 14 	call	0x2976	; 0x2976 <ee_read_byte>
	if(Stal_Number > 100 || Stal_Number <= 0)				// ╜║┼ч╣Ї╚г ╝│┴д░к└╠ 100║╕┤┘ ┼й░┼│к 0░· ░░░┼│к └█└╕╕щ
     f6c:	9f ef       	ldi	r25, 0xFF	; 255
     f6e:	98 0f       	add	r25, r24
     f70:	94 36       	cpi	r25, 0x64	; 100
     f72:	18 f4       	brcc	.+6      	; 0xf7a <Read_eeprom+0x1d8>
		ee_write_byte(Cell_ROOM_Addr, Room_Number);			// ╣ц╣Ї╚г ╝│┴д░к└╗ EEPROM ┐б └·└х
	}
//-------------------------------------------------------------------------------------------------
//		╜║┼ч ╣Ї╚г ░к
//-------------------------------------------------------------------------------------------------
	Stal_Number = ee_read_byte(Cell_STAL_Addr);				// ╜║┼ч╣Ї╚г ╝│┴д ║╥╖п┐└▒т
     f74:	80 93 86 52 	sts	0x5286, r24	; 0x805286 <Stal_Number>
     f78:	08 c0       	rjmp	.+16     	; 0xf8a <Read_eeprom+0x1e8>
	if(Stal_Number > 100 || Stal_Number <= 0)				// ╜║┼ч╣Ї╚г ╝│┴д░к└╠ 100║╕┤┘ ┼й░┼│к 0░· ░░░┼│к └█└╕╕щ
	{
		Stal_Number = 1;						// ╜║┼ч╣Ї╚г ╝│┴д░к└╗ 1 └╕╖╬ ├╩▒т╚н
     f7a:	81 e0       	ldi	r24, 0x01	; 1
     f7c:	80 93 86 52 	sts	0x5286, r24	; 0x805286 <Stal_Number>
		ee_write_byte(Cell_STAL_Addr, Stal_Number);			// ╜║┼ч╣Ї╚г ╝│┴д░к└╗ EEPROM ┐б └·└х
     f80:	61 e0       	ldi	r22, 0x01	; 1
     f82:	86 e0       	ldi	r24, 0x06	; 6
     f84:	90 e0       	ldi	r25, 0x00	; 0
     f86:	0e 94 dd 14 	call	0x29ba	; 0x29ba <ee_write_byte>
	}
//-------------------------------------------------------------------------------------------------
//		└┌╡┐╕Ё╡х ╝│┴д ░к
//-------------------------------------------------------------------------------------------------
	Auto_Mode = ee_read_byte(Cell_AUTO_Addr);				// └┌╡┐╕Ё╡х ╝│┴д░к ║╥╖п┐└▒т
     f8a:	87 e0       	ldi	r24, 0x07	; 7
     f8c:	90 e0       	ldi	r25, 0x00	; 0
     f8e:	0e 94 bb 14 	call	0x2976	; 0x2976 <ee_read_byte>
	if(Auto_Mode > 2)							// └┌╡┐╕Ё╡х ╝│┴д░к└╠ 2║╕┤┘ ┼й╕щ
     f92:	83 30       	cpi	r24, 0x03	; 3
     f94:	18 f4       	brcc	.+6      	; 0xf9c <Read_eeprom+0x1fa>
		ee_write_byte(Cell_STAL_Addr, Stal_Number);			// ╜║┼ч╣Ї╚г ╝│┴д░к└╗ EEPROM ┐б └·└х
	}
//-------------------------------------------------------------------------------------------------
//		└┌╡┐╕Ё╡х ╝│┴д ░к
//-------------------------------------------------------------------------------------------------
	Auto_Mode = ee_read_byte(Cell_AUTO_Addr);				// └┌╡┐╕Ё╡х ╝│┴д░к ║╥╖п┐└▒т
     f96:	80 93 8e 52 	sts	0x528E, r24	; 0x80528e <Auto_Mode>
     f9a:	07 c0       	rjmp	.+14     	; 0xfaa <Read_eeprom+0x208>
	if(Auto_Mode > 2)							// └┌╡┐╕Ё╡х ╝│┴д░к└╠ 2║╕┤┘ ┼й╕щ
	{
		Auto_Mode = 0;							// └┌╡┐╕Ё╡х ╝│┴д░к└╗ 0 └╕╖╬ ├╩▒т╚н
     f9c:	10 92 8e 52 	sts	0x528E, r1	; 0x80528e <Auto_Mode>
		ee_write_byte(Cell_AUTO_Addr, Auto_Mode);			// └┌╡┐╕Ё╡х ╝│┴д░к└╗ EEPROM ┐б └·└х
     fa0:	60 e0       	ldi	r22, 0x00	; 0
     fa2:	87 e0       	ldi	r24, 0x07	; 7
     fa4:	90 e0       	ldi	r25, 0x00	; 0
     fa6:	0e 94 dd 14 	call	0x29ba	; 0x29ba <ee_write_byte>
	}
//-------------------------------------------------------------------------------------------------
//		RTC ├╩▒т╚н
//-------------------------------------------------------------------------------------------------
	RTC_Time_Read();
     faa:	0e 94 e4 2a 	call	0x55c8	; 0x55c8 <RTC_Time_Read>
	if(RTC_T.Sec > 59)							// ├╩ ░к└╠ 59 ║╕┤┘ ┼й╕щ
     fae:	80 91 37 51 	lds	r24, 0x5137	; 0x805137 <RTC_T>
     fb2:	8c 33       	cpi	r24, 0x3C	; 60
     fb4:	28 f0       	brcs	.+10     	; 0xfc0 <Read_eeprom+0x21e>
	{
		RTC_Time_Write(RTC_SECOND, 0);					// RTC ┐б 00├╩ └·└х
     fb6:	60 e0       	ldi	r22, 0x00	; 0
     fb8:	80 e0       	ldi	r24, 0x00	; 0
     fba:	0e 94 1f 2b 	call	0x563e	; 0x563e <RTC_Time_Write>
     fbe:	ff cf       	rjmp	.-2      	; 0xfbe <Read_eeprom+0x21c>
		while(1);							// RTC ░б ├╩▒т╚н ╡╟┴І ╛╩╛╞ └╓└╕╕щ CPU ReSet
	}
//-------------------------------------------------------------------------------------------------
	if(RTC_T.Year == 0)							// │т ░к└╠ 00 └╠╕щ
     fc0:	80 91 3d 51 	lds	r24, 0x513D	; 0x80513d <RTC_T+0x6>
     fc4:	81 11       	cpse	r24, r1
     fc6:	1c c0       	rjmp	.+56     	; 0x1000 <Read_eeprom+0x25e>
	{
		RTC_Time_Write(RTC_YEAR,      23);				// RTC ┐б 23│т   └·└х
     fc8:	67 e1       	ldi	r22, 0x17	; 23
     fca:	86 e0       	ldi	r24, 0x06	; 6
     fcc:	0e 94 1f 2b 	call	0x563e	; 0x563e <RTC_Time_Write>
		RTC_Time_Write(RTC_MONTH,      4);				// RTC ┐б 04┐ї   └·└х
     fd0:	64 e0       	ldi	r22, 0x04	; 4
     fd2:	85 e0       	ldi	r24, 0x05	; 5
     fd4:	0e 94 1f 2b 	call	0x563e	; 0x563e <RTC_Time_Write>
		RTC_Time_Write(RTC_DATE,      05);				// RTC ┐б 05└╧   └·└х
     fd8:	65 e0       	ldi	r22, 0x05	; 5
     fda:	84 e0       	ldi	r24, 0x04	; 4
     fdc:	0e 94 1f 2b 	call	0x563e	; 0x563e <RTC_Time_Write>
		RTC_Time_Write(RTC_DAYOFWEEK,  4);				// RTC ┐б 04┐ф└╧ └·└х
     fe0:	64 e0       	ldi	r22, 0x04	; 4
     fe2:	83 e0       	ldi	r24, 0x03	; 3
     fe4:	0e 94 1f 2b 	call	0x563e	; 0x563e <RTC_Time_Write>
		RTC_Time_Write(RTC_HOUR,      12);				// RTC ┐б 12╜├   └·└х
     fe8:	6c e0       	ldi	r22, 0x0C	; 12
     fea:	82 e0       	ldi	r24, 0x02	; 2
     fec:	0e 94 1f 2b 	call	0x563e	; 0x563e <RTC_Time_Write>
		RTC_Time_Write(RTC_MINUTE,     0);				// RTC ┐б 00║╨   └·└х
     ff0:	60 e0       	ldi	r22, 0x00	; 0
     ff2:	81 e0       	ldi	r24, 0x01	; 1
     ff4:	0e 94 1f 2b 	call	0x563e	; 0x563e <RTC_Time_Write>
		RTC_Time_Write(RTC_SECOND,     0);				// RTC ┐б 00├╩   └·└х
     ff8:	60 e0       	ldi	r22, 0x00	; 0
     ffa:	80 e0       	ldi	r24, 0x00	; 0
     ffc:	0e 94 1f 2b 	call	0x563e	; 0x563e <RTC_Time_Write>
	}

//-------------------------------------------------------------------------------------------------
//		Data ╣Ї╚г ░к
//-------------------------------------------------------------------------------------------------
	EepCnt = ee_read_word(Data_Count_Addr);					// Data ╣Ї╚г ╝│┴д░к ║╥╖п┐└▒т
    1000:	80 e1       	ldi	r24, 0x10	; 16
    1002:	90 e0       	ldi	r25, 0x00	; 0
    1004:	0e 94 c5 14 	call	0x298a	; 0x298a <ee_read_word>
	if(EepCnt > 300)							// Data╣Ї╚г ╝│┴д░к└╠ 300║╕┤┘ ┼й╕щ
    1008:	8d 32       	cpi	r24, 0x2D	; 45
    100a:	21 e0       	ldi	r18, 0x01	; 1
    100c:	92 07       	cpc	r25, r18
    100e:	28 f4       	brcc	.+10     	; 0x101a <Read_eeprom+0x278>
	}

//-------------------------------------------------------------------------------------------------
//		Data ╣Ї╚г ░к
//-------------------------------------------------------------------------------------------------
	EepCnt = ee_read_word(Data_Count_Addr);					// Data ╣Ї╚г ╝│┴д░к ║╥╖п┐└▒т
    1010:	80 93 7f 52 	sts	0x527F, r24	; 0x80527f <EepCnt>
    1014:	90 93 80 52 	sts	0x5280, r25	; 0x805280 <EepCnt+0x1>
    1018:	0c c0       	rjmp	.+24     	; 0x1032 <Read_eeprom+0x290>
	if(EepCnt > 300)							// Data╣Ї╚г ╝│┴д░к└╠ 300║╕┤┘ ┼й╕щ
 	{
 		EepCnt = 0;
    101a:	10 92 7f 52 	sts	0x527F, r1	; 0x80527f <EepCnt>
    101e:	10 92 80 52 	sts	0x5280, r1	; 0x805280 <EepCnt+0x1>
 		ee_write_word(Data_Count_Addr, Data_Number);			// Data ╣Ї╚г ╝│┴д░к└╗ EEPROM ┐б └·└х
    1022:	60 91 88 52 	lds	r22, 0x5288	; 0x805288 <Data_Number>
    1026:	70 91 89 52 	lds	r23, 0x5289	; 0x805289 <Data_Number+0x1>
    102a:	80 e1       	ldi	r24, 0x10	; 16
    102c:	90 e0       	ldi	r25, 0x00	; 0
    102e:	0e 94 01 15 	call	0x2a02	; 0x2a02 <ee_write_word>
 	}
	Data_Number = EepCnt;
    1032:	80 91 7f 52 	lds	r24, 0x527F	; 0x80527f <EepCnt>
    1036:	90 91 80 52 	lds	r25, 0x5280	; 0x805280 <EepCnt+0x1>
    103a:	80 93 88 52 	sts	0x5288, r24	; 0x805288 <Data_Number>
    103e:	90 93 89 52 	sts	0x5289, r25	; 0x805289 <Data_Number+0x1>
}
    1042:	ff 90       	pop	r15
    1044:	ef 90       	pop	r14
    1046:	df 90       	pop	r13
    1048:	cf 90       	pop	r12
    104a:	08 95       	ret

0000104c <Read_eeprom_Weight_Data>:

//=================================================================================================
void Read_eeprom_Weight_Data(uint16_t cnt)					// EEPROM Weight Data └╨▒т
{
    104c:	ef 92       	push	r14
    104e:	ff 92       	push	r15
    1050:	0f 93       	push	r16
    1052:	1f 93       	push	r17
    1054:	cf 93       	push	r28
    1056:	df 93       	push	r29
    1058:	7c 01       	movw	r14, r24
	SAVE.AutoSet[cnt] = ee_read_byte(MEASURE_AUTO   + (MEASURE_LENGTH * cnt));
    105a:	8d e0       	ldi	r24, 0x0D	; 13
    105c:	8e 9d       	mul	r24, r14
    105e:	80 01       	movw	r16, r0
    1060:	8f 9d       	mul	r24, r15
    1062:	10 0d       	add	r17, r0
    1064:	11 24       	eor	r1, r1
    1066:	c8 01       	movw	r24, r16
    1068:	43 96       	adiw	r24, 0x13	; 19
    106a:	0e 94 bb 14 	call	0x2976	; 0x2976 <ee_read_byte>
    106e:	e7 01       	movw	r28, r14
    1070:	c3 55       	subi	r28, 0x53	; 83
    1072:	de 4b       	sbci	r29, 0xBE	; 190
    1074:	88 83       	st	Y, r24
	SAVE.Count  [cnt] = ee_read_word(MEASURE_COUNT  + (MEASURE_LENGTH * cnt));
    1076:	c8 01       	movw	r24, r16
    1078:	44 96       	adiw	r24, 0x14	; 20
    107a:	0e 94 c5 14 	call	0x298a	; 0x298a <ee_read_word>
    107e:	f7 01       	movw	r30, r14
    1080:	ee 0f       	add	r30, r30
    1082:	ff 1f       	adc	r31, r31
    1084:	e7 52       	subi	r30, 0x27	; 39
    1086:	fd 4b       	sbci	r31, 0xBD	; 189
    1088:	80 83       	st	Z, r24
    108a:	91 83       	std	Z+1, r25	; 0x01
	SAVE.Data   [cnt] = ee_read_word(MEASURE_WEIGHT + (MEASURE_LENGTH * cnt));
    108c:	c8 01       	movw	r24, r16
    108e:	48 96       	adiw	r24, 0x18	; 24
    1090:	0e 94 c5 14 	call	0x298a	; 0x298a <ee_read_word>
    1094:	f7 01       	movw	r30, r14
    1096:	ee 0f       	add	r30, r30
    1098:	ff 1f       	adc	r31, r31
    109a:	ef 5c       	subi	r30, 0xCF	; 207
    109c:	fa 4b       	sbci	r31, 0xBA	; 186
    109e:	80 83       	st	Z, r24
    10a0:	91 83       	std	Z+1, r25	; 0x01
	SAVE.RoomNum[cnt] = ee_read_byte(ROOM_NUMBER    + (MEASURE_LENGTH * cnt));
    10a2:	c8 01       	movw	r24, r16
    10a4:	46 96       	adiw	r24, 0x16	; 22
    10a6:	0e 94 bb 14 	call	0x2976	; 0x2976 <ee_read_byte>
    10aa:	fe 01       	movw	r30, r28
    10ac:	e4 52       	subi	r30, 0x24	; 36
    10ae:	fa 4f       	sbci	r31, 0xFA	; 250
    10b0:	80 83       	st	Z, r24
	SAVE.StalNum[cnt] = ee_read_byte(STALL_NUMBER   + (MEASURE_LENGTH * cnt));
    10b2:	c8 01       	movw	r24, r16
    10b4:	47 96       	adiw	r24, 0x17	; 23
    10b6:	0e 94 bb 14 	call	0x2976	; 0x2976 <ee_read_byte>
    10ba:	fe 01       	movw	r30, r28
    10bc:	e8 5f       	subi	r30, 0xF8	; 248
    10be:	f8 4f       	sbci	r31, 0xF8	; 248
    10c0:	80 83       	st	Z, r24

	SAVE.Year   [cnt] = ee_read_byte(MEASURE_YEAR   + (MEASURE_LENGTH * cnt));
    10c2:	c8 01       	movw	r24, r16
    10c4:	4a 96       	adiw	r24, 0x1a	; 26
    10c6:	0e 94 bb 14 	call	0x2976	; 0x2976 <ee_read_byte>
    10ca:	fe 01       	movw	r30, r28
    10cc:	ec 5c       	subi	r30, 0xCC	; 204
    10ce:	f7 4f       	sbci	r31, 0xF7	; 247
    10d0:	80 83       	st	Z, r24
	SAVE.Month  [cnt] = ee_read_byte(MEASURE_MONTH  + (MEASURE_LENGTH * cnt));
    10d2:	c8 01       	movw	r24, r16
    10d4:	4b 96       	adiw	r24, 0x1b	; 27
    10d6:	0e 94 bb 14 	call	0x2976	; 0x2976 <ee_read_byte>
    10da:	fe 01       	movw	r30, r28
    10dc:	e0 5a       	subi	r30, 0xA0	; 160
    10de:	f6 4f       	sbci	r31, 0xF6	; 246
    10e0:	80 83       	st	Z, r24
	SAVE.Date   [cnt] = ee_read_byte(MEASURE_DATE   + (MEASURE_LENGTH * cnt));
    10e2:	c8 01       	movw	r24, r16
    10e4:	4c 96       	adiw	r24, 0x1c	; 28
    10e6:	0e 94 bb 14 	call	0x2976	; 0x2976 <ee_read_byte>
    10ea:	fe 01       	movw	r30, r28
    10ec:	e4 57       	subi	r30, 0x74	; 116
    10ee:	f5 4f       	sbci	r31, 0xF5	; 245
    10f0:	80 83       	st	Z, r24
	SAVE.Hour   [cnt] = ee_read_byte(MEASURE_HOUR   + (MEASURE_LENGTH * cnt));
    10f2:	c8 01       	movw	r24, r16
    10f4:	4d 96       	adiw	r24, 0x1d	; 29
    10f6:	0e 94 bb 14 	call	0x2976	; 0x2976 <ee_read_byte>
    10fa:	fe 01       	movw	r30, r28
    10fc:	e8 54       	subi	r30, 0x48	; 72
    10fe:	f4 4f       	sbci	r31, 0xF4	; 244
    1100:	80 83       	st	Z, r24
	SAVE.Min    [cnt] = ee_read_byte(MEASURE_MIN    + (MEASURE_LENGTH * cnt));
    1102:	c8 01       	movw	r24, r16
    1104:	4e 96       	adiw	r24, 0x1e	; 30
    1106:	0e 94 bb 14 	call	0x2976	; 0x2976 <ee_read_byte>
    110a:	fe 01       	movw	r30, r28
    110c:	ec 51       	subi	r30, 0x1C	; 28
    110e:	f3 4f       	sbci	r31, 0xF3	; 243
    1110:	80 83       	st	Z, r24
	SAVE.Sec    [cnt] = ee_read_byte(MEASURE_SEC    + (MEASURE_LENGTH * cnt));
    1112:	c8 01       	movw	r24, r16
    1114:	4f 96       	adiw	r24, 0x1f	; 31
    1116:	0e 94 bb 14 	call	0x2976	; 0x2976 <ee_read_byte>
    111a:	c0 5f       	subi	r28, 0xF0	; 240
    111c:	d1 4f       	sbci	r29, 0xF1	; 241
    111e:	88 83       	st	Y, r24
}
    1120:	df 91       	pop	r29
    1122:	cf 91       	pop	r28
    1124:	1f 91       	pop	r17
    1126:	0f 91       	pop	r16
    1128:	ff 90       	pop	r15
    112a:	ef 90       	pop	r14
    112c:	08 95       	ret

0000112e <eeprom_Data_erase>:

//=================================================================================================
void eeprom_Data_erase(uint16_t cnt)						// EEPROM Weight Data ┴І┐ь▒т
{
    112e:	cf 93       	push	r28
    1130:	df 93       	push	r29

	ee_write_byte(MEASURE_AUTO   + (MEASURE_LENGTH * cnt), 0);
    1132:	2d e0       	ldi	r18, 0x0D	; 13
    1134:	28 9f       	mul	r18, r24
    1136:	e0 01       	movw	r28, r0
    1138:	29 9f       	mul	r18, r25
    113a:	d0 0d       	add	r29, r0
    113c:	11 24       	eor	r1, r1
    113e:	60 e0       	ldi	r22, 0x00	; 0
    1140:	ce 01       	movw	r24, r28
    1142:	43 96       	adiw	r24, 0x13	; 19
    1144:	0e 94 dd 14 	call	0x29ba	; 0x29ba <ee_write_byte>
	ee_write_word(MEASURE_COUNT  + (MEASURE_LENGTH * cnt), 0);
    1148:	60 e0       	ldi	r22, 0x00	; 0
    114a:	70 e0       	ldi	r23, 0x00	; 0
    114c:	ce 01       	movw	r24, r28
    114e:	44 96       	adiw	r24, 0x14	; 20
    1150:	0e 94 01 15 	call	0x2a02	; 0x2a02 <ee_write_word>
	ee_write_word(MEASURE_WEIGHT + (MEASURE_LENGTH * cnt), 0);
    1154:	60 e0       	ldi	r22, 0x00	; 0
    1156:	70 e0       	ldi	r23, 0x00	; 0
    1158:	ce 01       	movw	r24, r28
    115a:	48 96       	adiw	r24, 0x18	; 24
    115c:	0e 94 01 15 	call	0x2a02	; 0x2a02 <ee_write_word>
	ee_write_byte(ROOM_NUMBER    + (MEASURE_LENGTH * cnt), 0);
    1160:	60 e0       	ldi	r22, 0x00	; 0
    1162:	ce 01       	movw	r24, r28
    1164:	46 96       	adiw	r24, 0x16	; 22
    1166:	0e 94 dd 14 	call	0x29ba	; 0x29ba <ee_write_byte>
	ee_write_byte(STALL_NUMBER   + (MEASURE_LENGTH * cnt), 0);
    116a:	60 e0       	ldi	r22, 0x00	; 0
    116c:	ce 01       	movw	r24, r28
    116e:	47 96       	adiw	r24, 0x17	; 23
    1170:	0e 94 dd 14 	call	0x29ba	; 0x29ba <ee_write_byte>
	ee_write_byte(MEASURE_YEAR   + (MEASURE_LENGTH * cnt), 0);
    1174:	60 e0       	ldi	r22, 0x00	; 0
    1176:	ce 01       	movw	r24, r28
    1178:	4a 96       	adiw	r24, 0x1a	; 26
    117a:	0e 94 dd 14 	call	0x29ba	; 0x29ba <ee_write_byte>
	ee_write_byte(MEASURE_MONTH  + (MEASURE_LENGTH * cnt), 0);
    117e:	60 e0       	ldi	r22, 0x00	; 0
    1180:	ce 01       	movw	r24, r28
    1182:	4b 96       	adiw	r24, 0x1b	; 27
    1184:	0e 94 dd 14 	call	0x29ba	; 0x29ba <ee_write_byte>
	ee_write_byte(MEASURE_DATE   + (MEASURE_LENGTH * cnt), 0);
    1188:	60 e0       	ldi	r22, 0x00	; 0
    118a:	ce 01       	movw	r24, r28
    118c:	4c 96       	adiw	r24, 0x1c	; 28
    118e:	0e 94 dd 14 	call	0x29ba	; 0x29ba <ee_write_byte>
	ee_write_byte(MEASURE_HOUR   + (MEASURE_LENGTH * cnt), 0);
    1192:	60 e0       	ldi	r22, 0x00	; 0
    1194:	ce 01       	movw	r24, r28
    1196:	4d 96       	adiw	r24, 0x1d	; 29
    1198:	0e 94 dd 14 	call	0x29ba	; 0x29ba <ee_write_byte>
	ee_write_byte(MEASURE_MIN    + (MEASURE_LENGTH * cnt), 0);
    119c:	60 e0       	ldi	r22, 0x00	; 0
    119e:	ce 01       	movw	r24, r28
    11a0:	4e 96       	adiw	r24, 0x1e	; 30
    11a2:	0e 94 dd 14 	call	0x29ba	; 0x29ba <ee_write_byte>
	ee_write_byte(MEASURE_SEC    + (MEASURE_LENGTH * cnt), 0);
    11a6:	60 e0       	ldi	r22, 0x00	; 0
    11a8:	ce 01       	movw	r24, r28
    11aa:	4f 96       	adiw	r24, 0x1f	; 31
    11ac:	0e 94 dd 14 	call	0x29ba	; 0x29ba <ee_write_byte>
}
    11b0:	df 91       	pop	r29
    11b2:	cf 91       	pop	r28
    11b4:	08 95       	ret

000011b6 <Alarm>:


//=================================================================================================
void Alarm(void)								// ╛╦╢і(║ё╟┴ 3╣Ї)
{
	Beep(15);								// 1mSec X 15 = 15mSec
    11b6:	8f e0       	ldi	r24, 0x0F	; 15
    11b8:	90 e0       	ldi	r25, 0x00	; 0
    11ba:	0e 94 42 04 	call	0x884	; 0x884 <Beep>
	#else
		//round up by default
		__ticks_dc = (uint32_t)(ceil(fabs(__tmp)));
	#endif

	__builtin_avr_delay_cycles(__ticks_dc);
    11be:	26 e6       	ldi	r18, 0x66	; 102
    11c0:	86 e6       	ldi	r24, 0x66	; 102
    11c2:	95 e0       	ldi	r25, 0x05	; 5
    11c4:	21 50       	subi	r18, 0x01	; 1
    11c6:	80 40       	sbci	r24, 0x00	; 0
    11c8:	90 40       	sbci	r25, 0x00	; 0
    11ca:	e1 f7       	brne	.-8      	; 0x11c4 <Alarm+0xe>
	_delay_ms(120);								// Time Delay  120mSec
	Beep(15);								// 1mSec X 15 = 15mSec
    11cc:	8f e0       	ldi	r24, 0x0F	; 15
    11ce:	90 e0       	ldi	r25, 0x00	; 0
    11d0:	0e 94 42 04 	call	0x884	; 0x884 <Beep>
    11d4:	26 e6       	ldi	r18, 0x66	; 102
    11d6:	86 e6       	ldi	r24, 0x66	; 102
    11d8:	95 e0       	ldi	r25, 0x05	; 5
    11da:	21 50       	subi	r18, 0x01	; 1
    11dc:	80 40       	sbci	r24, 0x00	; 0
    11de:	90 40       	sbci	r25, 0x00	; 0
    11e0:	e1 f7       	brne	.-8      	; 0x11da <Alarm+0x24>
	_delay_ms(120);								// Time Delay  120mSec
	Beep(15);								// 1mSec X 15 = 15mSec
    11e2:	8f e0       	ldi	r24, 0x0F	; 15
    11e4:	90 e0       	ldi	r25, 0x00	; 0
    11e6:	0e 94 42 04 	call	0x884	; 0x884 <Beep>
    11ea:	08 95       	ret

000011ec <Auto_Set>:
}

//=================================================================================================
void Auto_Set(void)								// └┌╡┐╕Ё╡х,╝І╡┐╕Ё╡х ╝│┴д
{
    11ec:	af 92       	push	r10
    11ee:	bf 92       	push	r11
    11f0:	cf 92       	push	r12
    11f2:	df 92       	push	r13
    11f4:	ef 92       	push	r14
    11f6:	ff 92       	push	r15
    11f8:	0f 93       	push	r16
    11fa:	1f 93       	push	r17
    11fc:	cf 93       	push	r28
    11fe:	df 93       	push	r29
	while(SET.Menu && SET.Select)						// ╕▐┤║░б 1 └╠╕щ ╣▌║╣
    1200:	80 91 0e 51 	lds	r24, 0x510E	; 0x80510e <SET>
    1204:	88 23       	and	r24, r24
    1206:	09 f4       	brne	.+2      	; 0x120a <Auto_Set+0x1e>
    1208:	57 c0       	rjmp	.+174    	; 0x12b8 <Auto_Set+0xcc>
    120a:	80 91 0f 51 	lds	r24, 0x510F	; 0x80510f <SET+0x1>
    120e:	88 23       	and	r24, r24
    1210:	09 f4       	brne	.+2      	; 0x1214 <Auto_Set+0x28>
    1212:	52 c0       	rjmp	.+164    	; 0x12b8 <Auto_Set+0xcc>
	{
		if(KEY.Buff)							// Key └╘╖┬└╠ └╓└╕╕щ
    1214:	0f 2e       	mov	r0, r31
    1216:	fb e4       	ldi	r31, 0x4B	; 75
    1218:	ef 2e       	mov	r14, r31
    121a:	f1 e5       	ldi	r31, 0x51	; 81
    121c:	ff 2e       	mov	r15, r31
    121e:	f0 2d       	mov	r31, r0
		{
			if     (KEY.Key == 1) {Auto_Mode = 1;}
    1220:	dd 24       	eor	r13, r13
    1222:	d3 94       	inc	r13
		if(Auto_Mode)
		{
			if(Blink) {FND_Value_Data(1,1,12);}			// Blink = 1 └╠╕щ FND 1 OFF
			else
			{
				DIGIT[1][3] = FND_OFF;
    1224:	c9 e7       	ldi	r28, 0x79	; 121
    1226:	d1 e4       	ldi	r29, 0x41	; 65
				DIGIT[1][2] = FND_OFF;
				DIGIT[1][1] = FND_O;
    1228:	0f 2e       	mov	r0, r31
    122a:	fc ef       	ldi	r31, 0xFC	; 252
    122c:	bf 2e       	mov	r11, r31
    122e:	f0 2d       	mov	r31, r0
				DIGIT[1][0] = FND_N;
    1230:	0f 2e       	mov	r0, r31
    1232:	fc ee       	ldi	r31, 0xEC	; 236
    1234:	af 2e       	mov	r10, r31
    1236:	f0 2d       	mov	r31, r0
			if(Blink) {FND_Value_Data(1,1,12);}			// Blink = 1 └╠╕щ FND 1 OFF
			else
			{
				DIGIT[1][3] = FND_OFF;
				DIGIT[1][2] = FND_O;
				DIGIT[1][1] = FND_F;
    1238:	0f 2e       	mov	r0, r31
    123a:	fe e8       	ldi	r31, 0x8E	; 142
    123c:	cf 2e       	mov	r12, r31
    123e:	f0 2d       	mov	r31, r0
}

//=================================================================================================
void Auto_Set(void)								// └┌╡┐╕Ё╡х,╝І╡┐╕Ё╡х ╝│┴д
{
	while(SET.Menu && SET.Select)						// ╕▐┤║░б 1 └╠╕щ ╣▌║╣
    1240:	0e e0       	ldi	r16, 0x0E	; 14
    1242:	11 e5       	ldi	r17, 0x51	; 81
	{
		if(KEY.Buff)							// Key └╘╖┬└╠ └╓└╕╕щ
    1244:	f7 01       	movw	r30, r14
    1246:	81 81       	ldd	r24, Z+1	; 0x01
    1248:	88 23       	and	r24, r24
    124a:	69 f0       	breq	.+26     	; 0x1266 <Auto_Set+0x7a>
		{
			if     (KEY.Key == 1) {Auto_Mode = 1;}
    124c:	82 81       	ldd	r24, Z+2	; 0x02
    124e:	81 30       	cpi	r24, 0x01	; 1
    1250:	19 f4       	brne	.+6      	; 0x1258 <Auto_Set+0x6c>
    1252:	d0 92 8e 52 	sts	0x528E, r13	; 0x80528e <Auto_Mode>
    1256:	0b c0       	rjmp	.+22     	; 0x126e <Auto_Set+0x82>
			else if(KEY.Key == 3) {Auto_Mode = 0;}
    1258:	f7 01       	movw	r30, r14
    125a:	82 81       	ldd	r24, Z+2	; 0x02
    125c:	83 30       	cpi	r24, 0x03	; 3
    125e:	19 f4       	brne	.+6      	; 0x1266 <Auto_Set+0x7a>
    1260:	10 92 8e 52 	sts	0x528E, r1	; 0x80528e <Auto_Mode>
    1264:	13 c0       	rjmp	.+38     	; 0x128c <Auto_Set+0xa0>
		}

		if(Auto_Mode)
    1266:	80 91 8e 52 	lds	r24, 0x528E	; 0x80528e <Auto_Mode>
    126a:	88 23       	and	r24, r24
    126c:	79 f0       	breq	.+30     	; 0x128c <Auto_Set+0xa0>
		{
			if(Blink) {FND_Value_Data(1,1,12);}			// Blink = 1 └╠╕щ FND 1 OFF
    126e:	80 91 71 51 	lds	r24, 0x5171	; 0x805171 <Blink>
    1272:	88 23       	and	r24, r24
    1274:	31 f0       	breq	.+12     	; 0x1282 <Auto_Set+0x96>
    1276:	4c e0       	ldi	r20, 0x0C	; 12
    1278:	6d 2d       	mov	r22, r13
    127a:	8d 2d       	mov	r24, r13
    127c:	0e 94 d3 05 	call	0xba6	; 0xba6 <FND_Value_Data>
    1280:	13 c0       	rjmp	.+38     	; 0x12a8 <Auto_Set+0xbc>
			else
			{
				DIGIT[1][3] = FND_OFF;
    1282:	1f 82       	std	Y+7, r1	; 0x07
				DIGIT[1][2] = FND_OFF;
    1284:	1e 82       	std	Y+6, r1	; 0x06
				DIGIT[1][1] = FND_O;
    1286:	bd 82       	std	Y+5, r11	; 0x05
				DIGIT[1][0] = FND_N;
    1288:	ac 82       	std	Y+4, r10	; 0x04
    128a:	0e c0       	rjmp	.+28     	; 0x12a8 <Auto_Set+0xbc>
			}
		}
		else
		{
			if(Blink) {FND_Value_Data(1,1,12);}			// Blink = 1 └╠╕щ FND 1 OFF
    128c:	80 91 71 51 	lds	r24, 0x5171	; 0x805171 <Blink>
    1290:	88 23       	and	r24, r24
    1292:	31 f0       	breq	.+12     	; 0x12a0 <Auto_Set+0xb4>
    1294:	4c e0       	ldi	r20, 0x0C	; 12
    1296:	6d 2d       	mov	r22, r13
    1298:	8d 2d       	mov	r24, r13
    129a:	0e 94 d3 05 	call	0xba6	; 0xba6 <FND_Value_Data>
    129e:	04 c0       	rjmp	.+8      	; 0x12a8 <Auto_Set+0xbc>
			else
			{
				DIGIT[1][3] = FND_OFF;
    12a0:	1f 82       	std	Y+7, r1	; 0x07
				DIGIT[1][2] = FND_O;
    12a2:	be 82       	std	Y+6, r11	; 0x06
				DIGIT[1][1] = FND_F;
    12a4:	cd 82       	std	Y+5, r12	; 0x05
				DIGIT[1][0] = FND_F;
    12a6:	cc 82       	std	Y+4, r12	; 0x04
#endif

//=================================================================================================
void wdt_reset(void)								// Reset WDT
{
	asm("WDR");								// Reset WDT
    12a8:	a8 95       	wdr
}

//=================================================================================================
void Auto_Set(void)								// └┌╡┐╕Ё╡х,╝І╡┐╕Ё╡х ╝│┴д
{
	while(SET.Menu && SET.Select)						// ╕▐┤║░б 1 └╠╕щ ╣▌║╣
    12aa:	f8 01       	movw	r30, r16
    12ac:	80 81       	ld	r24, Z
    12ae:	88 23       	and	r24, r24
    12b0:	19 f0       	breq	.+6      	; 0x12b8 <Auto_Set+0xcc>
    12b2:	81 81       	ldd	r24, Z+1	; 0x01
    12b4:	81 11       	cpse	r24, r1
    12b6:	c6 cf       	rjmp	.-116    	; 0x1244 <Auto_Set+0x58>
				DIGIT[1][0] = FND_F;
			}
		}
		wdt_reset();							// ┐І─б╡╢ ╕о╝┬
	}
	ee_write_byte(Cell_AUTO_Addr, Auto_Mode);				// └┌╡┐╕Ё╡х ╝│┴д░к└╗ EEPROM ┐б └·└х
    12b8:	60 91 8e 52 	lds	r22, 0x528E	; 0x80528e <Auto_Mode>
    12bc:	87 e0       	ldi	r24, 0x07	; 7
    12be:	90 e0       	ldi	r25, 0x00	; 0
    12c0:	0e 94 dd 14 	call	0x29ba	; 0x29ba <ee_write_byte>
}
    12c4:	df 91       	pop	r29
    12c6:	cf 91       	pop	r28
    12c8:	1f 91       	pop	r17
    12ca:	0f 91       	pop	r16
    12cc:	ff 90       	pop	r15
    12ce:	ef 90       	pop	r14
    12d0:	df 90       	pop	r13
    12d2:	cf 90       	pop	r12
    12d4:	bf 90       	pop	r11
    12d6:	af 90       	pop	r10
    12d8:	08 95       	ret

000012da <Seting_Mode_1>:
	Var_Init();								// ║п╝І ├╩▒т╚н
}

//=================================================================================================
void Seting_Mode_1(void)							// ╝┬╞├╕Ё╡х 1
{
    12da:	bf 92       	push	r11
    12dc:	cf 92       	push	r12
    12de:	df 92       	push	r13
    12e0:	ef 92       	push	r14
    12e2:	ff 92       	push	r15
    12e4:	0f 93       	push	r16
    12e6:	1f 93       	push	r17
    12e8:	cf 93       	push	r28
    12ea:	df 93       	push	r29
    12ec:	2f ef       	ldi	r18, 0xFF	; 255
    12ee:	8f e7       	ldi	r24, 0x7F	; 127
    12f0:	96 e1       	ldi	r25, 0x16	; 22
    12f2:	21 50       	subi	r18, 0x01	; 1
    12f4:	80 40       	sbci	r24, 0x00	; 0
    12f6:	90 40       	sbci	r25, 0x00	; 0
    12f8:	e1 f7       	brne	.-8      	; 0x12f2 <Seting_Mode_1+0x18>
    12fa:	00 c0       	rjmp	.+0      	; 0x12fc <Seting_Mode_1+0x22>
    12fc:	00 00       	nop
	_delay_ms(500);								// ╕Ё╡х ┴Ї└╘ ╜├ ┐м╝╙ ╡┐└█ ╣ц┴І╕ж └з╟╤ ╡Є╖╣└╠

	while(SET.NumSET)							// ╕▐┤║ ┐═ ╝▒┼├ └╠ ╕Ё╡╬ 1 └╠╕щ ╣▌║╣
    12fe:	80 91 10 51 	lds	r24, 0x5110	; 0x805110 <SET+0x2>
    1302:	88 23       	and	r24, r24
    1304:	09 f4       	brne	.+2      	; 0x1308 <Seting_Mode_1+0x2e>
    1306:	40 c1       	rjmp	.+640    	; 0x1588 <Seting_Mode_1+0x2ae>
	{
		if(SET.NumSET == 1)
    1308:	0e e0       	ldi	r16, 0x0E	; 14
    130a:	11 e5       	ldi	r17, 0x51	; 81
		{
			if(KEY.Buff)						// Key └╘╖┬└╠ └╓└╕╕щ
    130c:	0f 2e       	mov	r0, r31
    130e:	fb e4       	ldi	r31, 0x4B	; 75
    1310:	ef 2e       	mov	r14, r31
    1312:	f1 e5       	ldi	r31, 0x51	; 81
    1314:	ff 2e       	mov	r15, r31
    1316:	f0 2d       	mov	r31, r0
				DIGIT[1][3] = FND_OFF;				// FND 1 ┐б ╣ц ╣Ї╚г ╟е╜├
				DIGIT[1][2] = fnd_tbl[Room_Number / 100];
				DIGIT[1][1] = fnd_tbl[Room_Number % 100 / 10];
				DIGIT[1][0] = fnd_tbl[Room_Number % 10];
			}
			DIGIT[2][3] = FND_OFF;					// FND 2 ┐б ╜║┼ч ╣Ї╚г ╟е╜├
    1318:	c9 e7       	ldi	r28, 0x79	; 121
    131a:	d1 e4       	ldi	r29, 0x41	; 65
			DIGIT[2][2] = fnd_tbl[Stal_Number / 100];
    131c:	0f 2e       	mov	r0, r31
    131e:	f9 e2       	ldi	r31, 0x29	; 41
    1320:	bf 2e       	mov	r11, r31
    1322:	f0 2d       	mov	r31, r0
			DIGIT[2][1] = fnd_tbl[Stal_Number % 100 / 10];
    1324:	0f 2e       	mov	r0, r31
    1326:	f4 e6       	ldi	r31, 0x64	; 100
    1328:	cf 2e       	mov	r12, r31
    132a:	f0 2d       	mov	r31, r0
    132c:	0f 2e       	mov	r0, r31
    132e:	fd ec       	ldi	r31, 0xCD	; 205
    1330:	df 2e       	mov	r13, r31
    1332:	f0 2d       	mov	r31, r0
{
	_delay_ms(500);								// ╕Ё╡х ┴Ї└╘ ╜├ ┐м╝╙ ╡┐└█ ╣ц┴І╕ж └з╟╤ ╡Є╖╣└╠

	while(SET.NumSET)							// ╕▐┤║ ┐═ ╝▒┼├ └╠ ╕Ё╡╬ 1 └╠╕щ ╣▌║╣
	{
		if(SET.NumSET == 1)
    1334:	f8 01       	movw	r30, r16
    1336:	82 81       	ldd	r24, Z+2	; 0x02
    1338:	81 30       	cpi	r24, 0x01	; 1
    133a:	09 f0       	breq	.+2      	; 0x133e <Seting_Mode_1+0x64>
    133c:	8f c0       	rjmp	.+286    	; 0x145c <Seting_Mode_1+0x182>
		{
			if(KEY.Buff)						// Key └╘╖┬└╠ └╓└╕╕щ
    133e:	f7 01       	movw	r30, r14
    1340:	81 81       	ldd	r24, Z+1	; 0x01
    1342:	88 23       	and	r24, r24
    1344:	21 f1       	breq	.+72     	; 0x138e <Seting_Mode_1+0xb4>
			{
				if     (KEY.Key == 1 && Room_Number < 100) {Room_Number++; KEY.Key = 0;}		// ╛і  ╣І╞░ └╠╕щ ░╣╝І ╝│┴д░к ┴є░б
    1346:	82 81       	ldd	r24, Z+2	; 0x02
    1348:	81 30       	cpi	r24, 0x01	; 1
    134a:	49 f4       	brne	.+18     	; 0x135e <Seting_Mode_1+0x84>
    134c:	80 91 8c 52 	lds	r24, 0x528C	; 0x80528c <Room_Number>
    1350:	84 36       	cpi	r24, 0x64	; 100
    1352:	28 f4       	brcc	.+10     	; 0x135e <Seting_Mode_1+0x84>
    1354:	8f 5f       	subi	r24, 0xFF	; 255
    1356:	80 93 8c 52 	sts	0x528C, r24	; 0x80528c <Room_Number>
    135a:	12 82       	std	Z+2, r1	; 0x02
    135c:	18 c0       	rjmp	.+48     	; 0x138e <Seting_Mode_1+0xb4>
				else if(KEY.Key == 3 && Room_Number > 1)   {Room_Number--; KEY.Key = 0;}		// ┤┘┐ю╣І╞░ └╠╕щ ░╣╝І ╝│┴д░к ░и╝╥
    135e:	f7 01       	movw	r30, r14
    1360:	82 81       	ldd	r24, Z+2	; 0x02
    1362:	83 30       	cpi	r24, 0x03	; 3
    1364:	49 f4       	brne	.+18     	; 0x1378 <Seting_Mode_1+0x9e>
    1366:	80 91 8c 52 	lds	r24, 0x528C	; 0x80528c <Room_Number>
    136a:	82 30       	cpi	r24, 0x02	; 2
    136c:	28 f0       	brcs	.+10     	; 0x1378 <Seting_Mode_1+0x9e>
    136e:	81 50       	subi	r24, 0x01	; 1
    1370:	80 93 8c 52 	sts	0x528C, r24	; 0x80528c <Room_Number>
    1374:	12 82       	std	Z+2, r1	; 0x02
    1376:	0b c0       	rjmp	.+22     	; 0x138e <Seting_Mode_1+0xb4>
				else if(KEY.Key == 2)			   {SET.NumSET++; SET.Save = 0; KEY.Key = 0;}	// ╝▒┼├╣І╞░ └╠╕щ SET.Room ├╩▒т╚н
    1378:	f7 01       	movw	r30, r14
    137a:	82 81       	ldd	r24, Z+2	; 0x02
    137c:	82 30       	cpi	r24, 0x02	; 2
    137e:	39 f4       	brne	.+14     	; 0x138e <Seting_Mode_1+0xb4>
    1380:	f8 01       	movw	r30, r16
    1382:	82 81       	ldd	r24, Z+2	; 0x02
    1384:	8f 5f       	subi	r24, 0xFF	; 255
    1386:	82 83       	std	Z+2, r24	; 0x02
    1388:	14 82       	std	Z+4, r1	; 0x04
    138a:	f7 01       	movw	r30, r14
    138c:	12 82       	std	Z+2, r1	; 0x02
			}

			if(Blink) {FND_Value_Data(1,1,12);}			// Blink = 1 └╠╕щ FND 1 OFF
    138e:	80 91 71 51 	lds	r24, 0x5171	; 0x805171 <Blink>
    1392:	88 23       	and	r24, r24
    1394:	31 f0       	breq	.+12     	; 0x13a2 <Seting_Mode_1+0xc8>
    1396:	4c e0       	ldi	r20, 0x0C	; 12
    1398:	61 e0       	ldi	r22, 0x01	; 1
    139a:	81 e0       	ldi	r24, 0x01	; 1
    139c:	0e 94 d3 05 	call	0xba6	; 0xba6 <FND_Value_Data>
    13a0:	2e c0       	rjmp	.+92     	; 0x13fe <Seting_Mode_1+0x124>
			else							// Blink = 0 └╠╕щ FND 1 ┐б ╣ц ╣Ї╚г ╟е╜├
			{
				DIGIT[1][3] = FND_OFF;				// FND 1 ┐б ╣ц ╣Ї╚г ╟е╜├
    13a2:	1f 82       	std	Y+7, r1	; 0x07
				DIGIT[1][2] = fnd_tbl[Room_Number / 100];
    13a4:	e0 91 8c 52 	lds	r30, 0x528C	; 0x80528c <Room_Number>
    13a8:	eb 9d       	mul	r30, r11
    13aa:	81 2d       	mov	r24, r1
    13ac:	11 24       	eor	r1, r1
    13ae:	82 95       	swap	r24
    13b0:	8f 70       	andi	r24, 0x0F	; 15
    13b2:	a8 2f       	mov	r26, r24
    13b4:	b0 e0       	ldi	r27, 0x00	; 0
    13b6:	ad 5b       	subi	r26, 0xBD	; 189
    13b8:	be 4b       	sbci	r27, 0xBE	; 190
    13ba:	9c 91       	ld	r25, X
    13bc:	9e 83       	std	Y+6, r25	; 0x06
				DIGIT[1][1] = fnd_tbl[Room_Number % 100 / 10];
    13be:	ae 2f       	mov	r26, r30
    13c0:	8c 9d       	mul	r24, r12
    13c2:	a0 19       	sub	r26, r0
    13c4:	11 24       	eor	r1, r1
    13c6:	ad 9d       	mul	r26, r13
    13c8:	a1 2d       	mov	r26, r1
    13ca:	11 24       	eor	r1, r1
    13cc:	a6 95       	lsr	r26
    13ce:	a6 95       	lsr	r26
    13d0:	a6 95       	lsr	r26
    13d2:	b0 e0       	ldi	r27, 0x00	; 0
    13d4:	ad 5b       	subi	r26, 0xBD	; 189
    13d6:	be 4b       	sbci	r27, 0xBE	; 190
    13d8:	8c 91       	ld	r24, X
    13da:	8d 83       	std	Y+5, r24	; 0x05
				DIGIT[1][0] = fnd_tbl[Room_Number % 10];
    13dc:	ed 9d       	mul	r30, r13
    13de:	81 2d       	mov	r24, r1
    13e0:	11 24       	eor	r1, r1
    13e2:	86 95       	lsr	r24
    13e4:	86 95       	lsr	r24
    13e6:	86 95       	lsr	r24
    13e8:	88 0f       	add	r24, r24
    13ea:	98 2f       	mov	r25, r24
    13ec:	99 0f       	add	r25, r25
    13ee:	99 0f       	add	r25, r25
    13f0:	89 0f       	add	r24, r25
    13f2:	e8 1b       	sub	r30, r24
    13f4:	f0 e0       	ldi	r31, 0x00	; 0
    13f6:	ed 5b       	subi	r30, 0xBD	; 189
    13f8:	fe 4b       	sbci	r31, 0xBE	; 190
    13fa:	80 81       	ld	r24, Z
    13fc:	8c 83       	std	Y+4, r24	; 0x04
			}
			DIGIT[2][3] = FND_OFF;					// FND 2 ┐б ╜║┼ч ╣Ї╚г ╟е╜├
    13fe:	1b 86       	std	Y+11, r1	; 0x0b
			DIGIT[2][2] = fnd_tbl[Stal_Number / 100];
    1400:	e0 91 86 52 	lds	r30, 0x5286	; 0x805286 <Stal_Number>
    1404:	eb 9d       	mul	r30, r11
    1406:	81 2d       	mov	r24, r1
    1408:	11 24       	eor	r1, r1
    140a:	82 95       	swap	r24
    140c:	8f 70       	andi	r24, 0x0F	; 15
    140e:	a8 2f       	mov	r26, r24
    1410:	b0 e0       	ldi	r27, 0x00	; 0
    1412:	ad 5b       	subi	r26, 0xBD	; 189
    1414:	be 4b       	sbci	r27, 0xBE	; 190
    1416:	9c 91       	ld	r25, X
    1418:	9a 87       	std	Y+10, r25	; 0x0a
			DIGIT[2][1] = fnd_tbl[Stal_Number % 100 / 10];
    141a:	ae 2f       	mov	r26, r30
    141c:	8c 9d       	mul	r24, r12
    141e:	a0 19       	sub	r26, r0
    1420:	11 24       	eor	r1, r1
    1422:	ad 9d       	mul	r26, r13
    1424:	a1 2d       	mov	r26, r1
    1426:	11 24       	eor	r1, r1
    1428:	a6 95       	lsr	r26
    142a:	a6 95       	lsr	r26
    142c:	a6 95       	lsr	r26
    142e:	b0 e0       	ldi	r27, 0x00	; 0
    1430:	ad 5b       	subi	r26, 0xBD	; 189
    1432:	be 4b       	sbci	r27, 0xBE	; 190
    1434:	8c 91       	ld	r24, X
    1436:	89 87       	std	Y+9, r24	; 0x09
			DIGIT[2][0] = fnd_tbl[Stal_Number % 10];
    1438:	ed 9d       	mul	r30, r13
    143a:	81 2d       	mov	r24, r1
    143c:	11 24       	eor	r1, r1
    143e:	86 95       	lsr	r24
    1440:	86 95       	lsr	r24
    1442:	86 95       	lsr	r24
    1444:	88 0f       	add	r24, r24
    1446:	98 2f       	mov	r25, r24
    1448:	99 0f       	add	r25, r25
    144a:	99 0f       	add	r25, r25
    144c:	89 0f       	add	r24, r25
    144e:	e8 1b       	sub	r30, r24
    1450:	f0 e0       	ldi	r31, 0x00	; 0
    1452:	ed 5b       	subi	r30, 0xBD	; 189
    1454:	fe 4b       	sbci	r31, 0xBE	; 190
    1456:	80 81       	ld	r24, Z
    1458:	88 87       	std	Y+8, r24	; 0x08
    145a:	91 c0       	rjmp	.+290    	; 0x157e <Seting_Mode_1+0x2a4>
		}
		else if(SET.NumSET == 2)
    145c:	f8 01       	movw	r30, r16
    145e:	82 81       	ldd	r24, Z+2	; 0x02
    1460:	82 30       	cpi	r24, 0x02	; 2
    1462:	09 f0       	breq	.+2      	; 0x1466 <Seting_Mode_1+0x18c>
    1464:	8c c0       	rjmp	.+280    	; 0x157e <Seting_Mode_1+0x2a4>
		{
			if(KEY.Buff)						// Key └╘╖┬└╠ └╓└╕╕щ
    1466:	f7 01       	movw	r30, r14
    1468:	81 81       	ldd	r24, Z+1	; 0x01
    146a:	88 23       	and	r24, r24
    146c:	11 f1       	breq	.+68     	; 0x14b2 <Seting_Mode_1+0x1d8>
			{
				if     (KEY.Key == 1 && Stal_Number < 100) {Stal_Number++; KEY.Key = 0;}		// ╛і  ╣І╞░ └╠╕щ ░╣╝І ╝│┴д░к ┴є░б
    146e:	82 81       	ldd	r24, Z+2	; 0x02
    1470:	81 30       	cpi	r24, 0x01	; 1
    1472:	49 f4       	brne	.+18     	; 0x1486 <Seting_Mode_1+0x1ac>
    1474:	80 91 86 52 	lds	r24, 0x5286	; 0x805286 <Stal_Number>
    1478:	84 36       	cpi	r24, 0x64	; 100
    147a:	28 f4       	brcc	.+10     	; 0x1486 <Seting_Mode_1+0x1ac>
    147c:	8f 5f       	subi	r24, 0xFF	; 255
    147e:	80 93 86 52 	sts	0x5286, r24	; 0x805286 <Stal_Number>
    1482:	12 82       	std	Z+2, r1	; 0x02
    1484:	16 c0       	rjmp	.+44     	; 0x14b2 <Seting_Mode_1+0x1d8>
				else if(KEY.Key == 3 && Stal_Number > 1)   {Stal_Number--; KEY.Key = 0;}		// ┤┘┐ю╣І╞░ └╠╕щ ░╣╝І ╝│┴д░к ░и╝╥
    1486:	f7 01       	movw	r30, r14
    1488:	82 81       	ldd	r24, Z+2	; 0x02
    148a:	83 30       	cpi	r24, 0x03	; 3
    148c:	49 f4       	brne	.+18     	; 0x14a0 <Seting_Mode_1+0x1c6>
    148e:	80 91 86 52 	lds	r24, 0x5286	; 0x805286 <Stal_Number>
    1492:	82 30       	cpi	r24, 0x02	; 2
    1494:	28 f0       	brcs	.+10     	; 0x14a0 <Seting_Mode_1+0x1c6>
    1496:	81 50       	subi	r24, 0x01	; 1
    1498:	80 93 86 52 	sts	0x5286, r24	; 0x805286 <Stal_Number>
    149c:	12 82       	std	Z+2, r1	; 0x02
    149e:	09 c0       	rjmp	.+18     	; 0x14b2 <Seting_Mode_1+0x1d8>
				else if(KEY.Key == 2)			   {SET.NumSET = 0; SET.Save = 0; KEY.Key = 0;}	// ╝▒┼├╣І╞░ └╠╕щ SET.Room ├╩▒т╚н
    14a0:	f7 01       	movw	r30, r14
    14a2:	82 81       	ldd	r24, Z+2	; 0x02
    14a4:	82 30       	cpi	r24, 0x02	; 2
    14a6:	29 f4       	brne	.+10     	; 0x14b2 <Seting_Mode_1+0x1d8>
    14a8:	f8 01       	movw	r30, r16
    14aa:	12 82       	std	Z+2, r1	; 0x02
    14ac:	14 82       	std	Z+4, r1	; 0x04
    14ae:	f7 01       	movw	r30, r14
    14b0:	12 82       	std	Z+2, r1	; 0x02
			}

			if(Blink) {FND_Value_Data(2,2,12);}			// Blink = 1 └╠╕щ FND 2 OFF
    14b2:	80 91 71 51 	lds	r24, 0x5171	; 0x805171 <Blink>
    14b6:	88 23       	and	r24, r24
    14b8:	31 f0       	breq	.+12     	; 0x14c6 <Seting_Mode_1+0x1ec>
    14ba:	4c e0       	ldi	r20, 0x0C	; 12
    14bc:	62 e0       	ldi	r22, 0x02	; 2
    14be:	82 e0       	ldi	r24, 0x02	; 2
    14c0:	0e 94 d3 05 	call	0xba6	; 0xba6 <FND_Value_Data>
    14c4:	2e c0       	rjmp	.+92     	; 0x1522 <Seting_Mode_1+0x248>
			else							// Blink = 0 └╠╕щ FND 2┐б ╜║┼ч ╣Ї╚г ╟е╜├
			{
				DIGIT[2][3] = FND_OFF;				// FND 2 ┐б ╜║┼ч ╣Ї╚г ╟е╜├
    14c6:	1b 86       	std	Y+11, r1	; 0x0b
				DIGIT[2][2] = fnd_tbl[Stal_Number / 100];
    14c8:	e0 91 86 52 	lds	r30, 0x5286	; 0x805286 <Stal_Number>
    14cc:	eb 9d       	mul	r30, r11
    14ce:	81 2d       	mov	r24, r1
    14d0:	11 24       	eor	r1, r1
    14d2:	82 95       	swap	r24
    14d4:	8f 70       	andi	r24, 0x0F	; 15
    14d6:	a8 2f       	mov	r26, r24
    14d8:	b0 e0       	ldi	r27, 0x00	; 0
    14da:	ad 5b       	subi	r26, 0xBD	; 189
    14dc:	be 4b       	sbci	r27, 0xBE	; 190
    14de:	9c 91       	ld	r25, X
    14e0:	9a 87       	std	Y+10, r25	; 0x0a
				DIGIT[2][1] = fnd_tbl[Stal_Number % 100 / 10];
    14e2:	ae 2f       	mov	r26, r30
    14e4:	8c 9d       	mul	r24, r12
    14e6:	a0 19       	sub	r26, r0
    14e8:	11 24       	eor	r1, r1
    14ea:	ad 9d       	mul	r26, r13
    14ec:	a1 2d       	mov	r26, r1
    14ee:	11 24       	eor	r1, r1
    14f0:	a6 95       	lsr	r26
    14f2:	a6 95       	lsr	r26
    14f4:	a6 95       	lsr	r26
    14f6:	b0 e0       	ldi	r27, 0x00	; 0
    14f8:	ad 5b       	subi	r26, 0xBD	; 189
    14fa:	be 4b       	sbci	r27, 0xBE	; 190
    14fc:	8c 91       	ld	r24, X
    14fe:	89 87       	std	Y+9, r24	; 0x09
				DIGIT[2][0] = fnd_tbl[Stal_Number % 10];
    1500:	ed 9d       	mul	r30, r13
    1502:	81 2d       	mov	r24, r1
    1504:	11 24       	eor	r1, r1
    1506:	86 95       	lsr	r24
    1508:	86 95       	lsr	r24
    150a:	86 95       	lsr	r24
    150c:	88 0f       	add	r24, r24
    150e:	98 2f       	mov	r25, r24
    1510:	99 0f       	add	r25, r25
    1512:	99 0f       	add	r25, r25
    1514:	89 0f       	add	r24, r25
    1516:	e8 1b       	sub	r30, r24
    1518:	f0 e0       	ldi	r31, 0x00	; 0
    151a:	ed 5b       	subi	r30, 0xBD	; 189
    151c:	fe 4b       	sbci	r31, 0xBE	; 190
    151e:	80 81       	ld	r24, Z
    1520:	88 87       	std	Y+8, r24	; 0x08
			}
			DIGIT[1][3] = FND_OFF;					// FND 1 ┐б ╣ц ╣Ї╚г ╟е╜├
    1522:	1f 82       	std	Y+7, r1	; 0x07
			DIGIT[1][2] = fnd_tbl[Room_Number / 100];
    1524:	e0 91 8c 52 	lds	r30, 0x528C	; 0x80528c <Room_Number>
    1528:	eb 9d       	mul	r30, r11
    152a:	81 2d       	mov	r24, r1
    152c:	11 24       	eor	r1, r1
    152e:	82 95       	swap	r24
    1530:	8f 70       	andi	r24, 0x0F	; 15
    1532:	a8 2f       	mov	r26, r24
    1534:	b0 e0       	ldi	r27, 0x00	; 0
    1536:	ad 5b       	subi	r26, 0xBD	; 189
    1538:	be 4b       	sbci	r27, 0xBE	; 190
    153a:	9c 91       	ld	r25, X
    153c:	9e 83       	std	Y+6, r25	; 0x06
			DIGIT[1][1] = fnd_tbl[Room_Number % 100 / 10];
    153e:	ae 2f       	mov	r26, r30
    1540:	8c 9d       	mul	r24, r12
    1542:	a0 19       	sub	r26, r0
    1544:	11 24       	eor	r1, r1
    1546:	ad 9d       	mul	r26, r13
    1548:	a1 2d       	mov	r26, r1
    154a:	11 24       	eor	r1, r1
    154c:	a6 95       	lsr	r26
    154e:	a6 95       	lsr	r26
    1550:	a6 95       	lsr	r26
    1552:	b0 e0       	ldi	r27, 0x00	; 0
    1554:	ad 5b       	subi	r26, 0xBD	; 189
    1556:	be 4b       	sbci	r27, 0xBE	; 190
    1558:	8c 91       	ld	r24, X
    155a:	8d 83       	std	Y+5, r24	; 0x05
			DIGIT[1][0] = fnd_tbl[Room_Number % 10];
    155c:	ed 9d       	mul	r30, r13
    155e:	81 2d       	mov	r24, r1
    1560:	11 24       	eor	r1, r1
    1562:	86 95       	lsr	r24
    1564:	86 95       	lsr	r24
    1566:	86 95       	lsr	r24
    1568:	88 0f       	add	r24, r24
    156a:	98 2f       	mov	r25, r24
    156c:	99 0f       	add	r25, r25
    156e:	99 0f       	add	r25, r25
    1570:	89 0f       	add	r24, r25
    1572:	e8 1b       	sub	r30, r24
    1574:	f0 e0       	ldi	r31, 0x00	; 0
    1576:	ed 5b       	subi	r30, 0xBD	; 189
    1578:	fe 4b       	sbci	r31, 0xBE	; 190
    157a:	80 81       	ld	r24, Z
    157c:	8c 83       	std	Y+4, r24	; 0x04
#endif

//=================================================================================================
void wdt_reset(void)								// Reset WDT
{
	asm("WDR");								// Reset WDT
    157e:	a8 95       	wdr
//=================================================================================================
void Seting_Mode_1(void)							// ╝┬╞├╕Ё╡х 1
{
	_delay_ms(500);								// ╕Ё╡х ┴Ї└╘ ╜├ ┐м╝╙ ╡┐└█ ╣ц┴І╕ж └з╟╤ ╡Є╖╣└╠

	while(SET.NumSET)							// ╕▐┤║ ┐═ ╝▒┼├ └╠ ╕Ё╡╬ 1 └╠╕щ ╣▌║╣
    1580:	f8 01       	movw	r30, r16
    1582:	82 81       	ldd	r24, Z+2	; 0x02
    1584:	81 11       	cpse	r24, r1
    1586:	d6 ce       	rjmp	.-596    	; 0x1334 <Seting_Mode_1+0x5a>
			DIGIT[1][1] = fnd_tbl[Room_Number % 100 / 10];
			DIGIT[1][0] = fnd_tbl[Room_Number % 10];
		}
		wdt_reset();							// ┐І─б╡╢ ╕о╝┬
	}
	SET.NumSET = 0;
    1588:	10 92 10 51 	sts	0x5110, r1	; 0x805110 <SET+0x2>
	ee_write_byte(Cell_ROOM_Addr, Room_Number);
    158c:	60 91 8c 52 	lds	r22, 0x528C	; 0x80528c <Room_Number>
    1590:	85 e0       	ldi	r24, 0x05	; 5
    1592:	90 e0       	ldi	r25, 0x00	; 0
    1594:	0e 94 dd 14 	call	0x29ba	; 0x29ba <ee_write_byte>
	ee_write_byte(Cell_STAL_Addr, Stal_Number);
    1598:	60 91 86 52 	lds	r22, 0x5286	; 0x805286 <Stal_Number>
    159c:	86 e0       	ldi	r24, 0x06	; 6
    159e:	90 e0       	ldi	r25, 0x00	; 0
    15a0:	0e 94 dd 14 	call	0x29ba	; 0x29ba <ee_write_byte>
	Alarm();
    15a4:	0e 94 db 08 	call	0x11b6	; 0x11b6 <Alarm>
}
    15a8:	df 91       	pop	r29
    15aa:	cf 91       	pop	r28
    15ac:	1f 91       	pop	r17
    15ae:	0f 91       	pop	r16
    15b0:	ff 90       	pop	r15
    15b2:	ef 90       	pop	r14
    15b4:	df 90       	pop	r13
    15b6:	cf 90       	pop	r12
    15b8:	bf 90       	pop	r11
    15ba:	08 95       	ret

000015bc <Room_Desplay>:

//=================================================================================================
void Room_Desplay(void)								// ╣ц ╣Ї╚г ╟е╜├
{
    15bc:	cf 93       	push	r28
    15be:	df 93       	push	r29
	DIGIT[1][3] = FND_OFF;							// FND 1 ┐б ╣ц ╣Ї╚г ╟е╜├
    15c0:	c9 e7       	ldi	r28, 0x79	; 121
    15c2:	d1 e4       	ldi	r29, 0x41	; 65
    15c4:	1f 82       	std	Y+7, r1	; 0x07
	DIGIT[1][2] = fnd_tbl[Room_Number / 100];
    15c6:	e0 91 8c 52 	lds	r30, 0x528C	; 0x80528c <Room_Number>
    15ca:	89 e2       	ldi	r24, 0x29	; 41
    15cc:	e8 9f       	mul	r30, r24
    15ce:	81 2d       	mov	r24, r1
    15d0:	11 24       	eor	r1, r1
    15d2:	82 95       	swap	r24
    15d4:	8f 70       	andi	r24, 0x0F	; 15
    15d6:	a8 2f       	mov	r26, r24
    15d8:	b0 e0       	ldi	r27, 0x00	; 0
    15da:	ad 5b       	subi	r26, 0xBD	; 189
    15dc:	be 4b       	sbci	r27, 0xBE	; 190
    15de:	9c 91       	ld	r25, X
    15e0:	9e 83       	std	Y+6, r25	; 0x06
	DIGIT[1][1] = fnd_tbl[Room_Number % 100 / 10];
    15e2:	ae 2f       	mov	r26, r30
    15e4:	94 e6       	ldi	r25, 0x64	; 100
    15e6:	89 9f       	mul	r24, r25
    15e8:	a0 19       	sub	r26, r0
    15ea:	11 24       	eor	r1, r1
    15ec:	8d ec       	ldi	r24, 0xCD	; 205
    15ee:	a8 9f       	mul	r26, r24
    15f0:	a1 2d       	mov	r26, r1
    15f2:	11 24       	eor	r1, r1
    15f4:	a6 95       	lsr	r26
    15f6:	a6 95       	lsr	r26
    15f8:	a6 95       	lsr	r26
    15fa:	b0 e0       	ldi	r27, 0x00	; 0
    15fc:	ad 5b       	subi	r26, 0xBD	; 189
    15fe:	be 4b       	sbci	r27, 0xBE	; 190
    1600:	9c 91       	ld	r25, X
    1602:	9d 83       	std	Y+5, r25	; 0x05
	DIGIT[1][0] = fnd_tbl[Room_Number % 10];
    1604:	e8 9f       	mul	r30, r24
    1606:	81 2d       	mov	r24, r1
    1608:	11 24       	eor	r1, r1
    160a:	86 95       	lsr	r24
    160c:	86 95       	lsr	r24
    160e:	86 95       	lsr	r24
    1610:	88 0f       	add	r24, r24
    1612:	98 2f       	mov	r25, r24
    1614:	99 0f       	add	r25, r25
    1616:	99 0f       	add	r25, r25
    1618:	89 0f       	add	r24, r25
    161a:	e8 1b       	sub	r30, r24
    161c:	f0 e0       	ldi	r31, 0x00	; 0
    161e:	ed 5b       	subi	r30, 0xBD	; 189
    1620:	fe 4b       	sbci	r31, 0xBE	; 190
    1622:	80 81       	ld	r24, Z
    1624:	8c 83       	std	Y+4, r24	; 0x04
}
    1626:	df 91       	pop	r29
    1628:	cf 91       	pop	r28
    162a:	08 95       	ret

0000162c <Stal_Desplay>:

//=================================================================================================
void Stal_Desplay(void)								// ╜║┼ч ╣Ї╚г ╟е╜├
{
    162c:	cf 93       	push	r28
    162e:	df 93       	push	r29
	DIGIT[2][3] = FND_OFF;							// FND 2 ┐б ╜║┼ч ╣Ї╚г ╟е╜├
    1630:	c9 e7       	ldi	r28, 0x79	; 121
    1632:	d1 e4       	ldi	r29, 0x41	; 65
    1634:	1b 86       	std	Y+11, r1	; 0x0b
	DIGIT[2][2] = fnd_tbl[Stal_Number / 100];
    1636:	e0 91 86 52 	lds	r30, 0x5286	; 0x805286 <Stal_Number>
    163a:	89 e2       	ldi	r24, 0x29	; 41
    163c:	e8 9f       	mul	r30, r24
    163e:	81 2d       	mov	r24, r1
    1640:	11 24       	eor	r1, r1
    1642:	82 95       	swap	r24
    1644:	8f 70       	andi	r24, 0x0F	; 15
    1646:	a8 2f       	mov	r26, r24
    1648:	b0 e0       	ldi	r27, 0x00	; 0
    164a:	ad 5b       	subi	r26, 0xBD	; 189
    164c:	be 4b       	sbci	r27, 0xBE	; 190
    164e:	9c 91       	ld	r25, X
    1650:	9a 87       	std	Y+10, r25	; 0x0a
	DIGIT[2][1] = fnd_tbl[Stal_Number % 100 / 10];
    1652:	ae 2f       	mov	r26, r30
    1654:	94 e6       	ldi	r25, 0x64	; 100
    1656:	89 9f       	mul	r24, r25
    1658:	a0 19       	sub	r26, r0
    165a:	11 24       	eor	r1, r1
    165c:	8d ec       	ldi	r24, 0xCD	; 205
    165e:	a8 9f       	mul	r26, r24
    1660:	a1 2d       	mov	r26, r1
    1662:	11 24       	eor	r1, r1
    1664:	a6 95       	lsr	r26
    1666:	a6 95       	lsr	r26
    1668:	a6 95       	lsr	r26
    166a:	b0 e0       	ldi	r27, 0x00	; 0
    166c:	ad 5b       	subi	r26, 0xBD	; 189
    166e:	be 4b       	sbci	r27, 0xBE	; 190
    1670:	9c 91       	ld	r25, X
    1672:	99 87       	std	Y+9, r25	; 0x09
	DIGIT[2][0] = fnd_tbl[Stal_Number % 10];
    1674:	e8 9f       	mul	r30, r24
    1676:	81 2d       	mov	r24, r1
    1678:	11 24       	eor	r1, r1
    167a:	86 95       	lsr	r24
    167c:	86 95       	lsr	r24
    167e:	86 95       	lsr	r24
    1680:	88 0f       	add	r24, r24
    1682:	98 2f       	mov	r25, r24
    1684:	99 0f       	add	r25, r25
    1686:	99 0f       	add	r25, r25
    1688:	89 0f       	add	r24, r25
    168a:	e8 1b       	sub	r30, r24
    168c:	f0 e0       	ldi	r31, 0x00	; 0
    168e:	ed 5b       	subi	r30, 0xBD	; 189
    1690:	fe 4b       	sbci	r31, 0xBE	; 190
    1692:	80 81       	ld	r24, Z
    1694:	88 87       	std	Y+8, r24	; 0x08
}
    1696:	df 91       	pop	r29
    1698:	cf 91       	pop	r28
    169a:	08 95       	ret

0000169c <Check_Value>:

//=================================================================================================
void Check_Value(void)								// ╖╬╡х╝┐ ├╝┴▀├Ї┴д
{
    169c:	8f 92       	push	r8
    169e:	9f 92       	push	r9
    16a0:	af 92       	push	r10
    16a2:	bf 92       	push	r11
    16a4:	cf 92       	push	r12
    16a6:	df 92       	push	r13
    16a8:	ef 92       	push	r14
    16aa:	ff 92       	push	r15
    16ac:	0f 93       	push	r16
    16ae:	1f 93       	push	r17
    16b0:	cf 93       	push	r28
    16b2:	df 93       	push	r29
	uint32_t Value = Read_Load_Cell();					// ╖╬╡х╝┐ ├Ї┴д░к └╨▒т
    16b4:	0e 94 b2 1a 	call	0x3564	; 0x3564 <Read_Load_Cell>
    16b8:	ac 01       	movw	r20, r24
    16ba:	60 e0       	ldi	r22, 0x00	; 0
    16bc:	70 e0       	ldi	r23, 0x00	; 0
	uint8_t cnt_1 = 3;							// OK_Count ░╣╝І
	uint8_t cnt_2 = 12;							// OK_Count ░╣╝І
//-------------------------------------------------------------------------------------------------
	if(Value)								// ├Ї┴д├╝┴▀└╠ └╓└╕╕щ
    16be:	41 15       	cp	r20, r1
    16c0:	51 05       	cpc	r21, r1
    16c2:	61 05       	cpc	r22, r1
    16c4:	71 05       	cpc	r23, r1
    16c6:	09 f4       	brne	.+2      	; 0x16ca <Check_Value+0x2e>
    16c8:	b2 c2       	rjmp	.+1380   	; 0x1c2e <Check_Value+0x592>
	{
		Sec_Count = 0;
    16ca:	10 92 81 52 	sts	0x5281, r1	; 0x805281 <Sec_Count>
    16ce:	10 92 82 52 	sts	0x5282, r1	; 0x805282 <Sec_Count+0x1>

		if((OK_Count_1 >= cnt_1) || (OK_Count_2 >= cnt_2))		// ├Ї┴д├╝┴▀ OK Count ║╕┤┘ ┼й╕щ
    16d2:	20 91 87 52 	lds	r18, 0x5287	; 0x805287 <OK_Count_1>
    16d6:	23 30       	cpi	r18, 0x03	; 3
    16d8:	28 f4       	brcc	.+10     	; 0x16e4 <Check_Value+0x48>
    16da:	30 91 8d 52 	lds	r19, 0x528D	; 0x80528d <OK_Count_2>
    16de:	3c 30       	cpi	r19, 0x0C	; 12
    16e0:	08 f4       	brcc	.+2      	; 0x16e4 <Check_Value+0x48>
    16e2:	84 c1       	rjmp	.+776    	; 0x19ec <Check_Value+0x350>
		{
			FND_Value_Data(1, 1, 10);				// FND 1 FND_MINUS ╟е╜├
    16e4:	4a e0       	ldi	r20, 0x0A	; 10
    16e6:	61 e0       	ldi	r22, 0x01	; 1
    16e8:	81 e0       	ldi	r24, 0x01	; 1
    16ea:	0e 94 d3 05 	call	0xba6	; 0xba6 <FND_Value_Data>
			if((SET.Save || Auto_Mode) && !CELL.Zero_Buff)		// └·└х Key ░б ┤н╖╚░┼│к └┌╡┐╕Ё╡х └╠╕щ╝н CELL.Zero_Buff ░б 0└╠╕щ
    16ee:	80 91 12 51 	lds	r24, 0x5112	; 0x805112 <SET+0x4>
    16f2:	81 11       	cpse	r24, r1
    16f4:	05 c0       	rjmp	.+10     	; 0x1700 <Check_Value+0x64>
    16f6:	80 91 8e 52 	lds	r24, 0x528E	; 0x80528e <Auto_Mode>
    16fa:	88 23       	and	r24, r24
    16fc:	09 f4       	brne	.+2      	; 0x1700 <Check_Value+0x64>
    16fe:	73 c1       	rjmp	.+742    	; 0x19e6 <Check_Value+0x34a>
    1700:	80 91 1c 51 	lds	r24, 0x511C	; 0x80511c <CELL>
    1704:	81 11       	cpse	r24, r1
    1706:	6f c1       	rjmp	.+734    	; 0x19e6 <Check_Value+0x34a>
			{
				if(Data_Number < 299) {Data_Number++;}		// └·└х╚╜╝І ░б 0 ~ 299(300░│)║╕┤┘ └█└╕╕щ └·└х╚╜╝І ┴є░б
    1708:	80 91 88 52 	lds	r24, 0x5288	; 0x805288 <Data_Number>
    170c:	90 91 89 52 	lds	r25, 0x5289	; 0x805289 <Data_Number+0x1>
    1710:	8b 32       	cpi	r24, 0x2B	; 43
    1712:	21 e0       	ldi	r18, 0x01	; 1
    1714:	92 07       	cpc	r25, r18
    1716:	30 f4       	brcc	.+12     	; 0x1724 <Check_Value+0x88>
    1718:	01 96       	adiw	r24, 0x01	; 1
    171a:	80 93 88 52 	sts	0x5288, r24	; 0x805288 <Data_Number>
    171e:	90 93 89 52 	sts	0x5289, r25	; 0x805289 <Data_Number+0x1>
    1722:	04 c0       	rjmp	.+8      	; 0x172c <Check_Value+0x90>
				else		      {Data_Number = 0;}	// ╛╞┤╧╕щ └·└х╚╜╝І ├╩▒т╚н
    1724:	10 92 88 52 	sts	0x5288, r1	; 0x805288 <Data_Number>
    1728:	10 92 89 52 	sts	0x5289, r1	; 0x805289 <Data_Number+0x1>
//-------------------------------------------------------------------------------------------------
				SAVE.AutoSet[Data_Number] = Auto_Mode;
    172c:	80 91 88 52 	lds	r24, 0x5288	; 0x805288 <Data_Number>
    1730:	90 91 89 52 	lds	r25, 0x5289	; 0x805289 <Data_Number+0x1>
    1734:	ec 01       	movw	r28, r24
    1736:	c3 55       	subi	r28, 0x53	; 83
    1738:	de 4b       	sbci	r29, 0xBE	; 190
    173a:	20 91 8e 52 	lds	r18, 0x528E	; 0x80528e <Auto_Mode>
    173e:	28 83       	st	Y, r18
				SAVE.Count  [Data_Number] = Data_Number;
    1740:	fc 01       	movw	r30, r24
    1742:	ee 0f       	add	r30, r30
    1744:	ff 1f       	adc	r31, r31
    1746:	e7 52       	subi	r30, 0x27	; 39
    1748:	fd 4b       	sbci	r31, 0xBD	; 189
    174a:	80 83       	st	Z, r24
    174c:	91 83       	std	Z+1, r25	; 0x01
				SAVE.Data   [Data_Number] = CELL.Value = CELL.Old_Value;
    174e:	ec e1       	ldi	r30, 0x1C	; 28
    1750:	f1 e5       	ldi	r31, 0x51	; 81
    1752:	41 85       	ldd	r20, Z+9	; 0x09
    1754:	52 85       	ldd	r21, Z+10	; 0x0a
    1756:	63 85       	ldd	r22, Z+11	; 0x0b
    1758:	74 85       	ldd	r23, Z+12	; 0x0c
    175a:	41 83       	std	Z+1, r20	; 0x01
    175c:	52 83       	std	Z+2, r21	; 0x02
    175e:	63 83       	std	Z+3, r22	; 0x03
    1760:	74 83       	std	Z+4, r23	; 0x04
    1762:	88 0f       	add	r24, r24
    1764:	99 1f       	adc	r25, r25
    1766:	fc 01       	movw	r30, r24
    1768:	ef 5c       	subi	r30, 0xCF	; 207
    176a:	fa 4b       	sbci	r31, 0xBA	; 186
    176c:	40 83       	st	Z, r20
    176e:	51 83       	std	Z+1, r21	; 0x01
				SAVE.RoomNum[Data_Number] = Room_Number;
    1770:	fe 01       	movw	r30, r28
    1772:	e4 52       	subi	r30, 0x24	; 36
    1774:	fa 4f       	sbci	r31, 0xFA	; 250
    1776:	80 91 8c 52 	lds	r24, 0x528C	; 0x80528c <Room_Number>
    177a:	80 83       	st	Z, r24
				SAVE.StalNum[Data_Number] = Stal_Number;
    177c:	e4 5d       	subi	r30, 0xD4	; 212
    177e:	fe 4f       	sbci	r31, 0xFE	; 254
    1780:	80 91 86 52 	lds	r24, 0x5286	; 0x805286 <Stal_Number>
    1784:	80 83       	st	Z, r24
				SAVE.Year   [Data_Number] = RTC_Single_Read(RTC_YEAR);		// YEAR
    1786:	86 e0       	ldi	r24, 0x06	; 6
    1788:	0e 94 d5 2a 	call	0x55aa	; 0x55aa <RTC_Single_Read>
    178c:	fe 01       	movw	r30, r28
    178e:	ec 5c       	subi	r30, 0xCC	; 204
    1790:	f7 4f       	sbci	r31, 0xF7	; 247
    1792:	80 83       	st	Z, r24
				SAVE.Month  [Data_Number] = RTC_Single_Read(RTC_MONTH);		// MONTH
    1794:	c0 91 88 52 	lds	r28, 0x5288	; 0x805288 <Data_Number>
    1798:	d0 91 89 52 	lds	r29, 0x5289	; 0x805289 <Data_Number+0x1>
    179c:	85 e0       	ldi	r24, 0x05	; 5
    179e:	0e 94 d5 2a 	call	0x55aa	; 0x55aa <RTC_Single_Read>
    17a2:	c3 5f       	subi	r28, 0xF3	; 243
    17a4:	d4 4b       	sbci	r29, 0xB4	; 180
    17a6:	88 83       	st	Y, r24
				SAVE.Date   [Data_Number] = RTC_Single_Read(RTC_DATE);		// DATE
    17a8:	c0 91 88 52 	lds	r28, 0x5288	; 0x805288 <Data_Number>
    17ac:	d0 91 89 52 	lds	r29, 0x5289	; 0x805289 <Data_Number+0x1>
    17b0:	84 e0       	ldi	r24, 0x04	; 4
    17b2:	0e 94 d5 2a 	call	0x55aa	; 0x55aa <RTC_Single_Read>
    17b6:	c7 5c       	subi	r28, 0xC7	; 199
    17b8:	d3 4b       	sbci	r29, 0xB3	; 179
    17ba:	88 83       	st	Y, r24
				SAVE.Hour   [Data_Number] = RTC_Single_Read(RTC_HOUR);		// HOUR
    17bc:	c0 91 88 52 	lds	r28, 0x5288	; 0x805288 <Data_Number>
    17c0:	d0 91 89 52 	lds	r29, 0x5289	; 0x805289 <Data_Number+0x1>
    17c4:	82 e0       	ldi	r24, 0x02	; 2
    17c6:	0e 94 d5 2a 	call	0x55aa	; 0x55aa <RTC_Single_Read>
    17ca:	cb 59       	subi	r28, 0x9B	; 155
    17cc:	d2 4b       	sbci	r29, 0xB2	; 178
    17ce:	88 83       	st	Y, r24
				SAVE.Min    [Data_Number] = RTC_Single_Read(RTC_MINUTE);	// MINUTE
    17d0:	c0 91 88 52 	lds	r28, 0x5288	; 0x805288 <Data_Number>
    17d4:	d0 91 89 52 	lds	r29, 0x5289	; 0x805289 <Data_Number+0x1>
    17d8:	81 e0       	ldi	r24, 0x01	; 1
    17da:	0e 94 d5 2a 	call	0x55aa	; 0x55aa <RTC_Single_Read>
    17de:	cf 56       	subi	r28, 0x6F	; 111
    17e0:	d1 4b       	sbci	r29, 0xB1	; 177
    17e2:	88 83       	st	Y, r24
				SAVE.Sec    [Data_Number] = RTC_Single_Read(RTC_SECOND);	// SECOND
    17e4:	c0 91 88 52 	lds	r28, 0x5288	; 0x805288 <Data_Number>
    17e8:	d0 91 89 52 	lds	r29, 0x5289	; 0x805289 <Data_Number+0x1>
    17ec:	80 e0       	ldi	r24, 0x00	; 0
    17ee:	0e 94 d5 2a 	call	0x55aa	; 0x55aa <RTC_Single_Read>
    17f2:	c3 54       	subi	r28, 0x43	; 67
    17f4:	d0 4b       	sbci	r29, 0xB0	; 176
    17f6:	88 83       	st	Y, r24

				if(EepCnt < 35) {EepCnt++;}			// EEPROM └·└х╚╜╝І ░б 0 ~ 34(35░│)║╕┤┘ └█└╕╕щ └·└х╚╜╝І ┴є░б
    17f8:	80 91 7f 52 	lds	r24, 0x527F	; 0x80527f <EepCnt>
    17fc:	90 91 80 52 	lds	r25, 0x5280	; 0x805280 <EepCnt+0x1>
    1800:	83 32       	cpi	r24, 0x23	; 35
    1802:	91 05       	cpc	r25, r1
    1804:	30 f4       	brcc	.+12     	; 0x1812 <Check_Value+0x176>
    1806:	01 96       	adiw	r24, 0x01	; 1
    1808:	80 93 7f 52 	sts	0x527F, r24	; 0x80527f <EepCnt>
    180c:	90 93 80 52 	sts	0x5280, r25	; 0x805280 <EepCnt+0x1>
    1810:	04 c0       	rjmp	.+8      	; 0x181a <Check_Value+0x17e>
				else		{EepCnt = 0;}			// ╛╞┤╧╕щ EEPROM └·└х╚╜╝І ├╩▒т╚н
    1812:	10 92 7f 52 	sts	0x527F, r1	; 0x80527f <EepCnt>
    1816:	10 92 80 52 	sts	0x5280, r1	; 0x805280 <EepCnt+0x1>
//-------------------------------------------------------------------------------------------------
				ee_write_byte(MEASURE_AUTO   + (MEASURE_LENGTH * EepCnt), Auto_Mode);
    181a:	20 91 7f 52 	lds	r18, 0x527F	; 0x80527f <EepCnt>
    181e:	30 91 80 52 	lds	r19, 0x5280	; 0x805280 <EepCnt+0x1>
    1822:	cd e0       	ldi	r28, 0x0D	; 13
    1824:	c2 9f       	mul	r28, r18
    1826:	c0 01       	movw	r24, r0
    1828:	c3 9f       	mul	r28, r19
    182a:	90 0d       	add	r25, r0
    182c:	11 24       	eor	r1, r1
    182e:	60 91 8e 52 	lds	r22, 0x528E	; 0x80528e <Auto_Mode>
    1832:	43 96       	adiw	r24, 0x13	; 19
    1834:	0e 94 dd 14 	call	0x29ba	; 0x29ba <ee_write_byte>
				ee_write_word(MEASURE_COUNT  + (MEASURE_LENGTH * EepCnt), Data_Number);
    1838:	60 91 88 52 	lds	r22, 0x5288	; 0x805288 <Data_Number>
    183c:	70 91 89 52 	lds	r23, 0x5289	; 0x805289 <Data_Number+0x1>
    1840:	20 91 7f 52 	lds	r18, 0x527F	; 0x80527f <EepCnt>
    1844:	30 91 80 52 	lds	r19, 0x5280	; 0x805280 <EepCnt+0x1>
    1848:	c2 9f       	mul	r28, r18
    184a:	c0 01       	movw	r24, r0
    184c:	c3 9f       	mul	r28, r19
    184e:	90 0d       	add	r25, r0
    1850:	11 24       	eor	r1, r1
    1852:	44 96       	adiw	r24, 0x14	; 20
    1854:	0e 94 01 15 	call	0x2a02	; 0x2a02 <ee_write_word>
				ee_write_word(MEASURE_WEIGHT + (MEASURE_LENGTH * EepCnt), CELL.Value = CELL.Old_Value);
    1858:	0c e1       	ldi	r16, 0x1C	; 28
    185a:	11 e5       	ldi	r17, 0x51	; 81
    185c:	f8 01       	movw	r30, r16
    185e:	61 85       	ldd	r22, Z+9	; 0x09
    1860:	72 85       	ldd	r23, Z+10	; 0x0a
    1862:	83 85       	ldd	r24, Z+11	; 0x0b
    1864:	94 85       	ldd	r25, Z+12	; 0x0c
    1866:	61 83       	std	Z+1, r22	; 0x01
    1868:	72 83       	std	Z+2, r23	; 0x02
    186a:	83 83       	std	Z+3, r24	; 0x03
    186c:	94 83       	std	Z+4, r25	; 0x04
    186e:	40 91 7f 52 	lds	r20, 0x527F	; 0x80527f <EepCnt>
    1872:	50 91 80 52 	lds	r21, 0x5280	; 0x805280 <EepCnt+0x1>
    1876:	c4 9f       	mul	r28, r20
    1878:	90 01       	movw	r18, r0
    187a:	c5 9f       	mul	r28, r21
    187c:	30 0d       	add	r19, r0
    187e:	11 24       	eor	r1, r1
    1880:	c9 01       	movw	r24, r18
    1882:	48 96       	adiw	r24, 0x18	; 24
    1884:	0e 94 01 15 	call	0x2a02	; 0x2a02 <ee_write_word>
				ee_write_byte(ROOM_NUMBER    + (MEASURE_LENGTH * EepCnt), Room_Number);
    1888:	20 91 7f 52 	lds	r18, 0x527F	; 0x80527f <EepCnt>
    188c:	30 91 80 52 	lds	r19, 0x5280	; 0x805280 <EepCnt+0x1>
    1890:	c2 9f       	mul	r28, r18
    1892:	c0 01       	movw	r24, r0
    1894:	c3 9f       	mul	r28, r19
    1896:	90 0d       	add	r25, r0
    1898:	11 24       	eor	r1, r1
    189a:	60 91 8c 52 	lds	r22, 0x528C	; 0x80528c <Room_Number>
    189e:	46 96       	adiw	r24, 0x16	; 22
    18a0:	0e 94 dd 14 	call	0x29ba	; 0x29ba <ee_write_byte>
				ee_write_byte(STALL_NUMBER   + (MEASURE_LENGTH * EepCnt), Stal_Number);
    18a4:	20 91 7f 52 	lds	r18, 0x527F	; 0x80527f <EepCnt>
    18a8:	30 91 80 52 	lds	r19, 0x5280	; 0x805280 <EepCnt+0x1>
    18ac:	c2 9f       	mul	r28, r18
    18ae:	c0 01       	movw	r24, r0
    18b0:	c3 9f       	mul	r28, r19
    18b2:	90 0d       	add	r25, r0
    18b4:	11 24       	eor	r1, r1
    18b6:	60 91 86 52 	lds	r22, 0x5286	; 0x805286 <Stal_Number>
    18ba:	47 96       	adiw	r24, 0x17	; 23
    18bc:	0e 94 dd 14 	call	0x29ba	; 0x29ba <ee_write_byte>
				ee_write_byte(MEASURE_YEAR   + (MEASURE_LENGTH * EepCnt), RTC_Single_Read(RTC_YEAR));
    18c0:	86 e0       	ldi	r24, 0x06	; 6
    18c2:	0e 94 d5 2a 	call	0x55aa	; 0x55aa <RTC_Single_Read>
    18c6:	40 91 7f 52 	lds	r20, 0x527F	; 0x80527f <EepCnt>
    18ca:	50 91 80 52 	lds	r21, 0x5280	; 0x805280 <EepCnt+0x1>
    18ce:	c4 9f       	mul	r28, r20
    18d0:	90 01       	movw	r18, r0
    18d2:	c5 9f       	mul	r28, r21
    18d4:	30 0d       	add	r19, r0
    18d6:	11 24       	eor	r1, r1
    18d8:	68 2f       	mov	r22, r24
    18da:	c9 01       	movw	r24, r18
    18dc:	4a 96       	adiw	r24, 0x1a	; 26
    18de:	0e 94 dd 14 	call	0x29ba	; 0x29ba <ee_write_byte>
				ee_write_byte(MEASURE_MONTH  + (MEASURE_LENGTH * EepCnt), RTC_Single_Read(RTC_MONTH));
    18e2:	85 e0       	ldi	r24, 0x05	; 5
    18e4:	0e 94 d5 2a 	call	0x55aa	; 0x55aa <RTC_Single_Read>
    18e8:	40 91 7f 52 	lds	r20, 0x527F	; 0x80527f <EepCnt>
    18ec:	50 91 80 52 	lds	r21, 0x5280	; 0x805280 <EepCnt+0x1>
    18f0:	c4 9f       	mul	r28, r20
    18f2:	90 01       	movw	r18, r0
    18f4:	c5 9f       	mul	r28, r21
    18f6:	30 0d       	add	r19, r0
    18f8:	11 24       	eor	r1, r1
    18fa:	68 2f       	mov	r22, r24
    18fc:	c9 01       	movw	r24, r18
    18fe:	4b 96       	adiw	r24, 0x1b	; 27
    1900:	0e 94 dd 14 	call	0x29ba	; 0x29ba <ee_write_byte>
				ee_write_byte(MEASURE_DATE   + (MEASURE_LENGTH * EepCnt), RTC_Single_Read(RTC_DATE));
    1904:	84 e0       	ldi	r24, 0x04	; 4
    1906:	0e 94 d5 2a 	call	0x55aa	; 0x55aa <RTC_Single_Read>
    190a:	40 91 7f 52 	lds	r20, 0x527F	; 0x80527f <EepCnt>
    190e:	50 91 80 52 	lds	r21, 0x5280	; 0x805280 <EepCnt+0x1>
    1912:	c4 9f       	mul	r28, r20
    1914:	90 01       	movw	r18, r0
    1916:	c5 9f       	mul	r28, r21
    1918:	30 0d       	add	r19, r0
    191a:	11 24       	eor	r1, r1
    191c:	68 2f       	mov	r22, r24
    191e:	c9 01       	movw	r24, r18
    1920:	4c 96       	adiw	r24, 0x1c	; 28
    1922:	0e 94 dd 14 	call	0x29ba	; 0x29ba <ee_write_byte>
				ee_write_byte(MEASURE_HOUR   + (MEASURE_LENGTH * EepCnt), RTC_Single_Read(RTC_HOUR));
    1926:	82 e0       	ldi	r24, 0x02	; 2
    1928:	0e 94 d5 2a 	call	0x55aa	; 0x55aa <RTC_Single_Read>
    192c:	40 91 7f 52 	lds	r20, 0x527F	; 0x80527f <EepCnt>
    1930:	50 91 80 52 	lds	r21, 0x5280	; 0x805280 <EepCnt+0x1>
    1934:	c4 9f       	mul	r28, r20
    1936:	90 01       	movw	r18, r0
    1938:	c5 9f       	mul	r28, r21
    193a:	30 0d       	add	r19, r0
    193c:	11 24       	eor	r1, r1
    193e:	68 2f       	mov	r22, r24
    1940:	c9 01       	movw	r24, r18
    1942:	4d 96       	adiw	r24, 0x1d	; 29
    1944:	0e 94 dd 14 	call	0x29ba	; 0x29ba <ee_write_byte>
				ee_write_byte(MEASURE_MIN    + (MEASURE_LENGTH * EepCnt), RTC_Single_Read(RTC_MINUTE));
    1948:	81 e0       	ldi	r24, 0x01	; 1
    194a:	0e 94 d5 2a 	call	0x55aa	; 0x55aa <RTC_Single_Read>
    194e:	40 91 7f 52 	lds	r20, 0x527F	; 0x80527f <EepCnt>
    1952:	50 91 80 52 	lds	r21, 0x5280	; 0x805280 <EepCnt+0x1>
    1956:	c4 9f       	mul	r28, r20
    1958:	90 01       	movw	r18, r0
    195a:	c5 9f       	mul	r28, r21
    195c:	30 0d       	add	r19, r0
    195e:	11 24       	eor	r1, r1
    1960:	68 2f       	mov	r22, r24
    1962:	c9 01       	movw	r24, r18
    1964:	4e 96       	adiw	r24, 0x1e	; 30
    1966:	0e 94 dd 14 	call	0x29ba	; 0x29ba <ee_write_byte>
				ee_write_byte(MEASURE_SEC    + (MEASURE_LENGTH * EepCnt), RTC_Single_Read(RTC_SECOND));
    196a:	80 e0       	ldi	r24, 0x00	; 0
    196c:	0e 94 d5 2a 	call	0x55aa	; 0x55aa <RTC_Single_Read>
    1970:	40 91 7f 52 	lds	r20, 0x527F	; 0x80527f <EepCnt>
    1974:	50 91 80 52 	lds	r21, 0x5280	; 0x805280 <EepCnt+0x1>
    1978:	c4 9f       	mul	r28, r20
    197a:	90 01       	movw	r18, r0
    197c:	c5 9f       	mul	r28, r21
    197e:	30 0d       	add	r19, r0
    1980:	11 24       	eor	r1, r1
    1982:	68 2f       	mov	r22, r24
    1984:	c9 01       	movw	r24, r18
    1986:	4f 96       	adiw	r24, 0x1f	; 31
    1988:	0e 94 dd 14 	call	0x29ba	; 0x29ba <ee_write_byte>
				ee_write_word(Data_Count_Addr, EepCnt);
    198c:	60 91 7f 52 	lds	r22, 0x527F	; 0x80527f <EepCnt>
    1990:	70 91 80 52 	lds	r23, 0x5280	; 0x805280 <EepCnt+0x1>
    1994:	80 e1       	ldi	r24, 0x10	; 16
    1996:	90 e0       	ldi	r25, 0x00	; 0
    1998:	0e 94 01 15 	call	0x2a02	; 0x2a02 <ee_write_word>

//-------------------------------------------------------------------------------------------------
				CELL.Zero_Buff = 1;
    199c:	81 e0       	ldi	r24, 0x01	; 1
    199e:	f8 01       	movw	r30, r16
    19a0:	80 83       	st	Z, r24
				SET.Save = 0;
    19a2:	10 92 12 51 	sts	0x5112, r1	; 0x805112 <SET+0x4>
				Alarm();
    19a6:	0e 94 db 08 	call	0x11b6	; 0x11b6 <Alarm>
				printf("Value %ld, %d, %d \r\n", CELL.Old_Value, OK_Count_1, OK_Count_2);
    19aa:	f8 01       	movw	r30, r16
    19ac:	81 85       	ldd	r24, Z+9	; 0x09
    19ae:	92 85       	ldd	r25, Z+10	; 0x0a
    19b0:	a3 85       	ldd	r26, Z+11	; 0x0b
    19b2:	b4 85       	ldd	r27, Z+12	; 0x0c
    19b4:	20 91 8d 52 	lds	r18, 0x528D	; 0x80528d <OK_Count_2>
    19b8:	1f 92       	push	r1
    19ba:	2f 93       	push	r18
    19bc:	20 91 87 52 	lds	r18, 0x5287	; 0x805287 <OK_Count_1>
    19c0:	1f 92       	push	r1
    19c2:	2f 93       	push	r18
    19c4:	bf 93       	push	r27
    19c6:	af 93       	push	r26
    19c8:	9f 93       	push	r25
    19ca:	8f 93       	push	r24
    19cc:	88 e4       	ldi	r24, 0x48	; 72
    19ce:	90 e4       	ldi	r25, 0x40	; 64
    19d0:	9f 93       	push	r25
    19d2:	8f 93       	push	r24
    19d4:	0e 94 ad 3f 	call	0x7f5a	; 0x7f5a <printf>
				Cell_Desplay();					// ╖╬╡х╝┐ ╣л░╘ ╟е╜├
    19d8:	0e 94 1b 19 	call	0x3236	; 0x3236 <Cell_Desplay>
    19dc:	8d b7       	in	r24, 0x3d	; 61
    19de:	9e b7       	in	r25, 0x3e	; 62
    19e0:	0a 96       	adiw	r24, 0x0a	; 10
    19e2:	8d bf       	out	0x3d, r24	; 61
    19e4:	9e bf       	out	0x3e, r25	; 62
			}
			Stal_Desplay();						// ╜║┼ч ╣Ї╚г ╟е╜├
    19e6:	0e 94 16 0b 	call	0x162c	; 0x162c <Stal_Desplay>
    19ea:	16 c1       	rjmp	.+556    	; 0x1c18 <Check_Value+0x57c>
		}
//-------------------------------------------------------------------------------------------------
		else if((CELL.Old_Value <= Value + Admit_Weight) && (CELL.Old_Value >= Value - Admit_Weight))
    19ec:	80 90 25 51 	lds	r8, 0x5125	; 0x805125 <CELL+0x9>
    19f0:	90 90 26 51 	lds	r9, 0x5126	; 0x805126 <CELL+0xa>
    19f4:	a0 90 27 51 	lds	r10, 0x5127	; 0x805127 <CELL+0xb>
    19f8:	b0 90 28 51 	lds	r11, 0x5128	; 0x805128 <CELL+0xc>
    19fc:	6a 01       	movw	r12, r20
    19fe:	7b 01       	movw	r14, r22
    1a00:	e5 e0       	ldi	r30, 0x05	; 5
    1a02:	ce 0e       	add	r12, r30
    1a04:	d1 1c       	adc	r13, r1
    1a06:	e1 1c       	adc	r14, r1
    1a08:	f1 1c       	adc	r15, r1
    1a0a:	c8 14       	cp	r12, r8
    1a0c:	d9 04       	cpc	r13, r9
    1a0e:	ea 04       	cpc	r14, r10
    1a10:	fb 04       	cpc	r15, r11
    1a12:	08 f4       	brcc	.+2      	; 0x1a16 <Check_Value+0x37a>
    1a14:	45 c0       	rjmp	.+138    	; 0x1aa0 <Check_Value+0x404>
    1a16:	80 90 25 51 	lds	r8, 0x5125	; 0x805125 <CELL+0x9>
    1a1a:	90 90 26 51 	lds	r9, 0x5126	; 0x805126 <CELL+0xa>
    1a1e:	a0 90 27 51 	lds	r10, 0x5127	; 0x805127 <CELL+0xb>
    1a22:	b0 90 28 51 	lds	r11, 0x5128	; 0x805128 <CELL+0xc>
    1a26:	6a 01       	movw	r12, r20
    1a28:	7b 01       	movw	r14, r22
    1a2a:	f5 e0       	ldi	r31, 0x05	; 5
    1a2c:	cf 1a       	sub	r12, r31
    1a2e:	d1 08       	sbc	r13, r1
    1a30:	e1 08       	sbc	r14, r1
    1a32:	f1 08       	sbc	r15, r1
    1a34:	8c 14       	cp	r8, r12
    1a36:	9d 04       	cpc	r9, r13
    1a38:	ae 04       	cpc	r10, r14
    1a3a:	bf 04       	cpc	r11, r15
    1a3c:	88 f1       	brcs	.+98     	; 0x1aa0 <Check_Value+0x404>
		{								// └╠└№├╝┴▀└╠ ├Ї┴д├╝┴▀░· └╬┴є├╝┴▀(5x10g)└╗ ┤є╟╤░к░· ░░░┼│к └█░э └╬┴є├╝┴▀(5x10g)└╗ ╗л░к░· ░░░┼│к ┼й╕щ
			if(SET.Save || Auto_Mode)				// └┌╡┐ ╕Ё╡х└╧╢з ├Ї┴д├╝┴▀ ║п╚н░б └█└╕╕щ
    1a3e:	80 91 12 51 	lds	r24, 0x5112	; 0x805112 <SET+0x4>
    1a42:	81 11       	cpse	r24, r1
    1a44:	04 c0       	rjmp	.+8      	; 0x1a4e <Check_Value+0x3b2>
    1a46:	80 91 8e 52 	lds	r24, 0x528E	; 0x80528e <Auto_Mode>
    1a4a:	88 23       	and	r24, r24
    1a4c:	31 f0       	breq	.+12     	; 0x1a5a <Check_Value+0x3be>
			{
				OK_Count_1 += 1;				// OK Count_1 1 ┴є░б
    1a4e:	2f 5f       	subi	r18, 0xFF	; 255
    1a50:	20 93 87 52 	sts	0x5287, r18	; 0x805287 <OK_Count_1>
				OK_Count_2 += 3;				// OK Count_2 3 ┴є░б
    1a54:	3d 5f       	subi	r19, 0xFD	; 253
    1a56:	30 93 8d 52 	sts	0x528D, r19	; 0x80528d <OK_Count_2>
			}
			CELL.Old_Value = (CELL.Old_Value + Value)/2;		// └╠└№├╝┴▀┐б ├Ї┴д├╝┴▀ └·└х
    1a5a:	ec e1       	ldi	r30, 0x1C	; 28
    1a5c:	f1 e5       	ldi	r31, 0x51	; 81
    1a5e:	81 85       	ldd	r24, Z+9	; 0x09
    1a60:	92 85       	ldd	r25, Z+10	; 0x0a
    1a62:	a3 85       	ldd	r26, Z+11	; 0x0b
    1a64:	b4 85       	ldd	r27, Z+12	; 0x0c
    1a66:	48 0f       	add	r20, r24
    1a68:	59 1f       	adc	r21, r25
    1a6a:	6a 1f       	adc	r22, r26
    1a6c:	7b 1f       	adc	r23, r27
    1a6e:	76 95       	lsr	r23
    1a70:	67 95       	ror	r22
    1a72:	57 95       	ror	r21
    1a74:	47 95       	ror	r20
    1a76:	41 87       	std	Z+9, r20	; 0x09
    1a78:	52 87       	std	Z+10, r21	; 0x0a
    1a7a:	63 87       	std	Z+11, r22	; 0x0b
    1a7c:	74 87       	std	Z+12, r23	; 0x0c
			CELL.Value = CELL.Old_Value;				// └╠└№├╝┴▀└╗ ╣л░╘╟е╜├ ├╝┴▀ ┐б └·└х
    1a7e:	81 85       	ldd	r24, Z+9	; 0x09
    1a80:	92 85       	ldd	r25, Z+10	; 0x0a
    1a82:	a3 85       	ldd	r26, Z+11	; 0x0b
    1a84:	b4 85       	ldd	r27, Z+12	; 0x0c
    1a86:	81 83       	std	Z+1, r24	; 0x01
    1a88:	92 83       	std	Z+2, r25	; 0x02
    1a8a:	a3 83       	std	Z+3, r26	; 0x03
    1a8c:	b4 83       	std	Z+4, r27	; 0x04
			CELL.Over_Value = CELL.Old_Value;			// ├Ї┴д├╝┴▀└╗ ┤┘└╜ ║ё▒│ ├╝┴▀░к┐б └·└х
    1a8e:	81 85       	ldd	r24, Z+9	; 0x09
    1a90:	92 85       	ldd	r25, Z+10	; 0x0a
    1a92:	a3 85       	ldd	r26, Z+11	; 0x0b
    1a94:	b4 85       	ldd	r27, Z+12	; 0x0c
    1a96:	85 87       	std	Z+13, r24	; 0x0d
    1a98:	96 87       	std	Z+14, r25	; 0x0e
    1a9a:	a7 87       	std	Z+15, r26	; 0x0f
    1a9c:	b0 8b       	std	Z+16, r27	; 0x10
    1a9e:	bc c0       	rjmp	.+376    	; 0x1c18 <Check_Value+0x57c>
		}
 		else if((CELL.Over_Value <= Value + (Admit_Weight * 5)) && (CELL.Over_Value >= Value - (Admit_Weight * 5)))
    1aa0:	80 90 29 51 	lds	r8, 0x5129	; 0x805129 <CELL+0xd>
    1aa4:	90 90 2a 51 	lds	r9, 0x512A	; 0x80512a <CELL+0xe>
    1aa8:	a0 90 2b 51 	lds	r10, 0x512B	; 0x80512b <CELL+0xf>
    1aac:	b0 90 2c 51 	lds	r11, 0x512C	; 0x80512c <CELL+0x10>
    1ab0:	6a 01       	movw	r12, r20
    1ab2:	7b 01       	movw	r14, r22
    1ab4:	29 e1       	ldi	r18, 0x19	; 25
    1ab6:	c2 0e       	add	r12, r18
    1ab8:	d1 1c       	adc	r13, r1
    1aba:	e1 1c       	adc	r14, r1
    1abc:	f1 1c       	adc	r15, r1
    1abe:	c8 14       	cp	r12, r8
    1ac0:	d9 04       	cpc	r13, r9
    1ac2:	ea 04       	cpc	r14, r10
    1ac4:	fb 04       	cpc	r15, r11
    1ac6:	08 f4       	brcc	.+2      	; 0x1aca <Check_Value+0x42e>
    1ac8:	42 c0       	rjmp	.+132    	; 0x1b4e <Check_Value+0x4b2>
    1aca:	80 90 29 51 	lds	r8, 0x5129	; 0x805129 <CELL+0xd>
    1ace:	90 90 2a 51 	lds	r9, 0x512A	; 0x80512a <CELL+0xe>
    1ad2:	a0 90 2b 51 	lds	r10, 0x512B	; 0x80512b <CELL+0xf>
    1ad6:	b0 90 2c 51 	lds	r11, 0x512C	; 0x80512c <CELL+0x10>
    1ada:	6a 01       	movw	r12, r20
    1adc:	7b 01       	movw	r14, r22
    1ade:	e9 e1       	ldi	r30, 0x19	; 25
    1ae0:	ce 1a       	sub	r12, r30
    1ae2:	d1 08       	sbc	r13, r1
    1ae4:	e1 08       	sbc	r14, r1
    1ae6:	f1 08       	sbc	r15, r1
    1ae8:	8c 14       	cp	r8, r12
    1aea:	9d 04       	cpc	r9, r13
    1aec:	ae 04       	cpc	r10, r14
    1aee:	bf 04       	cpc	r11, r15
    1af0:	70 f1       	brcs	.+92     	; 0x1b4e <Check_Value+0x4b2>
		{								// └╠└№├╝┴▀└╠ ├Ї┴д├╝┴▀░· └╬┴є├╝┴▀((5x5)x10g)└╗ ┤є╟╤░к░· ░░░┼│к └█░э └╬┴є├╝┴▀└╗ ╗л░к░· ░░░┼│к ┼й╕щ
			if(SET.Save || Auto_Mode) {OK_Count_2 += 2;}		// └┌╡┐ ╕Ё╡х└╧╢з ├Ї┴д├╝┴▀ OK Count 2 = 2 ┴є░б
    1af2:	80 91 12 51 	lds	r24, 0x5112	; 0x805112 <SET+0x4>
    1af6:	81 11       	cpse	r24, r1
    1af8:	04 c0       	rjmp	.+8      	; 0x1b02 <Check_Value+0x466>
    1afa:	80 91 8e 52 	lds	r24, 0x528E	; 0x80528e <Auto_Mode>
    1afe:	88 23       	and	r24, r24
    1b00:	19 f0       	breq	.+6      	; 0x1b08 <Check_Value+0x46c>
    1b02:	3e 5f       	subi	r19, 0xFE	; 254
    1b04:	30 93 8d 52 	sts	0x528D, r19	; 0x80528d <OK_Count_2>
			CELL.Old_Value = (CELL.Over_Value + Value)/2;		// └╠└№├╝┴▀┐б ├Ї┴д├╝┴▀ └·└х
    1b08:	ec e1       	ldi	r30, 0x1C	; 28
    1b0a:	f1 e5       	ldi	r31, 0x51	; 81
    1b0c:	85 85       	ldd	r24, Z+13	; 0x0d
    1b0e:	96 85       	ldd	r25, Z+14	; 0x0e
    1b10:	a7 85       	ldd	r26, Z+15	; 0x0f
    1b12:	b0 89       	ldd	r27, Z+16	; 0x10
    1b14:	48 0f       	add	r20, r24
    1b16:	59 1f       	adc	r21, r25
    1b18:	6a 1f       	adc	r22, r26
    1b1a:	7b 1f       	adc	r23, r27
    1b1c:	76 95       	lsr	r23
    1b1e:	67 95       	ror	r22
    1b20:	57 95       	ror	r21
    1b22:	47 95       	ror	r20
    1b24:	41 87       	std	Z+9, r20	; 0x09
    1b26:	52 87       	std	Z+10, r21	; 0x0a
    1b28:	63 87       	std	Z+11, r22	; 0x0b
    1b2a:	74 87       	std	Z+12, r23	; 0x0c
			CELL.Value = CELL.Old_Value;				// └╠└№├╝┴▀└╗ ╣л░╘╟е╜├ ├╝┴▀ ┐б └·└х
    1b2c:	81 85       	ldd	r24, Z+9	; 0x09
    1b2e:	92 85       	ldd	r25, Z+10	; 0x0a
    1b30:	a3 85       	ldd	r26, Z+11	; 0x0b
    1b32:	b4 85       	ldd	r27, Z+12	; 0x0c
    1b34:	81 83       	std	Z+1, r24	; 0x01
    1b36:	92 83       	std	Z+2, r25	; 0x02
    1b38:	a3 83       	std	Z+3, r26	; 0x03
    1b3a:	b4 83       	std	Z+4, r27	; 0x04
			CELL.Over_Value = CELL.Old_Value;			// ├Ї┴д├╝┴▀└╗ ┤┘└╜ ║ё▒│ ├╝┴▀░к┐б └·└х
    1b3c:	81 85       	ldd	r24, Z+9	; 0x09
    1b3e:	92 85       	ldd	r25, Z+10	; 0x0a
    1b40:	a3 85       	ldd	r26, Z+11	; 0x0b
    1b42:	b4 85       	ldd	r27, Z+12	; 0x0c
    1b44:	85 87       	std	Z+13, r24	; 0x0d
    1b46:	96 87       	std	Z+14, r25	; 0x0e
    1b48:	a7 87       	std	Z+15, r26	; 0x0f
    1b4a:	b0 8b       	std	Z+16, r27	; 0x10
    1b4c:	65 c0       	rjmp	.+202    	; 0x1c18 <Check_Value+0x57c>
		}
		else if((CELL.Over_Value <= Value + (Admit_Weight * 10)) && (CELL.Over_Value >= Value - (Admit_Weight * 10)))
    1b4e:	80 90 29 51 	lds	r8, 0x5129	; 0x805129 <CELL+0xd>
    1b52:	90 90 2a 51 	lds	r9, 0x512A	; 0x80512a <CELL+0xe>
    1b56:	a0 90 2b 51 	lds	r10, 0x512B	; 0x80512b <CELL+0xf>
    1b5a:	b0 90 2c 51 	lds	r11, 0x512C	; 0x80512c <CELL+0x10>
    1b5e:	6a 01       	movw	r12, r20
    1b60:	7b 01       	movw	r14, r22
    1b62:	f2 e3       	ldi	r31, 0x32	; 50
    1b64:	cf 0e       	add	r12, r31
    1b66:	d1 1c       	adc	r13, r1
    1b68:	e1 1c       	adc	r14, r1
    1b6a:	f1 1c       	adc	r15, r1
    1b6c:	c8 14       	cp	r12, r8
    1b6e:	d9 04       	cpc	r13, r9
    1b70:	ea 04       	cpc	r14, r10
    1b72:	fb 04       	cpc	r15, r11
    1b74:	08 f4       	brcc	.+2      	; 0x1b78 <Check_Value+0x4dc>
    1b76:	42 c0       	rjmp	.+132    	; 0x1bfc <Check_Value+0x560>
    1b78:	80 90 29 51 	lds	r8, 0x5129	; 0x805129 <CELL+0xd>
    1b7c:	90 90 2a 51 	lds	r9, 0x512A	; 0x80512a <CELL+0xe>
    1b80:	a0 90 2b 51 	lds	r10, 0x512B	; 0x80512b <CELL+0xf>
    1b84:	b0 90 2c 51 	lds	r11, 0x512C	; 0x80512c <CELL+0x10>
    1b88:	6a 01       	movw	r12, r20
    1b8a:	7b 01       	movw	r14, r22
    1b8c:	22 e3       	ldi	r18, 0x32	; 50
    1b8e:	c2 1a       	sub	r12, r18
    1b90:	d1 08       	sbc	r13, r1
    1b92:	e1 08       	sbc	r14, r1
    1b94:	f1 08       	sbc	r15, r1
    1b96:	8c 14       	cp	r8, r12
    1b98:	9d 04       	cpc	r9, r13
    1b9a:	ae 04       	cpc	r10, r14
    1b9c:	bf 04       	cpc	r11, r15
    1b9e:	70 f1       	brcs	.+92     	; 0x1bfc <Check_Value+0x560>
		{								// └╠└№├╝┴▀└╠ ├Ї┴д├╝┴▀░· └╬┴є├╝┴▀((5x10)x10g)└╗ ┤є╟╤░к░· ░░░┼│к └█░э └╬┴є├╝┴▀└╗ ╗л░к░· ░░░┼│к ┼й╕щ
			if(SET.Save || Auto_Mode) {OK_Count_2 += 1;}		// └┌╡┐ ╕Ё╡х└╧╢з ├Ї┴д├╝┴▀ OK Count 2 ┴є░б
    1ba0:	80 91 12 51 	lds	r24, 0x5112	; 0x805112 <SET+0x4>
    1ba4:	81 11       	cpse	r24, r1
    1ba6:	04 c0       	rjmp	.+8      	; 0x1bb0 <Check_Value+0x514>
    1ba8:	80 91 8e 52 	lds	r24, 0x528E	; 0x80528e <Auto_Mode>
    1bac:	88 23       	and	r24, r24
    1bae:	19 f0       	breq	.+6      	; 0x1bb6 <Check_Value+0x51a>
    1bb0:	3f 5f       	subi	r19, 0xFF	; 255
    1bb2:	30 93 8d 52 	sts	0x528D, r19	; 0x80528d <OK_Count_2>
			CELL.Old_Value = (CELL.Over_Value + Value)/2;		// └╠└№├╝┴▀┐б ├Ї┴д├╝┴▀ └·└х
    1bb6:	ec e1       	ldi	r30, 0x1C	; 28
    1bb8:	f1 e5       	ldi	r31, 0x51	; 81
    1bba:	85 85       	ldd	r24, Z+13	; 0x0d
    1bbc:	96 85       	ldd	r25, Z+14	; 0x0e
    1bbe:	a7 85       	ldd	r26, Z+15	; 0x0f
    1bc0:	b0 89       	ldd	r27, Z+16	; 0x10
    1bc2:	48 0f       	add	r20, r24
    1bc4:	59 1f       	adc	r21, r25
    1bc6:	6a 1f       	adc	r22, r26
    1bc8:	7b 1f       	adc	r23, r27
    1bca:	76 95       	lsr	r23
    1bcc:	67 95       	ror	r22
    1bce:	57 95       	ror	r21
    1bd0:	47 95       	ror	r20
    1bd2:	41 87       	std	Z+9, r20	; 0x09
    1bd4:	52 87       	std	Z+10, r21	; 0x0a
    1bd6:	63 87       	std	Z+11, r22	; 0x0b
    1bd8:	74 87       	std	Z+12, r23	; 0x0c
			CELL.Value = CELL.Old_Value;				// └╠└№├╝┴▀└╗ ╣л░╘╟е╜├ ├╝┴▀ ┐б └·└х
    1bda:	81 85       	ldd	r24, Z+9	; 0x09
    1bdc:	92 85       	ldd	r25, Z+10	; 0x0a
    1bde:	a3 85       	ldd	r26, Z+11	; 0x0b
    1be0:	b4 85       	ldd	r27, Z+12	; 0x0c
    1be2:	81 83       	std	Z+1, r24	; 0x01
    1be4:	92 83       	std	Z+2, r25	; 0x02
    1be6:	a3 83       	std	Z+3, r26	; 0x03
    1be8:	b4 83       	std	Z+4, r27	; 0x04
			CELL.Over_Value = CELL.Old_Value;			// ├Ї┴д├╝┴▀└╗ ┤┘└╜ ║ё▒│ ├╝┴▀░к┐б └·└х
    1bea:	81 85       	ldd	r24, Z+9	; 0x09
    1bec:	92 85       	ldd	r25, Z+10	; 0x0a
    1bee:	a3 85       	ldd	r26, Z+11	; 0x0b
    1bf0:	b4 85       	ldd	r27, Z+12	; 0x0c
    1bf2:	85 87       	std	Z+13, r24	; 0x0d
    1bf4:	96 87       	std	Z+14, r25	; 0x0e
    1bf6:	a7 87       	std	Z+15, r26	; 0x0f
    1bf8:	b0 8b       	std	Z+16, r27	; 0x10
    1bfa:	0e c0       	rjmp	.+28     	; 0x1c18 <Check_Value+0x57c>
		}
		else
		{
			CELL.Value = CELL.Over_Value = Value;			// ├Ї┴д├╝┴▀└╗ ┤┘└╜ ║ё▒│ ├╝┴▀░к┐б └·└х
    1bfc:	a0 e0       	ldi	r26, 0x00	; 0
    1bfe:	b0 e0       	ldi	r27, 0x00	; 0
    1c00:	ec e1       	ldi	r30, 0x1C	; 28
    1c02:	f1 e5       	ldi	r31, 0x51	; 81
    1c04:	85 87       	std	Z+13, r24	; 0x0d
    1c06:	96 87       	std	Z+14, r25	; 0x0e
    1c08:	a7 87       	std	Z+15, r26	; 0x0f
    1c0a:	b0 8b       	std	Z+16, r27	; 0x10
    1c0c:	81 83       	std	Z+1, r24	; 0x01
    1c0e:	92 83       	std	Z+2, r25	; 0x02
    1c10:	a3 83       	std	Z+3, r26	; 0x03
    1c12:	b4 83       	std	Z+4, r27	; 0x04
			OK_Count_1 = 0;						// ├╝┴▀ ║п╚н░б ┼й╕щ OK_Count 1 ├╩▒т╚н
    1c14:	10 92 87 52 	sts	0x5287, r1	; 0x805287 <OK_Count_1>
		}
		Room_Desplay();							// ╣ц ╣Ї╚г ╟е╜├
    1c18:	0e 94 de 0a 	call	0x15bc	; 0x15bc <Room_Desplay>
		Zero_Count = 0;
    1c1c:	10 92 8b 52 	sts	0x528B, r1	; 0x80528b <Zero_Count>
		if(!CELL.Zero_Buff) {Cell_Desplay();}				// ╖╬╡х╝┐ ╣л░╘ ╟е╜├
    1c20:	80 91 1c 51 	lds	r24, 0x511C	; 0x80511c <CELL>
    1c24:	81 11       	cpse	r24, r1
    1c26:	29 c0       	rjmp	.+82     	; 0x1c7a <Check_Value+0x5de>
    1c28:	0e 94 1b 19 	call	0x3236	; 0x3236 <Cell_Desplay>
    1c2c:	26 c0       	rjmp	.+76     	; 0x1c7a <Check_Value+0x5de>
	}
	else									// ├Ї┴д├╝┴▀└╠ ╛Ї╕щ
	{
		Zero_Count++;							// Zero_Count ┴є░б
    1c2e:	80 91 8b 52 	lds	r24, 0x528B	; 0x80528b <Zero_Count>
    1c32:	8f 5f       	subi	r24, 0xFF	; 255
    1c34:	80 93 8b 52 	sts	0x528B, r24	; 0x80528b <Zero_Count>
		if(Zero_Count > 5)						// Zero_Count └╠ 2║╕┤┘ ┼й╕щ
    1c38:	86 30       	cpi	r24, 0x06	; 6
    1c3a:	f8 f0       	brcs	.+62     	; 0x1c7a <Check_Value+0x5de>
		{
			CELL.Old_Value = 0;					// └╠└№├Ї┴д├╝┴▀ ├╩▒т╚н
    1c3c:	ec e1       	ldi	r30, 0x1C	; 28
    1c3e:	f1 e5       	ldi	r31, 0x51	; 81
    1c40:	11 86       	std	Z+9, r1	; 0x09
    1c42:	12 86       	std	Z+10, r1	; 0x0a
    1c44:	13 86       	std	Z+11, r1	; 0x0b
    1c46:	14 86       	std	Z+12, r1	; 0x0c
			CELL.Over_Value = 0;					// └╠└№├Ї┴д├╝┴▀ ├╩▒т╚н
    1c48:	15 86       	std	Z+13, r1	; 0x0d
    1c4a:	16 86       	std	Z+14, r1	; 0x0e
    1c4c:	17 86       	std	Z+15, r1	; 0x0f
    1c4e:	10 8a       	std	Z+16, r1	; 0x10
			CELL.Value = Value;
    1c50:	11 82       	std	Z+1, r1	; 0x01
    1c52:	12 82       	std	Z+2, r1	; 0x02
    1c54:	13 82       	std	Z+3, r1	; 0x03
    1c56:	14 82       	std	Z+4, r1	; 0x04
			CELL.Zero_Buff = 0;					// CELL.Zero_Buff ├╩▒т╚н
    1c58:	10 82       	st	Z, r1
			Zero_Count = 0;						// Zero_Count ├╩▒т╚н
    1c5a:	10 92 8b 52 	sts	0x528B, r1	; 0x80528b <Zero_Count>
			OK_Count_1 = 0;						// OK_Count 1 ├╩▒т╚н
    1c5e:	10 92 87 52 	sts	0x5287, r1	; 0x805287 <OK_Count_1>
			OK_Count_2 = 0;						// OK_Count 2 ├╩▒т╚н
    1c62:	10 92 8d 52 	sts	0x528D, r1	; 0x80528d <OK_Count_2>
			if(!SET.Save) {Stal_Desplay();}				// Save ╕Ё╡х░б ╛╞┤╧╕щ ╜║┼ч ╣Ї╚г ╟е╜├
    1c66:	80 91 12 51 	lds	r24, 0x5112	; 0x805112 <SET+0x4>
    1c6a:	81 11       	cpse	r24, r1
    1c6c:	02 c0       	rjmp	.+4      	; 0x1c72 <Check_Value+0x5d6>
    1c6e:	0e 94 16 0b 	call	0x162c	; 0x162c <Stal_Desplay>
			Room_Desplay();						// ╣ц ╣Ї╚г ╟е╜├
    1c72:	0e 94 de 0a 	call	0x15bc	; 0x15bc <Room_Desplay>
			Cell_Desplay();						// ├Ї┴д├╝┴▀ ╟е╜├
    1c76:	0e 94 1b 19 	call	0x3236	; 0x3236 <Cell_Desplay>
		}
	}
}
    1c7a:	df 91       	pop	r29
    1c7c:	cf 91       	pop	r28
    1c7e:	1f 91       	pop	r17
    1c80:	0f 91       	pop	r16
    1c82:	ff 90       	pop	r15
    1c84:	ef 90       	pop	r14
    1c86:	df 90       	pop	r13
    1c88:	cf 90       	pop	r12
    1c8a:	bf 90       	pop	r11
    1c8c:	af 90       	pop	r10
    1c8e:	9f 90       	pop	r9
    1c90:	8f 90       	pop	r8
    1c92:	08 95       	ret

00001c94 <Send_To_Server_0>:

//=================================================================================================
//		PC╖╬ ╡е└╠┼═ └№╝█ (20░│ ├Ї┴д├╝┴▀ Data)
//=================================================================================================
void Send_To_Server_0(void)							// PC╖╬ ╡е└╠┼═ └№╝█ (1╚╕ 1░│╛┐ └№╝█ : ├Ї┴д├╝┴▀ Data)
{
    1c94:	ef 92       	push	r14
    1c96:	ff 92       	push	r15
    1c98:	0f 93       	push	r16
    1c9a:	1f 93       	push	r17
    1c9c:	cf 93       	push	r28
    1c9e:	df 93       	push	r29
    1ca0:	cd b7       	in	r28, 0x3d	; 61
    1ca2:	de b7       	in	r29, 0x3e	; 62
    1ca4:	6e 97       	sbiw	r28, 0x1e	; 30
    1ca6:	cd bf       	out	0x3d, r28	; 61
    1ca8:	de bf       	out	0x3e, r29	; 62
	uint8_t cnt = 0;							// cnt ║п╝І ├╩▒т╚н
	uint8_t ChkSum = 0;							// ChkSum ║п╝І ├╩▒т╚н
	char SerialData[30] = {0};						// SerialData[30] ╣І╞█ ╝▒╛Ё
	static uint16_t CommCnt	= 0;

	memset(SerialData, 0x00, sizeof(SerialData));				// ╣І╞█ ├╩▒т╚н
    1caa:	fe 01       	movw	r30, r28
    1cac:	31 96       	adiw	r30, 0x01	; 1
    1cae:	8e e1       	ldi	r24, 0x1E	; 30
    1cb0:	df 01       	movw	r26, r30
    1cb2:	1d 92       	st	X+, r1
    1cb4:	8a 95       	dec	r24
    1cb6:	e9 f7       	brne	.-6      	; 0x1cb2 <Send_To_Server_0+0x1e>

	if(CommCnt < Data_Number) {CommCnt++;}
    1cb8:	80 91 76 41 	lds	r24, 0x4176	; 0x804176 <__data_end>
    1cbc:	90 91 77 41 	lds	r25, 0x4177	; 0x804177 <__data_end+0x1>
    1cc0:	20 91 88 52 	lds	r18, 0x5288	; 0x805288 <Data_Number>
    1cc4:	30 91 89 52 	lds	r19, 0x5289	; 0x805289 <Data_Number+0x1>
    1cc8:	82 17       	cp	r24, r18
    1cca:	93 07       	cpc	r25, r19
    1ccc:	30 f4       	brcc	.+12     	; 0x1cda <Send_To_Server_0+0x46>
    1cce:	01 96       	adiw	r24, 0x01	; 1
    1cd0:	80 93 76 41 	sts	0x4176, r24	; 0x804176 <__data_end>
    1cd4:	90 93 77 41 	sts	0x4177, r25	; 0x804177 <__data_end+0x1>
    1cd8:	04 c0       	rjmp	.+8      	; 0x1ce2 <Send_To_Server_0+0x4e>
	else			  {CommCnt=0;}
    1cda:	10 92 76 41 	sts	0x4176, r1	; 0x804176 <__data_end>
    1cde:	10 92 77 41 	sts	0x4177, r1	; 0x804177 <__data_end+0x1>
//-------------------------------------------------------------------------------------------------
//		Serial Protocol Start
//-------------------------------------------------------------------------------------------------
	SerialData[cnt++] = STX_Iontec;						//  0 : STX_Iontec : 0xF0
    1ce2:	80 ef       	ldi	r24, 0xF0	; 240
    1ce4:	89 83       	std	Y+1, r24	; 0x01
	SerialData[cnt++] = CTL2PC;						//  1 : ╡е└╠┼═╣ц╟т
	SerialData[cnt++] = SORTING_MOVE;					//  2 : 21 └х║ё▒т┴╛ : └╠╡┐╟№ ╝▒║░▒т(╞і└п└┌╡╖, ║ё└░╡╖)
    1ce6:	85 e1       	ldi	r24, 0x15	; 21
    1ce8:	8b 83       	std	Y+3, r24	; 0x03
	SerialData[cnt++] = Cell_ID;						//  3 : └х║ёid (Cell_ID)
    1cea:	80 91 e9 50 	lds	r24, 0x50E9	; 0x8050e9 <Cell_ID>
    1cee:	8c 83       	std	Y+4, r24	; 0x04
	SerialData[cnt++] = CD_STATUS;						//  4 : 0 : ▒╕║╨─┌╡х (╜╟╜├░г╗ґ┼┬ ┴д║╕)

	SerialData[cnt++] = FW_VER;						//  5 : Protocol Version 41
    1cf0:	8f e2       	ldi	r24, 0x2F	; 47
    1cf2:	8e 83       	std	Y+6, r24	; 0x06
	SerialData[cnt++] = Gwid;						//  6 : GWID
    1cf4:	80 91 85 52 	lds	r24, 0x5285	; 0x805285 <Gwid>
    1cf8:	8f 83       	std	Y+7, r24	; 0x07
	SerialData[cnt++] = 0x00;						//  7 : ░│├╝╝Ї╣Ї
	SerialData[cnt++] = SAVE.AutoSet[CommCnt];				//  8 : └┌╡┐ 1 / ╝І╡┐ 0
    1cfa:	80 91 76 41 	lds	r24, 0x4176	; 0x804176 <__data_end>
    1cfe:	90 91 77 41 	lds	r25, 0x4177	; 0x804177 <__data_end+0x1>
    1d02:	fc 01       	movw	r30, r24
    1d04:	e3 55       	subi	r30, 0x53	; 83
    1d06:	fe 4b       	sbci	r31, 0xBE	; 190
    1d08:	20 81       	ld	r18, Z
    1d0a:	29 87       	std	Y+9, r18	; 0x09
	SerialData[cnt++] = 0x02;						//  9 : ╣л░╘ ╝╥╝І┴б ╗ч┐ы:1, ╣л░╘ ╝╥╝І┴б ╣╠╗ч┐ы:0, 10g┤▄└з:2
    1d0c:	22 e0       	ldi	r18, 0x02	; 2
    1d0e:	2a 87       	std	Y+10, r18	; 0x0a

	SerialData[cnt++] = SAVE.Count[CommCnt] / 256;				// 10 : ├Ї┴д╚╜╝І ╗ґ└з
    1d10:	dc 01       	movw	r26, r24
    1d12:	aa 0f       	add	r26, r26
    1d14:	bb 1f       	adc	r27, r27
    1d16:	a7 52       	subi	r26, 0x27	; 39
    1d18:	bd 4b       	sbci	r27, 0xBD	; 189
    1d1a:	2c 91       	ld	r18, X
    1d1c:	11 96       	adiw	r26, 0x01	; 1
    1d1e:	3c 91       	ld	r19, X
    1d20:	3b 87       	std	Y+11, r19	; 0x0b
	SerialData[cnt++] = SAVE.Count[CommCnt] % 256;				// 11 : ├Ї┴д╚╜╝І ╟╧└з
    1d22:	2c 87       	std	Y+12, r18	; 0x0c
	SerialData[cnt++] = SAVE.Data[CommCnt] / 256;				// 12 : ├Ї┴д╣л░╘ [CommCnt] ╗ґ└з
    1d24:	dc 01       	movw	r26, r24
    1d26:	aa 0f       	add	r26, r26
    1d28:	bb 1f       	adc	r27, r27
    1d2a:	af 5c       	subi	r26, 0xCF	; 207
    1d2c:	ba 4b       	sbci	r27, 0xBA	; 186
    1d2e:	2c 91       	ld	r18, X
    1d30:	11 96       	adiw	r26, 0x01	; 1
    1d32:	3c 91       	ld	r19, X
    1d34:	3d 87       	std	Y+13, r19	; 0x0d
	SerialData[cnt++] = SAVE.Data[CommCnt] % 256;				// 13 : ├Ї┴д╣л░╘ [CommCnt] ╟╧└з
    1d36:	2e 87       	std	Y+14, r18	; 0x0e

	SerialData[cnt++] = SAVE.RoomNum[CommCnt];				// 14 : ╣ц ╣Ї╚г
    1d38:	df 01       	movw	r26, r30
    1d3a:	a4 52       	subi	r26, 0x24	; 36
    1d3c:	ba 4f       	sbci	r27, 0xFA	; 250
    1d3e:	2c 91       	ld	r18, X
    1d40:	2f 87       	std	Y+15, r18	; 0x0f
	SerialData[cnt++] = SAVE.StalNum[CommCnt];				// 15 : ╜║┼ч ╣Ї╚г
    1d42:	a4 5d       	subi	r26, 0xD4	; 212
    1d44:	be 4f       	sbci	r27, 0xFE	; 254
    1d46:	2c 91       	ld	r18, X
    1d48:	28 8b       	std	Y+16, r18	; 0x10

	SerialData[cnt++] = SAVE.Year[CommCnt];					// 16 : ├Ї┴д │т [CommCnt]
    1d4a:	a4 5d       	subi	r26, 0xD4	; 212
    1d4c:	be 4f       	sbci	r27, 0xFE	; 254
    1d4e:	2c 91       	ld	r18, X
    1d50:	29 8b       	std	Y+17, r18	; 0x11
	SerialData[cnt++] = SAVE.Month[CommCnt];				// 17 : ├Ї┴д ┐ї [CommCnt]
    1d52:	a4 5d       	subi	r26, 0xD4	; 212
    1d54:	be 4f       	sbci	r27, 0xFE	; 254
    1d56:	2c 91       	ld	r18, X
    1d58:	2a 8b       	std	Y+18, r18	; 0x12
	SerialData[cnt++] = SAVE.Date[CommCnt];					// 18 : ├Ї┴д └╧ [CommCnt]
    1d5a:	a4 5d       	subi	r26, 0xD4	; 212
    1d5c:	be 4f       	sbci	r27, 0xFE	; 254
    1d5e:	2c 91       	ld	r18, X
    1d60:	2b 8b       	std	Y+19, r18	; 0x13
	SerialData[cnt++] = SAVE.Hour[CommCnt];					// 19 : ├Ї┴д ╜├ [CommCnt]
    1d62:	a4 5d       	subi	r26, 0xD4	; 212
    1d64:	be 4f       	sbci	r27, 0xFE	; 254
    1d66:	2c 91       	ld	r18, X
    1d68:	2c 8b       	std	Y+20, r18	; 0x14
	SerialData[cnt++] = SAVE.Min[CommCnt];					// 20 : ├Ї┴д ║╨ [CommCnt]
    1d6a:	a4 5d       	subi	r26, 0xD4	; 212
    1d6c:	be 4f       	sbci	r27, 0xFE	; 254
    1d6e:	2c 91       	ld	r18, X
    1d70:	2d 8b       	std	Y+21, r18	; 0x15
	SerialData[cnt++] = SAVE.Sec[CommCnt];					// 21 : ├Ї┴д ├╩ [CommCnt]
    1d72:	e0 5f       	subi	r30, 0xF0	; 240
    1d74:	f1 4f       	sbci	r31, 0xF1	; 241
    1d76:	20 81       	ld	r18, Z
    1d78:	2e 8b       	std	Y+22, r18	; 0x16

	SerialData[cnt++] = CommCnt / 256;					// 22 : Data ╝Ї╣Ї ╗ґ└з
    1d7a:	9f 8b       	std	Y+23, r25	; 0x17
	SerialData[cnt++] = CommCnt % 256;					// 23 : Data ╝Ї╣Ї ╟╧└з
    1d7c:	88 8f       	std	Y+24, r24	; 0x18
    1d7e:	fe 01       	movw	r30, r28
    1d80:	32 96       	adiw	r30, 0x02	; 2
    1d82:	9e 01       	movw	r18, r28
    1d84:	23 5e       	subi	r18, 0xE3	; 227
    1d86:	3f 4f       	sbci	r19, 0xFF	; 255
//		PC╖╬ ╡е└╠┼═ └№╝█ (20░│ ├Ї┴д├╝┴▀ Data)
//=================================================================================================
void Send_To_Server_0(void)							// PC╖╬ ╡е└╠┼═ └№╝█ (1╚╕ 1░│╛┐ └№╝█ : ├Ї┴д├╝┴▀ Data)
{
	uint8_t cnt = 0;							// cnt ║п╝І ├╩▒т╚н
	uint8_t ChkSum = 0;							// ChkSum ║п╝І ├╩▒т╚н
    1d88:	80 e0       	ldi	r24, 0x00	; 0
	SerialData[cnt++] = 0x00;						// 24 : ┐╣║ё
	SerialData[cnt++] = 0x00;						// 25 : ┐╣║ё
	SerialData[cnt++] = 0x00;						// 26 : ┐╣║ё
	SerialData[cnt++] = 0x00;						// 27 : ┐╣║ё

	for(uint8_t icnt2 = 1; icnt2 < cnt; icnt2++) {ChkSum += SerialData[icnt2];}	// ├╝┼й╜ц ░ш╗ъ
    1d8a:	91 91       	ld	r25, Z+
    1d8c:	89 0f       	add	r24, r25
    1d8e:	e2 17       	cp	r30, r18
    1d90:	f3 07       	cpc	r31, r19
    1d92:	d9 f7       	brne	.-10     	; 0x1d8a <Send_To_Server_0+0xf6>
	SerialData[cnt++] = ChkSum;						// 28 : ├╝┼й╜ц
    1d94:	8d 8f       	std	Y+29, r24	; 0x1d
	SerialData[cnt++] = ETX_Iontec;						// 29 : ETX_Iontec : 0xF1
    1d96:	81 ef       	ldi	r24, 0xF1	; 241
    1d98:	8e 8f       	std	Y+30, r24	; 0x1e
    1d9a:	8e 01       	movw	r16, r28
    1d9c:	0f 5f       	subi	r16, 0xFF	; 255
    1d9e:	1f 4f       	sbci	r17, 0xFF	; 255
    1da0:	7e 01       	movw	r14, r28
    1da2:	bf e1       	ldi	r27, 0x1F	; 31
    1da4:	eb 0e       	add	r14, r27
    1da6:	f1 1c       	adc	r15, r1
//-------------------------------------------------------------------------------------------------
//		Serial Protocol End
//-------------------------------------------------------------------------------------------------
	for(uint8_t j = 0; j < cnt; j++) {USART3_Write(SerialData[j]);}		// SerialData ╝І╕╕┼н ╝█╜┼
    1da8:	f8 01       	movw	r30, r16
    1daa:	81 91       	ld	r24, Z+
    1dac:	8f 01       	movw	r16, r30
    1dae:	0e 94 c3 2e 	call	0x5d86	; 0x5d86 <USART3_Write>
    1db2:	0e 15       	cp	r16, r14
    1db4:	1f 05       	cpc	r17, r15
    1db6:	c1 f7       	brne	.-16     	; 0x1da8 <Send_To_Server_0+0x114>
}
    1db8:	6e 96       	adiw	r28, 0x1e	; 30
    1dba:	cd bf       	out	0x3d, r28	; 61
    1dbc:	de bf       	out	0x3e, r29	; 62
    1dbe:	df 91       	pop	r29
    1dc0:	cf 91       	pop	r28
    1dc2:	1f 91       	pop	r17
    1dc4:	0f 91       	pop	r16
    1dc6:	ff 90       	pop	r15
    1dc8:	ef 90       	pop	r14
    1dca:	08 95       	ret

00001dcc <Send_To_Server_1>:

//=================================================================================================
//		PC╖╬ ╡е└╠┼═ └№╝█ (╝│┴д┴д║╕ ┤ф║п)
//=================================================================================================
void Send_To_Server_1(uint8_t Code)						// PC╖╬ ╡е└╠┼═ └№╝█ (╝│┴д┴д║╕ ┤ф║п)
{
    1dcc:	ef 92       	push	r14
    1dce:	ff 92       	push	r15
    1dd0:	0f 93       	push	r16
    1dd2:	1f 93       	push	r17
    1dd4:	cf 93       	push	r28
    1dd6:	df 93       	push	r29
    1dd8:	cd b7       	in	r28, 0x3d	; 61
    1dda:	de b7       	in	r29, 0x3e	; 62
    1ddc:	2a 97       	sbiw	r28, 0x0a	; 10
    1dde:	cd bf       	out	0x3d, r28	; 61
    1de0:	de bf       	out	0x3e, r29	; 62
	uint8_t cnt = 0;							// cnt ║п╝І ├╩▒т╚н
	uint8_t ChkSum = 0;							// ChkSum ║п╝І ├╩▒т╚н
	char SerialData[10] = {};						// SerialData[10] ╣І╞█ ╝▒╛Ё
	memset(SerialData, 0x00, sizeof(SerialData));				// ╣І╞█ ├╩▒т╚н
    1de2:	fe 01       	movw	r30, r28
    1de4:	31 96       	adiw	r30, 0x01	; 1
    1de6:	9a e0       	ldi	r25, 0x0A	; 10
    1de8:	df 01       	movw	r26, r30
    1dea:	1d 92       	st	X+, r1
    1dec:	9a 95       	dec	r25
    1dee:	e9 f7       	brne	.-6      	; 0x1dea <Send_To_Server_1+0x1e>
//-------------------------------------------------------------------------------------------------
//		Serial Protocol Start
//-------------------------------------------------------------------------------------------------
	SerialData[cnt++] = STX_Iontec;						// 0 : STX_Iontec : 0xF0
    1df0:	90 ef       	ldi	r25, 0xF0	; 240
    1df2:	99 83       	std	Y+1, r25	; 0x01
	SerialData[cnt++] = CTL2PC;						// 1 : ╡е└╠┼═╣ц╟т
	SerialData[cnt++] = SORTING_MOVE;					// 2 : 21 └х║ё▒т┴╛ : └╠╡┐╟№ ╝▒║░▒т(╞і└п└┌╡╖, ║ё└░╡╖)
    1df4:	95 e1       	ldi	r25, 0x15	; 21
    1df6:	9b 83       	std	Y+3, r25	; 0x03
	SerialData[cnt++] = Cell_ID;						// 3 : └х║ёid (Cell_ID)
    1df8:	90 91 e9 50 	lds	r25, 0x50E9	; 0x8050e9 <Cell_ID>
    1dfc:	9c 83       	std	Y+4, r25	; 0x04
	SerialData[cnt++] = Code;						// 4 : ▒╕║╨─┌╡х
    1dfe:	8d 83       	std	Y+5, r24	; 0x05

	SerialData[cnt++] = FW_VER;						// 5 : Protocol Version
    1e00:	8f e2       	ldi	r24, 0x2F	; 47
    1e02:	8e 83       	std	Y+6, r24	; 0x06
	SerialData[cnt++] = Gwid;						// 6 : GWID
    1e04:	80 91 85 52 	lds	r24, 0x5285	; 0x805285 <Gwid>
    1e08:	8f 83       	std	Y+7, r24	; 0x07
    1e0a:	31 96       	adiw	r30, 0x01	; 1
    1e0c:	9e 01       	movw	r18, r28
    1e0e:	27 5f       	subi	r18, 0xF7	; 247
    1e10:	3f 4f       	sbci	r19, 0xFF	; 255
//		PC╖╬ ╡е└╠┼═ └№╝█ (╝│┴д┴д║╕ ┤ф║п)
//=================================================================================================
void Send_To_Server_1(uint8_t Code)						// PC╖╬ ╡е└╠┼═ └№╝█ (╝│┴д┴д║╕ ┤ф║п)
{
	uint8_t cnt = 0;							// cnt ║п╝І ├╩▒т╚н
	uint8_t ChkSum = 0;							// ChkSum ║п╝І ├╩▒т╚н
    1e12:	80 e0       	ldi	r24, 0x00	; 0
	SerialData[cnt++] = Code;						// 4 : ▒╕║╨─┌╡х

	SerialData[cnt++] = FW_VER;						// 5 : Protocol Version
	SerialData[cnt++] = Gwid;						// 6 : GWID
	SerialData[cnt++] = 0x00;						// 7 : ┐╣║ё
	for(uint8_t icnt2 = 1; icnt2 < cnt; icnt2++) {ChkSum += SerialData[icnt2];}	// ├╝┼й╜ц ░ш╗ъ
    1e14:	91 91       	ld	r25, Z+
    1e16:	89 0f       	add	r24, r25
    1e18:	e2 17       	cp	r30, r18
    1e1a:	f3 07       	cpc	r31, r19
    1e1c:	d9 f7       	brne	.-10     	; 0x1e14 <Send_To_Server_1+0x48>
	SerialData[cnt++] = ChkSum;						// 8 : ├╝┼й╜ц
    1e1e:	89 87       	std	Y+9, r24	; 0x09
	SerialData[cnt++] = ETX_Iontec;						// 9 : ETX_Iontec : 0xF1
    1e20:	81 ef       	ldi	r24, 0xF1	; 241
    1e22:	8a 87       	std	Y+10, r24	; 0x0a
    1e24:	8e 01       	movw	r16, r28
    1e26:	0f 5f       	subi	r16, 0xFF	; 255
    1e28:	1f 4f       	sbci	r17, 0xFF	; 255
    1e2a:	7e 01       	movw	r14, r28
    1e2c:	bb e0       	ldi	r27, 0x0B	; 11
    1e2e:	eb 0e       	add	r14, r27
    1e30:	f1 1c       	adc	r15, r1
//-------------------------------------------------------------------------------------------------
//		Serial Protocol End
//-------------------------------------------------------------------------------------------------
	for(uint8_t j = 0; j < cnt; j++) {USART3_Write(SerialData[j]);}		// SerialData ╝І╕╕┼н ╝█╜┼
    1e32:	f8 01       	movw	r30, r16
    1e34:	81 91       	ld	r24, Z+
    1e36:	8f 01       	movw	r16, r30
    1e38:	0e 94 c3 2e 	call	0x5d86	; 0x5d86 <USART3_Write>
    1e3c:	0e 15       	cp	r16, r14
    1e3e:	1f 05       	cpc	r17, r15
    1e40:	c1 f7       	brne	.-16     	; 0x1e32 <Send_To_Server_1+0x66>
}
    1e42:	2a 96       	adiw	r28, 0x0a	; 10
    1e44:	cd bf       	out	0x3d, r28	; 61
    1e46:	de bf       	out	0x3e, r29	; 62
    1e48:	df 91       	pop	r29
    1e4a:	cf 91       	pop	r28
    1e4c:	1f 91       	pop	r17
    1e4e:	0f 91       	pop	r16
    1e50:	ff 90       	pop	r15
    1e52:	ef 90       	pop	r14
    1e54:	08 95       	ret

00001e56 <Receiv_PC>:

//=================================================================================================
//		PC╖╬ ║╬┼═ ╡е└╠┼═╝І╜┼
//=================================================================================================
void Receiv_PC(void)								// PC╖╬ ║╬┼═ ╡е└╠┼═╝І╜┼
{
    1e56:	cf 92       	push	r12
    1e58:	df 92       	push	r13
    1e5a:	ef 92       	push	r14
    1e5c:	ff 92       	push	r15
    1e5e:	0f 93       	push	r16
    1e60:	1f 93       	push	r17
    1e62:	cf 93       	push	r28
    1e64:	df 93       	push	r29
    1e66:	0d e7       	ldi	r16, 0x7D	; 125
    1e68:	11 e5       	ldi	r17, 0x51	; 81
    1e6a:	0f 2e       	mov	r0, r31
    1e6c:	f8 e5       	ldi	r31, 0x58	; 88
    1e6e:	ef 2e       	mov	r14, r31
    1e70:	f2 e5       	ldi	r31, 0x52	; 82
    1e72:	ff 2e       	mov	r15, r31
    1e74:	f0 2d       	mov	r31, r0
    1e76:	f8 01       	movw	r30, r16
			break;							// for ╣о ║№┴о │к░б▒т
		}

		else if(Rx3_Buff[cnt] == STX_Iontec && Rx3_Buff[cnt + 1] == PC2CTL && Rx3_Buff[cnt + 2] == 0x01 && Rx3_Buff[cnt + 4] == 7 && Rx3_Buff[cnt + 31] == ETX_Iontec)
		{//			     STX			    PC2CTL			  ╝▒║░▒т		╝│┴д┴д║╕(└╘▒╕├╝┴▀)		       ETX
			Rx_LED_ON;							// RX LED ON
    1e78:	0f 2e       	mov	r0, r31
    1e7a:	f4 e2       	ldi	r31, 0x24	; 36
    1e7c:	cf 2e       	mov	r12, r31
    1e7e:	f4 e0       	ldi	r31, 0x04	; 4
    1e80:	df 2e       	mov	r13, r31
    1e82:	f0 2d       	mov	r31, r0
    1e84:	cf 01       	movw	r24, r30
    1e86:	80 1b       	sub	r24, r16
    1e88:	91 0b       	sbc	r25, r17
    1e8a:	ac 01       	movw	r20, r24
    1e8c:	ef 01       	movw	r28, r30
    1e8e:	21 96       	adiw	r28, 0x01	; 1
	uint8_t ChkSum = 0;							// ChkSum ║п╝І ├╩▒т╚н
	uint16_t IN_S;								// └╘▒╕ ├╝┴▀ ║п╝І

	for(uint8_t cnt = 0; cnt < RX3_SIZE - 31; cnt++)			// RX3_SIZE ╕╕┼н ╣▌║╣
	{
		if(Rx3_Buff[cnt] == STX_Iontec && Rx3_Buff[cnt + 1] == PC2CTL && Rx3_Buff[cnt + 2] == 0x01 && Rx3_Buff[cnt + 4] == 0 && Rx3_Buff[cnt + 9] == ETX_Iontec)
    1e90:	20 81       	ld	r18, Z
    1e92:	20 3f       	cpi	r18, 0xF0	; 240
    1e94:	09 f0       	breq	.+2      	; 0x1e98 <Receiv_PC+0x42>
    1e96:	ff c0       	rjmp	.+510    	; 0x2096 <Receiv_PC+0x240>
    1e98:	21 81       	ldd	r18, Z+1	; 0x01
    1e9a:	21 30       	cpi	r18, 0x01	; 1
    1e9c:	09 f0       	breq	.+2      	; 0x1ea0 <Receiv_PC+0x4a>
    1e9e:	06 c1       	rjmp	.+524    	; 0x20ac <Receiv_PC+0x256>
    1ea0:	29 81       	ldd	r18, Y+1	; 0x01
    1ea2:	21 30       	cpi	r18, 0x01	; 1
    1ea4:	09 f0       	breq	.+2      	; 0x1ea8 <Receiv_PC+0x52>
    1ea6:	fd c0       	rjmp	.+506    	; 0x20a2 <Receiv_PC+0x24c>
    1ea8:	2b 81       	ldd	r18, Y+3	; 0x03
    1eaa:	21 11       	cpse	r18, r1
    1eac:	fa c0       	rjmp	.+500    	; 0x20a2 <Receiv_PC+0x24c>
    1eae:	28 85       	ldd	r18, Y+8	; 0x08
    1eb0:	21 3f       	cpi	r18, 0xF1	; 241
    1eb2:	09 f0       	breq	.+2      	; 0x1eb6 <Receiv_PC+0x60>
    1eb4:	f6 c0       	rjmp	.+492    	; 0x20a2 <Receiv_PC+0x24c>
		{//			STX			       PC2CTL			     ╝▒║░▒т			╜╟╜├░г┴д║╕			ETX
			Rx_LED_ON;						// RX LED ON
    1eb6:	e4 e2       	ldi	r30, 0x24	; 36
    1eb8:	f4 e0       	ldi	r31, 0x04	; 4
    1eba:	20 81       	ld	r18, Z
    1ebc:	28 60       	ori	r18, 0x08	; 8
    1ebe:	20 83       	st	Z, r18
    1ec0:	fc 01       	movw	r30, r24
    1ec2:	e2 58       	subi	r30, 0x82	; 130
    1ec4:	fe 4a       	sbci	r31, 0xAE	; 174
    1ec6:	bc 01       	movw	r22, r24
    1ec8:	6b 57       	subi	r22, 0x7B	; 123
    1eca:	7e 4a       	sbci	r23, 0xAE	; 174
			ChkSum = 0;						// ChkSum ├╩▒т╚н
    1ecc:	90 e0       	ldi	r25, 0x00	; 0

			for(cnt1 = 1; cnt1 < 8; cnt1++) {ChkSum += Rx3_Buff[cnt + cnt1];}	// ├╝┼й╜ц ░ш╗ъ
    1ece:	21 91       	ld	r18, Z+
    1ed0:	92 0f       	add	r25, r18
    1ed2:	e6 17       	cp	r30, r22
    1ed4:	f7 07       	cpc	r31, r23
    1ed6:	d9 f7       	brne	.-10     	; 0x1ece <Receiv_PC+0x78>

			if(ChkSum == Rx3_Buff[cnt + 8])				// ├╝┼й╜ц ╚о└╬
    1ed8:	fa 01       	movw	r30, r20
    1eda:	e3 58       	subi	r30, 0x83	; 131
    1edc:	fe 4a       	sbci	r31, 0xAE	; 174
    1ede:	80 85       	ldd	r24, Z+8	; 0x08
    1ee0:	98 13       	cpse	r25, r24
    1ee2:	18 c0       	rjmp	.+48     	; 0x1f14 <Receiv_PC+0xbe>
			{
				if(Rx3_Buff[cnt + 3] == Cell_ID)		// ID 1╣Ї └╠╕щ
    1ee4:	fa 01       	movw	r30, r20
    1ee6:	e3 58       	subi	r30, 0x83	; 131
    1ee8:	fe 4a       	sbci	r31, 0xAE	; 174
    1eea:	93 81       	ldd	r25, Z+3	; 0x03
    1eec:	80 91 e9 50 	lds	r24, 0x50E9	; 0x8050e9 <Cell_ID>
    1ef0:	98 13       	cpse	r25, r24
    1ef2:	10 c0       	rjmp	.+32     	; 0x1f14 <Receiv_PC+0xbe>
				{						// ╜╟╜├░г ┴д║╕
					Tx_LED_ON;				// TX LED ON
    1ef4:	c4 e2       	ldi	r28, 0x24	; 36
    1ef6:	d4 e0       	ldi	r29, 0x04	; 4
    1ef8:	88 81       	ld	r24, Y
    1efa:	84 60       	ori	r24, 0x04	; 4
    1efc:	88 83       	st	Y, r24
					Send_To_Server_0();			// ╣л░╘ Data PC╖╬ └№╝█
    1efe:	0e 94 4a 0e 	call	0x1c94	; 0x1c94 <Send_To_Server_0>
    1f02:	8c ec       	ldi	r24, 0xCC	; 204
    1f04:	9c e1       	ldi	r25, 0x1C	; 28
    1f06:	01 97       	sbiw	r24, 0x01	; 1
    1f08:	f1 f7       	brne	.-4      	; 0x1f06 <Receiv_PC+0xb0>
    1f0a:	00 c0       	rjmp	.+0      	; 0x1f0c <Receiv_PC+0xb6>
    1f0c:	00 00       	nop
					_delay_ms(2);
					Tx_LED_OFF;				// TX LED OFF
    1f0e:	88 81       	ld	r24, Y
    1f10:	8b 7f       	andi	r24, 0xFB	; 251
    1f12:	88 83       	st	Y, r24
				}
			}
			Rx3_Buff_Clear();					// Rx3 Buff Clear
    1f14:	0e 94 ef 2e 	call	0x5dde	; 0x5dde <Rx3_Buff_Clear>
			Rx_LED_OFF;						// RX LED OFF
    1f18:	e4 e2       	ldi	r30, 0x24	; 36
    1f1a:	f4 e0       	ldi	r31, 0x04	; 4
    1f1c:	80 81       	ld	r24, Z
    1f1e:	87 7f       	andi	r24, 0xF7	; 247
    1f20:	80 83       	st	Z, r24
			break;							// for ╣о ║№┴о │к░б▒т
    1f22:	c7 c0       	rjmp	.+398    	; 0x20b2 <Receiv_PC+0x25c>
		}

		else if(Rx3_Buff[cnt] == STX_Iontec && Rx3_Buff[cnt + 1] == PC2CTL && Rx3_Buff[cnt + 4] == 9 && Rx3_Buff[cnt + 15] == ETX_Iontec)
    1f24:	2e 85       	ldd	r18, Y+14	; 0x0e
    1f26:	21 3f       	cpi	r18, 0xF1	; 241
    1f28:	09 f0       	breq	.+2      	; 0x1f2c <Receiv_PC+0xd6>
    1f2a:	79 c0       	rjmp	.+242    	; 0x201e <Receiv_PC+0x1c8>
		{//			    STX				    PC2CTL		    ╜├░г┴д║╕║п░ц			        ETX
			Rx_LED_ON;						// RX LED ON
    1f2c:	e4 e2       	ldi	r30, 0x24	; 36
    1f2e:	f4 e0       	ldi	r31, 0x04	; 4
    1f30:	20 81       	ld	r18, Z
    1f32:	28 60       	ori	r18, 0x08	; 8
    1f34:	20 83       	st	Z, r18
    1f36:	fc 01       	movw	r30, r24
    1f38:	e2 58       	subi	r30, 0x82	; 130
    1f3a:	fe 4a       	sbci	r31, 0xAE	; 174
    1f3c:	85 57       	subi	r24, 0x75	; 117
    1f3e:	9e 4a       	sbci	r25, 0xAE	; 174
			ChkSum = 0;						// ChkSum ├╩▒т╚н
    1f40:	20 e0       	ldi	r18, 0x00	; 0

			for(cnt1 = 1; cnt1 < 14; cnt1++) {ChkSum += Rx3_Buff[cnt + cnt1];}	// ├╝┼й╜ц ░ш╗ъ
    1f42:	31 91       	ld	r19, Z+
    1f44:	23 0f       	add	r18, r19
    1f46:	e8 17       	cp	r30, r24
    1f48:	f9 07       	cpc	r31, r25
    1f4a:	d9 f7       	brne	.-10     	; 0x1f42 <Receiv_PC+0xec>

			if(ChkSum == Rx3_Buff[cnt + 14])			// ├╝┼й╜ц ╚о└╬
    1f4c:	fa 01       	movw	r30, r20
    1f4e:	e3 58       	subi	r30, 0x83	; 131
    1f50:	fe 4a       	sbci	r31, 0xAE	; 174
    1f52:	86 85       	ldd	r24, Z+14	; 0x0e
    1f54:	28 13       	cpse	r18, r24
    1f56:	5b c0       	rjmp	.+182    	; 0x200e <Receiv_PC+0x1b8>
			{
				RTC_Time_Write(RTC_YEAR,  ((Rx3_Buff[cnt+ 8]&0xF0)>>4)*10+(Rx3_Buff[cnt+ 8]&0x0F));	// RTC ┐б │т └·└х
    1f58:	ef 01       	movw	r28, r30
    1f5a:	80 85       	ldd	r24, Z+8	; 0x08
    1f5c:	98 2f       	mov	r25, r24
    1f5e:	92 95       	swap	r25
    1f60:	9f 70       	andi	r25, 0x0F	; 15
    1f62:	99 0f       	add	r25, r25
    1f64:	69 2f       	mov	r22, r25
    1f66:	66 0f       	add	r22, r22
    1f68:	66 0f       	add	r22, r22
    1f6a:	96 0f       	add	r25, r22
    1f6c:	8f 70       	andi	r24, 0x0F	; 15
    1f6e:	69 2f       	mov	r22, r25
    1f70:	68 0f       	add	r22, r24
    1f72:	86 e0       	ldi	r24, 0x06	; 6
    1f74:	0e 94 1f 2b 	call	0x563e	; 0x563e <RTC_Time_Write>
				RTC_Time_Write(RTC_MONTH, ((Rx3_Buff[cnt+ 9]&0xF0)>>4)*10+(Rx3_Buff[cnt+ 9]&0x0F));	// RTC ┐б ┐ї └·└х
    1f78:	89 85       	ldd	r24, Y+9	; 0x09
    1f7a:	98 2f       	mov	r25, r24
    1f7c:	92 95       	swap	r25
    1f7e:	9f 70       	andi	r25, 0x0F	; 15
    1f80:	99 0f       	add	r25, r25
    1f82:	69 2f       	mov	r22, r25
    1f84:	66 0f       	add	r22, r22
    1f86:	66 0f       	add	r22, r22
    1f88:	96 0f       	add	r25, r22
    1f8a:	8f 70       	andi	r24, 0x0F	; 15
    1f8c:	69 2f       	mov	r22, r25
    1f8e:	68 0f       	add	r22, r24
    1f90:	85 e0       	ldi	r24, 0x05	; 5
    1f92:	0e 94 1f 2b 	call	0x563e	; 0x563e <RTC_Time_Write>
				RTC_Time_Write(RTC_DATE,  ((Rx3_Buff[cnt+10]&0xF0)>>4)*10+(Rx3_Buff[cnt+10]&0x0F));	// RTC ┐б └╧ └·└х
    1f96:	8a 85       	ldd	r24, Y+10	; 0x0a
    1f98:	98 2f       	mov	r25, r24
    1f9a:	92 95       	swap	r25
    1f9c:	9f 70       	andi	r25, 0x0F	; 15
    1f9e:	99 0f       	add	r25, r25
    1fa0:	69 2f       	mov	r22, r25
    1fa2:	66 0f       	add	r22, r22
    1fa4:	66 0f       	add	r22, r22
    1fa6:	96 0f       	add	r25, r22
    1fa8:	8f 70       	andi	r24, 0x0F	; 15
    1faa:	69 2f       	mov	r22, r25
    1fac:	68 0f       	add	r22, r24
    1fae:	84 e0       	ldi	r24, 0x04	; 4
    1fb0:	0e 94 1f 2b 	call	0x563e	; 0x563e <RTC_Time_Write>
				RTC_Time_Write(RTC_HOUR,  ((Rx3_Buff[cnt+11]&0xF0)>>4)*10+(Rx3_Buff[cnt+11]&0x0F));	// RTC ┐б ╜├ └·└х
    1fb4:	8b 85       	ldd	r24, Y+11	; 0x0b
    1fb6:	98 2f       	mov	r25, r24
    1fb8:	92 95       	swap	r25
    1fba:	9f 70       	andi	r25, 0x0F	; 15
    1fbc:	99 0f       	add	r25, r25
    1fbe:	69 2f       	mov	r22, r25
    1fc0:	66 0f       	add	r22, r22
    1fc2:	66 0f       	add	r22, r22
    1fc4:	96 0f       	add	r25, r22
    1fc6:	8f 70       	andi	r24, 0x0F	; 15
    1fc8:	69 2f       	mov	r22, r25
    1fca:	68 0f       	add	r22, r24
    1fcc:	82 e0       	ldi	r24, 0x02	; 2
    1fce:	0e 94 1f 2b 	call	0x563e	; 0x563e <RTC_Time_Write>
				RTC_Time_Write(RTC_MINUTE,((Rx3_Buff[cnt+12]&0xF0)>>4)*10+(Rx3_Buff[cnt+12]&0x0F));	// RTC ┐б ║╨ └·└х
    1fd2:	8c 85       	ldd	r24, Y+12	; 0x0c
    1fd4:	98 2f       	mov	r25, r24
    1fd6:	92 95       	swap	r25
    1fd8:	9f 70       	andi	r25, 0x0F	; 15
    1fda:	99 0f       	add	r25, r25
    1fdc:	69 2f       	mov	r22, r25
    1fde:	66 0f       	add	r22, r22
    1fe0:	66 0f       	add	r22, r22
    1fe2:	96 0f       	add	r25, r22
    1fe4:	8f 70       	andi	r24, 0x0F	; 15
    1fe6:	69 2f       	mov	r22, r25
    1fe8:	68 0f       	add	r22, r24
    1fea:	81 e0       	ldi	r24, 0x01	; 1
    1fec:	0e 94 1f 2b 	call	0x563e	; 0x563e <RTC_Time_Write>
				RTC_Time_Write(RTC_SECOND,((Rx3_Buff[cnt+13]&0xF0)>>4)*10+(Rx3_Buff[cnt+13]&0x0F));	// RTC ┐б ├╩ └·└х
    1ff0:	8d 85       	ldd	r24, Y+13	; 0x0d
    1ff2:	98 2f       	mov	r25, r24
    1ff4:	92 95       	swap	r25
    1ff6:	9f 70       	andi	r25, 0x0F	; 15
    1ff8:	99 0f       	add	r25, r25
    1ffa:	69 2f       	mov	r22, r25
    1ffc:	66 0f       	add	r22, r22
    1ffe:	66 0f       	add	r22, r22
    2000:	96 0f       	add	r25, r22
    2002:	8f 70       	andi	r24, 0x0F	; 15
    2004:	69 2f       	mov	r22, r25
    2006:	68 0f       	add	r22, r24
    2008:	80 e0       	ldi	r24, 0x00	; 0
    200a:	0e 94 1f 2b 	call	0x563e	; 0x563e <RTC_Time_Write>
			}
			Rx3_Buff_Clear();					// Rx3 Buff Clear
    200e:	0e 94 ef 2e 	call	0x5dde	; 0x5dde <Rx3_Buff_Clear>
			Rx_LED_OFF;						// RX LED OFF
    2012:	e4 e2       	ldi	r30, 0x24	; 36
    2014:	f4 e0       	ldi	r31, 0x04	; 4
    2016:	80 81       	ld	r24, Z
    2018:	87 7f       	andi	r24, 0xF7	; 247
    201a:	80 83       	st	Z, r24
			break;							// for ╣о ║№┴о │к░б▒т
    201c:	4a c0       	rjmp	.+148    	; 0x20b2 <Receiv_PC+0x25c>
		}

		else if(Rx3_Buff[cnt] == STX_Iontec && Rx3_Buff[cnt + 1] == PC2CTL && Rx3_Buff[cnt + 2] == 0x01 && Rx3_Buff[cnt + 4] == 7 && Rx3_Buff[cnt + 31] == ETX_Iontec)
    201e:	89 81       	ldd	r24, Y+1	; 0x01
    2020:	81 30       	cpi	r24, 0x01	; 1
    2022:	c9 f5       	brne	.+114    	; 0x2096 <Receiv_PC+0x240>
    2024:	8b 81       	ldd	r24, Y+3	; 0x03
    2026:	87 30       	cpi	r24, 0x07	; 7
    2028:	b1 f5       	brne	.+108    	; 0x2096 <Receiv_PC+0x240>
    202a:	8e 8d       	ldd	r24, Y+30	; 0x1e
    202c:	81 3f       	cpi	r24, 0xF1	; 241
    202e:	99 f5       	brne	.+102    	; 0x2096 <Receiv_PC+0x240>
		{//			     STX			    PC2CTL			  ╝▒║░▒т		╝│┴д┴д║╕(└╘▒╕├╝┴▀)		       ETX
			Rx_LED_ON;							// RX LED ON
    2030:	d6 01       	movw	r26, r12
    2032:	8c 91       	ld	r24, X
    2034:	88 60       	ori	r24, 0x08	; 8
    2036:	8c 93       	st	X, r24
    2038:	7e 96       	adiw	r30, 0x1e	; 30
    203a:	de 01       	movw	r26, r28
			ChkSum = 0;							// ChkSum ├╩▒т╚н
    203c:	80 e0       	ldi	r24, 0x00	; 0

			for(cnt1 = 1; cnt1 < 30; cnt1++) {ChkSum += Rx3_Buff[cnt + cnt1];}	// ├╝┼й╜ц ░ш╗ъ
    203e:	9d 91       	ld	r25, X+
    2040:	89 0f       	add	r24, r25
    2042:	ae 17       	cp	r26, r30
    2044:	bf 07       	cpc	r27, r31
    2046:	d9 f7       	brne	.-10     	; 0x203e <Receiv_PC+0x1e8>

			if(ChkSum == Rx3_Buff[cnt + 30])				// ├╝┼й╜ц ╚о└╬
    2048:	9d 8d       	ldd	r25, Y+29	; 0x1d
    204a:	89 13       	cpse	r24, r25
    204c:	24 c0       	rjmp	.+72     	; 0x2096 <Receiv_PC+0x240>
			{
//				IN_S = Rx3_Buff[cnt + 8] << 8 & Rx3_Buff[cnt + 8];	// └╘▒╕├╝┴▀ ░к ║п╚п
				IN_S = (Rx3_Buff[cnt + 8] << 8) | Rx3_Buff[cnt + 9];	// └╘▒╕├╝┴▀ ░к ║п╚п
				if(Rx3_Buff[cnt + 3] == Cell_ID)			// Cell ID 1╣Ї └╠╕щ
    204e:	9a 81       	ldd	r25, Y+2	; 0x02
    2050:	80 91 e9 50 	lds	r24, 0x50E9	; 0x8050e9 <Cell_ID>
    2054:	98 13       	cpse	r25, r24
    2056:	1f c0       	rjmp	.+62     	; 0x2096 <Receiv_PC+0x240>
			for(cnt1 = 1; cnt1 < 30; cnt1++) {ChkSum += Rx3_Buff[cnt + cnt1];}	// ├╝┼й╜ц ░ш╗ъ

			if(ChkSum == Rx3_Buff[cnt + 30])				// ├╝┼й╜ц ╚о└╬
			{
//				IN_S = Rx3_Buff[cnt + 8] << 8 & Rx3_Buff[cnt + 8];	// └╘▒╕├╝┴▀ ░к ║п╚п
				IN_S = (Rx3_Buff[cnt + 8] << 8) | Rx3_Buff[cnt + 9];	// └╘▒╕├╝┴▀ ░к ║п╚п
    2058:	6f 81       	ldd	r22, Y+7	; 0x07
    205a:	70 e0       	ldi	r23, 0x00	; 0
    205c:	76 2f       	mov	r23, r22
    205e:	66 27       	eor	r22, r22
    2060:	88 85       	ldd	r24, Y+8	; 0x08
    2062:	68 2b       	or	r22, r24
				if(Rx3_Buff[cnt + 3] == Cell_ID)			// Cell ID 1╣Ї └╠╕щ
				{
					IN_Scales = IN_S;				// └╘▒╕├╝┴▀ ░к└╗ ╖╬╡х╝┐ 1╣Ї┐б └√┐ы
    2064:	60 93 08 51 	sts	0x5108, r22	; 0x805108 <IN_Scales>
    2068:	70 93 09 51 	sts	0x5109, r23	; 0x805109 <IN_Scales+0x1>
					ee_write_word(Cell_IN_S_Addr, IN_S);		// └╘▒╕├╝┴▀ ░к└╗ EEPROM┐б └·└х
    206c:	8a e0       	ldi	r24, 0x0A	; 10
    206e:	90 e0       	ldi	r25, 0x00	; 0
    2070:	0e 94 01 15 	call	0x2a02	; 0x2a02 <ee_write_word>
					Tx_LED_ON;					// TX LED ON
    2074:	f6 01       	movw	r30, r12
    2076:	80 81       	ld	r24, Z
    2078:	84 60       	ori	r24, 0x04	; 4
    207a:	80 83       	st	Z, r24
					Send_To_Server_1(Rx3_Buff[cnt + 4]);		// ╝│┴д┴д║╕ PC╖╬ └№╝█
    207c:	8b 81       	ldd	r24, Y+3	; 0x03
    207e:	0e 94 e6 0e 	call	0x1dcc	; 0x1dcc <Send_To_Server_1>
    2082:	8c ec       	ldi	r24, 0xCC	; 204
    2084:	9c e1       	ldi	r25, 0x1C	; 28
    2086:	01 97       	sbiw	r24, 0x01	; 1
    2088:	f1 f7       	brne	.-4      	; 0x2086 <Receiv_PC+0x230>
    208a:	00 c0       	rjmp	.+0      	; 0x208c <Receiv_PC+0x236>
    208c:	00 00       	nop
					_delay_ms(2);
					Tx_LED_OFF;					// TX LED OFF
    208e:	d6 01       	movw	r26, r12
    2090:	8c 91       	ld	r24, X
    2092:	8b 7f       	andi	r24, 0xFB	; 251
    2094:	8c 93       	st	X, r24
    2096:	fe 01       	movw	r30, r28
{
	uint8_t cnt1;								// cnt1 ║п╝І ├╩▒т╚н
	uint8_t ChkSum = 0;							// ChkSum ║п╝І ├╩▒т╚н
	uint16_t IN_S;								// └╘▒╕ ├╝┴▀ ║п╝І

	for(uint8_t cnt = 0; cnt < RX3_SIZE - 31; cnt++)			// RX3_SIZE ╕╕┼н ╣▌║╣
    2098:	ec 16       	cp	r14, r28
    209a:	fd 06       	cpc	r15, r29
    209c:	09 f0       	breq	.+2      	; 0x20a0 <Receiv_PC+0x24a>
    209e:	f2 ce       	rjmp	.-540    	; 0x1e84 <Receiv_PC+0x2e>
    20a0:	08 c0       	rjmp	.+16     	; 0x20b2 <Receiv_PC+0x25c>
			Rx3_Buff_Clear();					// Rx3 Buff Clear
			Rx_LED_OFF;						// RX LED OFF
			break;							// for ╣о ║№┴о │к░б▒т
		}

		else if(Rx3_Buff[cnt] == STX_Iontec && Rx3_Buff[cnt + 1] == PC2CTL && Rx3_Buff[cnt + 4] == 9 && Rx3_Buff[cnt + 15] == ETX_Iontec)
    20a2:	2b 81       	ldd	r18, Y+3	; 0x03
    20a4:	29 30       	cpi	r18, 0x09	; 9
    20a6:	09 f0       	breq	.+2      	; 0x20aa <Receiv_PC+0x254>
    20a8:	ba cf       	rjmp	.-140    	; 0x201e <Receiv_PC+0x1c8>
    20aa:	3c cf       	rjmp	.-392    	; 0x1f24 <Receiv_PC+0xce>
			Rx3_Buff_Clear();					// Rx3 Buff Clear
			Rx_LED_OFF;						// RX LED OFF
			break;							// for ╣о ║№┴о │к░б▒т
		}

		else if(Rx3_Buff[cnt] == STX_Iontec && Rx3_Buff[cnt + 1] == PC2CTL && Rx3_Buff[cnt + 2] == 0x01 && Rx3_Buff[cnt + 4] == 7 && Rx3_Buff[cnt + 31] == ETX_Iontec)
    20ac:	21 30       	cpi	r18, 0x01	; 1
    20ae:	99 f7       	brne	.-26     	; 0x2096 <Receiv_PC+0x240>
    20b0:	b6 cf       	rjmp	.-148    	; 0x201e <Receiv_PC+0x1c8>
					Tx_LED_OFF;					// TX LED OFF
				}
			}
		}
	}
}
    20b2:	df 91       	pop	r29
    20b4:	cf 91       	pop	r28
    20b6:	1f 91       	pop	r17
    20b8:	0f 91       	pop	r16
    20ba:	ff 90       	pop	r15
    20bc:	ef 90       	pop	r14
    20be:	df 90       	pop	r13
    20c0:	cf 90       	pop	r12
    20c2:	08 95       	ret

000020c4 <Time_Check>:

//=================================================================================================
void Time_Check(void)								// ╜├░г ├╝┼й
{
    20c4:	cf 93       	push	r28
    20c6:	df 93       	push	r29
	if(Timer.RTC_Timer >= 1000)						// 5mSec X 1000 = 5Sec └╠╗ґ└╠ ╡╟╕щ ┴Ї└╘
    20c8:	80 91 35 51 	lds	r24, 0x5135	; 0x805135 <Timer+0x3>
    20cc:	90 91 36 51 	lds	r25, 0x5136	; 0x805136 <Timer+0x4>
    20d0:	88 3e       	cpi	r24, 0xE8	; 232
    20d2:	93 40       	sbci	r25, 0x03	; 3
    20d4:	08 f4       	brcc	.+2      	; 0x20d8 <Time_Check+0x14>
    20d6:	93 c0       	rjmp	.+294    	; 0x21fe <Time_Check+0x13a>
	{
		Timer.RTC_Timer = 0;						// RTC_Timer ├╩▒т╚н (┼╕└╠╕╙1 ┐б╝н 5mSec ╕╢┤┘ ┴є░б)
    20d8:	10 92 35 51 	sts	0x5135, r1	; 0x805135 <Timer+0x3>
    20dc:	10 92 36 51 	sts	0x5136, r1	; 0x805136 <Timer+0x4>
		RTC_Time_Read();						// RTC┐б╝н ╜├░г └╨╛ю ┐└▒т
    20e0:	0e 94 e4 2a 	call	0x55c8	; 0x55c8 <RTC_Time_Read>

		if(RTC_T.OLD_D != RTC_T.Date)					// │п┬е Data ░б ┤┘╕г╕щ
    20e4:	e7 e3       	ldi	r30, 0x37	; 55
    20e6:	f1 e5       	ldi	r31, 0x51	; 81
    20e8:	64 81       	ldd	r22, Z+4	; 0x04
    20ea:	87 81       	ldd	r24, Z+7	; 0x07
    20ec:	86 17       	cp	r24, r22
    20ee:	09 f4       	brne	.+2      	; 0x20f2 <Time_Check+0x2e>
    20f0:	73 c0       	rjmp	.+230    	; 0x21d8 <Time_Check+0x114>
		{
			RTC_T.OLD_D = RTC_T.Date;				// ╟І└ч │п┬е └·└х
    20f2:	60 93 3e 51 	sts	0x513E, r22	; 0x80513e <RTC_T+0x7>
			ee_write_byte (OLD_Date_Addr, RTC_T.OLD_D);		// │п┬е ╕ж EEPROM ┐б └·└х
    20f6:	82 e0       	ldi	r24, 0x02	; 2
    20f8:	90 e0       	ldi	r25, 0x00	; 0
    20fa:	0e 94 dd 14 	call	0x29ba	; 0x29ba <ee_write_byte>

			memset(SAVE.AutoSet, 0x00, sizeof(SAVE.AutoSet));	// └┌╡┐╝│┴д ╣І╞█ Clear
    20fe:	8c e2       	ldi	r24, 0x2C	; 44
    2100:	91 e0       	ldi	r25, 0x01	; 1
    2102:	ed ea       	ldi	r30, 0xAD	; 173
    2104:	f1 e4       	ldi	r31, 0x41	; 65
    2106:	df 01       	movw	r26, r30
    2108:	9c 01       	movw	r18, r24
    210a:	1d 92       	st	X+, r1
    210c:	21 50       	subi	r18, 0x01	; 1
    210e:	30 40       	sbci	r19, 0x00	; 0
    2110:	e1 f7       	brne	.-8      	; 0x210a <Time_Check+0x46>
			memset(SAVE.Count,   0x00, sizeof(SAVE.Count));		// ├Ї┴д╚╜╝І ╣І╞█ Clear
    2112:	28 e5       	ldi	r18, 0x58	; 88
    2114:	32 e0       	ldi	r19, 0x02	; 2
    2116:	e9 ed       	ldi	r30, 0xD9	; 217
    2118:	f2 e4       	ldi	r31, 0x42	; 66
    211a:	df 01       	movw	r26, r30
    211c:	a9 01       	movw	r20, r18
    211e:	1d 92       	st	X+, r1
    2120:	41 50       	subi	r20, 0x01	; 1
    2122:	50 40       	sbci	r21, 0x00	; 0
    2124:	e1 f7       	brne	.-8      	; 0x211e <Time_Check+0x5a>
			memset(SAVE.Data,    0x00, sizeof(SAVE.Data));		// ├Ї┴д╣л░╘ ╣І╞█ Clear
    2126:	e1 e3       	ldi	r30, 0x31	; 49
    2128:	f5 e4       	ldi	r31, 0x45	; 69
    212a:	df 01       	movw	r26, r30
    212c:	a9 01       	movw	r20, r18
    212e:	1d 92       	st	X+, r1
    2130:	41 50       	subi	r20, 0x01	; 1
    2132:	50 40       	sbci	r21, 0x00	; 0
    2134:	e1 f7       	brne	.-8      	; 0x212e <Time_Check+0x6a>
			memset(SAVE.RoomNum, 0x00, sizeof(SAVE.RoomNum));	// ╣ц╣Ї╚г ╣І╞█ Clear
    2136:	e9 e8       	ldi	r30, 0x89	; 137
    2138:	f7 e4       	ldi	r31, 0x47	; 71
    213a:	df 01       	movw	r26, r30
    213c:	9c 01       	movw	r18, r24
    213e:	1d 92       	st	X+, r1
    2140:	21 50       	subi	r18, 0x01	; 1
    2142:	30 40       	sbci	r19, 0x00	; 0
    2144:	e1 f7       	brne	.-8      	; 0x213e <Time_Check+0x7a>
			memset(SAVE.StalNum, 0x00, sizeof(SAVE.StalNum));	// ╜║┼ч╣Ї╚г ╣І╞█ Clear
    2146:	e5 eb       	ldi	r30, 0xB5	; 181
    2148:	f8 e4       	ldi	r31, 0x48	; 72
    214a:	df 01       	movw	r26, r30
    214c:	9c 01       	movw	r18, r24
    214e:	1d 92       	st	X+, r1
    2150:	21 50       	subi	r18, 0x01	; 1
    2152:	30 40       	sbci	r19, 0x00	; 0
    2154:	e1 f7       	brne	.-8      	; 0x214e <Time_Check+0x8a>
			memset(SAVE.Year,    0x00, sizeof(SAVE.Year));		// │т ╣І╞█ Clear
    2156:	e1 ee       	ldi	r30, 0xE1	; 225
    2158:	f9 e4       	ldi	r31, 0x49	; 73
    215a:	df 01       	movw	r26, r30
    215c:	9c 01       	movw	r18, r24
    215e:	1d 92       	st	X+, r1
    2160:	21 50       	subi	r18, 0x01	; 1
    2162:	30 40       	sbci	r19, 0x00	; 0
    2164:	e1 f7       	brne	.-8      	; 0x215e <Time_Check+0x9a>
			memset(SAVE.Month,   0x00, sizeof(SAVE.Month));		// ┐ї ╣І╞█ Clear
    2166:	ed e0       	ldi	r30, 0x0D	; 13
    2168:	fb e4       	ldi	r31, 0x4B	; 75
    216a:	df 01       	movw	r26, r30
    216c:	9c 01       	movw	r18, r24
    216e:	1d 92       	st	X+, r1
    2170:	21 50       	subi	r18, 0x01	; 1
    2172:	30 40       	sbci	r19, 0x00	; 0
    2174:	e1 f7       	brne	.-8      	; 0x216e <Time_Check+0xaa>
			memset(SAVE.Date,    0x00, sizeof(SAVE.Date));		// └╧ ╣І╞█ Clear
    2176:	e9 e3       	ldi	r30, 0x39	; 57
    2178:	fc e4       	ldi	r31, 0x4C	; 76
    217a:	df 01       	movw	r26, r30
    217c:	9c 01       	movw	r18, r24
    217e:	1d 92       	st	X+, r1
    2180:	21 50       	subi	r18, 0x01	; 1
    2182:	30 40       	sbci	r19, 0x00	; 0
    2184:	e1 f7       	brne	.-8      	; 0x217e <Time_Check+0xba>
			memset(SAVE.Hour,    0x00, sizeof(SAVE.Hour));		// ╜├ ╣І╞█ Clear
    2186:	e5 e6       	ldi	r30, 0x65	; 101
    2188:	fd e4       	ldi	r31, 0x4D	; 77
    218a:	df 01       	movw	r26, r30
    218c:	9c 01       	movw	r18, r24
    218e:	1d 92       	st	X+, r1
    2190:	21 50       	subi	r18, 0x01	; 1
    2192:	30 40       	sbci	r19, 0x00	; 0
    2194:	e1 f7       	brne	.-8      	; 0x218e <Time_Check+0xca>
			memset(SAVE.Min,     0x00, sizeof(SAVE.Min));		// ║╨ ╣І╞█ Clear
    2196:	e1 e9       	ldi	r30, 0x91	; 145
    2198:	fe e4       	ldi	r31, 0x4E	; 78
    219a:	df 01       	movw	r26, r30
    219c:	9c 01       	movw	r18, r24
    219e:	1d 92       	st	X+, r1
    21a0:	21 50       	subi	r18, 0x01	; 1
    21a2:	30 40       	sbci	r19, 0x00	; 0
    21a4:	e1 f7       	brne	.-8      	; 0x219e <Time_Check+0xda>
			memset(SAVE.Sec,     0x00, sizeof(SAVE.Sec));		// ├╩ ╣І╞█ Clear
    21a6:	ed eb       	ldi	r30, 0xBD	; 189
    21a8:	ff e4       	ldi	r31, 0x4F	; 79
    21aa:	df 01       	movw	r26, r30
    21ac:	9c 01       	movw	r18, r24
    21ae:	1d 92       	st	X+, r1
    21b0:	21 50       	subi	r18, 0x01	; 1
    21b2:	30 40       	sbci	r19, 0x00	; 0
    21b4:	e1 f7       	brne	.-8      	; 0x21ae <Time_Check+0xea>

			Data_Number = 0;					// ├Ї┴д ╣л░╘ Count Clear
    21b6:	10 92 88 52 	sts	0x5288, r1	; 0x805288 <Data_Number>
    21ba:	10 92 89 52 	sts	0x5289, r1	; 0x805289 <Data_Number+0x1>
			EepCnt = 0;						// EEPROM COUNT Clear
    21be:	10 92 7f 52 	sts	0x527F, r1	; 0x80527f <EepCnt>
    21c2:	10 92 80 52 	sts	0x5280, r1	; 0x805280 <EepCnt+0x1>
    21c6:	c0 e0       	ldi	r28, 0x00	; 0
    21c8:	d0 e0       	ldi	r29, 0x00	; 0

			for(uint8_t i = 0; i < 35; i++)				// Eeprom └·└х ░╣╝І╕╕┼н ╣▌║╣
			{
				eeprom_Data_erase(i);				// Eeprom Data ┴І┐ь▒т
    21ca:	ce 01       	movw	r24, r28
    21cc:	0e 94 97 08 	call	0x112e	; 0x112e <eeprom_Data_erase>
    21d0:	21 96       	adiw	r28, 0x01	; 1
			memset(SAVE.Sec,     0x00, sizeof(SAVE.Sec));		// ├╩ ╣І╞█ Clear

			Data_Number = 0;					// ├Ї┴д ╣л░╘ Count Clear
			EepCnt = 0;						// EEPROM COUNT Clear

			for(uint8_t i = 0; i < 35; i++)				// Eeprom └·└х ░╣╝І╕╕┼н ╣▌║╣
    21d2:	c3 32       	cpi	r28, 0x23	; 35
    21d4:	d1 05       	cpc	r29, r1
    21d6:	c9 f7       	brne	.-14     	; 0x21ca <Time_Check+0x106>
			{
				eeprom_Data_erase(i);				// Eeprom Data ┴І┐ь▒т
			}
		}
		Sec_Count++;							// Sec_Count ┴є░б
    21d8:	80 91 81 52 	lds	r24, 0x5281	; 0x805281 <Sec_Count>
    21dc:	90 91 82 52 	lds	r25, 0x5282	; 0x805282 <Sec_Count+0x1>
    21e0:	01 96       	adiw	r24, 0x01	; 1
		if(Sec_Count > 50) {Sec_Count = 50;}				// Sec_Count ░б 10 ║╕┤┘ ┼й╕щ 10 └╕╖╬ └п┴І
    21e2:	83 33       	cpi	r24, 0x33	; 51
    21e4:	91 05       	cpc	r25, r1
    21e6:	28 f4       	brcc	.+10     	; 0x21f2 <Time_Check+0x12e>
			for(uint8_t i = 0; i < 35; i++)				// Eeprom └·└х ░╣╝І╕╕┼н ╣▌║╣
			{
				eeprom_Data_erase(i);				// Eeprom Data ┴І┐ь▒т
			}
		}
		Sec_Count++;							// Sec_Count ┴є░б
    21e8:	80 93 81 52 	sts	0x5281, r24	; 0x805281 <Sec_Count>
    21ec:	90 93 82 52 	sts	0x5282, r25	; 0x805282 <Sec_Count+0x1>
    21f0:	06 c0       	rjmp	.+12     	; 0x21fe <Time_Check+0x13a>
		if(Sec_Count > 50) {Sec_Count = 50;}				// Sec_Count ░б 10 ║╕┤┘ ┼й╕щ 10 └╕╖╬ └п┴І
    21f2:	82 e3       	ldi	r24, 0x32	; 50
    21f4:	90 e0       	ldi	r25, 0x00	; 0
    21f6:	80 93 81 52 	sts	0x5281, r24	; 0x805281 <Sec_Count>
    21fa:	90 93 82 52 	sts	0x5282, r25	; 0x805282 <Sec_Count+0x1>
	}
}
    21fe:	df 91       	pop	r29
    2200:	cf 91       	pop	r28
    2202:	08 95       	ret

00002204 <Proportion_Set>:

//=================================================================================================
void Proportion_Set(void)							// ╖╬╡х╝┐ ║ё└▓ ╝│┴д ╣╫ ├╩▒т╚н
{
    2204:	cf 92       	push	r12
    2206:	df 92       	push	r13
    2208:	ef 92       	push	r14
    220a:	ff 92       	push	r15
//	CELL.Proportion = (Cell_RO / 10000000 / 4 * 128 / 0.5 * 8388608 / (Cell_Capa * 1000)) / Cell_CNT;
//	╖╬╡х╝┐ ║ё└▓ = (RO ├╤╟╒ / 10000000(mV) / ADC └╘╖┬└№╛╨ X ░╘└╬ / 0.5 * ADC Bit/ (CAPA ├╤╟╒ X 1000)) / ╖╬╡х╝┐░╣╝І

	CELL.Proportion = ((double)Cell_RO / 10000000 / 4 * 128 / 0.5 * 8388608 / (Cell_Capa * 1000)) / Cell_CNT;
    220c:	20 e8       	ldi	r18, 0x80	; 128
    220e:	36 e9       	ldi	r19, 0x96	; 150
    2210:	48 e1       	ldi	r20, 0x18	; 24
    2212:	5b e4       	ldi	r21, 0x4B	; 75
    2214:	60 91 50 51 	lds	r22, 0x5150	; 0x805150 <Cell_RO>
    2218:	70 91 51 51 	lds	r23, 0x5151	; 0x805151 <Cell_RO+0x1>
    221c:	80 91 52 51 	lds	r24, 0x5152	; 0x805152 <Cell_RO+0x2>
    2220:	90 91 53 51 	lds	r25, 0x5153	; 0x805153 <Cell_RO+0x3>
    2224:	0e 94 07 37 	call	0x6e0e	; 0x6e0e <__divsf3>
    2228:	20 e0       	ldi	r18, 0x00	; 0
    222a:	30 e0       	ldi	r19, 0x00	; 0
    222c:	40 e8       	ldi	r20, 0x80	; 128
    222e:	5e e3       	ldi	r21, 0x3E	; 62
    2230:	0e 94 a4 38 	call	0x7148	; 0x7148 <__mulsf3>
    2234:	20 e0       	ldi	r18, 0x00	; 0
    2236:	30 e0       	ldi	r19, 0x00	; 0
    2238:	40 e0       	ldi	r20, 0x00	; 0
    223a:	53 e4       	ldi	r21, 0x43	; 67
    223c:	0e 94 a4 38 	call	0x7148	; 0x7148 <__mulsf3>
    2240:	9b 01       	movw	r18, r22
    2242:	ac 01       	movw	r20, r24
    2244:	0e 94 96 36 	call	0x6d2c	; 0x6d2c <__addsf3>
    2248:	20 e0       	ldi	r18, 0x00	; 0
    224a:	30 e0       	ldi	r19, 0x00	; 0
    224c:	40 e0       	ldi	r20, 0x00	; 0
    224e:	5b e4       	ldi	r21, 0x4B	; 75
    2250:	0e 94 a4 38 	call	0x7148	; 0x7148 <__mulsf3>
    2254:	6b 01       	movw	r12, r22
    2256:	7c 01       	movw	r14, r24
    2258:	20 91 63 51 	lds	r18, 0x5163	; 0x805163 <Cell_Capa>
    225c:	30 91 64 51 	lds	r19, 0x5164	; 0x805164 <Cell_Capa+0x1>
    2260:	40 91 65 51 	lds	r20, 0x5165	; 0x805165 <Cell_Capa+0x2>
    2264:	50 91 66 51 	lds	r21, 0x5166	; 0x805166 <Cell_Capa+0x3>
    2268:	a8 ee       	ldi	r26, 0xE8	; 232
    226a:	b3 e0       	ldi	r27, 0x03	; 3
    226c:	0e 94 1e 3d 	call	0x7a3c	; 0x7a3c <__muluhisi3>
    2270:	0e 94 af 37 	call	0x6f5e	; 0x6f5e <__floatunsisf>
    2274:	9b 01       	movw	r18, r22
    2276:	ac 01       	movw	r20, r24
    2278:	c7 01       	movw	r24, r14
    227a:	b6 01       	movw	r22, r12
    227c:	0e 94 07 37 	call	0x6e0e	; 0x6e0e <__divsf3>
    2280:	6b 01       	movw	r12, r22
    2282:	7c 01       	movw	r14, r24
    2284:	60 91 73 51 	lds	r22, 0x5173	; 0x805173 <Cell_CNT>
    2288:	70 e0       	ldi	r23, 0x00	; 0
    228a:	80 e0       	ldi	r24, 0x00	; 0
    228c:	90 e0       	ldi	r25, 0x00	; 0
    228e:	0e 94 b1 37 	call	0x6f62	; 0x6f62 <__floatsisf>
    2292:	9b 01       	movw	r18, r22
    2294:	ac 01       	movw	r20, r24
    2296:	c7 01       	movw	r24, r14
    2298:	b6 01       	movw	r22, r12
    229a:	0e 94 07 37 	call	0x6e0e	; 0x6e0e <__divsf3>
    229e:	60 93 2d 51 	sts	0x512D, r22	; 0x80512d <CELL+0x11>
    22a2:	70 93 2e 51 	sts	0x512E, r23	; 0x80512e <CELL+0x12>
    22a6:	80 93 2f 51 	sts	0x512F, r24	; 0x80512f <CELL+0x13>
    22aa:	90 93 30 51 	sts	0x5130, r25	; 0x805130 <CELL+0x14>
//	╖╬╡х╝┐ ║ё└▓ =      (RO ├╤╟╒ / 10000000(mV) / ADC └╘╖┬└№╛╨ X ░╘└╬ / 0.5 * ADC Bit/ (CAPA ├╤╟╒ X 1000)) / ╖╬╡х╝┐░╣╝І

}
    22ae:	ff 90       	pop	r15
    22b0:	ef 90       	pop	r14
    22b2:	df 90       	pop	r13
    22b4:	cf 90       	pop	r12
    22b6:	08 95       	ret

000022b8 <Var_Init>:

//=================================================================================================
void Var_Init(void)								// ║п╝І ╣╫ ╖╬╡х╝┐ ├╩▒т╚н
{
    22b8:	cf 93       	push	r28
    22ba:	df 93       	push	r29
	FND_Value_Data(0, 2, 10);						// FND 0 ~ 2 FND_MINUS
    22bc:	4a e0       	ldi	r20, 0x0A	; 10
    22be:	62 e0       	ldi	r22, 0x02	; 2
    22c0:	80 e0       	ldi	r24, 0x00	; 0
    22c2:	0e 94 d3 05 	call	0xba6	; 0xba6 <FND_Value_Data>

	Read_eeprom();								// EEPROM Data └╨▒т
    22c6:	0e 94 d1 06 	call	0xda2	; 0xda2 <Read_eeprom>
    22ca:	86 e6       	ldi	r24, 0x66	; 102
    22cc:	9e e0       	ldi	r25, 0x0E	; 14
    22ce:	01 97       	sbiw	r24, 0x01	; 1
    22d0:	f1 f7       	brne	.-4      	; 0x22ce <Var_Init+0x16>
    22d2:	00 00       	nop
	_delay_ms(1);

	if(RTC_T.OLD_D != RTC_T.Date)						// │п┬е Data ░б ┤┘╕г╕щ
    22d4:	e7 e3       	ldi	r30, 0x37	; 55
    22d6:	f1 e5       	ldi	r31, 0x51	; 81
    22d8:	64 81       	ldd	r22, Z+4	; 0x04
    22da:	87 81       	ldd	r24, Z+7	; 0x07
    22dc:	86 17       	cp	r24, r22
    22de:	c1 f0       	breq	.+48     	; 0x2310 <Var_Init+0x58>
	{
		RTC_T.OLD_D = RTC_T.Date;					// ╟І└ч │п┬е └·└х
    22e0:	60 93 3e 51 	sts	0x513E, r22	; 0x80513e <RTC_T+0x7>
		ee_write_byte (OLD_Date_Addr, RTC_T.OLD_D);			// │п┬е ╕ж EEPROM ┐б └·└х
    22e4:	82 e0       	ldi	r24, 0x02	; 2
    22e6:	90 e0       	ldi	r25, 0x00	; 0
    22e8:	0e 94 dd 14 	call	0x29ba	; 0x29ba <ee_write_byte>
    22ec:	c0 e0       	ldi	r28, 0x00	; 0
    22ee:	d0 e0       	ldi	r29, 0x00	; 0

		for(uint8_t i = 0; i < 35; i++)					// Eeprom └·└х ░╣╝І╕╕┼н ╣▌║╣
		{
			eeprom_Data_erase(i);					// Eeprom Data ┴І┐ь▒т
    22f0:	ce 01       	movw	r24, r28
    22f2:	0e 94 97 08 	call	0x112e	; 0x112e <eeprom_Data_erase>
    22f6:	21 96       	adiw	r28, 0x01	; 1
	if(RTC_T.OLD_D != RTC_T.Date)						// │п┬е Data ░б ┤┘╕г╕щ
	{
		RTC_T.OLD_D = RTC_T.Date;					// ╟І└ч │п┬е └·└х
		ee_write_byte (OLD_Date_Addr, RTC_T.OLD_D);			// │п┬е ╕ж EEPROM ┐б └·└х

		for(uint8_t i = 0; i < 35; i++)					// Eeprom └·└х ░╣╝І╕╕┼н ╣▌║╣
    22f8:	c3 32       	cpi	r28, 0x23	; 35
    22fa:	d1 05       	cpc	r29, r1
    22fc:	c9 f7       	brne	.-14     	; 0x22f0 <Var_Init+0x38>
		{
			eeprom_Data_erase(i);					// Eeprom Data ┴І┐ь▒т
		}
		Data_Number = 0;						// ├Ї┴д ╣л░╘ Count Clear
    22fe:	10 92 88 52 	sts	0x5288, r1	; 0x805288 <Data_Number>
    2302:	10 92 89 52 	sts	0x5289, r1	; 0x805289 <Data_Number+0x1>
		EepCnt = 0;							// EEPROM COUNT Clear
    2306:	10 92 7f 52 	sts	0x527F, r1	; 0x80527f <EepCnt>
    230a:	10 92 80 52 	sts	0x5280, r1	; 0x805280 <EepCnt+0x1>
    230e:	09 c0       	rjmp	.+18     	; 0x2322 <Var_Init+0x6a>
    2310:	c0 e0       	ldi	r28, 0x00	; 0
    2312:	d0 e0       	ldi	r29, 0x00	; 0
	}
	else
	{
		for(uint8_t i = 0; i < 35; i++)					// Eeprom └·└х ░╣╝І╕╕┼н ╣▌║╣
		{
			Read_eeprom_Weight_Data(i);				// Eeprom Data ║╥╖п┐└▒т
    2314:	ce 01       	movw	r24, r28
    2316:	0e 94 26 08 	call	0x104c	; 0x104c <Read_eeprom_Weight_Data>
    231a:	21 96       	adiw	r28, 0x01	; 1
		Data_Number = 0;						// ├Ї┴д ╣л░╘ Count Clear
		EepCnt = 0;							// EEPROM COUNT Clear
	}
	else
	{
		for(uint8_t i = 0; i < 35; i++)					// Eeprom └·└х ░╣╝І╕╕┼н ╣▌║╣
    231c:	c3 32       	cpi	r28, 0x23	; 35
    231e:	d1 05       	cpc	r29, r1
    2320:	c9 f7       	brne	.-14     	; 0x2314 <Var_Init+0x5c>
		{
			Read_eeprom_Weight_Data(i);				// Eeprom Data ║╥╖п┐└▒т
		}
	}

	Proportion_Set();							// ╖╬╡х╝┐ ║ё└▓ ╝│┴д ╣╫ ├╩▒т╚н
    2322:	0e 94 02 11 	call	0x2204	; 0x2204 <Proportion_Set>
    2326:	86 e6       	ldi	r24, 0x66	; 102
    2328:	9e e0       	ldi	r25, 0x0E	; 14
    232a:	01 97       	sbiw	r24, 0x01	; 1
    232c:	f1 f7       	brne	.-4      	; 0x232a <Var_Init+0x72>
    232e:	00 00       	nop
	_delay_ms(1);

	Cell_Zero_Set();							// ╖╬╡х╝┐ 0 ░к ├г▒т 2╚╕ ╣▌║╣
    2330:	0e 94 a1 1a 	call	0x3542	; 0x3542 <Cell_Zero_Set>
    2334:	86 e6       	ldi	r24, 0x66	; 102
    2336:	9e e0       	ldi	r25, 0x0E	; 14
    2338:	01 97       	sbiw	r24, 0x01	; 1
    233a:	f1 f7       	brne	.-4      	; 0x2338 <Var_Init+0x80>
    233c:	00 00       	nop
	_delay_ms(1);
	Cell_Zero_Set();
    233e:	0e 94 a1 1a 	call	0x3542	; 0x3542 <Cell_Zero_Set>
	Alarm();								// ╛╦╢і(║ё╟┴ 3╣Ї)
    2342:	0e 94 db 08 	call	0x11b6	; 0x11b6 <Alarm>

	CELL.Zero_Buff = 0;							// ├Ї┴д ░к Zero Buff ├╩▒т╚н
    2346:	10 92 1c 51 	sts	0x511C, r1	; 0x80511c <CELL>
	Sec_Count = 0;								// └╧┴д╜├░г(30├╩) ╣І╞░ └╘╖┬ ╛Ї└╕╕щ FND OFF Timer ├╩▒т╚н
    234a:	10 92 81 52 	sts	0x5281, r1	; 0x805281 <Sec_Count>
    234e:	10 92 82 52 	sts	0x5282, r1	; 0x805282 <Sec_Count+0x1>
	SET.Menu = 0;								// Menu   ╕Ё╡х ├╩▒т╚н
    2352:	ee e0       	ldi	r30, 0x0E	; 14
    2354:	f1 e5       	ldi	r31, 0x51	; 81
    2356:	10 82       	st	Z, r1
	SET.Select = 0;								// Select ╕Ё╡х ├╩▒т╚н
    2358:	11 82       	std	Z+1, r1	; 0x01
	SET.Blink = 0;								// └┌╕┤╝І ▒Є╣┌└╙ ├╩▒т╚н
    235a:	13 82       	std	Z+3, r1	; 0x03
	SET.NumSET = 0;
    235c:	12 82       	std	Z+2, r1	; 0x02
	KEY.Count = 0;								// Key ░б ┤н╕░╚╜╝І ├╩▒т╚н
    235e:	10 92 4b 51 	sts	0x514B, r1	; 0x80514b <KEY>
	OK_Count_1 = 0;								// OK_Count ├╩▒т╚н
    2362:	10 92 87 52 	sts	0x5287, r1	; 0x805287 <OK_Count_1>
	OK_Count_2 = 0;								// OK_Count ├╩▒т╚н
    2366:	10 92 8d 52 	sts	0x528D, r1	; 0x80528d <OK_Count_2>

	FND_Value_Data(0, 2, 12);						// FND 0 ~ 2 FND_MINUS
    236a:	4c e0       	ldi	r20, 0x0C	; 12
    236c:	62 e0       	ldi	r22, 0x02	; 2
    236e:	80 e0       	ldi	r24, 0x00	; 0
    2370:	0e 94 d3 05 	call	0xba6	; 0xba6 <FND_Value_Data>
}
    2374:	df 91       	pop	r29
    2376:	cf 91       	pop	r28
    2378:	08 95       	ret

0000237a <Seting_Mode_0>:
	ee_write_byte(Cell_AUTO_Addr, Auto_Mode);				// └┌╡┐╕Ё╡х ╝│┴д░к└╗ EEPROM ┐б └·└х
}

//=================================================================================================
void Seting_Mode_0(void)							// ╝┬╞├╕Ё╡х 0
{
    237a:	3f 92       	push	r3
    237c:	4f 92       	push	r4
    237e:	5f 92       	push	r5
    2380:	6f 92       	push	r6
    2382:	7f 92       	push	r7
    2384:	8f 92       	push	r8
    2386:	9f 92       	push	r9
    2388:	af 92       	push	r10
    238a:	bf 92       	push	r11
    238c:	cf 92       	push	r12
    238e:	df 92       	push	r13
    2390:	ef 92       	push	r14
    2392:	ff 92       	push	r15
    2394:	0f 93       	push	r16
    2396:	1f 93       	push	r17
    2398:	cf 93       	push	r28
    239a:	df 93       	push	r29
	uint8_t Count = 1;							// Count ║п╝І ├╩▒т╚н
	SET.Select = 0;								// Select ╣І╞░ ├╩▒т╚н
    239c:	ce e0       	ldi	r28, 0x0E	; 14
    239e:	d1 e5       	ldi	r29, 0x51	; 81
    23a0:	19 82       	std	Y+1, r1	; 0x01

	FND_Value_Data(0, 2, 12);						// FND 0 ~ 2 FND_OFF
    23a2:	4c e0       	ldi	r20, 0x0C	; 12
    23a4:	62 e0       	ldi	r22, 0x02	; 2
    23a6:	80 e0       	ldi	r24, 0x00	; 0
    23a8:	0e 94 d3 05 	call	0xba6	; 0xba6 <FND_Value_Data>

	while(SET.Menu)								// Seting_Mode └╠╕щ ╣л╟╤ ╣▌║╣
    23ac:	88 81       	ld	r24, Y
    23ae:	88 23       	and	r24, r24
    23b0:	09 f4       	brne	.+2      	; 0x23b4 <Seting_Mode_0+0x3a>
    23b2:	b3 c0       	rjmp	.+358    	; 0x251a <Seting_Mode_0+0x1a0>
    23b4:	11 e0       	ldi	r17, 0x01	; 1
	{
		if(KEY.Buff)							// Key └╘╖┬└╠ └╓└╕╕щ
    23b6:	0f 2e       	mov	r0, r31
    23b8:	fb e4       	ldi	r31, 0x4B	; 75
    23ba:	ef 2e       	mov	r14, r31
    23bc:	f1 e5       	ldi	r31, 0x51	; 81
    23be:	ff 2e       	mov	r15, r31
    23c0:	f0 2d       	mov	r31, r0
		{
			if     (KEY.Key == 1 && Count < 6) {Count++; KEY.Key = 0;}	// ╛і  ╣І╞░ └╠╕щ Count ┴є░б
			else if(KEY.Key == 3 && Count > 0) {Count--; KEY.Key = 0;}	// ┤┘┐ю╣І╞░ └╠╕щ Count ░и╝╥
		}
		DIGIT[2][3] = FND_OFF;
    23c2:	c9 e7       	ldi	r28, 0x79	; 121
    23c4:	d1 e4       	ldi	r29, 0x41	; 65
				if(SET.Select) {ZigBee_Set();}			// ┴І▒╫║ё ╝│┴д ╕Ё╡х
			break;

			case 5:							// Count = 5 └╠╕щ
				DIGIT[0][3] = FND_OFF;				// rtc ╟е╜├
				DIGIT[0][2] = FND_r;
    23c6:	0f 2e       	mov	r0, r31
    23c8:	fa e0       	ldi	r31, 0x0A	; 10
    23ca:	3f 2e       	mov	r3, r31
    23cc:	f0 2d       	mov	r31, r0
				DIGIT[0][1] = FND_t;
    23ce:	0f 2e       	mov	r0, r31
    23d0:	fe e1       	ldi	r31, 0x1E	; 30
    23d2:	bf 2e       	mov	r11, r31
    23d4:	f0 2d       	mov	r31, r0
				DIGIT[0][0] = FND_c;
    23d6:	0f 2e       	mov	r0, r31
    23d8:	fa e1       	ldi	r31, 0x1A	; 26
    23da:	8f 2e       	mov	r8, r31
    23dc:	f0 2d       	mov	r31, r0

				DIGIT[1][3] = FND_OFF;				// Set ╟е╜├
				DIGIT[1][2] = FND_S;
    23de:	0f 2e       	mov	r0, r31
    23e0:	f6 eb       	ldi	r31, 0xB6	; 182
    23e2:	af 2e       	mov	r10, r31
    23e4:	f0 2d       	mov	r31, r0
				DIGIT[1][1] = FND_e;
    23e6:	0e ed       	ldi	r16, 0xDE	; 222
				DIGIT[1][0] = FND_t;

				if(SET.Select) {RTC_Set();}			// RTC ╝│┴д ╕Ё╡х
    23e8:	0f 2e       	mov	r0, r31
    23ea:	fe e0       	ldi	r31, 0x0E	; 14
    23ec:	cf 2e       	mov	r12, r31
    23ee:	f1 e5       	ldi	r31, 0x51	; 81
    23f0:	df 2e       	mov	r13, r31
    23f2:	f0 2d       	mov	r31, r0
				if(SET.Select) {Gwid_Set();}			// ░╘└╠╞о ┐■└╠ ╝│┴д
			break;

			case 4:							// Count = 4 └╠╕щ
				DIGIT[0][3] = FND_OFF;				// Zbe ╟е╜├
				DIGIT[0][2] = FND_Z;
    23f4:	0f 2e       	mov	r0, r31
    23f6:	fa ed       	ldi	r31, 0xDA	; 218
    23f8:	4f 2e       	mov	r4, r31
    23fa:	f0 2d       	mov	r31, r0
				DIGIT[0][1] = FND_b;
    23fc:	0f 2e       	mov	r0, r31
    23fe:	fe e3       	ldi	r31, 0x3E	; 62
    2400:	5f 2e       	mov	r5, r31
    2402:	f0 2d       	mov	r31, r0

				if(SET.Select) {Loadcell_Set();}		// ╖╬╡х╝┐ ╝│┴д ╕Ё╡х
			break;

			case 3:							// Count = 3 └╠╕щ
				DIGIT[0][3] = FND_G;						// FND 0 ┐б G-Id (▒╣╣Ї)╟е╜├
    2404:	0f 2e       	mov	r0, r31
    2406:	fe eb       	ldi	r31, 0xBE	; 190
    2408:	6f 2e       	mov	r6, r31
    240a:	f0 2d       	mov	r31, r0
				DIGIT[0][2] = FND_MINUS;
    240c:	68 94       	set
    240e:	77 24       	eor	r7, r7
    2410:	71 f8       	bld	r7, 1
				DIGIT[0][1] = FND_I;
    2412:	0f 2e       	mov	r0, r31
    2414:	f0 e6       	ldi	r31, 0x60	; 96
    2416:	9f 2e       	mov	r9, r31
    2418:	f0 2d       	mov	r31, r0

	FND_Value_Data(0, 2, 12);						// FND 0 ~ 2 FND_OFF

	while(SET.Menu)								// Seting_Mode └╠╕щ ╣л╟╤ ╣▌║╣
	{
		if(KEY.Buff)							// Key └╘╖┬└╠ └╓└╕╕щ
    241a:	f7 01       	movw	r30, r14
    241c:	81 81       	ldd	r24, Z+1	; 0x01
    241e:	88 23       	and	r24, r24
    2420:	89 f0       	breq	.+34     	; 0x2444 <Seting_Mode_0+0xca>
		{
			if     (KEY.Key == 1 && Count < 6) {Count++; KEY.Key = 0;}	// ╛і  ╣І╞░ └╠╕щ Count ┴є░б
    2422:	82 81       	ldd	r24, Z+2	; 0x02
    2424:	81 30       	cpi	r24, 0x01	; 1
    2426:	29 f4       	brne	.+10     	; 0x2432 <Seting_Mode_0+0xb8>
    2428:	16 30       	cpi	r17, 0x06	; 6
    242a:	18 f4       	brcc	.+6      	; 0x2432 <Seting_Mode_0+0xb8>
    242c:	1f 5f       	subi	r17, 0xFF	; 255
    242e:	12 82       	std	Z+2, r1	; 0x02
    2430:	09 c0       	rjmp	.+18     	; 0x2444 <Seting_Mode_0+0xca>
			else if(KEY.Key == 3 && Count > 0) {Count--; KEY.Key = 0;}	// ┤┘┐ю╣І╞░ └╠╕щ Count ░и╝╥
    2432:	f7 01       	movw	r30, r14
    2434:	82 81       	ldd	r24, Z+2	; 0x02
    2436:	83 30       	cpi	r24, 0x03	; 3
    2438:	29 f4       	brne	.+10     	; 0x2444 <Seting_Mode_0+0xca>
    243a:	11 23       	and	r17, r17
    243c:	09 f4       	brne	.+2      	; 0x2440 <Seting_Mode_0+0xc6>
    243e:	70 c0       	rjmp	.+224    	; 0x2520 <Seting_Mode_0+0x1a6>
    2440:	11 50       	subi	r17, 0x01	; 1
    2442:	12 82       	std	Z+2, r1	; 0x02
		}
		DIGIT[2][3] = FND_OFF;
    2444:	1b 86       	std	Y+11, r1	; 0x0b
		DIGIT[2][2] = FND_OFF;
    2446:	1a 86       	std	Y+10, r1	; 0x0a
		DIGIT[2][1] = FND_OFF;
    2448:	19 86       	std	Y+9, r1	; 0x09
		DIGIT[2][0] = fnd_tbl[Count];					// FND 2.0 ┐б Count ╟е╜├
    244a:	e1 2f       	mov	r30, r17
    244c:	f0 e0       	ldi	r31, 0x00	; 0
    244e:	ed 5b       	subi	r30, 0xBD	; 189
    2450:	fe 4b       	sbci	r31, 0xBE	; 190
    2452:	80 81       	ld	r24, Z
    2454:	88 87       	std	Y+8, r24	; 0x08
//-------------------------------------------------------------------------------------------------
		switch(Count)							// Count
    2456:	81 2f       	mov	r24, r17
    2458:	90 e0       	ldi	r25, 0x00	; 0
    245a:	87 30       	cpi	r24, 0x07	; 7
    245c:	91 05       	cpc	r25, r1
    245e:	08 f0       	brcs	.+2      	; 0x2462 <Seting_Mode_0+0xe8>
    2460:	57 c0       	rjmp	.+174    	; 0x2510 <Seting_Mode_0+0x196>
    2462:	fc 01       	movw	r30, r24
    2464:	e0 58       	subi	r30, 0x80	; 128
    2466:	fc 4f       	sbci	r31, 0xFC	; 252
    2468:	0c 94 06 3d 	jmp	0x7a0c	; 0x7a0c <__tablejump2__>

				if(SET.Select) {RTC_Set();}			// RTC ╝│┴д ╕Ё╡х
			break;

			case 6:							// Count = 6 └╠╕щ
				Count = 1;					// ╣▌║╣└╗ └з╟╪ Count ╕ж ├╓└·╖╬ ░и╝╥ ╜├┼┤
    246c:	11 e0       	ldi	r17, 0x01	; 1
    246e:	50 c0       	rjmp	.+160    	; 0x2510 <Seting_Mode_0+0x196>
		DIGIT[2][0] = fnd_tbl[Count];					// FND 2.0 ┐б Count ╟е╜├
//-------------------------------------------------------------------------------------------------
		switch(Count)							// Count
		{
			case 0:							// Count = 0 └╠╕щ
				Count = 5;					// ╣▌║╣└╗ └з╟╪ Count ╕ж ├╓░э╖╬ ┴є░б ╜├┼┤
    2470:	15 e0       	ldi	r17, 0x05	; 5
			break;
    2472:	4e c0       	rjmp	.+156    	; 0x2510 <Seting_Mode_0+0x196>

			case 1:							// Count = 1 └╠╕щ
				DIGIT[0][3] = FND_a;				// cell ╟е╜├
    2474:	8a ef       	ldi	r24, 0xFA	; 250
    2476:	8b 83       	std	Y+3, r24	; 0x03
				DIGIT[0][2] = FND_u;
    2478:	88 e3       	ldi	r24, 0x38	; 56
    247a:	8a 83       	std	Y+2, r24	; 0x02
				DIGIT[0][1] = FND_t;
    247c:	b9 82       	std	Y+1, r11	; 0x01
				DIGIT[0][0] = FND_o;
    247e:	8a e3       	ldi	r24, 0x3A	; 58
    2480:	88 83       	st	Y, r24

				DIGIT[1][3] = FND_OFF;				// Set ╟е╜├
    2482:	1f 82       	std	Y+7, r1	; 0x07
				DIGIT[1][2] = FND_S;
    2484:	ae 82       	std	Y+6, r10	; 0x06
				DIGIT[1][1] = FND_e;
    2486:	0d 83       	std	Y+5, r16	; 0x05
				DIGIT[1][0] = FND_t;
    2488:	bc 82       	std	Y+4, r11	; 0x04

				if(SET.Select) {Auto_Set();}			// └┌╡┐╕Ё╡х,╝І╡┐╕Ё╡х ╝│┴д
    248a:	f6 01       	movw	r30, r12
    248c:	81 81       	ldd	r24, Z+1	; 0x01
    248e:	88 23       	and	r24, r24
    2490:	09 f4       	brne	.+2      	; 0x2494 <Seting_Mode_0+0x11a>
    2492:	3e c0       	rjmp	.+124    	; 0x2510 <Seting_Mode_0+0x196>
    2494:	0e 94 f6 08 	call	0x11ec	; 0x11ec <Auto_Set>
    2498:	3b c0       	rjmp	.+118    	; 0x2510 <Seting_Mode_0+0x196>
			break;

			case 2:							// Count = 2 └╠╕щ
				DIGIT[0][3] = FND_c;				// cell ╟е╜├
    249a:	8b 82       	std	Y+3, r8	; 0x03
				DIGIT[0][2] = FND_e;
    249c:	0a 83       	std	Y+2, r16	; 0x02
				DIGIT[0][1] = FND_l;
    249e:	99 82       	std	Y+1, r9	; 0x01
				DIGIT[0][0] = FND_l;
    24a0:	98 82       	st	Y, r9

				DIGIT[1][3] = FND_OFF;				// Set ╟е╜├
    24a2:	1f 82       	std	Y+7, r1	; 0x07
				DIGIT[1][2] = FND_S;
    24a4:	ae 82       	std	Y+6, r10	; 0x06
				DIGIT[1][1] = FND_e;
    24a6:	0d 83       	std	Y+5, r16	; 0x05
				DIGIT[1][0] = FND_t;
    24a8:	bc 82       	std	Y+4, r11	; 0x04

				if(SET.Select) {Loadcell_Set();}		// ╖╬╡х╝┐ ╝│┴д ╕Ё╡х
    24aa:	f6 01       	movw	r30, r12
    24ac:	81 81       	ldd	r24, Z+1	; 0x01
    24ae:	88 23       	and	r24, r24
    24b0:	79 f1       	breq	.+94     	; 0x2510 <Seting_Mode_0+0x196>
    24b2:	0e 94 ca 27 	call	0x4f94	; 0x4f94 <Loadcell_Set>
    24b6:	2c c0       	rjmp	.+88     	; 0x2510 <Seting_Mode_0+0x196>
			break;

			case 3:							// Count = 3 └╠╕щ
				DIGIT[0][3] = FND_G;						// FND 0 ┐б G-Id (▒╣╣Ї)╟е╜├
    24b8:	6b 82       	std	Y+3, r6	; 0x03
				DIGIT[0][2] = FND_MINUS;
    24ba:	7a 82       	std	Y+2, r7	; 0x02
				DIGIT[0][1] = FND_I;
    24bc:	99 82       	std	Y+1, r9	; 0x01
				DIGIT[0][0] = FND_d;
    24be:	8a e7       	ldi	r24, 0x7A	; 122
    24c0:	88 83       	st	Y, r24

				DIGIT[1][3] = FND_OFF;				// Set ╟е╜├
    24c2:	1f 82       	std	Y+7, r1	; 0x07
				DIGIT[1][2] = FND_S;
    24c4:	ae 82       	std	Y+6, r10	; 0x06
				DIGIT[1][1] = FND_e;
    24c6:	0d 83       	std	Y+5, r16	; 0x05
				DIGIT[1][0] = FND_t;
    24c8:	bc 82       	std	Y+4, r11	; 0x04

				if(SET.Select) {Gwid_Set();}			// ░╘└╠╞о ┐■└╠ ╝│┴д
    24ca:	f6 01       	movw	r30, r12
    24cc:	81 81       	ldd	r24, Z+1	; 0x01
    24ce:	88 23       	and	r24, r24
    24d0:	f9 f0       	breq	.+62     	; 0x2510 <Seting_Mode_0+0x196>
    24d2:	0e 94 46 15 	call	0x2a8c	; 0x2a8c <Gwid_Set>
    24d6:	1c c0       	rjmp	.+56     	; 0x2510 <Seting_Mode_0+0x196>
			break;

			case 4:							// Count = 4 └╠╕щ
				DIGIT[0][3] = FND_OFF;				// Zbe ╟е╜├
    24d8:	1b 82       	std	Y+3, r1	; 0x03
				DIGIT[0][2] = FND_Z;
    24da:	4a 82       	std	Y+2, r4	; 0x02
				DIGIT[0][1] = FND_b;
    24dc:	59 82       	std	Y+1, r5	; 0x01
				DIGIT[0][0] = FND_e;
    24de:	08 83       	st	Y, r16

				DIGIT[1][3] = FND_OFF;				// Set ╟е╜├
    24e0:	1f 82       	std	Y+7, r1	; 0x07
				DIGIT[1][2] = FND_S;
    24e2:	ae 82       	std	Y+6, r10	; 0x06
				DIGIT[1][1] = FND_e;
    24e4:	0d 83       	std	Y+5, r16	; 0x05
				DIGIT[1][0] = FND_t;
    24e6:	bc 82       	std	Y+4, r11	; 0x04

				if(SET.Select) {ZigBee_Set();}			// ┴І▒╫║ё ╝│┴д ╕Ё╡х
    24e8:	f6 01       	movw	r30, r12
    24ea:	81 81       	ldd	r24, Z+1	; 0x01
    24ec:	88 23       	and	r24, r24
    24ee:	81 f0       	breq	.+32     	; 0x2510 <Seting_Mode_0+0x196>
    24f0:	0e 94 03 35 	call	0x6a06	; 0x6a06 <ZigBee_Set>
    24f4:	0d c0       	rjmp	.+26     	; 0x2510 <Seting_Mode_0+0x196>
			break;

			case 5:							// Count = 5 └╠╕щ
				DIGIT[0][3] = FND_OFF;				// rtc ╟е╜├
    24f6:	1b 82       	std	Y+3, r1	; 0x03
				DIGIT[0][2] = FND_r;
    24f8:	3a 82       	std	Y+2, r3	; 0x02
				DIGIT[0][1] = FND_t;
    24fa:	b9 82       	std	Y+1, r11	; 0x01
				DIGIT[0][0] = FND_c;
    24fc:	88 82       	st	Y, r8

				DIGIT[1][3] = FND_OFF;				// Set ╟е╜├
    24fe:	1f 82       	std	Y+7, r1	; 0x07
				DIGIT[1][2] = FND_S;
    2500:	ae 82       	std	Y+6, r10	; 0x06
				DIGIT[1][1] = FND_e;
    2502:	0d 83       	std	Y+5, r16	; 0x05
				DIGIT[1][0] = FND_t;
    2504:	bc 82       	std	Y+4, r11	; 0x04

				if(SET.Select) {RTC_Set();}			// RTC ╝│┴д ╕Ё╡х
    2506:	f6 01       	movw	r30, r12
    2508:	81 81       	ldd	r24, Z+1	; 0x01
    250a:	81 11       	cpse	r24, r1
    250c:	0e 94 54 2b 	call	0x56a8	; 0x56a8 <RTC_Set>
#endif

//=================================================================================================
void wdt_reset(void)								// Reset WDT
{
	asm("WDR");								// Reset WDT
    2510:	a8 95       	wdr
	uint8_t Count = 1;							// Count ║п╝І ├╩▒т╚н
	SET.Select = 0;								// Select ╣І╞░ ├╩▒т╚н

	FND_Value_Data(0, 2, 12);						// FND 0 ~ 2 FND_OFF

	while(SET.Menu)								// Seting_Mode └╠╕щ ╣л╟╤ ╣▌║╣
    2512:	f6 01       	movw	r30, r12
    2514:	80 81       	ld	r24, Z
    2516:	81 11       	cpse	r24, r1
    2518:	80 cf       	rjmp	.-256    	; 0x241a <Seting_Mode_0+0xa0>
				Count = 1;					// ╣▌║╣└╗ └з╟╪ Count ╕ж ├╓└·╖╬ ░и╝╥ ╜├┼┤
			break;
		}
		wdt_reset();							// ┐І─б╡╢ ╕о╝┬
	}
	Var_Init();								// ║п╝І ├╩▒т╚н
    251a:	0e 94 5c 11 	call	0x22b8	; 0x22b8 <Var_Init>
}
    251e:	06 c0       	rjmp	.+12     	; 0x252c <Seting_Mode_0+0x1b2>
		if(KEY.Buff)							// Key └╘╖┬└╠ └╓└╕╕щ
		{
			if     (KEY.Key == 1 && Count < 6) {Count++; KEY.Key = 0;}	// ╛і  ╣І╞░ └╠╕щ Count ┴є░б
			else if(KEY.Key == 3 && Count > 0) {Count--; KEY.Key = 0;}	// ┤┘┐ю╣І╞░ └╠╕щ Count ░и╝╥
		}
		DIGIT[2][3] = FND_OFF;
    2520:	1b 86       	std	Y+11, r1	; 0x0b
		DIGIT[2][2] = FND_OFF;
    2522:	1a 86       	std	Y+10, r1	; 0x0a
		DIGIT[2][1] = FND_OFF;
    2524:	19 86       	std	Y+9, r1	; 0x09
		DIGIT[2][0] = fnd_tbl[Count];					// FND 2.0 ┐б Count ╟е╜├
    2526:	8c ef       	ldi	r24, 0xFC	; 252
    2528:	88 87       	std	Y+8, r24	; 0x08
    252a:	a2 cf       	rjmp	.-188    	; 0x2470 <Seting_Mode_0+0xf6>
			break;
		}
		wdt_reset();							// ┐І─б╡╢ ╕о╝┬
	}
	Var_Init();								// ║п╝І ├╩▒т╚н
}
    252c:	df 91       	pop	r29
    252e:	cf 91       	pop	r28
    2530:	1f 91       	pop	r17
    2532:	0f 91       	pop	r16
    2534:	ff 90       	pop	r15
    2536:	ef 90       	pop	r14
    2538:	df 90       	pop	r13
    253a:	cf 90       	pop	r12
    253c:	bf 90       	pop	r11
    253e:	af 90       	pop	r10
    2540:	9f 90       	pop	r9
    2542:	8f 90       	pop	r8
    2544:	7f 90       	pop	r7
    2546:	6f 90       	pop	r6
    2548:	5f 90       	pop	r5
    254a:	4f 90       	pop	r4
    254c:	3f 90       	pop	r3
    254e:	08 95       	ret

00002550 <main>:
}

//=================================================================================================
int main(void)
{
	atmel_start_init();
    2550:	0e 94 3f 04 	call	0x87e	; 0x87e <atmel_start_init>
	MCU_Init();								// MCU Port ├╩▒т╚н
    2554:	0e 94 26 05 	call	0xa4c	; 0xa4c <MCU_Init>
//-------------------------------------------------------------------------------------------------
#ifdef USART_SET								// USART ╗ч┐ы╝│┴д
	fdevopen(std_putchar, NULL);						// printf ╟╘╝І╗ч┐ы ╝│┴д
    2558:	60 e0       	ldi	r22, 0x00	; 0
    255a:	70 e0       	ldi	r23, 0x00	; 0
    255c:	82 e1       	ldi	r24, 0x12	; 18
    255e:	95 e0       	ldi	r25, 0x05	; 5
    2560:	0e 94 26 3f 	call	0x7e4c	; 0x7e4c <fdevopen>
	printf_port = 1;							// Usart Port 1 ╗ч┐ы
    2564:	81 e0       	ldi	r24, 0x01	; 1
    2566:	80 93 4a 51 	sts	0x514A, r24	; 0x80514a <printf_port>
    256a:	2f ef       	ldi	r18, 0xFF	; 255
    256c:	8f e3       	ldi	r24, 0x3F	; 63
    256e:	92 e0       	ldi	r25, 0x02	; 2
    2570:	21 50       	subi	r18, 0x01	; 1
    2572:	80 40       	sbci	r24, 0x00	; 0
    2574:	90 40       	sbci	r25, 0x00	; 0
    2576:	e1 f7       	brne	.-8      	; 0x2570 <main+0x20>
    2578:	00 c0       	rjmp	.+0      	; 0x257a <main+0x2a>
    257a:	00 00       	nop
	_delay_ms(50);								// ┼ы╜┼ Port ╛╚┴д╚н Time

	printf("\r\n");
    257c:	83 e0       	ldi	r24, 0x03	; 3
    257e:	91 e4       	ldi	r25, 0x41	; 65
    2580:	0e 94 c1 3f 	call	0x7f82	; 0x7f82 <puts>
	printf("//=================================================//\r\n");
    2584:	8d e5       	ldi	r24, 0x5D	; 93
    2586:	90 e4       	ldi	r25, 0x40	; 64
    2588:	0e 94 c1 3f 	call	0x7f82	; 0x7f82 <puts>
	printf("//===  Product Name : Pig Scales 2 V%d.%d(SC-500) ===//\r\n",FW_VER / 10, FW_VER % 10);	// ProductName
    258c:	1f 92       	push	r1
    258e:	87 e0       	ldi	r24, 0x07	; 7
    2590:	8f 93       	push	r24
    2592:	1f 92       	push	r1
    2594:	84 e0       	ldi	r24, 0x04	; 4
    2596:	8f 93       	push	r24
    2598:	84 e9       	ldi	r24, 0x94	; 148
    259a:	90 e4       	ldi	r25, 0x40	; 64
    259c:	9f 93       	push	r25
    259e:	8f 93       	push	r24
    25a0:	0e 94 ad 3f 	call	0x7f5a	; 0x7f5a <printf>
	printf("//===  File Content : Moving Weight Scales      ===//\r\n");				// File │╗┐ы : └╠╡┐╟№ ├╝┴▀ ├Ї┴д▒т
    25a4:	8e ec       	ldi	r24, 0xCE	; 206
    25a6:	90 e4       	ldi	r25, 0x40	; 64
    25a8:	0e 94 c1 3f 	call	0x7f82	; 0x7f82 <puts>
	printf("//===  Compiled     : %s, %s     ===//\r\n", __DATE__, __TIME__);			// Compiled : │п┬е, ╜├░г ╟е╜├
    25ac:	85 e0       	ldi	r24, 0x05	; 5
    25ae:	91 e4       	ldi	r25, 0x41	; 65
    25b0:	9f 93       	push	r25
    25b2:	8f 93       	push	r24
    25b4:	8e e0       	ldi	r24, 0x0E	; 14
    25b6:	91 e4       	ldi	r25, 0x41	; 65
    25b8:	9f 93       	push	r25
    25ba:	8f 93       	push	r24
    25bc:	8a e1       	ldi	r24, 0x1A	; 26
    25be:	91 e4       	ldi	r25, 0x41	; 65
    25c0:	9f 93       	push	r25
    25c2:	8f 93       	push	r24
    25c4:	0e 94 ad 3f 	call	0x7f5a	; 0x7f5a <printf>
	printf("//=================================================//\r\n");
    25c8:	8d e5       	ldi	r24, 0x5D	; 93
    25ca:	90 e4       	ldi	r25, 0x40	; 64
    25cc:	0e 94 c1 3f 	call	0x7f82	; 0x7f82 <puts>
	printf("\r\n");
    25d0:	83 e0       	ldi	r24, 0x03	; 3
    25d2:	91 e4       	ldi	r25, 0x41	; 65
    25d4:	0e 94 c1 3f 	call	0x7f82	; 0x7f82 <puts>
// #ifdef PWM_SET								// PWM ╗ч┐ы╝│┴д
// 	PWM_0_enable();								// PWM 0 ├╩▒т╚н ╣╫ ╝│┴д
// 	PWM_0_enable_output_ch0();
// #endif
//-------------------------------------------------------------------------------------------------
	sei();									// └№├╝ └╬┼═╖┤┼═ ╜├└█
    25d8:	78 94       	sei
	Alarm();								// ╛╦╢і(║ё╟┴ 3╣Ї)
    25da:	0e 94 db 08 	call	0x11b6	; 0x11b6 <Alarm>
	Rx_LED_OFF;								// RX LED OFF
    25de:	e4 e2       	ldi	r30, 0x24	; 36
    25e0:	f4 e0       	ldi	r31, 0x04	; 4
    25e2:	80 81       	ld	r24, Z
    25e4:	87 7f       	andi	r24, 0xF7	; 247
    25e6:	80 83       	st	Z, r24
	Tx_LED_OFF;								// TX LED OFF
    25e8:	80 81       	ld	r24, Z
    25ea:	8b 7f       	andi	r24, 0xFB	; 251
    25ec:	80 83       	st	Z, r24
//-------------------------------------------------------------------------------------------------
	DIGIT[0][3] = FND_OFF;							// ╞▀┐■╛ю ╣І┴п ╟е╜├
    25ee:	e9 e7       	ldi	r30, 0x79	; 121
    25f0:	f1 e4       	ldi	r31, 0x41	; 65
    25f2:	13 82       	std	Z+3, r1	; 0x03
	DIGIT[0][2] = fnd_tbl[FW_VER / 10] + FND_Point;
    25f4:	87 e6       	ldi	r24, 0x67	; 103
    25f6:	82 83       	std	Z+2, r24	; 0x02
	DIGIT[0][1] = fnd_tbl[FW_VER % 10];
    25f8:	84 ee       	ldi	r24, 0xE4	; 228
    25fa:	81 83       	std	Z+1, r24	; 0x01
	DIGIT[0][0] = FND_OFF;
    25fc:	10 82       	st	Z, r1
    25fe:	ef ef       	ldi	r30, 0xFF	; 255
    2600:	ff ef       	ldi	r31, 0xFF	; 255
    2602:	2c e2       	ldi	r18, 0x2C	; 44
    2604:	e1 50       	subi	r30, 0x01	; 1
    2606:	f0 40       	sbci	r31, 0x00	; 0
    2608:	20 40       	sbci	r18, 0x00	; 0
    260a:	e1 f7       	brne	.-8      	; 0x2604 <main+0xb4>
    260c:	00 c0       	rjmp	.+0      	; 0x260e <main+0xbe>
    260e:	00 00       	nop
#endif

//=================================================================================================
void wdt_reset(void)								// Reset WDT
{
	asm("WDR");								// Reset WDT
    2610:	a8 95       	wdr
	DIGIT[0][1] = fnd_tbl[FW_VER % 10];
	DIGIT[0][0] = FND_OFF;
	_delay_ms(1000);							// 1├╩ ╡┐╛╚ ╟е╜├
	wdt_reset();								// Reset WT

	Time_Count = 5;								// ╜├░г ╟е╜├ ┐ы ║п╝І ╝│┴д
    2612:	85 e0       	ldi	r24, 0x05	; 5
    2614:	80 93 8a 52 	sts	0x528A, r24	; 0x80528a <Time_Count>
	Sec_Count = 0;
    2618:	10 92 81 52 	sts	0x5281, r1	; 0x805281 <Sec_Count>
    261c:	10 92 82 52 	sts	0x5282, r1	; 0x805282 <Sec_Count+0x1>
	SECOND = 0;								// └╠└№ ╜├░г(├╩)┐ы ║п╝І ╝│┴д
    2620:	10 92 8f 52 	sts	0x528F, r1	; 0x80528f <SECOND>
	Read_eeprom();
    2624:	0e 94 d1 06 	call	0xda2	; 0xda2 <Read_eeprom>
//-------------------------------------------------------------------------------------------------
	while(Time_Count)							// Time_Count ░б 0└╠ ╛╞┤╧╕щ ╣▌║╣(5├╩╡┐╛╚ ╜├░г╟е╜├)
    2628:	8d b7       	in	r24, 0x3d	; 61
    262a:	9e b7       	in	r25, 0x3e	; 62
    262c:	0c 96       	adiw	r24, 0x0c	; 12
    262e:	8d bf       	out	0x3d, r24	; 61
    2630:	9e bf       	out	0x3e, r25	; 62
	{
		RTC_Time_Read();						// RTC Data └╨▒т

		DIGIT[0][3] = fnd_tbl[RTC_T.Year / 10];				// │т ╟е╜├
    2632:	07 e3       	ldi	r16, 0x37	; 55
    2634:	11 e5       	ldi	r17, 0x51	; 81
    2636:	c9 e7       	ldi	r28, 0x79	; 121
    2638:	d1 e4       	ldi	r29, 0x41	; 65
    263a:	0f 2e       	mov	r0, r31
    263c:	fd ec       	ldi	r31, 0xCD	; 205
    263e:	ff 2e       	mov	r15, r31
    2640:	f0 2d       	mov	r31, r0
	Time_Count = 5;								// ╜├░г ╟е╜├ ┐ы ║п╝І ╝│┴д
	Sec_Count = 0;
	SECOND = 0;								// └╠└№ ╜├░г(├╩)┐ы ║п╝І ╝│┴д
	Read_eeprom();
//-------------------------------------------------------------------------------------------------
	while(Time_Count)							// Time_Count ░б 0└╠ ╛╞┤╧╕щ ╣▌║╣(5├╩╡┐╛╚ ╜├░г╟е╜├)
    2642:	ae c0       	rjmp	.+348    	; 0x27a0 <main+0x250>
	{
		RTC_Time_Read();						// RTC Data └╨▒т
    2644:	0e 94 e4 2a 	call	0x55c8	; 0x55c8 <RTC_Time_Read>

		DIGIT[0][3] = fnd_tbl[RTC_T.Year / 10];				// │т ╟е╜├
    2648:	f8 01       	movw	r30, r16
    264a:	86 81       	ldd	r24, Z+6	; 0x06
    264c:	8f 9d       	mul	r24, r15
    264e:	91 2d       	mov	r25, r1
    2650:	11 24       	eor	r1, r1
    2652:	96 95       	lsr	r25
    2654:	96 95       	lsr	r25
    2656:	96 95       	lsr	r25
    2658:	e9 2f       	mov	r30, r25
    265a:	f0 e0       	ldi	r31, 0x00	; 0
    265c:	ed 5b       	subi	r30, 0xBD	; 189
    265e:	fe 4b       	sbci	r31, 0xBE	; 190
    2660:	20 81       	ld	r18, Z
    2662:	2b 83       	std	Y+3, r18	; 0x03
		DIGIT[0][2] = fnd_tbl[RTC_T.Year % 10];
    2664:	99 0f       	add	r25, r25
    2666:	29 2f       	mov	r18, r25
    2668:	22 0f       	add	r18, r18
    266a:	22 0f       	add	r18, r18
    266c:	92 0f       	add	r25, r18
    266e:	e8 2f       	mov	r30, r24
    2670:	e9 1b       	sub	r30, r25
    2672:	f0 e0       	ldi	r31, 0x00	; 0
    2674:	ed 5b       	subi	r30, 0xBD	; 189
    2676:	fe 4b       	sbci	r31, 0xBE	; 190
    2678:	80 81       	ld	r24, Z
    267a:	8a 83       	std	Y+2, r24	; 0x02

		DIGIT[0][1] = fnd_tbl[RTC_T.Month / 10];			// ┐ї ╟е╜├
    267c:	f8 01       	movw	r30, r16
    267e:	85 81       	ldd	r24, Z+5	; 0x05
    2680:	8f 9d       	mul	r24, r15
    2682:	91 2d       	mov	r25, r1
    2684:	11 24       	eor	r1, r1
    2686:	96 95       	lsr	r25
    2688:	96 95       	lsr	r25
    268a:	96 95       	lsr	r25
    268c:	e9 2f       	mov	r30, r25
    268e:	f0 e0       	ldi	r31, 0x00	; 0
    2690:	ed 5b       	subi	r30, 0xBD	; 189
    2692:	fe 4b       	sbci	r31, 0xBE	; 190
    2694:	20 81       	ld	r18, Z
    2696:	29 83       	std	Y+1, r18	; 0x01
		DIGIT[0][0] = fnd_tbl[RTC_T.Month % 10];
    2698:	99 0f       	add	r25, r25
    269a:	29 2f       	mov	r18, r25
    269c:	22 0f       	add	r18, r18
    269e:	22 0f       	add	r18, r18
    26a0:	92 0f       	add	r25, r18
    26a2:	e8 2f       	mov	r30, r24
    26a4:	e9 1b       	sub	r30, r25
    26a6:	f0 e0       	ldi	r31, 0x00	; 0
    26a8:	ed 5b       	subi	r30, 0xBD	; 189
    26aa:	fe 4b       	sbci	r31, 0xBE	; 190
    26ac:	80 81       	ld	r24, Z
    26ae:	88 83       	st	Y, r24

		DIGIT[1][3] = fnd_tbl[RTC_T.Date / 10];				// └╧ ╟е╜├
    26b0:	f8 01       	movw	r30, r16
    26b2:	84 81       	ldd	r24, Z+4	; 0x04
    26b4:	8f 9d       	mul	r24, r15
    26b6:	91 2d       	mov	r25, r1
    26b8:	11 24       	eor	r1, r1
    26ba:	96 95       	lsr	r25
    26bc:	96 95       	lsr	r25
    26be:	96 95       	lsr	r25
    26c0:	e9 2f       	mov	r30, r25
    26c2:	f0 e0       	ldi	r31, 0x00	; 0
    26c4:	ed 5b       	subi	r30, 0xBD	; 189
    26c6:	fe 4b       	sbci	r31, 0xBE	; 190
    26c8:	20 81       	ld	r18, Z
    26ca:	2f 83       	std	Y+7, r18	; 0x07
		DIGIT[1][2] = fnd_tbl[RTC_T.Date % 10];
    26cc:	99 0f       	add	r25, r25
    26ce:	29 2f       	mov	r18, r25
    26d0:	22 0f       	add	r18, r18
    26d2:	22 0f       	add	r18, r18
    26d4:	92 0f       	add	r25, r18
    26d6:	e8 2f       	mov	r30, r24
    26d8:	e9 1b       	sub	r30, r25
    26da:	f0 e0       	ldi	r31, 0x00	; 0
    26dc:	ed 5b       	subi	r30, 0xBD	; 189
    26de:	fe 4b       	sbci	r31, 0xBE	; 190
    26e0:	80 81       	ld	r24, Z
    26e2:	8e 83       	std	Y+6, r24	; 0x06

		DIGIT[1][1] = fnd_tbl[RTC_T.Hour / 10];				// ╜├ ╟е╜├
    26e4:	f8 01       	movw	r30, r16
    26e6:	82 81       	ldd	r24, Z+2	; 0x02
    26e8:	8f 9d       	mul	r24, r15
    26ea:	91 2d       	mov	r25, r1
    26ec:	11 24       	eor	r1, r1
    26ee:	96 95       	lsr	r25
    26f0:	96 95       	lsr	r25
    26f2:	96 95       	lsr	r25
    26f4:	e9 2f       	mov	r30, r25
    26f6:	f0 e0       	ldi	r31, 0x00	; 0
    26f8:	ed 5b       	subi	r30, 0xBD	; 189
    26fa:	fe 4b       	sbci	r31, 0xBE	; 190
    26fc:	20 81       	ld	r18, Z
    26fe:	2d 83       	std	Y+5, r18	; 0x05
		DIGIT[1][0] = fnd_tbl[RTC_T.Hour % 10];
    2700:	99 0f       	add	r25, r25
    2702:	29 2f       	mov	r18, r25
    2704:	22 0f       	add	r18, r18
    2706:	22 0f       	add	r18, r18
    2708:	92 0f       	add	r25, r18
    270a:	e8 2f       	mov	r30, r24
    270c:	e9 1b       	sub	r30, r25
    270e:	f0 e0       	ldi	r31, 0x00	; 0
    2710:	ed 5b       	subi	r30, 0xBD	; 189
    2712:	fe 4b       	sbci	r31, 0xBE	; 190
    2714:	80 81       	ld	r24, Z
    2716:	8c 83       	std	Y+4, r24	; 0x04

		DIGIT[2][3] = fnd_tbl[RTC_T.Min / 10];				// ║╨ ╟е╜├
    2718:	f8 01       	movw	r30, r16
    271a:	81 81       	ldd	r24, Z+1	; 0x01
    271c:	8f 9d       	mul	r24, r15
    271e:	91 2d       	mov	r25, r1
    2720:	11 24       	eor	r1, r1
    2722:	96 95       	lsr	r25
    2724:	96 95       	lsr	r25
    2726:	96 95       	lsr	r25
    2728:	e9 2f       	mov	r30, r25
    272a:	f0 e0       	ldi	r31, 0x00	; 0
    272c:	ed 5b       	subi	r30, 0xBD	; 189
    272e:	fe 4b       	sbci	r31, 0xBE	; 190
    2730:	20 81       	ld	r18, Z
    2732:	2b 87       	std	Y+11, r18	; 0x0b
		DIGIT[2][2] = fnd_tbl[RTC_T.Min % 10];
    2734:	99 0f       	add	r25, r25
    2736:	29 2f       	mov	r18, r25
    2738:	22 0f       	add	r18, r18
    273a:	22 0f       	add	r18, r18
    273c:	92 0f       	add	r25, r18
    273e:	e8 2f       	mov	r30, r24
    2740:	e9 1b       	sub	r30, r25
    2742:	f0 e0       	ldi	r31, 0x00	; 0
    2744:	ed 5b       	subi	r30, 0xBD	; 189
    2746:	fe 4b       	sbci	r31, 0xBE	; 190
    2748:	80 81       	ld	r24, Z
    274a:	8a 87       	std	Y+10, r24	; 0x0a

		DIGIT[2][1] = fnd_tbl[RTC_T.Sec / 10];				// ├╩ ╟е╜├
    274c:	f8 01       	movw	r30, r16
    274e:	90 81       	ld	r25, Z
    2750:	9f 9d       	mul	r25, r15
    2752:	81 2d       	mov	r24, r1
    2754:	11 24       	eor	r1, r1
    2756:	86 95       	lsr	r24
    2758:	86 95       	lsr	r24
    275a:	86 95       	lsr	r24
    275c:	e8 2f       	mov	r30, r24
    275e:	f0 e0       	ldi	r31, 0x00	; 0
    2760:	ed 5b       	subi	r30, 0xBD	; 189
    2762:	fe 4b       	sbci	r31, 0xBE	; 190
    2764:	20 81       	ld	r18, Z
    2766:	29 87       	std	Y+9, r18	; 0x09
		DIGIT[2][0] = fnd_tbl[RTC_T.Sec % 10];
    2768:	88 0f       	add	r24, r24
    276a:	28 2f       	mov	r18, r24
    276c:	22 0f       	add	r18, r18
    276e:	22 0f       	add	r18, r18
    2770:	82 0f       	add	r24, r18
    2772:	e9 2f       	mov	r30, r25
    2774:	e8 1b       	sub	r30, r24
    2776:	f0 e0       	ldi	r31, 0x00	; 0
    2778:	ed 5b       	subi	r30, 0xBD	; 189
    277a:	fe 4b       	sbci	r31, 0xBE	; 190
    277c:	80 81       	ld	r24, Z
    277e:	88 87       	std	Y+8, r24	; 0x08

		if(SECOND != RTC_T.Sec)						// └╠└№ ╜├░г(├╩)└╠ ╟І└ч╜├░г(├╩)┐═ ░░┴І ╛╩└╕╕щ
    2780:	80 91 8f 52 	lds	r24, 0x528F	; 0x80528f <SECOND>
    2784:	98 17       	cp	r25, r24
    2786:	61 f0       	breq	.+24     	; 0x27a0 <main+0x250>
		{
			SECOND = RTC_T.Sec;					// └╠└№ ╜├░г(├╩)┐б ╟І└ч╜├░г(├╩) └·└х
    2788:	90 93 8f 52 	sts	0x528F, r25	; 0x80528f <SECOND>
			Beep(10);						// ║ё╟┴(1├╩┐б 1╣Ї╛┐)
    278c:	8a e0       	ldi	r24, 0x0A	; 10
    278e:	90 e0       	ldi	r25, 0x00	; 0
    2790:	0e 94 42 04 	call	0x884	; 0x884 <Beep>
#endif

//=================================================================================================
void wdt_reset(void)								// Reset WDT
{
	asm("WDR");								// Reset WDT
    2794:	a8 95       	wdr
		if(SECOND != RTC_T.Sec)						// └╠└№ ╜├░г(├╩)└╠ ╟І└ч╜├░г(├╩)┐═ ░░┴І ╛╩└╕╕щ
		{
			SECOND = RTC_T.Sec;					// └╠└№ ╜├░г(├╩)┐б ╟І└ч╜├░г(├╩) └·└х
			Beep(10);						// ║ё╟┴(1├╩┐б 1╣Ї╛┐)
			wdt_reset();						// Reset WDT
			Time_Count--;						// Time_Count ░и╝╥
    2796:	80 91 8a 52 	lds	r24, 0x528A	; 0x80528a <Time_Count>
    279a:	81 50       	subi	r24, 0x01	; 1
    279c:	80 93 8a 52 	sts	0x528A, r24	; 0x80528a <Time_Count>
	Time_Count = 5;								// ╜├░г ╟е╜├ ┐ы ║п╝І ╝│┴д
	Sec_Count = 0;
	SECOND = 0;								// └╠└№ ╜├░г(├╩)┐ы ║п╝І ╝│┴д
	Read_eeprom();
//-------------------------------------------------------------------------------------------------
	while(Time_Count)							// Time_Count ░б 0└╠ ╛╞┤╧╕щ ╣▌║╣(5├╩╡┐╛╚ ╜├░г╟е╜├)
    27a0:	80 91 8a 52 	lds	r24, 0x528A	; 0x80528a <Time_Count>
    27a4:	81 11       	cpse	r24, r1
    27a6:	4e cf       	rjmp	.-356    	; 0x2644 <main+0xf4>
			Beep(10);						// ║ё╟┴(1├╩┐б 1╣Ї╛┐)
			wdt_reset();						// Reset WDT
			Time_Count--;						// Time_Count ░и╝╥
		}
	}
	Var_Init();								// ║п╝І ╣╫ ╖╬╡х╝┐ ├╩▒т╚н
    27a8:	0e 94 5c 11 	call	0x22b8	; 0x22b8 <Var_Init>
#endif

//=================================================================================================
void wdt_reset(void)								// Reset WDT
{
	asm("WDR");								// Reset WDT
    27ac:	a8 95       	wdr
	while(1)
	{
 		if(Sec_Count < 360) {Check_Value();}				// 5Sec x 360 = 1800Sec(30║╨) ║╕┤┘ ┼й╕щ FND ALL OFF
		else
		{
			while(!KEY.Buff)
    27ae:	cb e4       	ldi	r28, 0x4B	; 75
    27b0:	d1 e5       	ldi	r29, 0x51	; 81
			}
			KEY.Buff = 0;
			Var_Init();						// ║п╝І ╣╫ ╖╬╡х╝┐ ├╩▒т╚н
		}

		if(SET.Menu)   {Seting_Mode_0();}				// SET Menu   ░б ╝│┴д╡╟╛ю └╓└╕╕щ Seting_Mode_0 ┴Ї└╘
    27b2:	0e e0       	ldi	r16, 0x0E	; 14
    27b4:	11 e5       	ldi	r17, 0x51	; 81
	wdt_reset();								// Reset WDT

//-------------------------------------------------------------------------------------------------
	while(1)
	{
 		if(Sec_Count < 360) {Check_Value();}				// 5Sec x 360 = 1800Sec(30║╨) ║╕┤┘ ┼й╕щ FND ALL OFF
    27b6:	80 91 81 52 	lds	r24, 0x5281	; 0x805281 <Sec_Count>
    27ba:	90 91 82 52 	lds	r25, 0x5282	; 0x805282 <Sec_Count+0x1>
    27be:	88 36       	cpi	r24, 0x68	; 104
    27c0:	91 40       	sbci	r25, 0x01	; 1
    27c2:	20 f0       	brcs	.+8      	; 0x27cc <main+0x27c>
		else
		{
			while(!KEY.Buff)
    27c4:	89 81       	ldd	r24, Y+1	; 0x01
    27c6:	88 23       	and	r24, r24
    27c8:	21 f0       	breq	.+8      	; 0x27d2 <main+0x282>
    27ca:	16 c0       	rjmp	.+44     	; 0x27f8 <main+0x2a8>
	wdt_reset();								// Reset WDT

//-------------------------------------------------------------------------------------------------
	while(1)
	{
 		if(Sec_Count < 360) {Check_Value();}				// 5Sec x 360 = 1800Sec(30║╨) ║╕┤┘ ┼й╕щ FND ALL OFF
    27cc:	0e 94 4e 0b 	call	0x169c	; 0x169c <Check_Value>
    27d0:	16 c0       	rjmp	.+44     	; 0x27fe <main+0x2ae>
		else
		{
			while(!KEY.Buff)
			{
				FND_ALL_OFF();					// FND └№║╬
    27d2:	0e 94 ea 05 	call	0xbd4	; 0xbd4 <FND_ALL_OFF>
  				Receiv_PC();					// PC╖╬ ║╬┼═ ╡е└╠┼═╝І╜┼ ╚о└╬
    27d6:	0e 94 2b 0f 	call	0x1e56	; 0x1e56 <Receiv_PC>
  				Time_Check();					// ╜├░г ├╝┼й(│п┬е║п░ц ╚о└╬)
    27da:	0e 94 62 10 	call	0x20c4	; 0x20c4 <Time_Check>
    27de:	2f ef       	ldi	r18, 0xFF	; 255
    27e0:	8f e3       	ldi	r24, 0x3F	; 63
    27e2:	92 e0       	ldi	r25, 0x02	; 2
    27e4:	21 50       	subi	r18, 0x01	; 1
    27e6:	80 40       	sbci	r24, 0x00	; 0
    27e8:	90 40       	sbci	r25, 0x00	; 0
    27ea:	e1 f7       	brne	.-8      	; 0x27e4 <main+0x294>
    27ec:	00 c0       	rjmp	.+0      	; 0x27ee <main+0x29e>
    27ee:	00 00       	nop
#endif

//=================================================================================================
void wdt_reset(void)								// Reset WDT
{
	asm("WDR");								// Reset WDT
    27f0:	a8 95       	wdr
	while(1)
	{
 		if(Sec_Count < 360) {Check_Value();}				// 5Sec x 360 = 1800Sec(30║╨) ║╕┤┘ ┼й╕щ FND ALL OFF
		else
		{
			while(!KEY.Buff)
    27f2:	89 81       	ldd	r24, Y+1	; 0x01
    27f4:	88 23       	and	r24, r24
    27f6:	69 f3       	breq	.-38     	; 0x27d2 <main+0x282>
  				Receiv_PC();					// PC╖╬ ║╬┼═ ╡е└╠┼═╝І╜┼ ╚о└╬
  				Time_Check();					// ╜├░г ├╝┼й(│п┬е║п░ц ╚о└╬)
  				_delay_ms(50);					// ┐м╝╙ ╡┐└█└╗ ╕╖▒т└з╟╤ Delay
				wdt_reset();					// Reset WDT
			}
			KEY.Buff = 0;
    27f8:	19 82       	std	Y+1, r1	; 0x01
			Var_Init();						// ║п╝І ╣╫ ╖╬╡х╝┐ ├╩▒т╚н
    27fa:	0e 94 5c 11 	call	0x22b8	; 0x22b8 <Var_Init>
		}

		if(SET.Menu)   {Seting_Mode_0();}				// SET Menu   ░б ╝│┴д╡╟╛ю └╓└╕╕щ Seting_Mode_0 ┴Ї└╘
    27fe:	f8 01       	movw	r30, r16
    2800:	80 81       	ld	r24, Z
    2802:	81 11       	cpse	r24, r1
    2804:	0e 94 bd 11 	call	0x237a	; 0x237a <Seting_Mode_0>
		if(SET.NumSET) {Seting_Mode_1();}				// SET.NumSET ░б ╝│┴д╡╟╛ю └╓└╕╕щ Seting_Mode_1 ┴Ї└╘
    2808:	f8 01       	movw	r30, r16
    280a:	82 81       	ldd	r24, Z+2	; 0x02
    280c:	81 11       	cpse	r24, r1
    280e:	0e 94 6d 09 	call	0x12da	; 0x12da <Seting_Mode_1>
		Receiv_PC();							// PC╖╬ ║╬┼═ ╡е└╠┼═╝І╜┼ ╚о└╬
    2812:	0e 94 2b 0f 	call	0x1e56	; 0x1e56 <Receiv_PC>
		Time_Check();							// ╜├░г ├╝┼й(│п┬е║п░ц ╚о└╬)
    2816:	0e 94 62 10 	call	0x20c4	; 0x20c4 <Time_Check>
    281a:	ff ef       	ldi	r31, 0xFF	; 255
    281c:	2f e3       	ldi	r18, 0x3F	; 63
    281e:	82 e0       	ldi	r24, 0x02	; 2
    2820:	f1 50       	subi	r31, 0x01	; 1
    2822:	20 40       	sbci	r18, 0x00	; 0
    2824:	80 40       	sbci	r24, 0x00	; 0
    2826:	e1 f7       	brne	.-8      	; 0x2820 <main+0x2d0>
    2828:	00 c0       	rjmp	.+0      	; 0x282a <main+0x2da>
    282a:	00 00       	nop
#endif

//=================================================================================================
void wdt_reset(void)								// Reset WDT
{
	asm("WDR");								// Reset WDT
    282c:	a8 95       	wdr
    282e:	c3 cf       	rjmp	.-122    	; 0x27b6 <main+0x266>

00002830 <wdt_reset>:
    2830:	a8 95       	wdr
    2832:	08 95       	ret

00002834 <BOD_init>:
    2834:	10 92 89 00 	sts	0x0089, r1	; 0x800089 <__TEXT_REGION_LENGTH__+0x7e0089>
    2838:	80 e0       	ldi	r24, 0x00	; 0
    283a:	08 95       	ret

0000283c <CLKCTRL_init>:
    283c:	43 e0       	ldi	r20, 0x03	; 3
    283e:	68 ed       	ldi	r22, 0xD8	; 216
    2840:	80 e6       	ldi	r24, 0x60	; 96
    2842:	90 e0       	ldi	r25, 0x00	; 0
    2844:	0e 94 d0 2a 	call	0x55a0	; 0x55a0 <protected_write_io>
    2848:	e0 e6       	ldi	r30, 0x60	; 96
    284a:	f0 e0       	ldi	r31, 0x00	; 0
    284c:	83 81       	ldd	r24, Z+3	; 0x03
    284e:	80 fd       	sbrc	r24, 0
    2850:	fd cf       	rjmp	.-6      	; 0x284c <CLKCTRL_init+0x10>
    2852:	80 e0       	ldi	r24, 0x00	; 0
    2854:	08 95       	ret

00002856 <mcu_init>:
#ifdef __cplusplus
extern "C" {
#endif

void mcu_init(void)
{
    2856:	e0 e1       	ldi	r30, 0x10	; 16
    2858:	f4 e0       	ldi	r31, 0x04	; 4
	 * peripheral if used */

	/* Set all pins to low power mode */

	for (uint8_t i = 0; i < 8; i++) {
		*((uint8_t *)&PORTA + 0x10 + i) |= 1 << PORT_PULLUPEN_bp;
    285a:	80 81       	ld	r24, Z
    285c:	88 60       	ori	r24, 0x08	; 8
    285e:	81 93       	st	Z+, r24
	 * disables all peripherals to save power. Driver shall enable
	 * peripheral if used */

	/* Set all pins to low power mode */

	for (uint8_t i = 0; i < 8; i++) {
    2860:	e8 31       	cpi	r30, 0x18	; 24
    2862:	84 e0       	ldi	r24, 0x04	; 4
    2864:	f8 07       	cpc	r31, r24
    2866:	c9 f7       	brne	.-14     	; 0x285a <mcu_init+0x4>
    2868:	e0 e3       	ldi	r30, 0x30	; 48
    286a:	f4 e0       	ldi	r31, 0x04	; 4
		*((uint8_t *)&PORTA + 0x10 + i) |= 1 << PORT_PULLUPEN_bp;
	}

	for (uint8_t i = 0; i < 8; i++) {
		*((uint8_t *)&PORTB + 0x10 + i) |= 1 << PORT_PULLUPEN_bp;
    286c:	80 81       	ld	r24, Z
    286e:	88 60       	ori	r24, 0x08	; 8
    2870:	81 93       	st	Z+, r24

	for (uint8_t i = 0; i < 8; i++) {
		*((uint8_t *)&PORTA + 0x10 + i) |= 1 << PORT_PULLUPEN_bp;
	}

	for (uint8_t i = 0; i < 8; i++) {
    2872:	e8 33       	cpi	r30, 0x38	; 56
    2874:	84 e0       	ldi	r24, 0x04	; 4
    2876:	f8 07       	cpc	r31, r24
    2878:	c9 f7       	brne	.-14     	; 0x286c <mcu_init+0x16>
    287a:	e0 e5       	ldi	r30, 0x50	; 80
    287c:	f4 e0       	ldi	r31, 0x04	; 4
		*((uint8_t *)&PORTB + 0x10 + i) |= 1 << PORT_PULLUPEN_bp;
	}

	for (uint8_t i = 0; i < 8; i++) {
		*((uint8_t *)&PORTC + 0x10 + i) |= 1 << PORT_PULLUPEN_bp;
    287e:	80 81       	ld	r24, Z
    2880:	88 60       	ori	r24, 0x08	; 8
    2882:	81 93       	st	Z+, r24

	for (uint8_t i = 0; i < 8; i++) {
		*((uint8_t *)&PORTB + 0x10 + i) |= 1 << PORT_PULLUPEN_bp;
	}

	for (uint8_t i = 0; i < 8; i++) {
    2884:	e8 35       	cpi	r30, 0x58	; 88
    2886:	84 e0       	ldi	r24, 0x04	; 4
    2888:	f8 07       	cpc	r31, r24
    288a:	c9 f7       	brne	.-14     	; 0x287e <mcu_init+0x28>
    288c:	e0 e7       	ldi	r30, 0x70	; 112
    288e:	f4 e0       	ldi	r31, 0x04	; 4
		*((uint8_t *)&PORTC + 0x10 + i) |= 1 << PORT_PULLUPEN_bp;
	}

	for (uint8_t i = 0; i < 8; i++) {
		*((uint8_t *)&PORTD + 0x10 + i) |= 1 << PORT_PULLUPEN_bp;
    2890:	80 81       	ld	r24, Z
    2892:	88 60       	ori	r24, 0x08	; 8
    2894:	81 93       	st	Z+, r24

	for (uint8_t i = 0; i < 8; i++) {
		*((uint8_t *)&PORTC + 0x10 + i) |= 1 << PORT_PULLUPEN_bp;
	}

	for (uint8_t i = 0; i < 8; i++) {
    2896:	e8 37       	cpi	r30, 0x78	; 120
    2898:	84 e0       	ldi	r24, 0x04	; 4
    289a:	f8 07       	cpc	r31, r24
    289c:	c9 f7       	brne	.-14     	; 0x2890 <mcu_init+0x3a>
    289e:	e0 e9       	ldi	r30, 0x90	; 144
    28a0:	f4 e0       	ldi	r31, 0x04	; 4
		*((uint8_t *)&PORTD + 0x10 + i) |= 1 << PORT_PULLUPEN_bp;
	}

	for (uint8_t i = 0; i < 8; i++) {
		*((uint8_t *)&PORTE + 0x10 + i) |= 1 << PORT_PULLUPEN_bp;
    28a2:	80 81       	ld	r24, Z
    28a4:	88 60       	ori	r24, 0x08	; 8
    28a6:	81 93       	st	Z+, r24

	for (uint8_t i = 0; i < 8; i++) {
		*((uint8_t *)&PORTD + 0x10 + i) |= 1 << PORT_PULLUPEN_bp;
	}

	for (uint8_t i = 0; i < 8; i++) {
    28a8:	e8 39       	cpi	r30, 0x98	; 152
    28aa:	84 e0       	ldi	r24, 0x04	; 4
    28ac:	f8 07       	cpc	r31, r24
    28ae:	c9 f7       	brne	.-14     	; 0x28a2 <mcu_init+0x4c>
    28b0:	e0 eb       	ldi	r30, 0xB0	; 176
    28b2:	f4 e0       	ldi	r31, 0x04	; 4
		*((uint8_t *)&PORTE + 0x10 + i) |= 1 << PORT_PULLUPEN_bp;
	}

	for (uint8_t i = 0; i < 8; i++) {
		*((uint8_t *)&PORTF + 0x10 + i) |= 1 << PORT_PULLUPEN_bp;
    28b4:	80 81       	ld	r24, Z
    28b6:	88 60       	ori	r24, 0x08	; 8
    28b8:	81 93       	st	Z+, r24

	for (uint8_t i = 0; i < 8; i++) {
		*((uint8_t *)&PORTE + 0x10 + i) |= 1 << PORT_PULLUPEN_bp;
	}

	for (uint8_t i = 0; i < 8; i++) {
    28ba:	e8 3b       	cpi	r30, 0xB8	; 184
    28bc:	84 e0       	ldi	r24, 0x04	; 4
    28be:	f8 07       	cpc	r31, r24
    28c0:	c9 f7       	brne	.-14     	; 0x28b4 <mcu_init+0x5e>
    28c2:	e0 ed       	ldi	r30, 0xD0	; 208
    28c4:	f4 e0       	ldi	r31, 0x04	; 4
		*((uint8_t *)&PORTF + 0x10 + i) |= 1 << PORT_PULLUPEN_bp;
	}

	for (uint8_t i = 0; i < 8; i++) {
		*((uint8_t *)&PORTG + 0x10 + i) |= 1 << PORT_PULLUPEN_bp;
    28c6:	80 81       	ld	r24, Z
    28c8:	88 60       	ori	r24, 0x08	; 8
    28ca:	81 93       	st	Z+, r24

	for (uint8_t i = 0; i < 8; i++) {
		*((uint8_t *)&PORTF + 0x10 + i) |= 1 << PORT_PULLUPEN_bp;
	}

	for (uint8_t i = 0; i < 8; i++) {
    28cc:	e8 3d       	cpi	r30, 0xD8	; 216
    28ce:	84 e0       	ldi	r24, 0x04	; 4
    28d0:	f8 07       	cpc	r31, r24
    28d2:	c9 f7       	brne	.-14     	; 0x28c6 <mcu_init+0x70>
		*((uint8_t *)&PORTG + 0x10 + i) |= 1 << PORT_PULLUPEN_bp;
	}
}
    28d4:	08 95       	ret

000028d6 <I2C_0_initialization>:
static inline void PORTF_set_pin_level(const uint8_t pin, const bool level)
{
	if (level == true) {
		VPORTF.OUT |= (1 << pin);
	} else {
		VPORTF.OUT &= ~(1 << pin);
    28d6:	ab 98       	cbi	0x15, 3	; 21
	switch (dir) {
	case PORT_DIR_IN:
		VPORTF.DIR &= ~(1 << pin);
		break;
	case PORT_DIR_OUT:
		VPORTF.DIR |= (1 << pin);
    28d8:	a3 9a       	sbi	0x14, 3	; 20
	volatile uint8_t *port_pin_ctrl = ((uint8_t *)&PORTF + 0x10 + pin);

	if (pull_mode == PORT_PULL_UP) {
		*port_pin_ctrl |= PORT_PULLUPEN_bm;
	} else if (pull_mode == PORT_PULL_OFF) {
		*port_pin_ctrl &= ~PORT_PULLUPEN_bm;
    28da:	e3 eb       	ldi	r30, 0xB3	; 179
    28dc:	f4 e0       	ldi	r31, 0x04	; 4
    28de:	80 81       	ld	r24, Z
    28e0:	87 7f       	andi	r24, 0xF7	; 247
    28e2:	80 83       	st	Z, r24
	volatile uint8_t *port_pin_ctrl = ((uint8_t *)&PORTF + 0x10 + pin);

	if (inverted) {
		*port_pin_ctrl |= PORT_INVEN_bm;
	} else {
		*port_pin_ctrl &= ~PORT_INVEN_bm;
    28e4:	80 81       	ld	r24, Z
    28e6:	8f 77       	andi	r24, 0x7F	; 127
    28e8:	80 83       	st	Z, r24
 */
static inline void PORTF_pin_set_isc(const uint8_t pin, const PORT_ISC_t isc)
{
	volatile uint8_t *port_pin_ctrl = ((uint8_t *)&PORTF + 0x10 + pin);

	*port_pin_ctrl = (*port_pin_ctrl & ~PORT_ISC_gm) | isc;
    28ea:	80 81       	ld	r24, Z
    28ec:	88 7f       	andi	r24, 0xF8	; 248
    28ee:	80 83       	st	Z, r24
static inline void PORTF_set_pin_level(const uint8_t pin, const bool level)
{
	if (level == true) {
		VPORTF.OUT |= (1 << pin);
	} else {
		VPORTF.OUT &= ~(1 << pin);
    28f0:	aa 98       	cbi	0x15, 2	; 21
	switch (dir) {
	case PORT_DIR_IN:
		VPORTF.DIR &= ~(1 << pin);
		break;
	case PORT_DIR_OUT:
		VPORTF.DIR |= (1 << pin);
    28f2:	a2 9a       	sbi	0x14, 2	; 20
	volatile uint8_t *port_pin_ctrl = ((uint8_t *)&PORTF + 0x10 + pin);

	if (pull_mode == PORT_PULL_UP) {
		*port_pin_ctrl |= PORT_PULLUPEN_bm;
	} else if (pull_mode == PORT_PULL_OFF) {
		*port_pin_ctrl &= ~PORT_PULLUPEN_bm;
    28f4:	e2 eb       	ldi	r30, 0xB2	; 178
    28f6:	f4 e0       	ldi	r31, 0x04	; 4
    28f8:	80 81       	ld	r24, Z
    28fa:	87 7f       	andi	r24, 0xF7	; 247
    28fc:	80 83       	st	Z, r24
	volatile uint8_t *port_pin_ctrl = ((uint8_t *)&PORTF + 0x10 + pin);

	if (inverted) {
		*port_pin_ctrl |= PORT_INVEN_bm;
	} else {
		*port_pin_ctrl &= ~PORT_INVEN_bm;
    28fe:	80 81       	ld	r24, Z
    2900:	8f 77       	andi	r24, 0x7F	; 127
    2902:	80 83       	st	Z, r24
 */
static inline void PORTF_pin_set_isc(const uint8_t pin, const PORT_ISC_t isc)
{
	volatile uint8_t *port_pin_ctrl = ((uint8_t *)&PORTF + 0x10 + pin);

	*port_pin_ctrl = (*port_pin_ctrl & ~PORT_ISC_gm) | isc;
    2904:	80 81       	ld	r24, Z
    2906:	88 7f       	andi	r24, 0xF8	; 248
    2908:	80 83       	st	Z, r24
	// <PORT_ISC_FALLING_gc"> Sense Falling Edge
	// <PORT_ISC_INPUT_DISABLE_gc"> Digital Input Buffer disabled
	// <PORT_ISC_LEVEL_gc"> Sense low Level
	PORT_ISC_INTDISABLE_gc);

	I2C_0_init();
    290a:	0e 94 c0 17 	call	0x2f80	; 0x2f80 <I2C_0_init>
    290e:	08 95       	ret

00002910 <USART_1_initialization>:
//=================================================================================================
#ifdef Usart_1
void USART_1_initialization(void)			// USART 1 └╟ ╟╔└╗ ╝│┴д╟╧░э ╖╣┴І╜║┼═╕ж ├╩▒т╚н
{
	#if Usart_1 == 0
	PORTMUX.USARTROUTEA &= ~PORTMUX_USART10_bm;	// USART 1 ╝█,╝І╜┼ : Pin PC0, PC1 ╖╬ ║п░ц
    2910:	e0 ee       	ldi	r30, 0xE0	; 224
    2912:	f5 e0       	ldi	r31, 0x05	; 5
    2914:	82 81       	ldd	r24, Z+2	; 0x02
    2916:	8b 7f       	andi	r24, 0xFB	; 251
    2918:	82 83       	std	Z+2, r24	; 0x02
	PORTC.DIR |=  PIN0_bm;				// set pin 0 of	PORT C (TXd) as	output (PORT C (TXd)└╟ 0╣Ї ╟╔└╗ ├т╖┬└╕╖╬ ╝│┴д)
    291a:	e0 e4       	ldi	r30, 0x40	; 64
    291c:	f4 e0       	ldi	r31, 0x04	; 4
    291e:	80 81       	ld	r24, Z
    2920:	81 60       	ori	r24, 0x01	; 1
    2922:	80 83       	st	Z, r24
	PORTC.DIR &= ~PIN1_bm;				// set pin 1 of	PORT C (RXd) as	input  (PORT C (RXd)└╟ 1╣Ї ╟╔└╗ └╘╖┬└╕╖╬ ╝│┴д)
    2924:	80 81       	ld	r24, Z
    2926:	8d 7f       	andi	r24, 0xFD	; 253
    2928:	80 83       	st	Z, r24
	#elif Usart_1 == 1
	PORTMUX.USARTROUTEA |= PORTMUX_USART10_bm;	// USART 1 ╝█,╝І╜┼ : Pin PC4, PC5 ╖╬ ║п░ц
	PORTC.DIR |=  PIN4_bm;				// set pin 4 of	PORT C (TXd) as	output (PORT C (TXd)└╟ 4╣Ї ╟╔└╗ ├т╖┬└╕╖╬ ╝│┴д)
	PORTC.DIR &= ~PIN5_bm;				// set pin 5 of	PORT C (RXd) as	input  (PORT C (RXd)└╟ 5╣Ї ╟╔└╗ └╘╖┬└╕╖╬ ╝│┴д)
	#endif
	USART_1_init();
    292a:	0e 94 a1 2e 	call	0x5d42	; 0x5d42 <USART_1_init>
    292e:	08 95       	ret

00002930 <USART_3_initialization>:
//=================================================================================================
#ifdef Usart_3
void USART_3_initialization(void)			// USART 3 └╟ ╟╔└╗ ╝│┴д╟╧░э ╖╣┴І╜║┼═╕ж ├╩▒т╚н
{
	#if Usart_3 == 0
	PORTMUX.USARTROUTEA &= ~PORTMUX_USART30_bm;	// USART 3 ╝█,╝І╜┼ : Pin PB0, PB1 ╖╬ ║п░ц
    2930:	e0 ee       	ldi	r30, 0xE0	; 224
    2932:	f5 e0       	ldi	r31, 0x05	; 5
    2934:	82 81       	ldd	r24, Z+2	; 0x02
    2936:	8f 7b       	andi	r24, 0xBF	; 191
    2938:	82 83       	std	Z+2, r24	; 0x02
	PORTB.DIR |=  PIN0_bm;				// set pin 0 of	PORT B (TXd) as	output (PORT B (TXd)└╟ 0╣Ї ╟╔└╗ ├т╖┬└╕╖╬ ╝│┴д)
    293a:	e0 e2       	ldi	r30, 0x20	; 32
    293c:	f4 e0       	ldi	r31, 0x04	; 4
    293e:	80 81       	ld	r24, Z
    2940:	81 60       	ori	r24, 0x01	; 1
    2942:	80 83       	st	Z, r24
	PORTB.DIR &= ~PIN1_bm;				// set pin 1 of	PORT B (RXd) as	input  (PORT B (RXd)└╟ 1╣Ї ╟╔└╗ └╘╖┬└╕╖╬ ╝│┴д)
    2944:	80 81       	ld	r24, Z
    2946:	8d 7f       	andi	r24, 0xFD	; 253
    2948:	80 83       	st	Z, r24
	#elif Usart_3 == 1
	PORTMUX.USARTROUTEA |= PORTMUX_USART30_bm;	// USART 3 ╝█,╝І╜┼ : Pin PB4, PB5 ╖╬ ║п░ц
	PORTB.DIR |=  PIN4_bm;				// set pin 4 of	PORT B (TXd) as output (PORT B (TXd)└╟ 4╣Ї ╟╔└╗ ├т╖┬└╕╖╬ ╝│┴д)
	PORTB.DIR &= ~PIN5_bm;				// set pin 5 of	PORT B (RXd) as input  (PORT B (RXd)└╟ 5╣Ї ╟╔└╗ └╘╖┬└╕╖╬ ╝│┴д)
	#endif
	USART_3_init();
    294a:	0e 94 b7 2e 	call	0x5d6e	; 0x5d6e <USART_3_init>
    294e:	08 95       	ret

00002950 <system_init>:
#endif

//=================================================================================================
void system_init()
{
	mcu_init();
    2950:	0e 94 2b 14 	call	0x2856	; 0x2856 <mcu_init>
//-------------------------------------------------------------------------------------------------
	CLKCTRL_init();
    2954:	0e 94 1e 14 	call	0x283c	; 0x283c <CLKCTRL_init>
#ifdef Usart_0
	USART_0_initialization();			// USART 0 └╟ ╟╔└╗ ╝│┴д╟╧░э ╖╣┴І╜║┼═╕ж ├╩▒т╚н
#endif
//-------------------------------------------------------------------------------------------------
#ifdef Usart_1
	USART_1_initialization();			// USART 1 └╟ ╟╔└╗ ╝│┴д╟╧░э ╖╣┴І╜║┼═╕ж ├╩▒т╚н
    2958:	0e 94 88 14 	call	0x2910	; 0x2910 <USART_1_initialization>
#ifdef Usart_2
	USART_2_initialization();			// USART 2 └╟ ╟╔└╗ ╝│┴д╟╧░э ╖╣┴І╜║┼═╕ж ├╩▒т╚н
#endif
//-------------------------------------------------------------------------------------------------
#ifdef Usart_3
 	USART_3_initialization();			// USART 3 └╟ ╟╔└╗ ╝│┴д╟╧░э ╖╣┴І╜║┼═╕ж ├╩▒т╚н
    295c:	0e 94 98 14 	call	0x2930	; 0x2930 <USART_3_initialization>
//-------------------------------------------------------------------------------------------------
#ifdef PWM_SET
	PWM_0_initialization();					// PWM0 └╟ ╟╔└╗ ╝│┴д╟╧░э ╖╣┴І╜║┼═╕ж ├╩▒т╚н
#endif
//-------------------------------------------------------------------------------------------------
	SLPCTRL_init();
    2960:	0e 94 93 2e 	call	0x5d26	; 0x5d26 <SLPCTRL_init>
#ifdef Timer_0
	TIMER_0_init();
#endif
//-------------------------------------------------------------------------------------------------
#ifdef Timer_1
	TIMER_1_init();
    2964:	0e 94 95 2e 	call	0x5d2a	; 0x5d2a <TIMER_1_init>
#endif
//-------------------------------------------------------------------------------------------------
	BOD_init();
    2968:	0e 94 1a 14 	call	0x2834	; 0x2834 <BOD_init>
//-------------------------------------------------------------------------------------------------
	WDT_init();
    296c:	0e 94 f9 2e 	call	0x5df2	; 0x5df2 <WDT_init>
//-------------------------------------------------------------------------------------------------
	I2C_0_initialization();
    2970:	0e 94 6b 14 	call	0x28d6	; 0x28d6 <I2C_0_initialization>
    2974:	08 95       	ret

00002976 <ee_read_byte>:
    2976:	81 15       	cp	r24, r1
    2978:	22 e0       	ldi	r18, 0x02	; 2
    297a:	92 07       	cpc	r25, r18
    297c:	10 f0       	brcs	.+4      	; 0x2982 <ee_read_byte+0xc>
    297e:	8f ef       	ldi	r24, 0xFF	; 255
    2980:	91 e0       	ldi	r25, 0x01	; 1
    2982:	fc 01       	movw	r30, r24
    2984:	fc 5e       	subi	r31, 0xEC	; 236
    2986:	80 81       	ld	r24, Z
    2988:	08 95       	ret

0000298a <ee_read_word>:
    298a:	8f 3f       	cpi	r24, 0xFF	; 255
    298c:	21 e0       	ldi	r18, 0x01	; 1
    298e:	92 07       	cpc	r25, r18
    2990:	10 f0       	brcs	.+4      	; 0x2996 <ee_read_word+0xc>
    2992:	8e ef       	ldi	r24, 0xFE	; 254
    2994:	91 e0       	ldi	r25, 0x01	; 1
    2996:	fc 01       	movw	r30, r24
    2998:	fc 5e       	subi	r31, 0xEC	; 236
    299a:	80 81       	ld	r24, Z
    299c:	91 81       	ldd	r25, Z+1	; 0x01
    299e:	08 95       	ret

000029a0 <ee_read_dword>:
    29a0:	8d 3f       	cpi	r24, 0xFD	; 253
    29a2:	21 e0       	ldi	r18, 0x01	; 1
    29a4:	92 07       	cpc	r25, r18
    29a6:	10 f0       	brcs	.+4      	; 0x29ac <ee_read_dword+0xc>
    29a8:	8c ef       	ldi	r24, 0xFC	; 252
    29aa:	91 e0       	ldi	r25, 0x01	; 1
    29ac:	fc 01       	movw	r30, r24
    29ae:	fc 5e       	subi	r31, 0xEC	; 236
    29b0:	60 81       	ld	r22, Z
    29b2:	71 81       	ldd	r23, Z+1	; 0x01
    29b4:	82 81       	ldd	r24, Z+2	; 0x02
    29b6:	93 81       	ldd	r25, Z+3	; 0x03
    29b8:	08 95       	ret

000029ba <ee_write_byte>:
    29ba:	1f 93       	push	r17
    29bc:	cf 93       	push	r28
    29be:	df 93       	push	r29
    29c0:	9c 01       	movw	r18, r24
    29c2:	21 15       	cp	r18, r1
    29c4:	82 e0       	ldi	r24, 0x02	; 2
    29c6:	38 07       	cpc	r19, r24
    29c8:	b8 f4       	brcc	.+46     	; 0x29f8 <ee_write_byte+0x3e>
    29ca:	e0 e0       	ldi	r30, 0x00	; 0
    29cc:	f0 e1       	ldi	r31, 0x10	; 16
    29ce:	92 81       	ldd	r25, Z+2	; 0x02
    29d0:	93 70       	andi	r25, 0x03	; 3
    29d2:	e9 f7       	brne	.-6      	; 0x29ce <ee_write_byte+0x14>
    29d4:	16 2f       	mov	r17, r22
    29d6:	e9 01       	movw	r28, r18
    29d8:	43 e1       	ldi	r20, 0x13	; 19
    29da:	6d e9       	ldi	r22, 0x9D	; 157
    29dc:	80 e0       	ldi	r24, 0x00	; 0
    29de:	90 e1       	ldi	r25, 0x10	; 16
    29e0:	0e 94 d0 2a 	call	0x55a0	; 0x55a0 <protected_write_io>
    29e4:	dc 5e       	subi	r29, 0xEC	; 236
    29e6:	18 83       	st	Y, r17
    29e8:	40 e0       	ldi	r20, 0x00	; 0
    29ea:	6d e9       	ldi	r22, 0x9D	; 157
    29ec:	80 e0       	ldi	r24, 0x00	; 0
    29ee:	90 e1       	ldi	r25, 0x10	; 16
    29f0:	0e 94 d0 2a 	call	0x55a0	; 0x55a0 <protected_write_io>
    29f4:	81 e0       	ldi	r24, 0x01	; 1
    29f6:	01 c0       	rjmp	.+2      	; 0x29fa <ee_write_byte+0x40>
    29f8:	80 e0       	ldi	r24, 0x00	; 0
    29fa:	df 91       	pop	r29
    29fc:	cf 91       	pop	r28
    29fe:	1f 91       	pop	r17
    2a00:	08 95       	ret

00002a02 <ee_write_word>:
    2a02:	cf 92       	push	r12
    2a04:	df 92       	push	r13
    2a06:	ef 92       	push	r14
    2a08:	ff 92       	push	r15
    2a0a:	cf 93       	push	r28
    2a0c:	df 93       	push	r29
    2a0e:	8f 3f       	cpi	r24, 0xFF	; 255
    2a10:	21 e0       	ldi	r18, 0x01	; 1
    2a12:	92 07       	cpc	r25, r18
    2a14:	58 f4       	brcc	.+22     	; 0x2a2c <ee_write_word+0x2a>
    2a16:	ec 01       	movw	r28, r24
    2a18:	6b 01       	movw	r12, r22
    2a1a:	0e 94 dd 14 	call	0x29ba	; 0x29ba <ee_write_byte>
    2a1e:	6d 2d       	mov	r22, r13
    2a20:	ce 01       	movw	r24, r28
    2a22:	01 96       	adiw	r24, 0x01	; 1
    2a24:	0e 94 dd 14 	call	0x29ba	; 0x29ba <ee_write_byte>
    2a28:	81 e0       	ldi	r24, 0x01	; 1
    2a2a:	01 c0       	rjmp	.+2      	; 0x2a2e <ee_write_word+0x2c>
    2a2c:	80 e0       	ldi	r24, 0x00	; 0
    2a2e:	df 91       	pop	r29
    2a30:	cf 91       	pop	r28
    2a32:	ff 90       	pop	r15
    2a34:	ef 90       	pop	r14
    2a36:	df 90       	pop	r13
    2a38:	cf 90       	pop	r12
    2a3a:	08 95       	ret

00002a3c <ee_write_dword>:
    2a3c:	ff 92       	push	r15
    2a3e:	0f 93       	push	r16
    2a40:	1f 93       	push	r17
    2a42:	cf 93       	push	r28
    2a44:	df 93       	push	r29
    2a46:	8d 3f       	cpi	r24, 0xFD	; 253
    2a48:	21 e0       	ldi	r18, 0x01	; 1
    2a4a:	92 07       	cpc	r25, r18
    2a4c:	c0 f4       	brcc	.+48     	; 0x2a7e <ee_write_dword+0x42>
    2a4e:	17 2f       	mov	r17, r23
    2a50:	06 2f       	mov	r16, r22
    2a52:	f5 2e       	mov	r15, r21
    2a54:	64 2f       	mov	r22, r20
    2a56:	ec 01       	movw	r28, r24
    2a58:	0e 94 dd 14 	call	0x29ba	; 0x29ba <ee_write_byte>
    2a5c:	6f 2d       	mov	r22, r15
    2a5e:	ce 01       	movw	r24, r28
    2a60:	01 96       	adiw	r24, 0x01	; 1
    2a62:	0e 94 dd 14 	call	0x29ba	; 0x29ba <ee_write_byte>
    2a66:	60 2f       	mov	r22, r16
    2a68:	ce 01       	movw	r24, r28
    2a6a:	02 96       	adiw	r24, 0x02	; 2
    2a6c:	0e 94 dd 14 	call	0x29ba	; 0x29ba <ee_write_byte>
    2a70:	61 2f       	mov	r22, r17
    2a72:	ce 01       	movw	r24, r28
    2a74:	03 96       	adiw	r24, 0x03	; 3
    2a76:	0e 94 dd 14 	call	0x29ba	; 0x29ba <ee_write_byte>
    2a7a:	81 e0       	ldi	r24, 0x01	; 1
    2a7c:	01 c0       	rjmp	.+2      	; 0x2a80 <ee_write_dword+0x44>
    2a7e:	80 e0       	ldi	r24, 0x00	; 0
    2a80:	df 91       	pop	r29
    2a82:	cf 91       	pop	r28
    2a84:	1f 91       	pop	r17
    2a86:	0f 91       	pop	r16
    2a88:	ff 90       	pop	r15
    2a8a:	08 95       	ret

00002a8c <Gwid_Set>:
//=================================================================================================
#include <gateway.h> 

//=================================================================================================
void Gwid_Set(void)								// ░╘└╠╞о ┐■└╠ ID ╝│┴д
{
    2a8c:	9f 92       	push	r9
    2a8e:	af 92       	push	r10
    2a90:	bf 92       	push	r11
    2a92:	cf 92       	push	r12
    2a94:	df 92       	push	r13
    2a96:	ef 92       	push	r14
    2a98:	ff 92       	push	r15
    2a9a:	0f 93       	push	r16
    2a9c:	1f 93       	push	r17
    2a9e:	cf 93       	push	r28
    2aa0:	df 93       	push	r29
	FND_Value_Data(0, 2, 12);						// FND 0 ~ 2 FND_OFF
    2aa2:	4c e0       	ldi	r20, 0x0C	; 12
    2aa4:	62 e0       	ldi	r22, 0x02	; 2
    2aa6:	80 e0       	ldi	r24, 0x00	; 0
    2aa8:	0e 94 d3 05 	call	0xba6	; 0xba6 <FND_Value_Data>

	while(SET.Menu && SET.Select)						// ╕▐┤║ ┐═ ╝▒┼├ └╠ ╕Ё╡╬ 1 └╠╕щ ╣▌║╣
    2aac:	80 91 0e 51 	lds	r24, 0x510E	; 0x80510e <SET>
    2ab0:	88 23       	and	r24, r24
    2ab2:	09 f4       	brne	.+2      	; 0x2ab6 <Gwid_Set+0x2a>
    2ab4:	61 c0       	rjmp	.+194    	; 0x2b78 <Gwid_Set+0xec>
    2ab6:	80 91 0f 51 	lds	r24, 0x510F	; 0x80510f <SET+0x1>
    2aba:	88 23       	and	r24, r24
    2abc:	09 f4       	brne	.+2      	; 0x2ac0 <Gwid_Set+0x34>
    2abe:	5c c0       	rjmp	.+184    	; 0x2b78 <Gwid_Set+0xec>
	{
		DIGIT[0][3] = FND_G;						// FND 0 ┐б G-Id (▒╣╣Ї)╟е╜├
    2ac0:	c9 e7       	ldi	r28, 0x79	; 121
    2ac2:	d1 e4       	ldi	r29, 0x41	; 65
    2ac4:	0f 2e       	mov	r0, r31
    2ac6:	fe eb       	ldi	r31, 0xBE	; 190
    2ac8:	9f 2e       	mov	r9, r31
    2aca:	f0 2d       	mov	r31, r0
		DIGIT[0][2] = FND_MINUS;
    2acc:	68 94       	set
    2ace:	aa 24       	eor	r10, r10
    2ad0:	a1 f8       	bld	r10, 1
		DIGIT[0][1] = FND_I;
    2ad2:	0f 2e       	mov	r0, r31
    2ad4:	f0 e6       	ldi	r31, 0x60	; 96
    2ad6:	bf 2e       	mov	r11, r31
    2ad8:	f0 2d       	mov	r31, r0
		DIGIT[0][0] = FND_d;
    2ada:	0f 2e       	mov	r0, r31
    2adc:	fa e7       	ldi	r31, 0x7A	; 122
    2ade:	cf 2e       	mov	r12, r31
    2ae0:	f0 2d       	mov	r31, r0

		DIGIT[1][1] = fnd_tbl[Gwid / 10];				// FND 1 ┐б ░╘└╠╞о ┐■└╠ ID ╟е╜├
    2ae2:	0f 2e       	mov	r0, r31
    2ae4:	fd ec       	ldi	r31, 0xCD	; 205
    2ae6:	df 2e       	mov	r13, r31
    2ae8:	f0 2d       	mov	r31, r0
		DIGIT[1][0] = fnd_tbl[Gwid % 10];

		if(KEY.Buff)							// Key └╘╖┬└╠ └╓└╕╕щ
    2aea:	0b e4       	ldi	r16, 0x4B	; 75
    2aec:	11 e5       	ldi	r17, 0x51	; 81
//=================================================================================================
void Gwid_Set(void)								// ░╘└╠╞о ┐■└╠ ID ╝│┴д
{
	FND_Value_Data(0, 2, 12);						// FND 0 ~ 2 FND_OFF

	while(SET.Menu && SET.Select)						// ╕▐┤║ ┐═ ╝▒┼├ └╠ ╕Ё╡╬ 1 └╠╕щ ╣▌║╣
    2aee:	0f 2e       	mov	r0, r31
    2af0:	fe e0       	ldi	r31, 0x0E	; 14
    2af2:	ef 2e       	mov	r14, r31
    2af4:	f1 e5       	ldi	r31, 0x51	; 81
    2af6:	ff 2e       	mov	r15, r31
    2af8:	f0 2d       	mov	r31, r0
	{
		DIGIT[0][3] = FND_G;						// FND 0 ┐б G-Id (▒╣╣Ї)╟е╜├
    2afa:	9b 82       	std	Y+3, r9	; 0x03
		DIGIT[0][2] = FND_MINUS;
    2afc:	aa 82       	std	Y+2, r10	; 0x02
		DIGIT[0][1] = FND_I;
    2afe:	b9 82       	std	Y+1, r11	; 0x01
		DIGIT[0][0] = FND_d;
    2b00:	c8 82       	st	Y, r12

		DIGIT[1][1] = fnd_tbl[Gwid / 10];				// FND 1 ┐б ░╘└╠╞о ┐■└╠ ID ╟е╜├
    2b02:	20 91 85 52 	lds	r18, 0x5285	; 0x805285 <Gwid>
    2b06:	2d 9d       	mul	r18, r13
    2b08:	81 2d       	mov	r24, r1
    2b0a:	11 24       	eor	r1, r1
    2b0c:	86 95       	lsr	r24
    2b0e:	86 95       	lsr	r24
    2b10:	86 95       	lsr	r24
    2b12:	e8 2f       	mov	r30, r24
    2b14:	f0 e0       	ldi	r31, 0x00	; 0
    2b16:	ed 5b       	subi	r30, 0xBD	; 189
    2b18:	fe 4b       	sbci	r31, 0xBE	; 190
    2b1a:	90 81       	ld	r25, Z
    2b1c:	9d 83       	std	Y+5, r25	; 0x05
		DIGIT[1][0] = fnd_tbl[Gwid % 10];
    2b1e:	88 0f       	add	r24, r24
    2b20:	98 2f       	mov	r25, r24
    2b22:	99 0f       	add	r25, r25
    2b24:	99 0f       	add	r25, r25
    2b26:	89 0f       	add	r24, r25
    2b28:	e2 2f       	mov	r30, r18
    2b2a:	e8 1b       	sub	r30, r24
    2b2c:	f0 e0       	ldi	r31, 0x00	; 0
    2b2e:	ed 5b       	subi	r30, 0xBD	; 189
    2b30:	fe 4b       	sbci	r31, 0xBE	; 190
    2b32:	80 81       	ld	r24, Z
    2b34:	8c 83       	std	Y+4, r24	; 0x04

		if(KEY.Buff)							// Key └╘╖┬└╠ └╓└╕╕щ
    2b36:	f8 01       	movw	r30, r16
    2b38:	81 81       	ldd	r24, Z+1	; 0x01
    2b3a:	88 23       	and	r24, r24
    2b3c:	a1 f0       	breq	.+40     	; 0x2b66 <Gwid_Set+0xda>
		{
			if     (KEY.Key == 1 && Gwid < 60) {Gwid++; KEY.Key = 0;}		// ╛і  ╣І╞░ └╠╕щ ID 60▒ю┴І ┴є░б
    2b3e:	82 81       	ldd	r24, Z+2	; 0x02
    2b40:	81 30       	cpi	r24, 0x01	; 1
    2b42:	39 f4       	brne	.+14     	; 0x2b52 <Gwid_Set+0xc6>
    2b44:	2c 33       	cpi	r18, 0x3C	; 60
    2b46:	28 f4       	brcc	.+10     	; 0x2b52 <Gwid_Set+0xc6>
    2b48:	2f 5f       	subi	r18, 0xFF	; 255
    2b4a:	20 93 85 52 	sts	0x5285, r18	; 0x805285 <Gwid>
    2b4e:	12 82       	std	Z+2, r1	; 0x02
    2b50:	0a c0       	rjmp	.+20     	; 0x2b66 <Gwid_Set+0xda>
			else if(KEY.Key == 3 && Gwid > 1)  {Gwid--; KEY.Key = 0;}		// ┤┘┐ю╣І╞░ └╠╕щ ID  0▒ю┴І ░и╝╥
    2b52:	f8 01       	movw	r30, r16
    2b54:	82 81       	ldd	r24, Z+2	; 0x02
    2b56:	83 30       	cpi	r24, 0x03	; 3
    2b58:	31 f4       	brne	.+12     	; 0x2b66 <Gwid_Set+0xda>
    2b5a:	22 30       	cpi	r18, 0x02	; 2
    2b5c:	20 f0       	brcs	.+8      	; 0x2b66 <Gwid_Set+0xda>
    2b5e:	21 50       	subi	r18, 0x01	; 1
    2b60:	20 93 85 52 	sts	0x5285, r18	; 0x805285 <Gwid>
    2b64:	12 82       	std	Z+2, r1	; 0x02
		}
		wdt_reset();							// ┐І─б╡╢ ╕о╝┬
    2b66:	0e 94 18 14 	call	0x2830	; 0x2830 <wdt_reset>
//=================================================================================================
void Gwid_Set(void)								// ░╘└╠╞о ┐■└╠ ID ╝│┴д
{
	FND_Value_Data(0, 2, 12);						// FND 0 ~ 2 FND_OFF

	while(SET.Menu && SET.Select)						// ╕▐┤║ ┐═ ╝▒┼├ └╠ ╕Ё╡╬ 1 └╠╕щ ╣▌║╣
    2b6a:	f7 01       	movw	r30, r14
    2b6c:	80 81       	ld	r24, Z
    2b6e:	88 23       	and	r24, r24
    2b70:	19 f0       	breq	.+6      	; 0x2b78 <Gwid_Set+0xec>
    2b72:	81 81       	ldd	r24, Z+1	; 0x01
    2b74:	81 11       	cpse	r24, r1
    2b76:	c1 cf       	rjmp	.-126    	; 0x2afa <Gwid_Set+0x6e>
			if     (KEY.Key == 1 && Gwid < 60) {Gwid++; KEY.Key = 0;}		// ╛і  ╣І╞░ └╠╕щ ID 60▒ю┴І ┴є░б
			else if(KEY.Key == 3 && Gwid > 1)  {Gwid--; KEY.Key = 0;}		// ┤┘┐ю╣І╞░ └╠╕щ ID  0▒ю┴І ░и╝╥
		}
		wdt_reset();							// ┐І─б╡╢ ╕о╝┬
	}
	ee_write_byte(Gateway_GWID_Addr, Gwid);					// ░╘└╠╞о ┐■└╠ ID ╕ж EEPROM ┐б └·└х
    2b78:	60 91 85 52 	lds	r22, 0x5285	; 0x805285 <Gwid>
    2b7c:	81 e0       	ldi	r24, 0x01	; 1
    2b7e:	90 e0       	ldi	r25, 0x00	; 0
    2b80:	0e 94 dd 14 	call	0x29ba	; 0x29ba <ee_write_byte>
}
    2b84:	df 91       	pop	r29
    2b86:	cf 91       	pop	r28
    2b88:	1f 91       	pop	r17
    2b8a:	0f 91       	pop	r16
    2b8c:	ff 90       	pop	r15
    2b8e:	ef 90       	pop	r14
    2b90:	df 90       	pop	r13
    2b92:	cf 90       	pop	r12
    2b94:	bf 90       	pop	r11
    2b96:	af 90       	pop	r10
    2b98:	9f 90       	pop	r9
    2b9a:	08 95       	ret

00002b9c <I2C_0_do_I2C_RESET>:
 * \brief Identical to I2C_0_master_operation(true);
 */
i2c_error_t I2C_0_master_read(void)
{
	return I2C_0_master_operation(true);
}
    2b9c:	e0 e2       	ldi	r30, 0x20	; 32
    2b9e:	f9 e0       	ldi	r31, 0x09	; 9
    2ba0:	84 81       	ldd	r24, Z+4	; 0x04
    2ba2:	88 60       	ori	r24, 0x08	; 8
    2ba4:	84 83       	std	Z+4, r24	; 0x04
    2ba6:	85 81       	ldd	r24, Z+5	; 0x05
    2ba8:	81 60       	ori	r24, 0x01	; 1
    2baa:	85 83       	std	Z+5, r24	; 0x05
    2bac:	e5 e8       	ldi	r30, 0x85	; 133
    2bae:	f1 e4       	ldi	r31, 0x41	; 65
    2bb0:	80 81       	ld	r24, Z
    2bb2:	8e 7f       	andi	r24, 0xFE	; 254
    2bb4:	80 83       	st	Z, r24
    2bb6:	13 86       	std	Z+11, r1	; 0x0b
    2bb8:	8e e0       	ldi	r24, 0x0E	; 14
    2bba:	08 95       	ret

00002bbc <I2C_0_do_I2C_IDLE>:
    2bbc:	e5 e8       	ldi	r30, 0x85	; 133
    2bbe:	f1 e4       	ldi	r31, 0x41	; 65
    2bc0:	80 81       	ld	r24, Z
    2bc2:	8e 7f       	andi	r24, 0xFE	; 254
    2bc4:	80 83       	st	Z, r24
    2bc6:	13 86       	std	Z+11, r1	; 0x0b
    2bc8:	80 e0       	ldi	r24, 0x00	; 0
    2bca:	08 95       	ret

00002bcc <I2C_0_do_I2C_SEND_ADR_READ>:
    2bcc:	e5 e8       	ldi	r30, 0x85	; 133
    2bce:	f1 e4       	ldi	r31, 0x41	; 65
    2bd0:	80 81       	ld	r24, Z
    2bd2:	88 60       	ori	r24, 0x08	; 8
    2bd4:	80 83       	st	Z, r24
    2bd6:	81 81       	ldd	r24, Z+1	; 0x01
    2bd8:	88 0f       	add	r24, r24
    2bda:	81 60       	ori	r24, 0x01	; 1
    2bdc:	80 93 27 09 	sts	0x0927, r24	; 0x800927 <__TEXT_REGION_LENGTH__+0x7e0927>
    2be0:	84 e0       	ldi	r24, 0x04	; 4
    2be2:	08 95       	ret

00002be4 <I2C_0_do_I2C_SEND_RESTART>:
    2be4:	0e 94 e6 15 	call	0x2bcc	; 0x2bcc <I2C_0_do_I2C_SEND_ADR_READ>
    2be8:	08 95       	ret

00002bea <I2C_0_do_I2C_SEND_RESTART_READ>:
    2bea:	0e 94 e6 15 	call	0x2bcc	; 0x2bcc <I2C_0_do_I2C_SEND_ADR_READ>
    2bee:	08 95       	ret

00002bf0 <I2C_0_do_I2C_SEND_ADR_WRITE>:
    2bf0:	e5 e8       	ldi	r30, 0x85	; 133
    2bf2:	f1 e4       	ldi	r31, 0x41	; 65
    2bf4:	80 81       	ld	r24, Z
    2bf6:	88 60       	ori	r24, 0x08	; 8
    2bf8:	80 83       	st	Z, r24
    2bfa:	81 81       	ldd	r24, Z+1	; 0x01
    2bfc:	88 0f       	add	r24, r24
    2bfe:	80 93 27 09 	sts	0x0927, r24	; 0x800927 <__TEXT_REGION_LENGTH__+0x7e0927>
    2c02:	83 e0       	ldi	r24, 0x03	; 3
    2c04:	08 95       	ret

00002c06 <I2C_0_do_I2C_SEND_RESTART_WRITE>:
    2c06:	0e 94 f8 15 	call	0x2bf0	; 0x2bf0 <I2C_0_do_I2C_SEND_ADR_WRITE>
    2c0a:	08 95       	ret

00002c0c <I2C_0_do_I2C_RX_DO_ACK>:
    2c0c:	e0 e2       	ldi	r30, 0x20	; 32
    2c0e:	f9 e0       	ldi	r31, 0x09	; 9
    2c10:	84 81       	ldd	r24, Z+4	; 0x04
    2c12:	8b 7f       	andi	r24, 0xFB	; 251
    2c14:	84 83       	std	Z+4, r24	; 0x04
    2c16:	84 e0       	ldi	r24, 0x04	; 4
    2c18:	08 95       	ret

00002c1a <I2C_0_do_I2C_TX_DO_ACK>:
    2c1a:	e0 e2       	ldi	r30, 0x20	; 32
    2c1c:	f9 e0       	ldi	r31, 0x09	; 9
    2c1e:	84 81       	ldd	r24, Z+4	; 0x04
    2c20:	8b 7f       	andi	r24, 0xFB	; 251
    2c22:	84 83       	std	Z+4, r24	; 0x04
    2c24:	83 e0       	ldi	r24, 0x03	; 3
    2c26:	08 95       	ret

00002c28 <I2C_0_do_I2C_DO_NACK_RESTART>:
    2c28:	e0 e2       	ldi	r30, 0x20	; 32
    2c2a:	f9 e0       	ldi	r31, 0x09	; 9
    2c2c:	84 81       	ldd	r24, Z+4	; 0x04
    2c2e:	84 60       	ori	r24, 0x04	; 4
    2c30:	84 83       	std	Z+4, r24	; 0x04
    2c32:	88 e0       	ldi	r24, 0x08	; 8
    2c34:	08 95       	ret

00002c36 <I2C_0_do_I2C_BUS_ERROR>:
    2c36:	e0 e2       	ldi	r30, 0x20	; 32
    2c38:	f9 e0       	ldi	r31, 0x09	; 9
    2c3a:	84 81       	ldd	r24, Z+4	; 0x04
    2c3c:	88 60       	ori	r24, 0x08	; 8
    2c3e:	84 83       	std	Z+4, r24	; 0x04
    2c40:	85 81       	ldd	r24, Z+5	; 0x05
    2c42:	81 60       	ori	r24, 0x01	; 1
    2c44:	85 83       	std	Z+5, r24	; 0x05
    2c46:	e5 e8       	ldi	r30, 0x85	; 133
    2c48:	f1 e4       	ldi	r31, 0x41	; 65
    2c4a:	80 81       	ld	r24, Z
    2c4c:	8e 7f       	andi	r24, 0xFE	; 254
    2c4e:	80 83       	st	Z, r24
    2c50:	82 e0       	ldi	r24, 0x02	; 2
    2c52:	83 87       	std	Z+11, r24	; 0x0b
    2c54:	8e e0       	ldi	r24, 0x0E	; 14
    2c56:	08 95       	ret

00002c58 <I2C_0_master_isr>:
    2c58:	cf 93       	push	r28
    2c5a:	df 93       	push	r29
    2c5c:	e0 e2       	ldi	r30, 0x20	; 32
    2c5e:	f9 e0       	ldi	r31, 0x09	; 9
    2c60:	85 81       	ldd	r24, Z+5	; 0x05
    2c62:	80 6c       	ori	r24, 0xC0	; 192
    2c64:	85 83       	std	Z+5, r24	; 0x05
    2c66:	80 91 85 41 	lds	r24, 0x4185	; 0x804185 <I2C_0_status>
    2c6a:	83 ff       	sbrs	r24, 3
    2c6c:	07 c0       	rjmp	.+14     	; 0x2c7c <I2C_0_master_isr+0x24>
    2c6e:	80 91 25 09 	lds	r24, 0x0925	; 0x800925 <__TEXT_REGION_LENGTH__+0x7e0925>
    2c72:	84 ff       	sbrs	r24, 4
    2c74:	03 c0       	rjmp	.+6      	; 0x2c7c <I2C_0_master_isr+0x24>
    2c76:	8f e0       	ldi	r24, 0x0F	; 15
    2c78:	80 93 8f 41 	sts	0x418F, r24	; 0x80418f <I2C_0_status+0xa>
    2c7c:	80 91 25 09 	lds	r24, 0x0925	; 0x800925 <__TEXT_REGION_LENGTH__+0x7e0925>
    2c80:	83 ff       	sbrs	r24, 3
    2c82:	03 c0       	rjmp	.+6      	; 0x2c8a <I2C_0_master_isr+0x32>
    2c84:	80 e1       	ldi	r24, 0x10	; 16
    2c86:	80 93 8f 41 	sts	0x418F, r24	; 0x80418f <I2C_0_status+0xa>
    2c8a:	80 91 25 09 	lds	r24, 0x0925	; 0x800925 <__TEXT_REGION_LENGTH__+0x7e0925>
    2c8e:	82 ff       	sbrs	r24, 2
    2c90:	03 c0       	rjmp	.+6      	; 0x2c98 <I2C_0_master_isr+0x40>
    2c92:	81 e1       	ldi	r24, 0x11	; 17
    2c94:	80 93 8f 41 	sts	0x418F, r24	; 0x80418f <I2C_0_status+0xa>
    2c98:	c5 e8       	ldi	r28, 0x85	; 133
    2c9a:	d1 e4       	ldi	r29, 0x41	; 65
    2c9c:	ea 85       	ldd	r30, Y+10	; 0x0a
    2c9e:	f0 e0       	ldi	r31, 0x00	; 0
    2ca0:	ee 0f       	add	r30, r30
    2ca2:	ff 1f       	adc	r31, r31
    2ca4:	ea 5f       	subi	r30, 0xFA	; 250
    2ca6:	ff 4b       	sbci	r31, 0xBF	; 191
    2ca8:	01 90       	ld	r0, Z+
    2caa:	f0 81       	ld	r31, Z
    2cac:	e0 2d       	mov	r30, r0
    2cae:	09 95       	icall
    2cb0:	8a 87       	std	Y+10, r24	; 0x0a
    2cb2:	df 91       	pop	r29
    2cb4:	cf 91       	pop	r28
    2cb6:	08 95       	ret

00002cb8 <I2C_0_return_stop>:
    2cb8:	81 e0       	ldi	r24, 0x01	; 1
    2cba:	08 95       	ret

00002cbc <I2C_0_return_reset>:
    2cbc:	85 e0       	ldi	r24, 0x05	; 5
    2cbe:	08 95       	ret

00002cc0 <I2C_0_set_callback>:
    2cc0:	61 15       	cp	r22, r1
    2cc2:	71 05       	cpc	r23, r1
    2cc4:	81 f0       	breq	.+32     	; 0x2ce6 <I2C_0_set_callback+0x26>
    2cc6:	90 e0       	ldi	r25, 0x00	; 0
    2cc8:	fc 01       	movw	r30, r24
    2cca:	ee 0f       	add	r30, r30
    2ccc:	ff 1f       	adc	r31, r31
    2cce:	ef 56       	subi	r30, 0x6F	; 111
    2cd0:	fe 4b       	sbci	r31, 0xBE	; 190
    2cd2:	60 83       	st	Z, r22
    2cd4:	71 83       	std	Z+1, r23	; 0x01
    2cd6:	88 0f       	add	r24, r24
    2cd8:	99 1f       	adc	r25, r25
    2cda:	fc 01       	movw	r30, r24
    2cdc:	e3 56       	subi	r30, 0x63	; 99
    2cde:	fe 4b       	sbci	r31, 0xBE	; 190
    2ce0:	40 83       	st	Z, r20
    2ce2:	51 83       	std	Z+1, r21	; 0x01
    2ce4:	08 95       	ret
    2ce6:	90 e0       	ldi	r25, 0x00	; 0
    2ce8:	fc 01       	movw	r30, r24
    2cea:	ee 0f       	add	r30, r30
    2cec:	ff 1f       	adc	r31, r31
    2cee:	ef 56       	subi	r30, 0x6F	; 111
    2cf0:	fe 4b       	sbci	r31, 0xBE	; 190
    2cf2:	2c e5       	ldi	r18, 0x5C	; 92
    2cf4:	36 e1       	ldi	r19, 0x16	; 22
    2cf6:	20 83       	st	Z, r18
    2cf8:	31 83       	std	Z+1, r19	; 0x01
    2cfa:	88 0f       	add	r24, r24
    2cfc:	99 1f       	adc	r25, r25
    2cfe:	fc 01       	movw	r30, r24
    2d00:	e3 56       	subi	r30, 0x63	; 99
    2d02:	fe 4b       	sbci	r31, 0xBE	; 190
    2d04:	10 82       	st	Z, r1
    2d06:	11 82       	std	Z+1, r1	; 0x01
    2d08:	08 95       	ret

00002d0a <I2C_0_do_I2C_BUS_COLLISION>:
    2d0a:	e0 e2       	ldi	r30, 0x20	; 32
    2d0c:	f9 e0       	ldi	r31, 0x09	; 9
    2d0e:	85 81       	ldd	r24, Z+5	; 0x05
    2d10:	88 60       	ori	r24, 0x08	; 8
    2d12:	85 83       	std	Z+5, r24	; 0x05
    2d14:	a5 e8       	ldi	r26, 0x85	; 133
    2d16:	b1 e4       	ldi	r27, 0x41	; 65
    2d18:	82 e0       	ldi	r24, 0x02	; 2
    2d1a:	1b 96       	adiw	r26, 0x0b	; 11
    2d1c:	8c 93       	st	X, r24
    2d1e:	1b 97       	sbiw	r26, 0x0b	; 11
    2d20:	1e 96       	adiw	r26, 0x0e	; 14
    2d22:	ed 91       	ld	r30, X+
    2d24:	fc 91       	ld	r31, X
    2d26:	1f 97       	sbiw	r26, 0x0f	; 15
    2d28:	5a 96       	adiw	r26, 0x1a	; 26
    2d2a:	8d 91       	ld	r24, X+
    2d2c:	9c 91       	ld	r25, X
    2d2e:	5b 97       	sbiw	r26, 0x1b	; 27
    2d30:	09 95       	icall
    2d32:	82 30       	cpi	r24, 0x02	; 2
    2d34:	19 f0       	breq	.+6      	; 0x2d3c <I2C_0_do_I2C_BUS_COLLISION+0x32>
    2d36:	83 30       	cpi	r24, 0x03	; 3
    2d38:	21 f0       	breq	.+8      	; 0x2d42 <I2C_0_do_I2C_BUS_COLLISION+0x38>
    2d3a:	06 c0       	rjmp	.+12     	; 0x2d48 <I2C_0_do_I2C_BUS_COLLISION+0x3e>
    2d3c:	0e 94 e6 15 	call	0x2bcc	; 0x2bcc <I2C_0_do_I2C_SEND_ADR_READ>
    2d40:	08 95       	ret
    2d42:	0e 94 f8 15 	call	0x2bf0	; 0x2bf0 <I2C_0_do_I2C_SEND_ADR_WRITE>
    2d46:	08 95       	ret
    2d48:	0e 94 ce 15 	call	0x2b9c	; 0x2b9c <I2C_0_do_I2C_RESET>
    2d4c:	08 95       	ret

00002d4e <I2C_0_do_I2C_DO_NACK_STOP>:
    2d4e:	e0 e2       	ldi	r30, 0x20	; 32
    2d50:	f9 e0       	ldi	r31, 0x09	; 9
    2d52:	84 81       	ldd	r24, Z+4	; 0x04
    2d54:	84 60       	ori	r24, 0x04	; 4
    2d56:	84 83       	std	Z+4, r24	; 0x04
    2d58:	84 81       	ldd	r24, Z+4	; 0x04
    2d5a:	83 60       	ori	r24, 0x03	; 3
    2d5c:	84 83       	std	Z+4, r24	; 0x04
    2d5e:	e5 e8       	ldi	r30, 0x85	; 133
    2d60:	f1 e4       	ldi	r31, 0x41	; 65
    2d62:	80 81       	ld	r24, Z
    2d64:	8e 7f       	andi	r24, 0xFE	; 254
    2d66:	80 83       	st	Z, r24
    2d68:	13 86       	std	Z+11, r1	; 0x0b
    2d6a:	80 e0       	ldi	r24, 0x00	; 0
    2d6c:	08 95       	ret

00002d6e <I2C_0_do_I2C_RX>:
    2d6e:	cf 93       	push	r28
    2d70:	df 93       	push	r29
    2d72:	e5 e8       	ldi	r30, 0x85	; 133
    2d74:	f1 e4       	ldi	r31, 0x41	; 65
    2d76:	80 81       	ld	r24, Z
    2d78:	87 7f       	andi	r24, 0xF7	; 247
    2d7a:	80 83       	st	Z, r24
    2d7c:	84 81       	ldd	r24, Z+4	; 0x04
    2d7e:	95 81       	ldd	r25, Z+5	; 0x05
    2d80:	01 97       	sbiw	r24, 0x01	; 1
    2d82:	31 f4       	brne	.+12     	; 0x2d90 <I2C_0_do_I2C_RX+0x22>
    2d84:	e0 e2       	ldi	r30, 0x20	; 32
    2d86:	f9 e0       	ldi	r31, 0x09	; 9
    2d88:	84 81       	ldd	r24, Z+4	; 0x04
    2d8a:	84 60       	ori	r24, 0x04	; 4
    2d8c:	84 83       	std	Z+4, r24	; 0x04
    2d8e:	05 c0       	rjmp	.+10     	; 0x2d9a <I2C_0_do_I2C_RX+0x2c>
    2d90:	e0 e2       	ldi	r30, 0x20	; 32
    2d92:	f9 e0       	ldi	r31, 0x09	; 9
    2d94:	84 81       	ldd	r24, Z+4	; 0x04
    2d96:	8b 7f       	andi	r24, 0xFB	; 251
    2d98:	84 83       	std	Z+4, r24	; 0x04
    2d9a:	e5 e8       	ldi	r30, 0x85	; 133
    2d9c:	f1 e4       	ldi	r31, 0x41	; 65
    2d9e:	84 81       	ldd	r24, Z+4	; 0x04
    2da0:	95 81       	ldd	r25, Z+5	; 0x05
    2da2:	01 97       	sbiw	r24, 0x01	; 1
    2da4:	84 83       	std	Z+4, r24	; 0x04
    2da6:	95 83       	std	Z+5, r25	; 0x05
    2da8:	89 2b       	or	r24, r25
    2daa:	a9 f0       	breq	.+42     	; 0x2dd6 <I2C_0_do_I2C_RX+0x68>
    2dac:	df 01       	movw	r26, r30
    2dae:	c2 81       	ldd	r28, Z+2	; 0x02
    2db0:	d3 81       	ldd	r29, Z+3	; 0x03
    2db2:	e0 e2       	ldi	r30, 0x20	; 32
    2db4:	f9 e0       	ldi	r31, 0x09	; 9
    2db6:	80 85       	ldd	r24, Z+8	; 0x08
    2db8:	88 83       	st	Y, r24
    2dba:	12 96       	adiw	r26, 0x02	; 2
    2dbc:	8d 91       	ld	r24, X+
    2dbe:	9c 91       	ld	r25, X
    2dc0:	13 97       	sbiw	r26, 0x03	; 3
    2dc2:	01 96       	adiw	r24, 0x01	; 1
    2dc4:	12 96       	adiw	r26, 0x02	; 2
    2dc6:	8d 93       	st	X+, r24
    2dc8:	9c 93       	st	X, r25
    2dca:	13 97       	sbiw	r26, 0x03	; 3
    2dcc:	84 81       	ldd	r24, Z+4	; 0x04
    2dce:	82 60       	ori	r24, 0x02	; 2
    2dd0:	84 83       	std	Z+4, r24	; 0x04
    2dd2:	84 e0       	ldi	r24, 0x04	; 4
    2dd4:	26 c0       	rjmp	.+76     	; 0x2e22 <I2C_0_do_I2C_RX+0xb4>
    2dd6:	a5 e8       	ldi	r26, 0x85	; 133
    2dd8:	b1 e4       	ldi	r27, 0x41	; 65
    2dda:	12 96       	adiw	r26, 0x02	; 2
    2ddc:	ed 91       	ld	r30, X+
    2dde:	fc 91       	ld	r31, X
    2de0:	13 97       	sbiw	r26, 0x03	; 3
    2de2:	80 91 28 09 	lds	r24, 0x0928	; 0x800928 <__TEXT_REGION_LENGTH__+0x7e0928>
    2de6:	80 83       	st	Z, r24
    2de8:	12 96       	adiw	r26, 0x02	; 2
    2dea:	8d 91       	ld	r24, X+
    2dec:	9c 91       	ld	r25, X
    2dee:	13 97       	sbiw	r26, 0x03	; 3
    2df0:	01 96       	adiw	r24, 0x01	; 1
    2df2:	12 96       	adiw	r26, 0x02	; 2
    2df4:	8d 93       	st	X+, r24
    2df6:	9c 93       	st	X, r25
    2df8:	13 97       	sbiw	r26, 0x03	; 3
    2dfa:	8c 91       	ld	r24, X
    2dfc:	84 60       	ori	r24, 0x04	; 4
    2dfe:	8c 93       	st	X, r24
    2e00:	1c 96       	adiw	r26, 0x0c	; 12
    2e02:	ed 91       	ld	r30, X+
    2e04:	fc 91       	ld	r31, X
    2e06:	1d 97       	sbiw	r26, 0x0d	; 13
    2e08:	58 96       	adiw	r26, 0x18	; 24
    2e0a:	8d 91       	ld	r24, X+
    2e0c:	9c 91       	ld	r25, X
    2e0e:	59 97       	sbiw	r26, 0x19	; 25
    2e10:	09 95       	icall
    2e12:	82 50       	subi	r24, 0x02	; 2
    2e14:	82 30       	cpi	r24, 0x02	; 2
    2e16:	18 f4       	brcc	.+6      	; 0x2e1e <I2C_0_do_I2C_RX+0xb0>
    2e18:	0e 94 14 16 	call	0x2c28	; 0x2c28 <I2C_0_do_I2C_DO_NACK_RESTART>
    2e1c:	02 c0       	rjmp	.+4      	; 0x2e22 <I2C_0_do_I2C_RX+0xb4>
    2e1e:	0e 94 a7 16 	call	0x2d4e	; 0x2d4e <I2C_0_do_I2C_DO_NACK_STOP>
    2e22:	df 91       	pop	r29
    2e24:	cf 91       	pop	r28
    2e26:	08 95       	ret

00002e28 <I2C_0_do_I2C_SEND_STOP>:
    2e28:	e0 e2       	ldi	r30, 0x20	; 32
    2e2a:	f9 e0       	ldi	r31, 0x09	; 9
    2e2c:	84 81       	ldd	r24, Z+4	; 0x04
    2e2e:	83 60       	ori	r24, 0x03	; 3
    2e30:	84 83       	std	Z+4, r24	; 0x04
    2e32:	e5 e8       	ldi	r30, 0x85	; 133
    2e34:	f1 e4       	ldi	r31, 0x41	; 65
    2e36:	80 81       	ld	r24, Z
    2e38:	8e 7f       	andi	r24, 0xFE	; 254
    2e3a:	80 83       	st	Z, r24
    2e3c:	13 86       	std	Z+11, r1	; 0x0b
    2e3e:	80 e0       	ldi	r24, 0x00	; 0
    2e40:	08 95       	ret

00002e42 <I2C_0_do_I2C_DO_ADDRESS_NACK>:
    2e42:	a5 e8       	ldi	r26, 0x85	; 133
    2e44:	b1 e4       	ldi	r27, 0x41	; 65
    2e46:	8c 91       	ld	r24, X
    2e48:	87 7f       	andi	r24, 0xF7	; 247
    2e4a:	8c 93       	st	X, r24
    2e4c:	82 e0       	ldi	r24, 0x02	; 2
    2e4e:	1b 96       	adiw	r26, 0x0b	; 11
    2e50:	8c 93       	st	X, r24
    2e52:	1b 97       	sbiw	r26, 0x0b	; 11
    2e54:	50 96       	adiw	r26, 0x10	; 16
    2e56:	ed 91       	ld	r30, X+
    2e58:	fc 91       	ld	r31, X
    2e5a:	51 97       	sbiw	r26, 0x11	; 17
    2e5c:	5c 96       	adiw	r26, 0x1c	; 28
    2e5e:	8d 91       	ld	r24, X+
    2e60:	9c 91       	ld	r25, X
    2e62:	5d 97       	sbiw	r26, 0x1d	; 29
    2e64:	09 95       	icall
    2e66:	82 30       	cpi	r24, 0x02	; 2
    2e68:	19 f0       	breq	.+6      	; 0x2e70 <I2C_0_do_I2C_DO_ADDRESS_NACK+0x2e>
    2e6a:	83 30       	cpi	r24, 0x03	; 3
    2e6c:	21 f0       	breq	.+8      	; 0x2e76 <I2C_0_do_I2C_DO_ADDRESS_NACK+0x34>
    2e6e:	06 c0       	rjmp	.+12     	; 0x2e7c <I2C_0_do_I2C_DO_ADDRESS_NACK+0x3a>
    2e70:	0e 94 e6 15 	call	0x2bcc	; 0x2bcc <I2C_0_do_I2C_SEND_ADR_READ>
    2e74:	08 95       	ret
    2e76:	0e 94 f8 15 	call	0x2bf0	; 0x2bf0 <I2C_0_do_I2C_SEND_ADR_WRITE>
    2e7a:	08 95       	ret
    2e7c:	0e 94 14 17 	call	0x2e28	; 0x2e28 <I2C_0_do_I2C_SEND_STOP>
    2e80:	08 95       	ret

00002e82 <I2C_0_do_I2C_TX>:
    2e82:	80 91 25 09 	lds	r24, 0x0925	; 0x800925 <__TEXT_REGION_LENGTH__+0x7e0925>
    2e86:	84 ff       	sbrs	r24, 4
    2e88:	19 c0       	rjmp	.+50     	; 0x2ebc <I2C_0_do_I2C_TX+0x3a>
    2e8a:	a5 e8       	ldi	r26, 0x85	; 133
    2e8c:	b1 e4       	ldi	r27, 0x41	; 65
    2e8e:	52 96       	adiw	r26, 0x12	; 18
    2e90:	ed 91       	ld	r30, X+
    2e92:	fc 91       	ld	r31, X
    2e94:	53 97       	sbiw	r26, 0x13	; 19
    2e96:	5e 96       	adiw	r26, 0x1e	; 30
    2e98:	8d 91       	ld	r24, X+
    2e9a:	9c 91       	ld	r25, X
    2e9c:	5f 97       	sbiw	r26, 0x1f	; 31
    2e9e:	09 95       	icall
    2ea0:	82 30       	cpi	r24, 0x02	; 2
    2ea2:	19 f0       	breq	.+6      	; 0x2eaa <I2C_0_do_I2C_TX+0x28>
    2ea4:	83 30       	cpi	r24, 0x03	; 3
    2ea6:	21 f0       	breq	.+8      	; 0x2eb0 <I2C_0_do_I2C_TX+0x2e>
    2ea8:	06 c0       	rjmp	.+12     	; 0x2eb6 <I2C_0_do_I2C_TX+0x34>
    2eaa:	0e 94 e6 15 	call	0x2bcc	; 0x2bcc <I2C_0_do_I2C_SEND_ADR_READ>
    2eae:	08 95       	ret
    2eb0:	0e 94 f8 15 	call	0x2bf0	; 0x2bf0 <I2C_0_do_I2C_SEND_ADR_WRITE>
    2eb4:	08 95       	ret
    2eb6:	0e 94 14 17 	call	0x2e28	; 0x2e28 <I2C_0_do_I2C_SEND_STOP>
    2eba:	08 95       	ret
    2ebc:	e5 e8       	ldi	r30, 0x85	; 133
    2ebe:	f1 e4       	ldi	r31, 0x41	; 65
    2ec0:	80 81       	ld	r24, Z
    2ec2:	87 7f       	andi	r24, 0xF7	; 247
    2ec4:	80 83       	st	Z, r24
    2ec6:	a2 81       	ldd	r26, Z+2	; 0x02
    2ec8:	b3 81       	ldd	r27, Z+3	; 0x03
    2eca:	cd 01       	movw	r24, r26
    2ecc:	01 96       	adiw	r24, 0x01	; 1
    2ece:	82 83       	std	Z+2, r24	; 0x02
    2ed0:	93 83       	std	Z+3, r25	; 0x03
    2ed2:	8c 91       	ld	r24, X
    2ed4:	80 93 28 09 	sts	0x0928, r24	; 0x800928 <__TEXT_REGION_LENGTH__+0x7e0928>
    2ed8:	84 81       	ldd	r24, Z+4	; 0x04
    2eda:	95 81       	ldd	r25, Z+5	; 0x05
    2edc:	01 97       	sbiw	r24, 0x01	; 1
    2ede:	84 83       	std	Z+4, r24	; 0x04
    2ee0:	95 83       	std	Z+5, r25	; 0x05
    2ee2:	89 2b       	or	r24, r25
    2ee4:	11 f4       	brne	.+4      	; 0x2eea <I2C_0_do_I2C_TX+0x68>
    2ee6:	85 e0       	ldi	r24, 0x05	; 5
    2ee8:	08 95       	ret
    2eea:	83 e0       	ldi	r24, 0x03	; 3
    2eec:	08 95       	ret

00002eee <I2C_0_do_I2C_TX_EMPTY>:
    2eee:	80 91 25 09 	lds	r24, 0x0925	; 0x800925 <__TEXT_REGION_LENGTH__+0x7e0925>
    2ef2:	84 ff       	sbrs	r24, 4
    2ef4:	19 c0       	rjmp	.+50     	; 0x2f28 <I2C_0_do_I2C_TX_EMPTY+0x3a>
    2ef6:	a5 e8       	ldi	r26, 0x85	; 133
    2ef8:	b1 e4       	ldi	r27, 0x41	; 65
    2efa:	52 96       	adiw	r26, 0x12	; 18
    2efc:	ed 91       	ld	r30, X+
    2efe:	fc 91       	ld	r31, X
    2f00:	53 97       	sbiw	r26, 0x13	; 19
    2f02:	5e 96       	adiw	r26, 0x1e	; 30
    2f04:	8d 91       	ld	r24, X+
    2f06:	9c 91       	ld	r25, X
    2f08:	5f 97       	sbiw	r26, 0x1f	; 31
    2f0a:	09 95       	icall
    2f0c:	82 30       	cpi	r24, 0x02	; 2
    2f0e:	19 f0       	breq	.+6      	; 0x2f16 <I2C_0_do_I2C_TX_EMPTY+0x28>
    2f10:	83 30       	cpi	r24, 0x03	; 3
    2f12:	21 f0       	breq	.+8      	; 0x2f1c <I2C_0_do_I2C_TX_EMPTY+0x2e>
    2f14:	06 c0       	rjmp	.+12     	; 0x2f22 <I2C_0_do_I2C_TX_EMPTY+0x34>
    2f16:	0e 94 e6 15 	call	0x2bcc	; 0x2bcc <I2C_0_do_I2C_SEND_ADR_READ>
    2f1a:	08 95       	ret
    2f1c:	0e 94 f8 15 	call	0x2bf0	; 0x2bf0 <I2C_0_do_I2C_SEND_ADR_WRITE>
    2f20:	08 95       	ret
    2f22:	0e 94 14 17 	call	0x2e28	; 0x2e28 <I2C_0_do_I2C_SEND_STOP>
    2f26:	08 95       	ret
    2f28:	a5 e8       	ldi	r26, 0x85	; 133
    2f2a:	b1 e4       	ldi	r27, 0x41	; 65
    2f2c:	8c 91       	ld	r24, X
    2f2e:	84 60       	ori	r24, 0x04	; 4
    2f30:	8c 93       	st	X, r24
    2f32:	1c 96       	adiw	r26, 0x0c	; 12
    2f34:	ed 91       	ld	r30, X+
    2f36:	fc 91       	ld	r31, X
    2f38:	1d 97       	sbiw	r26, 0x0d	; 13
    2f3a:	58 96       	adiw	r26, 0x18	; 24
    2f3c:	8d 91       	ld	r24, X+
    2f3e:	9c 91       	ld	r25, X
    2f40:	59 97       	sbiw	r26, 0x19	; 25
    2f42:	09 95       	icall
    2f44:	83 30       	cpi	r24, 0x03	; 3
    2f46:	39 f0       	breq	.+14     	; 0x2f56 <I2C_0_do_I2C_TX_EMPTY+0x68>
    2f48:	84 30       	cpi	r24, 0x04	; 4
    2f4a:	41 f0       	breq	.+16     	; 0x2f5c <I2C_0_do_I2C_TX_EMPTY+0x6e>
    2f4c:	82 30       	cpi	r24, 0x02	; 2
    2f4e:	49 f4       	brne	.+18     	; 0x2f62 <I2C_0_do_I2C_TX_EMPTY+0x74>
    2f50:	0e 94 e6 15 	call	0x2bcc	; 0x2bcc <I2C_0_do_I2C_SEND_ADR_READ>
    2f54:	08 95       	ret
    2f56:	0e 94 f8 15 	call	0x2bf0	; 0x2bf0 <I2C_0_do_I2C_SEND_ADR_WRITE>
    2f5a:	08 95       	ret
    2f5c:	0e 94 41 17 	call	0x2e82	; 0x2e82 <I2C_0_do_I2C_TX>
    2f60:	08 95       	ret
    2f62:	0e 94 14 17 	call	0x2e28	; 0x2e28 <I2C_0_do_I2C_SEND_STOP>
    2f66:	08 95       	ret

00002f68 <I2C_0_set_data_complete_callback>:
    2f68:	ab 01       	movw	r20, r22
    2f6a:	bc 01       	movw	r22, r24
    2f6c:	80 e0       	ldi	r24, 0x00	; 0
    2f6e:	0e 94 60 16 	call	0x2cc0	; 0x2cc0 <I2C_0_set_callback>
    2f72:	08 95       	ret

00002f74 <I2C_0_set_address_nack_callback>:
    2f74:	ab 01       	movw	r20, r22
    2f76:	bc 01       	movw	r22, r24
    2f78:	82 e0       	ldi	r24, 0x02	; 2
    2f7a:	0e 94 60 16 	call	0x2cc0	; 0x2cc0 <I2C_0_set_callback>
    2f7e:	08 95       	ret

00002f80 <I2C_0_init>:
    2f80:	e0 e2       	ldi	r30, 0x20	; 32
    2f82:	f9 e0       	ldi	r31, 0x09	; 9
    2f84:	84 e4       	ldi	r24, 0x44	; 68
    2f86:	86 83       	std	Z+6, r24	; 0x06
    2f88:	81 ec       	ldi	r24, 0xC1	; 193
    2f8a:	83 83       	std	Z+3, r24	; 0x03
    2f8c:	08 95       	ret

00002f8e <I2C_0_open>:
    2f8e:	90 91 85 41 	lds	r25, 0x4185	; 0x804185 <I2C_0_status>
    2f92:	91 fd       	sbrc	r25, 1
    2f94:	36 c0       	rjmp	.+108    	; 0x3002 <I2C_0_open+0x74>
    2f96:	e5 e8       	ldi	r30, 0x85	; 133
    2f98:	f1 e4       	ldi	r31, 0x41	; 65
    2f9a:	81 83       	std	Z+1, r24	; 0x01
    2f9c:	89 2f       	mov	r24, r25
    2f9e:	84 7f       	andi	r24, 0xF4	; 244
    2fa0:	9e e0       	ldi	r25, 0x0E	; 14
    2fa2:	92 87       	std	Z+10, r25	; 0x0a
    2fa4:	24 ef       	ldi	r18, 0xF4	; 244
    2fa6:	31 e0       	ldi	r19, 0x01	; 1
    2fa8:	20 87       	std	Z+8, r18	; 0x08
    2faa:	31 87       	std	Z+9, r19	; 0x09
    2fac:	82 60       	ori	r24, 0x02	; 2
    2fae:	84 60       	ori	r24, 0x04	; 4
    2fb0:	80 83       	st	Z, r24
    2fb2:	8c e5       	ldi	r24, 0x5C	; 92
    2fb4:	96 e1       	ldi	r25, 0x16	; 22
    2fb6:	84 87       	std	Z+12, r24	; 0x0c
    2fb8:	95 87       	std	Z+13, r25	; 0x0d
    2fba:	10 8e       	std	Z+24, r1	; 0x18
    2fbc:	11 8e       	std	Z+25, r1	; 0x19
    2fbe:	86 87       	std	Z+14, r24	; 0x0e
    2fc0:	97 87       	std	Z+15, r25	; 0x0f
    2fc2:	12 8e       	std	Z+26, r1	; 0x1a
    2fc4:	13 8e       	std	Z+27, r1	; 0x1b
    2fc6:	80 8b       	std	Z+16, r24	; 0x10
    2fc8:	91 8b       	std	Z+17, r25	; 0x11
    2fca:	14 8e       	std	Z+28, r1	; 0x1c
    2fcc:	15 8e       	std	Z+29, r1	; 0x1d
    2fce:	82 8b       	std	Z+18, r24	; 0x12
    2fd0:	93 8b       	std	Z+19, r25	; 0x13
    2fd2:	16 8e       	std	Z+30, r1	; 0x1e
    2fd4:	17 8e       	std	Z+31, r1	; 0x1f
    2fd6:	8e e5       	ldi	r24, 0x5E	; 94
    2fd8:	96 e1       	ldi	r25, 0x16	; 22
    2fda:	84 8b       	std	Z+20, r24	; 0x14
    2fdc:	95 8b       	std	Z+21, r25	; 0x15
    2fde:	10 a2       	std	Z+32, r1	; 0x20
    2fe0:	11 a2       	std	Z+33, r1	; 0x21
    2fe2:	e0 e2       	ldi	r30, 0x20	; 32
    2fe4:	f9 e0       	ldi	r31, 0x09	; 9
    2fe6:	84 81       	ldd	r24, Z+4	; 0x04
    2fe8:	88 60       	ori	r24, 0x08	; 8
    2fea:	84 83       	std	Z+4, r24	; 0x04
    2fec:	85 81       	ldd	r24, Z+5	; 0x05
    2fee:	81 60       	ori	r24, 0x01	; 1
    2ff0:	85 83       	std	Z+5, r24	; 0x05
    2ff2:	85 81       	ldd	r24, Z+5	; 0x05
    2ff4:	80 6c       	ori	r24, 0xC0	; 192
    2ff6:	85 83       	std	Z+5, r24	; 0x05
    2ff8:	83 81       	ldd	r24, Z+3	; 0x03
    2ffa:	80 6c       	ori	r24, 0xC0	; 192
    2ffc:	83 83       	std	Z+3, r24	; 0x03
    2ffe:	80 e0       	ldi	r24, 0x00	; 0
    3000:	08 95       	ret
    3002:	81 e0       	ldi	r24, 0x01	; 1
    3004:	08 95       	ret

00003006 <I2C_0_close>:
    3006:	80 91 25 09 	lds	r24, 0x0925	; 0x800925 <__TEXT_REGION_LENGTH__+0x7e0925>
    300a:	82 ff       	sbrs	r24, 2
    300c:	07 c0       	rjmp	.+14     	; 0x301c <I2C_0_close+0x16>
    300e:	e5 e8       	ldi	r30, 0x85	; 133
    3010:	f1 e4       	ldi	r31, 0x41	; 65
    3012:	80 81       	ld	r24, Z
    3014:	8e 7f       	andi	r24, 0xFE	; 254
    3016:	80 83       	st	Z, r24
    3018:	82 e0       	ldi	r24, 0x02	; 2
    301a:	83 87       	std	Z+11, r24	; 0x0b
    301c:	80 91 85 41 	lds	r24, 0x4185	; 0x804185 <I2C_0_status>
    3020:	80 fd       	sbrc	r24, 0
    3022:	17 c0       	rjmp	.+46     	; 0x3052 <I2C_0_close+0x4c>
    3024:	e5 e8       	ldi	r30, 0x85	; 133
    3026:	f1 e4       	ldi	r31, 0x41	; 65
    3028:	8d 7f       	andi	r24, 0xFD	; 253
    302a:	80 83       	st	Z, r24
    302c:	8f ef       	ldi	r24, 0xFF	; 255
    302e:	81 83       	std	Z+1, r24	; 0x01
    3030:	a0 e2       	ldi	r26, 0x20	; 32
    3032:	b9 e0       	ldi	r27, 0x09	; 9
    3034:	15 96       	adiw	r26, 0x05	; 5
    3036:	8c 91       	ld	r24, X
    3038:	15 97       	sbiw	r26, 0x05	; 5
    303a:	80 6c       	ori	r24, 0xC0	; 192
    303c:	15 96       	adiw	r26, 0x05	; 5
    303e:	8c 93       	st	X, r24
    3040:	15 97       	sbiw	r26, 0x05	; 5
    3042:	13 96       	adiw	r26, 0x03	; 3
    3044:	8c 91       	ld	r24, X
    3046:	13 97       	sbiw	r26, 0x03	; 3
    3048:	8f 73       	andi	r24, 0x3F	; 63
    304a:	13 96       	adiw	r26, 0x03	; 3
    304c:	8c 93       	st	X, r24
    304e:	83 85       	ldd	r24, Z+11	; 0x0b
    3050:	08 95       	ret
    3052:	81 e0       	ldi	r24, 0x01	; 1
    3054:	08 95       	ret

00003056 <I2C_0_set_buffer>:
    3056:	9c 01       	movw	r18, r24
    3058:	90 91 85 41 	lds	r25, 0x4185	; 0x804185 <I2C_0_status>
    305c:	92 ff       	sbrs	r25, 2
    305e:	09 c0       	rjmp	.+18     	; 0x3072 <I2C_0_set_buffer+0x1c>
    3060:	e5 e8       	ldi	r30, 0x85	; 133
    3062:	f1 e4       	ldi	r31, 0x41	; 65
    3064:	22 83       	std	Z+2, r18	; 0x02
    3066:	33 83       	std	Z+3, r19	; 0x03
    3068:	64 83       	std	Z+4, r22	; 0x04
    306a:	75 83       	std	Z+5, r23	; 0x05
    306c:	89 2f       	mov	r24, r25
    306e:	8b 7f       	andi	r24, 0xFB	; 251
    3070:	80 83       	st	Z, r24
    3072:	08 95       	ret

00003074 <I2C_0_master_operation>:
    3074:	90 91 85 41 	lds	r25, 0x4185	; 0x804185 <I2C_0_status>
    3078:	90 fd       	sbrc	r25, 0
    307a:	11 c0       	rjmp	.+34     	; 0x309e <I2C_0_master_operation+0x2a>
    307c:	e5 e8       	ldi	r30, 0x85	; 133
    307e:	f1 e4       	ldi	r31, 0x41	; 65
    3080:	91 60       	ori	r25, 0x01	; 1
    3082:	90 83       	st	Z, r25
    3084:	88 23       	and	r24, r24
    3086:	21 f0       	breq	.+8      	; 0x3090 <I2C_0_master_operation+0x1c>
    3088:	81 e0       	ldi	r24, 0x01	; 1
    308a:	80 93 8f 41 	sts	0x418F, r24	; 0x80418f <I2C_0_status+0xa>
    308e:	03 c0       	rjmp	.+6      	; 0x3096 <I2C_0_master_operation+0x22>
    3090:	82 e0       	ldi	r24, 0x02	; 2
    3092:	80 93 8f 41 	sts	0x418F, r24	; 0x80418f <I2C_0_status+0xa>
    3096:	0e 94 2c 16 	call	0x2c58	; 0x2c58 <I2C_0_master_isr>
    309a:	80 e0       	ldi	r24, 0x00	; 0
    309c:	08 95       	ret
    309e:	81 e0       	ldi	r24, 0x01	; 1
    30a0:	08 95       	ret

000030a2 <I2C_0_master_write>:
/**
 * \brief Identical to I2C_0_master_operation(false);
 */
i2c_error_t I2C_0_master_write(void)
{
	return I2C_0_master_operation(false);
    30a2:	80 e0       	ldi	r24, 0x00	; 0
    30a4:	0e 94 3a 18 	call	0x3074	; 0x3074 <I2C_0_master_operation>
}
    30a8:	08 95       	ret

000030aa <__vector_43>:
    I2C_0_do_I2C_BUS_COLLISION,      // I2C_BUS_COLLISION
    I2C_0_do_I2C_BUS_ERROR           // I2C_BUS_ERROR
};

ISR(TWI1_TWIM_vect)
{
    30aa:	1f 92       	push	r1
    30ac:	0f 92       	push	r0
    30ae:	0f b6       	in	r0, 0x3f	; 63
    30b0:	0f 92       	push	r0
    30b2:	11 24       	eor	r1, r1
    30b4:	0b b6       	in	r0, 0x3b	; 59
    30b6:	0f 92       	push	r0
    30b8:	2f 93       	push	r18
    30ba:	3f 93       	push	r19
    30bc:	4f 93       	push	r20
    30be:	5f 93       	push	r21
    30c0:	6f 93       	push	r22
    30c2:	7f 93       	push	r23
    30c4:	8f 93       	push	r24
    30c6:	9f 93       	push	r25
    30c8:	af 93       	push	r26
    30ca:	bf 93       	push	r27
    30cc:	ef 93       	push	r30
    30ce:	ff 93       	push	r31
	I2C_0_master_isr();
    30d0:	0e 94 2c 16 	call	0x2c58	; 0x2c58 <I2C_0_master_isr>
}
    30d4:	ff 91       	pop	r31
    30d6:	ef 91       	pop	r30
    30d8:	bf 91       	pop	r27
    30da:	af 91       	pop	r26
    30dc:	9f 91       	pop	r25
    30de:	8f 91       	pop	r24
    30e0:	7f 91       	pop	r23
    30e2:	6f 91       	pop	r22
    30e4:	5f 91       	pop	r21
    30e6:	4f 91       	pop	r20
    30e8:	3f 91       	pop	r19
    30ea:	2f 91       	pop	r18
    30ec:	0f 90       	pop	r0
    30ee:	0b be       	out	0x3b, r0	; 59
    30f0:	0f 90       	pop	r0
    30f2:	0f be       	out	0x3f, r0	; 63
    30f4:	0f 90       	pop	r0
    30f6:	1f 90       	pop	r1
    30f8:	18 95       	reti

000030fa <I2C_0_wr1RegCompleteHandler>:
    30fa:	61 e0       	ldi	r22, 0x01	; 1
    30fc:	70 e0       	ldi	r23, 0x00	; 0
    30fe:	0e 94 2b 18 	call	0x3056	; 0x3056 <I2C_0_set_buffer>
    3102:	60 e0       	ldi	r22, 0x00	; 0
    3104:	70 e0       	ldi	r23, 0x00	; 0
    3106:	80 e0       	ldi	r24, 0x00	; 0
    3108:	90 e0       	ldi	r25, 0x00	; 0
    310a:	0e 94 b4 17 	call	0x2f68	; 0x2f68 <I2C_0_set_data_complete_callback>
    310e:	84 e0       	ldi	r24, 0x04	; 4
    3110:	08 95       	ret

00003112 <I2C_0_rd1RegCompleteHandler>:
    3112:	61 e0       	ldi	r22, 0x01	; 1
    3114:	70 e0       	ldi	r23, 0x00	; 0
    3116:	0e 94 2b 18 	call	0x3056	; 0x3056 <I2C_0_set_buffer>
    311a:	60 e0       	ldi	r22, 0x00	; 0
    311c:	70 e0       	ldi	r23, 0x00	; 0
    311e:	80 e0       	ldi	r24, 0x00	; 0
    3120:	90 e0       	ldi	r25, 0x00	; 0
    3122:	0e 94 b4 17 	call	0x2f68	; 0x2f68 <I2C_0_set_data_complete_callback>
    3126:	82 e0       	ldi	r24, 0x02	; 2
    3128:	08 95       	ret

0000312a <I2C_0_write1ByteRegister>:
    312a:	ff 92       	push	r15
    312c:	0f 93       	push	r16
    312e:	1f 93       	push	r17
    3130:	cf 93       	push	r28
    3132:	df 93       	push	r29
    3134:	00 d0       	rcall	.+0      	; 0x3136 <I2C_0_write1ByteRegister+0xc>
    3136:	cd b7       	in	r28, 0x3d	; 61
    3138:	de b7       	in	r29, 0x3e	; 62
    313a:	f8 2e       	mov	r15, r24
    313c:	69 83       	std	Y+1, r22	; 0x01
    313e:	4a 83       	std	Y+2, r20	; 0x02
    3140:	00 e1       	ldi	r16, 0x10	; 16
    3142:	17 e2       	ldi	r17, 0x27	; 39
    3144:	8f 2d       	mov	r24, r15
    3146:	0e 94 c7 17 	call	0x2f8e	; 0x2f8e <I2C_0_open>
    314a:	81 30       	cpi	r24, 0x01	; 1
    314c:	21 f4       	brne	.+8      	; 0x3156 <I2C_0_write1ByteRegister+0x2c>
    314e:	01 50       	subi	r16, 0x01	; 1
    3150:	11 09       	sbc	r17, r1
    3152:	c1 f7       	brne	.-16     	; 0x3144 <I2C_0_write1ByteRegister+0x1a>
    3154:	29 c0       	rjmp	.+82     	; 0x31a8 <I2C_0_write1ByteRegister+0x7e>
    3156:	01 2b       	or	r16, r17
    3158:	21 f1       	breq	.+72     	; 0x31a2 <I2C_0_write1ByteRegister+0x78>
    315a:	be 01       	movw	r22, r28
    315c:	6e 5f       	subi	r22, 0xFE	; 254
    315e:	7f 4f       	sbci	r23, 0xFF	; 255
    3160:	8d e7       	ldi	r24, 0x7D	; 125
    3162:	98 e1       	ldi	r25, 0x18	; 24
    3164:	0e 94 b4 17 	call	0x2f68	; 0x2f68 <I2C_0_set_data_complete_callback>
    3168:	61 e0       	ldi	r22, 0x01	; 1
    316a:	70 e0       	ldi	r23, 0x00	; 0
    316c:	ce 01       	movw	r24, r28
    316e:	01 96       	adiw	r24, 0x01	; 1
    3170:	0e 94 2b 18 	call	0x3056	; 0x3056 <I2C_0_set_buffer>
    3174:	60 e0       	ldi	r22, 0x00	; 0
    3176:	70 e0       	ldi	r23, 0x00	; 0
    3178:	89 e1       	ldi	r24, 0x19	; 25
    317a:	99 e1       	ldi	r25, 0x19	; 25
    317c:	0e 94 ba 17 	call	0x2f74	; 0x2f74 <I2C_0_set_address_nack_callback>
    3180:	0e 94 51 18 	call	0x30a2	; 0x30a2 <I2C_0_master_write>
    3184:	00 e1       	ldi	r16, 0x10	; 16
    3186:	17 e2       	ldi	r17, 0x27	; 39
    3188:	0e 94 03 18 	call	0x3006	; 0x3006 <I2C_0_close>
    318c:	81 30       	cpi	r24, 0x01	; 1
    318e:	29 f4       	brne	.+10     	; 0x319a <I2C_0_write1ByteRegister+0x70>
    3190:	01 50       	subi	r16, 0x01	; 1
    3192:	11 09       	sbc	r17, r1
    3194:	c9 f7       	brne	.-14     	; 0x3188 <I2C_0_write1ByteRegister+0x5e>
    3196:	82 e0       	ldi	r24, 0x02	; 2
    3198:	07 c0       	rjmp	.+14     	; 0x31a8 <I2C_0_write1ByteRegister+0x7e>
    319a:	01 2b       	or	r16, r17
    319c:	21 f0       	breq	.+8      	; 0x31a6 <I2C_0_write1ByteRegister+0x7c>
    319e:	80 e0       	ldi	r24, 0x00	; 0
    31a0:	03 c0       	rjmp	.+6      	; 0x31a8 <I2C_0_write1ByteRegister+0x7e>
    31a2:	81 e0       	ldi	r24, 0x01	; 1
    31a4:	01 c0       	rjmp	.+2      	; 0x31a8 <I2C_0_write1ByteRegister+0x7e>
    31a6:	82 e0       	ldi	r24, 0x02	; 2
    31a8:	0f 90       	pop	r0
    31aa:	0f 90       	pop	r0
    31ac:	df 91       	pop	r29
    31ae:	cf 91       	pop	r28
    31b0:	1f 91       	pop	r17
    31b2:	0f 91       	pop	r16
    31b4:	ff 90       	pop	r15
    31b6:	08 95       	ret

000031b8 <I2C_0_read1ByteRegister>:
    31b8:	ef 92       	push	r14
    31ba:	ff 92       	push	r15
    31bc:	1f 93       	push	r17
    31be:	cf 93       	push	r28
    31c0:	df 93       	push	r29
    31c2:	00 d0       	rcall	.+0      	; 0x31c4 <I2C_0_read1ByteRegister+0xc>
    31c4:	cd b7       	in	r28, 0x3d	; 61
    31c6:	de b7       	in	r29, 0x3e	; 62
    31c8:	18 2f       	mov	r17, r24
    31ca:	6a 83       	std	Y+2, r22	; 0x02
    31cc:	8a e2       	ldi	r24, 0x2A	; 42
    31ce:	89 83       	std	Y+1, r24	; 0x01
    31d0:	68 94       	set
    31d2:	ee 24       	eor	r14, r14
    31d4:	e1 f8       	bld	r14, 1
    31d6:	f1 2c       	mov	r15, r1
    31d8:	81 2f       	mov	r24, r17
    31da:	0e 94 c7 17 	call	0x2f8e	; 0x2f8e <I2C_0_open>
    31de:	88 23       	and	r24, r24
    31e0:	d9 f3       	breq	.-10     	; 0x31d8 <I2C_0_read1ByteRegister+0x20>
    31e2:	be 01       	movw	r22, r28
    31e4:	6f 5f       	subi	r22, 0xFF	; 255
    31e6:	7f 4f       	sbci	r23, 0xFF	; 255
    31e8:	89 e8       	ldi	r24, 0x89	; 137
    31ea:	98 e1       	ldi	r25, 0x18	; 24
    31ec:	0e 94 b4 17 	call	0x2f68	; 0x2f68 <I2C_0_set_data_complete_callback>
    31f0:	61 e0       	ldi	r22, 0x01	; 1
    31f2:	70 e0       	ldi	r23, 0x00	; 0
    31f4:	ce 01       	movw	r24, r28
    31f6:	02 96       	adiw	r24, 0x02	; 2
    31f8:	0e 94 2b 18 	call	0x3056	; 0x3056 <I2C_0_set_buffer>
    31fc:	60 e0       	ldi	r22, 0x00	; 0
    31fe:	70 e0       	ldi	r23, 0x00	; 0
    3200:	89 e1       	ldi	r24, 0x19	; 25
    3202:	99 e1       	ldi	r25, 0x19	; 25
    3204:	0e 94 ba 17 	call	0x2f74	; 0x2f74 <I2C_0_set_address_nack_callback>
    3208:	0e 94 51 18 	call	0x30a2	; 0x30a2 <I2C_0_master_write>
    320c:	0e 94 03 18 	call	0x3006	; 0x3006 <I2C_0_close>
    3210:	81 30       	cpi	r24, 0x01	; 1
    3212:	e1 f3       	breq	.-8      	; 0x320c <I2C_0_read1ByteRegister+0x54>
    3214:	88 23       	and	r24, r24
    3216:	21 f0       	breq	.+8      	; 0x3220 <I2C_0_read1ByteRegister+0x68>
    3218:	81 e0       	ldi	r24, 0x01	; 1
    321a:	e8 1a       	sub	r14, r24
    321c:	f1 08       	sbc	r15, r1
    321e:	e1 f6       	brne	.-72     	; 0x31d8 <I2C_0_read1ByteRegister+0x20>
    3220:	89 81       	ldd	r24, Y+1	; 0x01
    3222:	0f 90       	pop	r0
    3224:	0f 90       	pop	r0
    3226:	df 91       	pop	r29
    3228:	cf 91       	pop	r28
    322a:	1f 91       	pop	r17
    322c:	ff 90       	pop	r15
    322e:	ef 90       	pop	r14
    3230:	08 95       	ret

00003232 <i2c_cb_restart_write>:
    3232:	83 e0       	ldi	r24, 0x03	; 3
    3234:	08 95       	ret

00003236 <Cell_Desplay>:
//=================================================================================================
#include <loadcell.h>

//=================================================================================================
void Cell_Desplay(void)								// ыбЬыУЬьЕА ым┤ъ▓М эСЬьЛЬ
{
    3236:	8f 92       	push	r8
    3238:	9f 92       	push	r9
    323a:	af 92       	push	r10
    323c:	bf 92       	push	r11
    323e:	ef 92       	push	r14
    3240:	ff 92       	push	r15
    3242:	0f 93       	push	r16
    3244:	1f 93       	push	r17
    3246:	cf 93       	push	r28
    3248:	df 93       	push	r29
	Weight_10000 = CELL.Value / 10000;					// ь╕бьаХым┤ъ▓М 100.00ьЭШ ьЮРыжм 100.00kg
    324a:	cc e1       	ldi	r28, 0x1C	; 28
    324c:	d1 e5       	ldi	r29, 0x51	; 81
    324e:	69 81       	ldd	r22, Y+1	; 0x01
    3250:	7a 81       	ldd	r23, Y+2	; 0x02
    3252:	8b 81       	ldd	r24, Y+3	; 0x03
    3254:	9c 81       	ldd	r25, Y+4	; 0x04
    3256:	0f 2e       	mov	r0, r31
    3258:	f0 e1       	ldi	r31, 0x10	; 16
    325a:	8f 2e       	mov	r8, r31
    325c:	f7 e2       	ldi	r31, 0x27	; 39
    325e:	9f 2e       	mov	r9, r31
    3260:	a1 2c       	mov	r10, r1
    3262:	b1 2c       	mov	r11, r1
    3264:	f0 2d       	mov	r31, r0
    3266:	a5 01       	movw	r20, r10
    3268:	94 01       	movw	r18, r8
    326a:	0e 94 e7 3c 	call	0x79ce	; 0x79ce <__divmodsi4>
    326e:	e2 2e       	mov	r14, r18
    3270:	20 93 aa 41 	sts	0x41AA, r18	; 0x8041aa <Weight_10000>
	Weight_1000  = CELL.Value % 10000 / 1000;				// ь╕бьаХым┤ъ▓М  10.00ьЭШ ьЮРыжм  10.00kg
    3274:	69 81       	ldd	r22, Y+1	; 0x01
    3276:	7a 81       	ldd	r23, Y+2	; 0x02
    3278:	8b 81       	ldd	r24, Y+3	; 0x03
    327a:	9c 81       	ldd	r25, Y+4	; 0x04
    327c:	a5 01       	movw	r20, r10
    327e:	94 01       	movw	r18, r8
    3280:	0e 94 e7 3c 	call	0x79ce	; 0x79ce <__divmodsi4>
    3284:	0f 2e       	mov	r0, r31
    3286:	f8 ee       	ldi	r31, 0xE8	; 232
    3288:	8f 2e       	mov	r8, r31
    328a:	f3 e0       	ldi	r31, 0x03	; 3
    328c:	9f 2e       	mov	r9, r31
    328e:	a1 2c       	mov	r10, r1
    3290:	b1 2c       	mov	r11, r1
    3292:	f0 2d       	mov	r31, r0
    3294:	a5 01       	movw	r20, r10
    3296:	94 01       	movw	r18, r8
    3298:	0e 94 e7 3c 	call	0x79ce	; 0x79ce <__divmodsi4>
    329c:	f2 2e       	mov	r15, r18
    329e:	20 93 74 51 	sts	0x5174, r18	; 0x805174 <Weight_1000>
	Weight_100   = CELL.Value % 1000 / 100;					// ь╕бьаХым┤ъ▓М   1.00ьЭШ ьЮРыжм   1.00kg
    32a2:	69 81       	ldd	r22, Y+1	; 0x01
    32a4:	7a 81       	ldd	r23, Y+2	; 0x02
    32a6:	8b 81       	ldd	r24, Y+3	; 0x03
    32a8:	9c 81       	ldd	r25, Y+4	; 0x04
    32aa:	a5 01       	movw	r20, r10
    32ac:	94 01       	movw	r18, r8
    32ae:	0e 94 e7 3c 	call	0x79ce	; 0x79ce <__divmodsi4>
    32b2:	0f 2e       	mov	r0, r31
    32b4:	f4 e6       	ldi	r31, 0x64	; 100
    32b6:	8f 2e       	mov	r8, r31
    32b8:	91 2c       	mov	r9, r1
    32ba:	a1 2c       	mov	r10, r1
    32bc:	b1 2c       	mov	r11, r1
    32be:	f0 2d       	mov	r31, r0
    32c0:	a5 01       	movw	r20, r10
    32c2:	94 01       	movw	r18, r8
    32c4:	0e 94 e7 3c 	call	0x79ce	; 0x79ce <__divmodsi4>
    32c8:	02 2f       	mov	r16, r18
    32ca:	20 93 67 51 	sts	0x5167, r18	; 0x805167 <Weight_100>
	Weight_10    = CELL.Value % 100 / 10;					// ь╕бьаХым┤ъ▓М   0.10ьЭШ ьЮРыжм   0.10Kg
    32ce:	69 81       	ldd	r22, Y+1	; 0x01
    32d0:	7a 81       	ldd	r23, Y+2	; 0x02
    32d2:	8b 81       	ldd	r24, Y+3	; 0x03
    32d4:	9c 81       	ldd	r25, Y+4	; 0x04
    32d6:	a5 01       	movw	r20, r10
    32d8:	94 01       	movw	r18, r8
    32da:	0e 94 e7 3c 	call	0x79ce	; 0x79ce <__divmodsi4>
    32de:	0f 2e       	mov	r0, r31
    32e0:	fa e0       	ldi	r31, 0x0A	; 10
    32e2:	8f 2e       	mov	r8, r31
    32e4:	91 2c       	mov	r9, r1
    32e6:	a1 2c       	mov	r10, r1
    32e8:	b1 2c       	mov	r11, r1
    32ea:	f0 2d       	mov	r31, r0
    32ec:	a5 01       	movw	r20, r10
    32ee:	94 01       	movw	r18, r8
    32f0:	0e 94 e7 3c 	call	0x79ce	; 0x79ce <__divmodsi4>
    32f4:	12 2f       	mov	r17, r18
    32f6:	20 93 47 51 	sts	0x5147, r18	; 0x805147 <Weight_10>
	Weight_1     = CELL.Value % 10;						// ь╕бьаХым┤ъ▓М   0.01ьЭШ ьЮРыжм   0.01Kg
    32fa:	69 81       	ldd	r22, Y+1	; 0x01
    32fc:	7a 81       	ldd	r23, Y+2	; 0x02
    32fe:	8b 81       	ldd	r24, Y+3	; 0x03
    3300:	9c 81       	ldd	r25, Y+4	; 0x04
    3302:	a5 01       	movw	r20, r10
    3304:	94 01       	movw	r18, r8
    3306:	0e 94 e7 3c 	call	0x79ce	; 0x79ce <__divmodsi4>
    330a:	60 93 5f 51 	sts	0x515F, r22	; 0x80515f <Weight_1>

	if(CELL.Value > 10000)							// ь╕бьаХым┤ъ▓М 100Kg ы│┤ыЛд эБмый┤
    330e:	89 81       	ldd	r24, Y+1	; 0x01
    3310:	9a 81       	ldd	r25, Y+2	; 0x02
    3312:	ab 81       	ldd	r26, Y+3	; 0x03
    3314:	bc 81       	ldd	r27, Y+4	; 0x04
    3316:	81 31       	cpi	r24, 0x11	; 17
    3318:	97 42       	sbci	r25, 0x27	; 39
    331a:	a1 05       	cpc	r26, r1
    331c:	b1 05       	cpc	r27, r1
    331e:	14 f1       	brlt	.+68     	; 0x3364 <Cell_Desplay+0x12e>
	{
		DIGIT[0][3] = fnd_tbl[Weight_10000];				// ь╕бьаХым┤ъ▓М 100.00ьЭШ ьЮРыжм
    3320:	a9 e7       	ldi	r26, 0x79	; 121
    3322:	b1 e4       	ldi	r27, 0x41	; 65
    3324:	ee 2d       	mov	r30, r14
    3326:	f0 e0       	ldi	r31, 0x00	; 0
    3328:	ed 5b       	subi	r30, 0xBD	; 189
    332a:	fe 4b       	sbci	r31, 0xBE	; 190
    332c:	80 81       	ld	r24, Z
    332e:	13 96       	adiw	r26, 0x03	; 3
    3330:	8c 93       	st	X, r24
    3332:	13 97       	sbiw	r26, 0x03	; 3
		DIGIT[0][2] = fnd_tbl[Weight_1000];				// ь╕бьаХым┤ъ▓М  10.00ьЭШ ьЮРыжм
    3334:	ef 2d       	mov	r30, r15
    3336:	f0 e0       	ldi	r31, 0x00	; 0
    3338:	ed 5b       	subi	r30, 0xBD	; 189
    333a:	fe 4b       	sbci	r31, 0xBE	; 190
    333c:	80 81       	ld	r24, Z
    333e:	12 96       	adiw	r26, 0x02	; 2
    3340:	8c 93       	st	X, r24
    3342:	12 97       	sbiw	r26, 0x02	; 2
		DIGIT[0][1] = fnd_tbl[Weight_100]+FND_Point;			// ь╕бьаХым┤ъ▓М   1.00ьЭШ ьЮРыжм
    3344:	e0 2f       	mov	r30, r16
    3346:	f0 e0       	ldi	r31, 0x00	; 0
    3348:	ed 5b       	subi	r30, 0xBD	; 189
    334a:	fe 4b       	sbci	r31, 0xBE	; 190
    334c:	80 81       	ld	r24, Z
    334e:	8f 5f       	subi	r24, 0xFF	; 255
    3350:	11 96       	adiw	r26, 0x01	; 1
    3352:	8c 93       	st	X, r24
    3354:	11 97       	sbiw	r26, 0x01	; 1
		DIGIT[0][0] = fnd_tbl[Weight_10];				// ь╕бьаХым┤ъ▓М   0.10ьЭШ ьЮРыжм
    3356:	e1 2f       	mov	r30, r17
    3358:	f0 e0       	ldi	r31, 0x00	; 0
    335a:	ed 5b       	subi	r30, 0xBD	; 189
    335c:	fe 4b       	sbci	r31, 0xBE	; 190
    335e:	80 81       	ld	r24, Z
    3360:	8c 93       	st	X, r24
    3362:	58 c0       	rjmp	.+176    	; 0x3414 <Cell_Desplay+0x1de>
	}
	else if(CELL.Value > 1000)						// ь╕бьаХым┤ъ▓М 10Kg ы│┤ыЛд эБмый┤
    3364:	80 91 1d 51 	lds	r24, 0x511D	; 0x80511d <CELL+0x1>
    3368:	90 91 1e 51 	lds	r25, 0x511E	; 0x80511e <CELL+0x2>
    336c:	a0 91 1f 51 	lds	r26, 0x511F	; 0x80511f <CELL+0x3>
    3370:	b0 91 20 51 	lds	r27, 0x5120	; 0x805120 <CELL+0x4>
    3374:	89 3e       	cpi	r24, 0xE9	; 233
    3376:	93 40       	sbci	r25, 0x03	; 3
    3378:	a1 05       	cpc	r26, r1
    337a:	b1 05       	cpc	r27, r1
    337c:	14 f1       	brlt	.+68     	; 0x33c2 <Cell_Desplay+0x18c>
	{
		DIGIT[0][3] = fnd_tbl[Weight_1000];				// ь╕бьаХым┤ъ▓М 10.00ьЭШ ьЮРыжм
    337e:	a9 e7       	ldi	r26, 0x79	; 121
    3380:	b1 e4       	ldi	r27, 0x41	; 65
    3382:	ef 2d       	mov	r30, r15
    3384:	f0 e0       	ldi	r31, 0x00	; 0
    3386:	ed 5b       	subi	r30, 0xBD	; 189
    3388:	fe 4b       	sbci	r31, 0xBE	; 190
    338a:	80 81       	ld	r24, Z
    338c:	13 96       	adiw	r26, 0x03	; 3
    338e:	8c 93       	st	X, r24
    3390:	13 97       	sbiw	r26, 0x03	; 3
		DIGIT[0][2] = fnd_tbl[Weight_100]+FND_Point;			// ь╕бьаХым┤ъ▓М  1.00ьЭШ ьЮРыжм
    3392:	e0 2f       	mov	r30, r16
    3394:	f0 e0       	ldi	r31, 0x00	; 0
    3396:	ed 5b       	subi	r30, 0xBD	; 189
    3398:	fe 4b       	sbci	r31, 0xBE	; 190
    339a:	80 81       	ld	r24, Z
    339c:	8f 5f       	subi	r24, 0xFF	; 255
    339e:	12 96       	adiw	r26, 0x02	; 2
    33a0:	8c 93       	st	X, r24
    33a2:	12 97       	sbiw	r26, 0x02	; 2
		DIGIT[0][1] = fnd_tbl[Weight_10];				// ь╕бьаХым┤ъ▓М  0.10ьЭШ ьЮРыжм
    33a4:	e1 2f       	mov	r30, r17
    33a6:	f0 e0       	ldi	r31, 0x00	; 0
    33a8:	ed 5b       	subi	r30, 0xBD	; 189
    33aa:	fe 4b       	sbci	r31, 0xBE	; 190
    33ac:	80 81       	ld	r24, Z
    33ae:	11 96       	adiw	r26, 0x01	; 1
    33b0:	8c 93       	st	X, r24
    33b2:	11 97       	sbiw	r26, 0x01	; 1
		DIGIT[0][0] = fnd_tbl[Weight_1];				// ь╕бьаХым┤ъ▓М  0.01ьЭШ ьЮРыжм
    33b4:	e6 2f       	mov	r30, r22
    33b6:	f0 e0       	ldi	r31, 0x00	; 0
    33b8:	ed 5b       	subi	r30, 0xBD	; 189
    33ba:	fe 4b       	sbci	r31, 0xBE	; 190
    33bc:	80 81       	ld	r24, Z
    33be:	8c 93       	st	X, r24
    33c0:	29 c0       	rjmp	.+82     	; 0x3414 <Cell_Desplay+0x1de>
	}
	else if(CELL.Value < 1000)						// ь╕бьаХым┤ъ▓М 10Kg ы│┤ыЛд ьЮСьЬ╝ый┤
    33c2:	80 91 1d 51 	lds	r24, 0x511D	; 0x80511d <CELL+0x1>
    33c6:	90 91 1e 51 	lds	r25, 0x511E	; 0x80511e <CELL+0x2>
    33ca:	a0 91 1f 51 	lds	r26, 0x511F	; 0x80511f <CELL+0x3>
    33ce:	b0 91 20 51 	lds	r27, 0x5120	; 0x805120 <CELL+0x4>
    33d2:	88 3e       	cpi	r24, 0xE8	; 232
    33d4:	93 40       	sbci	r25, 0x03	; 3
    33d6:	a1 05       	cpc	r26, r1
    33d8:	b1 05       	cpc	r27, r1
    33da:	e4 f4       	brge	.+56     	; 0x3414 <Cell_Desplay+0x1de>
	{
		DIGIT[0][3] = FND_OFF;						// ь╕бьаХым┤ъ▓М 10.00ьЭШ ьЮРыжм OFF
    33dc:	a9 e7       	ldi	r26, 0x79	; 121
    33de:	b1 e4       	ldi	r27, 0x41	; 65
    33e0:	13 96       	adiw	r26, 0x03	; 3
    33e2:	1c 92       	st	X, r1
    33e4:	13 97       	sbiw	r26, 0x03	; 3
		DIGIT[0][2] = fnd_tbl[Weight_100]+FND_Point;			// ь╕бьаХым┤ъ▓М  1.00ьЭШ ьЮРыжм
    33e6:	e0 2f       	mov	r30, r16
    33e8:	f0 e0       	ldi	r31, 0x00	; 0
    33ea:	ed 5b       	subi	r30, 0xBD	; 189
    33ec:	fe 4b       	sbci	r31, 0xBE	; 190
    33ee:	80 81       	ld	r24, Z
    33f0:	8f 5f       	subi	r24, 0xFF	; 255
    33f2:	12 96       	adiw	r26, 0x02	; 2
    33f4:	8c 93       	st	X, r24
    33f6:	12 97       	sbiw	r26, 0x02	; 2
		DIGIT[0][1] = fnd_tbl[Weight_10];				// ь╕бьаХым┤ъ▓М  0.10ьЭШ ьЮРыжм
    33f8:	e1 2f       	mov	r30, r17
    33fa:	f0 e0       	ldi	r31, 0x00	; 0
    33fc:	ed 5b       	subi	r30, 0xBD	; 189
    33fe:	fe 4b       	sbci	r31, 0xBE	; 190
    3400:	80 81       	ld	r24, Z
    3402:	11 96       	adiw	r26, 0x01	; 1
    3404:	8c 93       	st	X, r24
    3406:	11 97       	sbiw	r26, 0x01	; 1
		DIGIT[0][0] = fnd_tbl[Weight_1];				// ь╕бьаХым┤ъ▓М  0.01ьЭШ ьЮРыжм
    3408:	e6 2f       	mov	r30, r22
    340a:	f0 e0       	ldi	r31, 0x00	; 0
    340c:	ed 5b       	subi	r30, 0xBD	; 189
    340e:	fe 4b       	sbci	r31, 0xBE	; 190
    3410:	80 81       	ld	r24, Z
    3412:	8c 93       	st	X, r24
	}
}
    3414:	df 91       	pop	r29
    3416:	cf 91       	pop	r28
    3418:	1f 91       	pop	r17
    341a:	0f 91       	pop	r16
    341c:	ff 90       	pop	r15
    341e:	ef 90       	pop	r14
    3420:	bf 90       	pop	r11
    3422:	af 90       	pop	r10
    3424:	9f 90       	pop	r9
    3426:	8f 90       	pop	r8
    3428:	08 95       	ret

0000342a <Cell_Data_Read>:

//=================================================================================================
int32_t Cell_Data_Read(void)							// ыбЬыУЬьЕА Data ьЭ╜ъ╕░, HX711 ьаЬьЦ┤
{
    342a:	8f 92       	push	r8
    342c:	9f 92       	push	r9
    342e:	af 92       	push	r10
    3430:	bf 92       	push	r11
    3432:	cf 92       	push	r12
    3434:	df 92       	push	r13
    3436:	ef 92       	push	r14
    3438:	ff 92       	push	r15
	int32_t Value = 0;							// Data ьаАьЮеьЪй ы│АьИШ ь┤Иъ╕░эЩФ

	SCK_LOW_1;								// HX711 SCk LOW
    343a:	e4 e4       	ldi	r30, 0x44	; 68
    343c:	f4 e0       	ldi	r31, 0x04	; 4
    343e:	80 81       	ld	r24, Z
    3440:	8b 7f       	andi	r24, 0xFB	; 251
    3442:	80 83       	st	Z, r24
	while(DO1);								// HX711 SDAъ░А HIGH ьЭ┤ый┤ ыМАъ╕░
    3444:	e8 e4       	ldi	r30, 0x48	; 72
    3446:	f4 e0       	ldi	r31, 0x04	; 4
    3448:	80 81       	ld	r24, Z
    344a:	83 ff       	sbrs	r24, 3
    344c:	fd cf       	rjmp	.-6      	; 0x3448 <Cell_Data_Read+0x1e>
    344e:	98 e1       	ldi	r25, 0x18	; 24
    3450:	c1 2c       	mov	r12, r1
    3452:	d1 2c       	mov	r13, r1
    3454:	76 01       	movw	r14, r12
	for(uint8_t i = 0; i < 24; i++)						// 24bit Data ызМэБ╝ ы░Шы│╡
	{
		SCK_HIGH_1;							// HX711 SCk HIGH
    3456:	e4 e4       	ldi	r30, 0x44	; 68
    3458:	f4 e0       	ldi	r31, 0x04	; 4
		_delay_us(20);
		Value = Value << 1;						// Data 1ьЮРыжм ьЙмэФДэК╕
		SCK_LOW_1;							// HX711 SCk LOW
		_delay_us(20);
		if(DO1) {Value++;}						// HX711 SDAъ░А HIGH ьЭ┤ый┤ Bit Data ыНФэХШъ╕░
    345a:	a8 e4       	ldi	r26, 0x48	; 72
    345c:	b4 e0       	ldi	r27, 0x04	; 4

	SCK_LOW_1;								// HX711 SCk LOW
	while(DO1);								// HX711 SDAъ░А HIGH ьЭ┤ый┤ ыМАъ╕░
	for(uint8_t i = 0; i < 24; i++)						// 24bit Data ызМэБ╝ ы░Шы│╡
	{
		SCK_HIGH_1;							// HX711 SCk HIGH
    345e:	80 81       	ld	r24, Z
    3460:	84 60       	ori	r24, 0x04	; 4
    3462:	80 83       	st	Z, r24
	#else
		//round up by default
		__ticks_dc = (uint32_t)(ceil(fabs(__tmp)));
	#endif

	__builtin_avr_delay_cycles(__ticks_dc);
    3464:	22 e6       	ldi	r18, 0x62	; 98
    3466:	2a 95       	dec	r18
    3468:	f1 f7       	brne	.-4      	; 0x3466 <Cell_Data_Read+0x3c>
    346a:	00 00       	nop
		_delay_us(20);
		Value = Value << 1;						// Data 1ьЮРыжм ьЙмэФДэК╕
    346c:	cc 0c       	add	r12, r12
    346e:	dd 1c       	adc	r13, r13
    3470:	ee 1c       	adc	r14, r14
    3472:	ff 1c       	adc	r15, r15
		SCK_LOW_1;							// HX711 SCk LOW
    3474:	80 81       	ld	r24, Z
    3476:	8b 7f       	andi	r24, 0xFB	; 251
    3478:	80 83       	st	Z, r24
    347a:	82 e6       	ldi	r24, 0x62	; 98
    347c:	8a 95       	dec	r24
    347e:	f1 f7       	brne	.-4      	; 0x347c <Cell_Data_Read+0x52>
    3480:	00 00       	nop
		_delay_us(20);
		if(DO1) {Value++;}						// HX711 SDAъ░А HIGH ьЭ┤ый┤ Bit Data ыНФэХШъ╕░
    3482:	8c 91       	ld	r24, X
    3484:	83 fd       	sbrc	r24, 3
    3486:	05 c0       	rjmp	.+10     	; 0x3492 <Cell_Data_Read+0x68>
    3488:	2f ef       	ldi	r18, 0xFF	; 255
    348a:	c2 1a       	sub	r12, r18
    348c:	d2 0a       	sbc	r13, r18
    348e:	e2 0a       	sbc	r14, r18
    3490:	f2 0a       	sbc	r15, r18
    3492:	91 50       	subi	r25, 0x01	; 1
{
	int32_t Value = 0;							// Data ьаАьЮеьЪй ы│АьИШ ь┤Иъ╕░эЩФ

	SCK_LOW_1;								// HX711 SCk LOW
	while(DO1);								// HX711 SDAъ░А HIGH ьЭ┤ый┤ ыМАъ╕░
	for(uint8_t i = 0; i < 24; i++)						// 24bit Data ызМэБ╝ ы░Шы│╡
    3494:	21 f7       	brne	.-56     	; 0x345e <Cell_Data_Read+0x34>
		Value = Value << 1;						// Data 1ьЮРыжм ьЙмэФДэК╕
		SCK_LOW_1;							// HX711 SCk LOW
		_delay_us(20);
		if(DO1) {Value++;}						// HX711 SDAъ░А HIGH ьЭ┤ый┤ Bit Data ыНФэХШъ╕░
	}
	SCK_HIGH_1;								// HX711 SCk HIGH
    3496:	e4 e4       	ldi	r30, 0x44	; 68
    3498:	f4 e0       	ldi	r31, 0x04	; 4
    349a:	80 81       	ld	r24, Z
    349c:	84 60       	ori	r24, 0x04	; 4
    349e:	80 83       	st	Z, r24
    34a0:	82 e6       	ldi	r24, 0x62	; 98
    34a2:	8a 95       	dec	r24
    34a4:	f1 f7       	brne	.-4      	; 0x34a2 <Cell_Data_Read+0x78>
    34a6:	00 00       	nop
	_delay_us(20);
	SCK_LOW_1;								// HX711 SCk LOW
    34a8:	80 81       	ld	r24, Z
    34aa:	8b 7f       	andi	r24, 0xFB	; 251
    34ac:	80 83       	st	Z, r24
	#else
		//round up by default
		__ticks_dc = (uint32_t)(ceil(fabs(__tmp)));
	#endif

	__builtin_avr_delay_cycles(__ticks_dc);
    34ae:	9f ef       	ldi	r25, 0xFF	; 255
    34b0:	2f e7       	ldi	r18, 0x7F	; 127
    34b2:	84 e0       	ldi	r24, 0x04	; 4
    34b4:	91 50       	subi	r25, 0x01	; 1
    34b6:	20 40       	sbci	r18, 0x00	; 0
    34b8:	80 40       	sbci	r24, 0x00	; 0
    34ba:	e1 f7       	brne	.-8      	; 0x34b4 <Cell_Data_Read+0x8a>
    34bc:	00 c0       	rjmp	.+0      	; 0x34be <Cell_Data_Read+0x94>
    34be:	00 00       	nop
	_delay_ms(100);

//	Value = Value ^ 0x400000;						// ьаДь▓┤ Data ьЭШ 2ьЭШ ы│┤ьИШ ъ░Т ъ╡мэХШъ╕░
	if(Value & 0x800000) {Value |= 0xFF000000;}				// 24bit тЖТ 32bit ы╢АэШ╕ эЩХьЮе (2ьЭШ ы│┤ьИШ)
    34c0:	e7 fe       	sbrs	r14, 7
    34c2:	02 c0       	rjmp	.+4      	; 0x34c8 <Cell_Data_Read+0x9e>
    34c4:	ff 24       	eor	r15, r15
    34c6:	fa 94       	dec	r15

	if(Value > Cell_Capa * 10000 + CELL.OFF_Set) {Value = 0;}		// ьаДь▓┤ Data ъ░А ьГБэХЬъ░Т ьЭ┤ьГБьЭ┤ый┤ Data ь┤Иъ╕░эЩФ (if(Value > 0x7FF000) {Value = 0;})
    34c8:	80 90 21 51 	lds	r8, 0x5121	; 0x805121 <CELL+0x5>
    34cc:	90 90 22 51 	lds	r9, 0x5122	; 0x805122 <CELL+0x6>
    34d0:	a0 90 23 51 	lds	r10, 0x5123	; 0x805123 <CELL+0x7>
    34d4:	b0 90 24 51 	lds	r11, 0x5124	; 0x805124 <CELL+0x8>
    34d8:	20 91 63 51 	lds	r18, 0x5163	; 0x805163 <Cell_Capa>
    34dc:	30 91 64 51 	lds	r19, 0x5164	; 0x805164 <Cell_Capa+0x1>
    34e0:	40 91 65 51 	lds	r20, 0x5165	; 0x805165 <Cell_Capa+0x2>
    34e4:	50 91 66 51 	lds	r21, 0x5166	; 0x805166 <Cell_Capa+0x3>
    34e8:	a0 e1       	ldi	r26, 0x10	; 16
    34ea:	b7 e2       	ldi	r27, 0x27	; 39
    34ec:	0e 94 1e 3d 	call	0x7a3c	; 0x7a3c <__muluhisi3>
    34f0:	86 0e       	add	r8, r22
    34f2:	97 1e       	adc	r9, r23
    34f4:	a8 1e       	adc	r10, r24
    34f6:	b9 1e       	adc	r11, r25
    34f8:	8c 14       	cp	r8, r12
    34fa:	9d 04       	cpc	r9, r13
    34fc:	ae 04       	cpc	r10, r14
    34fe:	bf 04       	cpc	r11, r15
    3500:	18 f4       	brcc	.+6      	; 0x3508 <Cell_Data_Read+0xde>
    3502:	c1 2c       	mov	r12, r1
    3504:	d1 2c       	mov	r13, r1
    3506:	76 01       	movw	r14, r12
	Proportion_Set();							// ы░░ьЬи ъ│ДьВ░
    3508:	0e 94 02 11 	call	0x2204	; 0x2204 <Proportion_Set>
	Value = Value / CELL.Proportion;					// Data / ы░░ьЬи = ым┤ъ▓М
    350c:	80 90 2d 51 	lds	r8, 0x512D	; 0x80512d <CELL+0x11>
    3510:	90 90 2e 51 	lds	r9, 0x512E	; 0x80512e <CELL+0x12>
    3514:	a0 90 2f 51 	lds	r10, 0x512F	; 0x80512f <CELL+0x13>
    3518:	b0 90 30 51 	lds	r11, 0x5130	; 0x805130 <CELL+0x14>
    351c:	c7 01       	movw	r24, r14
    351e:	b6 01       	movw	r22, r12
    3520:	0e 94 b1 37 	call	0x6f62	; 0x6f62 <__floatsisf>
    3524:	a5 01       	movw	r20, r10
    3526:	94 01       	movw	r18, r8
    3528:	0e 94 07 37 	call	0x6e0e	; 0x6e0e <__divsf3>
	return(Value);
    352c:	0e 94 79 37 	call	0x6ef2	; 0x6ef2 <__fixsfsi>
}
    3530:	ff 90       	pop	r15
    3532:	ef 90       	pop	r14
    3534:	df 90       	pop	r13
    3536:	cf 90       	pop	r12
    3538:	bf 90       	pop	r11
    353a:	af 90       	pop	r10
    353c:	9f 90       	pop	r9
    353e:	8f 90       	pop	r8
    3540:	08 95       	ret

00003542 <Cell_Zero_Set>:
void Cell_Zero_Set(void)							// ыбЬыУЬьЕА 0 ъ░Т ь░╛ъ╕░
{
	int32_t Value = 0;							// ь╕бьаХ ъ░Т ы│АьИШ ь┤Иъ╕░эЩФ
//	int32_t Value_Sum = 0;							// ь╕бьаХ ъ░Т ъ│ДьВ░ ы│АьИШ ь┤Иъ╕░эЩФ

	Value = Cell_Data_Read();						// ыбЬыУЬьЕА Data ьЭ╜ъ╕░
    3542:	0e 94 15 1a 	call	0x342a	; 0x342a <Cell_Data_Read>
		Value_Sum = CELL.OFF_Set - Value;				// ыбЬыУЬьЕА OFF_Set ь┤Иъ╕░ъ░Т(20Kg) - Data = Value_Sum
		if     (Value_Sum > 0) {CELL.OFF_Set = CELL.OFF_Set - Value_Sum;}				// Value_Sum ъ░ТьЭ┤ 0 ы│┤ыЛд   эБмый┤ OFF_Set - Value_Sum эХ┤ьДЬ OFF_SetьЧР ьаАьЮе
		else if(Value_Sum < 0) {CELL.OFF_Set = CELL.OFF_Set + Value_Sum;}				// Value_Sum ъ░ТьЭ┤ 0 ы│┤ыЛд ьЮСьЬ╝ый┤ OFF_Set + Value_Sum эХ┤ьДЬ OFF_SetьЧР ьаАьЮе
	}while(Value_Sum != 0);							// !Value_Sum ьЭ┤ 0 ьЭ╝ыХМъ╣МьзА ы░Шы│╡
*/
	CELL.OFF_Set = Value;							// тЖР do-while ыгиэФД ьаДь▓┤ые╝ ьЭ┤ эХЬ ьдДыбЬ ъ╡Рь▓┤
    3546:	60 93 21 51 	sts	0x5121, r22	; 0x805121 <CELL+0x5>
    354a:	70 93 22 51 	sts	0x5122, r23	; 0x805122 <CELL+0x6>
    354e:	80 93 23 51 	sts	0x5123, r24	; 0x805123 <CELL+0x7>
    3552:	90 93 24 51 	sts	0x5124, r25	; 0x805124 <CELL+0x8>

	Beep(10);
    3556:	8a e0       	ldi	r24, 0x0A	; 10
    3558:	90 e0       	ldi	r25, 0x00	; 0
    355a:	0e 94 42 04 	call	0x884	; 0x884 <Beep>
	wdt_reset();								// Reset WDT
    355e:	0e 94 18 14 	call	0x2830	; 0x2830 <wdt_reset>
    3562:	08 95       	ret

00003564 <Read_Load_Cell>:
	return(Value);
}

//=================================================================================================
uint16_t Read_Load_Cell(void)							// ыбЬыУЬьЕА ь╕бьаХъ░Т ьЭ╜ъ╕░
{
    3564:	8f 92       	push	r8
    3566:	9f 92       	push	r9
    3568:	af 92       	push	r10
    356a:	bf 92       	push	r11
    356c:	cf 92       	push	r12
    356e:	df 92       	push	r13
    3570:	ef 92       	push	r14
    3572:	ff 92       	push	r15
	int32_t Value = 0;							// ь╕бьаХъ░Т ьаАьЮеьЪй ы│АьИШ ь┤Иъ╕░эЩФ
	int32_t ValSum = 0;							// OFF-Set ъ│ДьВ░ъ░Т ьаАьЮеьЪй ы│АьИШ ь┤Иъ╕░эЩФ
	uint32_t CAPA;								// Cell_Capa * 1000
	int32_t OFF_SET = CELL.OFF_Set;						// ыбЬыУЬьЕА OFF_Set(ьЮЕыаеъ░ТьЭД 0ъ░Т ьЬ╝ыбЬ ызМыУдъ╕░ьЬДэХЬ ъ░Т)
    3574:	80 90 21 51 	lds	r8, 0x5121	; 0x805121 <CELL+0x5>
    3578:	90 90 22 51 	lds	r9, 0x5122	; 0x805122 <CELL+0x6>
    357c:	a0 90 23 51 	lds	r10, 0x5123	; 0x805123 <CELL+0x7>
    3580:	b0 90 24 51 	lds	r11, 0x5124	; 0x805124 <CELL+0x8>
//-------------------------------------------------------------------------------------------------
	Value = Cell_Data_Read();						// ыбЬыУЬьЕА ь╕бьаХъ░Т ьЭ╜ъ╕░
    3584:	0e 94 15 1a 	call	0x342a	; 0x342a <Cell_Data_Read>
	CAPA = Cell_Capa * 1000;
//-------------------------------------------------------------------------------------------------
	if(Value > 0)								// ым┤ъ▓М Data ъ░А ьЮИьЬ╝ый┤
    3588:	16 16       	cp	r1, r22
    358a:	17 06       	cpc	r1, r23
    358c:	18 06       	cpc	r1, r24
    358e:	19 06       	cpc	r1, r25
    3590:	0c f0       	brlt	.+2      	; 0x3594 <Read_Load_Cell+0x30>
    3592:	80 c0       	rjmp	.+256    	; 0x3694 <Read_Load_Cell+0x130>
	{
		ValSum = Value - CELL.OFF_Set;					// ым┤ъ▓М Data - OFF_Set
    3594:	c0 90 21 51 	lds	r12, 0x5121	; 0x805121 <CELL+0x5>
    3598:	d0 90 22 51 	lds	r13, 0x5122	; 0x805122 <CELL+0x6>
    359c:	e0 90 23 51 	lds	r14, 0x5123	; 0x805123 <CELL+0x7>
    35a0:	f0 90 24 51 	lds	r15, 0x5124	; 0x805124 <CELL+0x8>
    35a4:	6c 19       	sub	r22, r12
    35a6:	7d 09       	sbc	r23, r13
    35a8:	8e 09       	sbc	r24, r14
    35aa:	9f 09       	sbc	r25, r15
		ValSum = ValSum / 10;						// ыВоьЭА Data ъ░Т ьзАьЪ░ъ╕░
    35ac:	2a e0       	ldi	r18, 0x0A	; 10
    35ae:	30 e0       	ldi	r19, 0x00	; 0
    35b0:	40 e0       	ldi	r20, 0x00	; 0
    35b2:	50 e0       	ldi	r21, 0x00	; 0
    35b4:	0e 94 e7 3c 	call	0x79ce	; 0x79ce <__divmodsi4>
		ValSum = ValSum * 10;						// ыВоьЭА Data ъ░Т ьзАьЪ░ъ╕░
    35b8:	da 01       	movw	r26, r20
    35ba:	c9 01       	movw	r24, r18
    35bc:	88 0f       	add	r24, r24
    35be:	99 1f       	adc	r25, r25
    35c0:	aa 1f       	adc	r26, r26
    35c2:	bb 1f       	adc	r27, r27
    35c4:	6c 01       	movw	r12, r24
    35c6:	7d 01       	movw	r14, r26
    35c8:	cc 0c       	add	r12, r12
    35ca:	dd 1c       	adc	r13, r13
    35cc:	ee 1c       	adc	r14, r14
    35ce:	ff 1c       	adc	r15, r15
    35d0:	cc 0c       	add	r12, r12
    35d2:	dd 1c       	adc	r13, r13
    35d4:	ee 1c       	adc	r14, r14
    35d6:	ff 1c       	adc	r15, r15
    35d8:	c8 0e       	add	r12, r24
    35da:	d9 1e       	adc	r13, r25
    35dc:	ea 1e       	adc	r14, r26
    35de:	fb 1e       	adc	r15, r27

		if(ValSum >= 0)	{Value_Count = 0;}				// Value_Count ь┤Иъ╕░эЩФ
    35e0:	ff 20       	and	r15, r15
    35e2:	ac f0       	brlt	.+42     	; 0x360e <Read_Load_Cell+0xaa>
	int32_t ValSum = 0;							// OFF-Set ъ│ДьВ░ъ░Т ьаАьЮеьЪй ы│АьИШ ь┤Иъ╕░эЩФ
	uint32_t CAPA;								// Cell_Capa * 1000
	int32_t OFF_SET = CELL.OFF_Set;						// ыбЬыУЬьЕА OFF_Set(ьЮЕыаеъ░ТьЭД 0ъ░Т ьЬ╝ыбЬ ызМыУдъ╕░ьЬДэХЬ ъ░Т)
//-------------------------------------------------------------------------------------------------
	Value = Cell_Data_Read();						// ыбЬыУЬьЕА ь╕бьаХъ░Т ьЭ╜ъ╕░
	CAPA = Cell_Capa * 1000;
    35e4:	20 91 63 51 	lds	r18, 0x5163	; 0x805163 <Cell_Capa>
    35e8:	30 91 64 51 	lds	r19, 0x5164	; 0x805164 <Cell_Capa+0x1>
    35ec:	40 91 65 51 	lds	r20, 0x5165	; 0x805165 <Cell_Capa+0x2>
    35f0:	50 91 66 51 	lds	r21, 0x5166	; 0x805166 <Cell_Capa+0x3>
	{
		ValSum = Value - CELL.OFF_Set;					// ым┤ъ▓М Data - OFF_Set
		ValSum = ValSum / 10;						// ыВоьЭА Data ъ░Т ьзАьЪ░ъ╕░
		ValSum = ValSum * 10;						// ыВоьЭА Data ъ░Т ьзАьЪ░ъ╕░

		if(ValSum >= 0)	{Value_Count = 0;}				// Value_Count ь┤Иъ╕░эЩФ
    35f4:	10 92 83 52 	sts	0x5283, r1	; 0x805283 <Value_Count>
//-------------------------------------------------------------------------------------------------
// 		printf("ValSum %ld \r\n", ValSum);
		if(ValSum < 0 || ValSum > CAPA)					// ValSum ьЭ┤ 0 ы│┤ыЛд ьЮСъ▒░ыВШ CAPA ы│┤ыЛд эБмый┤ ь┤Иъ╕░эЩФ ь╣┤ьЪ┤эД░
    35f8:	a8 ee       	ldi	r26, 0xE8	; 232
    35fa:	b3 e0       	ldi	r27, 0x03	; 3
    35fc:	0e 94 1e 3d 	call	0x7a3c	; 0x7a3c <__muluhisi3>
    3600:	6c 15       	cp	r22, r12
    3602:	7d 05       	cpc	r23, r13
    3604:	8e 05       	cpc	r24, r14
    3606:	9f 05       	cpc	r25, r15
    3608:	08 f4       	brcc	.+2      	; 0x360c <Read_Load_Cell+0xa8>
    360a:	48 c0       	rjmp	.+144    	; 0x369c <Read_Load_Cell+0x138>
    360c:	20 c0       	rjmp	.+64     	; 0x364e <Read_Load_Cell+0xea>
		{
			Value_Count++;						// Value_Count ьжЭъ░А
    360e:	80 91 83 52 	lds	r24, 0x5283	; 0x805283 <Value_Count>
    3612:	8f 5f       	subi	r24, 0xFF	; 255
    3614:	80 93 83 52 	sts	0x5283, r24	; 0x805283 <Value_Count>
			if(Value_Count > 5)					// Value_Count ъ░А ь┤Иъ╕░эЩФ ъ░Т ы│┤ыЛд эБмый┤
    3618:	86 30       	cpi	r24, 0x06	; 6
    361a:	40 f0       	brcs	.+16     	; 0x362c <Read_Load_Cell+0xc8>
			{
				Cell_Zero_Set();				// ыбЬыУЬьЕА 0 ъ░Т ь░╛ъ╕░
    361c:	0e 94 a1 1a 	call	0x3542	; 0x3542 <Cell_Zero_Set>
	 			Value_Count = 0;
    3620:	10 92 83 52 	sts	0x5283, r1	; 0x805283 <Value_Count>
			}
			else {CELL.OFF_Set = OFF_SET -5;}			// OFF_Set - 5
			ValSum = 0;						// ValSum ьЭД 0ьЬ╝ыбЬ ь┤Иъ╕░эЩФ
    3624:	c1 2c       	mov	r12, r1
    3626:	d1 2c       	mov	r13, r1
    3628:	76 01       	movw	r14, r12
    362a:	3e c0       	rjmp	.+124    	; 0x36a8 <Read_Load_Cell+0x144>
			if(Value_Count > 5)					// Value_Count ъ░А ь┤Иъ╕░эЩФ ъ░Т ы│┤ыЛд эБмый┤
			{
				Cell_Zero_Set();				// ыбЬыУЬьЕА 0 ъ░Т ь░╛ъ╕░
	 			Value_Count = 0;
			}
			else {CELL.OFF_Set = OFF_SET -5;}			// OFF_Set - 5
    362c:	85 e0       	ldi	r24, 0x05	; 5
    362e:	88 1a       	sub	r8, r24
    3630:	91 08       	sbc	r9, r1
    3632:	a1 08       	sbc	r10, r1
    3634:	b1 08       	sbc	r11, r1
    3636:	80 92 21 51 	sts	0x5121, r8	; 0x805121 <CELL+0x5>
    363a:	90 92 22 51 	sts	0x5122, r9	; 0x805122 <CELL+0x6>
    363e:	a0 92 23 51 	sts	0x5123, r10	; 0x805123 <CELL+0x7>
    3642:	b0 92 24 51 	sts	0x5124, r11	; 0x805124 <CELL+0x8>
			ValSum = 0;						// ValSum ьЭД 0ьЬ╝ыбЬ ь┤Иъ╕░эЩФ
    3646:	c1 2c       	mov	r12, r1
    3648:	d1 2c       	mov	r13, r1
    364a:	76 01       	movw	r14, r12
    364c:	2d c0       	rjmp	.+90     	; 0x36a8 <Read_Load_Cell+0x144>
		}
		else if(ValSum > 0 && IN_Scales > ValSum)			// ValSum ьЭ┤ 0 ы│┤ыЛд эБмъ│а ьЮЕъ╡мь▓┤ьдС ы│┤ыЛд ьЮСьЬ╝ый┤
    364e:	1c 14       	cp	r1, r12
    3650:	1d 04       	cpc	r1, r13
    3652:	1e 04       	cpc	r1, r14
    3654:	1f 04       	cpc	r1, r15
    3656:	44 f5       	brge	.+80     	; 0x36a8 <Read_Load_Cell+0x144>
    3658:	80 91 08 51 	lds	r24, 0x5108	; 0x805108 <IN_Scales>
    365c:	90 91 09 51 	lds	r25, 0x5109	; 0x805109 <IN_Scales+0x1>
    3660:	09 2e       	mov	r0, r25
    3662:	00 0c       	add	r0, r0
    3664:	aa 0b       	sbc	r26, r26
    3666:	bb 0b       	sbc	r27, r27
    3668:	c8 16       	cp	r12, r24
    366a:	d9 06       	cpc	r13, r25
    366c:	ea 06       	cpc	r14, r26
    366e:	fb 06       	cpc	r15, r27
    3670:	dc f4       	brge	.+54     	; 0x36a8 <Read_Load_Cell+0x144>
		{
			CELL.OFF_Set = OFF_SET + 5;				// OFF_Set + 10
    3672:	85 e0       	ldi	r24, 0x05	; 5
    3674:	88 0e       	add	r8, r24
    3676:	91 1c       	adc	r9, r1
    3678:	a1 1c       	adc	r10, r1
    367a:	b1 1c       	adc	r11, r1
    367c:	80 92 21 51 	sts	0x5121, r8	; 0x805121 <CELL+0x5>
    3680:	90 92 22 51 	sts	0x5122, r9	; 0x805122 <CELL+0x6>
    3684:	a0 92 23 51 	sts	0x5123, r10	; 0x805123 <CELL+0x7>
    3688:	b0 92 24 51 	sts	0x5124, r11	; 0x805124 <CELL+0x8>
			ValSum = 0;						// ValSum ьЭД 0ьЬ╝ыбЬ ь┤Иъ╕░эЩФ
    368c:	c1 2c       	mov	r12, r1
    368e:	d1 2c       	mov	r13, r1
    3690:	76 01       	movw	r14, r12
    3692:	0a c0       	rjmp	.+20     	; 0x36a8 <Read_Load_Cell+0x144>

//=================================================================================================
uint16_t Read_Load_Cell(void)							// ыбЬыУЬьЕА ь╕бьаХъ░Т ьЭ╜ъ╕░
{
	int32_t Value = 0;							// ь╕бьаХъ░Т ьаАьЮеьЪй ы│АьИШ ь┤Иъ╕░эЩФ
	int32_t ValSum = 0;							// OFF-Set ъ│ДьВ░ъ░Т ьаАьЮеьЪй ы│АьИШ ь┤Иъ╕░эЩФ
    3694:	c1 2c       	mov	r12, r1
    3696:	d1 2c       	mov	r13, r1
    3698:	76 01       	movw	r14, r12
    369a:	06 c0       	rjmp	.+12     	; 0x36a8 <Read_Load_Cell+0x144>
		if(ValSum >= 0)	{Value_Count = 0;}				// Value_Count ь┤Иъ╕░эЩФ
//-------------------------------------------------------------------------------------------------
// 		printf("ValSum %ld \r\n", ValSum);
		if(ValSum < 0 || ValSum > CAPA)					// ValSum ьЭ┤ 0 ы│┤ыЛд ьЮСъ▒░ыВШ CAPA ы│┤ыЛд эБмый┤ ь┤Иъ╕░эЩФ ь╣┤ьЪ┤эД░
		{
			Value_Count++;						// Value_Count ьжЭъ░А
    369c:	80 91 83 52 	lds	r24, 0x5283	; 0x805283 <Value_Count>
    36a0:	8f 5f       	subi	r24, 0xFF	; 255
    36a2:	80 93 83 52 	sts	0x5283, r24	; 0x805283 <Value_Count>
    36a6:	c2 cf       	rjmp	.-124    	; 0x362c <Read_Load_Cell+0xc8>
		}

		if(ValSum > CAPA) {ValSum = 0;}					// ValSum ьЭ┤ CAPA(200Kg) ы│┤ыЛд эБмый┤
	}
	ValSum = ValSum / 10;							// ValSum ые╝ 10ьЬ╝ыбЬ ыВШыИФ
	return(ValSum);								// ыжмэД┤ ValSum
    36a8:	c7 01       	movw	r24, r14
    36aa:	b6 01       	movw	r22, r12
    36ac:	2a e0       	ldi	r18, 0x0A	; 10
    36ae:	30 e0       	ldi	r19, 0x00	; 0
    36b0:	40 e0       	ldi	r20, 0x00	; 0
    36b2:	50 e0       	ldi	r21, 0x00	; 0
    36b4:	0e 94 e7 3c 	call	0x79ce	; 0x79ce <__divmodsi4>
}
    36b8:	c9 01       	movw	r24, r18
    36ba:	ff 90       	pop	r15
    36bc:	ef 90       	pop	r14
    36be:	df 90       	pop	r13
    36c0:	cf 90       	pop	r12
    36c2:	bf 90       	pop	r11
    36c4:	af 90       	pop	r10
    36c6:	9f 90       	pop	r9
    36c8:	8f 90       	pop	r8
    36ca:	08 95       	ret

000036cc <IN_Scales_Set>:
	wdt_reset();								// Reset WDT
}

//=================================================================================================
void IN_Scales_Set(void)							// IN_Scales ьДдьаХ
{
    36cc:	df 92       	push	r13
    36ce:	ef 92       	push	r14
    36d0:	ff 92       	push	r15
    36d2:	0f 93       	push	r16
    36d4:	1f 93       	push	r17
    36d6:	cf 93       	push	r28
    36d8:	df 93       	push	r29
	DIGIT[2][0] = FND_OFF;							// ыбЬыУЬьЕА RO, ьЮЕъ╡мь▓┤ьдС 1ьЭШ ьЮРыжм ьзАьЪ░ъ╕░
    36da:	10 92 81 41 	sts	0x4181, r1	; 0x804181 <DIGIT+0x8>

	IN_Scales = ee_read_word(Cell_IN_S_Addr);				// ыбЬыУЬьЕА ьЮЕъ╡мь▓┤ьдСъ░Т ы╢ИыЯмьШдъ╕░
    36de:	8a e0       	ldi	r24, 0x0A	; 10
    36e0:	90 e0       	ldi	r25, 0x00	; 0
    36e2:	0e 94 c5 14 	call	0x298a	; 0x298a <ee_read_word>
    36e6:	9c 01       	movw	r18, r24
    36e8:	80 93 08 51 	sts	0x5108, r24	; 0x805108 <IN_Scales>
    36ec:	90 93 09 51 	sts	0x5109, r25	; 0x805109 <IN_Scales+0x1>
//-------------------------------------------------------------------------------------------------
	IN_S_10000 = IN_Scales / 10000;						// ыбЬыУЬьЕА ьЮЕъ╡мь▓┤ьдС 10000ьЭШ ьЮРыжм
    36f0:	60 e1       	ldi	r22, 0x10	; 16
    36f2:	77 e2       	ldi	r23, 0x27	; 39
    36f4:	0e 94 b1 3c 	call	0x7962	; 0x7962 <__divmodhi4>
    36f8:	60 93 0a 51 	sts	0x510A, r22	; 0x80510a <IN_S_10000>
	IN_S_1000  = IN_Scales % 10000/ 1000;					// ыбЬыУЬьЕА ьЮЕъ╡мь▓┤ьдС  1000ьЭШ ьЮРыжм
    36fc:	e8 ee       	ldi	r30, 0xE8	; 232
    36fe:	f3 e0       	ldi	r31, 0x03	; 3
    3700:	bf 01       	movw	r22, r30
    3702:	0e 94 b1 3c 	call	0x7962	; 0x7962 <__divmodhi4>
    3706:	60 93 72 51 	sts	0x5172, r22	; 0x805172 <IN_S_1000>
	IN_S_100   = IN_Scales % 1000 / 100;					// ыбЬыУЬьЕА ьЮЕъ╡мь▓┤ьдС   100ьЭШ ьЮРыжм
    370a:	c9 01       	movw	r24, r18
    370c:	bf 01       	movw	r22, r30
    370e:	0e 94 b1 3c 	call	0x7962	; 0x7962 <__divmodhi4>
    3712:	e4 e6       	ldi	r30, 0x64	; 100
    3714:	f0 e0       	ldi	r31, 0x00	; 0
    3716:	bf 01       	movw	r22, r30
    3718:	0e 94 b1 3c 	call	0x7962	; 0x7962 <__divmodhi4>
    371c:	60 93 0b 51 	sts	0x510B, r22	; 0x80510b <IN_S_100>
	IN_S_10    = IN_Scales % 100 / 10;					// ыбЬыУЬьЕА ьЮЕъ╡мь▓┤ьдС    10ьЭШ ьЮРыжм
    3720:	c9 01       	movw	r24, r18
    3722:	bf 01       	movw	r22, r30
    3724:	0e 94 b1 3c 	call	0x7962	; 0x7962 <__divmodhi4>
    3728:	ea e0       	ldi	r30, 0x0A	; 10
    372a:	f0 e0       	ldi	r31, 0x00	; 0
    372c:	bf 01       	movw	r22, r30
    372e:	0e 94 b1 3c 	call	0x7962	; 0x7962 <__divmodhi4>
    3732:	60 93 ee 50 	sts	0x50EE, r22	; 0x8050ee <IN_S_10>
	IN_S_1     = IN_Scales % 10;						// ыбЬыУЬьЕА ьЮЕъ╡мь▓┤ьдС     1ьЭШ ьЮРыжм
    3736:	c9 01       	movw	r24, r18
    3738:	bf 01       	movw	r22, r30
    373a:	0e 94 b1 3c 	call	0x7962	; 0x7962 <__divmodhi4>
    373e:	80 93 60 51 	sts	0x5160, r24	; 0x805160 <IN_S_1>
//-------------------------------------------------------------------------------------------------
	while(SET.Menu)								// ыйФыЙ┤ыкиыУЬ ьЭ┤ый┤ ы░Шы│╡
    3742:	80 91 0e 51 	lds	r24, 0x510E	; 0x80510e <SET>
    3746:	88 23       	and	r24, r24
    3748:	09 f4       	brne	.+2      	; 0x374c <IN_Scales_Set+0x80>
    374a:	28 c1       	rjmp	.+592    	; 0x399c <IN_Scales_Set+0x2d0>
	{
		SET.Blink = 1;							// ьЮРыж┐ьИШ ъ╣Ьы░ХьЮД ьДдьаХ
    374c:	0e e0       	ldi	r16, 0x0E	; 14
    374e:	11 e5       	ldi	r17, 0x51	; 81
    3750:	dd 24       	eor	r13, r13
    3752:	d3 94       	inc	r13

		switch(KEY.Count)						// ьДаэГЭ Key ъ░А ыИМыж░эЪЯьИШ
    3754:	cb e4       	ldi	r28, 0x4B	; 75
    3756:	d1 e5       	ldi	r29, 0x51	; 81
					else if(KEY.Key == 3 && IN_S_10 > 0) {IN_S_10--; KEY.Key = 0;}		// ыЛдьЪ┤ы▓ДэК╝ ьЭ┤ый┤ ьЮЕъ╡мь▓┤ьдС 10ьЭШ ьЮРыжм ъ░РьЖМ
				}
			break;

			case 4:							// ыбЬыУЬьЕА ьЮЕъ╡мь▓┤ьдС 1ьЭШ ьЮРыжм
				DIGIT[1][0] = fnd_tbl[IN_S_10];			// ыбЬыУЬьЕА ьЮЕъ╡мь▓┤ьдС 10ьЭШ ьЮРыжм эСЬьЛЬ
    3758:	0f 2e       	mov	r0, r31
    375a:	f9 e7       	ldi	r31, 0x79	; 121
    375c:	ef 2e       	mov	r14, r31
    375e:	f1 e4       	ldi	r31, 0x41	; 65
    3760:	ff 2e       	mov	r15, r31
    3762:	f0 2d       	mov	r31, r0
	IN_S_10    = IN_Scales % 100 / 10;					// ыбЬыУЬьЕА ьЮЕъ╡мь▓┤ьдС    10ьЭШ ьЮРыжм
	IN_S_1     = IN_Scales % 10;						// ыбЬыУЬьЕА ьЮЕъ╡мь▓┤ьдС     1ьЭШ ьЮРыжм
//-------------------------------------------------------------------------------------------------
	while(SET.Menu)								// ыйФыЙ┤ыкиыУЬ ьЭ┤ый┤ ы░Шы│╡
	{
		SET.Blink = 1;							// ьЮРыж┐ьИШ ъ╣Ьы░ХьЮД ьДдьаХ
    3764:	f8 01       	movw	r30, r16
    3766:	d3 82       	std	Z+3, r13	; 0x03

		switch(KEY.Count)						// ьДаэГЭ Key ъ░А ыИМыж░эЪЯьИШ
    3768:	88 81       	ld	r24, Y
    376a:	82 30       	cpi	r24, 0x02	; 2
    376c:	09 f4       	brne	.+2      	; 0x3770 <IN_Scales_Set+0xa4>
    376e:	77 c0       	rjmp	.+238    	; 0x385e <IN_Scales_Set+0x192>
    3770:	28 f4       	brcc	.+10     	; 0x377c <IN_Scales_Set+0xb0>
    3772:	88 23       	and	r24, r24
    3774:	61 f0       	breq	.+24     	; 0x378e <IN_Scales_Set+0xc2>
    3776:	81 30       	cpi	r24, 0x01	; 1
    3778:	e9 f1       	breq	.+122    	; 0x37f4 <IN_Scales_Set+0x128>
    377a:	0a c1       	rjmp	.+532    	; 0x3990 <IN_Scales_Set+0x2c4>
    377c:	84 30       	cpi	r24, 0x04	; 4
    377e:	09 f4       	brne	.+2      	; 0x3782 <IN_Scales_Set+0xb6>
    3780:	d5 c0       	rjmp	.+426    	; 0x392c <IN_Scales_Set+0x260>
    3782:	08 f4       	brcc	.+2      	; 0x3786 <IN_Scales_Set+0xba>
    3784:	a1 c0       	rjmp	.+322    	; 0x38c8 <IN_Scales_Set+0x1fc>
    3786:	85 30       	cpi	r24, 0x05	; 5
    3788:	09 f4       	brne	.+2      	; 0x378c <IN_Scales_Set+0xc0>
    378a:	01 c1       	rjmp	.+514    	; 0x398e <IN_Scales_Set+0x2c2>
    378c:	01 c1       	rjmp	.+514    	; 0x3990 <IN_Scales_Set+0x2c4>
		{
			case 0:							// ыбЬыУЬьЕА ьЮЕъ╡мь▓┤ьдС 10000ьЭШ ьЮРыжм
				DIGIT[2][3] = fnd_tbl[IN_S_1];			// ыбЬыУЬьЕА ьЮЕъ╡мь▓┤ьдС 1ьЭШ ьЮРыжм эСЬьЛЬ
    378e:	e0 91 60 51 	lds	r30, 0x5160	; 0x805160 <IN_S_1>
    3792:	f0 e0       	ldi	r31, 0x00	; 0
    3794:	ed 5b       	subi	r30, 0xBD	; 189
    3796:	fe 4b       	sbci	r31, 0xBE	; 190
    3798:	80 81       	ld	r24, Z
    379a:	f7 01       	movw	r30, r14
    379c:	83 87       	std	Z+11, r24	; 0x0b
				if(Blink) {DIGIT[1][3] = FND_OFF;}		// Blink = 1 ьЭ┤ый┤ ыбЬыУЬьЕА ьЮЕъ╡мь▓┤ьдС 10000ьЭШ ьЮРыжм OFF
    379e:	80 91 71 51 	lds	r24, 0x5171	; 0x805171 <Blink>
    37a2:	88 23       	and	r24, r24
    37a4:	11 f0       	breq	.+4      	; 0x37aa <IN_Scales_Set+0xde>
    37a6:	17 82       	std	Z+7, r1	; 0x07
    37a8:	08 c0       	rjmp	.+16     	; 0x37ba <IN_Scales_Set+0xee>
				else	  {DIGIT[1][3] = fnd_tbl[IN_S_10000];}	// Blink = 0 ьЭ┤ый┤ ыбЬыУЬьЕА ьЮЕъ╡мь▓┤ьдС 10000ьЭШ ьЮРыжм эСЬьЛЬ
    37aa:	e0 91 0a 51 	lds	r30, 0x510A	; 0x80510a <IN_S_10000>
    37ae:	f0 e0       	ldi	r31, 0x00	; 0
    37b0:	ed 5b       	subi	r30, 0xBD	; 189
    37b2:	fe 4b       	sbci	r31, 0xBE	; 190
    37b4:	80 81       	ld	r24, Z
    37b6:	f7 01       	movw	r30, r14
    37b8:	87 83       	std	Z+7, r24	; 0x07

				if(KEY.Buff)					// Key ьЮЕыаеьЭ┤ ьЮИьЬ╝ый┤
    37ba:	89 81       	ldd	r24, Y+1	; 0x01
    37bc:	88 23       	and	r24, r24
    37be:	09 f4       	brne	.+2      	; 0x37c2 <IN_Scales_Set+0xf6>
    37c0:	e7 c0       	rjmp	.+462    	; 0x3990 <IN_Scales_Set+0x2c4>
				{
					if     (KEY.Key == 1 && IN_S_10000 < 1) {IN_S_10000++; KEY.Key = 0;}	// ьЧЕ  ы▓ДэК╝ ьЭ┤ый┤ ьЮЕъ╡мь▓┤ьдС 10000ьЭШ ьЮРыжм ьжЭъ░А
    37c2:	8a 81       	ldd	r24, Y+2	; 0x02
    37c4:	81 30       	cpi	r24, 0x01	; 1
    37c6:	41 f4       	brne	.+16     	; 0x37d8 <IN_Scales_Set+0x10c>
    37c8:	80 91 0a 51 	lds	r24, 0x510A	; 0x80510a <IN_S_10000>
    37cc:	81 11       	cpse	r24, r1
    37ce:	26 c1       	rjmp	.+588    	; 0x3a1c <IN_Scales_Set+0x350>
    37d0:	d0 92 0a 51 	sts	0x510A, r13	; 0x80510a <IN_S_10000>
    37d4:	1a 82       	std	Y+2, r1	; 0x02
    37d6:	dc c0       	rjmp	.+440    	; 0x3990 <IN_Scales_Set+0x2c4>
					else if(KEY.Key == 3 && IN_S_10000 > 0) {IN_S_10000--; KEY.Key = 0;}	// ыЛдьЪ┤ы▓ДэК╝ ьЭ┤ый┤ ьЮЕъ╡мь▓┤ьдС 10000ьЭШ ьЮРыжм ъ░РьЖМ
    37d8:	8a 81       	ldd	r24, Y+2	; 0x02
    37da:	83 30       	cpi	r24, 0x03	; 3
    37dc:	09 f0       	breq	.+2      	; 0x37e0 <IN_Scales_Set+0x114>
    37de:	d8 c0       	rjmp	.+432    	; 0x3990 <IN_Scales_Set+0x2c4>
    37e0:	80 91 0a 51 	lds	r24, 0x510A	; 0x80510a <IN_S_10000>
    37e4:	88 23       	and	r24, r24
    37e6:	09 f4       	brne	.+2      	; 0x37ea <IN_Scales_Set+0x11e>
    37e8:	d3 c0       	rjmp	.+422    	; 0x3990 <IN_Scales_Set+0x2c4>
    37ea:	81 50       	subi	r24, 0x01	; 1
    37ec:	80 93 0a 51 	sts	0x510A, r24	; 0x80510a <IN_S_10000>
    37f0:	1a 82       	std	Y+2, r1	; 0x02
    37f2:	ce c0       	rjmp	.+412    	; 0x3990 <IN_Scales_Set+0x2c4>
				}
			break;

			case 1:							// ыбЬыУЬьЕА ьЮЕъ╡мь▓┤ьдС 1000ьЭШ ьЮРыжм
				DIGIT[1][3] = fnd_tbl[IN_S_10000];		// ыбЬыУЬьЕА ьЮЕъ╡мь▓┤ьдС 10000ьЭШ ьЮРыжм эСЬьЛЬ
    37f4:	e0 91 0a 51 	lds	r30, 0x510A	; 0x80510a <IN_S_10000>
    37f8:	f0 e0       	ldi	r31, 0x00	; 0
    37fa:	ed 5b       	subi	r30, 0xBD	; 189
    37fc:	fe 4b       	sbci	r31, 0xBE	; 190
    37fe:	80 81       	ld	r24, Z
    3800:	f7 01       	movw	r30, r14
    3802:	87 83       	std	Z+7, r24	; 0x07
				if(Blink) {DIGIT[1][2] = FND_OFF;}						// Blink = 1 ьЭ┤ый┤ ыбЬыУЬьЕА ьЮЕъ╡мь▓┤ьдС 1000ьЭШ ьЮРыжм OFF
    3804:	80 91 71 51 	lds	r24, 0x5171	; 0x805171 <Blink>
    3808:	88 23       	and	r24, r24
    380a:	11 f0       	breq	.+4      	; 0x3810 <IN_Scales_Set+0x144>
    380c:	16 82       	std	Z+6, r1	; 0x06
    380e:	09 c0       	rjmp	.+18     	; 0x3822 <IN_Scales_Set+0x156>
				else	  {DIGIT[1][2] = fnd_tbl[IN_S_1000]+FND_Point;}				// Blink = 0 ьЭ┤ый┤ ыбЬыУЬьЕА ьЮЕъ╡мь▓┤ьдС 1000ьЭШ ьЮРыжм эСЬьЛЬ
    3810:	e0 91 72 51 	lds	r30, 0x5172	; 0x805172 <IN_S_1000>
    3814:	f0 e0       	ldi	r31, 0x00	; 0
    3816:	ed 5b       	subi	r30, 0xBD	; 189
    3818:	fe 4b       	sbci	r31, 0xBE	; 190
    381a:	80 81       	ld	r24, Z
    381c:	8f 5f       	subi	r24, 0xFF	; 255
    381e:	f7 01       	movw	r30, r14
    3820:	86 83       	std	Z+6, r24	; 0x06

				if(KEY.Buff)					// Key ьЮЕыаеьЭ┤ ьЮИьЬ╝ый┤
    3822:	89 81       	ldd	r24, Y+1	; 0x01
    3824:	88 23       	and	r24, r24
    3826:	09 f4       	brne	.+2      	; 0x382a <IN_Scales_Set+0x15e>
    3828:	b3 c0       	rjmp	.+358    	; 0x3990 <IN_Scales_Set+0x2c4>
				{
					if     (KEY.Key == 1 && IN_S_1000 < 9) {IN_S_1000++; KEY.Key = 0;}	// ьЧЕ  ы▓ДэК╝ ьЭ┤ый┤ ьЮЕъ╡мь▓┤ьдС 1000ьЭШ ьЮРыжм ьжЭъ░А
    382a:	8a 81       	ldd	r24, Y+2	; 0x02
    382c:	81 30       	cpi	r24, 0x01	; 1
    382e:	49 f4       	brne	.+18     	; 0x3842 <IN_Scales_Set+0x176>
    3830:	80 91 72 51 	lds	r24, 0x5172	; 0x805172 <IN_S_1000>
    3834:	89 30       	cpi	r24, 0x09	; 9
    3836:	28 f4       	brcc	.+10     	; 0x3842 <IN_Scales_Set+0x176>
    3838:	8f 5f       	subi	r24, 0xFF	; 255
    383a:	80 93 72 51 	sts	0x5172, r24	; 0x805172 <IN_S_1000>
    383e:	1a 82       	std	Y+2, r1	; 0x02
    3840:	a7 c0       	rjmp	.+334    	; 0x3990 <IN_Scales_Set+0x2c4>
					else if(KEY.Key == 3 && IN_S_1000 > 0) {IN_S_1000--; KEY.Key = 0;}	// ыЛдьЪ┤ы▓ДэК╝ ьЭ┤ый┤ ьЮЕъ╡мь▓┤ьдС 1000ьЭШ ьЮРыжм ъ░РьЖМ
    3842:	8a 81       	ldd	r24, Y+2	; 0x02
    3844:	83 30       	cpi	r24, 0x03	; 3
    3846:	09 f0       	breq	.+2      	; 0x384a <IN_Scales_Set+0x17e>
    3848:	a3 c0       	rjmp	.+326    	; 0x3990 <IN_Scales_Set+0x2c4>
    384a:	80 91 72 51 	lds	r24, 0x5172	; 0x805172 <IN_S_1000>
    384e:	88 23       	and	r24, r24
    3850:	09 f4       	brne	.+2      	; 0x3854 <IN_Scales_Set+0x188>
    3852:	9e c0       	rjmp	.+316    	; 0x3990 <IN_Scales_Set+0x2c4>
    3854:	81 50       	subi	r24, 0x01	; 1
    3856:	80 93 72 51 	sts	0x5172, r24	; 0x805172 <IN_S_1000>
    385a:	1a 82       	std	Y+2, r1	; 0x02
    385c:	99 c0       	rjmp	.+306    	; 0x3990 <IN_Scales_Set+0x2c4>
				}
			break;

			case 2:							// ыбЬыУЬьЕА ьЮЕъ╡мь▓┤ьдС 100ьЭШ ьЮРыжм
				DIGIT[1][2] = fnd_tbl[IN_S_1000]+FND_Point;	// ыбЬыУЬьЕА ьЮЕъ╡мь▓┤ьдС 1000ьЭШ ьЮРыжм эСЬьЛЬ
    385e:	e0 91 72 51 	lds	r30, 0x5172	; 0x805172 <IN_S_1000>
    3862:	f0 e0       	ldi	r31, 0x00	; 0
    3864:	ed 5b       	subi	r30, 0xBD	; 189
    3866:	fe 4b       	sbci	r31, 0xBE	; 190
    3868:	80 81       	ld	r24, Z
    386a:	8f 5f       	subi	r24, 0xFF	; 255
    386c:	f7 01       	movw	r30, r14
    386e:	86 83       	std	Z+6, r24	; 0x06
				if(Blink) {DIGIT[1][1] = FND_OFF;}		// Blink = 1 ьЭ┤ый┤ ыбЬыУЬьЕА ьЮЕъ╡мь▓┤ьдС 100ьЭШ ьЮРыжм OFF
    3870:	80 91 71 51 	lds	r24, 0x5171	; 0x805171 <Blink>
    3874:	88 23       	and	r24, r24
    3876:	11 f0       	breq	.+4      	; 0x387c <IN_Scales_Set+0x1b0>
    3878:	15 82       	std	Z+5, r1	; 0x05
    387a:	08 c0       	rjmp	.+16     	; 0x388c <IN_Scales_Set+0x1c0>
				else	  {DIGIT[1][1] = fnd_tbl[IN_S_100];}	// Blink = 0 ьЭ┤ый┤ ыбЬыУЬьЕА ьЮЕъ╡мь▓┤ьдС 100ьЭШ ьЮРыжм эСЬьЛЬ
    387c:	e0 91 0b 51 	lds	r30, 0x510B	; 0x80510b <IN_S_100>
    3880:	f0 e0       	ldi	r31, 0x00	; 0
    3882:	ed 5b       	subi	r30, 0xBD	; 189
    3884:	fe 4b       	sbci	r31, 0xBE	; 190
    3886:	80 81       	ld	r24, Z
    3888:	f7 01       	movw	r30, r14
    388a:	85 83       	std	Z+5, r24	; 0x05

				if(KEY.Buff)					// Key ьЮЕыаеьЭ┤ ьЮИьЬ╝ый┤
    388c:	89 81       	ldd	r24, Y+1	; 0x01
    388e:	88 23       	and	r24, r24
    3890:	09 f4       	brne	.+2      	; 0x3894 <IN_Scales_Set+0x1c8>
    3892:	7e c0       	rjmp	.+252    	; 0x3990 <IN_Scales_Set+0x2c4>
				{
					if     (KEY.Key == 1 && IN_S_100 < 9) {IN_S_100++; KEY.Key = 0;}	// ьЧЕ  ы▓ДэК╝ ьЭ┤ый┤ ьЮЕъ╡мь▓┤ьдС 100ьЭШ ьЮРыжм ьжЭъ░А
    3894:	8a 81       	ldd	r24, Y+2	; 0x02
    3896:	81 30       	cpi	r24, 0x01	; 1
    3898:	49 f4       	brne	.+18     	; 0x38ac <IN_Scales_Set+0x1e0>
    389a:	80 91 0b 51 	lds	r24, 0x510B	; 0x80510b <IN_S_100>
    389e:	89 30       	cpi	r24, 0x09	; 9
    38a0:	28 f4       	brcc	.+10     	; 0x38ac <IN_Scales_Set+0x1e0>
    38a2:	8f 5f       	subi	r24, 0xFF	; 255
    38a4:	80 93 0b 51 	sts	0x510B, r24	; 0x80510b <IN_S_100>
    38a8:	1a 82       	std	Y+2, r1	; 0x02
    38aa:	72 c0       	rjmp	.+228    	; 0x3990 <IN_Scales_Set+0x2c4>
					else if(KEY.Key == 3 && IN_S_100 > 0) {IN_S_100--; KEY.Key = 0;}	// ыЛдьЪ┤ы▓ДэК╝ ьЭ┤ый┤ ьЮЕъ╡мь▓┤ьдС 100ьЭШ ьЮРыжм ъ░РьЖМ
    38ac:	8a 81       	ldd	r24, Y+2	; 0x02
    38ae:	83 30       	cpi	r24, 0x03	; 3
    38b0:	09 f0       	breq	.+2      	; 0x38b4 <IN_Scales_Set+0x1e8>
    38b2:	6e c0       	rjmp	.+220    	; 0x3990 <IN_Scales_Set+0x2c4>
    38b4:	80 91 0b 51 	lds	r24, 0x510B	; 0x80510b <IN_S_100>
    38b8:	88 23       	and	r24, r24
    38ba:	09 f4       	brne	.+2      	; 0x38be <IN_Scales_Set+0x1f2>
    38bc:	69 c0       	rjmp	.+210    	; 0x3990 <IN_Scales_Set+0x2c4>
    38be:	81 50       	subi	r24, 0x01	; 1
    38c0:	80 93 0b 51 	sts	0x510B, r24	; 0x80510b <IN_S_100>
    38c4:	1a 82       	std	Y+2, r1	; 0x02
    38c6:	64 c0       	rjmp	.+200    	; 0x3990 <IN_Scales_Set+0x2c4>
				}
			break;

			case 3:							// ыбЬыУЬьЕА ьЮЕъ╡мь▓┤ьдС 10ьЭШ ьЮРыжм
				DIGIT[1][1] = fnd_tbl[IN_S_100];		// ыбЬыУЬьЕА ьЮЕъ╡мь▓┤ьдС 100ьЭШ ьЮРыжм эСЬьЛЬ
    38c8:	e0 91 0b 51 	lds	r30, 0x510B	; 0x80510b <IN_S_100>
    38cc:	f0 e0       	ldi	r31, 0x00	; 0
    38ce:	ed 5b       	subi	r30, 0xBD	; 189
    38d0:	fe 4b       	sbci	r31, 0xBE	; 190
    38d2:	80 81       	ld	r24, Z
    38d4:	f7 01       	movw	r30, r14
    38d6:	85 83       	std	Z+5, r24	; 0x05
				if(Blink) {DIGIT[1][0] = FND_OFF;}		// Blink = 1 ьЭ┤ый┤ ыбЬыУЬьЕА ьЮЕъ╡мь▓┤ьдС 10ьЭШ ьЮРыжм OFF
    38d8:	80 91 71 51 	lds	r24, 0x5171	; 0x805171 <Blink>
    38dc:	88 23       	and	r24, r24
    38de:	11 f0       	breq	.+4      	; 0x38e4 <IN_Scales_Set+0x218>
    38e0:	14 82       	std	Z+4, r1	; 0x04
    38e2:	08 c0       	rjmp	.+16     	; 0x38f4 <IN_Scales_Set+0x228>
				else	  {DIGIT[1][0] = fnd_tbl[IN_S_10];}	// Blink = 0 ьЭ┤ый┤ ыбЬыУЬьЕА ьЮЕъ╡мь▓┤ьдС 10ьЭШ ьЮРыжм эСЬьЛЬ
    38e4:	e0 91 ee 50 	lds	r30, 0x50EE	; 0x8050ee <IN_S_10>
    38e8:	f0 e0       	ldi	r31, 0x00	; 0
    38ea:	ed 5b       	subi	r30, 0xBD	; 189
    38ec:	fe 4b       	sbci	r31, 0xBE	; 190
    38ee:	80 81       	ld	r24, Z
    38f0:	f7 01       	movw	r30, r14
    38f2:	84 83       	std	Z+4, r24	; 0x04

				if(KEY.Buff)					// Key ьЮЕыаеьЭ┤ ьЮИьЬ╝ый┤
    38f4:	89 81       	ldd	r24, Y+1	; 0x01
    38f6:	88 23       	and	r24, r24
    38f8:	09 f4       	brne	.+2      	; 0x38fc <IN_Scales_Set+0x230>
    38fa:	4a c0       	rjmp	.+148    	; 0x3990 <IN_Scales_Set+0x2c4>
				{
					if     (KEY.Key == 1 && IN_S_10 < 9) {IN_S_10++; KEY.Key = 0;}		// ьЧЕ  ы▓ДэК╝ ьЭ┤ый┤ ьЮЕъ╡мь▓┤ьдС 10ьЭШ ьЮРыжм ьжЭъ░А
    38fc:	8a 81       	ldd	r24, Y+2	; 0x02
    38fe:	81 30       	cpi	r24, 0x01	; 1
    3900:	49 f4       	brne	.+18     	; 0x3914 <IN_Scales_Set+0x248>
    3902:	80 91 ee 50 	lds	r24, 0x50EE	; 0x8050ee <IN_S_10>
    3906:	89 30       	cpi	r24, 0x09	; 9
    3908:	28 f4       	brcc	.+10     	; 0x3914 <IN_Scales_Set+0x248>
    390a:	8f 5f       	subi	r24, 0xFF	; 255
    390c:	80 93 ee 50 	sts	0x50EE, r24	; 0x8050ee <IN_S_10>
    3910:	1a 82       	std	Y+2, r1	; 0x02
    3912:	3e c0       	rjmp	.+124    	; 0x3990 <IN_Scales_Set+0x2c4>
					else if(KEY.Key == 3 && IN_S_10 > 0) {IN_S_10--; KEY.Key = 0;}		// ыЛдьЪ┤ы▓ДэК╝ ьЭ┤ый┤ ьЮЕъ╡мь▓┤ьдС 10ьЭШ ьЮРыжм ъ░РьЖМ
    3914:	8a 81       	ldd	r24, Y+2	; 0x02
    3916:	83 30       	cpi	r24, 0x03	; 3
    3918:	d9 f5       	brne	.+118    	; 0x3990 <IN_Scales_Set+0x2c4>
    391a:	80 91 ee 50 	lds	r24, 0x50EE	; 0x8050ee <IN_S_10>
    391e:	88 23       	and	r24, r24
    3920:	b9 f1       	breq	.+110    	; 0x3990 <IN_Scales_Set+0x2c4>
    3922:	81 50       	subi	r24, 0x01	; 1
    3924:	80 93 ee 50 	sts	0x50EE, r24	; 0x8050ee <IN_S_10>
    3928:	1a 82       	std	Y+2, r1	; 0x02
    392a:	32 c0       	rjmp	.+100    	; 0x3990 <IN_Scales_Set+0x2c4>
				}
			break;

			case 4:							// ыбЬыУЬьЕА ьЮЕъ╡мь▓┤ьдС 1ьЭШ ьЮРыжм
				DIGIT[1][0] = fnd_tbl[IN_S_10];			// ыбЬыУЬьЕА ьЮЕъ╡мь▓┤ьдС 10ьЭШ ьЮРыжм эСЬьЛЬ
    392c:	e0 91 ee 50 	lds	r30, 0x50EE	; 0x8050ee <IN_S_10>
    3930:	f0 e0       	ldi	r31, 0x00	; 0
    3932:	ed 5b       	subi	r30, 0xBD	; 189
    3934:	fe 4b       	sbci	r31, 0xBE	; 190
    3936:	80 81       	ld	r24, Z
    3938:	f7 01       	movw	r30, r14
    393a:	84 83       	std	Z+4, r24	; 0x04
				if(Blink) {DIGIT[2][3] = FND_OFF;}		// Blink = 1 ьЭ┤ый┤ ыбЬыУЬьЕА ьЮЕъ╡мь▓┤ьдС 1ьЭШ ьЮРыжм OFF
    393c:	80 91 71 51 	lds	r24, 0x5171	; 0x805171 <Blink>
    3940:	88 23       	and	r24, r24
    3942:	11 f0       	breq	.+4      	; 0x3948 <IN_Scales_Set+0x27c>
    3944:	13 86       	std	Z+11, r1	; 0x0b
    3946:	08 c0       	rjmp	.+16     	; 0x3958 <IN_Scales_Set+0x28c>
				else	  {DIGIT[2][3] = fnd_tbl[IN_S_1];}	// Blink = 0 ьЭ┤ый┤ ыбЬыУЬьЕА ьЮЕъ╡мь▓┤ьдС 1ьЭШ ьЮРыжм эСЬьЛЬ
    3948:	e0 91 60 51 	lds	r30, 0x5160	; 0x805160 <IN_S_1>
    394c:	f0 e0       	ldi	r31, 0x00	; 0
    394e:	ed 5b       	subi	r30, 0xBD	; 189
    3950:	fe 4b       	sbci	r31, 0xBE	; 190
    3952:	80 81       	ld	r24, Z
    3954:	f7 01       	movw	r30, r14
    3956:	83 87       	std	Z+11, r24	; 0x0b

				if(KEY.Buff)					// Key ьЮЕыаеьЭ┤ ьЮИьЬ╝ый┤
    3958:	89 81       	ldd	r24, Y+1	; 0x01
    395a:	88 23       	and	r24, r24
    395c:	c9 f0       	breq	.+50     	; 0x3990 <IN_Scales_Set+0x2c4>
				{
					if     (KEY.Key == 1 && IN_S_1 < 9) {IN_S_1++; KEY.Key = 0;}		// ьЧЕ  ы▓ДэК╝ ьЭ┤ый┤ ьЮЕъ╡мь▓┤ьдС 1ьЭШ ьЮРыжм ьжЭъ░А
    395e:	8a 81       	ldd	r24, Y+2	; 0x02
    3960:	81 30       	cpi	r24, 0x01	; 1
    3962:	49 f4       	brne	.+18     	; 0x3976 <IN_Scales_Set+0x2aa>
    3964:	80 91 60 51 	lds	r24, 0x5160	; 0x805160 <IN_S_1>
    3968:	89 30       	cpi	r24, 0x09	; 9
    396a:	28 f4       	brcc	.+10     	; 0x3976 <IN_Scales_Set+0x2aa>
    396c:	8f 5f       	subi	r24, 0xFF	; 255
    396e:	80 93 60 51 	sts	0x5160, r24	; 0x805160 <IN_S_1>
    3972:	1a 82       	std	Y+2, r1	; 0x02
    3974:	0d c0       	rjmp	.+26     	; 0x3990 <IN_Scales_Set+0x2c4>
					else if(KEY.Key == 3 && IN_S_1 > 0) {IN_S_1--; KEY.Key = 0;}		// ыЛдьЪ┤ы▓ДэК╝ ьЭ┤ый┤ ьЮЕъ╡мь▓┤ьдС 1ьЭШ ьЮРыжм ъ░РьЖМ
    3976:	8a 81       	ldd	r24, Y+2	; 0x02
    3978:	83 30       	cpi	r24, 0x03	; 3
    397a:	51 f4       	brne	.+20     	; 0x3990 <IN_Scales_Set+0x2c4>
    397c:	80 91 60 51 	lds	r24, 0x5160	; 0x805160 <IN_S_1>
    3980:	88 23       	and	r24, r24
    3982:	31 f0       	breq	.+12     	; 0x3990 <IN_Scales_Set+0x2c4>
    3984:	81 50       	subi	r24, 0x01	; 1
    3986:	80 93 60 51 	sts	0x5160, r24	; 0x805160 <IN_S_1>
    398a:	1a 82       	std	Y+2, r1	; 0x02
    398c:	01 c0       	rjmp	.+2      	; 0x3990 <IN_Scales_Set+0x2c4>
				}
			break;

			case 5:
				KEY.Count = 0;					// ы░Шы│╡ьЭД ьЬДэХ┤ KEY.Count ые╝ ь┤Иъ╕░эЩФ ьЛЬэВ┤
    398e:	18 82       	st	Y, r1
			break;
		}
		wdt_reset();							// ьЫМь╣ШыПЕ ыжмьЕЛ
    3990:	0e 94 18 14 	call	0x2830	; 0x2830 <wdt_reset>
	IN_S_1000  = IN_Scales % 10000/ 1000;					// ыбЬыУЬьЕА ьЮЕъ╡мь▓┤ьдС  1000ьЭШ ьЮРыжм
	IN_S_100   = IN_Scales % 1000 / 100;					// ыбЬыУЬьЕА ьЮЕъ╡мь▓┤ьдС   100ьЭШ ьЮРыжм
	IN_S_10    = IN_Scales % 100 / 10;					// ыбЬыУЬьЕА ьЮЕъ╡мь▓┤ьдС    10ьЭШ ьЮРыжм
	IN_S_1     = IN_Scales % 10;						// ыбЬыУЬьЕА ьЮЕъ╡мь▓┤ьдС     1ьЭШ ьЮРыжм
//-------------------------------------------------------------------------------------------------
	while(SET.Menu)								// ыйФыЙ┤ыкиыУЬ ьЭ┤ый┤ ы░Шы│╡
    3994:	f8 01       	movw	r30, r16
    3996:	80 81       	ld	r24, Z
    3998:	81 11       	cpse	r24, r1
    399a:	e4 ce       	rjmp	.-568    	; 0x3764 <IN_Scales_Set+0x98>
	IN_Scales = 0;								// ыбЬыУЬьЕА ьЮЕъ╡мь▓┤ьдС ь┤Иъ╕░эЩФ
	IN_Scales += (IN_S_10000 * 10000);					// ыбЬыУЬьЕА ьЮЕъ╡мь▓┤ьдС 10000ьЭШ ьЮРыжм
	IN_Scales += (IN_S_1000  * 1000);					// ыбЬыУЬьЕА ьЮЕъ╡мь▓┤ьдС  1000ьЭШ ьЮРыжм
	IN_Scales += (IN_S_100   * 100);					// ыбЬыУЬьЕА ьЮЕъ╡мь▓┤ьдС   100ьЭШ ьЮРыжм
	IN_Scales += (IN_S_10    * 10);						// ыбЬыУЬьЕА ьЮЕъ╡мь▓┤ьдС    10ьЭШ ьЮРыжм
	IN_Scales += (IN_S_1     * 1);						// ыбЬыУЬьЕА ьЮЕъ╡мь▓┤ьдС     1ьЭШ ьЮРыжм
    399c:	20 91 0a 51 	lds	r18, 0x510A	; 0x80510a <IN_S_10000>
    39a0:	80 e1       	ldi	r24, 0x10	; 16
    39a2:	97 e2       	ldi	r25, 0x27	; 39
    39a4:	28 9f       	mul	r18, r24
    39a6:	b0 01       	movw	r22, r0
    39a8:	29 9f       	mul	r18, r25
    39aa:	70 0d       	add	r23, r0
    39ac:	11 24       	eor	r1, r1
    39ae:	40 91 72 51 	lds	r20, 0x5172	; 0x805172 <IN_S_1000>
    39b2:	28 ee       	ldi	r18, 0xE8	; 232
    39b4:	33 e0       	ldi	r19, 0x03	; 3
    39b6:	42 9f       	mul	r20, r18
    39b8:	c0 01       	movw	r24, r0
    39ba:	43 9f       	mul	r20, r19
    39bc:	90 0d       	add	r25, r0
    39be:	11 24       	eor	r1, r1
    39c0:	68 0f       	add	r22, r24
    39c2:	79 1f       	adc	r23, r25
    39c4:	80 91 0b 51 	lds	r24, 0x510B	; 0x80510b <IN_S_100>
    39c8:	f4 e6       	ldi	r31, 0x64	; 100
    39ca:	8f 9f       	mul	r24, r31
    39cc:	60 0d       	add	r22, r0
    39ce:	71 1d       	adc	r23, r1
    39d0:	11 24       	eor	r1, r1
    39d2:	80 91 ee 50 	lds	r24, 0x50EE	; 0x8050ee <IN_S_10>
    39d6:	90 e0       	ldi	r25, 0x00	; 0
    39d8:	9c 01       	movw	r18, r24
    39da:	22 0f       	add	r18, r18
    39dc:	33 1f       	adc	r19, r19
    39de:	88 0f       	add	r24, r24
    39e0:	99 1f       	adc	r25, r25
    39e2:	88 0f       	add	r24, r24
    39e4:	99 1f       	adc	r25, r25
    39e6:	88 0f       	add	r24, r24
    39e8:	99 1f       	adc	r25, r25
    39ea:	82 0f       	add	r24, r18
    39ec:	93 1f       	adc	r25, r19
    39ee:	68 0f       	add	r22, r24
    39f0:	79 1f       	adc	r23, r25
    39f2:	80 91 60 51 	lds	r24, 0x5160	; 0x805160 <IN_S_1>
    39f6:	68 0f       	add	r22, r24
    39f8:	71 1d       	adc	r23, r1
    39fa:	60 93 08 51 	sts	0x5108, r22	; 0x805108 <IN_Scales>
    39fe:	70 93 09 51 	sts	0x5109, r23	; 0x805109 <IN_Scales+0x1>
//-------------------------------------------------------------------------------------------------
	ee_write_word(Cell_IN_S_Addr, IN_Scales);				// ыбЬыУЬьЕА ьЮЕъ╡мь▓┤ьдСъ░Т ьаАьЮе
    3a02:	8a e0       	ldi	r24, 0x0A	; 10
    3a04:	90 e0       	ldi	r25, 0x00	; 0
    3a06:	0e 94 01 15 	call	0x2a02	; 0x2a02 <ee_write_word>

	SET.Menu = 1;								// Menu ыкиыУЬ ьЬаьзА
    3a0a:	ee e0       	ldi	r30, 0x0E	; 14
    3a0c:	f1 e5       	ldi	r31, 0x51	; 81
    3a0e:	81 e0       	ldi	r24, 0x01	; 1
    3a10:	80 83       	st	Z, r24
	SET.Select = 0;								// Select ы▓ДэК╝ ь┤Иъ╕░эЩФ
    3a12:	11 82       	std	Z+1, r1	; 0x01
	SET.Blink = 0;								// ьЮРыж┐ьИШ ъ╣Ьы░ХьЮД ь┤Иъ╕░эЩФ
    3a14:	13 82       	std	Z+3, r1	; 0x03
	KEY.Count = 0;								// ьДаэГЭ Key ъ░А ыИМыж░эЪЯьИШ ь┤Иъ╕░эЩФ
    3a16:	10 92 4b 51 	sts	0x514B, r1	; 0x80514b <KEY>
}
    3a1a:	05 c0       	rjmp	.+10     	; 0x3a26 <IN_Scales_Set+0x35a>
				else	  {DIGIT[1][3] = fnd_tbl[IN_S_10000];}	// Blink = 0 ьЭ┤ый┤ ыбЬыУЬьЕА ьЮЕъ╡мь▓┤ьдС 10000ьЭШ ьЮРыжм эСЬьЛЬ

				if(KEY.Buff)					// Key ьЮЕыаеьЭ┤ ьЮИьЬ╝ый┤
				{
					if     (KEY.Key == 1 && IN_S_10000 < 1) {IN_S_10000++; KEY.Key = 0;}	// ьЧЕ  ы▓ДэК╝ ьЭ┤ый┤ ьЮЕъ╡мь▓┤ьдС 10000ьЭШ ьЮРыжм ьжЭъ░А
					else if(KEY.Key == 3 && IN_S_10000 > 0) {IN_S_10000--; KEY.Key = 0;}	// ыЛдьЪ┤ы▓ДэК╝ ьЭ┤ый┤ ьЮЕъ╡мь▓┤ьдС 10000ьЭШ ьЮРыжм ъ░РьЖМ
    3a1c:	9a 81       	ldd	r25, Y+2	; 0x02
    3a1e:	93 30       	cpi	r25, 0x03	; 3
    3a20:	09 f0       	breq	.+2      	; 0x3a24 <IN_Scales_Set+0x358>
    3a22:	b6 cf       	rjmp	.-148    	; 0x3990 <IN_Scales_Set+0x2c4>
    3a24:	e2 ce       	rjmp	.-572    	; 0x37ea <IN_Scales_Set+0x11e>

	SET.Menu = 1;								// Menu ыкиыУЬ ьЬаьзА
	SET.Select = 0;								// Select ы▓ДэК╝ ь┤Иъ╕░эЩФ
	SET.Blink = 0;								// ьЮРыж┐ьИШ ъ╣Ьы░ХьЮД ь┤Иъ╕░эЩФ
	KEY.Count = 0;								// ьДаэГЭ Key ъ░А ыИМыж░эЪЯьИШ ь┤Иъ╕░эЩФ
}
    3a26:	df 91       	pop	r29
    3a28:	cf 91       	pop	r28
    3a2a:	1f 91       	pop	r17
    3a2c:	0f 91       	pop	r16
    3a2e:	ff 90       	pop	r15
    3a30:	ef 90       	pop	r14
    3a32:	df 90       	pop	r13
    3a34:	08 95       	ret

00003a36 <RO_Set>:

//=================================================================================================
void RO_Set(void)								// RO ьДдьаХ
{
    3a36:	2f 92       	push	r2
    3a38:	3f 92       	push	r3
    3a3a:	4f 92       	push	r4
    3a3c:	5f 92       	push	r5
    3a3e:	6f 92       	push	r6
    3a40:	7f 92       	push	r7
    3a42:	8f 92       	push	r8
    3a44:	9f 92       	push	r9
    3a46:	af 92       	push	r10
    3a48:	bf 92       	push	r11
    3a4a:	cf 92       	push	r12
    3a4c:	df 92       	push	r13
    3a4e:	ef 92       	push	r14
    3a50:	ff 92       	push	r15
    3a52:	0f 93       	push	r16
    3a54:	1f 93       	push	r17
    3a56:	cf 93       	push	r28
    3a58:	df 93       	push	r29
    3a5a:	cd b7       	in	r28, 0x3d	; 61
    3a5c:	de b7       	in	r29, 0x3e	; 62
    3a5e:	25 97       	sbiw	r28, 0x05	; 5
    3a60:	cd bf       	out	0x3d, r28	; 61
    3a62:	de bf       	out	0x3e, r29	; 62
	DIGIT[2][0] = FND_OFF;							// ыбЬыУЬьЕА RO, ьЮЕъ╡мь▓┤ьдС 1ьЭШ ьЮРыжм ьзАьЪ░ъ╕░
    3a64:	10 92 81 41 	sts	0x4181, r1	; 0x804181 <DIGIT+0x8>

	RO = ee_read_dword(Cell_RO_Addr);					// ыбЬыУЬьЕА ROъ░Т ы╢ИыЯмьШдъ╕░
    3a68:	8c e0       	ldi	r24, 0x0C	; 12
    3a6a:	90 e0       	ldi	r25, 0x00	; 0
    3a6c:	0e 94 d0 14 	call	0x29a0	; 0x29a0 <ee_read_dword>
    3a70:	1b 01       	movw	r2, r22
    3a72:	2c 01       	movw	r4, r24
    3a74:	60 93 13 51 	sts	0x5113, r22	; 0x805113 <RO>
    3a78:	30 92 14 51 	sts	0x5114, r3	; 0x805114 <RO+0x1>
    3a7c:	40 92 15 51 	sts	0x5115, r4	; 0x805115 <RO+0x2>
    3a80:	50 92 16 51 	sts	0x5116, r5	; 0x805116 <RO+0x3>
    3a84:	10 92 17 51 	sts	0x5117, r1	; 0x805117 <RO+0x4>
    3a88:	10 92 18 51 	sts	0x5118, r1	; 0x805118 <RO+0x5>
    3a8c:	10 92 19 51 	sts	0x5119, r1	; 0x805119 <RO+0x6>
    3a90:	10 92 1a 51 	sts	0x511A, r1	; 0x80511a <RO+0x7>
//-------------------------------------------------------------------------------------------------
	RO_10000 = RO / 10000;							// ыбЬыУЬьЕА RO 10000ьЭШ ьЮРыжм
    3a94:	68 94       	set
    3a96:	aa 24       	eor	r10, r10
    3a98:	a4 f8       	bld	r10, 4
    3a9a:	0f 2e       	mov	r0, r31
    3a9c:	f7 e2       	ldi	r31, 0x27	; 39
    3a9e:	bf 2e       	mov	r11, r31
    3aa0:	f0 2d       	mov	r31, r0
    3aa2:	c1 2c       	mov	r12, r1
    3aa4:	d1 2c       	mov	r13, r1
    3aa6:	e1 2c       	mov	r14, r1
    3aa8:	f1 2c       	mov	r15, r1
    3aaa:	00 e0       	ldi	r16, 0x00	; 0
    3aac:	10 e0       	ldi	r17, 0x00	; 0
    3aae:	26 2f       	mov	r18, r22
    3ab0:	33 2d       	mov	r19, r3
    3ab2:	44 2d       	mov	r20, r4
    3ab4:	55 2d       	mov	r21, r5
    3ab6:	60 e0       	ldi	r22, 0x00	; 0
    3ab8:	70 e0       	ldi	r23, 0x00	; 0
    3aba:	80 e0       	ldi	r24, 0x00	; 0
    3abc:	90 e0       	ldi	r25, 0x00	; 0
    3abe:	0e 94 84 3d 	call	0x7b08	; 0x7b08 <__udivdi3>
    3ac2:	20 93 54 51 	sts	0x5154, r18	; 0x805154 <RO_10000>
    3ac6:	30 93 55 51 	sts	0x5155, r19	; 0x805155 <RO_10000+0x1>
    3aca:	40 93 56 51 	sts	0x5156, r20	; 0x805156 <RO_10000+0x2>
    3ace:	50 93 57 51 	sts	0x5157, r21	; 0x805157 <RO_10000+0x3>
    3ad2:	60 93 58 51 	sts	0x5158, r22	; 0x805158 <RO_10000+0x4>
    3ad6:	70 93 59 51 	sts	0x5159, r23	; 0x805159 <RO_10000+0x5>
    3ada:	80 93 5a 51 	sts	0x515A, r24	; 0x80515a <RO_10000+0x6>
    3ade:	90 93 5b 51 	sts	0x515B, r25	; 0x80515b <RO_10000+0x7>
	RO_1000  = RO % 10000 / 1000;						// ыбЬыУЬьЕА RO  1000ьЭШ ьЮРыжм
    3ae2:	22 2d       	mov	r18, r2
    3ae4:	33 2d       	mov	r19, r3
    3ae6:	44 2d       	mov	r20, r4
    3ae8:	55 2d       	mov	r21, r5
    3aea:	60 e0       	ldi	r22, 0x00	; 0
    3aec:	70 e0       	ldi	r23, 0x00	; 0
    3aee:	80 e0       	ldi	r24, 0x00	; 0
    3af0:	90 e0       	ldi	r25, 0x00	; 0
    3af2:	0e 94 82 3d 	call	0x7b04	; 0x7b04 <__umoddi3>
    3af6:	0f 2e       	mov	r0, r31
    3af8:	f8 ee       	ldi	r31, 0xE8	; 232
    3afa:	af 2e       	mov	r10, r31
    3afc:	f0 2d       	mov	r31, r0
    3afe:	0f 2e       	mov	r0, r31
    3b00:	f3 e0       	ldi	r31, 0x03	; 3
    3b02:	bf 2e       	mov	r11, r31
    3b04:	f0 2d       	mov	r31, r0
    3b06:	0e 94 84 3d 	call	0x7b08	; 0x7b08 <__udivdi3>
    3b0a:	20 93 77 52 	sts	0x5277, r18	; 0x805277 <RO_1000>
    3b0e:	30 93 78 52 	sts	0x5278, r19	; 0x805278 <RO_1000+0x1>
    3b12:	40 93 79 52 	sts	0x5279, r20	; 0x805279 <RO_1000+0x2>
    3b16:	50 93 7a 52 	sts	0x527A, r21	; 0x80527a <RO_1000+0x3>
    3b1a:	60 93 7b 52 	sts	0x527B, r22	; 0x80527b <RO_1000+0x4>
    3b1e:	70 93 7c 52 	sts	0x527C, r23	; 0x80527c <RO_1000+0x5>
    3b22:	80 93 7d 52 	sts	0x527D, r24	; 0x80527d <RO_1000+0x6>
    3b26:	90 93 7e 52 	sts	0x527E, r25	; 0x80527e <RO_1000+0x7>
	RO_100   = RO % 1000 / 100;						// ыбЬыУЬьЕА RO   100ьЭШ ьЮРыжм
    3b2a:	22 2d       	mov	r18, r2
    3b2c:	33 2d       	mov	r19, r3
    3b2e:	44 2d       	mov	r20, r4
    3b30:	55 2d       	mov	r21, r5
    3b32:	60 e0       	ldi	r22, 0x00	; 0
    3b34:	70 e0       	ldi	r23, 0x00	; 0
    3b36:	80 e0       	ldi	r24, 0x00	; 0
    3b38:	90 e0       	ldi	r25, 0x00	; 0
    3b3a:	0e 94 82 3d 	call	0x7b04	; 0x7b04 <__umoddi3>
    3b3e:	0f 2e       	mov	r0, r31
    3b40:	f4 e6       	ldi	r31, 0x64	; 100
    3b42:	af 2e       	mov	r10, r31
    3b44:	f0 2d       	mov	r31, r0
    3b46:	b1 2c       	mov	r11, r1
    3b48:	0e 94 84 3d 	call	0x7b08	; 0x7b08 <__udivdi3>
    3b4c:	20 93 69 51 	sts	0x5169, r18	; 0x805169 <RO_100>
    3b50:	30 93 6a 51 	sts	0x516A, r19	; 0x80516a <RO_100+0x1>
    3b54:	40 93 6b 51 	sts	0x516B, r20	; 0x80516b <RO_100+0x2>
    3b58:	50 93 6c 51 	sts	0x516C, r21	; 0x80516c <RO_100+0x3>
    3b5c:	60 93 6d 51 	sts	0x516D, r22	; 0x80516d <RO_100+0x4>
    3b60:	70 93 6e 51 	sts	0x516E, r23	; 0x80516e <RO_100+0x5>
    3b64:	80 93 6f 51 	sts	0x516F, r24	; 0x80516f <RO_100+0x6>
    3b68:	90 93 70 51 	sts	0x5170, r25	; 0x805170 <RO_100+0x7>
	RO_10    = RO % 100 / 10;						// ыбЬыУЬьЕА RO    10ьЭШ ьЮРыжм
    3b6c:	22 2d       	mov	r18, r2
    3b6e:	33 2d       	mov	r19, r3
    3b70:	44 2d       	mov	r20, r4
    3b72:	55 2d       	mov	r21, r5
    3b74:	60 e0       	ldi	r22, 0x00	; 0
    3b76:	70 e0       	ldi	r23, 0x00	; 0
    3b78:	80 e0       	ldi	r24, 0x00	; 0
    3b7a:	90 e0       	ldi	r25, 0x00	; 0
    3b7c:	0e 94 82 3d 	call	0x7b04	; 0x7b04 <__umoddi3>
    3b80:	0f 2e       	mov	r0, r31
    3b82:	fa e0       	ldi	r31, 0x0A	; 10
    3b84:	af 2e       	mov	r10, r31
    3b86:	f0 2d       	mov	r31, r0
    3b88:	0e 94 84 3d 	call	0x7b08	; 0x7b08 <__udivdi3>
    3b8c:	20 93 3f 51 	sts	0x513F, r18	; 0x80513f <RO_10>
    3b90:	30 93 40 51 	sts	0x5140, r19	; 0x805140 <RO_10+0x1>
    3b94:	40 93 41 51 	sts	0x5141, r20	; 0x805141 <RO_10+0x2>
    3b98:	50 93 42 51 	sts	0x5142, r21	; 0x805142 <RO_10+0x3>
    3b9c:	60 93 43 51 	sts	0x5143, r22	; 0x805143 <RO_10+0x4>
    3ba0:	70 93 44 51 	sts	0x5144, r23	; 0x805144 <RO_10+0x5>
    3ba4:	80 93 45 51 	sts	0x5145, r24	; 0x805145 <RO_10+0x6>
    3ba8:	90 93 46 51 	sts	0x5146, r25	; 0x805146 <RO_10+0x7>
	RO_1     = RO % 10;							// ыбЬыУЬьЕА RO     1ьЭШ ьЮРыжм
    3bac:	22 2d       	mov	r18, r2
    3bae:	33 2d       	mov	r19, r3
    3bb0:	44 2d       	mov	r20, r4
    3bb2:	55 2d       	mov	r21, r5
    3bb4:	60 e0       	ldi	r22, 0x00	; 0
    3bb6:	70 e0       	ldi	r23, 0x00	; 0
    3bb8:	80 e0       	ldi	r24, 0x00	; 0
    3bba:	90 e0       	ldi	r25, 0x00	; 0
    3bbc:	0e 94 82 3d 	call	0x7b04	; 0x7b04 <__umoddi3>
    3bc0:	20 93 75 51 	sts	0x5175, r18	; 0x805175 <RO_1>
    3bc4:	30 93 76 51 	sts	0x5176, r19	; 0x805176 <RO_1+0x1>
    3bc8:	40 93 77 51 	sts	0x5177, r20	; 0x805177 <RO_1+0x2>
    3bcc:	50 93 78 51 	sts	0x5178, r21	; 0x805178 <RO_1+0x3>
    3bd0:	60 93 79 51 	sts	0x5179, r22	; 0x805179 <RO_1+0x4>
    3bd4:	70 93 7a 51 	sts	0x517A, r23	; 0x80517a <RO_1+0x5>
    3bd8:	80 93 7b 51 	sts	0x517B, r24	; 0x80517b <RO_1+0x6>
    3bdc:	90 93 7c 51 	sts	0x517C, r25	; 0x80517c <RO_1+0x7>
//-------------------------------------------------------------------------------------------------
	while(SET.Menu)								// ыйФыЙ┤ъ░А 1 ьЭ┤ый┤ ы░Шы│╡
    3be0:	80 91 0e 51 	lds	r24, 0x510E	; 0x80510e <SET>
    3be4:	88 23       	and	r24, r24
    3be6:	09 f4       	brne	.+2      	; 0x3bea <RO_Set+0x1b4>
    3be8:	f2 c2       	rjmp	.+1508   	; 0x41ce <__DATA_REGION_LENGTH__+0x1ce>
	{
		SET.Blink = 1;							// ьЮРыж┐ьИШ ъ╣Ьы░ХьЮД ьДдьаХ
    3bea:	0e e0       	ldi	r16, 0x0E	; 14
    3bec:	11 e5       	ldi	r17, 0x51	; 81
    3bee:	cc 24       	eor	r12, r12
    3bf0:	c3 94       	inc	r12
    3bf2:	dc 2c       	mov	r13, r12
					else if(KEY.Key == 3 && RO_10 > 0) {RO_10--; KEY.Key = 0;}		// ыЛдьЪ┤ы▓ДэК╝ ьЭ┤ый┤ ROъ░Т 10ьЭШ ьЮРыжм ъ░РьЖМ
				}
			break;

			case 4:							// ыбЬыУЬьЕА RO 1ьЭШ ьЮРыжм
				DIGIT[1][0] = fnd_tbl[RO_10];			// ыбЬыУЬьЕА RO 10ьЭШ ьЮРыжм эСЬьЛЬ
    3bf4:	0f 2e       	mov	r0, r31
    3bf6:	f9 e7       	ldi	r31, 0x79	; 121
    3bf8:	ef 2e       	mov	r14, r31
    3bfa:	f1 e4       	ldi	r31, 0x41	; 65
    3bfc:	ff 2e       	mov	r15, r31
    3bfe:	f0 2d       	mov	r31, r0
    3c00:	0f 2e       	mov	r0, r31
    3c02:	ff e3       	ldi	r31, 0x3F	; 63
    3c04:	8f 2e       	mov	r8, r31
    3c06:	f1 e5       	ldi	r31, 0x51	; 81
    3c08:	9f 2e       	mov	r9, r31
    3c0a:	f0 2d       	mov	r31, r0
				if(Blink) {DIGIT[2][3] = FND_OFF;}		// Blink = 1 ьЭ┤ый┤ ыбЬыУЬьЕА RO 1ьЭШ ьЮРыжм OFF
				else	  {DIGIT[2][3] = fnd_tbl[RO_1];}	// Blink = 0 ьЭ┤ый┤ ыбЬыУЬьЕА RO 1ьЭШ ьЮРыжм эСЬьЛЬ
    3c0c:	0f 2e       	mov	r0, r31
    3c0e:	f5 e7       	ldi	r31, 0x75	; 117
    3c10:	af 2e       	mov	r10, r31
    3c12:	f1 e5       	ldi	r31, 0x51	; 81
    3c14:	bf 2e       	mov	r11, r31
    3c16:	f0 2d       	mov	r31, r0
	RO_10    = RO % 100 / 10;						// ыбЬыУЬьЕА RO    10ьЭШ ьЮРыжм
	RO_1     = RO % 10;							// ыбЬыУЬьЕА RO     1ьЭШ ьЮРыжм
//-------------------------------------------------------------------------------------------------
	while(SET.Menu)								// ыйФыЙ┤ъ░А 1 ьЭ┤ый┤ ы░Шы│╡
	{
		SET.Blink = 1;							// ьЮРыж┐ьИШ ъ╣Ьы░ХьЮД ьДдьаХ
    3c18:	d8 01       	movw	r26, r16
    3c1a:	13 96       	adiw	r26, 0x03	; 3
    3c1c:	dc 92       	st	X, r13

		switch(KEY.Count)						// ьДаэГЭ Key ъ░А ыИМыж░эЪЯьИШ
    3c1e:	eb e4       	ldi	r30, 0x4B	; 75
    3c20:	f1 e5       	ldi	r31, 0x51	; 81
    3c22:	80 81       	ld	r24, Z
    3c24:	82 30       	cpi	r24, 0x02	; 2
    3c26:	09 f4       	brne	.+2      	; 0x3c2a <RO_Set+0x1f4>
    3c28:	2a c1       	rjmp	.+596    	; 0x3e7e <RO_Set+0x448>
    3c2a:	30 f4       	brcc	.+12     	; 0x3c38 <RO_Set+0x202>
    3c2c:	88 23       	and	r24, r24
    3c2e:	69 f0       	breq	.+26     	; 0x3c4a <RO_Set+0x214>
    3c30:	81 30       	cpi	r24, 0x01	; 1
    3c32:	09 f4       	brne	.+2      	; 0x3c36 <RO_Set+0x200>
    3c34:	97 c0       	rjmp	.+302    	; 0x3d64 <RO_Set+0x32e>
    3c36:	c5 c2       	rjmp	.+1418   	; 0x41c2 <__DATA_REGION_LENGTH__+0x1c2>
    3c38:	84 30       	cpi	r24, 0x04	; 4
    3c3a:	09 f4       	brne	.+2      	; 0x3c3e <RO_Set+0x208>
    3c3c:	37 c2       	rjmp	.+1134   	; 0x40ac <__DATA_REGION_LENGTH__+0xac>
    3c3e:	08 f4       	brcc	.+2      	; 0x3c42 <RO_Set+0x20c>
    3c40:	aa c1       	rjmp	.+852    	; 0x3f96 <RO_Set+0x560>
    3c42:	85 30       	cpi	r24, 0x05	; 5
    3c44:	09 f4       	brne	.+2      	; 0x3c48 <RO_Set+0x212>
    3c46:	ba c2       	rjmp	.+1396   	; 0x41bc <__DATA_REGION_LENGTH__+0x1bc>
    3c48:	bc c2       	rjmp	.+1400   	; 0x41c2 <__DATA_REGION_LENGTH__+0x1c2>
		{
			case 0:							// ыбЬыУЬьЕА RO 10000ьЭШ ьЮРыжм
				DIGIT[2][3] = fnd_tbl[RO_1];			// ыбЬыУЬьЕА RO 1ьЭШ ьЮРыжм эСЬьЛЬ
    3c4a:	d5 01       	movw	r26, r10
    3c4c:	ed 91       	ld	r30, X+
    3c4e:	fc 91       	ld	r31, X
    3c50:	ed 5b       	subi	r30, 0xBD	; 189
    3c52:	fe 4b       	sbci	r31, 0xBE	; 190
    3c54:	80 81       	ld	r24, Z
    3c56:	f7 01       	movw	r30, r14
    3c58:	83 87       	std	Z+11, r24	; 0x0b
				if(Blink) {DIGIT[1][3] = FND_OFF;}						// Blink = 1 ьЭ┤ый┤ ыбЬыУЬьЕА RO 10000ьЭШ ьЮРыжм OFF
    3c5a:	80 91 71 51 	lds	r24, 0x5171	; 0x805171 <Blink>
    3c5e:	88 23       	and	r24, r24
    3c60:	11 f0       	breq	.+4      	; 0x3c66 <RO_Set+0x230>
    3c62:	17 82       	std	Z+7, r1	; 0x07
    3c64:	0a c0       	rjmp	.+20     	; 0x3c7a <RO_Set+0x244>
				else	  {DIGIT[1][3] = fnd_tbl[RO_10000] + FND_Point;}			// Blink = 0 ьЭ┤ый┤ ыбЬыУЬьЕА RO 10000ьЭШ ьЮРыжм эСЬьЛЬ
    3c66:	a4 e5       	ldi	r26, 0x54	; 84
    3c68:	b1 e5       	ldi	r27, 0x51	; 81
    3c6a:	ed 91       	ld	r30, X+
    3c6c:	fc 91       	ld	r31, X
    3c6e:	ed 5b       	subi	r30, 0xBD	; 189
    3c70:	fe 4b       	sbci	r31, 0xBE	; 190
    3c72:	80 81       	ld	r24, Z
    3c74:	8f 5f       	subi	r24, 0xFF	; 255
    3c76:	f7 01       	movw	r30, r14
    3c78:	87 83       	std	Z+7, r24	; 0x07

				if(KEY.Buff)					// Key ьЮЕыаеьЭ┤ ьЮИьЬ╝ый┤
    3c7a:	80 91 4c 51 	lds	r24, 0x514C	; 0x80514c <KEY+0x1>
    3c7e:	88 23       	and	r24, r24
    3c80:	09 f4       	brne	.+2      	; 0x3c84 <RO_Set+0x24e>
    3c82:	9f c2       	rjmp	.+1342   	; 0x41c2 <__DATA_REGION_LENGTH__+0x1c2>
				{
					if     (KEY.Key == 1 && RO_10000 < 8) {RO_10000++; KEY.Key = 0;}	// ьЧЕ  ы▓ДэК╝ ьЭ┤ый┤ ROъ░Т 10000ьЭШ ьЮРыжм ьжЭъ░А
    3c84:	80 91 4d 51 	lds	r24, 0x514D	; 0x80514d <KEY+0x2>
    3c88:	81 30       	cpi	r24, 0x01	; 1
    3c8a:	99 f5       	brne	.+102    	; 0x3cf2 <RO_Set+0x2bc>
    3c8c:	30 90 54 51 	lds	r3, 0x5154	; 0x805154 <RO_10000>
    3c90:	40 90 55 51 	lds	r4, 0x5155	; 0x805155 <RO_10000+0x1>
    3c94:	50 90 56 51 	lds	r5, 0x5156	; 0x805156 <RO_10000+0x2>
    3c98:	60 90 57 51 	lds	r6, 0x5157	; 0x805157 <RO_10000+0x3>
    3c9c:	70 90 58 51 	lds	r7, 0x5158	; 0x805158 <RO_10000+0x4>
    3ca0:	b0 91 59 51 	lds	r27, 0x5159	; 0x805159 <RO_10000+0x5>
    3ca4:	f0 91 5a 51 	lds	r31, 0x515A	; 0x80515a <RO_10000+0x6>
    3ca8:	e0 91 5b 51 	lds	r30, 0x515B	; 0x80515b <RO_10000+0x7>
    3cac:	23 2d       	mov	r18, r3
    3cae:	34 2d       	mov	r19, r4
    3cb0:	45 2d       	mov	r20, r5
    3cb2:	56 2d       	mov	r21, r6
    3cb4:	67 2d       	mov	r22, r7
    3cb6:	7b 2f       	mov	r23, r27
    3cb8:	8f 2f       	mov	r24, r31
    3cba:	9e 2f       	mov	r25, r30
    3cbc:	a7 e0       	ldi	r26, 0x07	; 7
    3cbe:	0e 94 18 3e 	call	0x7c30	; 0x7c30 <__cmpdi2_s8>
    3cc2:	09 f0       	breq	.+2      	; 0x3cc6 <RO_Set+0x290>
    3cc4:	b0 f4       	brcc	.+44     	; 0x3cf2 <RO_Set+0x2bc>
    3cc6:	ac 2d       	mov	r26, r12
    3cc8:	0e 94 03 3e 	call	0x7c06	; 0x7c06 <__adddi3_s8>
    3ccc:	20 93 54 51 	sts	0x5154, r18	; 0x805154 <RO_10000>
    3cd0:	30 93 55 51 	sts	0x5155, r19	; 0x805155 <RO_10000+0x1>
    3cd4:	40 93 56 51 	sts	0x5156, r20	; 0x805156 <RO_10000+0x2>
    3cd8:	50 93 57 51 	sts	0x5157, r21	; 0x805157 <RO_10000+0x3>
    3cdc:	60 93 58 51 	sts	0x5158, r22	; 0x805158 <RO_10000+0x4>
    3ce0:	70 93 59 51 	sts	0x5159, r23	; 0x805159 <RO_10000+0x5>
    3ce4:	80 93 5a 51 	sts	0x515A, r24	; 0x80515a <RO_10000+0x6>
    3ce8:	90 93 5b 51 	sts	0x515B, r25	; 0x80515b <RO_10000+0x7>
    3cec:	10 92 4d 51 	sts	0x514D, r1	; 0x80514d <KEY+0x2>
    3cf0:	68 c2       	rjmp	.+1232   	; 0x41c2 <__DATA_REGION_LENGTH__+0x1c2>
					else if(KEY.Key == 3 && RO_10000 > 1) {RO_10000--; KEY.Key = 0;}	// ыЛдьЪ┤ы▓ДэК╝ ьЭ┤ый┤ ROъ░Т 10000ьЭШ ьЮРыжм ъ░РьЖМ
    3cf2:	80 91 4d 51 	lds	r24, 0x514D	; 0x80514d <KEY+0x2>
    3cf6:	83 30       	cpi	r24, 0x03	; 3
    3cf8:	09 f0       	breq	.+2      	; 0x3cfc <RO_Set+0x2c6>
    3cfa:	63 c2       	rjmp	.+1222   	; 0x41c2 <__DATA_REGION_LENGTH__+0x1c2>
    3cfc:	30 90 54 51 	lds	r3, 0x5154	; 0x805154 <RO_10000>
    3d00:	40 90 55 51 	lds	r4, 0x5155	; 0x805155 <RO_10000+0x1>
    3d04:	50 90 56 51 	lds	r5, 0x5156	; 0x805156 <RO_10000+0x2>
    3d08:	60 90 57 51 	lds	r6, 0x5157	; 0x805157 <RO_10000+0x3>
    3d0c:	70 90 58 51 	lds	r7, 0x5158	; 0x805158 <RO_10000+0x4>
    3d10:	b0 91 59 51 	lds	r27, 0x5159	; 0x805159 <RO_10000+0x5>
    3d14:	f0 91 5a 51 	lds	r31, 0x515A	; 0x80515a <RO_10000+0x6>
    3d18:	e0 91 5b 51 	lds	r30, 0x515B	; 0x80515b <RO_10000+0x7>
    3d1c:	23 2d       	mov	r18, r3
    3d1e:	34 2d       	mov	r19, r4
    3d20:	45 2d       	mov	r20, r5
    3d22:	56 2d       	mov	r21, r6
    3d24:	67 2d       	mov	r22, r7
    3d26:	7b 2f       	mov	r23, r27
    3d28:	8f 2f       	mov	r24, r31
    3d2a:	9e 2f       	mov	r25, r30
    3d2c:	ac 2d       	mov	r26, r12
    3d2e:	0e 94 18 3e 	call	0x7c30	; 0x7c30 <__cmpdi2_s8>
    3d32:	09 f0       	breq	.+2      	; 0x3d36 <RO_Set+0x300>
    3d34:	08 f4       	brcc	.+2      	; 0x3d38 <RO_Set+0x302>
    3d36:	45 c2       	rjmp	.+1162   	; 0x41c2 <__DATA_REGION_LENGTH__+0x1c2>
    3d38:	af ef       	ldi	r26, 0xFF	; 255
    3d3a:	0e 94 03 3e 	call	0x7c06	; 0x7c06 <__adddi3_s8>
    3d3e:	20 93 54 51 	sts	0x5154, r18	; 0x805154 <RO_10000>
    3d42:	30 93 55 51 	sts	0x5155, r19	; 0x805155 <RO_10000+0x1>
    3d46:	40 93 56 51 	sts	0x5156, r20	; 0x805156 <RO_10000+0x2>
    3d4a:	50 93 57 51 	sts	0x5157, r21	; 0x805157 <RO_10000+0x3>
    3d4e:	60 93 58 51 	sts	0x5158, r22	; 0x805158 <RO_10000+0x4>
    3d52:	70 93 59 51 	sts	0x5159, r23	; 0x805159 <RO_10000+0x5>
    3d56:	80 93 5a 51 	sts	0x515A, r24	; 0x80515a <RO_10000+0x6>
    3d5a:	90 93 5b 51 	sts	0x515B, r25	; 0x80515b <RO_10000+0x7>
    3d5e:	10 92 4d 51 	sts	0x514D, r1	; 0x80514d <KEY+0x2>
    3d62:	2f c2       	rjmp	.+1118   	; 0x41c2 <__DATA_REGION_LENGTH__+0x1c2>
				}
			break;

			case 1:							// ыбЬыУЬьЕА RO 1000ьЭШ ьЮРыжм
				DIGIT[1][3] = fnd_tbl[RO_10000] + FND_Point;	// ыбЬыУЬьЕА RO 10000ьЭШ ьЮРыжм эСЬьЛЬ
    3d64:	a4 e5       	ldi	r26, 0x54	; 84
    3d66:	b1 e5       	ldi	r27, 0x51	; 81
    3d68:	ed 91       	ld	r30, X+
    3d6a:	fc 91       	ld	r31, X
    3d6c:	ed 5b       	subi	r30, 0xBD	; 189
    3d6e:	fe 4b       	sbci	r31, 0xBE	; 190
    3d70:	80 81       	ld	r24, Z
    3d72:	8f 5f       	subi	r24, 0xFF	; 255
    3d74:	f7 01       	movw	r30, r14
    3d76:	87 83       	std	Z+7, r24	; 0x07
				if(Blink) {DIGIT[1][2] = FND_OFF;}		// Blink = 1 ьЭ┤ый┤ ыбЬыУЬьЕА RO 1000ьЭШ ьЮРыжм OFF
    3d78:	80 91 71 51 	lds	r24, 0x5171	; 0x805171 <Blink>
    3d7c:	88 23       	and	r24, r24
    3d7e:	11 f0       	breq	.+4      	; 0x3d84 <RO_Set+0x34e>
    3d80:	16 82       	std	Z+6, r1	; 0x06
    3d82:	09 c0       	rjmp	.+18     	; 0x3d96 <RO_Set+0x360>
				else	  {DIGIT[1][2] = fnd_tbl[RO_1000];}	// Blink = 0 ьЭ┤ый┤ ыбЬыУЬьЕА RO 1000ьЭШ ьЮРыжм эСЬьЛЬ
    3d84:	a7 e7       	ldi	r26, 0x77	; 119
    3d86:	b2 e5       	ldi	r27, 0x52	; 82
    3d88:	ed 91       	ld	r30, X+
    3d8a:	fc 91       	ld	r31, X
    3d8c:	ed 5b       	subi	r30, 0xBD	; 189
    3d8e:	fe 4b       	sbci	r31, 0xBE	; 190
    3d90:	80 81       	ld	r24, Z
    3d92:	f7 01       	movw	r30, r14
    3d94:	86 83       	std	Z+6, r24	; 0x06

				if(KEY.Buff)					// Key ьЮЕыаеьЭ┤ ьЮИьЬ╝ый┤
    3d96:	80 91 4c 51 	lds	r24, 0x514C	; 0x80514c <KEY+0x1>
    3d9a:	88 23       	and	r24, r24
    3d9c:	09 f4       	brne	.+2      	; 0x3da0 <RO_Set+0x36a>
    3d9e:	11 c2       	rjmp	.+1058   	; 0x41c2 <__DATA_REGION_LENGTH__+0x1c2>
				{
					if     (KEY.Key == 1 && RO_1000 < 9) {RO_1000++; KEY.Key = 0;}		// ьЧЕ  ы▓ДэК╝ ьЭ┤ый┤ ROъ░Т 1000ьЭШ ьЮРыжм ьжЭъ░А
    3da0:	80 91 4d 51 	lds	r24, 0x514D	; 0x80514d <KEY+0x2>
    3da4:	81 30       	cpi	r24, 0x01	; 1
    3da6:	99 f5       	brne	.+102    	; 0x3e0e <RO_Set+0x3d8>
    3da8:	30 90 77 52 	lds	r3, 0x5277	; 0x805277 <RO_1000>
    3dac:	40 90 78 52 	lds	r4, 0x5278	; 0x805278 <RO_1000+0x1>
    3db0:	50 90 79 52 	lds	r5, 0x5279	; 0x805279 <RO_1000+0x2>
    3db4:	60 90 7a 52 	lds	r6, 0x527A	; 0x80527a <RO_1000+0x3>
    3db8:	70 90 7b 52 	lds	r7, 0x527B	; 0x80527b <RO_1000+0x4>
    3dbc:	b0 91 7c 52 	lds	r27, 0x527C	; 0x80527c <RO_1000+0x5>
    3dc0:	f0 91 7d 52 	lds	r31, 0x527D	; 0x80527d <RO_1000+0x6>
    3dc4:	e0 91 7e 52 	lds	r30, 0x527E	; 0x80527e <RO_1000+0x7>
    3dc8:	23 2d       	mov	r18, r3
    3dca:	34 2d       	mov	r19, r4
    3dcc:	45 2d       	mov	r20, r5
    3dce:	56 2d       	mov	r21, r6
    3dd0:	67 2d       	mov	r22, r7
    3dd2:	7b 2f       	mov	r23, r27
    3dd4:	8f 2f       	mov	r24, r31
    3dd6:	9e 2f       	mov	r25, r30
    3dd8:	a8 e0       	ldi	r26, 0x08	; 8
    3dda:	0e 94 18 3e 	call	0x7c30	; 0x7c30 <__cmpdi2_s8>
    3dde:	09 f0       	breq	.+2      	; 0x3de2 <RO_Set+0x3ac>
    3de0:	b0 f4       	brcc	.+44     	; 0x3e0e <RO_Set+0x3d8>
    3de2:	ac 2d       	mov	r26, r12
    3de4:	0e 94 03 3e 	call	0x7c06	; 0x7c06 <__adddi3_s8>
    3de8:	20 93 77 52 	sts	0x5277, r18	; 0x805277 <RO_1000>
    3dec:	30 93 78 52 	sts	0x5278, r19	; 0x805278 <RO_1000+0x1>
    3df0:	40 93 79 52 	sts	0x5279, r20	; 0x805279 <RO_1000+0x2>
    3df4:	50 93 7a 52 	sts	0x527A, r21	; 0x80527a <RO_1000+0x3>
    3df8:	60 93 7b 52 	sts	0x527B, r22	; 0x80527b <RO_1000+0x4>
    3dfc:	70 93 7c 52 	sts	0x527C, r23	; 0x80527c <RO_1000+0x5>
    3e00:	80 93 7d 52 	sts	0x527D, r24	; 0x80527d <RO_1000+0x6>
    3e04:	90 93 7e 52 	sts	0x527E, r25	; 0x80527e <RO_1000+0x7>
    3e08:	10 92 4d 51 	sts	0x514D, r1	; 0x80514d <KEY+0x2>
    3e0c:	da c1       	rjmp	.+948    	; 0x41c2 <__DATA_REGION_LENGTH__+0x1c2>
					else if(KEY.Key == 3 && RO_1000 > 0) {RO_1000--; KEY.Key = 0;}		// ыЛдьЪ┤ы▓ДэК╝ ьЭ┤ый┤ ROъ░Т 1000ьЭШ ьЮРыжм ъ░РьЖМ
    3e0e:	80 91 4d 51 	lds	r24, 0x514D	; 0x80514d <KEY+0x2>
    3e12:	83 30       	cpi	r24, 0x03	; 3
    3e14:	09 f0       	breq	.+2      	; 0x3e18 <RO_Set+0x3e2>
    3e16:	d5 c1       	rjmp	.+938    	; 0x41c2 <__DATA_REGION_LENGTH__+0x1c2>
    3e18:	30 90 77 52 	lds	r3, 0x5277	; 0x805277 <RO_1000>
    3e1c:	40 90 78 52 	lds	r4, 0x5278	; 0x805278 <RO_1000+0x1>
    3e20:	50 90 79 52 	lds	r5, 0x5279	; 0x805279 <RO_1000+0x2>
    3e24:	60 90 7a 52 	lds	r6, 0x527A	; 0x80527a <RO_1000+0x3>
    3e28:	70 90 7b 52 	lds	r7, 0x527B	; 0x80527b <RO_1000+0x4>
    3e2c:	b0 91 7c 52 	lds	r27, 0x527C	; 0x80527c <RO_1000+0x5>
    3e30:	f0 91 7d 52 	lds	r31, 0x527D	; 0x80527d <RO_1000+0x6>
    3e34:	e0 91 7e 52 	lds	r30, 0x527E	; 0x80527e <RO_1000+0x7>
    3e38:	23 2d       	mov	r18, r3
    3e3a:	34 2d       	mov	r19, r4
    3e3c:	45 2d       	mov	r20, r5
    3e3e:	56 2d       	mov	r21, r6
    3e40:	67 2d       	mov	r22, r7
    3e42:	7b 2f       	mov	r23, r27
    3e44:	8f 2f       	mov	r24, r31
    3e46:	9e 2f       	mov	r25, r30
    3e48:	a0 e0       	ldi	r26, 0x00	; 0
    3e4a:	0e 94 18 3e 	call	0x7c30	; 0x7c30 <__cmpdi2_s8>
    3e4e:	09 f4       	brne	.+2      	; 0x3e52 <RO_Set+0x41c>
    3e50:	b8 c1       	rjmp	.+880    	; 0x41c2 <__DATA_REGION_LENGTH__+0x1c2>
    3e52:	af ef       	ldi	r26, 0xFF	; 255
    3e54:	0e 94 03 3e 	call	0x7c06	; 0x7c06 <__adddi3_s8>
    3e58:	20 93 77 52 	sts	0x5277, r18	; 0x805277 <RO_1000>
    3e5c:	30 93 78 52 	sts	0x5278, r19	; 0x805278 <RO_1000+0x1>
    3e60:	40 93 79 52 	sts	0x5279, r20	; 0x805279 <RO_1000+0x2>
    3e64:	50 93 7a 52 	sts	0x527A, r21	; 0x80527a <RO_1000+0x3>
    3e68:	60 93 7b 52 	sts	0x527B, r22	; 0x80527b <RO_1000+0x4>
    3e6c:	70 93 7c 52 	sts	0x527C, r23	; 0x80527c <RO_1000+0x5>
    3e70:	80 93 7d 52 	sts	0x527D, r24	; 0x80527d <RO_1000+0x6>
    3e74:	90 93 7e 52 	sts	0x527E, r25	; 0x80527e <RO_1000+0x7>
    3e78:	10 92 4d 51 	sts	0x514D, r1	; 0x80514d <KEY+0x2>
    3e7c:	a2 c1       	rjmp	.+836    	; 0x41c2 <__DATA_REGION_LENGTH__+0x1c2>
				}
			break;

			case 2:							// ыбЬыУЬьЕА RO 100ьЭШ ьЮРыжм
				DIGIT[1][2] = fnd_tbl[RO_1000];			// ыбЬыУЬьЕА RO 1000ьЭШ ьЮРыжм эСЬьЛЬ
    3e7e:	a7 e7       	ldi	r26, 0x77	; 119
    3e80:	b2 e5       	ldi	r27, 0x52	; 82
    3e82:	ed 91       	ld	r30, X+
    3e84:	fc 91       	ld	r31, X
    3e86:	ed 5b       	subi	r30, 0xBD	; 189
    3e88:	fe 4b       	sbci	r31, 0xBE	; 190
    3e8a:	80 81       	ld	r24, Z
    3e8c:	f7 01       	movw	r30, r14
    3e8e:	86 83       	std	Z+6, r24	; 0x06
				if(Blink) {DIGIT[1][1] = FND_OFF;}		// Blink = 1 ьЭ┤ый┤ ыбЬыУЬьЕА RO 100ьЭШ ьЮРыжм OFF
    3e90:	80 91 71 51 	lds	r24, 0x5171	; 0x805171 <Blink>
    3e94:	88 23       	and	r24, r24
    3e96:	11 f0       	breq	.+4      	; 0x3e9c <RO_Set+0x466>
    3e98:	15 82       	std	Z+5, r1	; 0x05
    3e9a:	09 c0       	rjmp	.+18     	; 0x3eae <RO_Set+0x478>
				else	  {DIGIT[1][1] = fnd_tbl[RO_100];}	// Blink = 0 ьЭ┤ый┤ ыбЬыУЬьЕА RO 100ьЭШ ьЮРыжм эСЬьЛЬ
    3e9c:	a9 e6       	ldi	r26, 0x69	; 105
    3e9e:	b1 e5       	ldi	r27, 0x51	; 81
    3ea0:	ed 91       	ld	r30, X+
    3ea2:	fc 91       	ld	r31, X
    3ea4:	ed 5b       	subi	r30, 0xBD	; 189
    3ea6:	fe 4b       	sbci	r31, 0xBE	; 190
    3ea8:	80 81       	ld	r24, Z
    3eaa:	f7 01       	movw	r30, r14
    3eac:	85 83       	std	Z+5, r24	; 0x05

				if(KEY.Buff)					// Key ьЮЕыаеьЭ┤ ьЮИьЬ╝ый┤
    3eae:	80 91 4c 51 	lds	r24, 0x514C	; 0x80514c <KEY+0x1>
    3eb2:	88 23       	and	r24, r24
    3eb4:	09 f4       	brne	.+2      	; 0x3eb8 <RO_Set+0x482>
    3eb6:	85 c1       	rjmp	.+778    	; 0x41c2 <__DATA_REGION_LENGTH__+0x1c2>
				{
					if     (KEY.Key == 1 && RO_100 < 9) {RO_100++; KEY.Key = 0;}		// ьЧЕ  ы▓ДэК╝ ьЭ┤ый┤ ROъ░Т 100ьЭШ ьЮРыжм ьжЭъ░А
    3eb8:	80 91 4d 51 	lds	r24, 0x514D	; 0x80514d <KEY+0x2>
    3ebc:	81 30       	cpi	r24, 0x01	; 1
    3ebe:	99 f5       	brne	.+102    	; 0x3f26 <RO_Set+0x4f0>
    3ec0:	30 90 69 51 	lds	r3, 0x5169	; 0x805169 <RO_100>
    3ec4:	40 90 6a 51 	lds	r4, 0x516A	; 0x80516a <RO_100+0x1>
    3ec8:	50 90 6b 51 	lds	r5, 0x516B	; 0x80516b <RO_100+0x2>
    3ecc:	60 90 6c 51 	lds	r6, 0x516C	; 0x80516c <RO_100+0x3>
    3ed0:	70 90 6d 51 	lds	r7, 0x516D	; 0x80516d <RO_100+0x4>
    3ed4:	b0 91 6e 51 	lds	r27, 0x516E	; 0x80516e <RO_100+0x5>
    3ed8:	f0 91 6f 51 	lds	r31, 0x516F	; 0x80516f <RO_100+0x6>
    3edc:	e0 91 70 51 	lds	r30, 0x5170	; 0x805170 <RO_100+0x7>
    3ee0:	23 2d       	mov	r18, r3
    3ee2:	34 2d       	mov	r19, r4
    3ee4:	45 2d       	mov	r20, r5
    3ee6:	56 2d       	mov	r21, r6
    3ee8:	67 2d       	mov	r22, r7
    3eea:	7b 2f       	mov	r23, r27
    3eec:	8f 2f       	mov	r24, r31
    3eee:	9e 2f       	mov	r25, r30
    3ef0:	a8 e0       	ldi	r26, 0x08	; 8
    3ef2:	0e 94 18 3e 	call	0x7c30	; 0x7c30 <__cmpdi2_s8>
    3ef6:	09 f0       	breq	.+2      	; 0x3efa <RO_Set+0x4c4>
    3ef8:	b0 f4       	brcc	.+44     	; 0x3f26 <RO_Set+0x4f0>
    3efa:	ac 2d       	mov	r26, r12
    3efc:	0e 94 03 3e 	call	0x7c06	; 0x7c06 <__adddi3_s8>
    3f00:	20 93 69 51 	sts	0x5169, r18	; 0x805169 <RO_100>
    3f04:	30 93 6a 51 	sts	0x516A, r19	; 0x80516a <RO_100+0x1>
    3f08:	40 93 6b 51 	sts	0x516B, r20	; 0x80516b <RO_100+0x2>
    3f0c:	50 93 6c 51 	sts	0x516C, r21	; 0x80516c <RO_100+0x3>
    3f10:	60 93 6d 51 	sts	0x516D, r22	; 0x80516d <RO_100+0x4>
    3f14:	70 93 6e 51 	sts	0x516E, r23	; 0x80516e <RO_100+0x5>
    3f18:	80 93 6f 51 	sts	0x516F, r24	; 0x80516f <RO_100+0x6>
    3f1c:	90 93 70 51 	sts	0x5170, r25	; 0x805170 <RO_100+0x7>
    3f20:	10 92 4d 51 	sts	0x514D, r1	; 0x80514d <KEY+0x2>
    3f24:	4e c1       	rjmp	.+668    	; 0x41c2 <__DATA_REGION_LENGTH__+0x1c2>
					else if(KEY.Key == 3 && RO_100 > 0) {RO_100--; KEY.Key = 0;}		// ыЛдьЪ┤ы▓ДэК╝ ьЭ┤ый┤ ROъ░Т 100ьЭШ ьЮРыжм ъ░РьЖМ
    3f26:	80 91 4d 51 	lds	r24, 0x514D	; 0x80514d <KEY+0x2>
    3f2a:	83 30       	cpi	r24, 0x03	; 3
    3f2c:	09 f0       	breq	.+2      	; 0x3f30 <RO_Set+0x4fa>
    3f2e:	49 c1       	rjmp	.+658    	; 0x41c2 <__DATA_REGION_LENGTH__+0x1c2>
    3f30:	30 90 69 51 	lds	r3, 0x5169	; 0x805169 <RO_100>
    3f34:	40 90 6a 51 	lds	r4, 0x516A	; 0x80516a <RO_100+0x1>
    3f38:	50 90 6b 51 	lds	r5, 0x516B	; 0x80516b <RO_100+0x2>
    3f3c:	60 90 6c 51 	lds	r6, 0x516C	; 0x80516c <RO_100+0x3>
    3f40:	70 90 6d 51 	lds	r7, 0x516D	; 0x80516d <RO_100+0x4>
    3f44:	b0 91 6e 51 	lds	r27, 0x516E	; 0x80516e <RO_100+0x5>
    3f48:	f0 91 6f 51 	lds	r31, 0x516F	; 0x80516f <RO_100+0x6>
    3f4c:	e0 91 70 51 	lds	r30, 0x5170	; 0x805170 <RO_100+0x7>
    3f50:	23 2d       	mov	r18, r3
    3f52:	34 2d       	mov	r19, r4
    3f54:	45 2d       	mov	r20, r5
    3f56:	56 2d       	mov	r21, r6
    3f58:	67 2d       	mov	r22, r7
    3f5a:	7b 2f       	mov	r23, r27
    3f5c:	8f 2f       	mov	r24, r31
    3f5e:	9e 2f       	mov	r25, r30
    3f60:	a0 e0       	ldi	r26, 0x00	; 0
    3f62:	0e 94 18 3e 	call	0x7c30	; 0x7c30 <__cmpdi2_s8>
    3f66:	09 f4       	brne	.+2      	; 0x3f6a <RO_Set+0x534>
    3f68:	2c c1       	rjmp	.+600    	; 0x41c2 <__DATA_REGION_LENGTH__+0x1c2>
    3f6a:	af ef       	ldi	r26, 0xFF	; 255
    3f6c:	0e 94 03 3e 	call	0x7c06	; 0x7c06 <__adddi3_s8>
    3f70:	20 93 69 51 	sts	0x5169, r18	; 0x805169 <RO_100>
    3f74:	30 93 6a 51 	sts	0x516A, r19	; 0x80516a <RO_100+0x1>
    3f78:	40 93 6b 51 	sts	0x516B, r20	; 0x80516b <RO_100+0x2>
    3f7c:	50 93 6c 51 	sts	0x516C, r21	; 0x80516c <RO_100+0x3>
    3f80:	60 93 6d 51 	sts	0x516D, r22	; 0x80516d <RO_100+0x4>
    3f84:	70 93 6e 51 	sts	0x516E, r23	; 0x80516e <RO_100+0x5>
    3f88:	80 93 6f 51 	sts	0x516F, r24	; 0x80516f <RO_100+0x6>
    3f8c:	90 93 70 51 	sts	0x5170, r25	; 0x805170 <RO_100+0x7>
    3f90:	10 92 4d 51 	sts	0x514D, r1	; 0x80514d <KEY+0x2>
    3f94:	16 c1       	rjmp	.+556    	; 0x41c2 <__DATA_REGION_LENGTH__+0x1c2>
				}
			break;

			case 3:							// ыбЬыУЬьЕА RO 10ьЭШ ьЮРыжм
				DIGIT[1][1] = fnd_tbl[RO_100];			// ыбЬыУЬьЕА RO 100ьЭШ ьЮРыжм эСЬьЛЬ
    3f96:	a9 e6       	ldi	r26, 0x69	; 105
    3f98:	b1 e5       	ldi	r27, 0x51	; 81
    3f9a:	ed 91       	ld	r30, X+
    3f9c:	fc 91       	ld	r31, X
    3f9e:	ed 5b       	subi	r30, 0xBD	; 189
    3fa0:	fe 4b       	sbci	r31, 0xBE	; 190
    3fa2:	80 81       	ld	r24, Z
    3fa4:	f7 01       	movw	r30, r14
    3fa6:	85 83       	std	Z+5, r24	; 0x05
				if(Blink) {DIGIT[1][0] = FND_OFF;}		// Blink = 1 ьЭ┤ый┤ ыбЬыУЬьЕА RO 10ьЭШ ьЮРыжм OFF
    3fa8:	80 91 71 51 	lds	r24, 0x5171	; 0x805171 <Blink>
    3fac:	88 23       	and	r24, r24
    3fae:	11 f0       	breq	.+4      	; 0x3fb4 <RO_Set+0x57e>
    3fb0:	14 82       	std	Z+4, r1	; 0x04
    3fb2:	08 c0       	rjmp	.+16     	; 0x3fc4 <RO_Set+0x58e>
				else	  {DIGIT[1][0] = fnd_tbl[RO_10];}	// Blink = 0 ьЭ┤ый┤ ыбЬыУЬьЕА RO 10ьЭШ ьЮРыжм эСЬьЛЬ
    3fb4:	d4 01       	movw	r26, r8
    3fb6:	ed 91       	ld	r30, X+
    3fb8:	fc 91       	ld	r31, X
    3fba:	ed 5b       	subi	r30, 0xBD	; 189
    3fbc:	fe 4b       	sbci	r31, 0xBE	; 190
    3fbe:	80 81       	ld	r24, Z
    3fc0:	f7 01       	movw	r30, r14
    3fc2:	84 83       	std	Z+4, r24	; 0x04

				if(KEY.Buff)					// Key ьЮЕыаеьЭ┤ ьЮИьЬ╝ый┤
    3fc4:	80 91 4c 51 	lds	r24, 0x514C	; 0x80514c <KEY+0x1>
    3fc8:	88 23       	and	r24, r24
    3fca:	09 f4       	brne	.+2      	; 0x3fce <RO_Set+0x598>
    3fcc:	fa c0       	rjmp	.+500    	; 0x41c2 <__DATA_REGION_LENGTH__+0x1c2>
				{
					if     (KEY.Key == 1 && RO_10 < 9) {RO_10++; KEY.Key = 0;}		// ьЧЕ  ы▓ДэК╝ ьЭ┤ый┤ ROъ░Т 10ьЭШ ьЮРыжм ьжЭъ░А
    3fce:	80 91 4d 51 	lds	r24, 0x514D	; 0x80514d <KEY+0x2>
    3fd2:	81 30       	cpi	r24, 0x01	; 1
    3fd4:	99 f5       	brne	.+102    	; 0x403c <__DATA_REGION_LENGTH__+0x3c>
    3fd6:	30 90 3f 51 	lds	r3, 0x513F	; 0x80513f <RO_10>
    3fda:	40 90 40 51 	lds	r4, 0x5140	; 0x805140 <RO_10+0x1>
    3fde:	50 90 41 51 	lds	r5, 0x5141	; 0x805141 <RO_10+0x2>
    3fe2:	60 90 42 51 	lds	r6, 0x5142	; 0x805142 <RO_10+0x3>
    3fe6:	70 90 43 51 	lds	r7, 0x5143	; 0x805143 <RO_10+0x4>
    3fea:	b0 91 44 51 	lds	r27, 0x5144	; 0x805144 <RO_10+0x5>
    3fee:	f0 91 45 51 	lds	r31, 0x5145	; 0x805145 <RO_10+0x6>
    3ff2:	e0 91 46 51 	lds	r30, 0x5146	; 0x805146 <RO_10+0x7>
    3ff6:	23 2d       	mov	r18, r3
    3ff8:	34 2d       	mov	r19, r4
    3ffa:	45 2d       	mov	r20, r5
    3ffc:	56 2d       	mov	r21, r6
    3ffe:	67 2d       	mov	r22, r7
    4000:	7b 2f       	mov	r23, r27
    4002:	8f 2f       	mov	r24, r31
    4004:	9e 2f       	mov	r25, r30
    4006:	a8 e0       	ldi	r26, 0x08	; 8
    4008:	0e 94 18 3e 	call	0x7c30	; 0x7c30 <__cmpdi2_s8>
    400c:	09 f0       	breq	.+2      	; 0x4010 <__DATA_REGION_LENGTH__+0x10>
    400e:	b0 f4       	brcc	.+44     	; 0x403c <__DATA_REGION_LENGTH__+0x3c>
    4010:	ac 2d       	mov	r26, r12
    4012:	0e 94 03 3e 	call	0x7c06	; 0x7c06 <__adddi3_s8>
    4016:	20 93 3f 51 	sts	0x513F, r18	; 0x80513f <RO_10>
    401a:	30 93 40 51 	sts	0x5140, r19	; 0x805140 <RO_10+0x1>
    401e:	40 93 41 51 	sts	0x5141, r20	; 0x805141 <RO_10+0x2>
    4022:	50 93 42 51 	sts	0x5142, r21	; 0x805142 <RO_10+0x3>
    4026:	60 93 43 51 	sts	0x5143, r22	; 0x805143 <RO_10+0x4>
    402a:	70 93 44 51 	sts	0x5144, r23	; 0x805144 <RO_10+0x5>
    402e:	80 93 45 51 	sts	0x5145, r24	; 0x805145 <RO_10+0x6>
    4032:	90 93 46 51 	sts	0x5146, r25	; 0x805146 <RO_10+0x7>
    4036:	10 92 4d 51 	sts	0x514D, r1	; 0x80514d <KEY+0x2>
    403a:	c3 c0       	rjmp	.+390    	; 0x41c2 <__DATA_REGION_LENGTH__+0x1c2>
					else if(KEY.Key == 3 && RO_10 > 0) {RO_10--; KEY.Key = 0;}		// ыЛдьЪ┤ы▓ДэК╝ ьЭ┤ый┤ ROъ░Т 10ьЭШ ьЮРыжм ъ░РьЖМ
    403c:	80 91 4d 51 	lds	r24, 0x514D	; 0x80514d <KEY+0x2>
    4040:	83 30       	cpi	r24, 0x03	; 3
    4042:	09 f0       	breq	.+2      	; 0x4046 <__DATA_REGION_LENGTH__+0x46>
    4044:	be c0       	rjmp	.+380    	; 0x41c2 <__DATA_REGION_LENGTH__+0x1c2>
    4046:	30 90 3f 51 	lds	r3, 0x513F	; 0x80513f <RO_10>
    404a:	40 90 40 51 	lds	r4, 0x5140	; 0x805140 <RO_10+0x1>
    404e:	50 90 41 51 	lds	r5, 0x5141	; 0x805141 <RO_10+0x2>
    4052:	60 90 42 51 	lds	r6, 0x5142	; 0x805142 <RO_10+0x3>
    4056:	70 90 43 51 	lds	r7, 0x5143	; 0x805143 <RO_10+0x4>
    405a:	b0 91 44 51 	lds	r27, 0x5144	; 0x805144 <RO_10+0x5>
    405e:	f0 91 45 51 	lds	r31, 0x5145	; 0x805145 <RO_10+0x6>
    4062:	e0 91 46 51 	lds	r30, 0x5146	; 0x805146 <RO_10+0x7>
    4066:	23 2d       	mov	r18, r3
    4068:	34 2d       	mov	r19, r4
    406a:	45 2d       	mov	r20, r5
    406c:	56 2d       	mov	r21, r6
    406e:	67 2d       	mov	r22, r7
    4070:	7b 2f       	mov	r23, r27
    4072:	8f 2f       	mov	r24, r31
    4074:	9e 2f       	mov	r25, r30
    4076:	a0 e0       	ldi	r26, 0x00	; 0
    4078:	0e 94 18 3e 	call	0x7c30	; 0x7c30 <__cmpdi2_s8>
    407c:	09 f4       	brne	.+2      	; 0x4080 <__DATA_REGION_LENGTH__+0x80>
    407e:	a1 c0       	rjmp	.+322    	; 0x41c2 <__DATA_REGION_LENGTH__+0x1c2>
    4080:	af ef       	ldi	r26, 0xFF	; 255
    4082:	0e 94 03 3e 	call	0x7c06	; 0x7c06 <__adddi3_s8>
    4086:	20 93 3f 51 	sts	0x513F, r18	; 0x80513f <RO_10>
    408a:	30 93 40 51 	sts	0x5140, r19	; 0x805140 <RO_10+0x1>
    408e:	40 93 41 51 	sts	0x5141, r20	; 0x805141 <RO_10+0x2>
    4092:	50 93 42 51 	sts	0x5142, r21	; 0x805142 <RO_10+0x3>
    4096:	60 93 43 51 	sts	0x5143, r22	; 0x805143 <RO_10+0x4>
    409a:	70 93 44 51 	sts	0x5144, r23	; 0x805144 <RO_10+0x5>
    409e:	80 93 45 51 	sts	0x5145, r24	; 0x805145 <RO_10+0x6>
    40a2:	90 93 46 51 	sts	0x5146, r25	; 0x805146 <RO_10+0x7>
    40a6:	10 92 4d 51 	sts	0x514D, r1	; 0x80514d <KEY+0x2>
    40aa:	8b c0       	rjmp	.+278    	; 0x41c2 <__DATA_REGION_LENGTH__+0x1c2>
				}
			break;

			case 4:							// ыбЬыУЬьЕА RO 1ьЭШ ьЮРыжм
				DIGIT[1][0] = fnd_tbl[RO_10];			// ыбЬыУЬьЕА RO 10ьЭШ ьЮРыжм эСЬьЛЬ
    40ac:	d4 01       	movw	r26, r8
    40ae:	ed 91       	ld	r30, X+
    40b0:	fc 91       	ld	r31, X
    40b2:	ed 5b       	subi	r30, 0xBD	; 189
    40b4:	fe 4b       	sbci	r31, 0xBE	; 190
    40b6:	80 81       	ld	r24, Z
    40b8:	f7 01       	movw	r30, r14
    40ba:	84 83       	std	Z+4, r24	; 0x04
				if(Blink) {DIGIT[2][3] = FND_OFF;}		// Blink = 1 ьЭ┤ый┤ ыбЬыУЬьЕА RO 1ьЭШ ьЮРыжм OFF
    40bc:	80 91 71 51 	lds	r24, 0x5171	; 0x805171 <Blink>
    40c0:	88 23       	and	r24, r24
    40c2:	11 f0       	breq	.+4      	; 0x40c8 <__DATA_REGION_LENGTH__+0xc8>
    40c4:	13 86       	std	Z+11, r1	; 0x0b
    40c6:	08 c0       	rjmp	.+16     	; 0x40d8 <__DATA_REGION_LENGTH__+0xd8>
				else	  {DIGIT[2][3] = fnd_tbl[RO_1];}	// Blink = 0 ьЭ┤ый┤ ыбЬыУЬьЕА RO 1ьЭШ ьЮРыжм эСЬьЛЬ
    40c8:	d5 01       	movw	r26, r10
    40ca:	ed 91       	ld	r30, X+
    40cc:	fc 91       	ld	r31, X
    40ce:	ed 5b       	subi	r30, 0xBD	; 189
    40d0:	fe 4b       	sbci	r31, 0xBE	; 190
    40d2:	80 81       	ld	r24, Z
    40d4:	f7 01       	movw	r30, r14
    40d6:	83 87       	std	Z+11, r24	; 0x0b

				if(KEY.Buff)					// Key ьЮЕыаеьЭ┤ ьЮИьЬ╝ый┤
    40d8:	80 91 4c 51 	lds	r24, 0x514C	; 0x80514c <KEY+0x1>
    40dc:	88 23       	and	r24, r24
    40de:	09 f4       	brne	.+2      	; 0x40e2 <__DATA_REGION_LENGTH__+0xe2>
    40e0:	70 c0       	rjmp	.+224    	; 0x41c2 <__DATA_REGION_LENGTH__+0x1c2>
				{
					if     (KEY.Key == 1 && RO_1 < 9) {RO_1++; KEY.Key = 0;}		// ьЧЕ  ы▓ДэК╝ ьЭ┤ый┤ ROъ░Т 1ьЭШ ьЮРыжм ьжЭъ░А
    40e2:	80 91 4d 51 	lds	r24, 0x514D	; 0x80514d <KEY+0x2>
    40e6:	81 30       	cpi	r24, 0x01	; 1
    40e8:	99 f5       	brne	.+102    	; 0x4150 <__DATA_REGION_LENGTH__+0x150>
    40ea:	30 90 75 51 	lds	r3, 0x5175	; 0x805175 <RO_1>
    40ee:	40 90 76 51 	lds	r4, 0x5176	; 0x805176 <RO_1+0x1>
    40f2:	50 90 77 51 	lds	r5, 0x5177	; 0x805177 <RO_1+0x2>
    40f6:	60 90 78 51 	lds	r6, 0x5178	; 0x805178 <RO_1+0x3>
    40fa:	70 90 79 51 	lds	r7, 0x5179	; 0x805179 <RO_1+0x4>
    40fe:	b0 91 7a 51 	lds	r27, 0x517A	; 0x80517a <RO_1+0x5>
    4102:	f0 91 7b 51 	lds	r31, 0x517B	; 0x80517b <RO_1+0x6>
    4106:	e0 91 7c 51 	lds	r30, 0x517C	; 0x80517c <RO_1+0x7>
    410a:	23 2d       	mov	r18, r3
    410c:	34 2d       	mov	r19, r4
    410e:	45 2d       	mov	r20, r5
    4110:	56 2d       	mov	r21, r6
    4112:	67 2d       	mov	r22, r7
    4114:	7b 2f       	mov	r23, r27
    4116:	8f 2f       	mov	r24, r31
    4118:	9e 2f       	mov	r25, r30
    411a:	a8 e0       	ldi	r26, 0x08	; 8
    411c:	0e 94 18 3e 	call	0x7c30	; 0x7c30 <__cmpdi2_s8>
    4120:	09 f0       	breq	.+2      	; 0x4124 <__DATA_REGION_LENGTH__+0x124>
    4122:	b0 f4       	brcc	.+44     	; 0x4150 <__DATA_REGION_LENGTH__+0x150>
    4124:	ac 2d       	mov	r26, r12
    4126:	0e 94 03 3e 	call	0x7c06	; 0x7c06 <__adddi3_s8>
    412a:	20 93 75 51 	sts	0x5175, r18	; 0x805175 <RO_1>
    412e:	30 93 76 51 	sts	0x5176, r19	; 0x805176 <RO_1+0x1>
    4132:	40 93 77 51 	sts	0x5177, r20	; 0x805177 <RO_1+0x2>
    4136:	50 93 78 51 	sts	0x5178, r21	; 0x805178 <RO_1+0x3>
    413a:	60 93 79 51 	sts	0x5179, r22	; 0x805179 <RO_1+0x4>
    413e:	70 93 7a 51 	sts	0x517A, r23	; 0x80517a <RO_1+0x5>
    4142:	80 93 7b 51 	sts	0x517B, r24	; 0x80517b <RO_1+0x6>
    4146:	90 93 7c 51 	sts	0x517C, r25	; 0x80517c <RO_1+0x7>
    414a:	10 92 4d 51 	sts	0x514D, r1	; 0x80514d <KEY+0x2>
    414e:	39 c0       	rjmp	.+114    	; 0x41c2 <__DATA_REGION_LENGTH__+0x1c2>
					else if(KEY.Key == 3 && RO_1 > 0) {RO_1--; KEY.Key = 0;}		// ыЛдьЪ┤ы▓ДэК╝ ьЭ┤ый┤ ROъ░Т 1ьЭШ ьЮРыжм ъ░РьЖМ
    4150:	80 91 4d 51 	lds	r24, 0x514D	; 0x80514d <KEY+0x2>
    4154:	83 30       	cpi	r24, 0x03	; 3
    4156:	a9 f5       	brne	.+106    	; 0x41c2 <__DATA_REGION_LENGTH__+0x1c2>
    4158:	30 90 75 51 	lds	r3, 0x5175	; 0x805175 <RO_1>
    415c:	40 90 76 51 	lds	r4, 0x5176	; 0x805176 <RO_1+0x1>
    4160:	50 90 77 51 	lds	r5, 0x5177	; 0x805177 <RO_1+0x2>
    4164:	60 90 78 51 	lds	r6, 0x5178	; 0x805178 <RO_1+0x3>
    4168:	70 90 79 51 	lds	r7, 0x5179	; 0x805179 <RO_1+0x4>
    416c:	b0 91 7a 51 	lds	r27, 0x517A	; 0x80517a <RO_1+0x5>
    4170:	f0 91 7b 51 	lds	r31, 0x517B	; 0x80517b <RO_1+0x6>
    4174:	e0 91 7c 51 	lds	r30, 0x517C	; 0x80517c <RO_1+0x7>
    4178:	23 2d       	mov	r18, r3
    417a:	34 2d       	mov	r19, r4
    417c:	45 2d       	mov	r20, r5
    417e:	56 2d       	mov	r21, r6
    4180:	67 2d       	mov	r22, r7
    4182:	7b 2f       	mov	r23, r27
    4184:	8f 2f       	mov	r24, r31
    4186:	9e 2f       	mov	r25, r30
    4188:	a0 e0       	ldi	r26, 0x00	; 0
    418a:	0e 94 18 3e 	call	0x7c30	; 0x7c30 <__cmpdi2_s8>
    418e:	c9 f0       	breq	.+50     	; 0x41c2 <__DATA_REGION_LENGTH__+0x1c2>
    4190:	af ef       	ldi	r26, 0xFF	; 255
    4192:	0e 94 03 3e 	call	0x7c06	; 0x7c06 <__adddi3_s8>
    4196:	20 93 75 51 	sts	0x5175, r18	; 0x805175 <RO_1>
    419a:	30 93 76 51 	sts	0x5176, r19	; 0x805176 <RO_1+0x1>
    419e:	40 93 77 51 	sts	0x5177, r20	; 0x805177 <RO_1+0x2>
    41a2:	50 93 78 51 	sts	0x5178, r21	; 0x805178 <RO_1+0x3>
    41a6:	60 93 79 51 	sts	0x5179, r22	; 0x805179 <RO_1+0x4>
    41aa:	70 93 7a 51 	sts	0x517A, r23	; 0x80517a <RO_1+0x5>
    41ae:	80 93 7b 51 	sts	0x517B, r24	; 0x80517b <RO_1+0x6>
    41b2:	90 93 7c 51 	sts	0x517C, r25	; 0x80517c <RO_1+0x7>
    41b6:	10 92 4d 51 	sts	0x514D, r1	; 0x80514d <KEY+0x2>
    41ba:	03 c0       	rjmp	.+6      	; 0x41c2 <__DATA_REGION_LENGTH__+0x1c2>
				}
			break;

			case 5:
				KEY.Count = 0;					// ы░Шы│╡ьЭД ьЬДэХ┤ KEY.Count ые╝ ь┤Иъ╕░эЩФ ьЛЬэВ┤
    41bc:	ab e4       	ldi	r26, 0x4B	; 75
    41be:	b1 e5       	ldi	r27, 0x51	; 81
    41c0:	1c 92       	st	X, r1
			break;
		}
		wdt_reset();							// ьЫМь╣ШыПЕ ыжмьЕЛ
    41c2:	0e 94 18 14 	call	0x2830	; 0x2830 <wdt_reset>
	RO_1000  = RO % 10000 / 1000;						// ыбЬыУЬьЕА RO  1000ьЭШ ьЮРыжм
	RO_100   = RO % 1000 / 100;						// ыбЬыУЬьЕА RO   100ьЭШ ьЮРыжм
	RO_10    = RO % 100 / 10;						// ыбЬыУЬьЕА RO    10ьЭШ ьЮРыжм
	RO_1     = RO % 10;							// ыбЬыУЬьЕА RO     1ьЭШ ьЮРыжм
//-------------------------------------------------------------------------------------------------
	while(SET.Menu)								// ыйФыЙ┤ъ░А 1 ьЭ┤ый┤ ы░Шы│╡
    41c6:	f8 01       	movw	r30, r16
    41c8:	80 81       	ld	r24, Z
    41ca:	81 11       	cpse	r24, r1
    41cc:	25 cd       	rjmp	.-1462   	; 0x3c18 <RO_Set+0x1e2>
	RO = 0;
	RO += (RO_10000 * 10000);						// ыбЬыУЬьЕА RO 10000ьЭШ ьЮРыжм
	RO += (RO_1000  * 1000);						// ыбЬыУЬьЕА RO  1000ьЭШ ьЮРыжм
	RO += (RO_100   * 100);							// ыбЬыУЬьЕА RO   100ьЭШ ьЮРыжм
	RO += (RO_10    * 10);							// ыбЬыУЬьЕА RO    10ьЭШ ьЮРыжм
	RO += (RO_1     * 1);							// ыбЬыУЬьЕА RO     1ьЭШ ьЮРыжм
    41ce:	68 94       	set
    41d0:	aa 24       	eor	r10, r10
    41d2:	a4 f8       	bld	r10, 4
    41d4:	0f 2e       	mov	r0, r31
    41d6:	f7 e2       	ldi	r31, 0x27	; 39
    41d8:	bf 2e       	mov	r11, r31
    41da:	f0 2d       	mov	r31, r0
    41dc:	c1 2c       	mov	r12, r1
    41de:	d1 2c       	mov	r13, r1
    41e0:	e1 2c       	mov	r14, r1
    41e2:	f1 2c       	mov	r15, r1
    41e4:	00 e0       	ldi	r16, 0x00	; 0
    41e6:	10 e0       	ldi	r17, 0x00	; 0
    41e8:	20 91 54 51 	lds	r18, 0x5154	; 0x805154 <RO_10000>
    41ec:	30 91 55 51 	lds	r19, 0x5155	; 0x805155 <RO_10000+0x1>
    41f0:	40 91 56 51 	lds	r20, 0x5156	; 0x805156 <RO_10000+0x2>
    41f4:	50 91 57 51 	lds	r21, 0x5157	; 0x805157 <RO_10000+0x3>
    41f8:	60 91 58 51 	lds	r22, 0x5158	; 0x805158 <RO_10000+0x4>
    41fc:	70 91 59 51 	lds	r23, 0x5159	; 0x805159 <RO_10000+0x5>
    4200:	80 91 5a 51 	lds	r24, 0x515A	; 0x80515a <RO_10000+0x6>
    4204:	90 91 5b 51 	lds	r25, 0x515B	; 0x80515b <RO_10000+0x7>
    4208:	0e 94 29 3d 	call	0x7a52	; 0x7a52 <__muldi3>
    420c:	62 2e       	mov	r6, r18
    420e:	73 2e       	mov	r7, r19
    4210:	84 2e       	mov	r8, r20
    4212:	95 2e       	mov	r9, r21
    4214:	6d 83       	std	Y+5, r22	; 0x05
    4216:	79 83       	std	Y+1, r23	; 0x01
    4218:	8a 83       	std	Y+2, r24	; 0x02
    421a:	9b 83       	std	Y+3, r25	; 0x03
    421c:	e0 91 77 52 	lds	r30, 0x5277	; 0x805277 <RO_1000>
    4220:	50 90 78 52 	lds	r5, 0x5278	; 0x805278 <RO_1000+0x1>
    4224:	40 90 79 52 	lds	r4, 0x5279	; 0x805279 <RO_1000+0x2>
    4228:	30 90 7a 52 	lds	r3, 0x527A	; 0x80527a <RO_1000+0x3>
    422c:	20 90 7b 52 	lds	r2, 0x527B	; 0x80527b <RO_1000+0x4>
    4230:	f0 91 7c 52 	lds	r31, 0x527C	; 0x80527c <RO_1000+0x5>
    4234:	fc 83       	std	Y+4, r31	; 0x04
    4236:	b0 91 7d 52 	lds	r27, 0x527D	; 0x80527d <RO_1000+0x6>
    423a:	a0 91 7e 52 	lds	r26, 0x527E	; 0x80527e <RO_1000+0x7>
    423e:	2e 2f       	mov	r18, r30
    4240:	35 2d       	mov	r19, r5
    4242:	44 2d       	mov	r20, r4
    4244:	53 2d       	mov	r21, r3
    4246:	62 2d       	mov	r22, r2
    4248:	7f 2f       	mov	r23, r31
    424a:	8b 2f       	mov	r24, r27
    424c:	9a 2f       	mov	r25, r26
    424e:	02 e0       	ldi	r16, 0x02	; 2
    4250:	0e 94 e1 3d 	call	0x7bc2	; 0x7bc2 <__ashldi3>
    4254:	a2 2e       	mov	r10, r18
    4256:	b3 2e       	mov	r11, r19
    4258:	c4 2e       	mov	r12, r20
    425a:	d5 2e       	mov	r13, r21
    425c:	e6 2e       	mov	r14, r22
    425e:	f7 2e       	mov	r15, r23
    4260:	f8 2f       	mov	r31, r24
    4262:	19 2f       	mov	r17, r25
    4264:	05 e0       	ldi	r16, 0x05	; 5
    4266:	0e 94 e1 3d 	call	0x7bc2	; 0x7bc2 <__ashldi3>
    426a:	0f 2f       	mov	r16, r31
    426c:	0e 94 0f 3e 	call	0x7c1e	; 0x7c1e <__subdi3>
    4270:	ae 2e       	mov	r10, r30
    4272:	b5 2c       	mov	r11, r5
    4274:	c4 2c       	mov	r12, r4
    4276:	d3 2c       	mov	r13, r3
    4278:	e2 2c       	mov	r14, r2
    427a:	fc 80       	ldd	r15, Y+4	; 0x04
    427c:	0b 2f       	mov	r16, r27
    427e:	1a 2f       	mov	r17, r26
    4280:	0e 94 fa 3d 	call	0x7bf4	; 0x7bf4 <__adddi3>
    4284:	03 e0       	ldi	r16, 0x03	; 3
    4286:	0e 94 e1 3d 	call	0x7bc2	; 0x7bc2 <__ashldi3>
    428a:	a2 2e       	mov	r10, r18
    428c:	b3 2e       	mov	r11, r19
    428e:	c4 2e       	mov	r12, r20
    4290:	d5 2e       	mov	r13, r21
    4292:	e6 2e       	mov	r14, r22
    4294:	f7 2e       	mov	r15, r23
    4296:	08 2f       	mov	r16, r24
    4298:	19 2f       	mov	r17, r25
    429a:	26 2d       	mov	r18, r6
    429c:	37 2d       	mov	r19, r7
    429e:	48 2d       	mov	r20, r8
    42a0:	59 2d       	mov	r21, r9
    42a2:	6d 81       	ldd	r22, Y+5	; 0x05
    42a4:	79 81       	ldd	r23, Y+1	; 0x01
    42a6:	8a 81       	ldd	r24, Y+2	; 0x02
    42a8:	9b 81       	ldd	r25, Y+3	; 0x03
    42aa:	0e 94 fa 3d 	call	0x7bf4	; 0x7bf4 <__adddi3>
    42ae:	a0 90 75 51 	lds	r10, 0x5175	; 0x805175 <RO_1>
    42b2:	b0 90 76 51 	lds	r11, 0x5176	; 0x805176 <RO_1+0x1>
    42b6:	c0 90 77 51 	lds	r12, 0x5177	; 0x805177 <RO_1+0x2>
    42ba:	d0 90 78 51 	lds	r13, 0x5178	; 0x805178 <RO_1+0x3>
    42be:	e0 90 79 51 	lds	r14, 0x5179	; 0x805179 <RO_1+0x4>
    42c2:	f0 90 7a 51 	lds	r15, 0x517A	; 0x80517a <RO_1+0x5>
    42c6:	00 91 7b 51 	lds	r16, 0x517B	; 0x80517b <RO_1+0x6>
    42ca:	10 91 7c 51 	lds	r17, 0x517C	; 0x80517c <RO_1+0x7>
    42ce:	0e 94 fa 3d 	call	0x7bf4	; 0x7bf4 <__adddi3>
    42d2:	22 2e       	mov	r2, r18
    42d4:	33 2e       	mov	r3, r19
    42d6:	44 2e       	mov	r4, r20
    42d8:	55 2e       	mov	r5, r21
    42da:	66 2e       	mov	r6, r22
    42dc:	77 2e       	mov	r7, r23
    42de:	89 83       	std	Y+1, r24	; 0x01
    42e0:	9a 83       	std	Y+2, r25	; 0x02
    42e2:	20 91 69 51 	lds	r18, 0x5169	; 0x805169 <RO_100>
    42e6:	30 91 6a 51 	lds	r19, 0x516A	; 0x80516a <RO_100+0x1>
    42ea:	40 91 6b 51 	lds	r20, 0x516B	; 0x80516b <RO_100+0x2>
    42ee:	50 91 6c 51 	lds	r21, 0x516C	; 0x80516c <RO_100+0x3>
    42f2:	60 91 6d 51 	lds	r22, 0x516D	; 0x80516d <RO_100+0x4>
    42f6:	70 91 6e 51 	lds	r23, 0x516E	; 0x80516e <RO_100+0x5>
    42fa:	80 91 6f 51 	lds	r24, 0x516F	; 0x80516f <RO_100+0x6>
    42fe:	90 91 70 51 	lds	r25, 0x5170	; 0x805170 <RO_100+0x7>
    4302:	02 e0       	ldi	r16, 0x02	; 2
    4304:	0e 94 e1 3d 	call	0x7bc2	; 0x7bc2 <__ashldi3>
    4308:	82 2e       	mov	r8, r18
    430a:	93 2e       	mov	r9, r19
    430c:	4c 83       	std	Y+4, r20	; 0x04
    430e:	5b 83       	std	Y+3, r21	; 0x03
    4310:	b6 2f       	mov	r27, r22
    4312:	a7 2f       	mov	r26, r23
    4314:	f8 2f       	mov	r31, r24
    4316:	e9 2f       	mov	r30, r25
    4318:	0e 94 e1 3d 	call	0x7bc2	; 0x7bc2 <__ashldi3>
    431c:	a2 2e       	mov	r10, r18
    431e:	b3 2e       	mov	r11, r19
    4320:	c4 2e       	mov	r12, r20
    4322:	d5 2e       	mov	r13, r21
    4324:	e6 2e       	mov	r14, r22
    4326:	f7 2e       	mov	r15, r23
    4328:	08 2f       	mov	r16, r24
    432a:	19 2f       	mov	r17, r25
    432c:	28 2d       	mov	r18, r8
    432e:	39 2d       	mov	r19, r9
    4330:	4c 81       	ldd	r20, Y+4	; 0x04
    4332:	5b 81       	ldd	r21, Y+3	; 0x03
    4334:	6b 2f       	mov	r22, r27
    4336:	7a 2f       	mov	r23, r26
    4338:	8f 2f       	mov	r24, r31
    433a:	9e 2f       	mov	r25, r30
    433c:	0e 94 fa 3d 	call	0x7bf4	; 0x7bf4 <__adddi3>
    4340:	82 2e       	mov	r8, r18
    4342:	93 2e       	mov	r9, r19
    4344:	4c 83       	std	Y+4, r20	; 0x04
    4346:	5b 83       	std	Y+3, r21	; 0x03
    4348:	b6 2f       	mov	r27, r22
    434a:	a7 2f       	mov	r26, r23
    434c:	f8 2f       	mov	r31, r24
    434e:	e9 2f       	mov	r30, r25
    4350:	02 e0       	ldi	r16, 0x02	; 2
    4352:	0e 94 e1 3d 	call	0x7bc2	; 0x7bc2 <__ashldi3>
    4356:	a2 2e       	mov	r10, r18
    4358:	b3 2e       	mov	r11, r19
    435a:	c4 2e       	mov	r12, r20
    435c:	d5 2e       	mov	r13, r21
    435e:	e6 2e       	mov	r14, r22
    4360:	f7 2e       	mov	r15, r23
    4362:	08 2f       	mov	r16, r24
    4364:	19 2f       	mov	r17, r25
    4366:	28 2d       	mov	r18, r8
    4368:	39 2d       	mov	r19, r9
    436a:	4c 81       	ldd	r20, Y+4	; 0x04
    436c:	5b 81       	ldd	r21, Y+3	; 0x03
    436e:	6b 2f       	mov	r22, r27
    4370:	7a 2f       	mov	r23, r26
    4372:	8f 2f       	mov	r24, r31
    4374:	9e 2f       	mov	r25, r30
    4376:	0e 94 fa 3d 	call	0x7bf4	; 0x7bf4 <__adddi3>
    437a:	a2 2e       	mov	r10, r18
    437c:	b3 2e       	mov	r11, r19
    437e:	c4 2e       	mov	r12, r20
    4380:	d5 2e       	mov	r13, r21
    4382:	e6 2e       	mov	r14, r22
    4384:	f7 2e       	mov	r15, r23
    4386:	08 2f       	mov	r16, r24
    4388:	19 2f       	mov	r17, r25
    438a:	22 2d       	mov	r18, r2
    438c:	33 2d       	mov	r19, r3
    438e:	44 2d       	mov	r20, r4
    4390:	55 2d       	mov	r21, r5
    4392:	66 2d       	mov	r22, r6
    4394:	77 2d       	mov	r23, r7
    4396:	89 81       	ldd	r24, Y+1	; 0x01
    4398:	9a 81       	ldd	r25, Y+2	; 0x02
    439a:	0e 94 fa 3d 	call	0x7bf4	; 0x7bf4 <__adddi3>
    439e:	22 2e       	mov	r2, r18
    43a0:	33 2e       	mov	r3, r19
    43a2:	44 2e       	mov	r4, r20
    43a4:	55 2e       	mov	r5, r21
    43a6:	66 2e       	mov	r6, r22
    43a8:	77 2e       	mov	r7, r23
    43aa:	89 83       	std	Y+1, r24	; 0x01
    43ac:	9a 83       	std	Y+2, r25	; 0x02
    43ae:	20 91 3f 51 	lds	r18, 0x513F	; 0x80513f <RO_10>
    43b2:	30 91 40 51 	lds	r19, 0x5140	; 0x805140 <RO_10+0x1>
    43b6:	40 91 41 51 	lds	r20, 0x5141	; 0x805141 <RO_10+0x2>
    43ba:	50 91 42 51 	lds	r21, 0x5142	; 0x805142 <RO_10+0x3>
    43be:	60 91 43 51 	lds	r22, 0x5143	; 0x805143 <RO_10+0x4>
    43c2:	70 91 44 51 	lds	r23, 0x5144	; 0x805144 <RO_10+0x5>
    43c6:	80 91 45 51 	lds	r24, 0x5145	; 0x805145 <RO_10+0x6>
    43ca:	90 91 46 51 	lds	r25, 0x5146	; 0x805146 <RO_10+0x7>
    43ce:	01 e0       	ldi	r16, 0x01	; 1
    43d0:	0e 94 e1 3d 	call	0x7bc2	; 0x7bc2 <__ashldi3>
    43d4:	82 2e       	mov	r8, r18
    43d6:	93 2e       	mov	r9, r19
    43d8:	4c 83       	std	Y+4, r20	; 0x04
    43da:	5b 83       	std	Y+3, r21	; 0x03
    43dc:	b6 2f       	mov	r27, r22
    43de:	a7 2f       	mov	r26, r23
    43e0:	f8 2f       	mov	r31, r24
    43e2:	e9 2f       	mov	r30, r25
    43e4:	02 e0       	ldi	r16, 0x02	; 2
    43e6:	0e 94 e1 3d 	call	0x7bc2	; 0x7bc2 <__ashldi3>
    43ea:	a2 2e       	mov	r10, r18
    43ec:	b3 2e       	mov	r11, r19
    43ee:	c4 2e       	mov	r12, r20
    43f0:	d5 2e       	mov	r13, r21
    43f2:	e6 2e       	mov	r14, r22
    43f4:	f7 2e       	mov	r15, r23
    43f6:	08 2f       	mov	r16, r24
    43f8:	19 2f       	mov	r17, r25
    43fa:	28 2d       	mov	r18, r8
    43fc:	39 2d       	mov	r19, r9
    43fe:	4c 81       	ldd	r20, Y+4	; 0x04
    4400:	5b 81       	ldd	r21, Y+3	; 0x03
    4402:	6b 2f       	mov	r22, r27
    4404:	7a 2f       	mov	r23, r26
    4406:	8f 2f       	mov	r24, r31
    4408:	9e 2f       	mov	r25, r30
    440a:	0e 94 fa 3d 	call	0x7bf4	; 0x7bf4 <__adddi3>
    440e:	a2 2e       	mov	r10, r18
    4410:	b3 2e       	mov	r11, r19
    4412:	c4 2e       	mov	r12, r20
    4414:	d5 2e       	mov	r13, r21
    4416:	e6 2e       	mov	r14, r22
    4418:	f7 2e       	mov	r15, r23
    441a:	08 2f       	mov	r16, r24
    441c:	19 2f       	mov	r17, r25
    441e:	22 2d       	mov	r18, r2
    4420:	33 2d       	mov	r19, r3
    4422:	44 2d       	mov	r20, r4
    4424:	55 2d       	mov	r21, r5
    4426:	66 2d       	mov	r22, r6
    4428:	77 2d       	mov	r23, r7
    442a:	89 81       	ldd	r24, Y+1	; 0x01
    442c:	9a 81       	ldd	r25, Y+2	; 0x02
    442e:	0e 94 fa 3d 	call	0x7bf4	; 0x7bf4 <__adddi3>
    4432:	20 93 13 51 	sts	0x5113, r18	; 0x805113 <RO>
    4436:	30 93 14 51 	sts	0x5114, r19	; 0x805114 <RO+0x1>
    443a:	40 93 15 51 	sts	0x5115, r20	; 0x805115 <RO+0x2>
    443e:	50 93 16 51 	sts	0x5116, r21	; 0x805116 <RO+0x3>
    4442:	60 93 17 51 	sts	0x5117, r22	; 0x805117 <RO+0x4>
    4446:	70 93 18 51 	sts	0x5118, r23	; 0x805118 <RO+0x5>
    444a:	80 93 19 51 	sts	0x5119, r24	; 0x805119 <RO+0x6>
    444e:	90 93 1a 51 	sts	0x511A, r25	; 0x80511a <RO+0x7>
//-------------------------------------------------------------------------------------------------
	ee_write_dword(Cell_RO_Addr, RO);					// ыбЬыУЬьЕА ROъ░Т ьаАьЮе
    4452:	64 2f       	mov	r22, r20
    4454:	75 2f       	mov	r23, r21
    4456:	42 2f       	mov	r20, r18
    4458:	53 2f       	mov	r21, r19
    445a:	8c e0       	ldi	r24, 0x0C	; 12
    445c:	90 e0       	ldi	r25, 0x00	; 0
    445e:	0e 94 1e 15 	call	0x2a3c	; 0x2a3c <ee_write_dword>

	SET.Menu = 1;								// Menu ыкиыУЬ ьЬаьзА
    4462:	ee e0       	ldi	r30, 0x0E	; 14
    4464:	f1 e5       	ldi	r31, 0x51	; 81
    4466:	81 e0       	ldi	r24, 0x01	; 1
    4468:	80 83       	st	Z, r24
	SET.Select = 0;								// Select ы▓ДэК╝ ь┤Иъ╕░эЩФ
    446a:	11 82       	std	Z+1, r1	; 0x01
	SET.Blink = 0;								// ьЮРыж┐ьИШ ъ╣Ьы░ХьЮД ь┤Иъ╕░эЩФ
    446c:	13 82       	std	Z+3, r1	; 0x03
	KEY.Count = 0;								// ьДаэГЭ Key ъ░А ыИМыж░эЪЯьИШ ь┤Иъ╕░эЩФ
    446e:	10 92 4b 51 	sts	0x514B, r1	; 0x80514b <KEY>
}
    4472:	25 96       	adiw	r28, 0x05	; 5
    4474:	cd bf       	out	0x3d, r28	; 61
    4476:	de bf       	out	0x3e, r29	; 62
    4478:	df 91       	pop	r29
    447a:	cf 91       	pop	r28
    447c:	1f 91       	pop	r17
    447e:	0f 91       	pop	r16
    4480:	ff 90       	pop	r15
    4482:	ef 90       	pop	r14
    4484:	df 90       	pop	r13
    4486:	cf 90       	pop	r12
    4488:	bf 90       	pop	r11
    448a:	af 90       	pop	r10
    448c:	9f 90       	pop	r9
    448e:	8f 90       	pop	r8
    4490:	7f 90       	pop	r7
    4492:	6f 90       	pop	r6
    4494:	5f 90       	pop	r5
    4496:	4f 90       	pop	r4
    4498:	3f 90       	pop	r3
    449a:	2f 90       	pop	r2
    449c:	08 95       	ret

0000449e <Interval_Set>:

//=================================================================================================
void Interval_Set(void)								// Interval ьДдьаХ
{
    449e:	2f 92       	push	r2
    44a0:	3f 92       	push	r3
    44a2:	4f 92       	push	r4
    44a4:	5f 92       	push	r5
    44a6:	6f 92       	push	r6
    44a8:	7f 92       	push	r7
    44aa:	8f 92       	push	r8
    44ac:	9f 92       	push	r9
    44ae:	af 92       	push	r10
    44b0:	bf 92       	push	r11
    44b2:	cf 92       	push	r12
    44b4:	df 92       	push	r13
    44b6:	ef 92       	push	r14
    44b8:	ff 92       	push	r15
    44ba:	0f 93       	push	r16
    44bc:	1f 93       	push	r17
    44be:	cf 93       	push	r28
    44c0:	df 93       	push	r29
    44c2:	cd b7       	in	r28, 0x3d	; 61
    44c4:	de b7       	in	r29, 0x3e	; 62
    44c6:	60 97       	sbiw	r28, 0x10	; 16
    44c8:	cd bf       	out	0x3d, r28	; 61
    44ca:	de bf       	out	0x3e, r29	; 62
	uint32_t Value = 0;							// Value ы│АьИШ ь┤Иъ╕░эЩФ
	uint32_t Old_Value;							// ыбЬыУЬьЕА Old_Value ъ░Т

	RO = ee_read_dword(Cell_RO_Addr);					// ыбЬыУЬьЕА RO ъ░Т ы╢ИыЯмьШдъ╕░
    44cc:	8c e0       	ldi	r24, 0x0C	; 12
    44ce:	90 e0       	ldi	r25, 0x00	; 0
    44d0:	0e 94 d0 14 	call	0x29a0	; 0x29a0 <ee_read_dword>
    44d4:	1b 01       	movw	r2, r22
    44d6:	2c 01       	movw	r4, r24
    44d8:	60 93 13 51 	sts	0x5113, r22	; 0x805113 <RO>
    44dc:	30 92 14 51 	sts	0x5114, r3	; 0x805114 <RO+0x1>
    44e0:	40 92 15 51 	sts	0x5115, r4	; 0x805115 <RO+0x2>
    44e4:	50 92 16 51 	sts	0x5116, r5	; 0x805116 <RO+0x3>
    44e8:	10 92 17 51 	sts	0x5117, r1	; 0x805117 <RO+0x4>
    44ec:	10 92 18 51 	sts	0x5118, r1	; 0x805118 <RO+0x5>
    44f0:	10 92 19 51 	sts	0x5119, r1	; 0x805119 <RO+0x6>
    44f4:	10 92 1a 51 	sts	0x511A, r1	; 0x80511a <RO+0x7>
	RO_10000 = RO / 10000;							// ыбЬыУЬьЕА RO 10000ьЭШ ьЮРыжм
    44f8:	68 94       	set
    44fa:	aa 24       	eor	r10, r10
    44fc:	a4 f8       	bld	r10, 4
    44fe:	0f 2e       	mov	r0, r31
    4500:	f7 e2       	ldi	r31, 0x27	; 39
    4502:	bf 2e       	mov	r11, r31
    4504:	f0 2d       	mov	r31, r0
    4506:	c1 2c       	mov	r12, r1
    4508:	d1 2c       	mov	r13, r1
    450a:	e1 2c       	mov	r14, r1
    450c:	f1 2c       	mov	r15, r1
    450e:	00 e0       	ldi	r16, 0x00	; 0
    4510:	10 e0       	ldi	r17, 0x00	; 0
    4512:	26 2f       	mov	r18, r22
    4514:	33 2d       	mov	r19, r3
    4516:	44 2d       	mov	r20, r4
    4518:	55 2d       	mov	r21, r5
    451a:	60 e0       	ldi	r22, 0x00	; 0
    451c:	70 e0       	ldi	r23, 0x00	; 0
    451e:	80 e0       	ldi	r24, 0x00	; 0
    4520:	90 e0       	ldi	r25, 0x00	; 0
    4522:	0e 94 84 3d 	call	0x7b08	; 0x7b08 <__udivdi3>
    4526:	20 93 54 51 	sts	0x5154, r18	; 0x805154 <RO_10000>
    452a:	30 93 55 51 	sts	0x5155, r19	; 0x805155 <RO_10000+0x1>
    452e:	40 93 56 51 	sts	0x5156, r20	; 0x805156 <RO_10000+0x2>
    4532:	50 93 57 51 	sts	0x5157, r21	; 0x805157 <RO_10000+0x3>
    4536:	60 93 58 51 	sts	0x5158, r22	; 0x805158 <RO_10000+0x4>
    453a:	70 93 59 51 	sts	0x5159, r23	; 0x805159 <RO_10000+0x5>
    453e:	80 93 5a 51 	sts	0x515A, r24	; 0x80515a <RO_10000+0x6>
    4542:	90 93 5b 51 	sts	0x515B, r25	; 0x80515b <RO_10000+0x7>
	RO_1000  = RO % 10000 / 1000;						// ыбЬыУЬьЕА RO  1000ьЭШ ьЮРыжм
    4546:	22 2d       	mov	r18, r2
    4548:	33 2d       	mov	r19, r3
    454a:	44 2d       	mov	r20, r4
    454c:	55 2d       	mov	r21, r5
    454e:	60 e0       	ldi	r22, 0x00	; 0
    4550:	70 e0       	ldi	r23, 0x00	; 0
    4552:	80 e0       	ldi	r24, 0x00	; 0
    4554:	90 e0       	ldi	r25, 0x00	; 0
    4556:	0e 94 82 3d 	call	0x7b04	; 0x7b04 <__umoddi3>
    455a:	0f 2e       	mov	r0, r31
    455c:	f8 ee       	ldi	r31, 0xE8	; 232
    455e:	af 2e       	mov	r10, r31
    4560:	f0 2d       	mov	r31, r0
    4562:	0f 2e       	mov	r0, r31
    4564:	f3 e0       	ldi	r31, 0x03	; 3
    4566:	bf 2e       	mov	r11, r31
    4568:	f0 2d       	mov	r31, r0
    456a:	0e 94 84 3d 	call	0x7b08	; 0x7b08 <__udivdi3>
    456e:	20 93 77 52 	sts	0x5277, r18	; 0x805277 <RO_1000>
    4572:	30 93 78 52 	sts	0x5278, r19	; 0x805278 <RO_1000+0x1>
    4576:	40 93 79 52 	sts	0x5279, r20	; 0x805279 <RO_1000+0x2>
    457a:	50 93 7a 52 	sts	0x527A, r21	; 0x80527a <RO_1000+0x3>
    457e:	60 93 7b 52 	sts	0x527B, r22	; 0x80527b <RO_1000+0x4>
    4582:	70 93 7c 52 	sts	0x527C, r23	; 0x80527c <RO_1000+0x5>
    4586:	80 93 7d 52 	sts	0x527D, r24	; 0x80527d <RO_1000+0x6>
    458a:	90 93 7e 52 	sts	0x527E, r25	; 0x80527e <RO_1000+0x7>
	RO_100   = RO % 1000 / 100;						// ыбЬыУЬьЕА RO   100ьЭШ ьЮРыжм
    458e:	22 2d       	mov	r18, r2
    4590:	33 2d       	mov	r19, r3
    4592:	44 2d       	mov	r20, r4
    4594:	55 2d       	mov	r21, r5
    4596:	60 e0       	ldi	r22, 0x00	; 0
    4598:	70 e0       	ldi	r23, 0x00	; 0
    459a:	80 e0       	ldi	r24, 0x00	; 0
    459c:	90 e0       	ldi	r25, 0x00	; 0
    459e:	0e 94 82 3d 	call	0x7b04	; 0x7b04 <__umoddi3>
    45a2:	0f 2e       	mov	r0, r31
    45a4:	f4 e6       	ldi	r31, 0x64	; 100
    45a6:	af 2e       	mov	r10, r31
    45a8:	f0 2d       	mov	r31, r0
    45aa:	b1 2c       	mov	r11, r1
    45ac:	0e 94 84 3d 	call	0x7b08	; 0x7b08 <__udivdi3>
    45b0:	20 93 69 51 	sts	0x5169, r18	; 0x805169 <RO_100>
    45b4:	30 93 6a 51 	sts	0x516A, r19	; 0x80516a <RO_100+0x1>
    45b8:	40 93 6b 51 	sts	0x516B, r20	; 0x80516b <RO_100+0x2>
    45bc:	50 93 6c 51 	sts	0x516C, r21	; 0x80516c <RO_100+0x3>
    45c0:	60 93 6d 51 	sts	0x516D, r22	; 0x80516d <RO_100+0x4>
    45c4:	70 93 6e 51 	sts	0x516E, r23	; 0x80516e <RO_100+0x5>
    45c8:	80 93 6f 51 	sts	0x516F, r24	; 0x80516f <RO_100+0x6>
    45cc:	90 93 70 51 	sts	0x5170, r25	; 0x805170 <RO_100+0x7>
	RO_10    = RO % 100 / 10;						// ыбЬыУЬьЕА RO    10ьЭШ ьЮРыжм
    45d0:	22 2d       	mov	r18, r2
    45d2:	33 2d       	mov	r19, r3
    45d4:	44 2d       	mov	r20, r4
    45d6:	55 2d       	mov	r21, r5
    45d8:	60 e0       	ldi	r22, 0x00	; 0
    45da:	70 e0       	ldi	r23, 0x00	; 0
    45dc:	80 e0       	ldi	r24, 0x00	; 0
    45de:	90 e0       	ldi	r25, 0x00	; 0
    45e0:	0e 94 82 3d 	call	0x7b04	; 0x7b04 <__umoddi3>
    45e4:	0f 2e       	mov	r0, r31
    45e6:	fa e0       	ldi	r31, 0x0A	; 10
    45e8:	af 2e       	mov	r10, r31
    45ea:	f0 2d       	mov	r31, r0
    45ec:	0e 94 84 3d 	call	0x7b08	; 0x7b08 <__udivdi3>
    45f0:	20 93 3f 51 	sts	0x513F, r18	; 0x80513f <RO_10>
    45f4:	30 93 40 51 	sts	0x5140, r19	; 0x805140 <RO_10+0x1>
    45f8:	40 93 41 51 	sts	0x5141, r20	; 0x805141 <RO_10+0x2>
    45fc:	50 93 42 51 	sts	0x5142, r21	; 0x805142 <RO_10+0x3>
    4600:	60 93 43 51 	sts	0x5143, r22	; 0x805143 <RO_10+0x4>
    4604:	70 93 44 51 	sts	0x5144, r23	; 0x805144 <RO_10+0x5>
    4608:	80 93 45 51 	sts	0x5145, r24	; 0x805145 <RO_10+0x6>
    460c:	90 93 46 51 	sts	0x5146, r25	; 0x805146 <RO_10+0x7>
	RO_1     = RO % 10;							// ыбЬыУЬьЕА RO     1ьЭШ ьЮРыжм
    4610:	22 2d       	mov	r18, r2
    4612:	33 2d       	mov	r19, r3
    4614:	44 2d       	mov	r20, r4
    4616:	55 2d       	mov	r21, r5
    4618:	60 e0       	ldi	r22, 0x00	; 0
    461a:	70 e0       	ldi	r23, 0x00	; 0
    461c:	80 e0       	ldi	r24, 0x00	; 0
    461e:	90 e0       	ldi	r25, 0x00	; 0
    4620:	0e 94 82 3d 	call	0x7b04	; 0x7b04 <__umoddi3>
    4624:	20 93 75 51 	sts	0x5175, r18	; 0x805175 <RO_1>
    4628:	30 93 76 51 	sts	0x5176, r19	; 0x805176 <RO_1+0x1>
    462c:	40 93 77 51 	sts	0x5177, r20	; 0x805177 <RO_1+0x2>
    4630:	50 93 78 51 	sts	0x5178, r21	; 0x805178 <RO_1+0x3>
    4634:	60 93 79 51 	sts	0x5179, r22	; 0x805179 <RO_1+0x4>
    4638:	70 93 7a 51 	sts	0x517A, r23	; 0x80517a <RO_1+0x5>
    463c:	80 93 7b 51 	sts	0x517B, r24	; 0x80517b <RO_1+0x6>
    4640:	90 93 7c 51 	sts	0x517C, r25	; 0x80517c <RO_1+0x7>

	while(SET.Menu && SET.Select)						// ыйФыЙ┤ъ░А 1 ьЭ┤ый┤ ы░Шы│╡
    4644:	80 91 0e 51 	lds	r24, 0x510E	; 0x80510e <SET>
    4648:	88 23       	and	r24, r24
    464a:	09 f4       	brne	.+2      	; 0x464e <Interval_Set+0x1b0>
    464c:	d4 c1       	rjmp	.+936    	; 0x49f6 <Interval_Set+0x558>
    464e:	80 91 0f 51 	lds	r24, 0x510F	; 0x80510f <SET+0x1>
    4652:	88 23       	and	r24, r24
    4654:	09 f4       	brne	.+2      	; 0x4658 <Interval_Set+0x1ba>
    4656:	cf c1       	rjmp	.+926    	; 0x49f6 <Interval_Set+0x558>
	{
		Timer.RegExitTimer = 0;						// ым┤ъ▓МьЭШ ьЧ░ьЖН ь╕бьаХьЭД ьЬДэХ┤ RegExitTimer ь┤Иъ╕░эЩФ
    4658:	10 92 33 51 	sts	0x5133, r1	; 0x805133 <Timer+0x1>
    465c:	10 92 34 51 	sts	0x5134, r1	; 0x805134 <Timer+0x2>
		Value_Count = 0;
    4660:	10 92 83 52 	sts	0x5283, r1	; 0x805283 <Value_Count>
		Old_Value = CELL.Old_Value;
    4664:	00 91 25 51 	lds	r16, 0x5125	; 0x805125 <CELL+0x9>
    4668:	10 91 26 51 	lds	r17, 0x5126	; 0x805126 <CELL+0xa>
    466c:	20 91 27 51 	lds	r18, 0x5127	; 0x805127 <CELL+0xb>
    4670:	30 91 28 51 	lds	r19, 0x5128	; 0x805128 <CELL+0xc>
    4674:	0d 87       	std	Y+13, r16	; 0x0d
    4676:	1e 87       	std	Y+14, r17	; 0x0e
    4678:	2f 87       	std	Y+15, r18	; 0x0f
    467a:	38 8b       	std	Y+16, r19	; 0x10
		Cell_RO = RO;
    467c:	20 91 13 51 	lds	r18, 0x5113	; 0x805113 <RO>
    4680:	30 91 14 51 	lds	r19, 0x5114	; 0x805114 <RO+0x1>
    4684:	40 91 15 51 	lds	r20, 0x5115	; 0x805115 <RO+0x2>
    4688:	50 91 16 51 	lds	r21, 0x5116	; 0x805116 <RO+0x3>
    468c:	60 91 17 51 	lds	r22, 0x5117	; 0x805117 <RO+0x4>
    4690:	70 91 18 51 	lds	r23, 0x5118	; 0x805118 <RO+0x5>
    4694:	80 91 19 51 	lds	r24, 0x5119	; 0x805119 <RO+0x6>
    4698:	90 91 1a 51 	lds	r25, 0x511A	; 0x80511a <RO+0x7>
    469c:	0e 94 ec 37 	call	0x6fd8	; 0x6fd8 <__floatundisf>
    46a0:	60 93 50 51 	sts	0x5150, r22	; 0x805150 <Cell_RO>
    46a4:	70 93 51 51 	sts	0x5151, r23	; 0x805151 <Cell_RO+0x1>
    46a8:	80 93 52 51 	sts	0x5152, r24	; 0x805152 <Cell_RO+0x2>
    46ac:	90 93 53 51 	sts	0x5153, r25	; 0x805153 <Cell_RO+0x3>
	#else
		//round up by default
		__ticks_dc = (uint32_t)(ceil(fabs(__tmp)));
	#endif

	__builtin_avr_delay_cycles(__ticks_dc);
    46b0:	11 e3       	ldi	r17, 0x31	; 49
    46b2:	1a 95       	dec	r17
    46b4:	f1 f7       	brne	.-4      	; 0x46b2 <Interval_Set+0x214>
    46b6:	00 00       	nop
		_delay_us(10);
		Proportion_Set();						// ы░░ьЬи ъ│ДьВ░
    46b8:	0e 94 02 11 	call	0x2204	; 0x2204 <Proportion_Set>
    46bc:	21 e3       	ldi	r18, 0x31	; 49
    46be:	2a 95       	dec	r18
    46c0:	f1 f7       	brne	.-4      	; 0x46be <Interval_Set+0x220>
    46c2:	00 00       	nop
		_delay_us(10);
		Value = Read_Load_Cell();					// ыбЬыУЬьЕА ь╕бьаХъ░Т
    46c4:	0e 94 b2 1a 	call	0x3564	; 0x3564 <Read_Load_Cell>
    46c8:	2c 01       	movw	r4, r24
    46ca:	61 2c       	mov	r6, r1
    46cc:	71 2c       	mov	r7, r1

		if(KEY.Buff)							// Key ьЮЕыаеьЭ┤ ьЮИьЬ╝ый┤
    46ce:	80 91 4c 51 	lds	r24, 0x514C	; 0x80514c <KEY+0x1>
    46d2:	88 23       	and	r24, r24
    46d4:	09 f4       	brne	.+2      	; 0x46d8 <Interval_Set+0x23a>
    46d6:	22 c1       	rjmp	.+580    	; 0x491c <Interval_Set+0x47e>
		{
			if     (KEY.Key == 1 && RO < 90000) {RO = RO + 10; KEY.Key = 0;}	// ьЧЕ  ы▓ДэК╝ ьЭ┤ый┤ RO ъ░Т 10ьЭШ ьЮРыжм ьжЭъ░А
    46d8:	80 91 4d 51 	lds	r24, 0x514D	; 0x80514d <KEY+0x2>
    46dc:	81 30       	cpi	r24, 0x01	; 1
    46de:	d1 f5       	brne	.+116    	; 0x4754 <Interval_Set+0x2b6>
    46e0:	c0 90 13 51 	lds	r12, 0x5113	; 0x805113 <RO>
    46e4:	d0 90 14 51 	lds	r13, 0x5114	; 0x805114 <RO+0x1>
    46e8:	e0 90 15 51 	lds	r14, 0x5115	; 0x805115 <RO+0x2>
    46ec:	f0 90 16 51 	lds	r15, 0x5116	; 0x805116 <RO+0x3>
    46f0:	b0 91 17 51 	lds	r27, 0x5117	; 0x805117 <RO+0x4>
    46f4:	a0 91 18 51 	lds	r26, 0x5118	; 0x805118 <RO+0x5>
    46f8:	f0 91 19 51 	lds	r31, 0x5119	; 0x805119 <RO+0x6>
    46fc:	e0 91 1a 51 	lds	r30, 0x511A	; 0x80511a <RO+0x7>
    4700:	2c 2d       	mov	r18, r12
    4702:	3d 2d       	mov	r19, r13
    4704:	4e 2d       	mov	r20, r14
    4706:	5f 2d       	mov	r21, r15
    4708:	6b 2f       	mov	r22, r27
    470a:	7a 2f       	mov	r23, r26
    470c:	8f 2f       	mov	r24, r31
    470e:	9e 2f       	mov	r25, r30
    4710:	2f 38       	cpi	r18, 0x8F	; 143
    4712:	0f e5       	ldi	r16, 0x5F	; 95
    4714:	30 07       	cpc	r19, r16
    4716:	01 e0       	ldi	r16, 0x01	; 1
    4718:	40 07       	cpc	r20, r16
    471a:	51 05       	cpc	r21, r1
    471c:	61 05       	cpc	r22, r1
    471e:	71 05       	cpc	r23, r1
    4720:	81 05       	cpc	r24, r1
    4722:	91 05       	cpc	r25, r1
    4724:	09 f0       	breq	.+2      	; 0x4728 <Interval_Set+0x28a>
    4726:	b0 f4       	brcc	.+44     	; 0x4754 <Interval_Set+0x2b6>
    4728:	aa e0       	ldi	r26, 0x0A	; 10
    472a:	0e 94 03 3e 	call	0x7c06	; 0x7c06 <__adddi3_s8>
    472e:	20 93 13 51 	sts	0x5113, r18	; 0x805113 <RO>
    4732:	30 93 14 51 	sts	0x5114, r19	; 0x805114 <RO+0x1>
    4736:	40 93 15 51 	sts	0x5115, r20	; 0x805115 <RO+0x2>
    473a:	50 93 16 51 	sts	0x5116, r21	; 0x805116 <RO+0x3>
    473e:	60 93 17 51 	sts	0x5117, r22	; 0x805117 <RO+0x4>
    4742:	70 93 18 51 	sts	0x5118, r23	; 0x805118 <RO+0x5>
    4746:	80 93 19 51 	sts	0x5119, r24	; 0x805119 <RO+0x6>
    474a:	90 93 1a 51 	sts	0x511A, r25	; 0x80511a <RO+0x7>
    474e:	10 92 4d 51 	sts	0x514D, r1	; 0x80514d <KEY+0x2>
    4752:	36 c0       	rjmp	.+108    	; 0x47c0 <Interval_Set+0x322>
			else if(KEY.Key == 3 && RO >=   10) {RO = RO - 10; KEY.Key = 0;}	// ыЛдьЪ┤ы▓ДэК╝ ьЭ┤ый┤ RO ъ░Т 10ьЭШ ьЮРыжм ъ░РьЖМ
    4754:	80 91 4d 51 	lds	r24, 0x514D	; 0x80514d <KEY+0x2>
    4758:	83 30       	cpi	r24, 0x03	; 3
    475a:	91 f5       	brne	.+100    	; 0x47c0 <Interval_Set+0x322>
    475c:	b0 90 13 51 	lds	r11, 0x5113	; 0x805113 <RO>
    4760:	c0 90 14 51 	lds	r12, 0x5114	; 0x805114 <RO+0x1>
    4764:	d0 90 15 51 	lds	r13, 0x5115	; 0x805115 <RO+0x2>
    4768:	e0 90 16 51 	lds	r14, 0x5116	; 0x805116 <RO+0x3>
    476c:	f0 90 17 51 	lds	r15, 0x5117	; 0x805117 <RO+0x4>
    4770:	b0 91 18 51 	lds	r27, 0x5118	; 0x805118 <RO+0x5>
    4774:	f0 91 19 51 	lds	r31, 0x5119	; 0x805119 <RO+0x6>
    4778:	e0 91 1a 51 	lds	r30, 0x511A	; 0x80511a <RO+0x7>
    477c:	2b 2d       	mov	r18, r11
    477e:	3c 2d       	mov	r19, r12
    4780:	4d 2d       	mov	r20, r13
    4782:	5e 2d       	mov	r21, r14
    4784:	6f 2d       	mov	r22, r15
    4786:	7b 2f       	mov	r23, r27
    4788:	8f 2f       	mov	r24, r31
    478a:	9e 2f       	mov	r25, r30
    478c:	a9 e0       	ldi	r26, 0x09	; 9
    478e:	0e 94 18 3e 	call	0x7c30	; 0x7c30 <__cmpdi2_s8>
    4792:	b1 f0       	breq	.+44     	; 0x47c0 <Interval_Set+0x322>
    4794:	a8 f0       	brcs	.+42     	; 0x47c0 <Interval_Set+0x322>
    4796:	a6 ef       	ldi	r26, 0xF6	; 246
    4798:	0e 94 03 3e 	call	0x7c06	; 0x7c06 <__adddi3_s8>
    479c:	20 93 13 51 	sts	0x5113, r18	; 0x805113 <RO>
    47a0:	30 93 14 51 	sts	0x5114, r19	; 0x805114 <RO+0x1>
    47a4:	40 93 15 51 	sts	0x5115, r20	; 0x805115 <RO+0x2>
    47a8:	50 93 16 51 	sts	0x5116, r21	; 0x805116 <RO+0x3>
    47ac:	60 93 17 51 	sts	0x5117, r22	; 0x805117 <RO+0x4>
    47b0:	70 93 18 51 	sts	0x5118, r23	; 0x805118 <RO+0x5>
    47b4:	80 93 19 51 	sts	0x5119, r24	; 0x805119 <RO+0x6>
    47b8:	90 93 1a 51 	sts	0x511A, r25	; 0x80511a <RO+0x7>
    47bc:	10 92 4d 51 	sts	0x514D, r1	; 0x80514d <KEY+0x2>

			DIGIT[1][3] = fnd_tbl[RO / 10000];			// ыбЬыУЬьЕА RO 10000ьЭШ ьЮРыжм
    47c0:	20 90 13 51 	lds	r2, 0x5113	; 0x805113 <RO>
    47c4:	30 90 14 51 	lds	r3, 0x5114	; 0x805114 <RO+0x1>
    47c8:	10 91 15 51 	lds	r17, 0x5115	; 0x805115 <RO+0x2>
    47cc:	19 87       	std	Y+9, r17	; 0x09
    47ce:	20 91 16 51 	lds	r18, 0x5116	; 0x805116 <RO+0x3>
    47d2:	2a 87       	std	Y+10, r18	; 0x0a
    47d4:	30 91 17 51 	lds	r19, 0x5117	; 0x805117 <RO+0x4>
    47d8:	3b 87       	std	Y+11, r19	; 0x0b
    47da:	80 91 18 51 	lds	r24, 0x5118	; 0x805118 <RO+0x5>
    47de:	8c 87       	std	Y+12, r24	; 0x0c
    47e0:	80 90 19 51 	lds	r8, 0x5119	; 0x805119 <RO+0x6>
    47e4:	90 90 1a 51 	lds	r9, 0x511A	; 0x80511a <RO+0x7>
    47e8:	68 94       	set
    47ea:	aa 24       	eor	r10, r10
    47ec:	a4 f8       	bld	r10, 4
    47ee:	0f 2e       	mov	r0, r31
    47f0:	f7 e2       	ldi	r31, 0x27	; 39
    47f2:	bf 2e       	mov	r11, r31
    47f4:	f0 2d       	mov	r31, r0
    47f6:	c1 2c       	mov	r12, r1
    47f8:	d1 2c       	mov	r13, r1
    47fa:	e1 2c       	mov	r14, r1
    47fc:	f1 2c       	mov	r15, r1
    47fe:	00 e0       	ldi	r16, 0x00	; 0
    4800:	10 e0       	ldi	r17, 0x00	; 0
    4802:	22 2d       	mov	r18, r2
    4804:	33 2d       	mov	r19, r3
    4806:	49 85       	ldd	r20, Y+9	; 0x09
    4808:	5a 85       	ldd	r21, Y+10	; 0x0a
    480a:	6b 85       	ldd	r22, Y+11	; 0x0b
    480c:	78 2f       	mov	r23, r24
    480e:	88 2d       	mov	r24, r8
    4810:	99 2d       	mov	r25, r9
    4812:	0e 94 84 3d 	call	0x7b08	; 0x7b08 <__udivdi3>
    4816:	29 83       	std	Y+1, r18	; 0x01
    4818:	3a 83       	std	Y+2, r19	; 0x02
    481a:	4b 83       	std	Y+3, r20	; 0x03
    481c:	5c 83       	std	Y+4, r21	; 0x04
    481e:	6d 83       	std	Y+5, r22	; 0x05
    4820:	7e 83       	std	Y+6, r23	; 0x06
    4822:	8f 83       	std	Y+7, r24	; 0x07
    4824:	98 87       	std	Y+8, r25	; 0x08
    4826:	e9 81       	ldd	r30, Y+1	; 0x01
    4828:	fa 81       	ldd	r31, Y+2	; 0x02
    482a:	ed 5b       	subi	r30, 0xBD	; 189
    482c:	fe 4b       	sbci	r31, 0xBE	; 190
    482e:	80 81       	ld	r24, Z
    4830:	80 93 80 41 	sts	0x4180, r24	; 0x804180 <DIGIT+0x7>
			DIGIT[1][2] = fnd_tbl[RO % 10000 / 1000];		// ыбЬыУЬьЕА RO  1000ьЭШ ьЮРыжм
    4834:	22 2d       	mov	r18, r2
    4836:	33 2d       	mov	r19, r3
    4838:	49 85       	ldd	r20, Y+9	; 0x09
    483a:	5a 85       	ldd	r21, Y+10	; 0x0a
    483c:	6b 85       	ldd	r22, Y+11	; 0x0b
    483e:	7c 85       	ldd	r23, Y+12	; 0x0c
    4840:	88 2d       	mov	r24, r8
    4842:	99 2d       	mov	r25, r9
    4844:	0e 94 82 3d 	call	0x7b04	; 0x7b04 <__umoddi3>
    4848:	0f 2e       	mov	r0, r31
    484a:	f8 ee       	ldi	r31, 0xE8	; 232
    484c:	af 2e       	mov	r10, r31
    484e:	f0 2d       	mov	r31, r0
    4850:	0f 2e       	mov	r0, r31
    4852:	f3 e0       	ldi	r31, 0x03	; 3
    4854:	bf 2e       	mov	r11, r31
    4856:	f0 2d       	mov	r31, r0
    4858:	0e 94 84 3d 	call	0x7b08	; 0x7b08 <__udivdi3>
    485c:	29 83       	std	Y+1, r18	; 0x01
    485e:	3a 83       	std	Y+2, r19	; 0x02
    4860:	4b 83       	std	Y+3, r20	; 0x03
    4862:	5c 83       	std	Y+4, r21	; 0x04
    4864:	6d 83       	std	Y+5, r22	; 0x05
    4866:	7e 83       	std	Y+6, r23	; 0x06
    4868:	8f 83       	std	Y+7, r24	; 0x07
    486a:	98 87       	std	Y+8, r25	; 0x08
    486c:	e9 81       	ldd	r30, Y+1	; 0x01
    486e:	fa 81       	ldd	r31, Y+2	; 0x02
    4870:	ed 5b       	subi	r30, 0xBD	; 189
    4872:	fe 4b       	sbci	r31, 0xBE	; 190
    4874:	80 81       	ld	r24, Z
    4876:	80 93 7f 41 	sts	0x417F, r24	; 0x80417f <DIGIT+0x6>
			DIGIT[1][1] = fnd_tbl[RO % 1000 / 100 ];		// ыбЬыУЬьЕА RO   100ьЭШ ьЮРыжм
    487a:	22 2d       	mov	r18, r2
    487c:	33 2d       	mov	r19, r3
    487e:	49 85       	ldd	r20, Y+9	; 0x09
    4880:	5a 85       	ldd	r21, Y+10	; 0x0a
    4882:	6b 85       	ldd	r22, Y+11	; 0x0b
    4884:	7c 85       	ldd	r23, Y+12	; 0x0c
    4886:	88 2d       	mov	r24, r8
    4888:	99 2d       	mov	r25, r9
    488a:	0e 94 82 3d 	call	0x7b04	; 0x7b04 <__umoddi3>
    488e:	0f 2e       	mov	r0, r31
    4890:	f4 e6       	ldi	r31, 0x64	; 100
    4892:	af 2e       	mov	r10, r31
    4894:	f0 2d       	mov	r31, r0
    4896:	b1 2c       	mov	r11, r1
    4898:	0e 94 84 3d 	call	0x7b08	; 0x7b08 <__udivdi3>
    489c:	29 83       	std	Y+1, r18	; 0x01
    489e:	3a 83       	std	Y+2, r19	; 0x02
    48a0:	4b 83       	std	Y+3, r20	; 0x03
    48a2:	5c 83       	std	Y+4, r21	; 0x04
    48a4:	6d 83       	std	Y+5, r22	; 0x05
    48a6:	7e 83       	std	Y+6, r23	; 0x06
    48a8:	8f 83       	std	Y+7, r24	; 0x07
    48aa:	98 87       	std	Y+8, r25	; 0x08
    48ac:	e9 81       	ldd	r30, Y+1	; 0x01
    48ae:	fa 81       	ldd	r31, Y+2	; 0x02
    48b0:	ed 5b       	subi	r30, 0xBD	; 189
    48b2:	fe 4b       	sbci	r31, 0xBE	; 190
    48b4:	80 81       	ld	r24, Z
    48b6:	80 93 7e 41 	sts	0x417E, r24	; 0x80417e <DIGIT+0x5>
			DIGIT[1][0] = fnd_tbl[RO % 100 / 10];			// ыбЬыУЬьЕА RO    10ьЭШ ьЮРыжм
    48ba:	22 2d       	mov	r18, r2
    48bc:	33 2d       	mov	r19, r3
    48be:	49 85       	ldd	r20, Y+9	; 0x09
    48c0:	5a 85       	ldd	r21, Y+10	; 0x0a
    48c2:	6b 85       	ldd	r22, Y+11	; 0x0b
    48c4:	7c 85       	ldd	r23, Y+12	; 0x0c
    48c6:	88 2d       	mov	r24, r8
    48c8:	99 2d       	mov	r25, r9
    48ca:	0e 94 82 3d 	call	0x7b04	; 0x7b04 <__umoddi3>
    48ce:	0f 2e       	mov	r0, r31
    48d0:	fa e0       	ldi	r31, 0x0A	; 10
    48d2:	af 2e       	mov	r10, r31
    48d4:	f0 2d       	mov	r31, r0
    48d6:	0e 94 84 3d 	call	0x7b08	; 0x7b08 <__udivdi3>
    48da:	29 83       	std	Y+1, r18	; 0x01
    48dc:	3a 83       	std	Y+2, r19	; 0x02
    48de:	4b 83       	std	Y+3, r20	; 0x03
    48e0:	5c 83       	std	Y+4, r21	; 0x04
    48e2:	6d 83       	std	Y+5, r22	; 0x05
    48e4:	7e 83       	std	Y+6, r23	; 0x06
    48e6:	8f 83       	std	Y+7, r24	; 0x07
    48e8:	98 87       	std	Y+8, r25	; 0x08
    48ea:	e9 81       	ldd	r30, Y+1	; 0x01
    48ec:	fa 81       	ldd	r31, Y+2	; 0x02
    48ee:	ed 5b       	subi	r30, 0xBD	; 189
    48f0:	fe 4b       	sbci	r31, 0xBE	; 190
    48f2:	80 81       	ld	r24, Z
    48f4:	80 93 7d 41 	sts	0x417D, r24	; 0x80417d <DIGIT+0x4>

			DIGIT[2][3] = fnd_tbl[RO % 10];				// ыбЬыУЬьЕА RO    1ьЭШ ьЮРыжм
    48f8:	22 2d       	mov	r18, r2
    48fa:	33 2d       	mov	r19, r3
    48fc:	49 85       	ldd	r20, Y+9	; 0x09
    48fe:	5a 85       	ldd	r21, Y+10	; 0x0a
    4900:	6b 85       	ldd	r22, Y+11	; 0x0b
    4902:	7c 85       	ldd	r23, Y+12	; 0x0c
    4904:	88 2d       	mov	r24, r8
    4906:	99 2d       	mov	r25, r9
    4908:	0e 94 82 3d 	call	0x7b04	; 0x7b04 <__umoddi3>
    490c:	82 2e       	mov	r8, r18
    490e:	93 2e       	mov	r9, r19
    4910:	f4 01       	movw	r30, r8
    4912:	ed 5b       	subi	r30, 0xBD	; 189
    4914:	fe 4b       	sbci	r31, 0xBE	; 190
    4916:	80 81       	ld	r24, Z
    4918:	80 93 84 41 	sts	0x4184, r24	; 0x804184 <DIGIT+0xb>
		}

//-------------------------------------------------------------------------------------------------
		if(Value)							// ь╕бьаХь▓┤ьдСьЭ┤ ьЮИьЬ╝ый┤
    491c:	41 14       	cp	r4, r1
    491e:	51 04       	cpc	r5, r1
    4920:	61 04       	cpc	r6, r1
    4922:	71 04       	cpc	r7, r1
    4924:	c9 f1       	breq	.+114    	; 0x4998 <Interval_Set+0x4fa>

	while(SET.Menu && SET.Select)						// ыйФыЙ┤ъ░А 1 ьЭ┤ый┤ ы░Шы│╡
	{
		Timer.RegExitTimer = 0;						// ым┤ъ▓МьЭШ ьЧ░ьЖН ь╕бьаХьЭД ьЬДэХ┤ RegExitTimer ь┤Иъ╕░эЩФ
		Value_Count = 0;
		Old_Value = CELL.Old_Value;
    4926:	4d 85       	ldd	r20, Y+13	; 0x0d
    4928:	5e 85       	ldd	r21, Y+14	; 0x0e
    492a:	6f 85       	ldd	r22, Y+15	; 0x0f
    492c:	78 89       	ldd	r23, Y+16	; 0x10
		}

//-------------------------------------------------------------------------------------------------
		if(Value)							// ь╕бьаХь▓┤ьдСьЭ┤ ьЮИьЬ╝ый┤
		{
			if((Old_Value <= Value + Admit_Weight) && (Old_Value >= Value - Admit_Weight))
    492e:	d3 01       	movw	r26, r6
    4930:	c2 01       	movw	r24, r4
    4932:	05 96       	adiw	r24, 0x05	; 5
    4934:	a1 1d       	adc	r26, r1
    4936:	b1 1d       	adc	r27, r1
    4938:	84 17       	cp	r24, r20
    493a:	95 07       	cpc	r25, r21
    493c:	a6 07       	cpc	r26, r22
    493e:	b7 07       	cpc	r27, r23
    4940:	a0 f0       	brcs	.+40     	; 0x496a <Interval_Set+0x4cc>
    4942:	d3 01       	movw	r26, r6
    4944:	c2 01       	movw	r24, r4
    4946:	05 97       	sbiw	r24, 0x05	; 5
    4948:	a1 09       	sbc	r26, r1
    494a:	b1 09       	sbc	r27, r1
    494c:	48 17       	cp	r20, r24
    494e:	59 07       	cpc	r21, r25
    4950:	6a 07       	cpc	r22, r26
    4952:	7b 07       	cpc	r23, r27
    4954:	50 f0       	brcs	.+20     	; 0x496a <Interval_Set+0x4cc>
			{							// ьЭ┤ьаДь▓┤ьдСьЭ┤ ь╕бьаХь▓┤ьдСъ│╝ ьЭ╕ьжЭь▓┤ьдС(25x10g)ьЭД ыНФэХЬъ░Тъ│╝ ъ░Щъ▒░ыВШ ьЮСъ│а ьЭ╕ьжЭь▓┤ьдС(25x10g)ьЭД ы║Аъ░Тъ│╝ ъ░Щъ▒░ыВШ эБмый┤ьДЬ ьЭ┤ьаДь▓┤ьдСъ│╝ ъ░ЩьЬ╝ый┤
				CELL.Value = Old_Value;
    4956:	40 93 1d 51 	sts	0x511D, r20	; 0x80511d <CELL+0x1>
    495a:	50 93 1e 51 	sts	0x511E, r21	; 0x80511e <CELL+0x2>
    495e:	60 93 1f 51 	sts	0x511F, r22	; 0x80511f <CELL+0x3>
    4962:	70 93 20 51 	sts	0x5120, r23	; 0x805120 <CELL+0x4>
				Zero_Count = 0;
    4966:	10 92 8b 52 	sts	0x528B, r1	; 0x80528b <Zero_Count>
			}
			CELL.Old_Value = (Old_Value + Value)/2;			// ьЭ┤ьаДь▓┤ьдСьЧР ь╕бьаХь▓┤ьдС ьаАьЮе
    496a:	8d 85       	ldd	r24, Y+13	; 0x0d
    496c:	9e 85       	ldd	r25, Y+14	; 0x0e
    496e:	af 85       	ldd	r26, Y+15	; 0x0f
    4970:	b8 89       	ldd	r27, Y+16	; 0x10
    4972:	84 0d       	add	r24, r4
    4974:	95 1d       	adc	r25, r5
    4976:	a6 1d       	adc	r26, r6
    4978:	b7 1d       	adc	r27, r7
    497a:	b6 95       	lsr	r27
    497c:	a7 95       	ror	r26
    497e:	97 95       	ror	r25
    4980:	87 95       	ror	r24
    4982:	80 93 25 51 	sts	0x5125, r24	; 0x805125 <CELL+0x9>
    4986:	90 93 26 51 	sts	0x5126, r25	; 0x805126 <CELL+0xa>
    498a:	a0 93 27 51 	sts	0x5127, r26	; 0x805127 <CELL+0xb>
    498e:	b0 93 28 51 	sts	0x5128, r27	; 0x805128 <CELL+0xc>
			Cell_Desplay();						// ыбЬыУЬьЕА ым┤ъ▓М эСЬьЛЬ
    4992:	0e 94 1b 19 	call	0x3236	; 0x3236 <Cell_Desplay>
    4996:	1b c0       	rjmp	.+54     	; 0x49ce <Interval_Set+0x530>
		}
		else								// ь╕бьаХь▓┤ьдСьЭ┤ ьЧЖый┤
		{
			Zero_Count++;						// Zero_Count ьжЭъ░А
    4998:	80 91 8b 52 	lds	r24, 0x528B	; 0x80528b <Zero_Count>
    499c:	8f 5f       	subi	r24, 0xFF	; 255
    499e:	80 93 8b 52 	sts	0x528B, r24	; 0x80528b <Zero_Count>
			if(Zero_Count > 5)					// Zero_Count ьЭ┤ 2ы│┤ыЛд эБмый┤
    49a2:	86 30       	cpi	r24, 0x06	; 6
    49a4:	a0 f0       	brcs	.+40     	; 0x49ce <Interval_Set+0x530>
			{
				CELL.Old_Value = 0;				// ьЭ┤ьаДь╕бьаХь▓┤ьдС ь┤Иъ╕░эЩФ
    49a6:	10 92 25 51 	sts	0x5125, r1	; 0x805125 <CELL+0x9>
    49aa:	10 92 26 51 	sts	0x5126, r1	; 0x805126 <CELL+0xa>
    49ae:	10 92 27 51 	sts	0x5127, r1	; 0x805127 <CELL+0xb>
    49b2:	10 92 28 51 	sts	0x5128, r1	; 0x805128 <CELL+0xc>
				CELL.Value = Value;
    49b6:	10 92 1d 51 	sts	0x511D, r1	; 0x80511d <CELL+0x1>
    49ba:	10 92 1e 51 	sts	0x511E, r1	; 0x80511e <CELL+0x2>
    49be:	10 92 1f 51 	sts	0x511F, r1	; 0x80511f <CELL+0x3>
    49c2:	10 92 20 51 	sts	0x5120, r1	; 0x805120 <CELL+0x4>
				Zero_Count = 0;					// Zero_Count ь┤Иъ╕░эЩФ
    49c6:	10 92 8b 52 	sts	0x528B, r1	; 0x80528b <Zero_Count>
				Cell_Desplay();					// ыбЬыУЬьЕА ым┤ъ▓М эСЬьЛЬ
    49ca:	0e 94 1b 19 	call	0x3236	; 0x3236 <Cell_Desplay>
	#else
		//round up by default
		__ticks_dc = (uint32_t)(ceil(fabs(__tmp)));
	#endif

	__builtin_avr_delay_cycles(__ticks_dc);
    49ce:	9f ef       	ldi	r25, 0xFF	; 255
    49d0:	af e3       	ldi	r26, 0x3F	; 63
    49d2:	b2 e0       	ldi	r27, 0x02	; 2
    49d4:	91 50       	subi	r25, 0x01	; 1
    49d6:	a0 40       	sbci	r26, 0x00	; 0
    49d8:	b0 40       	sbci	r27, 0x00	; 0
    49da:	e1 f7       	brne	.-8      	; 0x49d4 <Interval_Set+0x536>
    49dc:	00 c0       	rjmp	.+0      	; 0x49de <Interval_Set+0x540>
    49de:	00 00       	nop
			}
		}
		_delay_ms(50);
		wdt_reset();							// ьЫМь╣ШыПЕ ыжмьЕЛ
    49e0:	0e 94 18 14 	call	0x2830	; 0x2830 <wdt_reset>
	RO_1000  = RO % 10000 / 1000;						// ыбЬыУЬьЕА RO  1000ьЭШ ьЮРыжм
	RO_100   = RO % 1000 / 100;						// ыбЬыУЬьЕА RO   100ьЭШ ьЮРыжм
	RO_10    = RO % 100 / 10;						// ыбЬыУЬьЕА RO    10ьЭШ ьЮРыжм
	RO_1     = RO % 10;							// ыбЬыУЬьЕА RO     1ьЭШ ьЮРыжм

	while(SET.Menu && SET.Select)						// ыйФыЙ┤ъ░А 1 ьЭ┤ый┤ ы░Шы│╡
    49e4:	ee e0       	ldi	r30, 0x0E	; 14
    49e6:	f1 e5       	ldi	r31, 0x51	; 81
    49e8:	80 81       	ld	r24, Z
    49ea:	88 23       	and	r24, r24
    49ec:	21 f0       	breq	.+8      	; 0x49f6 <Interval_Set+0x558>
    49ee:	80 91 0f 51 	lds	r24, 0x510F	; 0x80510f <SET+0x1>
    49f2:	81 11       	cpse	r24, r1
    49f4:	31 ce       	rjmp	.-926    	; 0x4658 <Interval_Set+0x1ba>
			}
		}
		_delay_ms(50);
		wdt_reset();							// ьЫМь╣ШыПЕ ыжмьЕЛ
	}
	ee_write_dword(Cell_RO_Addr, RO);					// ыбЬыУЬьЕА ROъ░Т ьаАьЮе
    49f6:	40 91 13 51 	lds	r20, 0x5113	; 0x805113 <RO>
    49fa:	50 91 14 51 	lds	r21, 0x5114	; 0x805114 <RO+0x1>
    49fe:	60 91 15 51 	lds	r22, 0x5115	; 0x805115 <RO+0x2>
    4a02:	70 91 16 51 	lds	r23, 0x5116	; 0x805116 <RO+0x3>
    4a06:	8c e0       	ldi	r24, 0x0C	; 12
    4a08:	90 e0       	ldi	r25, 0x00	; 0
    4a0a:	0e 94 1e 15 	call	0x2a3c	; 0x2a3c <ee_write_dword>
}
    4a0e:	60 96       	adiw	r28, 0x10	; 16
    4a10:	cd bf       	out	0x3d, r28	; 61
    4a12:	de bf       	out	0x3e, r29	; 62
    4a14:	df 91       	pop	r29
    4a16:	cf 91       	pop	r28
    4a18:	1f 91       	pop	r17
    4a1a:	0f 91       	pop	r16
    4a1c:	ff 90       	pop	r15
    4a1e:	ef 90       	pop	r14
    4a20:	df 90       	pop	r13
    4a22:	cf 90       	pop	r12
    4a24:	bf 90       	pop	r11
    4a26:	af 90       	pop	r10
    4a28:	9f 90       	pop	r9
    4a2a:	8f 90       	pop	r8
    4a2c:	7f 90       	pop	r7
    4a2e:	6f 90       	pop	r6
    4a30:	5f 90       	pop	r5
    4a32:	4f 90       	pop	r4
    4a34:	3f 90       	pop	r3
    4a36:	2f 90       	pop	r2
    4a38:	08 95       	ret

00004a3a <CAPA_Set>:

//=================================================================================================
void CAPA_Set(void)								// CAPA ьДдьаХ
{
    4a3a:	8f 92       	push	r8
    4a3c:	9f 92       	push	r9
    4a3e:	af 92       	push	r10
    4a40:	bf 92       	push	r11
    4a42:	cf 92       	push	r12
    4a44:	df 92       	push	r13
    4a46:	ef 92       	push	r14
    4a48:	ff 92       	push	r15
    4a4a:	0f 93       	push	r16
    4a4c:	1f 93       	push	r17
    4a4e:	cf 93       	push	r28
    4a50:	df 93       	push	r29
	DIGIT[2][0] = FND_OFF;							// ыбЬыУЬьЕА RO, ьЮЕъ╡мь▓┤ьдС 1ьЭШ ьЮРыжм ьзАьЪ░ъ╕░
    4a52:	10 92 81 41 	sts	0x4181, r1	; 0x804181 <DIGIT+0x8>

	Cell_Capa = ee_read_word(Cell_Capa_Addr);				// 1ы▓И ыбЬыУЬьЕА ьЭ┤ый┤ ьЪйыЯЙъ░Т ы╢ИыЯмьШдъ╕░
    4a56:	88 e0       	ldi	r24, 0x08	; 8
    4a58:	90 e0       	ldi	r25, 0x00	; 0
    4a5a:	0e 94 c5 14 	call	0x298a	; 0x298a <ee_read_word>
    4a5e:	6c 01       	movw	r12, r24
    4a60:	e1 2c       	mov	r14, r1
    4a62:	f1 2c       	mov	r15, r1
    4a64:	c0 92 63 51 	sts	0x5163, r12	; 0x805163 <Cell_Capa>
    4a68:	d0 92 64 51 	sts	0x5164, r13	; 0x805164 <Cell_Capa+0x1>
    4a6c:	e0 92 65 51 	sts	0x5165, r14	; 0x805165 <Cell_Capa+0x2>
    4a70:	f0 92 66 51 	sts	0x5166, r15	; 0x805166 <Cell_Capa+0x3>
//-------------------------------------------------------------------------------------------------
	CAPA_1000 = Cell_Capa / 1000;						// ыбЬыУЬьЕА CAPA 1000ьЭШ ьЮРыжм
    4a74:	c7 01       	movw	r24, r14
    4a76:	b6 01       	movw	r22, r12
    4a78:	28 ee       	ldi	r18, 0xE8	; 232
    4a7a:	33 e0       	ldi	r19, 0x03	; 3
    4a7c:	40 e0       	ldi	r20, 0x00	; 0
    4a7e:	50 e0       	ldi	r21, 0x00	; 0
    4a80:	0e 94 c5 3c 	call	0x798a	; 0x798a <__udivmodsi4>
    4a84:	20 93 a9 41 	sts	0x41A9, r18	; 0x8041a9 <CAPA_1000>
	CAPA_100  = Cell_Capa % 1000 / 100;					// ыбЬыУЬьЕА CAPA 100ьЭШ ьЮРыжм
    4a88:	0f 2e       	mov	r0, r31
    4a8a:	f4 e6       	ldi	r31, 0x64	; 100
    4a8c:	8f 2e       	mov	r8, r31
    4a8e:	91 2c       	mov	r9, r1
    4a90:	a1 2c       	mov	r10, r1
    4a92:	b1 2c       	mov	r11, r1
    4a94:	f0 2d       	mov	r31, r0
    4a96:	a5 01       	movw	r20, r10
    4a98:	94 01       	movw	r18, r8
    4a9a:	0e 94 c5 3c 	call	0x798a	; 0x798a <__udivmodsi4>
    4a9e:	20 93 5c 51 	sts	0x515C, r18	; 0x80515c <CAPA_100>
	CAPA_10   = Cell_Capa % 100 / 10;					// ыбЬыУЬьЕА CAPA  10ьЭШ ьЮРыжм
    4aa2:	c7 01       	movw	r24, r14
    4aa4:	b6 01       	movw	r22, r12
    4aa6:	a5 01       	movw	r20, r10
    4aa8:	94 01       	movw	r18, r8
    4aaa:	0e 94 c5 3c 	call	0x798a	; 0x798a <__udivmodsi4>
    4aae:	0f 2e       	mov	r0, r31
    4ab0:	fa e0       	ldi	r31, 0x0A	; 10
    4ab2:	8f 2e       	mov	r8, r31
    4ab4:	91 2c       	mov	r9, r1
    4ab6:	a1 2c       	mov	r10, r1
    4ab8:	b1 2c       	mov	r11, r1
    4aba:	f0 2d       	mov	r31, r0
    4abc:	a5 01       	movw	r20, r10
    4abe:	94 01       	movw	r18, r8
    4ac0:	0e 94 c5 3c 	call	0x798a	; 0x798a <__udivmodsi4>
    4ac4:	20 93 62 51 	sts	0x5162, r18	; 0x805162 <CAPA_10>
	CAPA_1    = Cell_Capa % 10;						// ыбЬыУЬьЕА CAPA   1ьЭШ ьЮРыжм
    4ac8:	c7 01       	movw	r24, r14
    4aca:	b6 01       	movw	r22, r12
    4acc:	a5 01       	movw	r20, r10
    4ace:	94 01       	movw	r18, r8
    4ad0:	0e 94 c5 3c 	call	0x798a	; 0x798a <__udivmodsi4>
    4ad4:	60 93 31 51 	sts	0x5131, r22	; 0x805131 <CAPA_1>
//-------------------------------------------------------------------------------------------------
	while(SET.Menu)								// ыйФыЙ┤ъ░А 1 ьЭ┤ый┤ ы░Шы│╡
    4ad8:	80 91 0e 51 	lds	r24, 0x510E	; 0x80510e <SET>
    4adc:	88 23       	and	r24, r24
    4ade:	09 f4       	brne	.+2      	; 0x4ae2 <CAPA_Set+0xa8>
    4ae0:	f0 c0       	rjmp	.+480    	; 0x4cc2 <CAPA_Set+0x288>
	{
		SET.Blink = 1;							// ьЮРыж┐ьИШ ъ╣Ьы░ХьЮД ьДдьаХ
    4ae2:	0e e0       	ldi	r16, 0x0E	; 14
    4ae4:	11 e5       	ldi	r17, 0x51	; 81
    4ae6:	dd 24       	eor	r13, r13
    4ae8:	d3 94       	inc	r13

		switch(KEY.Count)						// ьДаэГЭ Key ъ░А ыИМыж░эЪЯьИШ
    4aea:	cb e4       	ldi	r28, 0x4B	; 75
    4aec:	d1 e5       	ldi	r29, 0x51	; 81
					else if(KEY.Key == 3 && CAPA_10 > 0) {CAPA_10--; KEY.Key = 0;}		// ыЛдьЪ┤ы▓ДэК╝ ьЭ┤ый┤ CAPAъ░Т 10ьЭШ ьЮРыжм ъ░РьЖМ
				}
			break;

			case 3:							// ыбЬыУЬьЕА CAPA 1ьЭШ ьЮРыжм
				DIGIT[1][1] = fnd_tbl[CAPA_10];			// ыбЬыУЬьЕА CAPA 10ьЭШ ьЮРыжм эСЬьЛЬ
    4aee:	0f 2e       	mov	r0, r31
    4af0:	f9 e7       	ldi	r31, 0x79	; 121
    4af2:	ef 2e       	mov	r14, r31
    4af4:	f1 e4       	ldi	r31, 0x41	; 65
    4af6:	ff 2e       	mov	r15, r31
    4af8:	f0 2d       	mov	r31, r0
	CAPA_10   = Cell_Capa % 100 / 10;					// ыбЬыУЬьЕА CAPA  10ьЭШ ьЮРыжм
	CAPA_1    = Cell_Capa % 10;						// ыбЬыУЬьЕА CAPA   1ьЭШ ьЮРыжм
//-------------------------------------------------------------------------------------------------
	while(SET.Menu)								// ыйФыЙ┤ъ░А 1 ьЭ┤ый┤ ы░Шы│╡
	{
		SET.Blink = 1;							// ьЮРыж┐ьИШ ъ╣Ьы░ХьЮД ьДдьаХ
    4afa:	f8 01       	movw	r30, r16
    4afc:	d3 82       	std	Z+3, r13	; 0x03

		switch(KEY.Count)						// ьДаэГЭ Key ъ░А ыИМыж░эЪЯьИШ
    4afe:	88 81       	ld	r24, Y
    4b00:	82 30       	cpi	r24, 0x02	; 2
    4b02:	09 f4       	brne	.+2      	; 0x4b06 <CAPA_Set+0xcc>
    4b04:	74 c0       	rjmp	.+232    	; 0x4bee <CAPA_Set+0x1b4>
    4b06:	28 f4       	brcc	.+10     	; 0x4b12 <CAPA_Set+0xd8>
    4b08:	88 23       	and	r24, r24
    4b0a:	51 f0       	breq	.+20     	; 0x4b20 <CAPA_Set+0xe6>
    4b0c:	81 30       	cpi	r24, 0x01	; 1
    4b0e:	d9 f1       	breq	.+118    	; 0x4b86 <CAPA_Set+0x14c>
    4b10:	d2 c0       	rjmp	.+420    	; 0x4cb6 <CAPA_Set+0x27c>
    4b12:	83 30       	cpi	r24, 0x03	; 3
    4b14:	09 f4       	brne	.+2      	; 0x4b18 <CAPA_Set+0xde>
    4b16:	9d c0       	rjmp	.+314    	; 0x4c52 <CAPA_Set+0x218>
    4b18:	84 30       	cpi	r24, 0x04	; 4
    4b1a:	09 f4       	brne	.+2      	; 0x4b1e <CAPA_Set+0xe4>
    4b1c:	cb c0       	rjmp	.+406    	; 0x4cb4 <CAPA_Set+0x27a>
    4b1e:	cb c0       	rjmp	.+406    	; 0x4cb6 <CAPA_Set+0x27c>
		{
			case 0:							// ыбЬыУЬьЕА CAPA 1000ьЭШ ьЮРыжм
				DIGIT[1][0] = fnd_tbl[CAPA_1];			// ыбЬыУЬьЕА CAPA    1ьЭШ ьЮРыжм эСЬьЛЬ
    4b20:	e0 91 31 51 	lds	r30, 0x5131	; 0x805131 <CAPA_1>
    4b24:	f0 e0       	ldi	r31, 0x00	; 0
    4b26:	ed 5b       	subi	r30, 0xBD	; 189
    4b28:	fe 4b       	sbci	r31, 0xBE	; 190
    4b2a:	80 81       	ld	r24, Z
    4b2c:	f7 01       	movw	r30, r14
    4b2e:	84 83       	std	Z+4, r24	; 0x04
				if(Blink) {DIGIT[1][3] = FND_OFF;}		// Blink = 1 ьЭ┤ый┤ ыбЬыУЬьЕА CAPA 100ьЭШ ьЮРыжм OFF
    4b30:	80 91 71 51 	lds	r24, 0x5171	; 0x805171 <Blink>
    4b34:	88 23       	and	r24, r24
    4b36:	11 f0       	breq	.+4      	; 0x4b3c <CAPA_Set+0x102>
    4b38:	17 82       	std	Z+7, r1	; 0x07
    4b3a:	08 c0       	rjmp	.+16     	; 0x4b4c <CAPA_Set+0x112>
				else	  {DIGIT[1][3] = fnd_tbl[CAPA_1000];}	// Blink = 0 ьЭ┤ый┤ ыбЬыУЬьЕА CAPA 100ьЭШ ьЮРыжм эСЬьЛЬ
    4b3c:	e0 91 a9 41 	lds	r30, 0x41A9	; 0x8041a9 <CAPA_1000>
    4b40:	f0 e0       	ldi	r31, 0x00	; 0
    4b42:	ed 5b       	subi	r30, 0xBD	; 189
    4b44:	fe 4b       	sbci	r31, 0xBE	; 190
    4b46:	80 81       	ld	r24, Z
    4b48:	f7 01       	movw	r30, r14
    4b4a:	87 83       	std	Z+7, r24	; 0x07

				if(KEY.Buff)					// Key ьЮЕыаеьЭ┤ ьЮИьЬ╝ый┤
    4b4c:	89 81       	ldd	r24, Y+1	; 0x01
    4b4e:	88 23       	and	r24, r24
    4b50:	09 f4       	brne	.+2      	; 0x4b54 <CAPA_Set+0x11a>
    4b52:	b1 c0       	rjmp	.+354    	; 0x4cb6 <CAPA_Set+0x27c>
				{
					if     (KEY.Key == 1 && CAPA_1000 < 1) {CAPA_1000++; KEY.Key = 0;}	// ьЧЕ  ы▓ДэК╝ ьЭ┤ый┤ CAPAъ░Т 1000ьЭШ ьЮРыжм ьжЭъ░А
    4b54:	8a 81       	ldd	r24, Y+2	; 0x02
    4b56:	81 30       	cpi	r24, 0x01	; 1
    4b58:	41 f4       	brne	.+16     	; 0x4b6a <CAPA_Set+0x130>
    4b5a:	80 91 a9 41 	lds	r24, 0x41A9	; 0x8041a9 <CAPA_1000>
    4b5e:	81 11       	cpse	r24, r1
    4b60:	02 c1       	rjmp	.+516    	; 0x4d66 <CAPA_Set+0x32c>
    4b62:	d0 92 a9 41 	sts	0x41A9, r13	; 0x8041a9 <CAPA_1000>
    4b66:	1a 82       	std	Y+2, r1	; 0x02
    4b68:	a6 c0       	rjmp	.+332    	; 0x4cb6 <CAPA_Set+0x27c>
					else if(KEY.Key == 3 && CAPA_1000 > 0) {CAPA_1000--; KEY.Key = 0;}	// ыЛдьЪ┤ы▓ДэК╝ ьЭ┤ый┤ CAPAъ░Т 1000ьЭШ ьЮРыжм ъ░РьЖМ
    4b6a:	8a 81       	ldd	r24, Y+2	; 0x02
    4b6c:	83 30       	cpi	r24, 0x03	; 3
    4b6e:	09 f0       	breq	.+2      	; 0x4b72 <CAPA_Set+0x138>
    4b70:	a2 c0       	rjmp	.+324    	; 0x4cb6 <CAPA_Set+0x27c>
    4b72:	80 91 a9 41 	lds	r24, 0x41A9	; 0x8041a9 <CAPA_1000>
    4b76:	88 23       	and	r24, r24
    4b78:	09 f4       	brne	.+2      	; 0x4b7c <CAPA_Set+0x142>
    4b7a:	9d c0       	rjmp	.+314    	; 0x4cb6 <CAPA_Set+0x27c>
    4b7c:	81 50       	subi	r24, 0x01	; 1
    4b7e:	80 93 a9 41 	sts	0x41A9, r24	; 0x8041a9 <CAPA_1000>
    4b82:	1a 82       	std	Y+2, r1	; 0x02
    4b84:	98 c0       	rjmp	.+304    	; 0x4cb6 <CAPA_Set+0x27c>
				}
			break;

			case 1:							// ыбЬыУЬьЕА CAPA  100ьЭШ ьЮРыжм
				DIGIT[1][3] = fnd_tbl[CAPA_1000];		// ыбЬыУЬьЕА CAPA 1000ьЭШ ьЮРыжм эСЬьЛЬ
    4b86:	e0 91 a9 41 	lds	r30, 0x41A9	; 0x8041a9 <CAPA_1000>
    4b8a:	f0 e0       	ldi	r31, 0x00	; 0
    4b8c:	ed 5b       	subi	r30, 0xBD	; 189
    4b8e:	fe 4b       	sbci	r31, 0xBE	; 190
    4b90:	80 81       	ld	r24, Z
    4b92:	f7 01       	movw	r30, r14
    4b94:	87 83       	std	Z+7, r24	; 0x07
				if(Blink) {DIGIT[1][2] = FND_OFF;}		// Blink = 1 ьЭ┤ый┤ ыбЬыУЬьЕА CAPA 100ьЭШ ьЮРыжм OFF
    4b96:	80 91 71 51 	lds	r24, 0x5171	; 0x805171 <Blink>
    4b9a:	88 23       	and	r24, r24
    4b9c:	11 f0       	breq	.+4      	; 0x4ba2 <CAPA_Set+0x168>
    4b9e:	16 82       	std	Z+6, r1	; 0x06
    4ba0:	08 c0       	rjmp	.+16     	; 0x4bb2 <CAPA_Set+0x178>
				else	  {DIGIT[1][2] = fnd_tbl[CAPA_100];}	// Blink = 0 ьЭ┤ый┤ ыбЬыУЬьЕА CAPA 100ьЭШ ьЮРыжм эСЬьЛЬ
    4ba2:	e0 91 5c 51 	lds	r30, 0x515C	; 0x80515c <CAPA_100>
    4ba6:	f0 e0       	ldi	r31, 0x00	; 0
    4ba8:	ed 5b       	subi	r30, 0xBD	; 189
    4baa:	fe 4b       	sbci	r31, 0xBE	; 190
    4bac:	80 81       	ld	r24, Z
    4bae:	f7 01       	movw	r30, r14
    4bb0:	86 83       	std	Z+6, r24	; 0x06

				if(KEY.Buff)					// Key ьЮЕыаеьЭ┤ ьЮИьЬ╝ый┤
    4bb2:	89 81       	ldd	r24, Y+1	; 0x01
    4bb4:	88 23       	and	r24, r24
    4bb6:	09 f4       	brne	.+2      	; 0x4bba <CAPA_Set+0x180>
    4bb8:	7e c0       	rjmp	.+252    	; 0x4cb6 <CAPA_Set+0x27c>
				{
					if     (KEY.Key == 1 && CAPA_100 < 9) {CAPA_100++; KEY.Key = 0;}	// ьЧЕ  ы▓ДэК╝ ьЭ┤ый┤ CAPAъ░Т 100ьЭШ ьЮРыжм ьжЭъ░А
    4bba:	8a 81       	ldd	r24, Y+2	; 0x02
    4bbc:	81 30       	cpi	r24, 0x01	; 1
    4bbe:	49 f4       	brne	.+18     	; 0x4bd2 <CAPA_Set+0x198>
    4bc0:	80 91 5c 51 	lds	r24, 0x515C	; 0x80515c <CAPA_100>
    4bc4:	89 30       	cpi	r24, 0x09	; 9
    4bc6:	28 f4       	brcc	.+10     	; 0x4bd2 <CAPA_Set+0x198>
    4bc8:	8f 5f       	subi	r24, 0xFF	; 255
    4bca:	80 93 5c 51 	sts	0x515C, r24	; 0x80515c <CAPA_100>
    4bce:	1a 82       	std	Y+2, r1	; 0x02
    4bd0:	72 c0       	rjmp	.+228    	; 0x4cb6 <CAPA_Set+0x27c>
					else if(KEY.Key == 3 && CAPA_100 > 0) {CAPA_100--; KEY.Key = 0;}	// ыЛдьЪ┤ы▓ДэК╝ ьЭ┤ый┤ CAPAъ░Т 100ьЭШ ьЮРыжм ъ░РьЖМ
    4bd2:	8a 81       	ldd	r24, Y+2	; 0x02
    4bd4:	83 30       	cpi	r24, 0x03	; 3
    4bd6:	09 f0       	breq	.+2      	; 0x4bda <CAPA_Set+0x1a0>
    4bd8:	6e c0       	rjmp	.+220    	; 0x4cb6 <CAPA_Set+0x27c>
    4bda:	80 91 5c 51 	lds	r24, 0x515C	; 0x80515c <CAPA_100>
    4bde:	88 23       	and	r24, r24
    4be0:	09 f4       	brne	.+2      	; 0x4be4 <CAPA_Set+0x1aa>
    4be2:	69 c0       	rjmp	.+210    	; 0x4cb6 <CAPA_Set+0x27c>
    4be4:	81 50       	subi	r24, 0x01	; 1
    4be6:	80 93 5c 51 	sts	0x515C, r24	; 0x80515c <CAPA_100>
    4bea:	1a 82       	std	Y+2, r1	; 0x02
    4bec:	64 c0       	rjmp	.+200    	; 0x4cb6 <CAPA_Set+0x27c>
				}
			break;

			case 2:							// ыбЬыУЬьЕА CAPA 10ьЭШ ьЮРыжм
				DIGIT[1][2] = fnd_tbl[CAPA_100];		// ыбЬыУЬьЕА CAPA 100ьЭШ ьЮРыжм эСЬьЛЬ
    4bee:	e0 91 5c 51 	lds	r30, 0x515C	; 0x80515c <CAPA_100>
    4bf2:	f0 e0       	ldi	r31, 0x00	; 0
    4bf4:	ed 5b       	subi	r30, 0xBD	; 189
    4bf6:	fe 4b       	sbci	r31, 0xBE	; 190
    4bf8:	80 81       	ld	r24, Z
    4bfa:	f7 01       	movw	r30, r14
    4bfc:	86 83       	std	Z+6, r24	; 0x06
				if(Blink) {DIGIT[1][1] = FND_OFF;}		// Blink = 1 ьЭ┤ый┤ ыбЬыУЬьЕА CAPA 10ьЭШ ьЮРыжм OFF
    4bfe:	80 91 71 51 	lds	r24, 0x5171	; 0x805171 <Blink>
    4c02:	88 23       	and	r24, r24
    4c04:	11 f0       	breq	.+4      	; 0x4c0a <CAPA_Set+0x1d0>
    4c06:	15 82       	std	Z+5, r1	; 0x05
    4c08:	08 c0       	rjmp	.+16     	; 0x4c1a <CAPA_Set+0x1e0>
				else	  {DIGIT[1][1] = fnd_tbl[CAPA_10];}	// Blink = 0 ьЭ┤ый┤ ыбЬыУЬьЕА CAPA 10ьЭШ ьЮРыжм эСЬьЛЬ
    4c0a:	e0 91 62 51 	lds	r30, 0x5162	; 0x805162 <CAPA_10>
    4c0e:	f0 e0       	ldi	r31, 0x00	; 0
    4c10:	ed 5b       	subi	r30, 0xBD	; 189
    4c12:	fe 4b       	sbci	r31, 0xBE	; 190
    4c14:	80 81       	ld	r24, Z
    4c16:	f7 01       	movw	r30, r14
    4c18:	85 83       	std	Z+5, r24	; 0x05

				if(KEY.Buff)					// Key ьЮЕыаеьЭ┤ ьЮИьЬ╝ый┤
    4c1a:	89 81       	ldd	r24, Y+1	; 0x01
    4c1c:	88 23       	and	r24, r24
    4c1e:	09 f4       	brne	.+2      	; 0x4c22 <CAPA_Set+0x1e8>
    4c20:	4a c0       	rjmp	.+148    	; 0x4cb6 <CAPA_Set+0x27c>
				{
					if     (KEY.Key == 1 && CAPA_10 < 9) {CAPA_10++; KEY.Key = 0;}		// ьЧЕ  ы▓ДэК╝ ьЭ┤ый┤ CAPAъ░Т 10ьЭШ ьЮРыжм ьжЭъ░А
    4c22:	8a 81       	ldd	r24, Y+2	; 0x02
    4c24:	81 30       	cpi	r24, 0x01	; 1
    4c26:	49 f4       	brne	.+18     	; 0x4c3a <CAPA_Set+0x200>
    4c28:	80 91 62 51 	lds	r24, 0x5162	; 0x805162 <CAPA_10>
    4c2c:	89 30       	cpi	r24, 0x09	; 9
    4c2e:	28 f4       	brcc	.+10     	; 0x4c3a <CAPA_Set+0x200>
    4c30:	8f 5f       	subi	r24, 0xFF	; 255
    4c32:	80 93 62 51 	sts	0x5162, r24	; 0x805162 <CAPA_10>
    4c36:	1a 82       	std	Y+2, r1	; 0x02
    4c38:	3e c0       	rjmp	.+124    	; 0x4cb6 <CAPA_Set+0x27c>
					else if(KEY.Key == 3 && CAPA_10 > 0) {CAPA_10--; KEY.Key = 0;}		// ыЛдьЪ┤ы▓ДэК╝ ьЭ┤ый┤ CAPAъ░Т 10ьЭШ ьЮРыжм ъ░РьЖМ
    4c3a:	8a 81       	ldd	r24, Y+2	; 0x02
    4c3c:	83 30       	cpi	r24, 0x03	; 3
    4c3e:	d9 f5       	brne	.+118    	; 0x4cb6 <CAPA_Set+0x27c>
    4c40:	80 91 62 51 	lds	r24, 0x5162	; 0x805162 <CAPA_10>
    4c44:	88 23       	and	r24, r24
    4c46:	b9 f1       	breq	.+110    	; 0x4cb6 <CAPA_Set+0x27c>
    4c48:	81 50       	subi	r24, 0x01	; 1
    4c4a:	80 93 62 51 	sts	0x5162, r24	; 0x805162 <CAPA_10>
    4c4e:	1a 82       	std	Y+2, r1	; 0x02
    4c50:	32 c0       	rjmp	.+100    	; 0x4cb6 <CAPA_Set+0x27c>
				}
			break;

			case 3:							// ыбЬыУЬьЕА CAPA 1ьЭШ ьЮРыжм
				DIGIT[1][1] = fnd_tbl[CAPA_10];			// ыбЬыУЬьЕА CAPA 10ьЭШ ьЮРыжм эСЬьЛЬ
    4c52:	e0 91 62 51 	lds	r30, 0x5162	; 0x805162 <CAPA_10>
    4c56:	f0 e0       	ldi	r31, 0x00	; 0
    4c58:	ed 5b       	subi	r30, 0xBD	; 189
    4c5a:	fe 4b       	sbci	r31, 0xBE	; 190
    4c5c:	80 81       	ld	r24, Z
    4c5e:	f7 01       	movw	r30, r14
    4c60:	85 83       	std	Z+5, r24	; 0x05
				if(Blink) {DIGIT[1][0] = FND_OFF;}		// Blink = 1 ьЭ┤ый┤ ыбЬыУЬьЕА CAPA 1ьЭШ ьЮРыжм OFF
    4c62:	80 91 71 51 	lds	r24, 0x5171	; 0x805171 <Blink>
    4c66:	88 23       	and	r24, r24
    4c68:	11 f0       	breq	.+4      	; 0x4c6e <CAPA_Set+0x234>
    4c6a:	14 82       	std	Z+4, r1	; 0x04
    4c6c:	08 c0       	rjmp	.+16     	; 0x4c7e <CAPA_Set+0x244>
				else	  {DIGIT[1][0] = fnd_tbl[CAPA_1];}	// Blink = 0 ьЭ┤ый┤ ыбЬыУЬьЕА CAPA 1ьЭШ ьЮРыжм эСЬьЛЬ
    4c6e:	e0 91 31 51 	lds	r30, 0x5131	; 0x805131 <CAPA_1>
    4c72:	f0 e0       	ldi	r31, 0x00	; 0
    4c74:	ed 5b       	subi	r30, 0xBD	; 189
    4c76:	fe 4b       	sbci	r31, 0xBE	; 190
    4c78:	80 81       	ld	r24, Z
    4c7a:	f7 01       	movw	r30, r14
    4c7c:	84 83       	std	Z+4, r24	; 0x04

				if(KEY.Buff)					// Key ьЮЕыаеьЭ┤ ьЮИьЬ╝ый┤
    4c7e:	89 81       	ldd	r24, Y+1	; 0x01
    4c80:	88 23       	and	r24, r24
    4c82:	c9 f0       	breq	.+50     	; 0x4cb6 <CAPA_Set+0x27c>
				{
					if     (KEY.Key == 1 && CAPA_1 < 9) {CAPA_1++; KEY.Key = 0;}		// ьЧЕ  ы▓ДэК╝ ьЭ┤ый┤ CAPAъ░Т 1ьЭШ ьЮРыжм ьжЭъ░А
    4c84:	8a 81       	ldd	r24, Y+2	; 0x02
    4c86:	81 30       	cpi	r24, 0x01	; 1
    4c88:	49 f4       	brne	.+18     	; 0x4c9c <CAPA_Set+0x262>
    4c8a:	80 91 31 51 	lds	r24, 0x5131	; 0x805131 <CAPA_1>
    4c8e:	89 30       	cpi	r24, 0x09	; 9
    4c90:	28 f4       	brcc	.+10     	; 0x4c9c <CAPA_Set+0x262>
    4c92:	8f 5f       	subi	r24, 0xFF	; 255
    4c94:	80 93 31 51 	sts	0x5131, r24	; 0x805131 <CAPA_1>
    4c98:	1a 82       	std	Y+2, r1	; 0x02
    4c9a:	0d c0       	rjmp	.+26     	; 0x4cb6 <CAPA_Set+0x27c>
					else if(KEY.Key == 3 && CAPA_1 > 0) {CAPA_1--; KEY.Key = 0;}		// ыЛдьЪ┤ы▓ДэК╝ ьЭ┤ый┤ CAPAъ░Т 1ьЭШ ьЮРыжм ъ░РьЖМ
    4c9c:	8a 81       	ldd	r24, Y+2	; 0x02
    4c9e:	83 30       	cpi	r24, 0x03	; 3
    4ca0:	51 f4       	brne	.+20     	; 0x4cb6 <CAPA_Set+0x27c>
    4ca2:	80 91 31 51 	lds	r24, 0x5131	; 0x805131 <CAPA_1>
    4ca6:	88 23       	and	r24, r24
    4ca8:	31 f0       	breq	.+12     	; 0x4cb6 <CAPA_Set+0x27c>
    4caa:	81 50       	subi	r24, 0x01	; 1
    4cac:	80 93 31 51 	sts	0x5131, r24	; 0x805131 <CAPA_1>
    4cb0:	1a 82       	std	Y+2, r1	; 0x02
    4cb2:	01 c0       	rjmp	.+2      	; 0x4cb6 <CAPA_Set+0x27c>
				}
			break;

			case 4:
				KEY.Count = 0;					// ы░Шы│╡ьЭД ьЬДэХ┤ Count ые╝ ь╡ЬьаАыбЬ ъ░РьЖМ ьЛЬэВ┤
    4cb4:	18 82       	st	Y, r1
			break;
		}
		wdt_reset();							// ьЫМь╣ШыПЕ ыжмьЕЛ
    4cb6:	0e 94 18 14 	call	0x2830	; 0x2830 <wdt_reset>
	CAPA_1000 = Cell_Capa / 1000;						// ыбЬыУЬьЕА CAPA 1000ьЭШ ьЮРыжм
	CAPA_100  = Cell_Capa % 1000 / 100;					// ыбЬыУЬьЕА CAPA 100ьЭШ ьЮРыжм
	CAPA_10   = Cell_Capa % 100 / 10;					// ыбЬыУЬьЕА CAPA  10ьЭШ ьЮРыжм
	CAPA_1    = Cell_Capa % 10;						// ыбЬыУЬьЕА CAPA   1ьЭШ ьЮРыжм
//-------------------------------------------------------------------------------------------------
	while(SET.Menu)								// ыйФыЙ┤ъ░А 1 ьЭ┤ый┤ ы░Шы│╡
    4cba:	f8 01       	movw	r30, r16
    4cbc:	80 81       	ld	r24, Z
    4cbe:	81 11       	cpse	r24, r1
    4cc0:	1c cf       	rjmp	.-456    	; 0x4afa <CAPA_Set+0xc0>
//-------------------------------------------------------------------------------------------------
	Cell_Capa = 0;
	Cell_Capa += (CAPA_1000 * 1000);					// ыбЬыУЬьЕА CAPA 1000ьЭШ ьЮРыжм
	Cell_Capa += (CAPA_100  * 100);						// ыбЬыУЬьЕА CAPA  100ьЭШ ьЮРыжм
	Cell_Capa += (CAPA_10   * 10);						// ыбЬыУЬьЕА CAPA   10ьЭШ ьЮРыжм
	Cell_Capa += (CAPA_1    * 1);						// ыбЬыУЬьЕА CAPA    1ьЭШ ьЮРыжм
    4cc2:	20 91 a9 41 	lds	r18, 0x41A9	; 0x8041a9 <CAPA_1000>
    4cc6:	88 ee       	ldi	r24, 0xE8	; 232
    4cc8:	93 e0       	ldi	r25, 0x03	; 3
    4cca:	28 9f       	mul	r18, r24
    4ccc:	a0 01       	movw	r20, r0
    4cce:	29 9f       	mul	r18, r25
    4cd0:	50 0d       	add	r21, r0
    4cd2:	11 24       	eor	r1, r1
    4cd4:	05 2e       	mov	r0, r21
    4cd6:	00 0c       	add	r0, r0
    4cd8:	66 0b       	sbc	r22, r22
    4cda:	77 0b       	sbc	r23, r23
    4cdc:	80 91 5c 51 	lds	r24, 0x515C	; 0x80515c <CAPA_100>
    4ce0:	f4 e6       	ldi	r31, 0x64	; 100
    4ce2:	8f 9f       	mul	r24, r31
    4ce4:	c0 01       	movw	r24, r0
    4ce6:	11 24       	eor	r1, r1
    4ce8:	09 2e       	mov	r0, r25
    4cea:	00 0c       	add	r0, r0
    4cec:	aa 0b       	sbc	r26, r26
    4cee:	bb 0b       	sbc	r27, r27
    4cf0:	84 0f       	add	r24, r20
    4cf2:	95 1f       	adc	r25, r21
    4cf4:	a6 1f       	adc	r26, r22
    4cf6:	b7 1f       	adc	r27, r23
    4cf8:	20 91 31 51 	lds	r18, 0x5131	; 0x805131 <CAPA_1>
    4cfc:	ac 01       	movw	r20, r24
    4cfe:	bd 01       	movw	r22, r26
    4d00:	42 0f       	add	r20, r18
    4d02:	51 1d       	adc	r21, r1
    4d04:	61 1d       	adc	r22, r1
    4d06:	71 1d       	adc	r23, r1
    4d08:	20 91 62 51 	lds	r18, 0x5162	; 0x805162 <CAPA_10>
    4d0c:	30 e0       	ldi	r19, 0x00	; 0
    4d0e:	c9 01       	movw	r24, r18
    4d10:	88 0f       	add	r24, r24
    4d12:	99 1f       	adc	r25, r25
    4d14:	22 0f       	add	r18, r18
    4d16:	33 1f       	adc	r19, r19
    4d18:	22 0f       	add	r18, r18
    4d1a:	33 1f       	adc	r19, r19
    4d1c:	22 0f       	add	r18, r18
    4d1e:	33 1f       	adc	r19, r19
    4d20:	82 0f       	add	r24, r18
    4d22:	93 1f       	adc	r25, r19
    4d24:	09 2e       	mov	r0, r25
    4d26:	00 0c       	add	r0, r0
    4d28:	aa 0b       	sbc	r26, r26
    4d2a:	bb 0b       	sbc	r27, r27
    4d2c:	8a 01       	movw	r16, r20
    4d2e:	9b 01       	movw	r18, r22
    4d30:	08 0f       	add	r16, r24
    4d32:	19 1f       	adc	r17, r25
    4d34:	2a 1f       	adc	r18, r26
    4d36:	3b 1f       	adc	r19, r27
    4d38:	c9 01       	movw	r24, r18
    4d3a:	b8 01       	movw	r22, r16
    4d3c:	00 93 63 51 	sts	0x5163, r16	; 0x805163 <Cell_Capa>
    4d40:	10 93 64 51 	sts	0x5164, r17	; 0x805164 <Cell_Capa+0x1>
    4d44:	20 93 65 51 	sts	0x5165, r18	; 0x805165 <Cell_Capa+0x2>
    4d48:	30 93 66 51 	sts	0x5166, r19	; 0x805166 <Cell_Capa+0x3>
//-------------------------------------------------------------------------------------------------
	ee_write_word(Cell_Capa_Addr, Cell_Capa);				// ыбЬыУЬьЕА ьЭ┤ый┤ ьЪйыЯЙъ░Т ьаАьЮе
    4d4c:	88 e0       	ldi	r24, 0x08	; 8
    4d4e:	90 e0       	ldi	r25, 0x00	; 0
    4d50:	0e 94 01 15 	call	0x2a02	; 0x2a02 <ee_write_word>

	SET.Menu = 1;								// Menu ыкиыУЬ ьЬаьзА
    4d54:	ee e0       	ldi	r30, 0x0E	; 14
    4d56:	f1 e5       	ldi	r31, 0x51	; 81
    4d58:	81 e0       	ldi	r24, 0x01	; 1
    4d5a:	80 83       	st	Z, r24
	SET.Select = 0;								// Select ы▓ДэК╝ ь┤Иъ╕░эЩФ
    4d5c:	11 82       	std	Z+1, r1	; 0x01
	SET.Blink = 0;								// ьЮРыж┐ьИШ ъ╣Ьы░ХьЮД ь┤Иъ╕░эЩФ
    4d5e:	13 82       	std	Z+3, r1	; 0x03
	KEY.Count = 0;								// ьДаэГЭ Key ъ░А ыИМыж░эЪЯьИШ ь┤Иъ╕░эЩФ
    4d60:	10 92 4b 51 	sts	0x514B, r1	; 0x80514b <KEY>
}
    4d64:	05 c0       	rjmp	.+10     	; 0x4d70 <CAPA_Set+0x336>
				else	  {DIGIT[1][3] = fnd_tbl[CAPA_1000];}	// Blink = 0 ьЭ┤ый┤ ыбЬыУЬьЕА CAPA 100ьЭШ ьЮРыжм эСЬьЛЬ

				if(KEY.Buff)					// Key ьЮЕыаеьЭ┤ ьЮИьЬ╝ый┤
				{
					if     (KEY.Key == 1 && CAPA_1000 < 1) {CAPA_1000++; KEY.Key = 0;}	// ьЧЕ  ы▓ДэК╝ ьЭ┤ый┤ CAPAъ░Т 1000ьЭШ ьЮРыжм ьжЭъ░А
					else if(KEY.Key == 3 && CAPA_1000 > 0) {CAPA_1000--; KEY.Key = 0;}	// ыЛдьЪ┤ы▓ДэК╝ ьЭ┤ый┤ CAPAъ░Т 1000ьЭШ ьЮРыжм ъ░РьЖМ
    4d66:	9a 81       	ldd	r25, Y+2	; 0x02
    4d68:	93 30       	cpi	r25, 0x03	; 3
    4d6a:	09 f0       	breq	.+2      	; 0x4d6e <CAPA_Set+0x334>
    4d6c:	a4 cf       	rjmp	.-184    	; 0x4cb6 <CAPA_Set+0x27c>
    4d6e:	06 cf       	rjmp	.-500    	; 0x4b7c <CAPA_Set+0x142>

	SET.Menu = 1;								// Menu ыкиыУЬ ьЬаьзА
	SET.Select = 0;								// Select ы▓ДэК╝ ь┤Иъ╕░эЩФ
	SET.Blink = 0;								// ьЮРыж┐ьИШ ъ╣Ьы░ХьЮД ь┤Иъ╕░эЩФ
	KEY.Count = 0;								// ьДаэГЭ Key ъ░А ыИМыж░эЪЯьИШ ь┤Иъ╕░эЩФ
}
    4d70:	df 91       	pop	r29
    4d72:	cf 91       	pop	r28
    4d74:	1f 91       	pop	r17
    4d76:	0f 91       	pop	r16
    4d78:	ff 90       	pop	r15
    4d7a:	ef 90       	pop	r14
    4d7c:	df 90       	pop	r13
    4d7e:	cf 90       	pop	r12
    4d80:	bf 90       	pop	r11
    4d82:	af 90       	pop	r10
    4d84:	9f 90       	pop	r9
    4d86:	8f 90       	pop	r8
    4d88:	08 95       	ret

00004d8a <CNT_Set>:

//=================================================================================================
void CNT_Set(void)								// ыбЬыУЬьЕА ъ░пьИШ ьДдьаХ
{
    4d8a:	af 92       	push	r10
    4d8c:	bf 92       	push	r11
    4d8e:	cf 92       	push	r12
    4d90:	df 92       	push	r13
    4d92:	ef 92       	push	r14
    4d94:	ff 92       	push	r15
    4d96:	0f 93       	push	r16
    4d98:	1f 93       	push	r17
    4d9a:	cf 93       	push	r28
    4d9c:	df 93       	push	r29
	FND_Value_Data(0, 2, 12);						// FND 0 ~ 2 FND_OFF
    4d9e:	4c e0       	ldi	r20, 0x0C	; 12
    4da0:	62 e0       	ldi	r22, 0x02	; 2
    4da2:	80 e0       	ldi	r24, 0x00	; 0
    4da4:	0e 94 d3 05 	call	0xba6	; 0xba6 <FND_Value_Data>

	while(SET.Menu && SET.Select)						// ыйФыЙ┤ ьЩА ьДаэГЭ ьЭ┤ ыкиыСР 1 ьЭ┤ый┤ ы░Шы│╡
    4da8:	80 91 0e 51 	lds	r24, 0x510E	; 0x80510e <SET>
    4dac:	88 23       	and	r24, r24
    4dae:	09 f4       	brne	.+2      	; 0x4db2 <CNT_Set+0x28>
    4db0:	60 c0       	rjmp	.+192    	; 0x4e72 <CNT_Set+0xe8>
    4db2:	80 91 0f 51 	lds	r24, 0x510F	; 0x80510f <SET+0x1>
    4db6:	88 23       	and	r24, r24
    4db8:	09 f4       	brne	.+2      	; 0x4dbc <CNT_Set+0x32>
    4dba:	5b c0       	rjmp	.+182    	; 0x4e72 <CNT_Set+0xe8>
	{
		DIGIT[1][3] = FND_OFF;						// FND 0 ьЧР cnt эСЬьЛЬ
    4dbc:	c9 e7       	ldi	r28, 0x79	; 121
    4dbe:	d1 e4       	ldi	r29, 0x41	; 65
		DIGIT[0][2] = FND_c;
    4dc0:	0f 2e       	mov	r0, r31
    4dc2:	fa e1       	ldi	r31, 0x1A	; 26
    4dc4:	af 2e       	mov	r10, r31
    4dc6:	f0 2d       	mov	r31, r0
		DIGIT[0][1] = FND_n;
    4dc8:	0f 2e       	mov	r0, r31
    4dca:	fa e2       	ldi	r31, 0x2A	; 42
    4dcc:	bf 2e       	mov	r11, r31
    4dce:	f0 2d       	mov	r31, r0
		DIGIT[0][0] = FND_t;
    4dd0:	0f 2e       	mov	r0, r31
    4dd2:	fe e1       	ldi	r31, 0x1E	; 30
    4dd4:	cf 2e       	mov	r12, r31
    4dd6:	f0 2d       	mov	r31, r0

		DIGIT[1][3] = FND_OFF;						// FND 1 OFF
		DIGIT[1][2] = FND_OFF;
		DIGIT[1][1] = fnd_tbl[Cell_CNT / 10];				// FND 1 ьЧР CNT ы▓ИэШ╕ эСЬьЛЬ
    4dd8:	0f 2e       	mov	r0, r31
    4dda:	fd ec       	ldi	r31, 0xCD	; 205
    4ddc:	df 2e       	mov	r13, r31
    4dde:	f0 2d       	mov	r31, r0
		DIGIT[1][0] = fnd_tbl[Cell_CNT % 10];

		DIGIT[2][0] = FND_OFF;						// ыбЬыУЬьЕА RO, ьЮЕъ╡мь▓┤ьдС 1ьЭШ ьЮРыжм ьзАьЪ░ъ╕░

		if(KEY.Buff)							// Key ьЮЕыаеьЭ┤ ьЮИьЬ╝ый┤
    4de0:	0b e4       	ldi	r16, 0x4B	; 75
    4de2:	11 e5       	ldi	r17, 0x51	; 81
//=================================================================================================
void CNT_Set(void)								// ыбЬыУЬьЕА ъ░пьИШ ьДдьаХ
{
	FND_Value_Data(0, 2, 12);						// FND 0 ~ 2 FND_OFF

	while(SET.Menu && SET.Select)						// ыйФыЙ┤ ьЩА ьДаэГЭ ьЭ┤ ыкиыСР 1 ьЭ┤ый┤ ы░Шы│╡
    4de4:	0f 2e       	mov	r0, r31
    4de6:	fe e0       	ldi	r31, 0x0E	; 14
    4de8:	ef 2e       	mov	r14, r31
    4dea:	f1 e5       	ldi	r31, 0x51	; 81
    4dec:	ff 2e       	mov	r15, r31
    4dee:	f0 2d       	mov	r31, r0
	{
		DIGIT[1][3] = FND_OFF;						// FND 0 ьЧР cnt эСЬьЛЬ
    4df0:	1f 82       	std	Y+7, r1	; 0x07
		DIGIT[0][2] = FND_c;
    4df2:	aa 82       	std	Y+2, r10	; 0x02
		DIGIT[0][1] = FND_n;
    4df4:	b9 82       	std	Y+1, r11	; 0x01
		DIGIT[0][0] = FND_t;
    4df6:	c8 82       	st	Y, r12

		DIGIT[1][3] = FND_OFF;						// FND 1 OFF
		DIGIT[1][2] = FND_OFF;
    4df8:	1e 82       	std	Y+6, r1	; 0x06
		DIGIT[1][1] = fnd_tbl[Cell_CNT / 10];				// FND 1 ьЧР CNT ы▓ИэШ╕ эСЬьЛЬ
    4dfa:	20 91 73 51 	lds	r18, 0x5173	; 0x805173 <Cell_CNT>
    4dfe:	2d 9d       	mul	r18, r13
    4e00:	81 2d       	mov	r24, r1
    4e02:	11 24       	eor	r1, r1
    4e04:	86 95       	lsr	r24
    4e06:	86 95       	lsr	r24
    4e08:	86 95       	lsr	r24
    4e0a:	e8 2f       	mov	r30, r24
    4e0c:	f0 e0       	ldi	r31, 0x00	; 0
    4e0e:	ed 5b       	subi	r30, 0xBD	; 189
    4e10:	fe 4b       	sbci	r31, 0xBE	; 190
    4e12:	90 81       	ld	r25, Z
    4e14:	9d 83       	std	Y+5, r25	; 0x05
		DIGIT[1][0] = fnd_tbl[Cell_CNT % 10];
    4e16:	88 0f       	add	r24, r24
    4e18:	98 2f       	mov	r25, r24
    4e1a:	99 0f       	add	r25, r25
    4e1c:	99 0f       	add	r25, r25
    4e1e:	89 0f       	add	r24, r25
    4e20:	e2 2f       	mov	r30, r18
    4e22:	e8 1b       	sub	r30, r24
    4e24:	f0 e0       	ldi	r31, 0x00	; 0
    4e26:	ed 5b       	subi	r30, 0xBD	; 189
    4e28:	fe 4b       	sbci	r31, 0xBE	; 190
    4e2a:	80 81       	ld	r24, Z
    4e2c:	8c 83       	std	Y+4, r24	; 0x04

		DIGIT[2][0] = FND_OFF;						// ыбЬыУЬьЕА RO, ьЮЕъ╡мь▓┤ьдС 1ьЭШ ьЮРыжм ьзАьЪ░ъ╕░
    4e2e:	18 86       	std	Y+8, r1	; 0x08

		if(KEY.Buff)							// Key ьЮЕыаеьЭ┤ ьЮИьЬ╝ый┤
    4e30:	f8 01       	movw	r30, r16
    4e32:	81 81       	ldd	r24, Z+1	; 0x01
    4e34:	88 23       	and	r24, r24
    4e36:	a1 f0       	breq	.+40     	; 0x4e60 <CNT_Set+0xd6>
		{
			if     (KEY.Key == 1 && Cell_CNT < 4) {Cell_CNT = Cell_CNT * 2; KEY.Key = 0;}		// ьЧЕ  ы▓ДэК╝ ьЭ┤ый┤ ъ░пьИШ ьДдьаХъ░Т ьжЭъ░А
    4e38:	82 81       	ldd	r24, Z+2	; 0x02
    4e3a:	81 30       	cpi	r24, 0x01	; 1
    4e3c:	39 f4       	brne	.+14     	; 0x4e4c <CNT_Set+0xc2>
    4e3e:	24 30       	cpi	r18, 0x04	; 4
    4e40:	28 f4       	brcc	.+10     	; 0x4e4c <CNT_Set+0xc2>
    4e42:	22 0f       	add	r18, r18
    4e44:	20 93 73 51 	sts	0x5173, r18	; 0x805173 <Cell_CNT>
    4e48:	12 82       	std	Z+2, r1	; 0x02
    4e4a:	0a c0       	rjmp	.+20     	; 0x4e60 <CNT_Set+0xd6>
			else if(KEY.Key == 3 && Cell_CNT > 1) {Cell_CNT = Cell_CNT / 2; KEY.Key = 0;}		// ыЛдьЪ┤ы▓ДэК╝ ьЭ┤ый┤ ъ░пьИШ ьДдьаХъ░Т ъ░РьЖМ
    4e4c:	f8 01       	movw	r30, r16
    4e4e:	82 81       	ldd	r24, Z+2	; 0x02
    4e50:	83 30       	cpi	r24, 0x03	; 3
    4e52:	31 f4       	brne	.+12     	; 0x4e60 <CNT_Set+0xd6>
    4e54:	22 30       	cpi	r18, 0x02	; 2
    4e56:	20 f0       	brcs	.+8      	; 0x4e60 <CNT_Set+0xd6>
    4e58:	26 95       	lsr	r18
    4e5a:	20 93 73 51 	sts	0x5173, r18	; 0x805173 <Cell_CNT>
    4e5e:	12 82       	std	Z+2, r1	; 0x02
		}
		wdt_reset();							// ьЫМь╣ШыПЕ ыжмьЕЛ
    4e60:	0e 94 18 14 	call	0x2830	; 0x2830 <wdt_reset>
//=================================================================================================
void CNT_Set(void)								// ыбЬыУЬьЕА ъ░пьИШ ьДдьаХ
{
	FND_Value_Data(0, 2, 12);						// FND 0 ~ 2 FND_OFF

	while(SET.Menu && SET.Select)						// ыйФыЙ┤ ьЩА ьДаэГЭ ьЭ┤ ыкиыСР 1 ьЭ┤ый┤ ы░Шы│╡
    4e64:	f7 01       	movw	r30, r14
    4e66:	80 81       	ld	r24, Z
    4e68:	88 23       	and	r24, r24
    4e6a:	19 f0       	breq	.+6      	; 0x4e72 <CNT_Set+0xe8>
    4e6c:	81 81       	ldd	r24, Z+1	; 0x01
    4e6e:	81 11       	cpse	r24, r1
    4e70:	bf cf       	rjmp	.-130    	; 0x4df0 <CNT_Set+0x66>
			else if(KEY.Key == 3 && Cell_CNT > 1) {Cell_CNT = Cell_CNT / 2; KEY.Key = 0;}		// ыЛдьЪ┤ы▓ДэК╝ ьЭ┤ый┤ ъ░пьИШ ьДдьаХъ░Т ъ░РьЖМ
		}
		wdt_reset();							// ьЫМь╣ШыПЕ ыжмьЕЛ
	}
//-------------------------------------------------------------------------------------------------
	ee_write_byte(Cell_CNT_Addr, Cell_CNT);					// ыбЬыУЬьЕА ьЭ┤ый┤ ъ░пьИШ ьДдьаХъ░ТьЭД EEPROM ьЧР ьаАьЮе
    4e72:	60 91 73 51 	lds	r22, 0x5173	; 0x805173 <Cell_CNT>
    4e76:	84 e0       	ldi	r24, 0x04	; 4
    4e78:	90 e0       	ldi	r25, 0x00	; 0
    4e7a:	0e 94 dd 14 	call	0x29ba	; 0x29ba <ee_write_byte>
}
    4e7e:	df 91       	pop	r29
    4e80:	cf 91       	pop	r28
    4e82:	1f 91       	pop	r17
    4e84:	0f 91       	pop	r16
    4e86:	ff 90       	pop	r15
    4e88:	ef 90       	pop	r14
    4e8a:	df 90       	pop	r13
    4e8c:	cf 90       	pop	r12
    4e8e:	bf 90       	pop	r11
    4e90:	af 90       	pop	r10
    4e92:	08 95       	ret

00004e94 <ID_Set>:

//=================================================================================================
void ID_Set(void)								// ID ьДдьаХ
{
    4e94:	bf 92       	push	r11
    4e96:	cf 92       	push	r12
    4e98:	df 92       	push	r13
    4e9a:	ef 92       	push	r14
    4e9c:	ff 92       	push	r15
    4e9e:	0f 93       	push	r16
    4ea0:	1f 93       	push	r17
    4ea2:	cf 93       	push	r28
    4ea4:	df 93       	push	r29
	FND_Value_Data(0, 2, 12);						// FND 0 ~ 2 FND_OFF
    4ea6:	4c e0       	ldi	r20, 0x0C	; 12
    4ea8:	62 e0       	ldi	r22, 0x02	; 2
    4eaa:	80 e0       	ldi	r24, 0x00	; 0
    4eac:	0e 94 d3 05 	call	0xba6	; 0xba6 <FND_Value_Data>

	while(SET.Menu && SET.Select)						// ыйФыЙ┤ ьЩА ьДаэГЭ ьЭ┤ ыкиыСР 1 ьЭ┤ый┤ ы░Шы│╡
    4eb0:	80 91 0e 51 	lds	r24, 0x510E	; 0x80510e <SET>
    4eb4:	88 23       	and	r24, r24
    4eb6:	09 f4       	brne	.+2      	; 0x4eba <ID_Set+0x26>
    4eb8:	5d c0       	rjmp	.+186    	; 0x4f74 <ID_Set+0xe0>
    4eba:	80 91 0f 51 	lds	r24, 0x510F	; 0x80510f <SET+0x1>
    4ebe:	88 23       	and	r24, r24
    4ec0:	09 f4       	brne	.+2      	; 0x4ec4 <ID_Set+0x30>
    4ec2:	58 c0       	rjmp	.+176    	; 0x4f74 <ID_Set+0xe0>
	{
		DIGIT[0][3] = FND_OFF;						// FND 0 ьЧР ID эСЬьЛЬ
    4ec4:	c9 e7       	ldi	r28, 0x79	; 121
    4ec6:	d1 e4       	ldi	r29, 0x41	; 65
		DIGIT[0][2] = FND_I;
    4ec8:	0f 2e       	mov	r0, r31
    4eca:	f0 e6       	ldi	r31, 0x60	; 96
    4ecc:	bf 2e       	mov	r11, r31
    4ece:	f0 2d       	mov	r31, r0
		DIGIT[0][1] = FND_d;
    4ed0:	0f 2e       	mov	r0, r31
    4ed2:	fa e7       	ldi	r31, 0x7A	; 122
    4ed4:	cf 2e       	mov	r12, r31
    4ed6:	f0 2d       	mov	r31, r0
		DIGIT[0][0] = FND_OFF;

		DIGIT[1][3] = FND_OFF;						// FND 1 OFF
		DIGIT[1][2] = FND_OFF;
		DIGIT[1][1] = fnd_tbl[Cell_ID / 10];				// FND 1 ьЧР ID ы▓ИэШ╕ эСЬьЛЬ
    4ed8:	0f 2e       	mov	r0, r31
    4eda:	fd ec       	ldi	r31, 0xCD	; 205
    4edc:	df 2e       	mov	r13, r31
    4ede:	f0 2d       	mov	r31, r0
		DIGIT[1][0] = fnd_tbl[Cell_ID % 10];

		DIGIT[2][0] = FND_OFF;						// ыбЬыУЬьЕА RO, ьЮЕъ╡мь▓┤ьдС 1ьЭШ ьЮРыжм ьзАьЪ░ъ╕░

		if(KEY.Buff)							// Key ьЮЕыаеьЭ┤ ьЮИьЬ╝ый┤
    4ee0:	0b e4       	ldi	r16, 0x4B	; 75
    4ee2:	11 e5       	ldi	r17, 0x51	; 81
//=================================================================================================
void ID_Set(void)								// ID ьДдьаХ
{
	FND_Value_Data(0, 2, 12);						// FND 0 ~ 2 FND_OFF

	while(SET.Menu && SET.Select)						// ыйФыЙ┤ ьЩА ьДаэГЭ ьЭ┤ ыкиыСР 1 ьЭ┤ый┤ ы░Шы│╡
    4ee4:	0f 2e       	mov	r0, r31
    4ee6:	fe e0       	ldi	r31, 0x0E	; 14
    4ee8:	ef 2e       	mov	r14, r31
    4eea:	f1 e5       	ldi	r31, 0x51	; 81
    4eec:	ff 2e       	mov	r15, r31
    4eee:	f0 2d       	mov	r31, r0
	{
		DIGIT[0][3] = FND_OFF;						// FND 0 ьЧР ID эСЬьЛЬ
    4ef0:	1b 82       	std	Y+3, r1	; 0x03
		DIGIT[0][2] = FND_I;
    4ef2:	ba 82       	std	Y+2, r11	; 0x02
		DIGIT[0][1] = FND_d;
    4ef4:	c9 82       	std	Y+1, r12	; 0x01
		DIGIT[0][0] = FND_OFF;
    4ef6:	18 82       	st	Y, r1

		DIGIT[1][3] = FND_OFF;						// FND 1 OFF
    4ef8:	1f 82       	std	Y+7, r1	; 0x07
		DIGIT[1][2] = FND_OFF;
    4efa:	1e 82       	std	Y+6, r1	; 0x06
		DIGIT[1][1] = fnd_tbl[Cell_ID / 10];				// FND 1 ьЧР ID ы▓ИэШ╕ эСЬьЛЬ
    4efc:	20 91 e9 50 	lds	r18, 0x50E9	; 0x8050e9 <Cell_ID>
    4f00:	2d 9d       	mul	r18, r13
    4f02:	81 2d       	mov	r24, r1
    4f04:	11 24       	eor	r1, r1
    4f06:	86 95       	lsr	r24
    4f08:	86 95       	lsr	r24
    4f0a:	86 95       	lsr	r24
    4f0c:	e8 2f       	mov	r30, r24
    4f0e:	f0 e0       	ldi	r31, 0x00	; 0
    4f10:	ed 5b       	subi	r30, 0xBD	; 189
    4f12:	fe 4b       	sbci	r31, 0xBE	; 190
    4f14:	90 81       	ld	r25, Z
    4f16:	9d 83       	std	Y+5, r25	; 0x05
		DIGIT[1][0] = fnd_tbl[Cell_ID % 10];
    4f18:	88 0f       	add	r24, r24
    4f1a:	98 2f       	mov	r25, r24
    4f1c:	99 0f       	add	r25, r25
    4f1e:	99 0f       	add	r25, r25
    4f20:	89 0f       	add	r24, r25
    4f22:	e2 2f       	mov	r30, r18
    4f24:	e8 1b       	sub	r30, r24
    4f26:	f0 e0       	ldi	r31, 0x00	; 0
    4f28:	ed 5b       	subi	r30, 0xBD	; 189
    4f2a:	fe 4b       	sbci	r31, 0xBE	; 190
    4f2c:	80 81       	ld	r24, Z
    4f2e:	8c 83       	std	Y+4, r24	; 0x04

		DIGIT[2][0] = FND_OFF;						// ыбЬыУЬьЕА RO, ьЮЕъ╡мь▓┤ьдС 1ьЭШ ьЮРыжм ьзАьЪ░ъ╕░
    4f30:	18 86       	std	Y+8, r1	; 0x08

		if(KEY.Buff)							// Key ьЮЕыаеьЭ┤ ьЮИьЬ╝ый┤
    4f32:	f8 01       	movw	r30, r16
    4f34:	81 81       	ldd	r24, Z+1	; 0x01
    4f36:	88 23       	and	r24, r24
    4f38:	a1 f0       	breq	.+40     	; 0x4f62 <ID_Set+0xce>
		{
			if     (KEY.Key == 1 && Cell_ID < 60) {Cell_ID++; KEY.Key = 0;}				// ьЧЕ  ы▓ДэК╝ ьЭ┤ый┤ IDъ░Т ьжЭъ░А
    4f3a:	82 81       	ldd	r24, Z+2	; 0x02
    4f3c:	81 30       	cpi	r24, 0x01	; 1
    4f3e:	39 f4       	brne	.+14     	; 0x4f4e <ID_Set+0xba>
    4f40:	2c 33       	cpi	r18, 0x3C	; 60
    4f42:	28 f4       	brcc	.+10     	; 0x4f4e <ID_Set+0xba>
    4f44:	2f 5f       	subi	r18, 0xFF	; 255
    4f46:	20 93 e9 50 	sts	0x50E9, r18	; 0x8050e9 <Cell_ID>
    4f4a:	12 82       	std	Z+2, r1	; 0x02
    4f4c:	0a c0       	rjmp	.+20     	; 0x4f62 <ID_Set+0xce>
			else if(KEY.Key == 3 && Cell_ID > 0)  {Cell_ID--; KEY.Key = 0;}				// ыЛдьЪ┤ы▓ДэК╝ ьЭ┤ый┤ IDъ░Т ъ░РьЖМ
    4f4e:	f8 01       	movw	r30, r16
    4f50:	82 81       	ldd	r24, Z+2	; 0x02
    4f52:	83 30       	cpi	r24, 0x03	; 3
    4f54:	31 f4       	brne	.+12     	; 0x4f62 <ID_Set+0xce>
    4f56:	22 23       	and	r18, r18
    4f58:	21 f0       	breq	.+8      	; 0x4f62 <ID_Set+0xce>
    4f5a:	21 50       	subi	r18, 0x01	; 1
    4f5c:	20 93 e9 50 	sts	0x50E9, r18	; 0x8050e9 <Cell_ID>
    4f60:	12 82       	std	Z+2, r1	; 0x02
		}
		wdt_reset();							// ьЫМь╣ШыПЕ ыжмьЕЛ
    4f62:	0e 94 18 14 	call	0x2830	; 0x2830 <wdt_reset>
//=================================================================================================
void ID_Set(void)								// ID ьДдьаХ
{
	FND_Value_Data(0, 2, 12);						// FND 0 ~ 2 FND_OFF

	while(SET.Menu && SET.Select)						// ыйФыЙ┤ ьЩА ьДаэГЭ ьЭ┤ ыкиыСР 1 ьЭ┤ый┤ ы░Шы│╡
    4f66:	f7 01       	movw	r30, r14
    4f68:	80 81       	ld	r24, Z
    4f6a:	88 23       	and	r24, r24
    4f6c:	19 f0       	breq	.+6      	; 0x4f74 <ID_Set+0xe0>
    4f6e:	81 81       	ldd	r24, Z+1	; 0x01
    4f70:	81 11       	cpse	r24, r1
    4f72:	be cf       	rjmp	.-132    	; 0x4ef0 <ID_Set+0x5c>
			else if(KEY.Key == 3 && Cell_ID > 0)  {Cell_ID--; KEY.Key = 0;}				// ыЛдьЪ┤ы▓ДэК╝ ьЭ┤ый┤ IDъ░Т ъ░РьЖМ
		}
		wdt_reset();							// ьЫМь╣ШыПЕ ыжмьЕЛ
	}
//-------------------------------------------------------------------------------------------------
	ee_write_byte(Cell_ID_Addr, Cell_ID);					// ыбЬыУЬьЕА ьЭ┤ый┤ ID ые╝ EEPROM ьЧР ьаАьЮе
    4f74:	60 91 e9 50 	lds	r22, 0x50E9	; 0x8050e9 <Cell_ID>
    4f78:	83 e0       	ldi	r24, 0x03	; 3
    4f7a:	90 e0       	ldi	r25, 0x00	; 0
    4f7c:	0e 94 dd 14 	call	0x29ba	; 0x29ba <ee_write_byte>
}
    4f80:	df 91       	pop	r29
    4f82:	cf 91       	pop	r28
    4f84:	1f 91       	pop	r17
    4f86:	0f 91       	pop	r16
    4f88:	ff 90       	pop	r15
    4f8a:	ef 90       	pop	r14
    4f8c:	df 90       	pop	r13
    4f8e:	cf 90       	pop	r12
    4f90:	bf 90       	pop	r11
    4f92:	08 95       	ret

00004f94 <Loadcell_Set>:

//=================================================================================================
void Loadcell_Set(void)								// ыбЬыУЬьЕА ьДдьаХ
{
    4f94:	2f 92       	push	r2
    4f96:	3f 92       	push	r3
    4f98:	4f 92       	push	r4
    4f9a:	5f 92       	push	r5
    4f9c:	6f 92       	push	r6
    4f9e:	7f 92       	push	r7
    4fa0:	8f 92       	push	r8
    4fa2:	9f 92       	push	r9
    4fa4:	af 92       	push	r10
    4fa6:	bf 92       	push	r11
    4fa8:	cf 92       	push	r12
    4faa:	df 92       	push	r13
    4fac:	ef 92       	push	r14
    4fae:	ff 92       	push	r15
    4fb0:	0f 93       	push	r16
    4fb2:	1f 93       	push	r17
    4fb4:	cf 93       	push	r28
    4fb6:	df 93       	push	r29
	uint8_t Count = 1;							// ь╣┤ьЪ┤эК╕ ы│АьИШ ь┤Иъ╕░эЩФ

	SET.Select = 0;								// Select ы▓ДэК╝ ь┤Иъ╕░эЩФ
    4fb8:	10 92 0f 51 	sts	0x510F, r1	; 0x80510f <SET+0x1>
	FND_Value_Data(0, 2, 12);						// FND 0 ~ 2 FND_OFF
    4fbc:	4c e0       	ldi	r20, 0x0C	; 12
    4fbe:	62 e0       	ldi	r22, 0x02	; 2
    4fc0:	80 e0       	ldi	r24, 0x00	; 0
    4fc2:	0e 94 d3 05 	call	0xba6	; 0xba6 <FND_Value_Data>
//-------------------------------------------------------------------------------------------------
	Cell_ID	  = ee_read_byte(Cell_ID_Addr);					// ыбЬыУЬьЕА ID ъ░Т
    4fc6:	83 e0       	ldi	r24, 0x03	; 3
    4fc8:	90 e0       	ldi	r25, 0x00	; 0
    4fca:	0e 94 bb 14 	call	0x2976	; 0x2976 <ee_read_byte>
    4fce:	80 93 e9 50 	sts	0x50E9, r24	; 0x8050e9 <Cell_ID>
	Cell_CNT  = ee_read_byte(Cell_CNT_Addr);				// ыбЬыУЬьЕА ъ░пьИШ ьДдьаХъ░Т
    4fd2:	84 e0       	ldi	r24, 0x04	; 4
    4fd4:	90 e0       	ldi	r25, 0x00	; 0
    4fd6:	0e 94 bb 14 	call	0x2976	; 0x2976 <ee_read_byte>
    4fda:	80 93 73 51 	sts	0x5173, r24	; 0x805173 <Cell_CNT>
	Cell_Capa = ee_read_word(Cell_Capa_Addr);				// ыбЬыУЬьЕА CAPA ъ░Т
    4fde:	88 e0       	ldi	r24, 0x08	; 8
    4fe0:	90 e0       	ldi	r25, 0x00	; 0
    4fe2:	0e 94 c5 14 	call	0x298a	; 0x298a <ee_read_word>
    4fe6:	a0 e0       	ldi	r26, 0x00	; 0
    4fe8:	b0 e0       	ldi	r27, 0x00	; 0
    4fea:	80 93 63 51 	sts	0x5163, r24	; 0x805163 <Cell_Capa>
    4fee:	90 93 64 51 	sts	0x5164, r25	; 0x805164 <Cell_Capa+0x1>
    4ff2:	a0 93 65 51 	sts	0x5165, r26	; 0x805165 <Cell_Capa+0x2>
    4ff6:	b0 93 66 51 	sts	0x5166, r27	; 0x805166 <Cell_Capa+0x3>
	RO	  = ee_read_dword(Cell_RO_Addr);				// ыбЬыУЬьЕА RO ъ░Т
    4ffa:	8c e0       	ldi	r24, 0x0C	; 12
    4ffc:	90 e0       	ldi	r25, 0x00	; 0
    4ffe:	0e 94 d0 14 	call	0x29a0	; 0x29a0 <ee_read_dword>
    5002:	dc 01       	movw	r26, r24
    5004:	cb 01       	movw	r24, r22
    5006:	80 93 13 51 	sts	0x5113, r24	; 0x805113 <RO>
    500a:	90 93 14 51 	sts	0x5114, r25	; 0x805114 <RO+0x1>
    500e:	a0 93 15 51 	sts	0x5115, r26	; 0x805115 <RO+0x2>
    5012:	b0 93 16 51 	sts	0x5116, r27	; 0x805116 <RO+0x3>
    5016:	10 92 17 51 	sts	0x5117, r1	; 0x805117 <RO+0x4>
    501a:	10 92 18 51 	sts	0x5118, r1	; 0x805118 <RO+0x5>
    501e:	10 92 19 51 	sts	0x5119, r1	; 0x805119 <RO+0x6>
    5022:	10 92 1a 51 	sts	0x511A, r1	; 0x80511a <RO+0x7>
	IN_Scales = ee_read_word(Cell_IN_S_Addr);				// ыбЬыУЬьЕА ьЮЕъ╡мь▓┤ьдС ъ░Т
    5026:	8a e0       	ldi	r24, 0x0A	; 10
    5028:	90 e0       	ldi	r25, 0x00	; 0
    502a:	0e 94 c5 14 	call	0x298a	; 0x298a <ee_read_word>
    502e:	ec 01       	movw	r28, r24
    5030:	80 93 08 51 	sts	0x5108, r24	; 0x805108 <IN_Scales>
    5034:	90 93 09 51 	sts	0x5109, r25	; 0x805109 <IN_Scales+0x1>
//-------------------------------------------------------------------------------------------------
	CAPA_1000 = Cell_Capa / 1000;						// ыбЬыУЬьЕА CAPA 1000ьЭШ ьЮРыжм
    5038:	c0 90 63 51 	lds	r12, 0x5163	; 0x805163 <Cell_Capa>
    503c:	d0 90 64 51 	lds	r13, 0x5164	; 0x805164 <Cell_Capa+0x1>
    5040:	e0 90 65 51 	lds	r14, 0x5165	; 0x805165 <Cell_Capa+0x2>
    5044:	f0 90 66 51 	lds	r15, 0x5166	; 0x805166 <Cell_Capa+0x3>
    5048:	c7 01       	movw	r24, r14
    504a:	b6 01       	movw	r22, r12
    504c:	28 ee       	ldi	r18, 0xE8	; 232
    504e:	33 e0       	ldi	r19, 0x03	; 3
    5050:	40 e0       	ldi	r20, 0x00	; 0
    5052:	50 e0       	ldi	r21, 0x00	; 0
    5054:	0e 94 c5 3c 	call	0x798a	; 0x798a <__udivmodsi4>
    5058:	20 93 a9 41 	sts	0x41A9, r18	; 0x8041a9 <CAPA_1000>
	CAPA_100  = Cell_Capa % 1000 / 100;					// ыбЬыУЬьЕА CAPA  100ьЭШ ьЮРыжм
    505c:	0f 2e       	mov	r0, r31
    505e:	f4 e6       	ldi	r31, 0x64	; 100
    5060:	8f 2e       	mov	r8, r31
    5062:	91 2c       	mov	r9, r1
    5064:	a1 2c       	mov	r10, r1
    5066:	b1 2c       	mov	r11, r1
    5068:	f0 2d       	mov	r31, r0
    506a:	a5 01       	movw	r20, r10
    506c:	94 01       	movw	r18, r8
    506e:	0e 94 c5 3c 	call	0x798a	; 0x798a <__udivmodsi4>
    5072:	20 93 5c 51 	sts	0x515C, r18	; 0x80515c <CAPA_100>
	CAPA_10   = Cell_Capa % 100 / 10;					// ыбЬыУЬьЕА CAPA   10ьЭШ ьЮРыжм
    5076:	c7 01       	movw	r24, r14
    5078:	b6 01       	movw	r22, r12
    507a:	a5 01       	movw	r20, r10
    507c:	94 01       	movw	r18, r8
    507e:	0e 94 c5 3c 	call	0x798a	; 0x798a <__udivmodsi4>
    5082:	0f 2e       	mov	r0, r31
    5084:	fa e0       	ldi	r31, 0x0A	; 10
    5086:	8f 2e       	mov	r8, r31
    5088:	91 2c       	mov	r9, r1
    508a:	a1 2c       	mov	r10, r1
    508c:	b1 2c       	mov	r11, r1
    508e:	f0 2d       	mov	r31, r0
    5090:	a5 01       	movw	r20, r10
    5092:	94 01       	movw	r18, r8
    5094:	0e 94 c5 3c 	call	0x798a	; 0x798a <__udivmodsi4>
    5098:	20 93 62 51 	sts	0x5162, r18	; 0x805162 <CAPA_10>
	CAPA_1    = Cell_Capa % 10;						// ыбЬыУЬьЕА CAPA    1ьЭШ ьЮРыжм
    509c:	c7 01       	movw	r24, r14
    509e:	b6 01       	movw	r22, r12
    50a0:	a5 01       	movw	r20, r10
    50a2:	94 01       	movw	r18, r8
    50a4:	0e 94 c5 3c 	call	0x798a	; 0x798a <__udivmodsi4>
    50a8:	60 93 31 51 	sts	0x5131, r22	; 0x805131 <CAPA_1>
//-------------------------------------------------------------------------------------------------
	RO_10000 = RO / 10000;							// ыбЬыУЬьЕА RO 10000ьЭШ ьЮРыжм
    50ac:	20 90 13 51 	lds	r2, 0x5113	; 0x805113 <RO>
    50b0:	30 90 14 51 	lds	r3, 0x5114	; 0x805114 <RO+0x1>
    50b4:	40 90 15 51 	lds	r4, 0x5115	; 0x805115 <RO+0x2>
    50b8:	50 90 16 51 	lds	r5, 0x5116	; 0x805116 <RO+0x3>
    50bc:	60 90 17 51 	lds	r6, 0x5117	; 0x805117 <RO+0x4>
    50c0:	70 90 18 51 	lds	r7, 0x5118	; 0x805118 <RO+0x5>
    50c4:	80 90 19 51 	lds	r8, 0x5119	; 0x805119 <RO+0x6>
    50c8:	90 90 1a 51 	lds	r9, 0x511A	; 0x80511a <RO+0x7>
    50cc:	68 94       	set
    50ce:	aa 24       	eor	r10, r10
    50d0:	a4 f8       	bld	r10, 4
    50d2:	0f 2e       	mov	r0, r31
    50d4:	f7 e2       	ldi	r31, 0x27	; 39
    50d6:	bf 2e       	mov	r11, r31
    50d8:	f0 2d       	mov	r31, r0
    50da:	c1 2c       	mov	r12, r1
    50dc:	d1 2c       	mov	r13, r1
    50de:	e1 2c       	mov	r14, r1
    50e0:	f1 2c       	mov	r15, r1
    50e2:	00 e0       	ldi	r16, 0x00	; 0
    50e4:	10 e0       	ldi	r17, 0x00	; 0
    50e6:	22 2d       	mov	r18, r2
    50e8:	33 2d       	mov	r19, r3
    50ea:	44 2d       	mov	r20, r4
    50ec:	55 2d       	mov	r21, r5
    50ee:	66 2d       	mov	r22, r6
    50f0:	77 2d       	mov	r23, r7
    50f2:	88 2d       	mov	r24, r8
    50f4:	99 2d       	mov	r25, r9
    50f6:	0e 94 84 3d 	call	0x7b08	; 0x7b08 <__udivdi3>
    50fa:	20 93 54 51 	sts	0x5154, r18	; 0x805154 <RO_10000>
    50fe:	30 93 55 51 	sts	0x5155, r19	; 0x805155 <RO_10000+0x1>
    5102:	40 93 56 51 	sts	0x5156, r20	; 0x805156 <RO_10000+0x2>
    5106:	50 93 57 51 	sts	0x5157, r21	; 0x805157 <RO_10000+0x3>
    510a:	60 93 58 51 	sts	0x5158, r22	; 0x805158 <RO_10000+0x4>
    510e:	70 93 59 51 	sts	0x5159, r23	; 0x805159 <RO_10000+0x5>
    5112:	80 93 5a 51 	sts	0x515A, r24	; 0x80515a <RO_10000+0x6>
    5116:	90 93 5b 51 	sts	0x515B, r25	; 0x80515b <RO_10000+0x7>
	RO_1000  = RO % 10000 / 1000;						// ыбЬыУЬьЕА RO  1000ьЭШ ьЮРыжм
    511a:	22 2d       	mov	r18, r2
    511c:	33 2d       	mov	r19, r3
    511e:	44 2d       	mov	r20, r4
    5120:	55 2d       	mov	r21, r5
    5122:	66 2d       	mov	r22, r6
    5124:	77 2d       	mov	r23, r7
    5126:	88 2d       	mov	r24, r8
    5128:	99 2d       	mov	r25, r9
    512a:	0e 94 82 3d 	call	0x7b04	; 0x7b04 <__umoddi3>
    512e:	0f 2e       	mov	r0, r31
    5130:	f8 ee       	ldi	r31, 0xE8	; 232
    5132:	af 2e       	mov	r10, r31
    5134:	f0 2d       	mov	r31, r0
    5136:	0f 2e       	mov	r0, r31
    5138:	f3 e0       	ldi	r31, 0x03	; 3
    513a:	bf 2e       	mov	r11, r31
    513c:	f0 2d       	mov	r31, r0
    513e:	0e 94 84 3d 	call	0x7b08	; 0x7b08 <__udivdi3>
    5142:	20 93 77 52 	sts	0x5277, r18	; 0x805277 <RO_1000>
    5146:	30 93 78 52 	sts	0x5278, r19	; 0x805278 <RO_1000+0x1>
    514a:	40 93 79 52 	sts	0x5279, r20	; 0x805279 <RO_1000+0x2>
    514e:	50 93 7a 52 	sts	0x527A, r21	; 0x80527a <RO_1000+0x3>
    5152:	60 93 7b 52 	sts	0x527B, r22	; 0x80527b <RO_1000+0x4>
    5156:	70 93 7c 52 	sts	0x527C, r23	; 0x80527c <RO_1000+0x5>
    515a:	80 93 7d 52 	sts	0x527D, r24	; 0x80527d <RO_1000+0x6>
    515e:	90 93 7e 52 	sts	0x527E, r25	; 0x80527e <RO_1000+0x7>
	RO_100   = RO % 1000 / 100;						// ыбЬыУЬьЕА RO   100ьЭШ ьЮРыжм
    5162:	22 2d       	mov	r18, r2
    5164:	33 2d       	mov	r19, r3
    5166:	44 2d       	mov	r20, r4
    5168:	55 2d       	mov	r21, r5
    516a:	66 2d       	mov	r22, r6
    516c:	77 2d       	mov	r23, r7
    516e:	88 2d       	mov	r24, r8
    5170:	99 2d       	mov	r25, r9
    5172:	0e 94 82 3d 	call	0x7b04	; 0x7b04 <__umoddi3>
    5176:	0f 2e       	mov	r0, r31
    5178:	f4 e6       	ldi	r31, 0x64	; 100
    517a:	af 2e       	mov	r10, r31
    517c:	f0 2d       	mov	r31, r0
    517e:	b1 2c       	mov	r11, r1
    5180:	0e 94 84 3d 	call	0x7b08	; 0x7b08 <__udivdi3>
    5184:	20 93 69 51 	sts	0x5169, r18	; 0x805169 <RO_100>
    5188:	30 93 6a 51 	sts	0x516A, r19	; 0x80516a <RO_100+0x1>
    518c:	40 93 6b 51 	sts	0x516B, r20	; 0x80516b <RO_100+0x2>
    5190:	50 93 6c 51 	sts	0x516C, r21	; 0x80516c <RO_100+0x3>
    5194:	60 93 6d 51 	sts	0x516D, r22	; 0x80516d <RO_100+0x4>
    5198:	70 93 6e 51 	sts	0x516E, r23	; 0x80516e <RO_100+0x5>
    519c:	80 93 6f 51 	sts	0x516F, r24	; 0x80516f <RO_100+0x6>
    51a0:	90 93 70 51 	sts	0x5170, r25	; 0x805170 <RO_100+0x7>
	RO_10    = RO % 100 / 10;						// ыбЬыУЬьЕА RO    10ьЭШ ьЮРыжм
    51a4:	22 2d       	mov	r18, r2
    51a6:	33 2d       	mov	r19, r3
    51a8:	44 2d       	mov	r20, r4
    51aa:	55 2d       	mov	r21, r5
    51ac:	66 2d       	mov	r22, r6
    51ae:	77 2d       	mov	r23, r7
    51b0:	88 2d       	mov	r24, r8
    51b2:	99 2d       	mov	r25, r9
    51b4:	0e 94 82 3d 	call	0x7b04	; 0x7b04 <__umoddi3>
    51b8:	0f 2e       	mov	r0, r31
    51ba:	fa e0       	ldi	r31, 0x0A	; 10
    51bc:	af 2e       	mov	r10, r31
    51be:	f0 2d       	mov	r31, r0
    51c0:	0e 94 84 3d 	call	0x7b08	; 0x7b08 <__udivdi3>
    51c4:	20 93 3f 51 	sts	0x513F, r18	; 0x80513f <RO_10>
    51c8:	30 93 40 51 	sts	0x5140, r19	; 0x805140 <RO_10+0x1>
    51cc:	40 93 41 51 	sts	0x5141, r20	; 0x805141 <RO_10+0x2>
    51d0:	50 93 42 51 	sts	0x5142, r21	; 0x805142 <RO_10+0x3>
    51d4:	60 93 43 51 	sts	0x5143, r22	; 0x805143 <RO_10+0x4>
    51d8:	70 93 44 51 	sts	0x5144, r23	; 0x805144 <RO_10+0x5>
    51dc:	80 93 45 51 	sts	0x5145, r24	; 0x805145 <RO_10+0x6>
    51e0:	90 93 46 51 	sts	0x5146, r25	; 0x805146 <RO_10+0x7>
	RO_1     = RO % 10;							// ыбЬыУЬьЕА RO     1ьЭШ ьЮРыжм
    51e4:	22 2d       	mov	r18, r2
    51e6:	33 2d       	mov	r19, r3
    51e8:	44 2d       	mov	r20, r4
    51ea:	55 2d       	mov	r21, r5
    51ec:	66 2d       	mov	r22, r6
    51ee:	77 2d       	mov	r23, r7
    51f0:	88 2d       	mov	r24, r8
    51f2:	99 2d       	mov	r25, r9
    51f4:	0e 94 82 3d 	call	0x7b04	; 0x7b04 <__umoddi3>
    51f8:	20 93 75 51 	sts	0x5175, r18	; 0x805175 <RO_1>
    51fc:	30 93 76 51 	sts	0x5176, r19	; 0x805176 <RO_1+0x1>
    5200:	40 93 77 51 	sts	0x5177, r20	; 0x805177 <RO_1+0x2>
    5204:	50 93 78 51 	sts	0x5178, r21	; 0x805178 <RO_1+0x3>
    5208:	60 93 79 51 	sts	0x5179, r22	; 0x805179 <RO_1+0x4>
    520c:	70 93 7a 51 	sts	0x517A, r23	; 0x80517a <RO_1+0x5>
    5210:	80 93 7b 51 	sts	0x517B, r24	; 0x80517b <RO_1+0x6>
    5214:	90 93 7c 51 	sts	0x517C, r25	; 0x80517c <RO_1+0x7>
//-------------------------------------------------------------------------------------------------
	IN_S_10000 = IN_Scales / 10000;						// ьЮЕъ╡м ь▓┤ьдС 10.000kgьЭШ ьЮРыжм
    5218:	ce 01       	movw	r24, r28
    521a:	60 e1       	ldi	r22, 0x10	; 16
    521c:	77 e2       	ldi	r23, 0x27	; 39
    521e:	0e 94 b1 3c 	call	0x7962	; 0x7962 <__divmodhi4>
    5222:	60 93 0a 51 	sts	0x510A, r22	; 0x80510a <IN_S_10000>
	IN_S_1000  = IN_Scales % 10000/ 1000;					// ьЮЕъ╡м ь▓┤ьдС  1.000kgьЭШ ьЮРыжм
    5226:	28 ee       	ldi	r18, 0xE8	; 232
    5228:	33 e0       	ldi	r19, 0x03	; 3
    522a:	b9 01       	movw	r22, r18
    522c:	0e 94 b1 3c 	call	0x7962	; 0x7962 <__divmodhi4>
    5230:	60 93 72 51 	sts	0x5172, r22	; 0x805172 <IN_S_1000>
	IN_S_100   = IN_Scales % 1000 / 100;					// ьЮЕъ╡м ь▓┤ьдС  0.100kgьЭШ ьЮРыжм
    5234:	ce 01       	movw	r24, r28
    5236:	b9 01       	movw	r22, r18
    5238:	0e 94 b1 3c 	call	0x7962	; 0x7962 <__divmodhi4>
    523c:	24 e6       	ldi	r18, 0x64	; 100
    523e:	30 e0       	ldi	r19, 0x00	; 0
    5240:	b9 01       	movw	r22, r18
    5242:	0e 94 b1 3c 	call	0x7962	; 0x7962 <__divmodhi4>
    5246:	60 93 0b 51 	sts	0x510B, r22	; 0x80510b <IN_S_100>
	IN_S_10    = IN_Scales % 100 / 10;					// ьЮЕъ╡м ь▓┤ьдС  0.010kgьЭШ ьЮРыжм
    524a:	ce 01       	movw	r24, r28
    524c:	b9 01       	movw	r22, r18
    524e:	0e 94 b1 3c 	call	0x7962	; 0x7962 <__divmodhi4>
    5252:	2a e0       	ldi	r18, 0x0A	; 10
    5254:	30 e0       	ldi	r19, 0x00	; 0
    5256:	b9 01       	movw	r22, r18
    5258:	0e 94 b1 3c 	call	0x7962	; 0x7962 <__divmodhi4>
    525c:	60 93 ee 50 	sts	0x50EE, r22	; 0x8050ee <IN_S_10>
	IN_S_1     = IN_Scales % 10;						// ьЮЕъ╡м ь▓┤ьдС  0.001kgьЭШ ьЮРыжм
    5260:	ce 01       	movw	r24, r28
    5262:	b9 01       	movw	r22, r18
    5264:	0e 94 b1 3c 	call	0x7962	; 0x7962 <__divmodhi4>
    5268:	80 93 60 51 	sts	0x5160, r24	; 0x805160 <IN_S_1>
//-------------------------------------------------------------------------------------------------
	while(SET.Menu)								// ыйФыЙ┤ъ░А 1 ьЭ┤ый┤ ы░Шы│╡
    526c:	ae e0       	ldi	r26, 0x0E	; 14
    526e:	b1 e5       	ldi	r27, 0x51	; 81
    5270:	8c 91       	ld	r24, X
    5272:	88 23       	and	r24, r24
    5274:	09 f4       	brne	.+2      	; 0x5278 <Loadcell_Set+0x2e4>
    5276:	81 c1       	rjmp	.+770    	; 0x557a <Loadcell_Set+0x5e6>
    5278:	33 24       	eor	r3, r3
    527a:	33 94       	inc	r3
	{
		if(KEY.Buff)							// Key ьЮЕыаеьЭ┤ ьЮИьЬ╝ый┤
    527c:	0b e4       	ldi	r16, 0x4B	; 75
    527e:	11 e5       	ldi	r17, 0x51	; 81
		{
			if     (KEY.Key == 1 && Count < 7) {Count++; KEY.Key = 0;}				// ьЧЕ  ы▓ДэК╝ ьЭ┤ый┤ Count ьжЭъ░А
			else if(KEY.Key == 3 && Count > 0) {Count--; KEY.Key = 0;}				// ыЛдьЪ┤ы▓ДэК╝ ьЭ┤ый┤ Count ъ░РьЖМ
		}
		DIGIT[2][0] = fnd_tbl[Count];					// FND 2.0 ьЧР Count эСЬьЛЬ
    5280:	c9 e7       	ldi	r28, 0x79	; 121
    5282:	d1 e4       	ldi	r29, 0x41	; 65
				if(SET.Select) {IN_Scales_Set();}		// ыбЬыУЬьЕА ьЮЕъ╡мь▓┤ьдС ьДдьаХ
			break;

			case 6:							// Count = 6 ьЭ┤ый┤
				DIGIT[0][3] = FND_S;				// FND 0 ьЧР Scal эСЬьЛЬ
				DIGIT[0][2] = FND_c;
    5284:	0f 2e       	mov	r0, r31
    5286:	fa e1       	ldi	r31, 0x1A	; 26
    5288:	cf 2e       	mov	r12, r31
    528a:	f0 2d       	mov	r31, r0
				DIGIT[0][1] = FND_a;
    528c:	0f 2e       	mov	r0, r31
    528e:	fa ef       	ldi	r31, 0xFA	; 250
    5290:	2f 2e       	mov	r2, r31
    5292:	f0 2d       	mov	r31, r0
				DIGIT[0][0] = FND_l;
    5294:	0f 2e       	mov	r0, r31
    5296:	f0 e6       	ldi	r31, 0x60	; 96
    5298:	df 2e       	mov	r13, r31
    529a:	f0 2d       	mov	r31, r0

				DIGIT[1][3] = fnd_tbl[RO_10000]+FND_Point;	// ыбЬыУЬьЕА RO 10000ьЭШ ьЮРыжм FND 1 ьЧР RO ъ░Т эСЬьЛЬ
    529c:	0f 2e       	mov	r0, r31
    529e:	f4 e5       	ldi	r31, 0x54	; 84
    52a0:	8f 2e       	mov	r8, r31
    52a2:	f1 e5       	ldi	r31, 0x51	; 81
    52a4:	9f 2e       	mov	r9, r31
    52a6:	f0 2d       	mov	r31, r0
				DIGIT[1][2] = fnd_tbl[RO_1000 ];		// ыбЬыУЬьЕА RO  1000ьЭШ ьЮРыжм
    52a8:	0f 2e       	mov	r0, r31
    52aa:	f7 e7       	ldi	r31, 0x77	; 119
    52ac:	af 2e       	mov	r10, r31
    52ae:	f2 e5       	ldi	r31, 0x52	; 82
    52b0:	bf 2e       	mov	r11, r31
    52b2:	f0 2d       	mov	r31, r0
				DIGIT[1][1] = fnd_tbl[RO_100  ];		// ыбЬыУЬьЕА RO   100ьЭШ ьЮРыжм
				DIGIT[1][0] = fnd_tbl[RO_10   ];		// ыбЬыУЬьЕА RO    10ьЭШ ьЮРыжм
    52b4:	0f 2e       	mov	r0, r31
    52b6:	ff e3       	ldi	r31, 0x3F	; 63
    52b8:	6f 2e       	mov	r6, r31
    52ba:	f1 e5       	ldi	r31, 0x51	; 81
    52bc:	7f 2e       	mov	r7, r31
    52be:	f0 2d       	mov	r31, r0

				DIGIT[2][3] = fnd_tbl[RO_1    ];		// ыбЬыУЬьЕА RO     1ьЭШ ьЮРыжм FND 2 ьЧР ROъ░Т эСЬьЛЬ
    52c0:	0f 2e       	mov	r0, r31
    52c2:	f5 e7       	ldi	r31, 0x75	; 117
    52c4:	4f 2e       	mov	r4, r31
    52c6:	f1 e5       	ldi	r31, 0x51	; 81
    52c8:	5f 2e       	mov	r5, r31
    52ca:	f0 2d       	mov	r31, r0

				if(SET.Select) {Interval_Set();}		// ыбЬыУЬьЕА RO ьДдьаХ
    52cc:	7d 01       	movw	r14, r26
	IN_S_10    = IN_Scales % 100 / 10;					// ьЮЕъ╡м ь▓┤ьдС  0.010kgьЭШ ьЮРыжм
	IN_S_1     = IN_Scales % 10;						// ьЮЕъ╡м ь▓┤ьдС  0.001kgьЭШ ьЮРыжм
//-------------------------------------------------------------------------------------------------
	while(SET.Menu)								// ыйФыЙ┤ъ░А 1 ьЭ┤ый┤ ы░Шы│╡
	{
		if(KEY.Buff)							// Key ьЮЕыаеьЭ┤ ьЮИьЬ╝ый┤
    52ce:	f8 01       	movw	r30, r16
    52d0:	81 81       	ldd	r24, Z+1	; 0x01
    52d2:	88 23       	and	r24, r24
    52d4:	a1 f0       	breq	.+40     	; 0x52fe <Loadcell_Set+0x36a>
		{
			if     (KEY.Key == 1 && Count < 7) {Count++; KEY.Key = 0;}				// ьЧЕ  ы▓ДэК╝ ьЭ┤ый┤ Count ьжЭъ░А
    52d6:	82 81       	ldd	r24, Z+2	; 0x02
    52d8:	81 30       	cpi	r24, 0x01	; 1
    52da:	41 f4       	brne	.+16     	; 0x52ec <Loadcell_Set+0x358>
    52dc:	f6 e0       	ldi	r31, 0x06	; 6
    52de:	f3 15       	cp	r31, r3
    52e0:	28 f0       	brcs	.+10     	; 0x52ec <Loadcell_Set+0x358>
    52e2:	33 94       	inc	r3
    52e4:	d8 01       	movw	r26, r16
    52e6:	12 96       	adiw	r26, 0x02	; 2
    52e8:	1c 92       	st	X, r1
    52ea:	09 c0       	rjmp	.+18     	; 0x52fe <Loadcell_Set+0x36a>
			else if(KEY.Key == 3 && Count > 0) {Count--; KEY.Key = 0;}				// ыЛдьЪ┤ы▓ДэК╝ ьЭ┤ый┤ Count ъ░РьЖМ
    52ec:	f8 01       	movw	r30, r16
    52ee:	82 81       	ldd	r24, Z+2	; 0x02
    52f0:	83 30       	cpi	r24, 0x03	; 3
    52f2:	29 f4       	brne	.+10     	; 0x52fe <Loadcell_Set+0x36a>
    52f4:	33 20       	and	r3, r3
    52f6:	09 f4       	brne	.+2      	; 0x52fa <Loadcell_Set+0x366>
    52f8:	3b c1       	rjmp	.+630    	; 0x5570 <Loadcell_Set+0x5dc>
    52fa:	3a 94       	dec	r3
    52fc:	12 82       	std	Z+2, r1	; 0x02
		}
		DIGIT[2][0] = fnd_tbl[Count];					// FND 2.0 ьЧР Count эСЬьЛЬ
    52fe:	e3 2d       	mov	r30, r3
    5300:	f0 e0       	ldi	r31, 0x00	; 0
    5302:	ed 5b       	subi	r30, 0xBD	; 189
    5304:	fe 4b       	sbci	r31, 0xBE	; 190
    5306:	80 81       	ld	r24, Z
    5308:	88 87       	std	Y+8, r24	; 0x08

		switch(Count)							// Count
    530a:	83 2d       	mov	r24, r3
    530c:	90 e0       	ldi	r25, 0x00	; 0
    530e:	88 30       	cpi	r24, 0x08	; 8
    5310:	91 05       	cpc	r25, r1
    5312:	08 f0       	brcs	.+2      	; 0x5316 <Loadcell_Set+0x382>
    5314:	26 c1       	rjmp	.+588    	; 0x5562 <Loadcell_Set+0x5ce>
    5316:	fc 01       	movw	r30, r24
    5318:	e9 57       	subi	r30, 0x79	; 121
    531a:	fc 4f       	sbci	r31, 0xFC	; 252
    531c:	0c 94 06 3d 	jmp	0x7a0c	; 0x7a0c <__tablejump2__>

				if(SET.Select) {Interval_Set();}		// ыбЬыУЬьЕА RO ьДдьаХ
			break;

			case 7:							// Count = 7 ьЭ┤ый┤
				Count = 1;					// ы░Шы│╡ьЭД ьЬДэХ┤ Count ые╝ ь╡ЬьаАыбЬ ъ░РьЖМ ьЛЬэВ┤
    5320:	33 24       	eor	r3, r3
    5322:	33 94       	inc	r3
    5324:	1e c1       	rjmp	.+572    	; 0x5562 <Loadcell_Set+0x5ce>
		DIGIT[2][0] = fnd_tbl[Count];					// FND 2.0 ьЧР Count эСЬьЛЬ

		switch(Count)							// Count
		{
			case 0:							// Count = 0 ьЭ┤ый┤
				Count = 6;					// ы░Шы│╡ьЭД ьЬДэХ┤ Count ые╝ ь╡Ьъ│аыбЬ ьжЭъ░А ьЛЬэВ┤
    5326:	0f 2e       	mov	r0, r31
    5328:	f6 e0       	ldi	r31, 0x06	; 6
    532a:	3f 2e       	mov	r3, r31
    532c:	f0 2d       	mov	r31, r0
			break;
    532e:	19 c1       	rjmp	.+562    	; 0x5562 <Loadcell_Set+0x5ce>

			case 1:							// Count = 1 ьЭ┤ый┤
				DIGIT[0][3] = FND_OFF;				// FND 0 ьЧР id эСЬьЛЬ
    5330:	1b 82       	std	Y+3, r1	; 0x03
				DIGIT[0][2] = FND_OFF;
    5332:	1a 82       	std	Y+2, r1	; 0x02
				DIGIT[0][1] = FND_I;
    5334:	d9 82       	std	Y+1, r13	; 0x01
				DIGIT[0][0] = FND_d;
    5336:	8a e7       	ldi	r24, 0x7A	; 122
    5338:	88 83       	st	Y, r24

				DIGIT[1][3] = FND_OFF;
    533a:	1f 82       	std	Y+7, r1	; 0x07
				DIGIT[1][2] = FND_OFF;
    533c:	1e 82       	std	Y+6, r1	; 0x06
				DIGIT[1][1] = fnd_tbl[Cell_ID / 10];		// FND 1 ьЧР Cell_ID ъ░Т эСЬьЛЬ
    533e:	90 91 e9 50 	lds	r25, 0x50E9	; 0x8050e9 <Cell_ID>
    5342:	8d ec       	ldi	r24, 0xCD	; 205
    5344:	98 9f       	mul	r25, r24
    5346:	81 2d       	mov	r24, r1
    5348:	11 24       	eor	r1, r1
    534a:	86 95       	lsr	r24
    534c:	86 95       	lsr	r24
    534e:	86 95       	lsr	r24
    5350:	e8 2f       	mov	r30, r24
    5352:	f0 e0       	ldi	r31, 0x00	; 0
    5354:	ed 5b       	subi	r30, 0xBD	; 189
    5356:	fe 4b       	sbci	r31, 0xBE	; 190
    5358:	20 81       	ld	r18, Z
    535a:	2d 83       	std	Y+5, r18	; 0x05
				DIGIT[1][0] = fnd_tbl[Cell_ID % 10];
    535c:	88 0f       	add	r24, r24
    535e:	28 2f       	mov	r18, r24
    5360:	22 0f       	add	r18, r18
    5362:	22 0f       	add	r18, r18
    5364:	82 0f       	add	r24, r18
    5366:	98 1b       	sub	r25, r24
    5368:	e9 2f       	mov	r30, r25
    536a:	f0 e0       	ldi	r31, 0x00	; 0
    536c:	ed 5b       	subi	r30, 0xBD	; 189
    536e:	fe 4b       	sbci	r31, 0xBE	; 190
    5370:	80 81       	ld	r24, Z
    5372:	8c 83       	std	Y+4, r24	; 0x04

				DIGIT[2][3] = FND_OFF;				// ыбЬыУЬьЕА RO, ьЮЕъ╡мь▓┤ьдС 1ьЭШ ьЮРыжм ьзАьЪ░ъ╕░
    5374:	1b 86       	std	Y+11, r1	; 0x0b

				if(SET.Select) {ID_Set();}			// Cell ID ьДдьаХ
    5376:	d7 01       	movw	r26, r14
    5378:	11 96       	adiw	r26, 0x01	; 1
    537a:	8c 91       	ld	r24, X
    537c:	88 23       	and	r24, r24
    537e:	09 f4       	brne	.+2      	; 0x5382 <Loadcell_Set+0x3ee>
    5380:	f0 c0       	rjmp	.+480    	; 0x5562 <Loadcell_Set+0x5ce>
    5382:	0e 94 4a 27 	call	0x4e94	; 0x4e94 <ID_Set>
    5386:	ed c0       	rjmp	.+474    	; 0x5562 <Loadcell_Set+0x5ce>
			break;

			case 2:							// Count = 2 ьЭ┤ый┤
				DIGIT[0][3] = FND_OFF;				// FND 0 ьЧР cnt эСЬьЛЬ
    5388:	1b 82       	std	Y+3, r1	; 0x03
				DIGIT[0][2] = FND_c;
    538a:	ca 82       	std	Y+2, r12	; 0x02
				DIGIT[0][1] = FND_n;
    538c:	8a e2       	ldi	r24, 0x2A	; 42
    538e:	89 83       	std	Y+1, r24	; 0x01
				DIGIT[0][0] = FND_t;
    5390:	8e e1       	ldi	r24, 0x1E	; 30
    5392:	88 83       	st	Y, r24

				DIGIT[1][3] = FND_OFF;
    5394:	1f 82       	std	Y+7, r1	; 0x07
				DIGIT[1][2] = FND_OFF;
    5396:	1e 82       	std	Y+6, r1	; 0x06
				DIGIT[1][1] = fnd_tbl[Cell_CNT / 10];		// FND 1 ьЧР ъ░пьИШ ьДдьаХъ░Т эСЬьЛЬ
    5398:	90 91 73 51 	lds	r25, 0x5173	; 0x805173 <Cell_CNT>
    539c:	8d ec       	ldi	r24, 0xCD	; 205
    539e:	98 9f       	mul	r25, r24
    53a0:	81 2d       	mov	r24, r1
    53a2:	11 24       	eor	r1, r1
    53a4:	86 95       	lsr	r24
    53a6:	86 95       	lsr	r24
    53a8:	86 95       	lsr	r24
    53aa:	e8 2f       	mov	r30, r24
    53ac:	f0 e0       	ldi	r31, 0x00	; 0
    53ae:	ed 5b       	subi	r30, 0xBD	; 189
    53b0:	fe 4b       	sbci	r31, 0xBE	; 190
    53b2:	20 81       	ld	r18, Z
    53b4:	2d 83       	std	Y+5, r18	; 0x05
				DIGIT[1][0] = fnd_tbl[Cell_CNT % 10];
    53b6:	88 0f       	add	r24, r24
    53b8:	28 2f       	mov	r18, r24
    53ba:	22 0f       	add	r18, r18
    53bc:	22 0f       	add	r18, r18
    53be:	82 0f       	add	r24, r18
    53c0:	98 1b       	sub	r25, r24
    53c2:	e9 2f       	mov	r30, r25
    53c4:	f0 e0       	ldi	r31, 0x00	; 0
    53c6:	ed 5b       	subi	r30, 0xBD	; 189
    53c8:	fe 4b       	sbci	r31, 0xBE	; 190
    53ca:	80 81       	ld	r24, Z
    53cc:	8c 83       	std	Y+4, r24	; 0x04

				DIGIT[2][3] = FND_OFF;				// ыбЬыУЬьЕА RO, ьЮЕъ╡мь▓┤ьдС 1ьЭШ ьЮРыжм ьзАьЪ░ъ╕░
    53ce:	1b 86       	std	Y+11, r1	; 0x0b

				if(SET.Select) {CNT_Set();}			// Cell ъ░пьИШ ьДдьаХ
    53d0:	f7 01       	movw	r30, r14
    53d2:	81 81       	ldd	r24, Z+1	; 0x01
    53d4:	88 23       	and	r24, r24
    53d6:	09 f4       	brne	.+2      	; 0x53da <Loadcell_Set+0x446>
    53d8:	c4 c0       	rjmp	.+392    	; 0x5562 <Loadcell_Set+0x5ce>
    53da:	0e 94 c5 26 	call	0x4d8a	; 0x4d8a <CNT_Set>
    53de:	c1 c0       	rjmp	.+386    	; 0x5562 <Loadcell_Set+0x5ce>
			break;

			case 3:							// Count = 3 ьЭ┤ый┤
				DIGIT[0][3] = FND_C;				// FND 0 ьЧР Capa эСЬьЛЬ
    53e0:	8c e9       	ldi	r24, 0x9C	; 156
    53e2:	8b 83       	std	Y+3, r24	; 0x03
				DIGIT[0][2] = FND_a;
    53e4:	2a 82       	std	Y+2, r2	; 0x02
				DIGIT[0][1] = FND_P;
    53e6:	8e ec       	ldi	r24, 0xCE	; 206
    53e8:	89 83       	std	Y+1, r24	; 0x01
				DIGIT[0][0] = FND_a;
    53ea:	28 82       	st	Y, r2

				DIGIT[1][3] = fnd_tbl[CAPA_1000];		// ыбЬыУЬьЕА CAPA 1000ьЭШ ьЮРыжм
    53ec:	e0 91 a9 41 	lds	r30, 0x41A9	; 0x8041a9 <CAPA_1000>
    53f0:	f0 e0       	ldi	r31, 0x00	; 0
    53f2:	ed 5b       	subi	r30, 0xBD	; 189
    53f4:	fe 4b       	sbci	r31, 0xBE	; 190
    53f6:	80 81       	ld	r24, Z
    53f8:	8f 83       	std	Y+7, r24	; 0x07
				DIGIT[1][2] = fnd_tbl[CAPA_100 ];		// ыбЬыУЬьЕА CAPA  100ьЭШ ьЮРыжм
    53fa:	e0 91 5c 51 	lds	r30, 0x515C	; 0x80515c <CAPA_100>
    53fe:	f0 e0       	ldi	r31, 0x00	; 0
    5400:	ed 5b       	subi	r30, 0xBD	; 189
    5402:	fe 4b       	sbci	r31, 0xBE	; 190
    5404:	80 81       	ld	r24, Z
    5406:	8e 83       	std	Y+6, r24	; 0x06
				DIGIT[1][1] = fnd_tbl[CAPA_10  ];		// ыбЬыУЬьЕА CAPA   10ьЭШ ьЮРыжм
    5408:	e0 91 62 51 	lds	r30, 0x5162	; 0x805162 <CAPA_10>
    540c:	f0 e0       	ldi	r31, 0x00	; 0
    540e:	ed 5b       	subi	r30, 0xBD	; 189
    5410:	fe 4b       	sbci	r31, 0xBE	; 190
    5412:	80 81       	ld	r24, Z
    5414:	8d 83       	std	Y+5, r24	; 0x05
				DIGIT[1][0] = fnd_tbl[CAPA_1   ];		// ыбЬыУЬьЕА CAPA    1ьЭШ ьЮРыжм
    5416:	e0 91 31 51 	lds	r30, 0x5131	; 0x805131 <CAPA_1>
    541a:	f0 e0       	ldi	r31, 0x00	; 0
    541c:	ed 5b       	subi	r30, 0xBD	; 189
    541e:	fe 4b       	sbci	r31, 0xBE	; 190
    5420:	80 81       	ld	r24, Z
    5422:	8c 83       	std	Y+4, r24	; 0x04

				DIGIT[2][3] = FND_OFF;				// ыбЬыУЬьЕА RO, ьЮЕъ╡мь▓┤ьдС 1ьЭШ ьЮРыжм ьзАьЪ░ъ╕░
    5424:	1b 86       	std	Y+11, r1	; 0x0b

				if(SET.Select) {CAPA_Set();}			// ыбЬыУЬьЕА CAPA ьДдьаХ
    5426:	d7 01       	movw	r26, r14
    5428:	11 96       	adiw	r26, 0x01	; 1
    542a:	8c 91       	ld	r24, X
    542c:	88 23       	and	r24, r24
    542e:	09 f4       	brne	.+2      	; 0x5432 <Loadcell_Set+0x49e>
    5430:	98 c0       	rjmp	.+304    	; 0x5562 <Loadcell_Set+0x5ce>
    5432:	0e 94 1d 25 	call	0x4a3a	; 0x4a3a <CAPA_Set>
    5436:	95 c0       	rjmp	.+298    	; 0x5562 <Loadcell_Set+0x5ce>
			break;

			case 4:							// Count = 4 ьЭ┤ый┤
				DIGIT[0][3] = FND_OFF;				// FND 0 ьЧР ro эСЬьЛЬ
    5438:	1b 82       	std	Y+3, r1	; 0x03
				DIGIT[0][2] = FND_OFF;
    543a:	1a 82       	std	Y+2, r1	; 0x02
				DIGIT[0][1] = FND_r;
    543c:	8a e0       	ldi	r24, 0x0A	; 10
    543e:	89 83       	std	Y+1, r24	; 0x01
				DIGIT[0][0] = FND_o;
    5440:	8a e3       	ldi	r24, 0x3A	; 58
    5442:	88 83       	st	Y, r24

				DIGIT[1][3] = fnd_tbl[RO_10000]+FND_Point;	// ыбЬыУЬьЕА RO 10000ьЭШ ьЮРыжм FND 1 ьЧР RO ъ░Т эСЬьЛЬ
    5444:	d4 01       	movw	r26, r8
    5446:	ed 91       	ld	r30, X+
    5448:	fc 91       	ld	r31, X
    544a:	ed 5b       	subi	r30, 0xBD	; 189
    544c:	fe 4b       	sbci	r31, 0xBE	; 190
    544e:	80 81       	ld	r24, Z
    5450:	8f 5f       	subi	r24, 0xFF	; 255
    5452:	8f 83       	std	Y+7, r24	; 0x07
				DIGIT[1][2] = fnd_tbl[RO_1000 ];		// ыбЬыУЬьЕА RO  1000ьЭШ ьЮРыжм
    5454:	d5 01       	movw	r26, r10
    5456:	ed 91       	ld	r30, X+
    5458:	fc 91       	ld	r31, X
    545a:	ed 5b       	subi	r30, 0xBD	; 189
    545c:	fe 4b       	sbci	r31, 0xBE	; 190
    545e:	80 81       	ld	r24, Z
    5460:	8e 83       	std	Y+6, r24	; 0x06
				DIGIT[1][1] = fnd_tbl[RO_100  ];		// ыбЬыУЬьЕА RO   100ьЭШ ьЮРыжм
    5462:	a9 e6       	ldi	r26, 0x69	; 105
    5464:	b1 e5       	ldi	r27, 0x51	; 81
    5466:	ed 91       	ld	r30, X+
    5468:	fc 91       	ld	r31, X
    546a:	ed 5b       	subi	r30, 0xBD	; 189
    546c:	fe 4b       	sbci	r31, 0xBE	; 190
    546e:	80 81       	ld	r24, Z
    5470:	8d 83       	std	Y+5, r24	; 0x05
				DIGIT[1][0] = fnd_tbl[RO_10   ];		// ыбЬыУЬьЕА RO    10ьЭШ ьЮРыжм
    5472:	d3 01       	movw	r26, r6
    5474:	ed 91       	ld	r30, X+
    5476:	fc 91       	ld	r31, X
    5478:	ed 5b       	subi	r30, 0xBD	; 189
    547a:	fe 4b       	sbci	r31, 0xBE	; 190
    547c:	80 81       	ld	r24, Z
    547e:	8c 83       	std	Y+4, r24	; 0x04

				DIGIT[2][3] = fnd_tbl[RO_1    ];		// ыбЬыУЬьЕА RO     1ьЭШ ьЮРыжм FND 2 ьЧР ROъ░Т эСЬьЛЬ
    5480:	d2 01       	movw	r26, r4
    5482:	ed 91       	ld	r30, X+
    5484:	fc 91       	ld	r31, X
    5486:	ed 5b       	subi	r30, 0xBD	; 189
    5488:	fe 4b       	sbci	r31, 0xBE	; 190
    548a:	80 81       	ld	r24, Z
    548c:	8b 87       	std	Y+11, r24	; 0x0b

				if(SET.Select) {RO_Set();}			// ыбЬыУЬьЕА RO ьДдьаХ
    548e:	f7 01       	movw	r30, r14
    5490:	81 81       	ldd	r24, Z+1	; 0x01
    5492:	88 23       	and	r24, r24
    5494:	09 f4       	brne	.+2      	; 0x5498 <Loadcell_Set+0x504>
    5496:	65 c0       	rjmp	.+202    	; 0x5562 <Loadcell_Set+0x5ce>
    5498:	0e 94 1b 1d 	call	0x3a36	; 0x3a36 <RO_Set>
    549c:	62 c0       	rjmp	.+196    	; 0x5562 <Loadcell_Set+0x5ce>
			break;

			case 5:							// Count = 5 ьЭ┤ый┤
				DIGIT[0][3] = FND_I;				// FND 0 ьЧР IN-S эСЬьЛЬ
    549e:	db 82       	std	Y+3, r13	; 0x03
				DIGIT[0][2] = FND_N;
    54a0:	8c ee       	ldi	r24, 0xEC	; 236
    54a2:	8a 83       	std	Y+2, r24	; 0x02
				DIGIT[0][1] = FND_MINUS;
    54a4:	82 e0       	ldi	r24, 0x02	; 2
    54a6:	89 83       	std	Y+1, r24	; 0x01
				DIGIT[0][0] = FND_S;
    54a8:	f6 eb       	ldi	r31, 0xB6	; 182
    54aa:	f8 83       	st	Y, r31

				DIGIT[1][3] = fnd_tbl[IN_S_10000];		// ьЮЕъ╡м ь▓┤ьдС 10.000kgьЭШ ьЮРыжм FND 1 ьЧР ьЮЕъ╡мь▓┤ьдСъ░Т эСЬьЛЬ
    54ac:	e0 91 0a 51 	lds	r30, 0x510A	; 0x80510a <IN_S_10000>
    54b0:	f0 e0       	ldi	r31, 0x00	; 0
    54b2:	ed 5b       	subi	r30, 0xBD	; 189
    54b4:	fe 4b       	sbci	r31, 0xBE	; 190
    54b6:	80 81       	ld	r24, Z
    54b8:	8f 83       	std	Y+7, r24	; 0x07
				DIGIT[1][2] = fnd_tbl[IN_S_1000]+FND_Point;	// ьЮЕъ╡м ь▓┤ьдС  1.000kgьЭШ ьЮРыжм
    54ba:	e0 91 72 51 	lds	r30, 0x5172	; 0x805172 <IN_S_1000>
    54be:	f0 e0       	ldi	r31, 0x00	; 0
    54c0:	ed 5b       	subi	r30, 0xBD	; 189
    54c2:	fe 4b       	sbci	r31, 0xBE	; 190
    54c4:	80 81       	ld	r24, Z
    54c6:	8f 5f       	subi	r24, 0xFF	; 255
    54c8:	8e 83       	std	Y+6, r24	; 0x06
				DIGIT[1][1] = fnd_tbl[IN_S_100];		// ьЮЕъ╡м ь▓┤ьдС  0.100kgьЭШ ьЮРыжм
    54ca:	e0 91 0b 51 	lds	r30, 0x510B	; 0x80510b <IN_S_100>
    54ce:	f0 e0       	ldi	r31, 0x00	; 0
    54d0:	ed 5b       	subi	r30, 0xBD	; 189
    54d2:	fe 4b       	sbci	r31, 0xBE	; 190
    54d4:	80 81       	ld	r24, Z
    54d6:	8d 83       	std	Y+5, r24	; 0x05
				DIGIT[1][0] = fnd_tbl[IN_S_10];			// ьЮЕъ╡м ь▓┤ьдС  0.010kgьЭШ ьЮРыжм
    54d8:	e0 91 ee 50 	lds	r30, 0x50EE	; 0x8050ee <IN_S_10>
    54dc:	f0 e0       	ldi	r31, 0x00	; 0
    54de:	ed 5b       	subi	r30, 0xBD	; 189
    54e0:	fe 4b       	sbci	r31, 0xBE	; 190
    54e2:	80 81       	ld	r24, Z
    54e4:	8c 83       	std	Y+4, r24	; 0x04
				DIGIT[2][3] = fnd_tbl[IN_S_1];			// ьЮЕъ╡м ь▓┤ьдС  0.001kgьЭШ ьЮРыжм FND 2 ьЧР ьЮЕъ╡мь▓┤ьдСъ░Т эСЬьЛЬ
    54e6:	e0 91 60 51 	lds	r30, 0x5160	; 0x805160 <IN_S_1>
    54ea:	f0 e0       	ldi	r31, 0x00	; 0
    54ec:	ed 5b       	subi	r30, 0xBD	; 189
    54ee:	fe 4b       	sbci	r31, 0xBE	; 190
    54f0:	80 81       	ld	r24, Z
    54f2:	8b 87       	std	Y+11, r24	; 0x0b

				if(SET.Select) {IN_Scales_Set();}		// ыбЬыУЬьЕА ьЮЕъ╡мь▓┤ьдС ьДдьаХ
    54f4:	d7 01       	movw	r26, r14
    54f6:	11 96       	adiw	r26, 0x01	; 1
    54f8:	8c 91       	ld	r24, X
    54fa:	88 23       	and	r24, r24
    54fc:	91 f1       	breq	.+100    	; 0x5562 <Loadcell_Set+0x5ce>
    54fe:	0e 94 66 1b 	call	0x36cc	; 0x36cc <IN_Scales_Set>
    5502:	2f c0       	rjmp	.+94     	; 0x5562 <Loadcell_Set+0x5ce>
			break;

			case 6:							// Count = 6 ьЭ┤ый┤
				DIGIT[0][3] = FND_S;				// FND 0 ьЧР Scal эСЬьЛЬ
    5504:	b6 eb       	ldi	r27, 0xB6	; 182
    5506:	bb 83       	std	Y+3, r27	; 0x03
				DIGIT[0][2] = FND_c;
    5508:	ca 82       	std	Y+2, r12	; 0x02
				DIGIT[0][1] = FND_a;
    550a:	29 82       	std	Y+1, r2	; 0x01
				DIGIT[0][0] = FND_l;
    550c:	d8 82       	st	Y, r13

				DIGIT[1][3] = fnd_tbl[RO_10000]+FND_Point;	// ыбЬыУЬьЕА RO 10000ьЭШ ьЮРыжм FND 1 ьЧР RO ъ░Т эСЬьЛЬ
    550e:	d4 01       	movw	r26, r8
    5510:	ed 91       	ld	r30, X+
    5512:	fc 91       	ld	r31, X
    5514:	ed 5b       	subi	r30, 0xBD	; 189
    5516:	fe 4b       	sbci	r31, 0xBE	; 190
    5518:	80 81       	ld	r24, Z
    551a:	8f 5f       	subi	r24, 0xFF	; 255
    551c:	8f 83       	std	Y+7, r24	; 0x07
				DIGIT[1][2] = fnd_tbl[RO_1000 ];		// ыбЬыУЬьЕА RO  1000ьЭШ ьЮРыжм
    551e:	d5 01       	movw	r26, r10
    5520:	ed 91       	ld	r30, X+
    5522:	fc 91       	ld	r31, X
    5524:	ed 5b       	subi	r30, 0xBD	; 189
    5526:	fe 4b       	sbci	r31, 0xBE	; 190
    5528:	80 81       	ld	r24, Z
    552a:	8e 83       	std	Y+6, r24	; 0x06
				DIGIT[1][1] = fnd_tbl[RO_100  ];		// ыбЬыУЬьЕА RO   100ьЭШ ьЮРыжм
    552c:	a9 e6       	ldi	r26, 0x69	; 105
    552e:	b1 e5       	ldi	r27, 0x51	; 81
    5530:	ed 91       	ld	r30, X+
    5532:	fc 91       	ld	r31, X
    5534:	ed 5b       	subi	r30, 0xBD	; 189
    5536:	fe 4b       	sbci	r31, 0xBE	; 190
    5538:	80 81       	ld	r24, Z
    553a:	8d 83       	std	Y+5, r24	; 0x05
				DIGIT[1][0] = fnd_tbl[RO_10   ];		// ыбЬыУЬьЕА RO    10ьЭШ ьЮРыжм
    553c:	d3 01       	movw	r26, r6
    553e:	ed 91       	ld	r30, X+
    5540:	fc 91       	ld	r31, X
    5542:	ed 5b       	subi	r30, 0xBD	; 189
    5544:	fe 4b       	sbci	r31, 0xBE	; 190
    5546:	80 81       	ld	r24, Z
    5548:	8c 83       	std	Y+4, r24	; 0x04

				DIGIT[2][3] = fnd_tbl[RO_1    ];		// ыбЬыУЬьЕА RO     1ьЭШ ьЮРыжм FND 2 ьЧР ROъ░Т эСЬьЛЬ
    554a:	d2 01       	movw	r26, r4
    554c:	ed 91       	ld	r30, X+
    554e:	fc 91       	ld	r31, X
    5550:	ed 5b       	subi	r30, 0xBD	; 189
    5552:	fe 4b       	sbci	r31, 0xBE	; 190
    5554:	80 81       	ld	r24, Z
    5556:	8b 87       	std	Y+11, r24	; 0x0b

				if(SET.Select) {Interval_Set();}		// ыбЬыУЬьЕА RO ьДдьаХ
    5558:	f7 01       	movw	r30, r14
    555a:	81 81       	ldd	r24, Z+1	; 0x01
    555c:	81 11       	cpse	r24, r1
    555e:	0e 94 4f 22 	call	0x449e	; 0x449e <Interval_Set>

			case 7:							// Count = 7 ьЭ┤ый┤
				Count = 1;					// ы░Шы│╡ьЭД ьЬДэХ┤ Count ые╝ ь╡ЬьаАыбЬ ъ░РьЖМ ьЛЬэВ┤
			break;
		}
		wdt_reset();							// ьЫМь╣ШыПЕ ыжмьЕЛ
    5562:	0e 94 18 14 	call	0x2830	; 0x2830 <wdt_reset>
	IN_S_1000  = IN_Scales % 10000/ 1000;					// ьЮЕъ╡м ь▓┤ьдС  1.000kgьЭШ ьЮРыжм
	IN_S_100   = IN_Scales % 1000 / 100;					// ьЮЕъ╡м ь▓┤ьдС  0.100kgьЭШ ьЮРыжм
	IN_S_10    = IN_Scales % 100 / 10;					// ьЮЕъ╡м ь▓┤ьдС  0.010kgьЭШ ьЮРыжм
	IN_S_1     = IN_Scales % 10;						// ьЮЕъ╡м ь▓┤ьдС  0.001kgьЭШ ьЮРыжм
//-------------------------------------------------------------------------------------------------
	while(SET.Menu)								// ыйФыЙ┤ъ░А 1 ьЭ┤ый┤ ы░Шы│╡
    5566:	d7 01       	movw	r26, r14
    5568:	8c 91       	ld	r24, X
    556a:	81 11       	cpse	r24, r1
    556c:	b0 ce       	rjmp	.-672    	; 0x52ce <Loadcell_Set+0x33a>
    556e:	05 c0       	rjmp	.+10     	; 0x557a <Loadcell_Set+0x5e6>
		if(KEY.Buff)							// Key ьЮЕыаеьЭ┤ ьЮИьЬ╝ый┤
		{
			if     (KEY.Key == 1 && Count < 7) {Count++; KEY.Key = 0;}				// ьЧЕ  ы▓ДэК╝ ьЭ┤ый┤ Count ьжЭъ░А
			else if(KEY.Key == 3 && Count > 0) {Count--; KEY.Key = 0;}				// ыЛдьЪ┤ы▓ДэК╝ ьЭ┤ый┤ Count ъ░РьЖМ
		}
		DIGIT[2][0] = fnd_tbl[Count];					// FND 2.0 ьЧР Count эСЬьЛЬ
    5570:	e3 e4       	ldi	r30, 0x43	; 67
    5572:	f1 e4       	ldi	r31, 0x41	; 65
    5574:	80 81       	ld	r24, Z
    5576:	88 87       	std	Y+8, r24	; 0x08
    5578:	d6 ce       	rjmp	.-596    	; 0x5326 <Loadcell_Set+0x392>
				Count = 1;					// ы░Шы│╡ьЭД ьЬДэХ┤ Count ые╝ ь╡ЬьаАыбЬ ъ░РьЖМ ьЛЬэВ┤
			break;
		}
		wdt_reset();							// ьЫМь╣ШыПЕ ыжмьЕЛ
	}
}
    557a:	df 91       	pop	r29
    557c:	cf 91       	pop	r28
    557e:	1f 91       	pop	r17
    5580:	0f 91       	pop	r16
    5582:	ff 90       	pop	r15
    5584:	ef 90       	pop	r14
    5586:	df 90       	pop	r13
    5588:	cf 90       	pop	r12
    558a:	bf 90       	pop	r11
    558c:	af 90       	pop	r10
    558e:	9f 90       	pop	r9
    5590:	8f 90       	pop	r8
    5592:	7f 90       	pop	r7
    5594:	6f 90       	pop	r6
    5596:	5f 90       	pop	r5
    5598:	4f 90       	pop	r4
    559a:	3f 90       	pop	r3
    559c:	2f 90       	pop	r2
    559e:	08 95       	ret

000055a0 <protected_write_io>:
    55a0:	1b be       	out	0x3b, r1	; 59
    55a2:	fc 01       	movw	r30, r24
    55a4:	64 bf       	out	0x34, r22	; 52
    55a6:	40 83       	st	Z, r20
    55a8:	08 95       	ret

000055aa <RTC_Single_Read>:
uint8_t RTC_Single_Read(uint8_t reg)						// RTC 1Byte Data └╨▒т
{
	uint8_t data	= 0;							// data ║п╝І ├╩▒т╚н
	uint8_t retData = 0;							// retData ║п╝І ├╩▒т╚н

	data = I2C_0_read1ByteRegister(RTC_ADDRESS, reg);			// 1Byte Data └╨▒т
    55aa:	68 2f       	mov	r22, r24
    55ac:	88 e6       	ldi	r24, 0x68	; 104
    55ae:	0e 94 dc 18 	call	0x31b8	; 0x31b8 <I2C_0_read1ByteRegister>
	retData = ((data >> 4) * 10) + (data & 0x0F);				// 1010└╟ └┌╕о, 1└╟ └┌╕о ║п╚п

	return retData;								// ╕о┼╧ retData
    55b2:	98 2f       	mov	r25, r24
    55b4:	92 95       	swap	r25
    55b6:	9f 70       	andi	r25, 0x0F	; 15
    55b8:	99 0f       	add	r25, r25
    55ba:	29 2f       	mov	r18, r25
    55bc:	22 0f       	add	r18, r18
    55be:	22 0f       	add	r18, r18
    55c0:	92 0f       	add	r25, r18
    55c2:	8f 70       	andi	r24, 0x0F	; 15
}
    55c4:	89 0f       	add	r24, r25
    55c6:	08 95       	ret

000055c8 <RTC_Time_Read>:

//=================================================================================================
void RTC_Time_Read(void)							// RTC Data └╨▒т
{
    55c8:	cf 93       	push	r28
    55ca:	df 93       	push	r29
	RTC_T.Year  = RTC_Single_Read(RTC_YEAR);				// YEAR
    55cc:	86 e0       	ldi	r24, 0x06	; 6
    55ce:	0e 94 d5 2a 	call	0x55aa	; 0x55aa <RTC_Single_Read>
    55d2:	c7 e3       	ldi	r28, 0x37	; 55
    55d4:	d1 e5       	ldi	r29, 0x51	; 81
    55d6:	8e 83       	std	Y+6, r24	; 0x06
	RTC_T.Month = RTC_Single_Read(RTC_MONTH);				// MONTH
    55d8:	85 e0       	ldi	r24, 0x05	; 5
    55da:	0e 94 d5 2a 	call	0x55aa	; 0x55aa <RTC_Single_Read>
    55de:	8d 83       	std	Y+5, r24	; 0x05
	RTC_T.Date  = RTC_Single_Read(RTC_DATE);				// DATE
    55e0:	84 e0       	ldi	r24, 0x04	; 4
    55e2:	0e 94 d5 2a 	call	0x55aa	; 0x55aa <RTC_Single_Read>
    55e6:	8c 83       	std	Y+4, r24	; 0x04
	RTC_T.Day   = RTC_Single_Read(RTC_DAYOFWEEK);				// DAYOFWEEK ┐ф└╧
    55e8:	83 e0       	ldi	r24, 0x03	; 3
    55ea:	0e 94 d5 2a 	call	0x55aa	; 0x55aa <RTC_Single_Read>
    55ee:	8b 83       	std	Y+3, r24	; 0x03
	RTC_T.Hour  = RTC_Single_Read(RTC_HOUR);				// HOUR
    55f0:	82 e0       	ldi	r24, 0x02	; 2
    55f2:	0e 94 d5 2a 	call	0x55aa	; 0x55aa <RTC_Single_Read>
    55f6:	8a 83       	std	Y+2, r24	; 0x02
	RTC_T.Min   = RTC_Single_Read(RTC_MINUTE);				// MINUTE
    55f8:	81 e0       	ldi	r24, 0x01	; 1
    55fa:	0e 94 d5 2a 	call	0x55aa	; 0x55aa <RTC_Single_Read>
    55fe:	89 83       	std	Y+1, r24	; 0x01
	RTC_T.Sec   = RTC_Single_Read(RTC_SECOND);				// SECOND
    5600:	80 e0       	ldi	r24, 0x00	; 0
    5602:	0e 94 d5 2a 	call	0x55aa	; 0x55aa <RTC_Single_Read>
    5606:	88 83       	st	Y, r24
}
    5608:	df 91       	pop	r29
    560a:	cf 91       	pop	r28
    560c:	08 95       	ret

0000560e <RTC_Single_Write>:

//=================================================================================================
void RTC_Single_Write(uint8_t reg, uint8_t wData)				// RTC 1Byte Data ╛▓▒т
{
	uint8_t bcdData = ((wData / 10) << 4) | ((wData % 10) & 0x0F);		// 1010└╟ └┌╕о, 1└╟ └┌╕о ║┤├d
	I2C_0_write1ByteRegister(RTC_ADDRESS, (uint8_t)reg, bcdData);		// 1Byte Data ╛▓▒т
    560e:	9d ec       	ldi	r25, 0xCD	; 205
    5610:	69 9f       	mul	r22, r25
    5612:	91 2d       	mov	r25, r1
    5614:	11 24       	eor	r1, r1
    5616:	96 95       	lsr	r25
    5618:	96 95       	lsr	r25
    561a:	96 95       	lsr	r25
    561c:	20 e1       	ldi	r18, 0x10	; 16
    561e:	92 9f       	mul	r25, r18
    5620:	a0 01       	movw	r20, r0
    5622:	11 24       	eor	r1, r1
    5624:	99 0f       	add	r25, r25
    5626:	29 2f       	mov	r18, r25
    5628:	22 0f       	add	r18, r18
    562a:	22 0f       	add	r18, r18
    562c:	92 0f       	add	r25, r18
    562e:	69 1b       	sub	r22, r25
    5630:	6f 70       	andi	r22, 0x0F	; 15
    5632:	46 2b       	or	r20, r22
    5634:	68 2f       	mov	r22, r24
    5636:	88 e6       	ldi	r24, 0x68	; 104
    5638:	0e 94 95 18 	call	0x312a	; 0x312a <I2C_0_write1ByteRegister>
    563c:	08 95       	ret

0000563e <RTC_Time_Write>:
}

//=================================================================================================
void RTC_Time_Write(uint8_t item, uint8_t value)				// RTC Data ╛▓▒т
{
    563e:	96 2f       	mov	r25, r22
	uint8_t data = 0;							// data ║п╝І ├╩▒т╚н

	switch(item)								// item
    5640:	48 2f       	mov	r20, r24
    5642:	50 e0       	ldi	r21, 0x00	; 0
    5644:	47 30       	cpi	r20, 0x07	; 7
    5646:	51 05       	cpc	r21, r1
    5648:	e0 f4       	brcc	.+56     	; 0x5682 <RTC_Time_Write+0x44>
    564a:	fa 01       	movw	r30, r20
    564c:	e1 57       	subi	r30, 0x71	; 113
    564e:	fc 4f       	sbci	r31, 0xFC	; 252
    5650:	0c 94 06 3d 	jmp	0x7a0c	; 0x7a0c <__tablejump2__>
	{
		case RTC_SECOND:						// ├╩
			if(value > 59) {data = 0;}				// 59├╩ └╠╗ґ└╠╕щ 0├╩╖╬ ├╩▒т╚н
    5654:	9c 33       	cpi	r25, 0x3C	; 60
    5656:	b8 f4       	brcc	.+46     	; 0x5686 <RTC_Time_Write+0x48>
    5658:	23 c0       	rjmp	.+70     	; 0x56a0 <RTC_Time_Write+0x62>
			else	       {data = value;}				// ╛╞┤╧╕щ value └·└х
		break;

		case RTC_MINUTE:						// ║╨
			if(value > 59) {data = 0;}				// 59║╨ └╠╗ґ└╠╕щ 0║╨└╕╖╬ ├╩▒т╚н
    565a:	9c 33       	cpi	r25, 0x3C	; 60
    565c:	b0 f4       	brcc	.+44     	; 0x568a <RTC_Time_Write+0x4c>
    565e:	20 c0       	rjmp	.+64     	; 0x56a0 <RTC_Time_Write+0x62>
			else	       {data = value;}				// ╛╞┤╧╕щ value └·└х
		break;

		case RTC_HOUR:							// ╜├
			if(value > 23) {data = 0;}				// 23╜├ └╠╗ґ└╠╕щ 0╜├╖╬ ├╩▒т╚н
    5660:	98 31       	cpi	r25, 0x18	; 24
    5662:	a8 f4       	brcc	.+42     	; 0x568e <RTC_Time_Write+0x50>
    5664:	1d c0       	rjmp	.+58     	; 0x56a0 <RTC_Time_Write+0x62>
			else	       {data = value;}				// ╛╞┤╧╕щ value └·└х
		break;

		case RTC_DAYOFWEEK:						// ┐ф└╧ 1(└╧┐ф└╧) ~ 7(┼ф┐ф└╧) ╗ч┐ы
			if(value > 7 || value == 0) {data = 1;}			// 7 └╠╗ґ └╠░┼│к 0 └╠╕щ 1(└╧)╖╬ ├╩▒т╚н
    5666:	2f ef       	ldi	r18, 0xFF	; 255
    5668:	29 0f       	add	r18, r25
    566a:	27 30       	cpi	r18, 0x07	; 7
    566c:	90 f4       	brcc	.+36     	; 0x5692 <RTC_Time_Write+0x54>
    566e:	18 c0       	rjmp	.+48     	; 0x56a0 <RTC_Time_Write+0x62>
			else			    {data = value;}		// ╛╞┤╧╕щ value └·└х
		break;

		case RTC_DATE:							// └╧
			if(value > 31) {data = 1;}				// 31└╧ └╠╗ґ└╠╕щ 1└╧╖╬ ├╩▒т╚н
    5670:	90 32       	cpi	r25, 0x20	; 32
    5672:	88 f4       	brcc	.+34     	; 0x5696 <RTC_Time_Write+0x58>
    5674:	15 c0       	rjmp	.+42     	; 0x56a0 <RTC_Time_Write+0x62>
			else	       {data = value;}				// ╛╞┤╧╕щ value └·└х
		break;

		case RTC_MONTH:							// ┐ї
			if(value > 12) {data = 1;}				// 12┐ї └╠╗ґ└╠╕щ 1┐ї╖╬ ├╩▒т╚н
    5676:	9d 30       	cpi	r25, 0x0D	; 13
    5678:	80 f4       	brcc	.+32     	; 0x569a <RTC_Time_Write+0x5c>
    567a:	12 c0       	rjmp	.+36     	; 0x56a0 <RTC_Time_Write+0x62>
			else	       {data = value;}				// ╛╞┤╧╕щ value └·└х
		break;

		case RTC_YEAR:							// │т
			if(value == 0) {data = 21;}				// 00│т └╠╕щ 21│т └╕╖╬ ├╩▒т╚н
    567c:	91 11       	cpse	r25, r1
    567e:	10 c0       	rjmp	.+32     	; 0x56a0 <RTC_Time_Write+0x62>
    5680:	0e c0       	rjmp	.+28     	; 0x569e <RTC_Time_Write+0x60>
}

//=================================================================================================
void RTC_Time_Write(uint8_t item, uint8_t value)				// RTC Data ╛▓▒т
{
	uint8_t data = 0;							// data ║п╝І ├╩▒т╚н
    5682:	90 e0       	ldi	r25, 0x00	; 0
    5684:	0d c0       	rjmp	.+26     	; 0x56a0 <RTC_Time_Write+0x62>

	switch(item)								// item
	{
		case RTC_SECOND:						// ├╩
			if(value > 59) {data = 0;}				// 59├╩ └╠╗ґ└╠╕щ 0├╩╖╬ ├╩▒т╚н
    5686:	90 e0       	ldi	r25, 0x00	; 0
    5688:	0b c0       	rjmp	.+22     	; 0x56a0 <RTC_Time_Write+0x62>
			else	       {data = value;}				// ╛╞┤╧╕щ value └·└х
		break;

		case RTC_MINUTE:						// ║╨
			if(value > 59) {data = 0;}				// 59║╨ └╠╗ґ└╠╕щ 0║╨└╕╖╬ ├╩▒т╚н
    568a:	90 e0       	ldi	r25, 0x00	; 0
    568c:	09 c0       	rjmp	.+18     	; 0x56a0 <RTC_Time_Write+0x62>
			else	       {data = value;}				// ╛╞┤╧╕щ value └·└х
		break;

		case RTC_HOUR:							// ╜├
			if(value > 23) {data = 0;}				// 23╜├ └╠╗ґ└╠╕щ 0╜├╖╬ ├╩▒т╚н
    568e:	90 e0       	ldi	r25, 0x00	; 0
    5690:	07 c0       	rjmp	.+14     	; 0x56a0 <RTC_Time_Write+0x62>
			else	       {data = value;}				// ╛╞┤╧╕щ value └·└х
		break;

		case RTC_DAYOFWEEK:						// ┐ф└╧ 1(└╧┐ф└╧) ~ 7(┼ф┐ф└╧) ╗ч┐ы
			if(value > 7 || value == 0) {data = 1;}			// 7 └╠╗ґ └╠░┼│к 0 └╠╕щ 1(└╧)╖╬ ├╩▒т╚н
    5692:	91 e0       	ldi	r25, 0x01	; 1
    5694:	05 c0       	rjmp	.+10     	; 0x56a0 <RTC_Time_Write+0x62>
			else			    {data = value;}		// ╛╞┤╧╕щ value └·└х
		break;

		case RTC_DATE:							// └╧
			if(value > 31) {data = 1;}				// 31└╧ └╠╗ґ└╠╕щ 1└╧╖╬ ├╩▒т╚н
    5696:	91 e0       	ldi	r25, 0x01	; 1
    5698:	03 c0       	rjmp	.+6      	; 0x56a0 <RTC_Time_Write+0x62>
			else	       {data = value;}				// ╛╞┤╧╕щ value └·└х
		break;

		case RTC_MONTH:							// ┐ї
			if(value > 12) {data = 1;}				// 12┐ї └╠╗ґ└╠╕щ 1┐ї╖╬ ├╩▒т╚н
    569a:	91 e0       	ldi	r25, 0x01	; 1
    569c:	01 c0       	rjmp	.+2      	; 0x56a0 <RTC_Time_Write+0x62>
			else	       {data = value;}				// ╛╞┤╧╕щ value └·└х
		break;

		case RTC_YEAR:							// │т
			if(value == 0) {data = 21;}				// 00│т └╠╕щ 21│т └╕╖╬ ├╩▒т╚н
    569e:	95 e1       	ldi	r25, 0x15	; 21
			else	       {data = value;}				// ╛╞┤╧╕щ value └·└х
		break;
	}
	RTC_Single_Write(item, data);						// RTC 1Byte Data ╛▓▒т
    56a0:	69 2f       	mov	r22, r25
    56a2:	0e 94 07 2b 	call	0x560e	; 0x560e <RTC_Single_Write>
    56a6:	08 95       	ret

000056a8 <RTC_Set>:
//=================================================================================================
#include <rtc.h>

//=================================================================================================
void RTC_Set(void)								// RTC ╝│┴д ╕Ё╡х
{
    56a8:	af 92       	push	r10
    56aa:	bf 92       	push	r11
    56ac:	cf 92       	push	r12
    56ae:	df 92       	push	r13
    56b0:	ef 92       	push	r14
    56b2:	ff 92       	push	r15
    56b4:	0f 93       	push	r16
    56b6:	1f 93       	push	r17
    56b8:	cf 93       	push	r28
    56ba:	df 93       	push	r29
	SET.Select = 0;								// Select ╣І╞░ ├╩▒т╚н
    56bc:	ce e0       	ldi	r28, 0x0E	; 14
    56be:	d1 e5       	ldi	r29, 0x51	; 81
    56c0:	19 82       	std	Y+1, r1	; 0x01

	FND_Value_Data(0, 2, 12);						// FND 0 ~ 2 FND_OFF
    56c2:	4c e0       	ldi	r20, 0x0C	; 12
    56c4:	62 e0       	ldi	r22, 0x02	; 2
    56c6:	80 e0       	ldi	r24, 0x00	; 0
    56c8:	0e 94 d3 05 	call	0xba6	; 0xba6 <FND_Value_Data>

	RTC_Time_Read();							// RTC Data └╨▒т
    56cc:	0e 94 e4 2a 	call	0x55c8	; 0x55c8 <RTC_Time_Read>

	DIGIT[0][3] = fnd_tbl[RTC_T.Year / 10];					// │т ╟е╜├
    56d0:	27 e3       	ldi	r18, 0x37	; 55
    56d2:	31 e5       	ldi	r19, 0x51	; 81
    56d4:	d9 01       	movw	r26, r18
    56d6:	16 96       	adiw	r26, 0x06	; 6
    56d8:	6c 91       	ld	r22, X
    56da:	e9 e7       	ldi	r30, 0x79	; 121
    56dc:	f1 e4       	ldi	r31, 0x41	; 65
    56de:	8d ec       	ldi	r24, 0xCD	; 205
    56e0:	68 9f       	mul	r22, r24
    56e2:	91 2d       	mov	r25, r1
    56e4:	11 24       	eor	r1, r1
    56e6:	96 95       	lsr	r25
    56e8:	96 95       	lsr	r25
    56ea:	96 95       	lsr	r25
    56ec:	49 2f       	mov	r20, r25
    56ee:	50 e0       	ldi	r21, 0x00	; 0
    56f0:	4d 5b       	subi	r20, 0xBD	; 189
    56f2:	5e 4b       	sbci	r21, 0xBE	; 190
    56f4:	da 01       	movw	r26, r20
    56f6:	4c 91       	ld	r20, X
    56f8:	43 83       	std	Z+3, r20	; 0x03
	DIGIT[0][2] = fnd_tbl[RTC_T.Year % 10];
    56fa:	99 0f       	add	r25, r25
    56fc:	49 2f       	mov	r20, r25
    56fe:	44 0f       	add	r20, r20
    5700:	44 0f       	add	r20, r20
    5702:	94 0f       	add	r25, r20
    5704:	a6 2f       	mov	r26, r22
    5706:	a9 1b       	sub	r26, r25
    5708:	b0 e0       	ldi	r27, 0x00	; 0
    570a:	ad 5b       	subi	r26, 0xBD	; 189
    570c:	be 4b       	sbci	r27, 0xBE	; 190
    570e:	9c 91       	ld	r25, X
    5710:	92 83       	std	Z+2, r25	; 0x02

	DIGIT[0][1] = fnd_tbl[RTC_T.Month / 10];				// ┐ї ╟е╜├
    5712:	d9 01       	movw	r26, r18
    5714:	15 96       	adiw	r26, 0x05	; 5
    5716:	6c 91       	ld	r22, X
    5718:	68 9f       	mul	r22, r24
    571a:	91 2d       	mov	r25, r1
    571c:	11 24       	eor	r1, r1
    571e:	96 95       	lsr	r25
    5720:	96 95       	lsr	r25
    5722:	96 95       	lsr	r25
    5724:	49 2f       	mov	r20, r25
    5726:	50 e0       	ldi	r21, 0x00	; 0
    5728:	4d 5b       	subi	r20, 0xBD	; 189
    572a:	5e 4b       	sbci	r21, 0xBE	; 190
    572c:	da 01       	movw	r26, r20
    572e:	4c 91       	ld	r20, X
    5730:	41 83       	std	Z+1, r20	; 0x01
	DIGIT[0][0] = fnd_tbl[RTC_T.Month % 10];
    5732:	99 0f       	add	r25, r25
    5734:	49 2f       	mov	r20, r25
    5736:	44 0f       	add	r20, r20
    5738:	44 0f       	add	r20, r20
    573a:	94 0f       	add	r25, r20
    573c:	a6 2f       	mov	r26, r22
    573e:	a9 1b       	sub	r26, r25
    5740:	b0 e0       	ldi	r27, 0x00	; 0
    5742:	ad 5b       	subi	r26, 0xBD	; 189
    5744:	be 4b       	sbci	r27, 0xBE	; 190
    5746:	9c 91       	ld	r25, X
    5748:	90 83       	st	Z, r25

	DIGIT[1][3] = fnd_tbl[RTC_T.Date / 10];					// └╧ ╟е╜├
    574a:	d9 01       	movw	r26, r18
    574c:	14 96       	adiw	r26, 0x04	; 4
    574e:	6c 91       	ld	r22, X
    5750:	68 9f       	mul	r22, r24
    5752:	91 2d       	mov	r25, r1
    5754:	11 24       	eor	r1, r1
    5756:	96 95       	lsr	r25
    5758:	96 95       	lsr	r25
    575a:	96 95       	lsr	r25
    575c:	49 2f       	mov	r20, r25
    575e:	50 e0       	ldi	r21, 0x00	; 0
    5760:	4d 5b       	subi	r20, 0xBD	; 189
    5762:	5e 4b       	sbci	r21, 0xBE	; 190
    5764:	da 01       	movw	r26, r20
    5766:	4c 91       	ld	r20, X
    5768:	47 83       	std	Z+7, r20	; 0x07
	DIGIT[1][2] = fnd_tbl[RTC_T.Date % 10];
    576a:	99 0f       	add	r25, r25
    576c:	49 2f       	mov	r20, r25
    576e:	44 0f       	add	r20, r20
    5770:	44 0f       	add	r20, r20
    5772:	94 0f       	add	r25, r20
    5774:	a6 2f       	mov	r26, r22
    5776:	a9 1b       	sub	r26, r25
    5778:	b0 e0       	ldi	r27, 0x00	; 0
    577a:	ad 5b       	subi	r26, 0xBD	; 189
    577c:	be 4b       	sbci	r27, 0xBE	; 190
    577e:	9c 91       	ld	r25, X
    5780:	96 83       	std	Z+6, r25	; 0x06

	DIGIT[1][1] = fnd_tbl[RTC_T.Hour / 10];					// ╜├ ╟е╜├
    5782:	d9 01       	movw	r26, r18
    5784:	12 96       	adiw	r26, 0x02	; 2
    5786:	6c 91       	ld	r22, X
    5788:	68 9f       	mul	r22, r24
    578a:	91 2d       	mov	r25, r1
    578c:	11 24       	eor	r1, r1
    578e:	96 95       	lsr	r25
    5790:	96 95       	lsr	r25
    5792:	96 95       	lsr	r25
    5794:	49 2f       	mov	r20, r25
    5796:	50 e0       	ldi	r21, 0x00	; 0
    5798:	4d 5b       	subi	r20, 0xBD	; 189
    579a:	5e 4b       	sbci	r21, 0xBE	; 190
    579c:	da 01       	movw	r26, r20
    579e:	4c 91       	ld	r20, X
    57a0:	45 83       	std	Z+5, r20	; 0x05
	DIGIT[1][0] = fnd_tbl[RTC_T.Hour % 10];
    57a2:	99 0f       	add	r25, r25
    57a4:	49 2f       	mov	r20, r25
    57a6:	44 0f       	add	r20, r20
    57a8:	44 0f       	add	r20, r20
    57aa:	94 0f       	add	r25, r20
    57ac:	a6 2f       	mov	r26, r22
    57ae:	a9 1b       	sub	r26, r25
    57b0:	b0 e0       	ldi	r27, 0x00	; 0
    57b2:	ad 5b       	subi	r26, 0xBD	; 189
    57b4:	be 4b       	sbci	r27, 0xBE	; 190
    57b6:	9c 91       	ld	r25, X
    57b8:	94 83       	std	Z+4, r25	; 0x04

	DIGIT[2][3] = fnd_tbl[RTC_T.Min / 10];					// ║╨ ╟е╜├
    57ba:	d9 01       	movw	r26, r18
    57bc:	11 96       	adiw	r26, 0x01	; 1
    57be:	6c 91       	ld	r22, X
    57c0:	68 9f       	mul	r22, r24
    57c2:	91 2d       	mov	r25, r1
    57c4:	11 24       	eor	r1, r1
    57c6:	96 95       	lsr	r25
    57c8:	96 95       	lsr	r25
    57ca:	96 95       	lsr	r25
    57cc:	49 2f       	mov	r20, r25
    57ce:	50 e0       	ldi	r21, 0x00	; 0
    57d0:	4d 5b       	subi	r20, 0xBD	; 189
    57d2:	5e 4b       	sbci	r21, 0xBE	; 190
    57d4:	da 01       	movw	r26, r20
    57d6:	4c 91       	ld	r20, X
    57d8:	43 87       	std	Z+11, r20	; 0x0b
	DIGIT[2][2] = fnd_tbl[RTC_T.Min % 10];
    57da:	99 0f       	add	r25, r25
    57dc:	49 2f       	mov	r20, r25
    57de:	44 0f       	add	r20, r20
    57e0:	44 0f       	add	r20, r20
    57e2:	94 0f       	add	r25, r20
    57e4:	a6 2f       	mov	r26, r22
    57e6:	a9 1b       	sub	r26, r25
    57e8:	b0 e0       	ldi	r27, 0x00	; 0
    57ea:	ad 5b       	subi	r26, 0xBD	; 189
    57ec:	be 4b       	sbci	r27, 0xBE	; 190
    57ee:	9c 91       	ld	r25, X
    57f0:	92 87       	std	Z+10, r25	; 0x0a

	DIGIT[2][1] = fnd_tbl[RTC_T.Sec / 10];					// ├╩ ╟е╜├
    57f2:	d9 01       	movw	r26, r18
    57f4:	4c 91       	ld	r20, X
    57f6:	48 9f       	mul	r20, r24
    57f8:	81 2d       	mov	r24, r1
    57fa:	11 24       	eor	r1, r1
    57fc:	86 95       	lsr	r24
    57fe:	86 95       	lsr	r24
    5800:	86 95       	lsr	r24
    5802:	28 2f       	mov	r18, r24
    5804:	30 e0       	ldi	r19, 0x00	; 0
    5806:	2d 5b       	subi	r18, 0xBD	; 189
    5808:	3e 4b       	sbci	r19, 0xBE	; 190
    580a:	d9 01       	movw	r26, r18
    580c:	9c 91       	ld	r25, X
    580e:	91 87       	std	Z+9, r25	; 0x09
	DIGIT[2][0] = fnd_tbl[RTC_T.Sec % 10];
    5810:	88 0f       	add	r24, r24
    5812:	98 2f       	mov	r25, r24
    5814:	99 0f       	add	r25, r25
    5816:	99 0f       	add	r25, r25
    5818:	89 0f       	add	r24, r25
    581a:	a4 2f       	mov	r26, r20
    581c:	a8 1b       	sub	r26, r24
    581e:	b0 e0       	ldi	r27, 0x00	; 0
    5820:	ad 5b       	subi	r26, 0xBD	; 189
    5822:	be 4b       	sbci	r27, 0xBE	; 190
    5824:	8c 91       	ld	r24, X
    5826:	80 87       	std	Z+8, r24	; 0x08

	while(SET.Menu)								// ╕▐┤║╕Ё╡х └╠╕щ ╣▌║╣
    5828:	88 81       	ld	r24, Y
    582a:	88 23       	and	r24, r24
    582c:	09 f4       	brne	.+2      	; 0x5830 <RTC_Set+0x188>
    582e:	56 c2       	rjmp	.+1196   	; 0x5cdc <RTC_Set+0x634>
	{
		SET.Blink = 1;							// └┌╕┤╝І ▒Є╣┌└╙ ╝│┴д
    5830:	7e 01       	movw	r14, r28
    5832:	aa 24       	eor	r10, r10
    5834:	a3 94       	inc	r10

		switch(KEY.Count)						// ╝▒┼├ Key ░б ┤н╕░╚╜╝І
    5836:	0b e4       	ldi	r16, 0x4B	; 75
    5838:	11 e5       	ldi	r17, 0x51	; 81
					else if(KEY.Key == 3 && RTC_T.Min >  0) {RTC_T.Min --; KEY.Key = 0;}	// ┤┘┐ю╣І╞░ └╠╕щ Min ░и╝╥
				}
			break;

			case 5:							// ╖╬╡х╝┐ RO 10└╟ └┌╕о
				DIGIT[2][3] = fnd_tbl[RTC_T.Min / 10];		// ║╨ ╟е╜├
    583a:	0f 2e       	mov	r0, r31
    583c:	f7 e3       	ldi	r31, 0x37	; 55
    583e:	cf 2e       	mov	r12, r31
    5840:	f1 e5       	ldi	r31, 0x51	; 81
    5842:	df 2e       	mov	r13, r31
    5844:	f0 2d       	mov	r31, r0
    5846:	ef 01       	movw	r28, r30
    5848:	0f 2e       	mov	r0, r31
    584a:	fd ec       	ldi	r31, 0xCD	; 205
    584c:	bf 2e       	mov	r11, r31
    584e:	f0 2d       	mov	r31, r0
	DIGIT[2][1] = fnd_tbl[RTC_T.Sec / 10];					// ├╩ ╟е╜├
	DIGIT[2][0] = fnd_tbl[RTC_T.Sec % 10];

	while(SET.Menu)								// ╕▐┤║╕Ё╡х └╠╕щ ╣▌║╣
	{
		SET.Blink = 1;							// └┌╕┤╝І ▒Є╣┌└╙ ╝│┴д
    5850:	f7 01       	movw	r30, r14
    5852:	a3 82       	std	Z+3, r10	; 0x03

		switch(KEY.Count)						// ╝▒┼├ Key ░б ┤н╕░╚╜╝І
    5854:	d8 01       	movw	r26, r16
    5856:	ec 91       	ld	r30, X
    5858:	8e 2f       	mov	r24, r30
    585a:	90 e0       	ldi	r25, 0x00	; 0
    585c:	87 30       	cpi	r24, 0x07	; 7
    585e:	91 05       	cpc	r25, r1
    5860:	08 f0       	brcs	.+2      	; 0x5864 <RTC_Set+0x1bc>
    5862:	36 c2       	rjmp	.+1132   	; 0x5cd0 <RTC_Set+0x628>
    5864:	fc 01       	movw	r30, r24
    5866:	ea 56       	subi	r30, 0x6A	; 106
    5868:	fc 4f       	sbci	r31, 0xFC	; 252
    586a:	0c 94 06 3d 	jmp	0x7a0c	; 0x7a0c <__tablejump2__>
		{
			case 0:							// │т ╟е╜├ ╣╫ ╝│┴д
				DIGIT[2][1] = fnd_tbl[RTC_T.Sec / 10];		// ├╩ ╟е╜├
    586e:	d6 01       	movw	r26, r12
    5870:	ec 91       	ld	r30, X
    5872:	eb 9d       	mul	r30, r11
    5874:	81 2d       	mov	r24, r1
    5876:	11 24       	eor	r1, r1
    5878:	86 95       	lsr	r24
    587a:	86 95       	lsr	r24
    587c:	86 95       	lsr	r24
    587e:	a8 2f       	mov	r26, r24
    5880:	b0 e0       	ldi	r27, 0x00	; 0
    5882:	ad 5b       	subi	r26, 0xBD	; 189
    5884:	be 4b       	sbci	r27, 0xBE	; 190
    5886:	9c 91       	ld	r25, X
    5888:	99 87       	std	Y+9, r25	; 0x09
				DIGIT[2][0] = fnd_tbl[RTC_T.Sec % 10];
    588a:	88 0f       	add	r24, r24
    588c:	98 2f       	mov	r25, r24
    588e:	99 0f       	add	r25, r25
    5890:	99 0f       	add	r25, r25
    5892:	89 0f       	add	r24, r25
    5894:	e8 1b       	sub	r30, r24
    5896:	f0 e0       	ldi	r31, 0x00	; 0
    5898:	ed 5b       	subi	r30, 0xBD	; 189
    589a:	fe 4b       	sbci	r31, 0xBE	; 190
    589c:	80 81       	ld	r24, Z
    589e:	88 87       	std	Y+8, r24	; 0x08
				if(Blink)					// Blink = 1 └╠╕щ 
    58a0:	80 91 71 51 	lds	r24, 0x5171	; 0x805171 <Blink>
    58a4:	88 23       	and	r24, r24
    58a6:	19 f0       	breq	.+6      	; 0x58ae <RTC_Set+0x206>
				{
					DIGIT[0][3] = FND_OFF;			// ╖╬╡х╝┐ Year └┌╕о OFF
    58a8:	1b 82       	std	Y+3, r1	; 0x03
					DIGIT[0][2] = FND_OFF;
    58aa:	1a 82       	std	Y+2, r1	; 0x02
    58ac:	1a c0       	rjmp	.+52     	; 0x58e2 <RTC_Set+0x23a>
				}
				else						// Blink = 0 └╠╕щ
				{
					DIGIT[0][3] = fnd_tbl[RTC_T.Year / 10];	// ╖╬╡х╝┐ Year └┌╕о ╟е╜├
    58ae:	d6 01       	movw	r26, r12
    58b0:	16 96       	adiw	r26, 0x06	; 6
    58b2:	ec 91       	ld	r30, X
    58b4:	eb 9d       	mul	r30, r11
    58b6:	81 2d       	mov	r24, r1
    58b8:	11 24       	eor	r1, r1
    58ba:	86 95       	lsr	r24
    58bc:	86 95       	lsr	r24
    58be:	86 95       	lsr	r24
    58c0:	a8 2f       	mov	r26, r24
    58c2:	b0 e0       	ldi	r27, 0x00	; 0
    58c4:	ad 5b       	subi	r26, 0xBD	; 189
    58c6:	be 4b       	sbci	r27, 0xBE	; 190
    58c8:	9c 91       	ld	r25, X
    58ca:	9b 83       	std	Y+3, r25	; 0x03
					DIGIT[0][2] = fnd_tbl[RTC_T.Year % 10];
    58cc:	88 0f       	add	r24, r24
    58ce:	98 2f       	mov	r25, r24
    58d0:	99 0f       	add	r25, r25
    58d2:	99 0f       	add	r25, r25
    58d4:	89 0f       	add	r24, r25
    58d6:	e8 1b       	sub	r30, r24
    58d8:	f0 e0       	ldi	r31, 0x00	; 0
    58da:	ed 5b       	subi	r30, 0xBD	; 189
    58dc:	fe 4b       	sbci	r31, 0xBE	; 190
    58de:	80 81       	ld	r24, Z
    58e0:	8a 83       	std	Y+2, r24	; 0x02
				}

				if(KEY.Buff)					// Key └╘╖┬└╠ └╓└╕╕щ
    58e2:	f8 01       	movw	r30, r16
    58e4:	81 81       	ldd	r24, Z+1	; 0x01
    58e6:	88 23       	and	r24, r24
    58e8:	09 f4       	brne	.+2      	; 0x58ec <RTC_Set+0x244>
    58ea:	f2 c1       	rjmp	.+996    	; 0x5cd0 <RTC_Set+0x628>
				{
					if     (KEY.Key == 1 && RTC_T.Year < 99) {RTC_T.Year ++; KEY.Key = 0;}	// ╛і  ╣І╞░ └╠╕щ Year ┴є░б
    58ec:	82 81       	ldd	r24, Z+2	; 0x02
    58ee:	81 30       	cpi	r24, 0x01	; 1
    58f0:	59 f4       	brne	.+22     	; 0x5908 <RTC_Set+0x260>
    58f2:	d6 01       	movw	r26, r12
    58f4:	16 96       	adiw	r26, 0x06	; 6
    58f6:	8c 91       	ld	r24, X
    58f8:	16 97       	sbiw	r26, 0x06	; 6
    58fa:	83 36       	cpi	r24, 0x63	; 99
    58fc:	28 f4       	brcc	.+10     	; 0x5908 <RTC_Set+0x260>
    58fe:	8f 5f       	subi	r24, 0xFF	; 255
    5900:	16 96       	adiw	r26, 0x06	; 6
    5902:	8c 93       	st	X, r24
    5904:	12 82       	std	Z+2, r1	; 0x02
    5906:	e4 c1       	rjmp	.+968    	; 0x5cd0 <RTC_Set+0x628>
					else if(KEY.Key == 3 && RTC_T.Year >  0) {RTC_T.Year --; KEY.Key = 0;}	// ┤┘┐ю╣І╞░ └╠╕щ Year ░и╝╥
    5908:	f8 01       	movw	r30, r16
    590a:	82 81       	ldd	r24, Z+2	; 0x02
    590c:	83 30       	cpi	r24, 0x03	; 3
    590e:	09 f0       	breq	.+2      	; 0x5912 <RTC_Set+0x26a>
    5910:	df c1       	rjmp	.+958    	; 0x5cd0 <RTC_Set+0x628>
    5912:	d6 01       	movw	r26, r12
    5914:	16 96       	adiw	r26, 0x06	; 6
    5916:	8c 91       	ld	r24, X
    5918:	16 97       	sbiw	r26, 0x06	; 6
    591a:	88 23       	and	r24, r24
    591c:	09 f4       	brne	.+2      	; 0x5920 <RTC_Set+0x278>
    591e:	d8 c1       	rjmp	.+944    	; 0x5cd0 <RTC_Set+0x628>
    5920:	81 50       	subi	r24, 0x01	; 1
    5922:	16 96       	adiw	r26, 0x06	; 6
    5924:	8c 93       	st	X, r24
    5926:	12 82       	std	Z+2, r1	; 0x02
    5928:	d3 c1       	rjmp	.+934    	; 0x5cd0 <RTC_Set+0x628>
				}
			break;

			case 1:							// ┐ї ╟е╜├ ╣╫ ╝│┴д
				DIGIT[0][3] = fnd_tbl[RTC_T.Year / 10];		// │т ╟е╜├
    592a:	d6 01       	movw	r26, r12
    592c:	16 96       	adiw	r26, 0x06	; 6
    592e:	ec 91       	ld	r30, X
    5930:	eb 9d       	mul	r30, r11
    5932:	81 2d       	mov	r24, r1
    5934:	11 24       	eor	r1, r1
    5936:	86 95       	lsr	r24
    5938:	86 95       	lsr	r24
    593a:	86 95       	lsr	r24
    593c:	a8 2f       	mov	r26, r24
    593e:	b0 e0       	ldi	r27, 0x00	; 0
    5940:	ad 5b       	subi	r26, 0xBD	; 189
    5942:	be 4b       	sbci	r27, 0xBE	; 190
    5944:	9c 91       	ld	r25, X
    5946:	9b 83       	std	Y+3, r25	; 0x03
				DIGIT[0][2] = fnd_tbl[RTC_T.Year % 10];
    5948:	88 0f       	add	r24, r24
    594a:	98 2f       	mov	r25, r24
    594c:	99 0f       	add	r25, r25
    594e:	99 0f       	add	r25, r25
    5950:	89 0f       	add	r24, r25
    5952:	e8 1b       	sub	r30, r24
    5954:	f0 e0       	ldi	r31, 0x00	; 0
    5956:	ed 5b       	subi	r30, 0xBD	; 189
    5958:	fe 4b       	sbci	r31, 0xBE	; 190
    595a:	80 81       	ld	r24, Z
    595c:	8a 83       	std	Y+2, r24	; 0x02
				if(Blink)					// Blink = 1 └╠╕щ
    595e:	80 91 71 51 	lds	r24, 0x5171	; 0x805171 <Blink>
    5962:	88 23       	and	r24, r24
    5964:	19 f0       	breq	.+6      	; 0x596c <RTC_Set+0x2c4>
				{
					DIGIT[0][1] = FND_OFF;			// ╖╬╡х╝┐ Month └┌╕о OFF
    5966:	19 82       	std	Y+1, r1	; 0x01
					DIGIT[0][0] = FND_OFF;
    5968:	18 82       	st	Y, r1
    596a:	1a c0       	rjmp	.+52     	; 0x59a0 <RTC_Set+0x2f8>
				}
				else						// Blink = 0 └╠╕щ
				{
					DIGIT[0][1] = fnd_tbl[RTC_T.Month / 10];// ╖╬╡х╝┐ Month └┌╕о ╟е╜├
    596c:	d6 01       	movw	r26, r12
    596e:	15 96       	adiw	r26, 0x05	; 5
    5970:	ec 91       	ld	r30, X
    5972:	eb 9d       	mul	r30, r11
    5974:	81 2d       	mov	r24, r1
    5976:	11 24       	eor	r1, r1
    5978:	86 95       	lsr	r24
    597a:	86 95       	lsr	r24
    597c:	86 95       	lsr	r24
    597e:	a8 2f       	mov	r26, r24
    5980:	b0 e0       	ldi	r27, 0x00	; 0
    5982:	ad 5b       	subi	r26, 0xBD	; 189
    5984:	be 4b       	sbci	r27, 0xBE	; 190
    5986:	9c 91       	ld	r25, X
    5988:	99 83       	std	Y+1, r25	; 0x01
					DIGIT[0][0] = fnd_tbl[RTC_T.Month % 10];
    598a:	88 0f       	add	r24, r24
    598c:	98 2f       	mov	r25, r24
    598e:	99 0f       	add	r25, r25
    5990:	99 0f       	add	r25, r25
    5992:	89 0f       	add	r24, r25
    5994:	e8 1b       	sub	r30, r24
    5996:	f0 e0       	ldi	r31, 0x00	; 0
    5998:	ed 5b       	subi	r30, 0xBD	; 189
    599a:	fe 4b       	sbci	r31, 0xBE	; 190
    599c:	80 81       	ld	r24, Z
    599e:	88 83       	st	Y, r24
				}

				if(KEY.Buff)					// Key └╘╖┬└╠ └╓└╕╕щ
    59a0:	f8 01       	movw	r30, r16
    59a2:	81 81       	ldd	r24, Z+1	; 0x01
    59a4:	88 23       	and	r24, r24
    59a6:	09 f4       	brne	.+2      	; 0x59aa <RTC_Set+0x302>
    59a8:	93 c1       	rjmp	.+806    	; 0x5cd0 <RTC_Set+0x628>
				{
					if     (KEY.Key == 1 && RTC_T.Month < 12) {RTC_T.Month ++; KEY.Key = 0;}// ╛і  ╣І╞░ └╠╕щ Month ┴є░б
    59aa:	82 81       	ldd	r24, Z+2	; 0x02
    59ac:	81 30       	cpi	r24, 0x01	; 1
    59ae:	59 f4       	brne	.+22     	; 0x59c6 <RTC_Set+0x31e>
    59b0:	d6 01       	movw	r26, r12
    59b2:	15 96       	adiw	r26, 0x05	; 5
    59b4:	8c 91       	ld	r24, X
    59b6:	15 97       	sbiw	r26, 0x05	; 5
    59b8:	8c 30       	cpi	r24, 0x0C	; 12
    59ba:	28 f4       	brcc	.+10     	; 0x59c6 <RTC_Set+0x31e>
    59bc:	8f 5f       	subi	r24, 0xFF	; 255
    59be:	15 96       	adiw	r26, 0x05	; 5
    59c0:	8c 93       	st	X, r24
    59c2:	12 82       	std	Z+2, r1	; 0x02
    59c4:	85 c1       	rjmp	.+778    	; 0x5cd0 <RTC_Set+0x628>
					else if(KEY.Key == 3 && RTC_T.Month >  1) {RTC_T.Month --; KEY.Key = 0;}// ┤┘┐ю╣І╞░ └╠╕щ Month ░и╝╥
    59c6:	f8 01       	movw	r30, r16
    59c8:	82 81       	ldd	r24, Z+2	; 0x02
    59ca:	83 30       	cpi	r24, 0x03	; 3
    59cc:	09 f0       	breq	.+2      	; 0x59d0 <RTC_Set+0x328>
    59ce:	80 c1       	rjmp	.+768    	; 0x5cd0 <RTC_Set+0x628>
    59d0:	d6 01       	movw	r26, r12
    59d2:	15 96       	adiw	r26, 0x05	; 5
    59d4:	8c 91       	ld	r24, X
    59d6:	15 97       	sbiw	r26, 0x05	; 5
    59d8:	82 30       	cpi	r24, 0x02	; 2
    59da:	08 f4       	brcc	.+2      	; 0x59de <RTC_Set+0x336>
    59dc:	79 c1       	rjmp	.+754    	; 0x5cd0 <RTC_Set+0x628>
    59de:	81 50       	subi	r24, 0x01	; 1
    59e0:	15 96       	adiw	r26, 0x05	; 5
    59e2:	8c 93       	st	X, r24
    59e4:	12 82       	std	Z+2, r1	; 0x02
    59e6:	74 c1       	rjmp	.+744    	; 0x5cd0 <RTC_Set+0x628>
				}
			break;

			case 2:							// └╧ ╟е╜├ ╣╫ ╝│┴д
				DIGIT[0][1] = fnd_tbl[RTC_T.Month / 10];	// ┐ї ╟е╜├
    59e8:	d6 01       	movw	r26, r12
    59ea:	15 96       	adiw	r26, 0x05	; 5
    59ec:	ec 91       	ld	r30, X
    59ee:	eb 9d       	mul	r30, r11
    59f0:	81 2d       	mov	r24, r1
    59f2:	11 24       	eor	r1, r1
    59f4:	86 95       	lsr	r24
    59f6:	86 95       	lsr	r24
    59f8:	86 95       	lsr	r24
    59fa:	a8 2f       	mov	r26, r24
    59fc:	b0 e0       	ldi	r27, 0x00	; 0
    59fe:	ad 5b       	subi	r26, 0xBD	; 189
    5a00:	be 4b       	sbci	r27, 0xBE	; 190
    5a02:	9c 91       	ld	r25, X
    5a04:	99 83       	std	Y+1, r25	; 0x01
				DIGIT[0][0] = fnd_tbl[RTC_T.Month % 10];	
    5a06:	88 0f       	add	r24, r24
    5a08:	98 2f       	mov	r25, r24
    5a0a:	99 0f       	add	r25, r25
    5a0c:	99 0f       	add	r25, r25
    5a0e:	89 0f       	add	r24, r25
    5a10:	e8 1b       	sub	r30, r24
    5a12:	f0 e0       	ldi	r31, 0x00	; 0
    5a14:	ed 5b       	subi	r30, 0xBD	; 189
    5a16:	fe 4b       	sbci	r31, 0xBE	; 190
    5a18:	80 81       	ld	r24, Z
    5a1a:	88 83       	st	Y, r24
				if(Blink)					// Blink = 1 └╠╕щ
    5a1c:	80 91 71 51 	lds	r24, 0x5171	; 0x805171 <Blink>
    5a20:	88 23       	and	r24, r24
    5a22:	19 f0       	breq	.+6      	; 0x5a2a <RTC_Set+0x382>
				{
					DIGIT[1][3] = FND_OFF;			// ╖╬╡х╝┐ Date └┌╕о OFF
    5a24:	1f 82       	std	Y+7, r1	; 0x07
					DIGIT[1][2] = FND_OFF;
    5a26:	1e 82       	std	Y+6, r1	; 0x06
    5a28:	1a c0       	rjmp	.+52     	; 0x5a5e <RTC_Set+0x3b6>
				}
				else						// Blink = 0 └╠╕щ
				{
					DIGIT[1][3] = fnd_tbl[RTC_T.Date / 10];	// ╖╬╡х╝┐ Date └┌╕о ╟е╜├
    5a2a:	d6 01       	movw	r26, r12
    5a2c:	14 96       	adiw	r26, 0x04	; 4
    5a2e:	ec 91       	ld	r30, X
    5a30:	eb 9d       	mul	r30, r11
    5a32:	81 2d       	mov	r24, r1
    5a34:	11 24       	eor	r1, r1
    5a36:	86 95       	lsr	r24
    5a38:	86 95       	lsr	r24
    5a3a:	86 95       	lsr	r24
    5a3c:	a8 2f       	mov	r26, r24
    5a3e:	b0 e0       	ldi	r27, 0x00	; 0
    5a40:	ad 5b       	subi	r26, 0xBD	; 189
    5a42:	be 4b       	sbci	r27, 0xBE	; 190
    5a44:	9c 91       	ld	r25, X
    5a46:	9f 83       	std	Y+7, r25	; 0x07
					DIGIT[1][2] = fnd_tbl[RTC_T.Date % 10];
    5a48:	88 0f       	add	r24, r24
    5a4a:	98 2f       	mov	r25, r24
    5a4c:	99 0f       	add	r25, r25
    5a4e:	99 0f       	add	r25, r25
    5a50:	89 0f       	add	r24, r25
    5a52:	e8 1b       	sub	r30, r24
    5a54:	f0 e0       	ldi	r31, 0x00	; 0
    5a56:	ed 5b       	subi	r30, 0xBD	; 189
    5a58:	fe 4b       	sbci	r31, 0xBE	; 190
    5a5a:	80 81       	ld	r24, Z
    5a5c:	8e 83       	std	Y+6, r24	; 0x06
				}

				if(KEY.Buff)					// Key └╘╖┬└╠ └╓└╕╕щ
    5a5e:	f8 01       	movw	r30, r16
    5a60:	81 81       	ldd	r24, Z+1	; 0x01
    5a62:	88 23       	and	r24, r24
    5a64:	09 f4       	brne	.+2      	; 0x5a68 <RTC_Set+0x3c0>
    5a66:	34 c1       	rjmp	.+616    	; 0x5cd0 <RTC_Set+0x628>
				{
					if     (KEY.Key == 1 && RTC_T.Date < 31) {RTC_T.Date ++; KEY.Key = 0;}	// ╛і  ╣І╞░ └╠╕щ Date ┴є░б
    5a68:	82 81       	ldd	r24, Z+2	; 0x02
    5a6a:	81 30       	cpi	r24, 0x01	; 1
    5a6c:	59 f4       	brne	.+22     	; 0x5a84 <RTC_Set+0x3dc>
    5a6e:	d6 01       	movw	r26, r12
    5a70:	14 96       	adiw	r26, 0x04	; 4
    5a72:	8c 91       	ld	r24, X
    5a74:	14 97       	sbiw	r26, 0x04	; 4
    5a76:	8f 31       	cpi	r24, 0x1F	; 31
    5a78:	28 f4       	brcc	.+10     	; 0x5a84 <RTC_Set+0x3dc>
    5a7a:	8f 5f       	subi	r24, 0xFF	; 255
    5a7c:	14 96       	adiw	r26, 0x04	; 4
    5a7e:	8c 93       	st	X, r24
    5a80:	12 82       	std	Z+2, r1	; 0x02
    5a82:	26 c1       	rjmp	.+588    	; 0x5cd0 <RTC_Set+0x628>
					else if(KEY.Key == 3 && RTC_T.Date >  1) {RTC_T.Date --; KEY.Key = 0;}	// ┤┘┐ю╣І╞░ └╠╕щ Date ░и╝╥
    5a84:	f8 01       	movw	r30, r16
    5a86:	82 81       	ldd	r24, Z+2	; 0x02
    5a88:	83 30       	cpi	r24, 0x03	; 3
    5a8a:	09 f0       	breq	.+2      	; 0x5a8e <RTC_Set+0x3e6>
    5a8c:	21 c1       	rjmp	.+578    	; 0x5cd0 <RTC_Set+0x628>
    5a8e:	d6 01       	movw	r26, r12
    5a90:	14 96       	adiw	r26, 0x04	; 4
    5a92:	8c 91       	ld	r24, X
    5a94:	14 97       	sbiw	r26, 0x04	; 4
    5a96:	82 30       	cpi	r24, 0x02	; 2
    5a98:	08 f4       	brcc	.+2      	; 0x5a9c <RTC_Set+0x3f4>
    5a9a:	1a c1       	rjmp	.+564    	; 0x5cd0 <RTC_Set+0x628>
    5a9c:	81 50       	subi	r24, 0x01	; 1
    5a9e:	14 96       	adiw	r26, 0x04	; 4
    5aa0:	8c 93       	st	X, r24
    5aa2:	12 82       	std	Z+2, r1	; 0x02
    5aa4:	15 c1       	rjmp	.+554    	; 0x5cd0 <RTC_Set+0x628>
				}
			break;

			case 3:							// ╜├ ╟е╜├ ╣╫ ╝│┴д
				DIGIT[1][3] = fnd_tbl[RTC_T.Date / 10];		// └╧ ╟е╜├
    5aa6:	d6 01       	movw	r26, r12
    5aa8:	14 96       	adiw	r26, 0x04	; 4
    5aaa:	ec 91       	ld	r30, X
    5aac:	eb 9d       	mul	r30, r11
    5aae:	81 2d       	mov	r24, r1
    5ab0:	11 24       	eor	r1, r1
    5ab2:	86 95       	lsr	r24
    5ab4:	86 95       	lsr	r24
    5ab6:	86 95       	lsr	r24
    5ab8:	a8 2f       	mov	r26, r24
    5aba:	b0 e0       	ldi	r27, 0x00	; 0
    5abc:	ad 5b       	subi	r26, 0xBD	; 189
    5abe:	be 4b       	sbci	r27, 0xBE	; 190
    5ac0:	9c 91       	ld	r25, X
    5ac2:	9f 83       	std	Y+7, r25	; 0x07
				DIGIT[1][2] = fnd_tbl[RTC_T.Date % 10];
    5ac4:	88 0f       	add	r24, r24
    5ac6:	98 2f       	mov	r25, r24
    5ac8:	99 0f       	add	r25, r25
    5aca:	99 0f       	add	r25, r25
    5acc:	89 0f       	add	r24, r25
    5ace:	e8 1b       	sub	r30, r24
    5ad0:	f0 e0       	ldi	r31, 0x00	; 0
    5ad2:	ed 5b       	subi	r30, 0xBD	; 189
    5ad4:	fe 4b       	sbci	r31, 0xBE	; 190
    5ad6:	80 81       	ld	r24, Z
    5ad8:	8e 83       	std	Y+6, r24	; 0x06
				if(Blink)					// Blink = 1 └╠╕щ
    5ada:	80 91 71 51 	lds	r24, 0x5171	; 0x805171 <Blink>
    5ade:	88 23       	and	r24, r24
    5ae0:	19 f0       	breq	.+6      	; 0x5ae8 <RTC_Set+0x440>
				{
					DIGIT[1][1] = FND_OFF;			// ╖╬╡х╝┐ Hour └┌╕о OFF
    5ae2:	1d 82       	std	Y+5, r1	; 0x05
					DIGIT[1][0] = FND_OFF;
    5ae4:	1c 82       	std	Y+4, r1	; 0x04
    5ae6:	1a c0       	rjmp	.+52     	; 0x5b1c <RTC_Set+0x474>
				}
				else						// Blink = 0 └╠╕щ
				{
					DIGIT[1][1] = fnd_tbl[RTC_T.Hour / 10];	// ╖╬╡х╝┐ Hour └┌╕о ╟е╜├
    5ae8:	d6 01       	movw	r26, r12
    5aea:	12 96       	adiw	r26, 0x02	; 2
    5aec:	ec 91       	ld	r30, X
    5aee:	eb 9d       	mul	r30, r11
    5af0:	81 2d       	mov	r24, r1
    5af2:	11 24       	eor	r1, r1
    5af4:	86 95       	lsr	r24
    5af6:	86 95       	lsr	r24
    5af8:	86 95       	lsr	r24
    5afa:	a8 2f       	mov	r26, r24
    5afc:	b0 e0       	ldi	r27, 0x00	; 0
    5afe:	ad 5b       	subi	r26, 0xBD	; 189
    5b00:	be 4b       	sbci	r27, 0xBE	; 190
    5b02:	9c 91       	ld	r25, X
    5b04:	9d 83       	std	Y+5, r25	; 0x05
					DIGIT[1][0] = fnd_tbl[RTC_T.Hour % 10];
    5b06:	88 0f       	add	r24, r24
    5b08:	98 2f       	mov	r25, r24
    5b0a:	99 0f       	add	r25, r25
    5b0c:	99 0f       	add	r25, r25
    5b0e:	89 0f       	add	r24, r25
    5b10:	e8 1b       	sub	r30, r24
    5b12:	f0 e0       	ldi	r31, 0x00	; 0
    5b14:	ed 5b       	subi	r30, 0xBD	; 189
    5b16:	fe 4b       	sbci	r31, 0xBE	; 190
    5b18:	80 81       	ld	r24, Z
    5b1a:	8c 83       	std	Y+4, r24	; 0x04
				}

				if(KEY.Buff)					// Key └╘╖┬└╠ └╓└╕╕щ
    5b1c:	f8 01       	movw	r30, r16
    5b1e:	81 81       	ldd	r24, Z+1	; 0x01
    5b20:	88 23       	and	r24, r24
    5b22:	09 f4       	brne	.+2      	; 0x5b26 <RTC_Set+0x47e>
    5b24:	d5 c0       	rjmp	.+426    	; 0x5cd0 <RTC_Set+0x628>
				{
					if     (KEY.Key == 1 && RTC_T.Hour < 23) {RTC_T.Hour ++; KEY.Key = 0;}	// ╛і  ╣І╞░ └╠╕щ Hour ┴є░б
    5b26:	82 81       	ldd	r24, Z+2	; 0x02
    5b28:	81 30       	cpi	r24, 0x01	; 1
    5b2a:	59 f4       	brne	.+22     	; 0x5b42 <RTC_Set+0x49a>
    5b2c:	d6 01       	movw	r26, r12
    5b2e:	12 96       	adiw	r26, 0x02	; 2
    5b30:	8c 91       	ld	r24, X
    5b32:	12 97       	sbiw	r26, 0x02	; 2
    5b34:	87 31       	cpi	r24, 0x17	; 23
    5b36:	28 f4       	brcc	.+10     	; 0x5b42 <RTC_Set+0x49a>
    5b38:	8f 5f       	subi	r24, 0xFF	; 255
    5b3a:	12 96       	adiw	r26, 0x02	; 2
    5b3c:	8c 93       	st	X, r24
    5b3e:	12 82       	std	Z+2, r1	; 0x02
    5b40:	c7 c0       	rjmp	.+398    	; 0x5cd0 <RTC_Set+0x628>
					else if(KEY.Key == 3 && RTC_T.Hour >  0) {RTC_T.Hour --; KEY.Key = 0;}	// ┤┘┐ю╣І╞░ └╠╕щ Hour ░и╝╥
    5b42:	f8 01       	movw	r30, r16
    5b44:	82 81       	ldd	r24, Z+2	; 0x02
    5b46:	83 30       	cpi	r24, 0x03	; 3
    5b48:	09 f0       	breq	.+2      	; 0x5b4c <RTC_Set+0x4a4>
    5b4a:	c2 c0       	rjmp	.+388    	; 0x5cd0 <RTC_Set+0x628>
    5b4c:	d6 01       	movw	r26, r12
    5b4e:	12 96       	adiw	r26, 0x02	; 2
    5b50:	8c 91       	ld	r24, X
    5b52:	12 97       	sbiw	r26, 0x02	; 2
    5b54:	88 23       	and	r24, r24
    5b56:	09 f4       	brne	.+2      	; 0x5b5a <RTC_Set+0x4b2>
    5b58:	bb c0       	rjmp	.+374    	; 0x5cd0 <RTC_Set+0x628>
    5b5a:	81 50       	subi	r24, 0x01	; 1
    5b5c:	12 96       	adiw	r26, 0x02	; 2
    5b5e:	8c 93       	st	X, r24
    5b60:	12 82       	std	Z+2, r1	; 0x02
    5b62:	b6 c0       	rjmp	.+364    	; 0x5cd0 <RTC_Set+0x628>
				}
			break;

			case 4:							// ║╨ ╟е╜├ ╣╫ ╝│┴д
				DIGIT[1][1] = fnd_tbl[RTC_T.Hour / 10];		// ╜├ ╟е╜├
    5b64:	d6 01       	movw	r26, r12
    5b66:	12 96       	adiw	r26, 0x02	; 2
    5b68:	ec 91       	ld	r30, X
    5b6a:	eb 9d       	mul	r30, r11
    5b6c:	81 2d       	mov	r24, r1
    5b6e:	11 24       	eor	r1, r1
    5b70:	86 95       	lsr	r24
    5b72:	86 95       	lsr	r24
    5b74:	86 95       	lsr	r24
    5b76:	a8 2f       	mov	r26, r24
    5b78:	b0 e0       	ldi	r27, 0x00	; 0
    5b7a:	ad 5b       	subi	r26, 0xBD	; 189
    5b7c:	be 4b       	sbci	r27, 0xBE	; 190
    5b7e:	9c 91       	ld	r25, X
    5b80:	9d 83       	std	Y+5, r25	; 0x05
				DIGIT[1][0] = fnd_tbl[RTC_T.Hour % 10];
    5b82:	88 0f       	add	r24, r24
    5b84:	98 2f       	mov	r25, r24
    5b86:	99 0f       	add	r25, r25
    5b88:	99 0f       	add	r25, r25
    5b8a:	89 0f       	add	r24, r25
    5b8c:	e8 1b       	sub	r30, r24
    5b8e:	f0 e0       	ldi	r31, 0x00	; 0
    5b90:	ed 5b       	subi	r30, 0xBD	; 189
    5b92:	fe 4b       	sbci	r31, 0xBE	; 190
    5b94:	80 81       	ld	r24, Z
    5b96:	8c 83       	std	Y+4, r24	; 0x04
				if(Blink)					// Blink = 1 └╠╕щ
    5b98:	80 91 71 51 	lds	r24, 0x5171	; 0x805171 <Blink>
    5b9c:	88 23       	and	r24, r24
    5b9e:	19 f0       	breq	.+6      	; 0x5ba6 <RTC_Set+0x4fe>
				{
					DIGIT[2][3] = FND_OFF;			// ╖╬╡х╝┐ Min └┌╕о OFF
    5ba0:	1b 86       	std	Y+11, r1	; 0x0b
					DIGIT[2][2] = FND_OFF;
    5ba2:	1a 86       	std	Y+10, r1	; 0x0a
    5ba4:	1a c0       	rjmp	.+52     	; 0x5bda <RTC_Set+0x532>
				}
				else						// Blink = 0 └╠╕щ
				{
					DIGIT[2][3] = fnd_tbl[RTC_T.Min / 10];	// ╖╬╡х╝┐ Min └┌╕о ╟е╜├
    5ba6:	d6 01       	movw	r26, r12
    5ba8:	11 96       	adiw	r26, 0x01	; 1
    5baa:	ec 91       	ld	r30, X
    5bac:	eb 9d       	mul	r30, r11
    5bae:	81 2d       	mov	r24, r1
    5bb0:	11 24       	eor	r1, r1
    5bb2:	86 95       	lsr	r24
    5bb4:	86 95       	lsr	r24
    5bb6:	86 95       	lsr	r24
    5bb8:	a8 2f       	mov	r26, r24
    5bba:	b0 e0       	ldi	r27, 0x00	; 0
    5bbc:	ad 5b       	subi	r26, 0xBD	; 189
    5bbe:	be 4b       	sbci	r27, 0xBE	; 190
    5bc0:	9c 91       	ld	r25, X
    5bc2:	9b 87       	std	Y+11, r25	; 0x0b
					DIGIT[2][2] = fnd_tbl[RTC_T.Min % 10];
    5bc4:	88 0f       	add	r24, r24
    5bc6:	98 2f       	mov	r25, r24
    5bc8:	99 0f       	add	r25, r25
    5bca:	99 0f       	add	r25, r25
    5bcc:	89 0f       	add	r24, r25
    5bce:	e8 1b       	sub	r30, r24
    5bd0:	f0 e0       	ldi	r31, 0x00	; 0
    5bd2:	ed 5b       	subi	r30, 0xBD	; 189
    5bd4:	fe 4b       	sbci	r31, 0xBE	; 190
    5bd6:	80 81       	ld	r24, Z
    5bd8:	8a 87       	std	Y+10, r24	; 0x0a
				}

				if(KEY.Buff)					// Key └╘╖┬└╠ └╓└╕╕щ
    5bda:	f8 01       	movw	r30, r16
    5bdc:	81 81       	ldd	r24, Z+1	; 0x01
    5bde:	88 23       	and	r24, r24
    5be0:	09 f4       	brne	.+2      	; 0x5be4 <RTC_Set+0x53c>
    5be2:	76 c0       	rjmp	.+236    	; 0x5cd0 <RTC_Set+0x628>
				{
					if     (KEY.Key == 1 && RTC_T.Min < 59) {RTC_T.Min ++; KEY.Key = 0;}	// ╛і  ╣І╞░ └╠╕щ Min ┴є░б
    5be4:	82 81       	ldd	r24, Z+2	; 0x02
    5be6:	81 30       	cpi	r24, 0x01	; 1
    5be8:	59 f4       	brne	.+22     	; 0x5c00 <RTC_Set+0x558>
    5bea:	d6 01       	movw	r26, r12
    5bec:	11 96       	adiw	r26, 0x01	; 1
    5bee:	8c 91       	ld	r24, X
    5bf0:	11 97       	sbiw	r26, 0x01	; 1
    5bf2:	8b 33       	cpi	r24, 0x3B	; 59
    5bf4:	28 f4       	brcc	.+10     	; 0x5c00 <RTC_Set+0x558>
    5bf6:	8f 5f       	subi	r24, 0xFF	; 255
    5bf8:	11 96       	adiw	r26, 0x01	; 1
    5bfa:	8c 93       	st	X, r24
    5bfc:	12 82       	std	Z+2, r1	; 0x02
    5bfe:	68 c0       	rjmp	.+208    	; 0x5cd0 <RTC_Set+0x628>
					else if(KEY.Key == 3 && RTC_T.Min >  0) {RTC_T.Min --; KEY.Key = 0;}	// ┤┘┐ю╣І╞░ └╠╕щ Min ░и╝╥
    5c00:	f8 01       	movw	r30, r16
    5c02:	82 81       	ldd	r24, Z+2	; 0x02
    5c04:	83 30       	cpi	r24, 0x03	; 3
    5c06:	09 f0       	breq	.+2      	; 0x5c0a <RTC_Set+0x562>
    5c08:	63 c0       	rjmp	.+198    	; 0x5cd0 <RTC_Set+0x628>
    5c0a:	d6 01       	movw	r26, r12
    5c0c:	11 96       	adiw	r26, 0x01	; 1
    5c0e:	8c 91       	ld	r24, X
    5c10:	11 97       	sbiw	r26, 0x01	; 1
    5c12:	88 23       	and	r24, r24
    5c14:	09 f4       	brne	.+2      	; 0x5c18 <RTC_Set+0x570>
    5c16:	5c c0       	rjmp	.+184    	; 0x5cd0 <RTC_Set+0x628>
    5c18:	81 50       	subi	r24, 0x01	; 1
    5c1a:	11 96       	adiw	r26, 0x01	; 1
    5c1c:	8c 93       	st	X, r24
    5c1e:	12 82       	std	Z+2, r1	; 0x02
    5c20:	57 c0       	rjmp	.+174    	; 0x5cd0 <RTC_Set+0x628>
				}
			break;

			case 5:							// ╖╬╡х╝┐ RO 10└╟ └┌╕о
				DIGIT[2][3] = fnd_tbl[RTC_T.Min / 10];		// ║╨ ╟е╜├
    5c22:	d6 01       	movw	r26, r12
    5c24:	11 96       	adiw	r26, 0x01	; 1
    5c26:	ec 91       	ld	r30, X
    5c28:	eb 9d       	mul	r30, r11
    5c2a:	81 2d       	mov	r24, r1
    5c2c:	11 24       	eor	r1, r1
    5c2e:	86 95       	lsr	r24
    5c30:	86 95       	lsr	r24
    5c32:	86 95       	lsr	r24
    5c34:	a8 2f       	mov	r26, r24
    5c36:	b0 e0       	ldi	r27, 0x00	; 0
    5c38:	ad 5b       	subi	r26, 0xBD	; 189
    5c3a:	be 4b       	sbci	r27, 0xBE	; 190
    5c3c:	9c 91       	ld	r25, X
    5c3e:	9b 87       	std	Y+11, r25	; 0x0b
				DIGIT[2][2] = fnd_tbl[RTC_T.Min % 10];
    5c40:	88 0f       	add	r24, r24
    5c42:	98 2f       	mov	r25, r24
    5c44:	99 0f       	add	r25, r25
    5c46:	99 0f       	add	r25, r25
    5c48:	89 0f       	add	r24, r25
    5c4a:	e8 1b       	sub	r30, r24
    5c4c:	f0 e0       	ldi	r31, 0x00	; 0
    5c4e:	ed 5b       	subi	r30, 0xBD	; 189
    5c50:	fe 4b       	sbci	r31, 0xBE	; 190
    5c52:	80 81       	ld	r24, Z
    5c54:	8a 87       	std	Y+10, r24	; 0x0a
				if(Blink)					// Blink = 1 └╠╕щ
    5c56:	80 91 71 51 	lds	r24, 0x5171	; 0x805171 <Blink>
    5c5a:	88 23       	and	r24, r24
    5c5c:	19 f0       	breq	.+6      	; 0x5c64 <RTC_Set+0x5bc>
				{
					DIGIT[2][1] = FND_OFF;			// ╖╬╡х╝┐ Sec └┌╕о OFF
    5c5e:	19 86       	std	Y+9, r1	; 0x09
					DIGIT[2][0] = FND_OFF;
    5c60:	18 86       	std	Y+8, r1	; 0x08
    5c62:	19 c0       	rjmp	.+50     	; 0x5c96 <RTC_Set+0x5ee>
				}
				else						// Blink = 0 └╠╕щ
				{
					DIGIT[2][1] = fnd_tbl[RTC_T.Sec / 10];	// ╖╬╡х╝┐ Sec └┌╕о ╟е╜├
    5c64:	d6 01       	movw	r26, r12
    5c66:	ec 91       	ld	r30, X
    5c68:	eb 9d       	mul	r30, r11
    5c6a:	81 2d       	mov	r24, r1
    5c6c:	11 24       	eor	r1, r1
    5c6e:	86 95       	lsr	r24
    5c70:	86 95       	lsr	r24
    5c72:	86 95       	lsr	r24
    5c74:	a8 2f       	mov	r26, r24
    5c76:	b0 e0       	ldi	r27, 0x00	; 0
    5c78:	ad 5b       	subi	r26, 0xBD	; 189
    5c7a:	be 4b       	sbci	r27, 0xBE	; 190
    5c7c:	9c 91       	ld	r25, X
    5c7e:	99 87       	std	Y+9, r25	; 0x09
					DIGIT[2][0] = fnd_tbl[RTC_T.Sec % 10];
    5c80:	88 0f       	add	r24, r24
    5c82:	98 2f       	mov	r25, r24
    5c84:	99 0f       	add	r25, r25
    5c86:	99 0f       	add	r25, r25
    5c88:	89 0f       	add	r24, r25
    5c8a:	e8 1b       	sub	r30, r24
    5c8c:	f0 e0       	ldi	r31, 0x00	; 0
    5c8e:	ed 5b       	subi	r30, 0xBD	; 189
    5c90:	fe 4b       	sbci	r31, 0xBE	; 190
    5c92:	80 81       	ld	r24, Z
    5c94:	88 87       	std	Y+8, r24	; 0x08
				}

				if(KEY.Buff)					// Key └╘╖┬└╠ └╓└╕╕щ
    5c96:	f8 01       	movw	r30, r16
    5c98:	81 81       	ldd	r24, Z+1	; 0x01
    5c9a:	88 23       	and	r24, r24
    5c9c:	c9 f0       	breq	.+50     	; 0x5cd0 <RTC_Set+0x628>
				{
					if     (KEY.Key == 1 && RTC_T.Sec < 59) {RTC_T.Sec++; KEY.Key = 0;}	// ╛і  ╣І╞░ └╠╕щ Sec ┴є░б
    5c9e:	82 81       	ldd	r24, Z+2	; 0x02
    5ca0:	81 30       	cpi	r24, 0x01	; 1
    5ca2:	41 f4       	brne	.+16     	; 0x5cb4 <RTC_Set+0x60c>
    5ca4:	d6 01       	movw	r26, r12
    5ca6:	8c 91       	ld	r24, X
    5ca8:	8b 33       	cpi	r24, 0x3B	; 59
    5caa:	20 f4       	brcc	.+8      	; 0x5cb4 <RTC_Set+0x60c>
    5cac:	8f 5f       	subi	r24, 0xFF	; 255
    5cae:	8c 93       	st	X, r24
    5cb0:	12 82       	std	Z+2, r1	; 0x02
    5cb2:	0e c0       	rjmp	.+28     	; 0x5cd0 <RTC_Set+0x628>
					else if(KEY.Key == 3 && RTC_T.Sec >  0) {RTC_T.Sec--; KEY.Key = 0;}	// ┤┘┐ю╣І╞░ └╠╕щ Sec ░и╝╥
    5cb4:	f8 01       	movw	r30, r16
    5cb6:	82 81       	ldd	r24, Z+2	; 0x02
    5cb8:	83 30       	cpi	r24, 0x03	; 3
    5cba:	51 f4       	brne	.+20     	; 0x5cd0 <RTC_Set+0x628>
    5cbc:	d6 01       	movw	r26, r12
    5cbe:	8c 91       	ld	r24, X
    5cc0:	88 23       	and	r24, r24
    5cc2:	31 f0       	breq	.+12     	; 0x5cd0 <RTC_Set+0x628>
    5cc4:	81 50       	subi	r24, 0x01	; 1
    5cc6:	8c 93       	st	X, r24
    5cc8:	12 82       	std	Z+2, r1	; 0x02
    5cca:	02 c0       	rjmp	.+4      	; 0x5cd0 <RTC_Set+0x628>
				}
			break;

			case 6:
				KEY.Count = 0;					// ╣▌║╣└╗ └з╟╪ Count╕ж ├╓└·╖╬ ░и╝╥ ╜├┼┤
    5ccc:	f8 01       	movw	r30, r16
    5cce:	10 82       	st	Z, r1
			break;
		}
		wdt_reset();							// ┐І─б╡╢ ╕о╝┬
    5cd0:	0e 94 18 14 	call	0x2830	; 0x2830 <wdt_reset>
	DIGIT[2][2] = fnd_tbl[RTC_T.Min % 10];

	DIGIT[2][1] = fnd_tbl[RTC_T.Sec / 10];					// ├╩ ╟е╜├
	DIGIT[2][0] = fnd_tbl[RTC_T.Sec % 10];

	while(SET.Menu)								// ╕▐┤║╕Ё╡х └╠╕щ ╣▌║╣
    5cd4:	d7 01       	movw	r26, r14
    5cd6:	8c 91       	ld	r24, X
    5cd8:	81 11       	cpse	r24, r1
    5cda:	ba cd       	rjmp	.-1164   	; 0x5850 <RTC_Set+0x1a8>
				KEY.Count = 0;					// ╣▌║╣└╗ └з╟╪ Count╕ж ├╓└·╖╬ ░и╝╥ ╜├┼┤
			break;
		}
		wdt_reset();							// ┐І─б╡╢ ╕о╝┬
	}
	RTC_Time_Write(RTC_YEAR,   RTC_T.Year);					// RTC ┐б │т └·└х
    5cdc:	c7 e3       	ldi	r28, 0x37	; 55
    5cde:	d1 e5       	ldi	r29, 0x51	; 81
    5ce0:	6e 81       	ldd	r22, Y+6	; 0x06
    5ce2:	86 e0       	ldi	r24, 0x06	; 6
    5ce4:	0e 94 1f 2b 	call	0x563e	; 0x563e <RTC_Time_Write>
	RTC_Time_Write(RTC_MONTH,  RTC_T.Month);				// RTC ┐б ┐ї └·└х
    5ce8:	6d 81       	ldd	r22, Y+5	; 0x05
    5cea:	85 e0       	ldi	r24, 0x05	; 5
    5cec:	0e 94 1f 2b 	call	0x563e	; 0x563e <RTC_Time_Write>
	RTC_Time_Write(RTC_DATE,   RTC_T.Date);					// RTC ┐б └╧ └·└х
    5cf0:	6c 81       	ldd	r22, Y+4	; 0x04
    5cf2:	84 e0       	ldi	r24, 0x04	; 4
    5cf4:	0e 94 1f 2b 	call	0x563e	; 0x563e <RTC_Time_Write>
	RTC_Time_Write(RTC_HOUR,   RTC_T.Hour);					// RTC ┐б ╜├ └·└х
    5cf8:	6a 81       	ldd	r22, Y+2	; 0x02
    5cfa:	82 e0       	ldi	r24, 0x02	; 2
    5cfc:	0e 94 1f 2b 	call	0x563e	; 0x563e <RTC_Time_Write>
	RTC_Time_Write(RTC_MINUTE, RTC_T.Min);					// RTC ┐б ║╨ └·└х
    5d00:	69 81       	ldd	r22, Y+1	; 0x01
    5d02:	81 e0       	ldi	r24, 0x01	; 1
    5d04:	0e 94 1f 2b 	call	0x563e	; 0x563e <RTC_Time_Write>
	RTC_Time_Write(RTC_SECOND, RTC_T.Sec);					// RTC ┐б ├╩ └·└х
    5d08:	68 81       	ld	r22, Y
    5d0a:	80 e0       	ldi	r24, 0x00	; 0
    5d0c:	0e 94 1f 2b 	call	0x563e	; 0x563e <RTC_Time_Write>
}
    5d10:	df 91       	pop	r29
    5d12:	cf 91       	pop	r28
    5d14:	1f 91       	pop	r17
    5d16:	0f 91       	pop	r16
    5d18:	ff 90       	pop	r15
    5d1a:	ef 90       	pop	r14
    5d1c:	df 90       	pop	r13
    5d1e:	cf 90       	pop	r12
    5d20:	bf 90       	pop	r11
    5d22:	af 90       	pop	r10
    5d24:	08 95       	ret

00005d26 <SLPCTRL_init>:
    5d26:	80 e0       	ldi	r24, 0x00	; 0
    5d28:	08 95       	ret

00005d2a <TIMER_1_init>:
	//		      | 0 << TCA_SINGLE_CNTBEI_bp /* Count on Event Input B: disabled */
	//		      | TCA_SINGLE_EVACTA_CNT_POSEDGE_gc /* Count on positive edge event */
	//		      | TCA_SINGLE_EVACTB_UPDOWN_gc; /* Count on prescaled clock. Event controls count direction. Up-count when
	//event line is 0, down-count when event line is 1. */

	TCA1.SINGLE.INTCTRL = 0 << TCA_SINGLE_CMP0_bp   /* Compare 0 Interrupt: disabled */
    5d2a:	e0 e4       	ldi	r30, 0x40	; 64
    5d2c:	fa e0       	ldi	r31, 0x0A	; 10
    5d2e:	81 e0       	ldi	r24, 0x01	; 1
    5d30:	82 87       	std	Z+10, r24	; 0x0a
			    | 0 << TCA_SINGLE_CMP1_bp /* Compare 1 Interrupt: disabled */
			    | 0 << TCA_SINGLE_CMP2_bp /* Compare 2 Interrupt: disabled */
			    | 1 << TCA_SINGLE_OVF_bp; /* Overflow Interrupt: enabled */

	// TCA1.SINGLE.PER = 0x000E;	//   1mSec
	TCA1.SINGLE.PER = 0x0047;	//   5mSec
    5d32:	87 e4       	ldi	r24, 0x47	; 71
    5d34:	90 e0       	ldi	r25, 0x00	; 0
    5d36:	86 a3       	std	Z+38, r24	; 0x26
    5d38:	97 a3       	std	Z+39, r25	; 0x27
	// TCA1.SINGLE.PER = 0x008F;	//  10mSec
	// TCA1.SINGLE.PER = 0x02CF;	//  50mSec
	// TCA1.SINGLE.PER = 0x1C20;	// 500mSec
	// TCA1.SINGLE.PER = 0x38B0;	//    1Sec

	TCA1.SINGLE.CTRLA = TCA_SINGLE_CLKSEL_DIV1024_gc      /* System Clock / 1024 */
    5d3a:	8f e0       	ldi	r24, 0x0F	; 15
    5d3c:	80 83       	st	Z, r24
			    | 1 << TCA_SINGLE_ENABLE_bp    /* Module Enable: enabled */
			    | 0 << TCA_SINGLE_RUNSTDBY_bp; /* RUN STANDBY: disabled */
	return 0;
}
    5d3e:	80 e0       	ldi	r24, 0x00	; 0
    5d40:	08 95       	ret

00005d42 <USART_1_init>:

//-------------------------------------------------------------------------------------------------
void Rx1_Buff_Clear(void)						// Rx1 Buffer Clear
{
	memset(Rx1_Buff, 0, RX1_SIZE);					// Rx1_Buff ╕ж Rx1_SIZE(250)╕╕┼н 0└╕╖╬ ├╩▒т╚н
	Rx1_Cnt = 0;							// Rx1 Data Count ├╩▒т╚н
    5d42:	e0 e2       	ldi	r30, 0x20	; 32
    5d44:	f8 e0       	ldi	r31, 0x08	; 8
    5d46:	80 e0       	ldi	r24, 0x00	; 0
    5d48:	98 e1       	ldi	r25, 0x18	; 24
    5d4a:	80 87       	std	Z+8, r24	; 0x08
    5d4c:	91 87       	std	Z+9, r25	; 0x09
    5d4e:	84 e9       	ldi	r24, 0x94	; 148
    5d50:	85 83       	std	Z+5, r24	; 0x05
    5d52:	80 ec       	ldi	r24, 0xC0	; 192
    5d54:	86 83       	std	Z+6, r24	; 0x06
    5d56:	80 e0       	ldi	r24, 0x00	; 0
    5d58:	08 95       	ret

00005d5a <USART1_Write>:
    5d5a:	e0 e2       	ldi	r30, 0x20	; 32
    5d5c:	f8 e0       	ldi	r31, 0x08	; 8
    5d5e:	94 81       	ldd	r25, Z+4	; 0x04
    5d60:	95 ff       	sbrs	r25, 5
    5d62:	fd cf       	rjmp	.-6      	; 0x5d5e <USART1_Write+0x4>
    5d64:	80 93 22 08 	sts	0x0822, r24	; 0x800822 <__TEXT_REGION_LENGTH__+0x7e0822>
    5d68:	81 e0       	ldi	r24, 0x01	; 1
    5d6a:	90 e0       	ldi	r25, 0x00	; 0
    5d6c:	08 95       	ret

00005d6e <USART_3_init>:

//=================================================================================================
#ifdef Usart_3
int8_t USART_3_init()
{
	USART3.BAUD = (uint16_t)USART3_BAUD_RATE(Usart3_BAUD);		/* set baud rate register */
    5d6e:	e0 e6       	ldi	r30, 0x60	; 96
    5d70:	f8 e0       	ldi	r31, 0x08	; 8
    5d72:	80 e0       	ldi	r24, 0x00	; 0
    5d74:	98 e1       	ldi	r25, 0x18	; 24
    5d76:	80 87       	std	Z+8, r24	; 0x08
    5d78:	91 87       	std	Z+9, r25	; 0x09

	USART3.CTRLA = 1 << USART_ABEIE_bp				/* Auto-baud Error Interrupt Enable: disabled */
    5d7a:	84 e9       	ldi	r24, 0x94	; 148
    5d7c:	85 83       	std	Z+5, r24	; 0x05
			| USART_RS485_DISABLE_gc			/* RS485 Mode disabled */
			| 1 << USART_RXCIE_bp				/* Receive Complete Interrupt Enable: enabled */
			| 1 << USART_RXSIE_bp				/* Receiver Start Frame Interrupt Enable: enabled */
			| 0 << USART_TXCIE_bp;				/* Transmit Complete Interrupt Enable: disabled */

	USART3.CTRLB = 0 << USART_MPCM_bp				/* Multi-processor Communication Mode: disabled */
    5d7e:	80 ec       	ldi	r24, 0xC0	; 192
    5d80:	86 83       	std	Z+6, r24	; 0x06
//	USART3.EVCTRL = 0 << USART_IREI_bp;				/* IrDA Event Input Enable: disabled */
//	USART3.RXPLCTRL = 0x0 << USART_RXPL_gp;				/* Receiver Pulse Lenght: 0x0 */
//	USART3.TXPLCTRL = 0x0 << USART_TXPL_gp;				/* Transmit pulse length: 0x0 */

	return 0;
}
    5d82:	80 e0       	ldi	r24, 0x00	; 0
    5d84:	08 95       	ret

00005d86 <USART3_Write>:

//-------------------------------------------------------------------------------------------------
int USART3_Write(char data)
{
	while(!(USART3.STATUS & USART_DREIF_bm)) ;
    5d86:	e0 e6       	ldi	r30, 0x60	; 96
    5d88:	f8 e0       	ldi	r31, 0x08	; 8
    5d8a:	94 81       	ldd	r25, Z+4	; 0x04
    5d8c:	95 ff       	sbrs	r25, 5
    5d8e:	fd cf       	rjmp	.-6      	; 0x5d8a <USART3_Write+0x4>
	USART3.TXDATAL = data;
    5d90:	80 93 62 08 	sts	0x0862, r24	; 0x800862 <__TEXT_REGION_LENGTH__+0x7e0862>
	return 1;
}
    5d94:	81 e0       	ldi	r24, 0x01	; 1
    5d96:	90 e0       	ldi	r25, 0x00	; 0
    5d98:	08 95       	ret

00005d9a <USART3_SendString>:

//-------------------------------------------------------------------------------------------------
void USART3_SendString(const char *str)
{
    5d9a:	ef 92       	push	r14
    5d9c:	ff 92       	push	r15
    5d9e:	0f 93       	push	r16
    5da0:	1f 93       	push	r17
    5da2:	cf 93       	push	r28
    5da4:	df 93       	push	r29
    5da6:	8c 01       	movw	r16, r24
    5da8:	7c 01       	movw	r14, r24
	for(size_t i = 0; i < strlen(str); i++) {USART3_Write(str[i]);}
    5daa:	c0 e0       	ldi	r28, 0x00	; 0
    5dac:	d0 e0       	ldi	r29, 0x00	; 0
    5dae:	06 c0       	rjmp	.+12     	; 0x5dbc <USART3_SendString+0x22>
    5db0:	f7 01       	movw	r30, r14
    5db2:	81 91       	ld	r24, Z+
    5db4:	7f 01       	movw	r14, r30
    5db6:	0e 94 c3 2e 	call	0x5d86	; 0x5d86 <USART3_Write>
    5dba:	21 96       	adiw	r28, 0x01	; 1
    5dbc:	f8 01       	movw	r30, r16
    5dbe:	01 90       	ld	r0, Z+
    5dc0:	00 20       	and	r0, r0
    5dc2:	e9 f7       	brne	.-6      	; 0x5dbe <USART3_SendString+0x24>
    5dc4:	31 97       	sbiw	r30, 0x01	; 1
    5dc6:	e0 1b       	sub	r30, r16
    5dc8:	f1 0b       	sbc	r31, r17
    5dca:	ce 17       	cp	r28, r30
    5dcc:	df 07       	cpc	r29, r31
    5dce:	80 f3       	brcs	.-32     	; 0x5db0 <USART3_SendString+0x16>
}
    5dd0:	df 91       	pop	r29
    5dd2:	cf 91       	pop	r28
    5dd4:	1f 91       	pop	r17
    5dd6:	0f 91       	pop	r16
    5dd8:	ff 90       	pop	r15
    5dda:	ef 90       	pop	r14
    5ddc:	08 95       	ret

00005dde <Rx3_Buff_Clear>:

//-------------------------------------------------------------------------------------------------
void Rx3_Buff_Clear(void)						// Rx3 Buffer Clear
{
	memset(Rx3_Buff, 0, RX3_SIZE);					// Rx3_Buff ╕ж Rx3_SIZE(250)╕╕┼н 0└╕╖╬ ├╩▒т╚н
    5dde:	8a ef       	ldi	r24, 0xFA	; 250
    5de0:	ed e7       	ldi	r30, 0x7D	; 125
    5de2:	f1 e5       	ldi	r31, 0x51	; 81
    5de4:	df 01       	movw	r26, r30
    5de6:	1d 92       	st	X+, r1
    5de8:	8a 95       	dec	r24
    5dea:	e9 f7       	brne	.-6      	; 0x5de6 <Rx3_Buff_Clear+0x8>
	Rx3_Cnt = 0;							// Rx3 Data Count ├╩▒т╚н
    5dec:	10 92 68 51 	sts	0x5168, r1	; 0x805168 <Rx3_Cnt>
    5df0:	08 95       	ret

00005df2 <WDT_init>:
    5df2:	4a e0       	ldi	r20, 0x0A	; 10
    5df4:	68 ed       	ldi	r22, 0xD8	; 216
    5df6:	80 e0       	ldi	r24, 0x00	; 0
    5df8:	91 e0       	ldi	r25, 0x01	; 1
    5dfa:	0e 94 d0 2a 	call	0x55a0	; 0x55a0 <protected_write_io>
    5dfe:	80 e0       	ldi	r24, 0x00	; 0
    5e00:	08 95       	ret

00005e02 <ZigBee_Write_id>:
int CH[15] = {0x3043, 0x3044, 0x3045, 0x3046, 0x3130, 0x3131, 0x3132, 0x3133, 0x3134, 0x3135, 0x3136, 0x3137, 0x3138, 0x3139, 0x3140};
// ┴І▒╫║ё ├д│╬{    0C,     0D,     0E,     0F,     10,     11,     12,     13,     14,     15,     16,     17,     18,     19,     1A}

//=================================================================================================
void ZigBee_Write_id(void)							// ZigBee PanID └·└х
{
    5e02:	8f 92       	push	r8
    5e04:	9f 92       	push	r9
    5e06:	af 92       	push	r10
    5e08:	bf 92       	push	r11
    5e0a:	cf 92       	push	r12
    5e0c:	df 92       	push	r13
    5e0e:	ef 92       	push	r14
    5e10:	ff 92       	push	r15
    5e12:	1f 93       	push	r17
    5e14:	cf 93       	push	r28
    5e16:	df 93       	push	r29
	uint8_t zbid_write = 0;							// zbid_write ║п╝І ├╩▒т╚н
    5e18:	10 e0       	ldi	r17, 0x00	; 0
				_delay_ms(1000);				// ZigBee ├╓├╩ ┤ф║п ╜├░г 1├╩ Delay
			break;

			case 1:							// zbch_wite = 1 └╠╕щ
				USART3_SendString("ATID");			// USART3 ┐б ATCH └№╝█
				USART3_Write(Pan_id_1000 + 0x30);		// USART3 ┐б Pan ID 2Byte ╗ґ└з └№╝█
    5e1a:	0f 2e       	mov	r0, r31
    5e1c:	f8 e4       	ldi	r31, 0x48	; 72
    5e1e:	8f 2e       	mov	r8, r31
    5e20:	f1 e5       	ldi	r31, 0x51	; 81
    5e22:	9f 2e       	mov	r9, r31
    5e24:	f0 2d       	mov	r31, r0
				USART3_Write(Pan_id_100 + 0x30);		// USART3 ┐б Pan ID 2Byte ╟╧└з └№╝█
    5e26:	0f 2e       	mov	r0, r31
    5e28:	fb ea       	ldi	r31, 0xAB	; 171
    5e2a:	af 2e       	mov	r10, r31
    5e2c:	f1 e4       	ldi	r31, 0x41	; 65
    5e2e:	bf 2e       	mov	r11, r31
    5e30:	f0 2d       	mov	r31, r0
				USART3_Write(Pan_id_10 + 0x30);			// USART3 ┐б Pan ID 1Byte ╗ґ└з └№╝█
    5e32:	0f 2e       	mov	r0, r31
    5e34:	fc e0       	ldi	r31, 0x0C	; 12
    5e36:	cf 2e       	mov	r12, r31
    5e38:	f1 e5       	ldi	r31, 0x51	; 81
    5e3a:	df 2e       	mov	r13, r31
    5e3c:	f0 2d       	mov	r31, r0
				USART3_Write(Pan_id_1 + 0x30);			// USART3 ┐б Pan ID 1Byte ╟╧└з └№╝█
    5e3e:	cc ee       	ldi	r28, 0xEC	; 236
    5e40:	d0 e5       	ldi	r29, 0x50	; 80
    5e42:	0f 2e       	mov	r0, r31
    5e44:	f5 e7       	ldi	r31, 0x75	; 117
    5e46:	ef 2e       	mov	r14, r31
    5e48:	f2 e5       	ldi	r31, 0x52	; 82
    5e4a:	ff 2e       	mov	r15, r31
    5e4c:	f0 2d       	mov	r31, r0
void ZigBee_Write_id(void)							// ZigBee PanID └·└х
{
	uint8_t zbid_write = 0;							// zbid_write ║п╝І ├╩▒т╚н

	do{
		switch(zbid_write)						// zbid_write
    5e4e:	11 30       	cpi	r17, 0x01	; 1
    5e50:	a1 f0       	breq	.+40     	; 0x5e7a <ZigBee_Write_id+0x78>
    5e52:	28 f0       	brcs	.+10     	; 0x5e5e <ZigBee_Write_id+0x5c>
    5e54:	12 30       	cpi	r17, 0x02	; 2
    5e56:	61 f1       	breq	.+88     	; 0x5eb0 <ZigBee_Write_id+0xae>
    5e58:	13 30       	cpi	r17, 0x03	; 3
    5e5a:	79 f1       	breq	.+94     	; 0x5eba <ZigBee_Write_id+0xb8>
    5e5c:	32 c0       	rjmp	.+100    	; 0x5ec2 <ZigBee_Write_id+0xc0>
		{
			case 0:							// zbch_wite = 0 └╠╕щ
				USART3_SendString("+++");			// USART3 ┐б +++ └№╝█
    5e5e:	80 e5       	ldi	r24, 0x50	; 80
    5e60:	91 e4       	ldi	r25, 0x41	; 65
    5e62:	0e 94 cd 2e 	call	0x5d9a	; 0x5d9a <USART3_SendString>
    5e66:	2f ef       	ldi	r18, 0xFF	; 255
    5e68:	8f ef       	ldi	r24, 0xFF	; 255
    5e6a:	9c e2       	ldi	r25, 0x2C	; 44
    5e6c:	21 50       	subi	r18, 0x01	; 1
    5e6e:	80 40       	sbci	r24, 0x00	; 0
    5e70:	90 40       	sbci	r25, 0x00	; 0
    5e72:	e1 f7       	brne	.-8      	; 0x5e6c <ZigBee_Write_id+0x6a>
    5e74:	00 c0       	rjmp	.+0      	; 0x5e76 <ZigBee_Write_id+0x74>
    5e76:	00 00       	nop
    5e78:	24 c0       	rjmp	.+72     	; 0x5ec2 <ZigBee_Write_id+0xc0>
				_delay_ms(1000);				// ZigBee ├╓├╩ ┤ф║п ╜├░г 1├╩ Delay
			break;

			case 1:							// zbch_wite = 1 └╠╕щ
				USART3_SendString("ATID");			// USART3 ┐б ATCH └№╝█
    5e7a:	84 e5       	ldi	r24, 0x54	; 84
    5e7c:	91 e4       	ldi	r25, 0x41	; 65
    5e7e:	0e 94 cd 2e 	call	0x5d9a	; 0x5d9a <USART3_SendString>
				USART3_Write(Pan_id_1000 + 0x30);		// USART3 ┐б Pan ID 2Byte ╗ґ└з └№╝█
    5e82:	f4 01       	movw	r30, r8
    5e84:	80 81       	ld	r24, Z
    5e86:	80 5d       	subi	r24, 0xD0	; 208
    5e88:	0e 94 c3 2e 	call	0x5d86	; 0x5d86 <USART3_Write>
				USART3_Write(Pan_id_100 + 0x30);		// USART3 ┐б Pan ID 2Byte ╟╧└з └№╝█
    5e8c:	f5 01       	movw	r30, r10
    5e8e:	80 81       	ld	r24, Z
    5e90:	80 5d       	subi	r24, 0xD0	; 208
    5e92:	0e 94 c3 2e 	call	0x5d86	; 0x5d86 <USART3_Write>
				USART3_Write(Pan_id_10 + 0x30);			// USART3 ┐б Pan ID 1Byte ╗ґ└з └№╝█
    5e96:	f6 01       	movw	r30, r12
    5e98:	80 81       	ld	r24, Z
    5e9a:	80 5d       	subi	r24, 0xD0	; 208
    5e9c:	0e 94 c3 2e 	call	0x5d86	; 0x5d86 <USART3_Write>
				USART3_Write(Pan_id_1 + 0x30);			// USART3 ┐б Pan ID 1Byte ╟╧└з └№╝█
    5ea0:	88 81       	ld	r24, Y
    5ea2:	80 5d       	subi	r24, 0xD0	; 208
    5ea4:	0e 94 c3 2e 	call	0x5d86	; 0x5d86 <USART3_Write>
				USART3_Write('\r');				// USART3 ┐б \r
    5ea8:	8d e0       	ldi	r24, 0x0D	; 13
    5eaa:	0e 94 c3 2e 	call	0x5d86	; 0x5d86 <USART3_Write>
			break;
    5eae:	09 c0       	rjmp	.+18     	; 0x5ec2 <ZigBee_Write_id+0xc0>

			case 2:							// zbch_wite = 2 └╠╕щ
				USART3_SendString("ATWR\r");			// USART3 ┐б ATWR\r └№╝█
    5eb0:	89 e5       	ldi	r24, 0x59	; 89
    5eb2:	91 e4       	ldi	r25, 0x41	; 65
    5eb4:	0e 94 cd 2e 	call	0x5d9a	; 0x5d9a <USART3_SendString>
			break;
    5eb8:	04 c0       	rjmp	.+8      	; 0x5ec2 <ZigBee_Write_id+0xc0>

			case 3:							// zbch_wite = 3 └╠╕щ
				USART3_SendString("ATCN\r");			// USART3 ┐б ATCN\r └№╝█
    5eba:	8f e5       	ldi	r24, 0x5F	; 95
    5ebc:	91 e4       	ldi	r25, 0x41	; 65
    5ebe:	0e 94 cd 2e 	call	0x5d9a	; 0x5d9a <USART3_SendString>
    5ec2:	ed e7       	ldi	r30, 0x7D	; 125
    5ec4:	f1 e5       	ldi	r31, 0x51	; 81
			break;
		}
//-------------------------------------------------------------------------------------------------
		for(uint8_t cnt = 0; cnt < RX3_SIZE - 2; cnt++)			// RX3_SIZE ╕╕┼н ╣▌║╣
		{
			if(zbid_write == 0 && Rx3_Buff[cnt] == 'O' && Rx3_Buff[cnt + 1] == 'K' && Rx3_Buff[cnt + 2] == 0x0d)
    5ec6:	11 11       	cpse	r17, r1
    5ec8:	1d c0       	rjmp	.+58     	; 0x5f04 <ZigBee_Write_id+0x102>
    5eca:	80 81       	ld	r24, Z
    5ecc:	8f 34       	cpi	r24, 0x4F	; 79
    5ece:	09 f0       	breq	.+2      	; 0x5ed2 <ZigBee_Write_id+0xd0>
    5ed0:	71 c0       	rjmp	.+226    	; 0x5fb4 <ZigBee_Write_id+0x1b2>
    5ed2:	81 81       	ldd	r24, Z+1	; 0x01
    5ed4:	8b 34       	cpi	r24, 0x4B	; 75
    5ed6:	09 f0       	breq	.+2      	; 0x5eda <ZigBee_Write_id+0xd8>
    5ed8:	6d c0       	rjmp	.+218    	; 0x5fb4 <ZigBee_Write_id+0x1b2>
    5eda:	82 81       	ldd	r24, Z+2	; 0x02
    5edc:	8d 30       	cpi	r24, 0x0D	; 13
    5ede:	09 f0       	breq	.+2      	; 0x5ee2 <ZigBee_Write_id+0xe0>
    5ee0:	69 c0       	rjmp	.+210    	; 0x5fb4 <ZigBee_Write_id+0x1b2>
			{							// 0+OK+CR
				zbid_write = 1;					// ┤ф║п ╚о└╬ ╚─ ┤┘└╜└╕╖╬ ┴є░б
				Beep(3);
    5ee2:	83 e0       	ldi	r24, 0x03	; 3
    5ee4:	90 e0       	ldi	r25, 0x00	; 0
    5ee6:	0e 94 42 04 	call	0x884	; 0x884 <Beep>
    5eea:	ff ef       	ldi	r31, 0xFF	; 255
    5eec:	2f e3       	ldi	r18, 0x3F	; 63
    5eee:	82 e0       	ldi	r24, 0x02	; 2
    5ef0:	f1 50       	subi	r31, 0x01	; 1
    5ef2:	20 40       	sbci	r18, 0x00	; 0
    5ef4:	80 40       	sbci	r24, 0x00	; 0
    5ef6:	e1 f7       	brne	.-8      	; 0x5ef0 <ZigBee_Write_id+0xee>
    5ef8:	00 c0       	rjmp	.+0      	; 0x5efa <ZigBee_Write_id+0xf8>
    5efa:	00 00       	nop
				_delay_ms(50);					// ZigBee ├│╕о ╜├░г ╚─
				Rx3_Buff_Clear();				// Rx3 Buff Clear
    5efc:	0e 94 ef 2e 	call	0x5dde	; 0x5dde <Rx3_Buff_Clear>
//-------------------------------------------------------------------------------------------------
		for(uint8_t cnt = 0; cnt < RX3_SIZE - 2; cnt++)			// RX3_SIZE ╕╕┼н ╣▌║╣
		{
			if(zbid_write == 0 && Rx3_Buff[cnt] == 'O' && Rx3_Buff[cnt + 1] == 'K' && Rx3_Buff[cnt + 2] == 0x0d)
			{							// 0+OK+CR
				zbid_write = 1;					// ┤ф║п ╚о└╬ ╚─ ┤┘└╜└╕╖╬ ┴є░б
    5f00:	11 e0       	ldi	r17, 0x01	; 1
				Beep(3);
				_delay_ms(50);					// ZigBee ├│╕о ╜├░г ╚─
				Rx3_Buff_Clear();				// Rx3 Buff Clear
				break;
    5f02:	60 c0       	rjmp	.+192    	; 0x5fc4 <ZigBee_Write_id+0x1c2>
			}

			if(zbid_write == 1 && Rx3_Buff[cnt] == 'O' && Rx3_Buff[cnt + 1] == 'K' && Rx3_Buff[cnt + 2] == 0x0d)
    5f04:	11 30       	cpi	r17, 0x01	; 1
    5f06:	e9 f4       	brne	.+58     	; 0x5f42 <ZigBee_Write_id+0x140>
    5f08:	80 81       	ld	r24, Z
    5f0a:	8f 34       	cpi	r24, 0x4F	; 79
    5f0c:	09 f0       	breq	.+2      	; 0x5f10 <ZigBee_Write_id+0x10e>
    5f0e:	52 c0       	rjmp	.+164    	; 0x5fb4 <ZigBee_Write_id+0x1b2>
    5f10:	81 81       	ldd	r24, Z+1	; 0x01
    5f12:	8b 34       	cpi	r24, 0x4B	; 75
    5f14:	09 f0       	breq	.+2      	; 0x5f18 <ZigBee_Write_id+0x116>
    5f16:	4e c0       	rjmp	.+156    	; 0x5fb4 <ZigBee_Write_id+0x1b2>
    5f18:	82 81       	ldd	r24, Z+2	; 0x02
    5f1a:	8d 30       	cpi	r24, 0x0D	; 13
    5f1c:	09 f0       	breq	.+2      	; 0x5f20 <ZigBee_Write_id+0x11e>
    5f1e:	4a c0       	rjmp	.+148    	; 0x5fb4 <ZigBee_Write_id+0x1b2>
			{							// 1+OK+CR
				zbid_write = 2;					// ┤ф║п ╚о└╬ ╚─ ┤┘└╜└╕╖╬ ┴є░б
				Beep(3);
    5f20:	83 e0       	ldi	r24, 0x03	; 3
    5f22:	90 e0       	ldi	r25, 0x00	; 0
    5f24:	0e 94 42 04 	call	0x884	; 0x884 <Beep>
    5f28:	9f ef       	ldi	r25, 0xFF	; 255
    5f2a:	ef e3       	ldi	r30, 0x3F	; 63
    5f2c:	f2 e0       	ldi	r31, 0x02	; 2
    5f2e:	91 50       	subi	r25, 0x01	; 1
    5f30:	e0 40       	sbci	r30, 0x00	; 0
    5f32:	f0 40       	sbci	r31, 0x00	; 0
    5f34:	e1 f7       	brne	.-8      	; 0x5f2e <ZigBee_Write_id+0x12c>
    5f36:	00 c0       	rjmp	.+0      	; 0x5f38 <ZigBee_Write_id+0x136>
    5f38:	00 00       	nop
				_delay_ms(50);					// ZigBee ├│╕о ╜├░г ╚─
				Rx3_Buff_Clear();				// Rx3 Buff Clear
    5f3a:	0e 94 ef 2e 	call	0x5dde	; 0x5dde <Rx3_Buff_Clear>
				break;
			}

			if(zbid_write == 1 && Rx3_Buff[cnt] == 'O' && Rx3_Buff[cnt + 1] == 'K' && Rx3_Buff[cnt + 2] == 0x0d)
			{							// 1+OK+CR
				zbid_write = 2;					// ┤ф║п ╚о└╬ ╚─ ┤┘└╜└╕╖╬ ┴є░б
    5f3e:	12 e0       	ldi	r17, 0x02	; 2
				Beep(3);
				_delay_ms(50);					// ZigBee ├│╕о ╜├░г ╚─
				Rx3_Buff_Clear();				// Rx3 Buff Clear
				break;
    5f40:	41 c0       	rjmp	.+130    	; 0x5fc4 <ZigBee_Write_id+0x1c2>
			}

			if(zbid_write == 2 && Rx3_Buff[cnt] == 'O' && Rx3_Buff[cnt + 1] == 'K' && Rx3_Buff[cnt + 2] == 0x0d)
    5f42:	12 30       	cpi	r17, 0x02	; 2
    5f44:	d1 f4       	brne	.+52     	; 0x5f7a <ZigBee_Write_id+0x178>
    5f46:	80 81       	ld	r24, Z
    5f48:	8f 34       	cpi	r24, 0x4F	; 79
    5f4a:	a1 f5       	brne	.+104    	; 0x5fb4 <ZigBee_Write_id+0x1b2>
    5f4c:	81 81       	ldd	r24, Z+1	; 0x01
    5f4e:	8b 34       	cpi	r24, 0x4B	; 75
    5f50:	89 f5       	brne	.+98     	; 0x5fb4 <ZigBee_Write_id+0x1b2>
    5f52:	82 81       	ldd	r24, Z+2	; 0x02
    5f54:	8d 30       	cpi	r24, 0x0D	; 13
    5f56:	71 f5       	brne	.+92     	; 0x5fb4 <ZigBee_Write_id+0x1b2>
			{							// 2+OK+CR
				zbid_write = 3;					// ┤ф║п ╚о└╬ ╚─ ┤┘└╜└╕╖╬ ┴є░б
				Beep(3);
    5f58:	83 e0       	ldi	r24, 0x03	; 3
    5f5a:	90 e0       	ldi	r25, 0x00	; 0
    5f5c:	0e 94 42 04 	call	0x884	; 0x884 <Beep>
    5f60:	2f ef       	ldi	r18, 0xFF	; 255
    5f62:	8f e3       	ldi	r24, 0x3F	; 63
    5f64:	92 e0       	ldi	r25, 0x02	; 2
    5f66:	21 50       	subi	r18, 0x01	; 1
    5f68:	80 40       	sbci	r24, 0x00	; 0
    5f6a:	90 40       	sbci	r25, 0x00	; 0
    5f6c:	e1 f7       	brne	.-8      	; 0x5f66 <ZigBee_Write_id+0x164>
    5f6e:	00 c0       	rjmp	.+0      	; 0x5f70 <ZigBee_Write_id+0x16e>
    5f70:	00 00       	nop
				_delay_ms(50);					// ZigBee ├│╕о ╜├░г ╚─
				Rx3_Buff_Clear();				// Rx3 Buff Clear
    5f72:	0e 94 ef 2e 	call	0x5dde	; 0x5dde <Rx3_Buff_Clear>
				break;
			}

			if(zbid_write == 2 && Rx3_Buff[cnt] == 'O' && Rx3_Buff[cnt + 1] == 'K' && Rx3_Buff[cnt + 2] == 0x0d)
			{							// 2+OK+CR
				zbid_write = 3;					// ┤ф║п ╚о└╬ ╚─ ┤┘└╜└╕╖╬ ┴є░б
    5f76:	13 e0       	ldi	r17, 0x03	; 3
				Beep(3);
				_delay_ms(50);					// ZigBee ├│╕о ╜├░г ╚─
				Rx3_Buff_Clear();				// Rx3 Buff Clear
				break;
    5f78:	25 c0       	rjmp	.+74     	; 0x5fc4 <ZigBee_Write_id+0x1c2>
			}

			if(zbid_write == 3 && Rx3_Buff[cnt] == 'O' && Rx3_Buff[cnt + 1] == 'K' && Rx3_Buff[cnt + 2] == 0x0d)
    5f7a:	13 30       	cpi	r17, 0x03	; 3
    5f7c:	d9 f4       	brne	.+54     	; 0x5fb4 <ZigBee_Write_id+0x1b2>
    5f7e:	80 81       	ld	r24, Z
    5f80:	8f 34       	cpi	r24, 0x4F	; 79
    5f82:	c1 f4       	brne	.+48     	; 0x5fb4 <ZigBee_Write_id+0x1b2>
    5f84:	81 81       	ldd	r24, Z+1	; 0x01
    5f86:	8b 34       	cpi	r24, 0x4B	; 75
    5f88:	a9 f4       	brne	.+42     	; 0x5fb4 <ZigBee_Write_id+0x1b2>
    5f8a:	82 81       	ldd	r24, Z+2	; 0x02
    5f8c:	8d 30       	cpi	r24, 0x0D	; 13
    5f8e:	91 f4       	brne	.+36     	; 0x5fb4 <ZigBee_Write_id+0x1b2>
			{							// 3+OK+CR
				zbid_write = 5;					// ┤ф║п ╚о└╬ ╚─ While()╣о ┴╛╖с
				Beep(3);
    5f90:	83 e0       	ldi	r24, 0x03	; 3
    5f92:	90 e0       	ldi	r25, 0x00	; 0
    5f94:	0e 94 42 04 	call	0x884	; 0x884 <Beep>
    5f98:	ef ef       	ldi	r30, 0xFF	; 255
    5f9a:	ff e3       	ldi	r31, 0x3F	; 63
    5f9c:	22 e0       	ldi	r18, 0x02	; 2
    5f9e:	e1 50       	subi	r30, 0x01	; 1
    5fa0:	f0 40       	sbci	r31, 0x00	; 0
    5fa2:	20 40       	sbci	r18, 0x00	; 0
    5fa4:	e1 f7       	brne	.-8      	; 0x5f9e <ZigBee_Write_id+0x19c>
    5fa6:	00 c0       	rjmp	.+0      	; 0x5fa8 <ZigBee_Write_id+0x1a6>
    5fa8:	00 00       	nop
				_delay_ms(50);					// ZigBee ├│╕о ╜├░г ╚─
				Rx3_Buff_Clear();				// Rx3 Buff Clear
    5faa:	0e 94 ef 2e 	call	0x5dde	; 0x5dde <Rx3_Buff_Clear>
				break;
			}
		}
		wdt_reset();							// ┐І─б╡╢ ╕о╝┬
    5fae:	0e 94 18 14 	call	0x2830	; 0x2830 <wdt_reset>
	}while(zbid_write != 5);						// zbid_write ░б 5 └╧╢з ▒ю┴І ╣▌║╣
}
    5fb2:	0b c0       	rjmp	.+22     	; 0x5fca <ZigBee_Write_id+0x1c8>
    5fb4:	31 96       	adiw	r30, 0x01	; 1
			case 3:							// zbch_wite = 3 └╠╕щ
				USART3_SendString("ATCN\r");			// USART3 ┐б ATCN\r └№╝█
			break;
		}
//-------------------------------------------------------------------------------------------------
		for(uint8_t cnt = 0; cnt < RX3_SIZE - 2; cnt++)			// RX3_SIZE ╕╕┼н ╣▌║╣
    5fb6:	ee 15       	cp	r30, r14
    5fb8:	ff 05       	cpc	r31, r15
    5fba:	09 f0       	breq	.+2      	; 0x5fbe <ZigBee_Write_id+0x1bc>
    5fbc:	84 cf       	rjmp	.-248    	; 0x5ec6 <ZigBee_Write_id+0xc4>
				_delay_ms(50);					// ZigBee ├│╕о ╜├░г ╚─
				Rx3_Buff_Clear();				// Rx3 Buff Clear
				break;
			}
		}
		wdt_reset();							// ┐І─б╡╢ ╕о╝┬
    5fbe:	0e 94 18 14 	call	0x2830	; 0x2830 <wdt_reset>
    5fc2:	45 cf       	rjmp	.-374    	; 0x5e4e <ZigBee_Write_id+0x4c>
    5fc4:	0e 94 18 14 	call	0x2830	; 0x2830 <wdt_reset>
    5fc8:	42 cf       	rjmp	.-380    	; 0x5e4e <ZigBee_Write_id+0x4c>
	}while(zbid_write != 5);						// zbid_write ░б 5 └╧╢з ▒ю┴І ╣▌║╣
}
    5fca:	df 91       	pop	r29
    5fcc:	cf 91       	pop	r28
    5fce:	1f 91       	pop	r17
    5fd0:	ff 90       	pop	r15
    5fd2:	ef 90       	pop	r14
    5fd4:	df 90       	pop	r13
    5fd6:	cf 90       	pop	r12
    5fd8:	bf 90       	pop	r11
    5fda:	af 90       	pop	r10
    5fdc:	9f 90       	pop	r9
    5fde:	8f 90       	pop	r8
    5fe0:	08 95       	ret

00005fe2 <ZigBee_PanID_Write>:

//=================================================================================================
void ZigBee_PanID_Write(void)							// ZigBee PanID ╝│┴д
{
    5fe2:	6f 92       	push	r6
    5fe4:	7f 92       	push	r7
    5fe6:	8f 92       	push	r8
    5fe8:	9f 92       	push	r9
    5fea:	af 92       	push	r10
    5fec:	bf 92       	push	r11
    5fee:	cf 92       	push	r12
    5ff0:	df 92       	push	r13
    5ff2:	ef 92       	push	r14
    5ff4:	ff 92       	push	r15
    5ff6:	0f 93       	push	r16
    5ff8:	1f 93       	push	r17
    5ffa:	cf 93       	push	r28
    5ffc:	df 93       	push	r29
	uint8_t digit_5, digit_4, digit_3, digit_2, digit_1;			// digit ║п╝І ├╩▒т╚н

	FND_Value_Data(1, 2, 12);						// FND 0 ~ 2 FND_OFF
    5ffe:	4c e0       	ldi	r20, 0x0C	; 12
    6000:	62 e0       	ldi	r22, 0x02	; 2
    6002:	81 e0       	ldi	r24, 0x01	; 1
    6004:	0e 94 d3 05 	call	0xba6	; 0xba6 <FND_Value_Data>

	digit_5 = ZB_id / 10000;						// ZigBee PanID 10000└╟ └┌╕о
    6008:	c0 90 5d 51 	lds	r12, 0x515D	; 0x80515d <ZB_id>
    600c:	d0 90 5e 51 	lds	r13, 0x515E	; 0x80515e <ZB_id+0x1>
    6010:	96 01       	movw	r18, r12
    6012:	32 95       	swap	r19
    6014:	22 95       	swap	r18
    6016:	2f 70       	andi	r18, 0x0F	; 15
    6018:	23 27       	eor	r18, r19
    601a:	3f 70       	andi	r19, 0x0F	; 15
    601c:	23 27       	eor	r18, r19
    601e:	a7 e4       	ldi	r26, 0x47	; 71
    6020:	b3 e0       	ldi	r27, 0x03	; 3
    6022:	0e 94 0f 3d 	call	0x7a1e	; 0x7a1e <__umulhisi3>
    6026:	8c 01       	movw	r16, r24
    6028:	16 95       	lsr	r17
    602a:	07 95       	ror	r16
    602c:	16 95       	lsr	r17
    602e:	07 95       	ror	r16
    6030:	16 95       	lsr	r17
    6032:	07 95       	ror	r16
    6034:	e0 2e       	mov	r14, r16
	digit_4 = ZB_id % 10000 / 1000;						// ZigBee PanID  1000└╟ └┌╕о
    6036:	20 e1       	ldi	r18, 0x10	; 16
    6038:	37 e2       	ldi	r19, 0x27	; 39
    603a:	02 9f       	mul	r16, r18
    603c:	c0 01       	movw	r24, r0
    603e:	03 9f       	mul	r16, r19
    6040:	90 0d       	add	r25, r0
    6042:	12 9f       	mul	r17, r18
    6044:	90 0d       	add	r25, r0
    6046:	11 24       	eor	r1, r1
    6048:	96 01       	movw	r18, r12
    604a:	28 1b       	sub	r18, r24
    604c:	39 0b       	sbc	r19, r25
    604e:	36 95       	lsr	r19
    6050:	27 95       	ror	r18
    6052:	36 95       	lsr	r19
    6054:	27 95       	ror	r18
    6056:	36 95       	lsr	r19
    6058:	27 95       	ror	r18
    605a:	a5 ec       	ldi	r26, 0xC5	; 197
    605c:	b0 e2       	ldi	r27, 0x20	; 32
    605e:	0e 94 0f 3d 	call	0x7a1e	; 0x7a1e <__umulhisi3>
    6062:	ec 01       	movw	r28, r24
    6064:	d2 95       	swap	r29
    6066:	c2 95       	swap	r28
    6068:	cf 70       	andi	r28, 0x0F	; 15
    606a:	cd 27       	eor	r28, r29
    606c:	df 70       	andi	r29, 0x0F	; 15
    606e:	cd 27       	eor	r28, r29
    6070:	bc 2e       	mov	r11, r28
	digit_3 = ZB_id % 1000 / 100;						// ZigBee PanID   100└╟ └┌╕о
    6072:	96 01       	movw	r18, r12
    6074:	36 95       	lsr	r19
    6076:	27 95       	ror	r18
    6078:	36 95       	lsr	r19
    607a:	27 95       	ror	r18
    607c:	36 95       	lsr	r19
    607e:	27 95       	ror	r18
    6080:	0e 94 0f 3d 	call	0x7a1e	; 0x7a1e <__umulhisi3>
    6084:	92 95       	swap	r25
    6086:	82 95       	swap	r24
    6088:	8f 70       	andi	r24, 0x0F	; 15
    608a:	89 27       	eor	r24, r25
    608c:	9f 70       	andi	r25, 0x0F	; 15
    608e:	89 27       	eor	r24, r25
    6090:	48 ee       	ldi	r20, 0xE8	; 232
    6092:	53 e0       	ldi	r21, 0x03	; 3
    6094:	84 9f       	mul	r24, r20
    6096:	90 01       	movw	r18, r0
    6098:	85 9f       	mul	r24, r21
    609a:	30 0d       	add	r19, r0
    609c:	94 9f       	mul	r25, r20
    609e:	30 0d       	add	r19, r0
    60a0:	11 24       	eor	r1, r1
    60a2:	c6 01       	movw	r24, r12
    60a4:	82 1b       	sub	r24, r18
    60a6:	93 0b       	sbc	r25, r19
    60a8:	9c 01       	movw	r18, r24
    60aa:	36 95       	lsr	r19
    60ac:	27 95       	ror	r18
    60ae:	36 95       	lsr	r19
    60b0:	27 95       	ror	r18
    60b2:	ab e7       	ldi	r26, 0x7B	; 123
    60b4:	b4 e1       	ldi	r27, 0x14	; 20
    60b6:	0e 94 0f 3d 	call	0x7a1e	; 0x7a1e <__umulhisi3>
    60ba:	3c 01       	movw	r6, r24
    60bc:	76 94       	lsr	r7
    60be:	67 94       	ror	r6
    60c0:	a6 2c       	mov	r10, r6
	digit_2 = ZB_id % 100 / 10;						// ZigBee PanID    10└╟ └┌╕о
    60c2:	96 01       	movw	r18, r12
    60c4:	36 95       	lsr	r19
    60c6:	27 95       	ror	r18
    60c8:	36 95       	lsr	r19
    60ca:	27 95       	ror	r18
    60cc:	0e 94 0f 3d 	call	0x7a1e	; 0x7a1e <__umulhisi3>
    60d0:	96 95       	lsr	r25
    60d2:	87 95       	ror	r24
    60d4:	44 e6       	ldi	r20, 0x64	; 100
    60d6:	48 9f       	mul	r20, r24
    60d8:	90 01       	movw	r18, r0
    60da:	49 9f       	mul	r20, r25
    60dc:	30 0d       	add	r19, r0
    60de:	11 24       	eor	r1, r1
    60e0:	f6 01       	movw	r30, r12
    60e2:	e2 1b       	sub	r30, r18
    60e4:	f3 0b       	sbc	r31, r19
    60e6:	9f 01       	movw	r18, r30
    60e8:	ad ec       	ldi	r26, 0xCD	; 205
    60ea:	bc ec       	ldi	r27, 0xCC	; 204
    60ec:	0e 94 0f 3d 	call	0x7a1e	; 0x7a1e <__umulhisi3>
    60f0:	ac 01       	movw	r20, r24
    60f2:	56 95       	lsr	r21
    60f4:	47 95       	ror	r20
    60f6:	56 95       	lsr	r21
    60f8:	47 95       	ror	r20
    60fa:	56 95       	lsr	r21
    60fc:	47 95       	ror	r20
    60fe:	f4 2e       	mov	r15, r20
	digit_1 = ZB_id % 10;							// ZigBee PanID     1└╟ └┌╕о
    6100:	96 01       	movw	r18, r12
    6102:	0e 94 0f 3d 	call	0x7a1e	; 0x7a1e <__umulhisi3>
    6106:	96 95       	lsr	r25
    6108:	87 95       	ror	r24
    610a:	96 95       	lsr	r25
    610c:	87 95       	ror	r24
    610e:	96 95       	lsr	r25
    6110:	87 95       	ror	r24
    6112:	9c 01       	movw	r18, r24
    6114:	22 0f       	add	r18, r18
    6116:	33 1f       	adc	r19, r19
    6118:	88 0f       	add	r24, r24
    611a:	99 1f       	adc	r25, r25
    611c:	88 0f       	add	r24, r24
    611e:	99 1f       	adc	r25, r25
    6120:	88 0f       	add	r24, r24
    6122:	99 1f       	adc	r25, r25
    6124:	82 0f       	add	r24, r18
    6126:	93 1f       	adc	r25, r19
    6128:	96 01       	movw	r18, r12
    612a:	28 1b       	sub	r18, r24
    612c:	39 0b       	sbc	r19, r25
    612e:	c9 01       	movw	r24, r18
    6130:	92 2e       	mov	r9, r18

	DIGIT[1][3] = fnd_tbl[digit_5];						// ZigBee PanID 10000└╟ └┌╕о ╟е╜├
    6132:	a9 e7       	ldi	r26, 0x79	; 121
    6134:	b1 e4       	ldi	r27, 0x41	; 65
    6136:	0d 5b       	subi	r16, 0xBD	; 189
    6138:	1e 4b       	sbci	r17, 0xBE	; 190
    613a:	f8 01       	movw	r30, r16
    613c:	20 81       	ld	r18, Z
    613e:	17 96       	adiw	r26, 0x07	; 7
    6140:	2c 93       	st	X, r18
    6142:	17 97       	sbiw	r26, 0x07	; 7
	DIGIT[1][2] = fnd_tbl[digit_4];						// ZigBee PanID  1000└╟ └┌╕о ╟е╜├
    6144:	dd 27       	eor	r29, r29
    6146:	cd 5b       	subi	r28, 0xBD	; 189
    6148:	de 4b       	sbci	r29, 0xBE	; 190
    614a:	28 81       	ld	r18, Y
    614c:	16 96       	adiw	r26, 0x06	; 6
    614e:	2c 93       	st	X, r18
    6150:	16 97       	sbiw	r26, 0x06	; 6
	DIGIT[1][1] = fnd_tbl[digit_3];						// ZigBee PanID   100└╟ └┌╕о ╟е╜├
    6152:	f3 01       	movw	r30, r6
    6154:	ff 27       	eor	r31, r31
    6156:	ed 5b       	subi	r30, 0xBD	; 189
    6158:	fe 4b       	sbci	r31, 0xBE	; 190
    615a:	20 81       	ld	r18, Z
    615c:	15 96       	adiw	r26, 0x05	; 5
    615e:	2c 93       	st	X, r18
    6160:	15 97       	sbiw	r26, 0x05	; 5
	DIGIT[1][0] = fnd_tbl[digit_2];						// ZigBee PanID    10└╟ └┌╕о ╟е╜├
    6162:	55 27       	eor	r21, r21
    6164:	fa 01       	movw	r30, r20
    6166:	ed 5b       	subi	r30, 0xBD	; 189
    6168:	fe 4b       	sbci	r31, 0xBE	; 190
    616a:	20 81       	ld	r18, Z
    616c:	14 96       	adiw	r26, 0x04	; 4
    616e:	2c 93       	st	X, r18
    6170:	14 97       	sbiw	r26, 0x04	; 4

	DIGIT[2][3] = fnd_tbl[digit_1];						// ZigBee PanID     1└╟ └┌╕о ╟е╜├
    6172:	99 27       	eor	r25, r25
    6174:	fc 01       	movw	r30, r24
    6176:	ed 5b       	subi	r30, 0xBD	; 189
    6178:	fe 4b       	sbci	r31, 0xBE	; 190
    617a:	80 81       	ld	r24, Z
    617c:	1b 96       	adiw	r26, 0x0b	; 11
    617e:	8c 93       	st	X, r24
    6180:	1b 97       	sbiw	r26, 0x0b	; 11

	while(SET.Menu)								// ╕▐┤║╕Ё╡х └╠╕щ ╣▌║╣
    6182:	80 91 0e 51 	lds	r24, 0x510E	; 0x80510e <SET>
    6186:	88 23       	and	r24, r24
    6188:	09 f4       	brne	.+2      	; 0x618c <ZigBee_PanID_Write+0x1aa>
    618a:	5b c1       	rjmp	.+694    	; 0x6442 <ZigBee_PanID_Write+0x460>
	{
		SET.Blink = 1;							// └┌╕┤╝І ▒Є╣┌└╙ ╝│┴д
    618c:	0e e0       	ldi	r16, 0x0E	; 14
    618e:	11 e5       	ldi	r17, 0x51	; 81
    6190:	88 24       	eor	r8, r8
    6192:	83 94       	inc	r8

		switch(KEY.Count)						// ╝▒┼├ Key ░б ┤н╕░╚╜╝І
    6194:	cb e4       	ldi	r28, 0x4B	; 75
    6196:	d1 e5       	ldi	r29, 0x51	; 81
					}
				}
			break;
//-------------------------------------------------------------------------------------------------
			case 4:							// ZigBee PanID 1└╟ └┌╕о
				DIGIT[1][0] = fnd_tbl[digit_2];			// ZigBee PanID 10└╟ └┌╕о ╟е╜├
    6198:	6d 01       	movw	r12, r26

	DIGIT[2][3] = fnd_tbl[digit_1];						// ZigBee PanID     1└╟ └┌╕о ╟е╜├

	while(SET.Menu)								// ╕▐┤║╕Ё╡х └╠╕щ ╣▌║╣
	{
		SET.Blink = 1;							// └┌╕┤╝І ▒Є╣┌└╙ ╝│┴д
    619a:	f8 01       	movw	r30, r16
    619c:	83 82       	std	Z+3, r8	; 0x03

		switch(KEY.Count)						// ╝▒┼├ Key ░б ┤н╕░╚╜╝І
    619e:	88 81       	ld	r24, Y
    61a0:	82 30       	cpi	r24, 0x02	; 2
    61a2:	09 f4       	brne	.+2      	; 0x61a6 <ZigBee_PanID_Write+0x1c4>
    61a4:	7b c0       	rjmp	.+246    	; 0x629c <ZigBee_PanID_Write+0x2ba>
    61a6:	28 f4       	brcc	.+10     	; 0x61b2 <ZigBee_PanID_Write+0x1d0>
    61a8:	88 23       	and	r24, r24
    61aa:	61 f0       	breq	.+24     	; 0x61c4 <ZigBee_PanID_Write+0x1e2>
    61ac:	81 30       	cpi	r24, 0x01	; 1
    61ae:	a9 f1       	breq	.+106    	; 0x621a <ZigBee_PanID_Write+0x238>
    61b0:	42 c1       	rjmp	.+644    	; 0x6436 <ZigBee_PanID_Write+0x454>
    61b2:	84 30       	cpi	r24, 0x04	; 4
    61b4:	09 f4       	brne	.+2      	; 0x61b8 <ZigBee_PanID_Write+0x1d6>
    61b6:	fb c0       	rjmp	.+502    	; 0x63ae <ZigBee_PanID_Write+0x3cc>
    61b8:	08 f4       	brcc	.+2      	; 0x61bc <ZigBee_PanID_Write+0x1da>
    61ba:	b3 c0       	rjmp	.+358    	; 0x6322 <ZigBee_PanID_Write+0x340>
    61bc:	85 30       	cpi	r24, 0x05	; 5
    61be:	09 f4       	brne	.+2      	; 0x61c2 <ZigBee_PanID_Write+0x1e0>
    61c0:	39 c1       	rjmp	.+626    	; 0x6434 <ZigBee_PanID_Write+0x452>
    61c2:	39 c1       	rjmp	.+626    	; 0x6436 <ZigBee_PanID_Write+0x454>
		{
//-------------------------------------------------------------------------------------------------
			case 0:							// ZigBee PanID 10000└╟ └┌╕о
				DIGIT[2][3] = fnd_tbl[digit_1];			// ZigBee PanID     1└╟ └┌╕о ╟е╜├
    61c4:	e9 2d       	mov	r30, r9
    61c6:	f0 e0       	ldi	r31, 0x00	; 0
    61c8:	ed 5b       	subi	r30, 0xBD	; 189
    61ca:	fe 4b       	sbci	r31, 0xBE	; 190
    61cc:	80 81       	ld	r24, Z
    61ce:	f6 01       	movw	r30, r12
    61d0:	83 87       	std	Z+11, r24	; 0x0b
				if(Blink) {DIGIT[1][3] = FND_OFF;}		// Blink = 1 └╠╕щ ZigBee PanID 10000└╟ └┌╕о OFF
    61d2:	80 91 71 51 	lds	r24, 0x5171	; 0x805171 <Blink>
    61d6:	88 23       	and	r24, r24
    61d8:	11 f0       	breq	.+4      	; 0x61de <ZigBee_PanID_Write+0x1fc>
    61da:	17 82       	std	Z+7, r1	; 0x07
    61dc:	07 c0       	rjmp	.+14     	; 0x61ec <ZigBee_PanID_Write+0x20a>
				else	  {DIGIT[1][3] = fnd_tbl[digit_5];}	// Blink = 0 └╠╕щ ZigBee PanID 10000└╟ └┌╕о ╟е╜├
    61de:	ee 2d       	mov	r30, r14
    61e0:	f0 e0       	ldi	r31, 0x00	; 0
    61e2:	ed 5b       	subi	r30, 0xBD	; 189
    61e4:	fe 4b       	sbci	r31, 0xBE	; 190
    61e6:	80 81       	ld	r24, Z
    61e8:	f6 01       	movw	r30, r12
    61ea:	87 83       	std	Z+7, r24	; 0x07

				if(KEY.Buff)					// Key └╘╖┬└╠ └╓└╕╕щ
    61ec:	89 81       	ldd	r24, Y+1	; 0x01
    61ee:	88 23       	and	r24, r24
    61f0:	09 f4       	brne	.+2      	; 0x61f4 <ZigBee_PanID_Write+0x212>
    61f2:	21 c1       	rjmp	.+578    	; 0x6436 <ZigBee_PanID_Write+0x454>
				{
					if     (KEY.Key == 1 && digit_5 < 6) {digit_5++; KEY.Key = 0;}		// ╛і  ╣І╞░ └╠╕щ ZigBee PanID 10000└╟ └┌╕о ┴є░б
    61f4:	8a 81       	ldd	r24, Y+2	; 0x02
    61f6:	81 30       	cpi	r24, 0x01	; 1
    61f8:	31 f4       	brne	.+12     	; 0x6206 <ZigBee_PanID_Write+0x224>
    61fa:	f5 e0       	ldi	r31, 0x05	; 5
    61fc:	fe 15       	cp	r31, r14
    61fe:	18 f0       	brcs	.+6      	; 0x6206 <ZigBee_PanID_Write+0x224>
    6200:	e3 94       	inc	r14
    6202:	1a 82       	std	Y+2, r1	; 0x02
    6204:	18 c1       	rjmp	.+560    	; 0x6436 <ZigBee_PanID_Write+0x454>
					else if(KEY.Key == 3 && digit_5 > 0) {digit_5--; KEY.Key = 0;}		// ┤┘┐ю╣І╞░ └╠╕щ ZigBee PanID 10000└╟ └┌╕о ░и╝╥
    6206:	8a 81       	ldd	r24, Y+2	; 0x02
    6208:	83 30       	cpi	r24, 0x03	; 3
    620a:	09 f0       	breq	.+2      	; 0x620e <ZigBee_PanID_Write+0x22c>
    620c:	14 c1       	rjmp	.+552    	; 0x6436 <ZigBee_PanID_Write+0x454>
    620e:	ee 20       	and	r14, r14
    6210:	09 f4       	brne	.+2      	; 0x6214 <ZigBee_PanID_Write+0x232>
    6212:	11 c1       	rjmp	.+546    	; 0x6436 <ZigBee_PanID_Write+0x454>
    6214:	ea 94       	dec	r14
    6216:	1a 82       	std	Y+2, r1	; 0x02
    6218:	0e c1       	rjmp	.+540    	; 0x6436 <ZigBee_PanID_Write+0x454>
				}
			break;
//-------------------------------------------------------------------------------------------------
			case 1:							// ZigBee PanID 1000└╟ └┌╕о
				DIGIT[1][3] = fnd_tbl[digit_5];			// ZigBee PanID 10000└╟ └┌╕о ╟е╜├
    621a:	ee 2d       	mov	r30, r14
    621c:	f0 e0       	ldi	r31, 0x00	; 0
    621e:	ed 5b       	subi	r30, 0xBD	; 189
    6220:	fe 4b       	sbci	r31, 0xBE	; 190
    6222:	80 81       	ld	r24, Z
    6224:	f6 01       	movw	r30, r12
    6226:	87 83       	std	Z+7, r24	; 0x07
				if(Blink) {DIGIT[1][2] = FND_OFF;}		// Blink = 1 └╠╕щ ZigBee PanID 1000└╟ └┌╕о OFF
    6228:	80 91 71 51 	lds	r24, 0x5171	; 0x805171 <Blink>
    622c:	88 23       	and	r24, r24
    622e:	11 f0       	breq	.+4      	; 0x6234 <ZigBee_PanID_Write+0x252>
    6230:	16 82       	std	Z+6, r1	; 0x06
    6232:	07 c0       	rjmp	.+14     	; 0x6242 <ZigBee_PanID_Write+0x260>
				else	  {DIGIT[1][2] = fnd_tbl[digit_4];}	// Blink = 0 └╠╕щ ZigBee PanID 1000└╟ └┌╕о ╟е╜├
    6234:	eb 2d       	mov	r30, r11
    6236:	f0 e0       	ldi	r31, 0x00	; 0
    6238:	ed 5b       	subi	r30, 0xBD	; 189
    623a:	fe 4b       	sbci	r31, 0xBE	; 190
    623c:	80 81       	ld	r24, Z
    623e:	f6 01       	movw	r30, r12
    6240:	86 83       	std	Z+6, r24	; 0x06

				if(KEY.Buff)					// Key └╘╖┬└╠ └╓└╕╕щ
    6242:	89 81       	ldd	r24, Y+1	; 0x01
    6244:	88 23       	and	r24, r24
    6246:	09 f4       	brne	.+2      	; 0x624a <ZigBee_PanID_Write+0x268>
    6248:	f6 c0       	rjmp	.+492    	; 0x6436 <ZigBee_PanID_Write+0x454>
				{
					if(digit_5 >= 6)							// ZigBee PanID ░б 60000 ░· ░░░┼│к ┼й╕щ
    624a:	f5 e0       	ldi	r31, 0x05	; 5
    624c:	fe 15       	cp	r31, r14
    624e:	98 f4       	brcc	.+38     	; 0x6276 <ZigBee_PanID_Write+0x294>
					{
						if     (KEY.Key == 1 && digit_4 < 5) {digit_4++; KEY.Key = 0;}	// ╛і  ╣І╞░ └╠╕щ ZigBee PanID 1000└╟ └┌╕о 5▒ю┴І ┴є░б
    6250:	8a 81       	ldd	r24, Y+2	; 0x02
    6252:	81 30       	cpi	r24, 0x01	; 1
    6254:	31 f4       	brne	.+12     	; 0x6262 <ZigBee_PanID_Write+0x280>
    6256:	24 e0       	ldi	r18, 0x04	; 4
    6258:	2b 15       	cp	r18, r11
    625a:	18 f0       	brcs	.+6      	; 0x6262 <ZigBee_PanID_Write+0x280>
    625c:	b3 94       	inc	r11
    625e:	1a 82       	std	Y+2, r1	; 0x02
    6260:	ea c0       	rjmp	.+468    	; 0x6436 <ZigBee_PanID_Write+0x454>
						else if(KEY.Key == 3 && digit_4 > 0) {digit_4--; KEY.Key = 0;}	// ┤┘┐ю╣І╞░ └╠╕щ ZigBee PanID 1000└╟ └┌╕о ░и╝╥
    6262:	8a 81       	ldd	r24, Y+2	; 0x02
    6264:	83 30       	cpi	r24, 0x03	; 3
    6266:	09 f0       	breq	.+2      	; 0x626a <ZigBee_PanID_Write+0x288>
    6268:	e6 c0       	rjmp	.+460    	; 0x6436 <ZigBee_PanID_Write+0x454>
    626a:	bb 20       	and	r11, r11
    626c:	09 f4       	brne	.+2      	; 0x6270 <ZigBee_PanID_Write+0x28e>
    626e:	e3 c0       	rjmp	.+454    	; 0x6436 <ZigBee_PanID_Write+0x454>
    6270:	ba 94       	dec	r11
    6272:	1a 82       	std	Y+2, r1	; 0x02
    6274:	e0 c0       	rjmp	.+448    	; 0x6436 <ZigBee_PanID_Write+0x454>
					}
					else									// ZigBee PanID ░б 60000 ░· ░░░┼│к ┼й┴І ╛╩└╕╕щ
					{
						if     (KEY.Key == 1 && digit_4 < 9) {digit_4++; KEY.Key = 0;}	// ╛і  ╣І╞░ └╠╕щ ZigBee PanID 1000└╟ └┌╕о 9▒ю┴І ┴є░б
    6276:	8a 81       	ldd	r24, Y+2	; 0x02
    6278:	81 30       	cpi	r24, 0x01	; 1
    627a:	31 f4       	brne	.+12     	; 0x6288 <ZigBee_PanID_Write+0x2a6>
    627c:	38 e0       	ldi	r19, 0x08	; 8
    627e:	3b 15       	cp	r19, r11
    6280:	18 f0       	brcs	.+6      	; 0x6288 <ZigBee_PanID_Write+0x2a6>
    6282:	b3 94       	inc	r11
    6284:	1a 82       	std	Y+2, r1	; 0x02
    6286:	d7 c0       	rjmp	.+430    	; 0x6436 <ZigBee_PanID_Write+0x454>
						else if(KEY.Key == 3 && digit_4 > 0) {digit_4--; KEY.Key = 0;}	// ┤┘┐ю╣І╞░ └╠╕щ ZigBee PanID 1000└╟ └┌╕о 0▒ю┴І ░и╝╥
    6288:	8a 81       	ldd	r24, Y+2	; 0x02
    628a:	83 30       	cpi	r24, 0x03	; 3
    628c:	09 f0       	breq	.+2      	; 0x6290 <ZigBee_PanID_Write+0x2ae>
    628e:	d3 c0       	rjmp	.+422    	; 0x6436 <ZigBee_PanID_Write+0x454>
    6290:	bb 20       	and	r11, r11
    6292:	09 f4       	brne	.+2      	; 0x6296 <ZigBee_PanID_Write+0x2b4>
    6294:	d0 c0       	rjmp	.+416    	; 0x6436 <ZigBee_PanID_Write+0x454>
    6296:	ba 94       	dec	r11
    6298:	1a 82       	std	Y+2, r1	; 0x02
    629a:	cd c0       	rjmp	.+410    	; 0x6436 <ZigBee_PanID_Write+0x454>
					}
				}
			break;
//-------------------------------------------------------------------------------------------------
			case 2:							// ZigBee PanID 100└╟ └┌╕о
				DIGIT[1][2] = fnd_tbl[digit_4];			// ZigBee PanID 1000└╟ └┌╕о ╟е╜├
    629c:	eb 2d       	mov	r30, r11
    629e:	f0 e0       	ldi	r31, 0x00	; 0
    62a0:	ed 5b       	subi	r30, 0xBD	; 189
    62a2:	fe 4b       	sbci	r31, 0xBE	; 190
    62a4:	80 81       	ld	r24, Z
    62a6:	f6 01       	movw	r30, r12
    62a8:	86 83       	std	Z+6, r24	; 0x06
				if(Blink) {DIGIT[1][1] = FND_OFF;}		// Blink = 1 └╠╕щ ZigBee PanID 100└╟ └┌╕о OFF
    62aa:	80 91 71 51 	lds	r24, 0x5171	; 0x805171 <Blink>
    62ae:	88 23       	and	r24, r24
    62b0:	11 f0       	breq	.+4      	; 0x62b6 <ZigBee_PanID_Write+0x2d4>
    62b2:	15 82       	std	Z+5, r1	; 0x05
    62b4:	07 c0       	rjmp	.+14     	; 0x62c4 <ZigBee_PanID_Write+0x2e2>
				else	  {DIGIT[1][1] = fnd_tbl[digit_3];}	// Blink = 0 └╠╕щ ZigBee PanID 100└╟ └┌╕о ╟е╜├
    62b6:	ea 2d       	mov	r30, r10
    62b8:	f0 e0       	ldi	r31, 0x00	; 0
    62ba:	ed 5b       	subi	r30, 0xBD	; 189
    62bc:	fe 4b       	sbci	r31, 0xBE	; 190
    62be:	80 81       	ld	r24, Z
    62c0:	f6 01       	movw	r30, r12
    62c2:	85 83       	std	Z+5, r24	; 0x05

				if(KEY.Buff)					// Key └╘╖┬└╠ └╓└╕╕щ
    62c4:	89 81       	ldd	r24, Y+1	; 0x01
    62c6:	88 23       	and	r24, r24
    62c8:	09 f4       	brne	.+2      	; 0x62cc <ZigBee_PanID_Write+0x2ea>
    62ca:	b5 c0       	rjmp	.+362    	; 0x6436 <ZigBee_PanID_Write+0x454>
				{
					if(digit_5 >= 6 && digit_4 >= 5)					// ZigBee PanID ░б 65000 ░· ░░░┼│к ┼й╕щ
    62cc:	f5 e0       	ldi	r31, 0x05	; 5
    62ce:	fe 15       	cp	r31, r14
    62d0:	a8 f4       	brcc	.+42     	; 0x62fc <ZigBee_PanID_Write+0x31a>
    62d2:	24 e0       	ldi	r18, 0x04	; 4
    62d4:	2b 15       	cp	r18, r11
    62d6:	90 f4       	brcc	.+36     	; 0x62fc <ZigBee_PanID_Write+0x31a>
					{
						if     (KEY.Key == 1 && digit_3 < 5) {digit_3++; KEY.Key = 0;}	// ╛і  ╣І╞░ └╠╕щ ZigBee PanID 100└╟ └┌╕о 5▒ю┴І ┴є░б
    62d8:	8a 81       	ldd	r24, Y+2	; 0x02
    62da:	81 30       	cpi	r24, 0x01	; 1
    62dc:	29 f4       	brne	.+10     	; 0x62e8 <ZigBee_PanID_Write+0x306>
    62de:	2a 15       	cp	r18, r10
    62e0:	18 f0       	brcs	.+6      	; 0x62e8 <ZigBee_PanID_Write+0x306>
    62e2:	a3 94       	inc	r10
    62e4:	1a 82       	std	Y+2, r1	; 0x02
    62e6:	a7 c0       	rjmp	.+334    	; 0x6436 <ZigBee_PanID_Write+0x454>
						else if(KEY.Key == 3 && digit_3 > 0) {digit_3--; KEY.Key = 0;}	// ┤┘┐ю╣І╞░ └╠╕щ ZigBee PanID 100└╟ └┌╕о ░и╝╥
    62e8:	8a 81       	ldd	r24, Y+2	; 0x02
    62ea:	83 30       	cpi	r24, 0x03	; 3
    62ec:	09 f0       	breq	.+2      	; 0x62f0 <ZigBee_PanID_Write+0x30e>
    62ee:	a3 c0       	rjmp	.+326    	; 0x6436 <ZigBee_PanID_Write+0x454>
    62f0:	aa 20       	and	r10, r10
    62f2:	09 f4       	brne	.+2      	; 0x62f6 <ZigBee_PanID_Write+0x314>
    62f4:	a0 c0       	rjmp	.+320    	; 0x6436 <ZigBee_PanID_Write+0x454>
    62f6:	aa 94       	dec	r10
    62f8:	1a 82       	std	Y+2, r1	; 0x02
    62fa:	9d c0       	rjmp	.+314    	; 0x6436 <ZigBee_PanID_Write+0x454>
					}
					else									// ZigBee PanID ░б 65000 ░· ░░░┼│к ┼й┴І ╛╩└╕╕щ
					{
						if     (KEY.Key == 1 && digit_3 < 9) {digit_3++; KEY.Key = 0;}	// ╛і  ╣І╞░ └╠╕щ ZigBee PanID 100└╟ └┌╕о 9▒ю┴І ┴є░б
    62fc:	8a 81       	ldd	r24, Y+2	; 0x02
    62fe:	81 30       	cpi	r24, 0x01	; 1
    6300:	31 f4       	brne	.+12     	; 0x630e <ZigBee_PanID_Write+0x32c>
    6302:	38 e0       	ldi	r19, 0x08	; 8
    6304:	3a 15       	cp	r19, r10
    6306:	18 f0       	brcs	.+6      	; 0x630e <ZigBee_PanID_Write+0x32c>
    6308:	a3 94       	inc	r10
    630a:	1a 82       	std	Y+2, r1	; 0x02
    630c:	94 c0       	rjmp	.+296    	; 0x6436 <ZigBee_PanID_Write+0x454>
						else if(KEY.Key == 3 && digit_3 > 0) {digit_3--; KEY.Key = 0;}	// ┤┘┐ю╣І╞░ └╠╕щ ZigBee PanID 100└╟ └┌╕о 0▒ю┴І ░и╝╥
    630e:	8a 81       	ldd	r24, Y+2	; 0x02
    6310:	83 30       	cpi	r24, 0x03	; 3
    6312:	09 f0       	breq	.+2      	; 0x6316 <ZigBee_PanID_Write+0x334>
    6314:	90 c0       	rjmp	.+288    	; 0x6436 <ZigBee_PanID_Write+0x454>
    6316:	aa 20       	and	r10, r10
    6318:	09 f4       	brne	.+2      	; 0x631c <ZigBee_PanID_Write+0x33a>
    631a:	8d c0       	rjmp	.+282    	; 0x6436 <ZigBee_PanID_Write+0x454>
    631c:	aa 94       	dec	r10
    631e:	1a 82       	std	Y+2, r1	; 0x02
    6320:	8a c0       	rjmp	.+276    	; 0x6436 <ZigBee_PanID_Write+0x454>
					}
				}
			break;
//-------------------------------------------------------------------------------------------------
			case 3:							// ZigBee PanID 10└╟ └┌╕о
				DIGIT[1][1] = fnd_tbl[digit_3];			// ZigBee PanID 100└╟ └┌╕о ╟е╜├
    6322:	ea 2d       	mov	r30, r10
    6324:	f0 e0       	ldi	r31, 0x00	; 0
    6326:	ed 5b       	subi	r30, 0xBD	; 189
    6328:	fe 4b       	sbci	r31, 0xBE	; 190
    632a:	80 81       	ld	r24, Z
    632c:	f6 01       	movw	r30, r12
    632e:	85 83       	std	Z+5, r24	; 0x05
				if(Blink) {DIGIT[1][0] = FND_OFF;}		// Blink = 1 └╠╕щ ZigBee PanID 10└╟ └┌╕о OFF
    6330:	80 91 71 51 	lds	r24, 0x5171	; 0x805171 <Blink>
    6334:	88 23       	and	r24, r24
    6336:	11 f0       	breq	.+4      	; 0x633c <ZigBee_PanID_Write+0x35a>
    6338:	14 82       	std	Z+4, r1	; 0x04
    633a:	07 c0       	rjmp	.+14     	; 0x634a <ZigBee_PanID_Write+0x368>
				else	  {DIGIT[1][0] = fnd_tbl[digit_2];}	// Blink = 0 └╠╕щ ZigBee PanID 10└╟ └┌╕о ╟е╜├
    633c:	ef 2d       	mov	r30, r15
    633e:	f0 e0       	ldi	r31, 0x00	; 0
    6340:	ed 5b       	subi	r30, 0xBD	; 189
    6342:	fe 4b       	sbci	r31, 0xBE	; 190
    6344:	80 81       	ld	r24, Z
    6346:	f6 01       	movw	r30, r12
    6348:	84 83       	std	Z+4, r24	; 0x04

				if(KEY.Buff)					// Key └╘╖┬└╠ └╓└╕╕щ
    634a:	89 81       	ldd	r24, Y+1	; 0x01
    634c:	88 23       	and	r24, r24
    634e:	09 f4       	brne	.+2      	; 0x6352 <ZigBee_PanID_Write+0x370>
    6350:	72 c0       	rjmp	.+228    	; 0x6436 <ZigBee_PanID_Write+0x454>
				{
					if(digit_5 >= 6 && digit_4 >= 5 && digit_3 >= 5)			// ZigBee PanID ░б 65500 ░· ░░░┼│к ┼й╕щ
    6352:	f5 e0       	ldi	r31, 0x05	; 5
    6354:	fe 15       	cp	r31, r14
    6356:	c0 f4       	brcc	.+48     	; 0x6388 <ZigBee_PanID_Write+0x3a6>
    6358:	24 e0       	ldi	r18, 0x04	; 4
    635a:	2b 15       	cp	r18, r11
    635c:	a8 f4       	brcc	.+42     	; 0x6388 <ZigBee_PanID_Write+0x3a6>
    635e:	2a 15       	cp	r18, r10
    6360:	98 f4       	brcc	.+38     	; 0x6388 <ZigBee_PanID_Write+0x3a6>
					{
						if     (KEY.Key == 1 && digit_2 < 3) {digit_2++; KEY.Key = 0;}	// ╛і  ╣І╞░ └╠╕щ ZigBee PanID 10└╟ └┌╕о 3▒ю┴І ┴є░б
    6362:	8a 81       	ldd	r24, Y+2	; 0x02
    6364:	81 30       	cpi	r24, 0x01	; 1
    6366:	31 f4       	brne	.+12     	; 0x6374 <ZigBee_PanID_Write+0x392>
    6368:	32 e0       	ldi	r19, 0x02	; 2
    636a:	3f 15       	cp	r19, r15
    636c:	18 f0       	brcs	.+6      	; 0x6374 <ZigBee_PanID_Write+0x392>
    636e:	f3 94       	inc	r15
    6370:	1a 82       	std	Y+2, r1	; 0x02
    6372:	61 c0       	rjmp	.+194    	; 0x6436 <ZigBee_PanID_Write+0x454>
						else if(KEY.Key == 3 && digit_2 > 0) {digit_2--; KEY.Key = 0;}	// ┤┘┐ю╣І╞░ └╠╕щ ZigBee PanID 10└╟ └┌╕о ░и╝╥
    6374:	8a 81       	ldd	r24, Y+2	; 0x02
    6376:	83 30       	cpi	r24, 0x03	; 3
    6378:	09 f0       	breq	.+2      	; 0x637c <ZigBee_PanID_Write+0x39a>
    637a:	5d c0       	rjmp	.+186    	; 0x6436 <ZigBee_PanID_Write+0x454>
    637c:	ff 20       	and	r15, r15
    637e:	09 f4       	brne	.+2      	; 0x6382 <ZigBee_PanID_Write+0x3a0>
    6380:	5a c0       	rjmp	.+180    	; 0x6436 <ZigBee_PanID_Write+0x454>
    6382:	fa 94       	dec	r15
    6384:	1a 82       	std	Y+2, r1	; 0x02
    6386:	57 c0       	rjmp	.+174    	; 0x6436 <ZigBee_PanID_Write+0x454>
					}
					else									// ZigBee PanID ░б 65500 ░· ░░░┼│к ┼й┴І ╛╩└╕╕щ
					{
						if     (KEY.Key == 1 && digit_2 < 9) {digit_2++; KEY.Key = 0;}	// ╛і  ╣І╞░ └╠╕щ ZigBee PanID 10└╟ └┌╕о 9▒ю┴І ┴є░б
    6388:	8a 81       	ldd	r24, Y+2	; 0x02
    638a:	81 30       	cpi	r24, 0x01	; 1
    638c:	31 f4       	brne	.+12     	; 0x639a <ZigBee_PanID_Write+0x3b8>
    638e:	88 e0       	ldi	r24, 0x08	; 8
    6390:	8f 15       	cp	r24, r15
    6392:	18 f0       	brcs	.+6      	; 0x639a <ZigBee_PanID_Write+0x3b8>
    6394:	f3 94       	inc	r15
    6396:	1a 82       	std	Y+2, r1	; 0x02
    6398:	4e c0       	rjmp	.+156    	; 0x6436 <ZigBee_PanID_Write+0x454>
						else if(KEY.Key == 3 && digit_2 > 0) {digit_2--; KEY.Key = 0;}	// ┤┘┐ю╣І╞░ └╠╕щ ZigBee PanID 10└╟ └┌╕о 0▒ю┴І ░и╝╥
    639a:	8a 81       	ldd	r24, Y+2	; 0x02
    639c:	83 30       	cpi	r24, 0x03	; 3
    639e:	09 f0       	breq	.+2      	; 0x63a2 <ZigBee_PanID_Write+0x3c0>
    63a0:	4a c0       	rjmp	.+148    	; 0x6436 <ZigBee_PanID_Write+0x454>
    63a2:	ff 20       	and	r15, r15
    63a4:	09 f4       	brne	.+2      	; 0x63a8 <ZigBee_PanID_Write+0x3c6>
    63a6:	47 c0       	rjmp	.+142    	; 0x6436 <ZigBee_PanID_Write+0x454>
    63a8:	fa 94       	dec	r15
    63aa:	1a 82       	std	Y+2, r1	; 0x02
    63ac:	44 c0       	rjmp	.+136    	; 0x6436 <ZigBee_PanID_Write+0x454>
					}
				}
			break;
//-------------------------------------------------------------------------------------------------
			case 4:							// ZigBee PanID 1└╟ └┌╕о
				DIGIT[1][0] = fnd_tbl[digit_2];			// ZigBee PanID 10└╟ └┌╕о ╟е╜├
    63ae:	ef 2d       	mov	r30, r15
    63b0:	f0 e0       	ldi	r31, 0x00	; 0
    63b2:	ed 5b       	subi	r30, 0xBD	; 189
    63b4:	fe 4b       	sbci	r31, 0xBE	; 190
    63b6:	80 81       	ld	r24, Z
    63b8:	f6 01       	movw	r30, r12
    63ba:	84 83       	std	Z+4, r24	; 0x04
				if(Blink) {DIGIT[2][3] = FND_OFF;}		// Blink = 1 └╠╕щ ZigBee PanID 1└╟ └┌╕о OFF
    63bc:	80 91 71 51 	lds	r24, 0x5171	; 0x805171 <Blink>
    63c0:	88 23       	and	r24, r24
    63c2:	11 f0       	breq	.+4      	; 0x63c8 <ZigBee_PanID_Write+0x3e6>
    63c4:	13 86       	std	Z+11, r1	; 0x0b
    63c6:	07 c0       	rjmp	.+14     	; 0x63d6 <ZigBee_PanID_Write+0x3f4>
				else	  {DIGIT[2][3] = fnd_tbl[digit_1];}	// Blink = 0 └╠╕щ ZigBee PanID 1└╟ └┌╕о ╟е╜├
    63c8:	e9 2d       	mov	r30, r9
    63ca:	f0 e0       	ldi	r31, 0x00	; 0
    63cc:	ed 5b       	subi	r30, 0xBD	; 189
    63ce:	fe 4b       	sbci	r31, 0xBE	; 190
    63d0:	80 81       	ld	r24, Z
    63d2:	f6 01       	movw	r30, r12
    63d4:	83 87       	std	Z+11, r24	; 0x0b

				if(KEY.Buff)					// Key └╘╖┬└╠ └╓└╕╕щ
    63d6:	89 81       	ldd	r24, Y+1	; 0x01
    63d8:	88 23       	and	r24, r24
    63da:	69 f1       	breq	.+90     	; 0x6436 <ZigBee_PanID_Write+0x454>
				{
					if(digit_5 >= 6 && digit_4 >= 5 && digit_3 >= 5 && digit_2 >= 3)	// ZigBee PanID ░б 65530 ░· ░░░┼│к ┼й╕щ
    63dc:	f5 e0       	ldi	r31, 0x05	; 5
    63de:	fe 15       	cp	r31, r14
    63e0:	c0 f4       	brcc	.+48     	; 0x6412 <ZigBee_PanID_Write+0x430>
    63e2:	24 e0       	ldi	r18, 0x04	; 4
    63e4:	2b 15       	cp	r18, r11
    63e6:	a8 f4       	brcc	.+42     	; 0x6412 <ZigBee_PanID_Write+0x430>
    63e8:	2a 15       	cp	r18, r10
    63ea:	98 f4       	brcc	.+38     	; 0x6412 <ZigBee_PanID_Write+0x430>
    63ec:	32 e0       	ldi	r19, 0x02	; 2
    63ee:	3f 15       	cp	r19, r15
    63f0:	80 f4       	brcc	.+32     	; 0x6412 <ZigBee_PanID_Write+0x430>
					{
						if     (KEY.Key == 1 && digit_1 < 5) {digit_1++; KEY.Key = 0;}	// ╛і  ╣І╞░ └╠╕щ ZigBee PanID 1└╟ └┌╕о 6▒ю┴І ┴є░б
    63f2:	8a 81       	ldd	r24, Y+2	; 0x02
    63f4:	81 30       	cpi	r24, 0x01	; 1
    63f6:	29 f4       	brne	.+10     	; 0x6402 <ZigBee_PanID_Write+0x420>
    63f8:	29 15       	cp	r18, r9
    63fa:	18 f0       	brcs	.+6      	; 0x6402 <ZigBee_PanID_Write+0x420>
    63fc:	93 94       	inc	r9
    63fe:	1a 82       	std	Y+2, r1	; 0x02
    6400:	1a c0       	rjmp	.+52     	; 0x6436 <ZigBee_PanID_Write+0x454>
						else if(KEY.Key == 3 && digit_1 > 0) {digit_1--; KEY.Key = 0;}	// ┤┘┐ю╣І╞░ └╠╕щ ZigBee PanID 1└╟ └┌╕о ░и╝╥
    6402:	8a 81       	ldd	r24, Y+2	; 0x02
    6404:	83 30       	cpi	r24, 0x03	; 3
    6406:	b9 f4       	brne	.+46     	; 0x6436 <ZigBee_PanID_Write+0x454>
    6408:	99 20       	and	r9, r9
    640a:	a9 f0       	breq	.+42     	; 0x6436 <ZigBee_PanID_Write+0x454>
    640c:	9a 94       	dec	r9
    640e:	1a 82       	std	Y+2, r1	; 0x02
    6410:	12 c0       	rjmp	.+36     	; 0x6436 <ZigBee_PanID_Write+0x454>
					}
					else									// ZigBee PanID ░б 65530 ░· ░░░┼│к ┼й┴І ╛╩└╕╕щ
					{
						if     (KEY.Key == 1 && digit_1 < 9) {digit_1++; KEY.Key = 0;}	// ╛і  ╣І╞░ └╠╕щ ZigBee PanID 1└╟ └┌╕о 9▒ю┴І ┴є░б
    6412:	8a 81       	ldd	r24, Y+2	; 0x02
    6414:	81 30       	cpi	r24, 0x01	; 1
    6416:	31 f4       	brne	.+12     	; 0x6424 <ZigBee_PanID_Write+0x442>
    6418:	88 e0       	ldi	r24, 0x08	; 8
    641a:	89 15       	cp	r24, r9
    641c:	18 f0       	brcs	.+6      	; 0x6424 <ZigBee_PanID_Write+0x442>
    641e:	93 94       	inc	r9
    6420:	1a 82       	std	Y+2, r1	; 0x02
    6422:	09 c0       	rjmp	.+18     	; 0x6436 <ZigBee_PanID_Write+0x454>
						else if(KEY.Key == 3 && digit_1 > 0) {digit_1--; KEY.Key = 0;}	// ┤┘┐ю╣І╞░ └╠╕щ ZigBee PanID 1└╟ └┌╕о 0▒ю┴І ░и╝╥
    6424:	8a 81       	ldd	r24, Y+2	; 0x02
    6426:	83 30       	cpi	r24, 0x03	; 3
    6428:	31 f4       	brne	.+12     	; 0x6436 <ZigBee_PanID_Write+0x454>
    642a:	99 20       	and	r9, r9
    642c:	21 f0       	breq	.+8      	; 0x6436 <ZigBee_PanID_Write+0x454>
    642e:	9a 94       	dec	r9
    6430:	1a 82       	std	Y+2, r1	; 0x02
    6432:	01 c0       	rjmp	.+2      	; 0x6436 <ZigBee_PanID_Write+0x454>
					}
				}
			break;
//-------------------------------------------------------------------------------------------------
			case 5:
				KEY.Count = 0;					// ╣▌║╣└╗ └з╟╪ Count╕ж ├╓└·╖╬ ░и╝╥ ╜├┼┤
    6434:	18 82       	st	Y, r1
			break;
		}
		wdt_reset();							// ┐І─б╡╢ ╕о╝┬
    6436:	0e 94 18 14 	call	0x2830	; 0x2830 <wdt_reset>
	DIGIT[1][1] = fnd_tbl[digit_3];						// ZigBee PanID   100└╟ └┌╕о ╟е╜├
	DIGIT[1][0] = fnd_tbl[digit_2];						// ZigBee PanID    10└╟ └┌╕о ╟е╜├

	DIGIT[2][3] = fnd_tbl[digit_1];						// ZigBee PanID     1└╟ └┌╕о ╟е╜├

	while(SET.Menu)								// ╕▐┤║╕Ё╡х └╠╕щ ╣▌║╣
    643a:	f8 01       	movw	r30, r16
    643c:	80 81       	ld	r24, Z
    643e:	81 11       	cpse	r24, r1
    6440:	ac ce       	rjmp	.-680    	; 0x619a <ZigBee_PanID_Write+0x1b8>
	ZB_id = 0;								// ZigBee Pan_id ├╩▒т╚н
	ZB_id += (digit_5 * 10000);						// ZigBee Pan_id 10000└╟ └┌╕о
	ZB_id += (digit_4 * 1000);						// ZigBee Pan_id  1000└╟ └┌╕о
	ZB_id += (digit_3 * 100);						// ZigBee Pan_id   100└╟ └┌╕о
	ZB_id += (digit_2 * 10);						// ZigBee Pan_id    10└╟ └┌╕о
	ZB_id += (digit_1 * 1);							// ZigBee Pan_id     1└╟ └┌╕о
    6442:	80 e1       	ldi	r24, 0x10	; 16
    6444:	97 e2       	ldi	r25, 0x27	; 39
    6446:	e8 9e       	mul	r14, r24
    6448:	a0 01       	movw	r20, r0
    644a:	e9 9e       	mul	r14, r25
    644c:	50 0d       	add	r21, r0
    644e:	11 24       	eor	r1, r1
    6450:	28 ee       	ldi	r18, 0xE8	; 232
    6452:	33 e0       	ldi	r19, 0x03	; 3
    6454:	b2 9e       	mul	r11, r18
    6456:	c0 01       	movw	r24, r0
    6458:	b3 9e       	mul	r11, r19
    645a:	90 0d       	add	r25, r0
    645c:	11 24       	eor	r1, r1
    645e:	84 0f       	add	r24, r20
    6460:	95 1f       	adc	r25, r21
    6462:	89 0d       	add	r24, r9
    6464:	91 1d       	adc	r25, r1
    6466:	ac 01       	movw	r20, r24
    6468:	f4 e6       	ldi	r31, 0x64	; 100
    646a:	af 9e       	mul	r10, r31
    646c:	40 0d       	add	r20, r0
    646e:	51 1d       	adc	r21, r1
    6470:	11 24       	eor	r1, r1
    6472:	2f 2d       	mov	r18, r15
    6474:	30 e0       	ldi	r19, 0x00	; 0
    6476:	c9 01       	movw	r24, r18
    6478:	88 0f       	add	r24, r24
    647a:	99 1f       	adc	r25, r25
    647c:	22 0f       	add	r18, r18
    647e:	33 1f       	adc	r19, r19
    6480:	22 0f       	add	r18, r18
    6482:	33 1f       	adc	r19, r19
    6484:	22 0f       	add	r18, r18
    6486:	33 1f       	adc	r19, r19
    6488:	28 0f       	add	r18, r24
    648a:	39 1f       	adc	r19, r25
    648c:	ca 01       	movw	r24, r20
    648e:	82 0f       	add	r24, r18
    6490:	93 1f       	adc	r25, r19
    6492:	80 93 5d 51 	sts	0x515D, r24	; 0x80515d <ZB_id>
    6496:	90 93 5e 51 	sts	0x515E, r25	; 0x80515e <ZB_id+0x1>

	Pan_id_1000 = (ZB_id / 4096);						// ZigBee Pan_id HEX Code 2Byte ╗ґ└з
    649a:	29 2f       	mov	r18, r25
    649c:	22 95       	swap	r18
    649e:	2f 70       	andi	r18, 0x0F	; 15
    64a0:	20 93 48 51 	sts	0x5148, r18	; 0x805148 <Pan_id_1000>
    64a4:	10 92 49 51 	sts	0x5149, r1	; 0x805149 <Pan_id_1000+0x1>
	Pan_id_100  = (ZB_id % 4096 / 256);					// ZigBee Pan_id HEX Code 2Byte ╟╧└з
    64a8:	9c 01       	movw	r18, r24
    64aa:	3f 70       	andi	r19, 0x0F	; 15
    64ac:	30 93 ab 41 	sts	0x41AB, r19	; 0x8041ab <Pan_id_100>
    64b0:	10 92 ac 41 	sts	0x41AC, r1	; 0x8041ac <Pan_id_100+0x1>
	Pan_id_10   = (ZB_id % 4096 % 256 / 16);				// ZigBee Pan_id HEX Code 1Byte ╗ґ└з
    64b4:	9c 01       	movw	r18, r24
    64b6:	33 27       	eor	r19, r19
    64b8:	32 95       	swap	r19
    64ba:	22 95       	swap	r18
    64bc:	2f 70       	andi	r18, 0x0F	; 15
    64be:	23 27       	eor	r18, r19
    64c0:	3f 70       	andi	r19, 0x0F	; 15
    64c2:	23 27       	eor	r18, r19
    64c4:	20 93 0c 51 	sts	0x510C, r18	; 0x80510c <Pan_id_10>
    64c8:	30 93 0d 51 	sts	0x510D, r19	; 0x80510d <Pan_id_10+0x1>
	Pan_id_1    = (ZB_id % 4096 % 256 % 16);				// ZigBee Pan_id HEX Code 1Byte ╟╧└з
    64cc:	8f 70       	andi	r24, 0x0F	; 15
    64ce:	99 27       	eor	r25, r25
    64d0:	80 93 ec 50 	sts	0x50EC, r24	; 0x8050ec <Pan_id_1>
    64d4:	90 93 ed 50 	sts	0x50ED, r25	; 0x8050ed <Pan_id_1+0x1>

	ZigBee_Write_id();							// ZigBee PanID └·└х
    64d8:	0e 94 01 2f 	call	0x5e02	; 0x5e02 <ZigBee_Write_id>

	SET.Menu = 1;								// Menu ╕Ё╡х └п┴І
    64dc:	ee e0       	ldi	r30, 0x0E	; 14
    64de:	f1 e5       	ldi	r31, 0x51	; 81
    64e0:	81 e0       	ldi	r24, 0x01	; 1
    64e2:	80 83       	st	Z, r24
	SET.Select = 0;								// Select ╣І╞░ ├╩▒т╚н
    64e4:	11 82       	std	Z+1, r1	; 0x01
	SET.Blink = 0;								// └┌╕┤╝І ▒Є╣┌└╙ ├╩▒т╚н
    64e6:	13 82       	std	Z+3, r1	; 0x03
	KEY.Count = 0;								// ╝▒┼├ Key ░б ┤н╕░╚╜╝І ├╩▒т╚н
    64e8:	10 92 4b 51 	sts	0x514B, r1	; 0x80514b <KEY>
}
    64ec:	df 91       	pop	r29
    64ee:	cf 91       	pop	r28
    64f0:	1f 91       	pop	r17
    64f2:	0f 91       	pop	r16
    64f4:	ff 90       	pop	r15
    64f6:	ef 90       	pop	r14
    64f8:	df 90       	pop	r13
    64fa:	cf 90       	pop	r12
    64fc:	bf 90       	pop	r11
    64fe:	af 90       	pop	r10
    6500:	9f 90       	pop	r9
    6502:	8f 90       	pop	r8
    6504:	7f 90       	pop	r7
    6506:	6f 90       	pop	r6
    6508:	08 95       	ret

0000650a <ZigBee_Write_ch>:

//=================================================================================================
void ZigBee_Write_ch(void)							// ZigBee ├д│╬ └·└х
{
    650a:	0f 93       	push	r16
    650c:	1f 93       	push	r17
    650e:	cf 93       	push	r28
	uint8_t zbch_wite = 0;							// zbch_wite ║п╝І ├╩▒т╚н
    6510:	c0 e0       	ldi	r28, 0x00	; 0
    6512:	05 e7       	ldi	r16, 0x75	; 117
    6514:	12 e5       	ldi	r17, 0x52	; 82

	do{
		switch(zbch_wite)						// zbch_wite
    6516:	c1 30       	cpi	r28, 0x01	; 1
    6518:	a1 f0       	breq	.+40     	; 0x6542 <ZigBee_Write_ch+0x38>
    651a:	28 f0       	brcs	.+10     	; 0x6526 <ZigBee_Write_ch+0x1c>
    651c:	c2 30       	cpi	r28, 0x02	; 2
    651e:	d1 f1       	breq	.+116    	; 0x6594 <ZigBee_Write_ch+0x8a>
    6520:	c3 30       	cpi	r28, 0x03	; 3
    6522:	e9 f1       	breq	.+122    	; 0x659e <ZigBee_Write_ch+0x94>
    6524:	40 c0       	rjmp	.+128    	; 0x65a6 <ZigBee_Write_ch+0x9c>
		{
			case 0:							// zbch_wite = 0 └╠╕щ
				USART3_SendString("+++");			// USART3 ┐б +++ └№╝█
    6526:	80 e5       	ldi	r24, 0x50	; 80
    6528:	91 e4       	ldi	r25, 0x41	; 65
    652a:	0e 94 cd 2e 	call	0x5d9a	; 0x5d9a <USART3_SendString>
    652e:	2f ef       	ldi	r18, 0xFF	; 255
    6530:	8f ef       	ldi	r24, 0xFF	; 255
    6532:	9c e2       	ldi	r25, 0x2C	; 44
    6534:	21 50       	subi	r18, 0x01	; 1
    6536:	80 40       	sbci	r24, 0x00	; 0
    6538:	90 40       	sbci	r25, 0x00	; 0
    653a:	e1 f7       	brne	.-8      	; 0x6534 <ZigBee_Write_ch+0x2a>
    653c:	00 c0       	rjmp	.+0      	; 0x653e <ZigBee_Write_ch+0x34>
    653e:	00 00       	nop
    6540:	32 c0       	rjmp	.+100    	; 0x65a6 <ZigBee_Write_ch+0x9c>
				_delay_ms(1000);				// ZigBee ├╓├╩ ┤ф║п ╜├░г 1├╩ Delay
			break;

			case 1:							// zbch_wite = 1 └╠╕щ
				USART3_SendString("ATCH");			// USART3 ┐б ATCH └№╝█
    6542:	85 e6       	ldi	r24, 0x65	; 101
    6544:	91 e4       	ldi	r25, 0x41	; 65
    6546:	0e 94 cd 2e 	call	0x5d9a	; 0x5d9a <USART3_SendString>
				USART3_Write(CH[ZB_ch] / 256);			// USART3 ┐б ├д│╬ 1Byte ╗ґ└з └№╝█
    654a:	e0 91 eb 50 	lds	r30, 0x50EB	; 0x8050eb <ZB_ch>
    654e:	f0 e0       	ldi	r31, 0x00	; 0
    6550:	ee 0f       	add	r30, r30
    6552:	ff 1f       	adc	r31, r31
    6554:	e6 5d       	subi	r30, 0xD6	; 214
    6556:	ff 4b       	sbci	r31, 0xBF	; 191
    6558:	80 81       	ld	r24, Z
    655a:	91 81       	ldd	r25, Z+1	; 0x01
    655c:	99 23       	and	r25, r25
    655e:	14 f4       	brge	.+4      	; 0x6564 <ZigBee_Write_ch+0x5a>
    6560:	81 50       	subi	r24, 0x01	; 1
    6562:	9f 4f       	sbci	r25, 0xFF	; 255
    6564:	89 2f       	mov	r24, r25
    6566:	0e 94 c3 2e 	call	0x5d86	; 0x5d86 <USART3_Write>
				USART3_Write(CH[ZB_ch] % 256);			// USART3 ┐б ├д│╬ 1Byte ╟╧└з └№╝█
    656a:	e0 91 eb 50 	lds	r30, 0x50EB	; 0x8050eb <ZB_ch>
    656e:	f0 e0       	ldi	r31, 0x00	; 0
    6570:	ee 0f       	add	r30, r30
    6572:	ff 1f       	adc	r31, r31
    6574:	e6 5d       	subi	r30, 0xD6	; 214
    6576:	ff 4b       	sbci	r31, 0xBF	; 191
    6578:	80 81       	ld	r24, Z
    657a:	91 81       	ldd	r25, Z+1	; 0x01
    657c:	90 78       	andi	r25, 0x80	; 128
    657e:	99 23       	and	r25, r25
    6580:	1c f4       	brge	.+6      	; 0x6588 <ZigBee_Write_ch+0x7e>
    6582:	01 97       	sbiw	r24, 0x01	; 1
    6584:	9f 6f       	ori	r25, 0xFF	; 255
    6586:	01 96       	adiw	r24, 0x01	; 1
    6588:	0e 94 c3 2e 	call	0x5d86	; 0x5d86 <USART3_Write>
				USART3_Write('\r');				// USART3 ┐б \r
    658c:	8d e0       	ldi	r24, 0x0D	; 13
    658e:	0e 94 c3 2e 	call	0x5d86	; 0x5d86 <USART3_Write>
			break;
    6592:	09 c0       	rjmp	.+18     	; 0x65a6 <ZigBee_Write_ch+0x9c>

			case 2:							// zbch_wite = 2 └╠╕щ
				USART3_SendString("ATWR\r");			// USART3 ┐б ATWR\r └№╝█
    6594:	89 e5       	ldi	r24, 0x59	; 89
    6596:	91 e4       	ldi	r25, 0x41	; 65
    6598:	0e 94 cd 2e 	call	0x5d9a	; 0x5d9a <USART3_SendString>
			break;
    659c:	04 c0       	rjmp	.+8      	; 0x65a6 <ZigBee_Write_ch+0x9c>

			case 3:							// zbch_wite = 3 └╠╕щ
				USART3_SendString("ATCN\r");			// USART3 ┐б ATCN\r └№╝█
    659e:	8f e5       	ldi	r24, 0x5F	; 95
    65a0:	91 e4       	ldi	r25, 0x41	; 65
    65a2:	0e 94 cd 2e 	call	0x5d9a	; 0x5d9a <USART3_SendString>
    65a6:	ed e7       	ldi	r30, 0x7D	; 125
    65a8:	f1 e5       	ldi	r31, 0x51	; 81
			break;
		}
//-------------------------------------------------------------------------------------------------
		for(uint8_t cnt = 0; cnt < RX3_SIZE - 2; cnt++)			// RX3_SIZE ╕╕┼н ╣▌║╣
		{
			if(zbch_wite == 0 && Rx3_Buff[cnt] == 'O' && Rx3_Buff[cnt + 1] == 'K' && Rx3_Buff[cnt + 2] == 0x0d)
    65aa:	c1 11       	cpse	r28, r1
    65ac:	1d c0       	rjmp	.+58     	; 0x65e8 <ZigBee_Write_ch+0xde>
    65ae:	80 81       	ld	r24, Z
    65b0:	8f 34       	cpi	r24, 0x4F	; 79
    65b2:	09 f0       	breq	.+2      	; 0x65b6 <ZigBee_Write_ch+0xac>
    65b4:	71 c0       	rjmp	.+226    	; 0x6698 <ZigBee_Write_ch+0x18e>
    65b6:	81 81       	ldd	r24, Z+1	; 0x01
    65b8:	8b 34       	cpi	r24, 0x4B	; 75
    65ba:	09 f0       	breq	.+2      	; 0x65be <ZigBee_Write_ch+0xb4>
    65bc:	6d c0       	rjmp	.+218    	; 0x6698 <ZigBee_Write_ch+0x18e>
    65be:	82 81       	ldd	r24, Z+2	; 0x02
    65c0:	8d 30       	cpi	r24, 0x0D	; 13
    65c2:	09 f0       	breq	.+2      	; 0x65c6 <ZigBee_Write_ch+0xbc>
    65c4:	69 c0       	rjmp	.+210    	; 0x6698 <ZigBee_Write_ch+0x18e>
			{							// 0+OK+CR
				zbch_wite = 1;					// ┤ф║п ╚о└╬ ╚─ ┤┘└╜└╕╖╬ ┴є░б
				Beep(3);
    65c6:	83 e0       	ldi	r24, 0x03	; 3
    65c8:	90 e0       	ldi	r25, 0x00	; 0
    65ca:	0e 94 42 04 	call	0x884	; 0x884 <Beep>
    65ce:	2f ef       	ldi	r18, 0xFF	; 255
    65d0:	8f e3       	ldi	r24, 0x3F	; 63
    65d2:	92 e0       	ldi	r25, 0x02	; 2
    65d4:	21 50       	subi	r18, 0x01	; 1
    65d6:	80 40       	sbci	r24, 0x00	; 0
    65d8:	90 40       	sbci	r25, 0x00	; 0
    65da:	e1 f7       	brne	.-8      	; 0x65d4 <ZigBee_Write_ch+0xca>
    65dc:	00 c0       	rjmp	.+0      	; 0x65de <ZigBee_Write_ch+0xd4>
    65de:	00 00       	nop
				_delay_ms(50);					// ZigBee ├│╕о ╜├░г ╚─
				Rx3_Buff_Clear();				// Rx3 Buff Clear
    65e0:	0e 94 ef 2e 	call	0x5dde	; 0x5dde <Rx3_Buff_Clear>
//-------------------------------------------------------------------------------------------------
		for(uint8_t cnt = 0; cnt < RX3_SIZE - 2; cnt++)			// RX3_SIZE ╕╕┼н ╣▌║╣
		{
			if(zbch_wite == 0 && Rx3_Buff[cnt] == 'O' && Rx3_Buff[cnt + 1] == 'K' && Rx3_Buff[cnt + 2] == 0x0d)
			{							// 0+OK+CR
				zbch_wite = 1;					// ┤ф║п ╚о└╬ ╚─ ┤┘└╜└╕╖╬ ┴є░б
    65e4:	c1 e0       	ldi	r28, 0x01	; 1
				Beep(3);
				_delay_ms(50);					// ZigBee ├│╕о ╜├░г ╚─
				Rx3_Buff_Clear();				// Rx3 Buff Clear
				break;
    65e6:	60 c0       	rjmp	.+192    	; 0x66a8 <ZigBee_Write_ch+0x19e>
			}

			if(zbch_wite == 1 && Rx3_Buff[cnt] == 'O' && Rx3_Buff[cnt + 1] == 'K' && Rx3_Buff[cnt + 2] == 0x0d)
    65e8:	c1 30       	cpi	r28, 0x01	; 1
    65ea:	e9 f4       	brne	.+58     	; 0x6626 <ZigBee_Write_ch+0x11c>
    65ec:	80 81       	ld	r24, Z
    65ee:	8f 34       	cpi	r24, 0x4F	; 79
    65f0:	09 f0       	breq	.+2      	; 0x65f4 <ZigBee_Write_ch+0xea>
    65f2:	52 c0       	rjmp	.+164    	; 0x6698 <ZigBee_Write_ch+0x18e>
    65f4:	81 81       	ldd	r24, Z+1	; 0x01
    65f6:	8b 34       	cpi	r24, 0x4B	; 75
    65f8:	09 f0       	breq	.+2      	; 0x65fc <ZigBee_Write_ch+0xf2>
    65fa:	4e c0       	rjmp	.+156    	; 0x6698 <ZigBee_Write_ch+0x18e>
    65fc:	82 81       	ldd	r24, Z+2	; 0x02
    65fe:	8d 30       	cpi	r24, 0x0D	; 13
    6600:	09 f0       	breq	.+2      	; 0x6604 <ZigBee_Write_ch+0xfa>
    6602:	4a c0       	rjmp	.+148    	; 0x6698 <ZigBee_Write_ch+0x18e>
			{							// 1+OK+CR
				zbch_wite = 2;					// ┤ф║п ╚о└╬ ╚─ ┤┘└╜└╕╖╬ ┴є░б
				Beep(3);
    6604:	83 e0       	ldi	r24, 0x03	; 3
    6606:	90 e0       	ldi	r25, 0x00	; 0
    6608:	0e 94 42 04 	call	0x884	; 0x884 <Beep>
    660c:	2f ef       	ldi	r18, 0xFF	; 255
    660e:	8f e3       	ldi	r24, 0x3F	; 63
    6610:	92 e0       	ldi	r25, 0x02	; 2
    6612:	21 50       	subi	r18, 0x01	; 1
    6614:	80 40       	sbci	r24, 0x00	; 0
    6616:	90 40       	sbci	r25, 0x00	; 0
    6618:	e1 f7       	brne	.-8      	; 0x6612 <ZigBee_Write_ch+0x108>
    661a:	00 c0       	rjmp	.+0      	; 0x661c <ZigBee_Write_ch+0x112>
    661c:	00 00       	nop
				_delay_ms(50);					// ZigBee ├│╕о ╜├░г ╚─
				Rx3_Buff_Clear();				// Rx3 Buff Clear
    661e:	0e 94 ef 2e 	call	0x5dde	; 0x5dde <Rx3_Buff_Clear>
				break;
			}

			if(zbch_wite == 1 && Rx3_Buff[cnt] == 'O' && Rx3_Buff[cnt + 1] == 'K' && Rx3_Buff[cnt + 2] == 0x0d)
			{							// 1+OK+CR
				zbch_wite = 2;					// ┤ф║п ╚о└╬ ╚─ ┤┘└╜└╕╖╬ ┴є░б
    6622:	c2 e0       	ldi	r28, 0x02	; 2
				Beep(3);
				_delay_ms(50);					// ZigBee ├│╕о ╜├░г ╚─
				Rx3_Buff_Clear();				// Rx3 Buff Clear
				break;
    6624:	41 c0       	rjmp	.+130    	; 0x66a8 <ZigBee_Write_ch+0x19e>
			}

			if(zbch_wite == 2 && Rx3_Buff[cnt] == 'O' && Rx3_Buff[cnt + 1] == 'K' && Rx3_Buff[cnt + 2] == 0x0d)
    6626:	c2 30       	cpi	r28, 0x02	; 2
    6628:	d1 f4       	brne	.+52     	; 0x665e <ZigBee_Write_ch+0x154>
    662a:	80 81       	ld	r24, Z
    662c:	8f 34       	cpi	r24, 0x4F	; 79
    662e:	a1 f5       	brne	.+104    	; 0x6698 <ZigBee_Write_ch+0x18e>
    6630:	81 81       	ldd	r24, Z+1	; 0x01
    6632:	8b 34       	cpi	r24, 0x4B	; 75
    6634:	89 f5       	brne	.+98     	; 0x6698 <ZigBee_Write_ch+0x18e>
    6636:	82 81       	ldd	r24, Z+2	; 0x02
    6638:	8d 30       	cpi	r24, 0x0D	; 13
    663a:	71 f5       	brne	.+92     	; 0x6698 <ZigBee_Write_ch+0x18e>
			{							// 2+OK+CR
				zbch_wite = 3;					// ┤ф║п ╚о└╬ ╚─ ┤┘└╜└╕╖╬ ┴є░б
				Beep(3);
    663c:	83 e0       	ldi	r24, 0x03	; 3
    663e:	90 e0       	ldi	r25, 0x00	; 0
    6640:	0e 94 42 04 	call	0x884	; 0x884 <Beep>
    6644:	2f ef       	ldi	r18, 0xFF	; 255
    6646:	8f e3       	ldi	r24, 0x3F	; 63
    6648:	92 e0       	ldi	r25, 0x02	; 2
    664a:	21 50       	subi	r18, 0x01	; 1
    664c:	80 40       	sbci	r24, 0x00	; 0
    664e:	90 40       	sbci	r25, 0x00	; 0
    6650:	e1 f7       	brne	.-8      	; 0x664a <ZigBee_Write_ch+0x140>
    6652:	00 c0       	rjmp	.+0      	; 0x6654 <ZigBee_Write_ch+0x14a>
    6654:	00 00       	nop
				_delay_ms(50);					// ZigBee ├│╕о ╜├░г ╚─
				Rx3_Buff_Clear();				// Rx3 Buff Clear
    6656:	0e 94 ef 2e 	call	0x5dde	; 0x5dde <Rx3_Buff_Clear>
				break;
			}

			if(zbch_wite == 2 && Rx3_Buff[cnt] == 'O' && Rx3_Buff[cnt + 1] == 'K' && Rx3_Buff[cnt + 2] == 0x0d)
			{							// 2+OK+CR
				zbch_wite = 3;					// ┤ф║п ╚о└╬ ╚─ ┤┘└╜└╕╖╬ ┴є░б
    665a:	c3 e0       	ldi	r28, 0x03	; 3
				Beep(3);
				_delay_ms(50);					// ZigBee ├│╕о ╜├░г ╚─
				Rx3_Buff_Clear();				// Rx3 Buff Clear
				break;
    665c:	25 c0       	rjmp	.+74     	; 0x66a8 <ZigBee_Write_ch+0x19e>
			}

			if(zbch_wite == 3 && Rx3_Buff[cnt] == 'O' && Rx3_Buff[cnt + 1] == 'K' && Rx3_Buff[cnt + 2] == 0x0d)
    665e:	c3 30       	cpi	r28, 0x03	; 3
    6660:	d9 f4       	brne	.+54     	; 0x6698 <ZigBee_Write_ch+0x18e>
    6662:	80 81       	ld	r24, Z
    6664:	8f 34       	cpi	r24, 0x4F	; 79
    6666:	c1 f4       	brne	.+48     	; 0x6698 <ZigBee_Write_ch+0x18e>
    6668:	81 81       	ldd	r24, Z+1	; 0x01
    666a:	8b 34       	cpi	r24, 0x4B	; 75
    666c:	a9 f4       	brne	.+42     	; 0x6698 <ZigBee_Write_ch+0x18e>
    666e:	82 81       	ldd	r24, Z+2	; 0x02
    6670:	8d 30       	cpi	r24, 0x0D	; 13
    6672:	91 f4       	brne	.+36     	; 0x6698 <ZigBee_Write_ch+0x18e>
			{							// 3+OK+CR
				zbch_wite = 5;					// ┤ф║п ╚о└╬ ╚─ While()╣о ┴╛╖с
				Beep(3);
    6674:	83 e0       	ldi	r24, 0x03	; 3
    6676:	90 e0       	ldi	r25, 0x00	; 0
    6678:	0e 94 42 04 	call	0x884	; 0x884 <Beep>
    667c:	2f ef       	ldi	r18, 0xFF	; 255
    667e:	8f e3       	ldi	r24, 0x3F	; 63
    6680:	92 e0       	ldi	r25, 0x02	; 2
    6682:	21 50       	subi	r18, 0x01	; 1
    6684:	80 40       	sbci	r24, 0x00	; 0
    6686:	90 40       	sbci	r25, 0x00	; 0
    6688:	e1 f7       	brne	.-8      	; 0x6682 <ZigBee_Write_ch+0x178>
    668a:	00 c0       	rjmp	.+0      	; 0x668c <ZigBee_Write_ch+0x182>
    668c:	00 00       	nop
				_delay_ms(50);					// ZigBee ├│╕о ╜├░г ╚─
				Rx3_Buff_Clear();				// Rx3 Buff Clear
    668e:	0e 94 ef 2e 	call	0x5dde	; 0x5dde <Rx3_Buff_Clear>
				break;
			}
		}
		wdt_reset();							// ┐І─б╡╢ ╕о╝┬
    6692:	0e 94 18 14 	call	0x2830	; 0x2830 <wdt_reset>
	}while(zbch_wite != 5);							// zbch_wite ░б 5 └╧╢з ▒ю┴І ╣▌║╣
}
    6696:	0b c0       	rjmp	.+22     	; 0x66ae <ZigBee_Write_ch+0x1a4>
    6698:	31 96       	adiw	r30, 0x01	; 1
			case 3:							// zbch_wite = 3 └╠╕щ
				USART3_SendString("ATCN\r");			// USART3 ┐б ATCN\r └№╝█
			break;
		}
//-------------------------------------------------------------------------------------------------
		for(uint8_t cnt = 0; cnt < RX3_SIZE - 2; cnt++)			// RX3_SIZE ╕╕┼н ╣▌║╣
    669a:	e0 17       	cp	r30, r16
    669c:	f1 07       	cpc	r31, r17
    669e:	09 f0       	breq	.+2      	; 0x66a2 <ZigBee_Write_ch+0x198>
    66a0:	84 cf       	rjmp	.-248    	; 0x65aa <ZigBee_Write_ch+0xa0>
				_delay_ms(50);					// ZigBee ├│╕о ╜├░г ╚─
				Rx3_Buff_Clear();				// Rx3 Buff Clear
				break;
			}
		}
		wdt_reset();							// ┐І─б╡╢ ╕о╝┬
    66a2:	0e 94 18 14 	call	0x2830	; 0x2830 <wdt_reset>
    66a6:	37 cf       	rjmp	.-402    	; 0x6516 <ZigBee_Write_ch+0xc>
    66a8:	0e 94 18 14 	call	0x2830	; 0x2830 <wdt_reset>
    66ac:	34 cf       	rjmp	.-408    	; 0x6516 <ZigBee_Write_ch+0xc>
	}while(zbch_wite != 5);							// zbch_wite ░б 5 └╧╢з ▒ю┴І ╣▌║╣
}
    66ae:	cf 91       	pop	r28
    66b0:	1f 91       	pop	r17
    66b2:	0f 91       	pop	r16
    66b4:	08 95       	ret

000066b6 <ZigBee_Channel_Write>:

//=================================================================================================
void ZigBee_Channel_Write(void)							// ZigBee ├д│╬ ╝│┴д
{
    66b6:	df 92       	push	r13
    66b8:	ef 92       	push	r14
    66ba:	ff 92       	push	r15
    66bc:	0f 93       	push	r16
    66be:	1f 93       	push	r17
    66c0:	cf 93       	push	r28
    66c2:	df 93       	push	r29
	FND_Value_Data(2, 2, 12);						// FND 0 ~ 2 FND_OFF
    66c4:	4c e0       	ldi	r20, 0x0C	; 12
    66c6:	62 e0       	ldi	r22, 0x02	; 2
    66c8:	82 e0       	ldi	r24, 0x02	; 2
    66ca:	0e 94 d3 05 	call	0xba6	; 0xba6 <FND_Value_Data>

	while(SET.Select && SET.Menu)						// ╕▐┤║ ┐═ ╝▒┼├ └╠ ╕Ё╡╬ 1 └╠╕щ ╣▌║╣
    66ce:	80 91 0f 51 	lds	r24, 0x510F	; 0x80510f <SET+0x1>
    66d2:	88 23       	and	r24, r24
    66d4:	09 f4       	brne	.+2      	; 0x66d8 <ZigBee_Channel_Write+0x22>
    66d6:	4e c0       	rjmp	.+156    	; 0x6774 <ZigBee_Channel_Write+0xbe>
    66d8:	80 91 0e 51 	lds	r24, 0x510E	; 0x80510e <SET>
    66dc:	88 23       	and	r24, r24
    66de:	09 f4       	brne	.+2      	; 0x66e2 <ZigBee_Channel_Write+0x2c>
    66e0:	49 c0       	rjmp	.+146    	; 0x6774 <ZigBee_Channel_Write+0xbe>
	{
		DIGIT[1][1] = fnd_tbl[ZB_ch / 10];				// FND 2 ┐б ┴І▒╫║ё ├╝│╬ ╟е╜├
    66e2:	09 e7       	ldi	r16, 0x79	; 121
    66e4:	11 e4       	ldi	r17, 0x41	; 65
    66e6:	0f 2e       	mov	r0, r31
    66e8:	fd ec       	ldi	r31, 0xCD	; 205
    66ea:	df 2e       	mov	r13, r31
    66ec:	f0 2d       	mov	r31, r0
		DIGIT[1][0] = fnd_tbl[ZB_ch % 10];

		if(KEY.Buff)							// Key └╘╖┬└╠ └╓└╕╕щ
    66ee:	cb e4       	ldi	r28, 0x4B	; 75
    66f0:	d1 e5       	ldi	r29, 0x51	; 81
//=================================================================================================
void ZigBee_Channel_Write(void)							// ZigBee ├д│╬ ╝│┴д
{
	FND_Value_Data(2, 2, 12);						// FND 0 ~ 2 FND_OFF

	while(SET.Select && SET.Menu)						// ╕▐┤║ ┐═ ╝▒┼├ └╠ ╕Ё╡╬ 1 └╠╕щ ╣▌║╣
    66f2:	0f 2e       	mov	r0, r31
    66f4:	fe e0       	ldi	r31, 0x0E	; 14
    66f6:	ef 2e       	mov	r14, r31
    66f8:	f1 e5       	ldi	r31, 0x51	; 81
    66fa:	ff 2e       	mov	r15, r31
    66fc:	f0 2d       	mov	r31, r0
	{
		DIGIT[1][1] = fnd_tbl[ZB_ch / 10];				// FND 2 ┐б ┴І▒╫║ё ├╝│╬ ╟е╜├
    66fe:	20 91 eb 50 	lds	r18, 0x50EB	; 0x8050eb <ZB_ch>
    6702:	2d 9d       	mul	r18, r13
    6704:	81 2d       	mov	r24, r1
    6706:	11 24       	eor	r1, r1
    6708:	86 95       	lsr	r24
    670a:	86 95       	lsr	r24
    670c:	86 95       	lsr	r24
    670e:	e8 2f       	mov	r30, r24
    6710:	f0 e0       	ldi	r31, 0x00	; 0
    6712:	ed 5b       	subi	r30, 0xBD	; 189
    6714:	fe 4b       	sbci	r31, 0xBE	; 190
    6716:	90 81       	ld	r25, Z
    6718:	f8 01       	movw	r30, r16
    671a:	95 83       	std	Z+5, r25	; 0x05
		DIGIT[1][0] = fnd_tbl[ZB_ch % 10];
    671c:	88 0f       	add	r24, r24
    671e:	98 2f       	mov	r25, r24
    6720:	99 0f       	add	r25, r25
    6722:	99 0f       	add	r25, r25
    6724:	89 0f       	add	r24, r25
    6726:	e2 2f       	mov	r30, r18
    6728:	e8 1b       	sub	r30, r24
    672a:	f0 e0       	ldi	r31, 0x00	; 0
    672c:	ed 5b       	subi	r30, 0xBD	; 189
    672e:	fe 4b       	sbci	r31, 0xBE	; 190
    6730:	80 81       	ld	r24, Z
    6732:	f8 01       	movw	r30, r16
    6734:	84 83       	std	Z+4, r24	; 0x04

		if(KEY.Buff)							// Key └╘╖┬└╠ └╓└╕╕щ
    6736:	89 81       	ldd	r24, Y+1	; 0x01
    6738:	88 23       	and	r24, r24
    673a:	99 f0       	breq	.+38     	; 0x6762 <ZigBee_Channel_Write+0xac>
		{
			if     (KEY.Key == 1 && ZB_ch < 14) {ZB_ch++; KEY.Key = 0;}				// ╛і  ╣І╞░ └╠╕щ ZigBee ├д│╬ 14▒ю┴І ┴є░б
    673c:	8a 81       	ldd	r24, Y+2	; 0x02
    673e:	81 30       	cpi	r24, 0x01	; 1
    6740:	39 f4       	brne	.+14     	; 0x6750 <ZigBee_Channel_Write+0x9a>
    6742:	2e 30       	cpi	r18, 0x0E	; 14
    6744:	28 f4       	brcc	.+10     	; 0x6750 <ZigBee_Channel_Write+0x9a>
    6746:	2f 5f       	subi	r18, 0xFF	; 255
    6748:	20 93 eb 50 	sts	0x50EB, r18	; 0x8050eb <ZB_ch>
    674c:	1a 82       	std	Y+2, r1	; 0x02
    674e:	09 c0       	rjmp	.+18     	; 0x6762 <ZigBee_Channel_Write+0xac>
			else if(KEY.Key == 3 && ZB_ch > 0)  {ZB_ch--; KEY.Key = 0;}				// ┤┘┐ю╣І╞░ └╠╕щ ZigBee ├д│╬  0▒ю┴І ░и╝╥
    6750:	8a 81       	ldd	r24, Y+2	; 0x02
    6752:	83 30       	cpi	r24, 0x03	; 3
    6754:	31 f4       	brne	.+12     	; 0x6762 <ZigBee_Channel_Write+0xac>
    6756:	22 23       	and	r18, r18
    6758:	21 f0       	breq	.+8      	; 0x6762 <ZigBee_Channel_Write+0xac>
    675a:	21 50       	subi	r18, 0x01	; 1
    675c:	20 93 eb 50 	sts	0x50EB, r18	; 0x8050eb <ZB_ch>
    6760:	1a 82       	std	Y+2, r1	; 0x02
		}
		wdt_reset();							// ┐І─б╡╢ ╕о╝┬
    6762:	0e 94 18 14 	call	0x2830	; 0x2830 <wdt_reset>
//=================================================================================================
void ZigBee_Channel_Write(void)							// ZigBee ├д│╬ ╝│┴д
{
	FND_Value_Data(2, 2, 12);						// FND 0 ~ 2 FND_OFF

	while(SET.Select && SET.Menu)						// ╕▐┤║ ┐═ ╝▒┼├ └╠ ╕Ё╡╬ 1 └╠╕щ ╣▌║╣
    6766:	f7 01       	movw	r30, r14
    6768:	81 81       	ldd	r24, Z+1	; 0x01
    676a:	88 23       	and	r24, r24
    676c:	19 f0       	breq	.+6      	; 0x6774 <ZigBee_Channel_Write+0xbe>
    676e:	80 81       	ld	r24, Z
    6770:	81 11       	cpse	r24, r1
    6772:	c5 cf       	rjmp	.-118    	; 0x66fe <ZigBee_Channel_Write+0x48>
			if     (KEY.Key == 1 && ZB_ch < 14) {ZB_ch++; KEY.Key = 0;}				// ╛і  ╣І╞░ └╠╕щ ZigBee ├д│╬ 14▒ю┴І ┴є░б
			else if(KEY.Key == 3 && ZB_ch > 0)  {ZB_ch--; KEY.Key = 0;}				// ┤┘┐ю╣І╞░ └╠╕щ ZigBee ├д│╬  0▒ю┴І ░и╝╥
		}
		wdt_reset();							// ┐І─б╡╢ ╕о╝┬
	}
	ZigBee_Write_ch();							// ZigBee ┐б ├д│╬ └·└х
    6774:	0e 94 85 32 	call	0x650a	; 0x650a <ZigBee_Write_ch>
}
    6778:	df 91       	pop	r29
    677a:	cf 91       	pop	r28
    677c:	1f 91       	pop	r17
    677e:	0f 91       	pop	r16
    6780:	ff 90       	pop	r15
    6782:	ef 90       	pop	r14
    6784:	df 90       	pop	r13
    6786:	08 95       	ret

00006788 <ZigBee_Read>:

//=================================================================================================
void ZigBee_Read(void)								// ZigBee ╝│┴д░к └╨▒т
{
    6788:	cf 93       	push	r28
	uint8_t zbch_read = 0;							// zbch_read ║п╝І ├╩▒т╚н
    678a:	c0 e0       	ldi	r28, 0x00	; 0

	do{
		switch(zbch_read)						// zbch_read
    678c:	c1 30       	cpi	r28, 0x01	; 1
    678e:	a1 f0       	breq	.+40     	; 0x67b8 <ZigBee_Read+0x30>
    6790:	28 f0       	brcs	.+10     	; 0x679c <ZigBee_Read+0x14>
    6792:	c2 30       	cpi	r28, 0x02	; 2
    6794:	b1 f0       	breq	.+44     	; 0x67c2 <ZigBee_Read+0x3a>
    6796:	c3 30       	cpi	r28, 0x03	; 3
    6798:	c9 f0       	breq	.+50     	; 0x67cc <ZigBee_Read+0x44>
    679a:	1c c0       	rjmp	.+56     	; 0x67d4 <ZigBee_Read+0x4c>
		{
			case 0:							// zbch_read = 0 └╠╕щ
				USART3_SendString("+++");			// USART3 ┐б +++ └№╝█
    679c:	80 e5       	ldi	r24, 0x50	; 80
    679e:	91 e4       	ldi	r25, 0x41	; 65
    67a0:	0e 94 cd 2e 	call	0x5d9a	; 0x5d9a <USART3_SendString>
    67a4:	2f ef       	ldi	r18, 0xFF	; 255
    67a6:	8f ef       	ldi	r24, 0xFF	; 255
    67a8:	9c e2       	ldi	r25, 0x2C	; 44
    67aa:	21 50       	subi	r18, 0x01	; 1
    67ac:	80 40       	sbci	r24, 0x00	; 0
    67ae:	90 40       	sbci	r25, 0x00	; 0
    67b0:	e1 f7       	brne	.-8      	; 0x67aa <ZigBee_Read+0x22>
    67b2:	00 c0       	rjmp	.+0      	; 0x67b4 <ZigBee_Read+0x2c>
    67b4:	00 00       	nop
    67b6:	0e c0       	rjmp	.+28     	; 0x67d4 <ZigBee_Read+0x4c>
				_delay_ms(1000);				// ZigBee ├╓├╩ ┤ф║п ╜├░г 1├╩ Delay
			break;

			case 1:							// zbch_read = 1 └╠╕щ
				USART3_SendString("ATCH\r");			// USART3 ┐б ATCH └№╝█
    67b8:	8a e6       	ldi	r24, 0x6A	; 106
    67ba:	91 e4       	ldi	r25, 0x41	; 65
    67bc:	0e 94 cd 2e 	call	0x5d9a	; 0x5d9a <USART3_SendString>
			break;
    67c0:	09 c0       	rjmp	.+18     	; 0x67d4 <ZigBee_Read+0x4c>

			case 2:							// zbch_read = 2 └╠╕щ
				USART3_SendString("ATID\r");			// USART3 ┐б ATWR └№╝█
    67c2:	80 e7       	ldi	r24, 0x70	; 112
    67c4:	91 e4       	ldi	r25, 0x41	; 65
    67c6:	0e 94 cd 2e 	call	0x5d9a	; 0x5d9a <USART3_SendString>
			break;
    67ca:	04 c0       	rjmp	.+8      	; 0x67d4 <ZigBee_Read+0x4c>

			case 3:							// zbch_read = 3 └╠╕щ
				USART3_SendString("ATCN\r");			// USART3 ┐б ATCN └№╝█
    67cc:	8f e5       	ldi	r24, 0x5F	; 95
    67ce:	91 e4       	ldi	r25, 0x41	; 65
    67d0:	0e 94 cd 2e 	call	0x5d9a	; 0x5d9a <USART3_SendString>
    67d4:	ed e7       	ldi	r30, 0x7D	; 125
    67d6:	f1 e5       	ldi	r31, 0x51	; 81
    67d8:	80 e0       	ldi	r24, 0x00	; 0
    67da:	90 e0       	ldi	r25, 0x00	; 0
			break;
		}
//-------------------------------------------------------------------------------------------------
		for(uint8_t cnt = 0; cnt < RX3_SIZE - 2; cnt++)			// RX3_SIZE ╕╕┼н ╣▌║╣
		{
			if(zbch_read == 0 && Rx3_Buff[cnt] == 'O' && Rx3_Buff[cnt + 1] == 'K' && Rx3_Buff[cnt + 2] == 0x0d)
    67dc:	c1 11       	cpse	r28, r1
    67de:	1d c0       	rjmp	.+58     	; 0x681a <ZigBee_Read+0x92>
    67e0:	20 81       	ld	r18, Z
    67e2:	2f 34       	cpi	r18, 0x4F	; 79
    67e4:	09 f0       	breq	.+2      	; 0x67e8 <ZigBee_Read+0x60>
    67e6:	01 c1       	rjmp	.+514    	; 0x69ea <ZigBee_Read+0x262>
    67e8:	21 81       	ldd	r18, Z+1	; 0x01
    67ea:	2b 34       	cpi	r18, 0x4B	; 75
    67ec:	09 f0       	breq	.+2      	; 0x67f0 <ZigBee_Read+0x68>
    67ee:	fd c0       	rjmp	.+506    	; 0x69ea <ZigBee_Read+0x262>
    67f0:	22 81       	ldd	r18, Z+2	; 0x02
    67f2:	2d 30       	cpi	r18, 0x0D	; 13
    67f4:	09 f0       	breq	.+2      	; 0x67f8 <ZigBee_Read+0x70>
    67f6:	f9 c0       	rjmp	.+498    	; 0x69ea <ZigBee_Read+0x262>
			{							// 0+OK+CR
				zbch_read = 1;					// ┤ф║п ╚о└╬ ╚─ ┤┘└╜└╕╖╬ ┴є░б
				Beep(3);
    67f8:	83 e0       	ldi	r24, 0x03	; 3
    67fa:	90 e0       	ldi	r25, 0x00	; 0
    67fc:	0e 94 42 04 	call	0x884	; 0x884 <Beep>
    6800:	2f ef       	ldi	r18, 0xFF	; 255
    6802:	8f e3       	ldi	r24, 0x3F	; 63
    6804:	92 e0       	ldi	r25, 0x02	; 2
    6806:	21 50       	subi	r18, 0x01	; 1
    6808:	80 40       	sbci	r24, 0x00	; 0
    680a:	90 40       	sbci	r25, 0x00	; 0
    680c:	e1 f7       	brne	.-8      	; 0x6806 <ZigBee_Read+0x7e>
    680e:	00 c0       	rjmp	.+0      	; 0x6810 <ZigBee_Read+0x88>
    6810:	00 00       	nop
				_delay_ms(50);					// ZigBee ├│╕о ╜├░г ╚─
				Rx3_Buff_Clear();				// Rx3 Buff Clear
    6812:	0e 94 ef 2e 	call	0x5dde	; 0x5dde <Rx3_Buff_Clear>
//-------------------------------------------------------------------------------------------------
		for(uint8_t cnt = 0; cnt < RX3_SIZE - 2; cnt++)			// RX3_SIZE ╕╕┼н ╣▌║╣
		{
			if(zbch_read == 0 && Rx3_Buff[cnt] == 'O' && Rx3_Buff[cnt + 1] == 'K' && Rx3_Buff[cnt + 2] == 0x0d)
			{							// 0+OK+CR
				zbch_read = 1;					// ┤ф║п ╚о└╬ ╚─ ┤┘└╜└╕╖╬ ┴є░б
    6816:	c1 e0       	ldi	r28, 0x01	; 1
				Beep(3);
				_delay_ms(50);					// ZigBee ├│╕о ╜├░г ╚─
				Rx3_Buff_Clear();				// Rx3 Buff Clear
				break;
    6818:	f1 c0       	rjmp	.+482    	; 0x69fc <ZigBee_Read+0x274>
			}
//-------------------------------------------------------------------------------------------------
			if(zbch_read == 1 && Rx3_Buff[cnt] == 0x0d)
    681a:	c1 30       	cpi	r28, 0x01	; 1
    681c:	09 f0       	breq	.+2      	; 0x6820 <ZigBee_Read+0x98>
    681e:	46 c0       	rjmp	.+140    	; 0x68ac <ZigBee_Read+0x124>
    6820:	ac 01       	movw	r20, r24
    6822:	30 81       	ld	r19, Z
    6824:	3d 30       	cpi	r19, 0x0D	; 13
    6826:	09 f0       	breq	.+2      	; 0x682a <ZigBee_Read+0xa2>
    6828:	e0 c0       	rjmp	.+448    	; 0x69ea <ZigBee_Read+0x262>
			{							// 1+CR
				switch(cnt)					// cnt
    682a:	81 30       	cpi	r24, 0x01	; 1
    682c:	19 f0       	breq	.+6      	; 0x6834 <ZigBee_Read+0xac>
    682e:	82 30       	cpi	r24, 0x02	; 2
    6830:	49 f0       	breq	.+18     	; 0x6844 <ZigBee_Read+0xbc>
    6832:	2b c0       	rjmp	.+86     	; 0x688a <ZigBee_Read+0x102>
				{
					case 1:					// ZigBee channel └╨╛ю┐└▒т. ╟╤└┌╕о
						ZB_ch = Rx3_Buff[cnt-1] - 0x43;	// ZigBee channel 1└╟ └┌╕о
    6834:	fa 01       	movw	r30, r20
    6836:	e4 58       	subi	r30, 0x84	; 132
    6838:	fe 4a       	sbci	r31, 0xAE	; 174
    683a:	80 81       	ld	r24, Z
    683c:	83 54       	subi	r24, 0x43	; 67
    683e:	80 93 eb 50 	sts	0x50EB, r24	; 0x8050eb <ZB_ch>
					break;
    6842:	23 c0       	rjmp	.+70     	; 0x688a <ZigBee_Read+0x102>

					case 2:					// ZigBee channel └╨╛ю┐└▒т. ╡╬└┌╕о
						if(Rx3_Buff[cnt-1] <= 0x39) {ZB_ch = (Rx3_Buff[cnt-2] - 0x30) * 10 + (Rx3_Buff[cnt -1] - 0x30) - 6;}	// HEX To DEC
    6844:	fa 01       	movw	r30, r20
    6846:	e4 58       	subi	r30, 0x84	; 132
    6848:	fe 4a       	sbci	r31, 0xAE	; 174
    684a:	80 81       	ld	r24, Z
    684c:	8a 33       	cpi	r24, 0x3A	; 58
    684e:	78 f4       	brcc	.+30     	; 0x686e <ZigBee_Read+0xe6>
    6850:	fa 01       	movw	r30, r20
    6852:	e5 58       	subi	r30, 0x85	; 133
    6854:	fe 4a       	sbci	r31, 0xAE	; 174
    6856:	90 81       	ld	r25, Z
    6858:	99 0f       	add	r25, r25
    685a:	90 56       	subi	r25, 0x60	; 96
    685c:	29 2f       	mov	r18, r25
    685e:	22 0f       	add	r18, r18
    6860:	22 0f       	add	r18, r18
    6862:	92 0f       	add	r25, r18
    6864:	86 53       	subi	r24, 0x36	; 54
    6866:	89 0f       	add	r24, r25
    6868:	80 93 eb 50 	sts	0x50EB, r24	; 0x8050eb <ZB_ch>
    686c:	0e c0       	rjmp	.+28     	; 0x688a <ZigBee_Read+0x102>
						else			    {ZB_ch = (Rx3_Buff[cnt-2] - 0x30) * 10 + (Rx3_Buff[cnt -1] - 0x37) - 6;}	// HEX To DEC
    686e:	fa 01       	movw	r30, r20
    6870:	e5 58       	subi	r30, 0x85	; 133
    6872:	fe 4a       	sbci	r31, 0xAE	; 174
    6874:	90 81       	ld	r25, Z
    6876:	99 0f       	add	r25, r25
    6878:	90 56       	subi	r25, 0x60	; 96
    687a:	29 2f       	mov	r18, r25
    687c:	22 0f       	add	r18, r18
    687e:	22 0f       	add	r18, r18
    6880:	92 0f       	add	r25, r18
    6882:	8d 53       	subi	r24, 0x3D	; 61
    6884:	89 0f       	add	r24, r25
    6886:	80 93 eb 50 	sts	0x50EB, r24	; 0x8050eb <ZB_ch>
					break;
				}
				zbch_read = 2;					// ┤ф║п ╚о└╬ ╚─ ┤┘└╜└╕╖╬ ┴є░б
				Beep(3);
    688a:	83 e0       	ldi	r24, 0x03	; 3
    688c:	90 e0       	ldi	r25, 0x00	; 0
    688e:	0e 94 42 04 	call	0x884	; 0x884 <Beep>
    6892:	2f ef       	ldi	r18, 0xFF	; 255
    6894:	8f e3       	ldi	r24, 0x3F	; 63
    6896:	92 e0       	ldi	r25, 0x02	; 2
    6898:	21 50       	subi	r18, 0x01	; 1
    689a:	80 40       	sbci	r24, 0x00	; 0
    689c:	90 40       	sbci	r25, 0x00	; 0
    689e:	e1 f7       	brne	.-8      	; 0x6898 <ZigBee_Read+0x110>
    68a0:	00 c0       	rjmp	.+0      	; 0x68a2 <ZigBee_Read+0x11a>
    68a2:	00 00       	nop
				_delay_ms(50);					// ZigBee ├│╕о ╜├░г ╚─
				Rx3_Buff_Clear();				// Rx3 Buff Clear
    68a4:	0e 94 ef 2e 	call	0x5dde	; 0x5dde <Rx3_Buff_Clear>
					case 2:					// ZigBee channel └╨╛ю┐└▒т. ╡╬└┌╕о
						if(Rx3_Buff[cnt-1] <= 0x39) {ZB_ch = (Rx3_Buff[cnt-2] - 0x30) * 10 + (Rx3_Buff[cnt -1] - 0x30) - 6;}	// HEX To DEC
						else			    {ZB_ch = (Rx3_Buff[cnt-2] - 0x30) * 10 + (Rx3_Buff[cnt -1] - 0x37) - 6;}	// HEX To DEC
					break;
				}
				zbch_read = 2;					// ┤ф║п ╚о└╬ ╚─ ┤┘└╜└╕╖╬ ┴є░б
    68a8:	c2 e0       	ldi	r28, 0x02	; 2
				Beep(3);
				_delay_ms(50);					// ZigBee ├│╕о ╜├░г ╚─
				Rx3_Buff_Clear();				// Rx3 Buff Clear
				break;
    68aa:	a8 c0       	rjmp	.+336    	; 0x69fc <ZigBee_Read+0x274>
			}
//-------------------------------------------------------------------------------------------------
			if(zbch_read == 2 && Rx3_Buff[cnt] == 0x0d)
    68ac:	c2 30       	cpi	r28, 0x02	; 2
    68ae:	09 f0       	breq	.+2      	; 0x68b2 <ZigBee_Read+0x12a>
    68b0:	7f c0       	rjmp	.+254    	; 0x69b0 <ZigBee_Read+0x228>
    68b2:	ac 01       	movw	r20, r24
    68b4:	30 81       	ld	r19, Z
    68b6:	3d 30       	cpi	r19, 0x0D	; 13
    68b8:	09 f0       	breq	.+2      	; 0x68bc <ZigBee_Read+0x134>
    68ba:	97 c0       	rjmp	.+302    	; 0x69ea <ZigBee_Read+0x262>
			{							// 2+CR
				switch(cnt)					// cnt
    68bc:	82 30       	cpi	r24, 0x02	; 2
    68be:	a1 f0       	breq	.+40     	; 0x68e8 <ZigBee_Read+0x160>
    68c0:	18 f4       	brcc	.+6      	; 0x68c8 <ZigBee_Read+0x140>
    68c2:	81 30       	cpi	r24, 0x01	; 1
    68c4:	31 f0       	breq	.+12     	; 0x68d2 <ZigBee_Read+0x14a>
    68c6:	63 c0       	rjmp	.+198    	; 0x698e <ZigBee_Read+0x206>
    68c8:	83 30       	cpi	r24, 0x03	; 3
    68ca:	11 f1       	breq	.+68     	; 0x6910 <ZigBee_Read+0x188>
    68cc:	84 30       	cpi	r24, 0x04	; 4
    68ce:	e1 f1       	breq	.+120    	; 0x6948 <ZigBee_Read+0x1c0>
    68d0:	5e c0       	rjmp	.+188    	; 0x698e <ZigBee_Read+0x206>
				{
					case 1:						// ZigBee Pan ID └╨╛ю┐└▒т. 1 └┌╕о
						Pan_id_1   = Rx3_Buff[cnt-1] - 0x30;	// ZigBee Pan_id 1└╟ └┌╕о
    68d2:	fa 01       	movw	r30, r20
    68d4:	e4 58       	subi	r30, 0x84	; 132
    68d6:	fe 4a       	sbci	r31, 0xAE	; 174
    68d8:	80 81       	ld	r24, Z
    68da:	90 e0       	ldi	r25, 0x00	; 0
    68dc:	c0 97       	sbiw	r24, 0x30	; 48
    68de:	80 93 ec 50 	sts	0x50EC, r24	; 0x8050ec <Pan_id_1>
    68e2:	90 93 ed 50 	sts	0x50ED, r25	; 0x8050ed <Pan_id_1+0x1>
					break;
    68e6:	53 c0       	rjmp	.+166    	; 0x698e <ZigBee_Read+0x206>

					case 2:						// ZigBee Pan ID └╨╛ю┐└▒т. 2 └┌╕о
						Pan_id_10  = Rx3_Buff[cnt-2] - 0x30;	// ZigBee Pan_id 10└╟ └┌╕о
    68e8:	43 58       	subi	r20, 0x83	; 131
    68ea:	5e 4a       	sbci	r21, 0xAE	; 174
    68ec:	fa 01       	movw	r30, r20
    68ee:	32 97       	sbiw	r30, 0x02	; 2
    68f0:	80 81       	ld	r24, Z
    68f2:	90 e0       	ldi	r25, 0x00	; 0
    68f4:	c0 97       	sbiw	r24, 0x30	; 48
    68f6:	80 93 0c 51 	sts	0x510C, r24	; 0x80510c <Pan_id_10>
    68fa:	90 93 0d 51 	sts	0x510D, r25	; 0x80510d <Pan_id_10+0x1>
						Pan_id_1   = Rx3_Buff[cnt-1] - 0x30;	// ZigBee Pan_id  1└╟ └┌╕о
    68fe:	31 96       	adiw	r30, 0x01	; 1
    6900:	80 81       	ld	r24, Z
    6902:	90 e0       	ldi	r25, 0x00	; 0
    6904:	c0 97       	sbiw	r24, 0x30	; 48
    6906:	80 93 ec 50 	sts	0x50EC, r24	; 0x8050ec <Pan_id_1>
    690a:	90 93 ed 50 	sts	0x50ED, r25	; 0x8050ed <Pan_id_1+0x1>
					break;
    690e:	3f c0       	rjmp	.+126    	; 0x698e <ZigBee_Read+0x206>

					case 3:						// ZigBee Pan ID └╨╛ю┐└▒т. 3 └┌╕о
						Pan_id_100 = Rx3_Buff[cnt-3] - 0x30;	// ZigBee Pan_id 100└╟ └┌╕о
    6910:	43 58       	subi	r20, 0x83	; 131
    6912:	5e 4a       	sbci	r21, 0xAE	; 174
    6914:	fa 01       	movw	r30, r20
    6916:	33 97       	sbiw	r30, 0x03	; 3
    6918:	80 81       	ld	r24, Z
    691a:	90 e0       	ldi	r25, 0x00	; 0
    691c:	c0 97       	sbiw	r24, 0x30	; 48
    691e:	80 93 ab 41 	sts	0x41AB, r24	; 0x8041ab <Pan_id_100>
    6922:	90 93 ac 41 	sts	0x41AC, r25	; 0x8041ac <Pan_id_100+0x1>
						Pan_id_10  = Rx3_Buff[cnt-2] - 0x30;	// ZigBee Pan_id  10└╟ └┌╕о
    6926:	31 96       	adiw	r30, 0x01	; 1
    6928:	80 81       	ld	r24, Z
    692a:	90 e0       	ldi	r25, 0x00	; 0
    692c:	c0 97       	sbiw	r24, 0x30	; 48
    692e:	80 93 0c 51 	sts	0x510C, r24	; 0x80510c <Pan_id_10>
    6932:	90 93 0d 51 	sts	0x510D, r25	; 0x80510d <Pan_id_10+0x1>
						Pan_id_1   = Rx3_Buff[cnt-1] - 0x30;	// ZigBee Pan_id   1└╟ └┌╕о
    6936:	31 96       	adiw	r30, 0x01	; 1
    6938:	80 81       	ld	r24, Z
    693a:	90 e0       	ldi	r25, 0x00	; 0
    693c:	c0 97       	sbiw	r24, 0x30	; 48
    693e:	80 93 ec 50 	sts	0x50EC, r24	; 0x8050ec <Pan_id_1>
    6942:	90 93 ed 50 	sts	0x50ED, r25	; 0x8050ed <Pan_id_1+0x1>
					break;
    6946:	23 c0       	rjmp	.+70     	; 0x698e <ZigBee_Read+0x206>

					case 4:						// ZigBee Pan ID └╨╛ю┐└▒т. 4 └┌╕о
						Pan_id_1000 = Rx3_Buff[cnt-4] - 0x30;	// ZigBee Pan_id 1000└╟ └┌╕о
    6948:	43 58       	subi	r20, 0x83	; 131
    694a:	5e 4a       	sbci	r21, 0xAE	; 174
    694c:	fa 01       	movw	r30, r20
    694e:	34 97       	sbiw	r30, 0x04	; 4
    6950:	80 81       	ld	r24, Z
    6952:	90 e0       	ldi	r25, 0x00	; 0
    6954:	c0 97       	sbiw	r24, 0x30	; 48
    6956:	80 93 48 51 	sts	0x5148, r24	; 0x805148 <Pan_id_1000>
    695a:	90 93 49 51 	sts	0x5149, r25	; 0x805149 <Pan_id_1000+0x1>
						Pan_id_100  = Rx3_Buff[cnt-3] - 0x30;	// ZigBee Pan_id  100└╟ └┌╕о
    695e:	31 96       	adiw	r30, 0x01	; 1
    6960:	80 81       	ld	r24, Z
    6962:	90 e0       	ldi	r25, 0x00	; 0
    6964:	c0 97       	sbiw	r24, 0x30	; 48
    6966:	80 93 ab 41 	sts	0x41AB, r24	; 0x8041ab <Pan_id_100>
    696a:	90 93 ac 41 	sts	0x41AC, r25	; 0x8041ac <Pan_id_100+0x1>
						Pan_id_10   = Rx3_Buff[cnt-2] - 0x30;	// ZigBee Pan_id   10└╟ └┌╕о
    696e:	31 96       	adiw	r30, 0x01	; 1
    6970:	80 81       	ld	r24, Z
    6972:	90 e0       	ldi	r25, 0x00	; 0
    6974:	c0 97       	sbiw	r24, 0x30	; 48
    6976:	80 93 0c 51 	sts	0x510C, r24	; 0x80510c <Pan_id_10>
    697a:	90 93 0d 51 	sts	0x510D, r25	; 0x80510d <Pan_id_10+0x1>
						Pan_id_1    = Rx3_Buff[cnt-1] - 0x30;	// ZigBee Pan_id    1└╟ └┌╕о
    697e:	31 96       	adiw	r30, 0x01	; 1
    6980:	80 81       	ld	r24, Z
    6982:	90 e0       	ldi	r25, 0x00	; 0
    6984:	c0 97       	sbiw	r24, 0x30	; 48
    6986:	80 93 ec 50 	sts	0x50EC, r24	; 0x8050ec <Pan_id_1>
    698a:	90 93 ed 50 	sts	0x50ED, r25	; 0x8050ed <Pan_id_1+0x1>
					break;
				}
				zbch_read = 3;					// ┤ф║п ╚о└╬ ╚─ ┤┘└╜└╕╖╬ ┴є░б
				Beep(3);
    698e:	83 e0       	ldi	r24, 0x03	; 3
    6990:	90 e0       	ldi	r25, 0x00	; 0
    6992:	0e 94 42 04 	call	0x884	; 0x884 <Beep>
    6996:	2f ef       	ldi	r18, 0xFF	; 255
    6998:	8f e3       	ldi	r24, 0x3F	; 63
    699a:	92 e0       	ldi	r25, 0x02	; 2
    699c:	21 50       	subi	r18, 0x01	; 1
    699e:	80 40       	sbci	r24, 0x00	; 0
    69a0:	90 40       	sbci	r25, 0x00	; 0
    69a2:	e1 f7       	brne	.-8      	; 0x699c <ZigBee_Read+0x214>
    69a4:	00 c0       	rjmp	.+0      	; 0x69a6 <ZigBee_Read+0x21e>
    69a6:	00 00       	nop
				_delay_ms(50);					// ZigBee ├│╕о ╜├░г ╚─
				Rx3_Buff_Clear();				// Rx3 Buff Clear
    69a8:	0e 94 ef 2e 	call	0x5dde	; 0x5dde <Rx3_Buff_Clear>
						Pan_id_100  = Rx3_Buff[cnt-3] - 0x30;	// ZigBee Pan_id  100└╟ └┌╕о
						Pan_id_10   = Rx3_Buff[cnt-2] - 0x30;	// ZigBee Pan_id   10└╟ └┌╕о
						Pan_id_1    = Rx3_Buff[cnt-1] - 0x30;	// ZigBee Pan_id    1└╟ └┌╕о
					break;
				}
				zbch_read = 3;					// ┤ф║п ╚о└╬ ╚─ ┤┘└╜└╕╖╬ ┴є░б
    69ac:	c3 e0       	ldi	r28, 0x03	; 3
				Beep(3);
				_delay_ms(50);					// ZigBee ├│╕о ╜├░г ╚─
				Rx3_Buff_Clear();				// Rx3 Buff Clear
				break;
    69ae:	26 c0       	rjmp	.+76     	; 0x69fc <ZigBee_Read+0x274>
			}
//-------------------------------------------------------------------------------------------------
			if(zbch_read == 3 && Rx3_Buff[cnt] == 'O' && Rx3_Buff[cnt + 1] == 'K' && Rx3_Buff[cnt + 2] == 0x0d)
    69b0:	c3 30       	cpi	r28, 0x03	; 3
    69b2:	d9 f4       	brne	.+54     	; 0x69ea <ZigBee_Read+0x262>
    69b4:	20 81       	ld	r18, Z
    69b6:	2f 34       	cpi	r18, 0x4F	; 79
    69b8:	c1 f4       	brne	.+48     	; 0x69ea <ZigBee_Read+0x262>
    69ba:	21 81       	ldd	r18, Z+1	; 0x01
    69bc:	2b 34       	cpi	r18, 0x4B	; 75
    69be:	a9 f4       	brne	.+42     	; 0x69ea <ZigBee_Read+0x262>
    69c0:	22 81       	ldd	r18, Z+2	; 0x02
    69c2:	2d 30       	cpi	r18, 0x0D	; 13
    69c4:	91 f4       	brne	.+36     	; 0x69ea <ZigBee_Read+0x262>
			{							// 3+OK+CR
				zbch_read = 5;					// ┤ф║п ╚о└╬ ╚─ While()╣о ┴╛╖с
				Beep(3);
    69c6:	83 e0       	ldi	r24, 0x03	; 3
    69c8:	90 e0       	ldi	r25, 0x00	; 0
    69ca:	0e 94 42 04 	call	0x884	; 0x884 <Beep>
    69ce:	2f ef       	ldi	r18, 0xFF	; 255
    69d0:	8f e3       	ldi	r24, 0x3F	; 63
    69d2:	92 e0       	ldi	r25, 0x02	; 2
    69d4:	21 50       	subi	r18, 0x01	; 1
    69d6:	80 40       	sbci	r24, 0x00	; 0
    69d8:	90 40       	sbci	r25, 0x00	; 0
    69da:	e1 f7       	brne	.-8      	; 0x69d4 <ZigBee_Read+0x24c>
    69dc:	00 c0       	rjmp	.+0      	; 0x69de <ZigBee_Read+0x256>
    69de:	00 00       	nop
				_delay_ms(50);					// ZigBee ├│╕о ╜├░г ╚─
				Rx3_Buff_Clear();				// Rx3 Buff Clear
    69e0:	0e 94 ef 2e 	call	0x5dde	; 0x5dde <Rx3_Buff_Clear>
				break;
			}
		}
		wdt_reset();							// ┐І─б╡╢ ╕о╝┬
    69e4:	0e 94 18 14 	call	0x2830	; 0x2830 <wdt_reset>
	}while(zbch_read != 5);							// zbch_read ░б 5 └╧╢з ▒ю┴І ╣▌║╣
}
    69e8:	0c c0       	rjmp	.+24     	; 0x6a02 <ZigBee_Read+0x27a>
    69ea:	01 96       	adiw	r24, 0x01	; 1
    69ec:	31 96       	adiw	r30, 0x01	; 1
			case 3:							// zbch_read = 3 └╠╕щ
				USART3_SendString("ATCN\r");			// USART3 ┐б ATCN └№╝█
			break;
		}
//-------------------------------------------------------------------------------------------------
		for(uint8_t cnt = 0; cnt < RX3_SIZE - 2; cnt++)			// RX3_SIZE ╕╕┼н ╣▌║╣
    69ee:	88 3f       	cpi	r24, 0xF8	; 248
    69f0:	91 05       	cpc	r25, r1
    69f2:	09 f0       	breq	.+2      	; 0x69f6 <ZigBee_Read+0x26e>
    69f4:	f3 ce       	rjmp	.-538    	; 0x67dc <ZigBee_Read+0x54>
				_delay_ms(50);					// ZigBee ├│╕о ╜├░г ╚─
				Rx3_Buff_Clear();				// Rx3 Buff Clear
				break;
			}
		}
		wdt_reset();							// ┐І─б╡╢ ╕о╝┬
    69f6:	0e 94 18 14 	call	0x2830	; 0x2830 <wdt_reset>
    69fa:	c8 ce       	rjmp	.-624    	; 0x678c <ZigBee_Read+0x4>
    69fc:	0e 94 18 14 	call	0x2830	; 0x2830 <wdt_reset>
    6a00:	c5 ce       	rjmp	.-630    	; 0x678c <ZigBee_Read+0x4>
	}while(zbch_read != 5);							// zbch_read ░б 5 └╧╢з ▒ю┴І ╣▌║╣
}
    6a02:	cf 91       	pop	r28
    6a04:	08 95       	ret

00006a06 <ZigBee_Set>:

//=================================================================================================
void ZigBee_Set(void)								// ZigBee ├д│╬ ╣╫ PanID ╝│┴д ╕Ё╡х
{
    6a06:	2f 92       	push	r2
    6a08:	3f 92       	push	r3
    6a0a:	4f 92       	push	r4
    6a0c:	5f 92       	push	r5
    6a0e:	6f 92       	push	r6
    6a10:	8f 92       	push	r8
    6a12:	9f 92       	push	r9
    6a14:	af 92       	push	r10
    6a16:	bf 92       	push	r11
    6a18:	cf 92       	push	r12
    6a1a:	df 92       	push	r13
    6a1c:	ef 92       	push	r14
    6a1e:	ff 92       	push	r15
    6a20:	1f 93       	push	r17
    6a22:	cf 93       	push	r28
    6a24:	df 93       	push	r29
	uint8_t Count = 1;							// ─л┐ю╞о ║п╝І ├╩▒т╚н
	SET.Select = 0;								// Select ╣І╞░ ├╩▒т╚н
    6a26:	ce e0       	ldi	r28, 0x0E	; 14
    6a28:	d1 e5       	ldi	r29, 0x51	; 81
    6a2a:	19 82       	std	Y+1, r1	; 0x01
	FND_Value_Data(0, 2, 12);						// FND 0 ~ 2 FND_OFF
    6a2c:	4c e0       	ldi	r20, 0x0C	; 12
    6a2e:	62 e0       	ldi	r22, 0x02	; 2
    6a30:	80 e0       	ldi	r24, 0x00	; 0
    6a32:	0e 94 d3 05 	call	0xba6	; 0xba6 <FND_Value_Data>
	ZigBee_Read();								// ZigBee ╝│┴д░к └╨▒т
    6a36:	0e 94 c4 33 	call	0x6788	; 0x6788 <ZigBee_Read>
//-------------------------------------------------------------------------------------------------
	while(SET.Menu)								// ╕▐┤║░б 1 └╠╕щ ╣▌║╣
    6a3a:	88 81       	ld	r24, Y
    6a3c:	88 23       	and	r24, r24
    6a3e:	09 f4       	brne	.+2      	; 0x6a42 <ZigBee_Set+0x3c>
    6a40:	63 c1       	rjmp	.+710    	; 0x6d08 <ZigBee_Set+0x302>
    6a42:	11 e0       	ldi	r17, 0x01	; 1
		if(KEY.Buff)							// Key └╘╖┬└╠ └╓└╕╕щ
		{
			if     (KEY.Key == 1 && Count < 3) {Count++; KEY.Key = 0;}	// ╛і  ╣І╞░ └╠╕щ Count ┴є░б
			else if(KEY.Key == 3 && Count > 0) {Count--; KEY.Key = 0;}	// ┤┘┐ю╣І╞░ └╠╕щ Count ░и╝╥
		}
		DIGIT[2][0] = fnd_tbl[Count];					// FND 2.0 ┐б Count ╟е╜├
    6a44:	c9 e7       	ldi	r28, 0x79	; 121
    6a46:	d1 e4       	ldi	r29, 0x41	; 65
			case 0:							// Count = 0 └╠╕щ
				Count = 2;					// ╣▌║╣└╗ └з╟╪ Count╕ж ├╓░э╖╬ ┴є░б ╜├┼┤
			break;

			case 1:							// Count = 1 └╠╕щ
				DIGIT[0][3] = FND_Z;				// FND 0 ┐б Z-ch ╟е╜├
    6a48:	0f 2e       	mov	r0, r31
    6a4a:	fa ed       	ldi	r31, 0xDA	; 218
    6a4c:	5f 2e       	mov	r5, r31
    6a4e:	f0 2d       	mov	r31, r0
				DIGIT[0][2] = FND_MINUS;
    6a50:	68 94       	set
    6a52:	66 24       	eor	r6, r6
    6a54:	61 f8       	bld	r6, 1
				DIGIT[0][1] = FND_c;
    6a56:	0f 2e       	mov	r0, r31
    6a58:	fa e1       	ldi	r31, 0x1A	; 26
    6a5a:	2f 2e       	mov	r2, r31
    6a5c:	f0 2d       	mov	r31, r0
				DIGIT[0][0] = FND_h;
    6a5e:	0f 2e       	mov	r0, r31
    6a60:	fe e2       	ldi	r31, 0x2E	; 46
    6a62:	3f 2e       	mov	r3, r31
    6a64:	f0 2d       	mov	r31, r0

				DIGIT[1][3] = FND_OFF;				// FND 2 ┐б ZigBee ├д│╬ ╟е╜├
				DIGIT[1][2] = FND_OFF;
				DIGIT[1][1] = fnd_tbl[ZB_ch / 10];
    6a66:	0f 2e       	mov	r0, r31
    6a68:	fd ec       	ldi	r31, 0xCD	; 205
    6a6a:	4f 2e       	mov	r4, r31
    6a6c:	f0 2d       	mov	r31, r0

				DIGIT[2][3] = FND_OFF;				// FND 2 1~3 OFF
				DIGIT[2][2] = FND_OFF;
				DIGIT[2][1] = FND_OFF;

				if(SET.Select) {ZigBee_Channel_Write();}	// ZigBee ├д│╬ ╝│┴д
    6a6e:	0f 2e       	mov	r0, r31
    6a70:	fe e0       	ldi	r31, 0x0E	; 14
    6a72:	ef 2e       	mov	r14, r31
    6a74:	f1 e5       	ldi	r31, 0x51	; 81
    6a76:	ff 2e       	mov	r15, r31
    6a78:	f0 2d       	mov	r31, r0
			break;

			case 2:							// Count = 2 └╠╕щ
				DIGIT[0][3] = FND_Z;				// FND 0 ┐б Z-Id ╟е╜├
				DIGIT[0][2] = FND_MINUS;
				DIGIT[0][1] = FND_I;
    6a7a:	0f 2e       	mov	r0, r31
    6a7c:	f0 e6       	ldi	r31, 0x60	; 96
    6a7e:	8f 2e       	mov	r8, r31
    6a80:	f0 2d       	mov	r31, r0
				DIGIT[0][0] = FND_d;
    6a82:	0f 2e       	mov	r0, r31
    6a84:	fa e7       	ldi	r31, 0x7A	; 122
    6a86:	9f 2e       	mov	r9, r31
    6a88:	f0 2d       	mov	r31, r0

				ZB_id = (Pan_id_1000 * 4096) + (Pan_id_100 * 256) + (Pan_id_10 * 16) + Pan_id_1;	// ZigBee PanID ░ш╗ъ
				DIGIT[1][3] = fnd_tbl[ZB_id / 10000];		// FND 1 ┐б ZigBee PanID 1000~10└╟ └┌╕о ╟е╜├
				DIGIT[1][2] = fnd_tbl[ZB_id % 10000 / 1000];
    6a8a:	0f 2e       	mov	r0, r31
    6a8c:	f0 e1       	ldi	r31, 0x10	; 16
    6a8e:	af 2e       	mov	r10, r31
    6a90:	f7 e2       	ldi	r31, 0x27	; 39
    6a92:	bf 2e       	mov	r11, r31
    6a94:	f0 2d       	mov	r31, r0
				DIGIT[1][1] = fnd_tbl[ZB_id % 1000 / 100];
    6a96:	0f 2e       	mov	r0, r31
    6a98:	f8 ee       	ldi	r31, 0xE8	; 232
    6a9a:	cf 2e       	mov	r12, r31
    6a9c:	f3 e0       	ldi	r31, 0x03	; 3
    6a9e:	df 2e       	mov	r13, r31
    6aa0:	f0 2d       	mov	r31, r0
	FND_Value_Data(0, 2, 12);						// FND 0 ~ 2 FND_OFF
	ZigBee_Read();								// ZigBee ╝│┴д░к └╨▒т
//-------------------------------------------------------------------------------------------------
	while(SET.Menu)								// ╕▐┤║░б 1 └╠╕щ ╣▌║╣
	{
		if(KEY.Buff)							// Key └╘╖┬└╠ └╓└╕╕щ
    6aa2:	80 91 4c 51 	lds	r24, 0x514C	; 0x80514c <KEY+0x1>
    6aa6:	88 23       	and	r24, r24
    6aa8:	a1 f0       	breq	.+40     	; 0x6ad2 <ZigBee_Set+0xcc>
		{
			if     (KEY.Key == 1 && Count < 3) {Count++; KEY.Key = 0;}	// ╛і  ╣І╞░ └╠╕щ Count ┴є░б
    6aaa:	80 91 4d 51 	lds	r24, 0x514D	; 0x80514d <KEY+0x2>
    6aae:	81 30       	cpi	r24, 0x01	; 1
    6ab0:	31 f4       	brne	.+12     	; 0x6abe <ZigBee_Set+0xb8>
    6ab2:	13 30       	cpi	r17, 0x03	; 3
    6ab4:	20 f4       	brcc	.+8      	; 0x6abe <ZigBee_Set+0xb8>
    6ab6:	1f 5f       	subi	r17, 0xFF	; 255
    6ab8:	10 92 4d 51 	sts	0x514D, r1	; 0x80514d <KEY+0x2>
    6abc:	0a c0       	rjmp	.+20     	; 0x6ad2 <ZigBee_Set+0xcc>
			else if(KEY.Key == 3 && Count > 0) {Count--; KEY.Key = 0;}	// ┤┘┐ю╣І╞░ └╠╕щ Count ░и╝╥
    6abe:	80 91 4d 51 	lds	r24, 0x514D	; 0x80514d <KEY+0x2>
    6ac2:	83 30       	cpi	r24, 0x03	; 3
    6ac4:	31 f4       	brne	.+12     	; 0x6ad2 <ZigBee_Set+0xcc>
    6ac6:	11 23       	and	r17, r17
    6ac8:	09 f4       	brne	.+2      	; 0x6acc <ZigBee_Set+0xc6>
    6aca:	19 c1       	rjmp	.+562    	; 0x6cfe <ZigBee_Set+0x2f8>
    6acc:	11 50       	subi	r17, 0x01	; 1
    6ace:	10 92 4d 51 	sts	0x514D, r1	; 0x80514d <KEY+0x2>
		}
		DIGIT[2][0] = fnd_tbl[Count];					// FND 2.0 ┐б Count ╟е╜├
    6ad2:	e1 2f       	mov	r30, r17
    6ad4:	f0 e0       	ldi	r31, 0x00	; 0
    6ad6:	ed 5b       	subi	r30, 0xBD	; 189
    6ad8:	fe 4b       	sbci	r31, 0xBE	; 190
    6ada:	80 81       	ld	r24, Z
    6adc:	88 87       	std	Y+8, r24	; 0x08

		switch(Count)							// Count
    6ade:	11 30       	cpi	r17, 0x01	; 1
    6ae0:	51 f0       	breq	.+20     	; 0x6af6 <ZigBee_Set+0xf0>
    6ae2:	38 f0       	brcs	.+14     	; 0x6af2 <ZigBee_Set+0xec>
    6ae4:	12 30       	cpi	r17, 0x02	; 2
    6ae6:	89 f1       	breq	.+98     	; 0x6b4a <ZigBee_Set+0x144>
    6ae8:	13 30       	cpi	r17, 0x03	; 3
    6aea:	09 f0       	breq	.+2      	; 0x6aee <ZigBee_Set+0xe8>
    6aec:	01 c1       	rjmp	.+514    	; 0x6cf0 <ZigBee_Set+0x2ea>

				if(SET.Select) {ZigBee_PanID_Write();}		// ZigBee PanID ╝│┴д
			break;

			case 3:							// Count = 3 └╠╕щ
				Count = 1;					// ╣▌║╣└╗ └з╟╪ Count╕ж ├╓└·╖╬ ░и╝╥ ╜├┼┤
    6aee:	11 e0       	ldi	r17, 0x01	; 1
    6af0:	ff c0       	rjmp	.+510    	; 0x6cf0 <ZigBee_Set+0x2ea>
		DIGIT[2][0] = fnd_tbl[Count];					// FND 2.0 ┐б Count ╟е╜├

		switch(Count)							// Count
		{
			case 0:							// Count = 0 └╠╕щ
				Count = 2;					// ╣▌║╣└╗ └з╟╪ Count╕ж ├╓░э╖╬ ┴є░б ╜├┼┤
    6af2:	12 e0       	ldi	r17, 0x02	; 2
			break;
    6af4:	fd c0       	rjmp	.+506    	; 0x6cf0 <ZigBee_Set+0x2ea>

			case 1:							// Count = 1 └╠╕щ
				DIGIT[0][3] = FND_Z;				// FND 0 ┐б Z-ch ╟е╜├
    6af6:	5b 82       	std	Y+3, r5	; 0x03
				DIGIT[0][2] = FND_MINUS;
    6af8:	6a 82       	std	Y+2, r6	; 0x02
				DIGIT[0][1] = FND_c;
    6afa:	29 82       	std	Y+1, r2	; 0x01
				DIGIT[0][0] = FND_h;
    6afc:	38 82       	st	Y, r3

				DIGIT[1][3] = FND_OFF;				// FND 2 ┐б ZigBee ├д│╬ ╟е╜├
    6afe:	1f 82       	std	Y+7, r1	; 0x07
				DIGIT[1][2] = FND_OFF;
    6b00:	1e 82       	std	Y+6, r1	; 0x06
				DIGIT[1][1] = fnd_tbl[ZB_ch / 10];
    6b02:	e0 91 eb 50 	lds	r30, 0x50EB	; 0x8050eb <ZB_ch>
    6b06:	e4 9d       	mul	r30, r4
    6b08:	81 2d       	mov	r24, r1
    6b0a:	11 24       	eor	r1, r1
    6b0c:	86 95       	lsr	r24
    6b0e:	86 95       	lsr	r24
    6b10:	86 95       	lsr	r24
    6b12:	a8 2f       	mov	r26, r24
    6b14:	b0 e0       	ldi	r27, 0x00	; 0
    6b16:	ad 5b       	subi	r26, 0xBD	; 189
    6b18:	be 4b       	sbci	r27, 0xBE	; 190
    6b1a:	9c 91       	ld	r25, X
    6b1c:	9d 83       	std	Y+5, r25	; 0x05
				DIGIT[1][0] = fnd_tbl[ZB_ch % 10];
    6b1e:	88 0f       	add	r24, r24
    6b20:	98 2f       	mov	r25, r24
    6b22:	99 0f       	add	r25, r25
    6b24:	99 0f       	add	r25, r25
    6b26:	89 0f       	add	r24, r25
    6b28:	e8 1b       	sub	r30, r24
    6b2a:	f0 e0       	ldi	r31, 0x00	; 0
    6b2c:	ed 5b       	subi	r30, 0xBD	; 189
    6b2e:	fe 4b       	sbci	r31, 0xBE	; 190
    6b30:	80 81       	ld	r24, Z
    6b32:	8c 83       	std	Y+4, r24	; 0x04

				DIGIT[2][3] = FND_OFF;				// FND 2 1~3 OFF
    6b34:	1b 86       	std	Y+11, r1	; 0x0b
				DIGIT[2][2] = FND_OFF;
    6b36:	1a 86       	std	Y+10, r1	; 0x0a
				DIGIT[2][1] = FND_OFF;
    6b38:	19 86       	std	Y+9, r1	; 0x09

				if(SET.Select) {ZigBee_Channel_Write();}	// ZigBee ├д│╬ ╝│┴д
    6b3a:	f7 01       	movw	r30, r14
    6b3c:	81 81       	ldd	r24, Z+1	; 0x01
    6b3e:	88 23       	and	r24, r24
    6b40:	09 f4       	brne	.+2      	; 0x6b44 <ZigBee_Set+0x13e>
    6b42:	d6 c0       	rjmp	.+428    	; 0x6cf0 <ZigBee_Set+0x2ea>
    6b44:	0e 94 5b 33 	call	0x66b6	; 0x66b6 <ZigBee_Channel_Write>
    6b48:	d3 c0       	rjmp	.+422    	; 0x6cf0 <ZigBee_Set+0x2ea>
			break;

			case 2:							// Count = 2 └╠╕щ
				DIGIT[0][3] = FND_Z;				// FND 0 ┐б Z-Id ╟е╜├
    6b4a:	5b 82       	std	Y+3, r5	; 0x03
				DIGIT[0][2] = FND_MINUS;
    6b4c:	6a 82       	std	Y+2, r6	; 0x02
				DIGIT[0][1] = FND_I;
    6b4e:	89 82       	std	Y+1, r8	; 0x01
				DIGIT[0][0] = FND_d;
    6b50:	98 82       	st	Y, r9

				ZB_id = (Pan_id_1000 * 4096) + (Pan_id_100 * 256) + (Pan_id_10 * 16) + Pan_id_1;	// ZigBee PanID ░ш╗ъ
    6b52:	40 91 48 51 	lds	r20, 0x5148	; 0x805148 <Pan_id_1000>
    6b56:	50 91 49 51 	lds	r21, 0x5149	; 0x805149 <Pan_id_1000+0x1>
    6b5a:	42 95       	swap	r20
    6b5c:	52 95       	swap	r21
    6b5e:	50 7f       	andi	r21, 0xF0	; 240
    6b60:	54 27       	eor	r21, r20
    6b62:	40 7f       	andi	r20, 0xF0	; 240
    6b64:	54 27       	eor	r21, r20
    6b66:	80 91 ab 41 	lds	r24, 0x41AB	; 0x8041ab <Pan_id_100>
    6b6a:	90 91 ac 41 	lds	r25, 0x41AC	; 0x8041ac <Pan_id_100+0x1>
    6b6e:	48 0f       	add	r20, r24
    6b70:	59 1f       	adc	r21, r25
    6b72:	42 95       	swap	r20
    6b74:	52 95       	swap	r21
    6b76:	50 7f       	andi	r21, 0xF0	; 240
    6b78:	54 27       	eor	r21, r20
    6b7a:	40 7f       	andi	r20, 0xF0	; 240
    6b7c:	54 27       	eor	r21, r20
    6b7e:	80 91 0c 51 	lds	r24, 0x510C	; 0x80510c <Pan_id_10>
    6b82:	90 91 0d 51 	lds	r25, 0x510D	; 0x80510d <Pan_id_10+0x1>
    6b86:	48 0f       	add	r20, r24
    6b88:	59 1f       	adc	r21, r25
    6b8a:	42 95       	swap	r20
    6b8c:	52 95       	swap	r21
    6b8e:	50 7f       	andi	r21, 0xF0	; 240
    6b90:	54 27       	eor	r21, r20
    6b92:	40 7f       	andi	r20, 0xF0	; 240
    6b94:	54 27       	eor	r21, r20
    6b96:	80 91 ec 50 	lds	r24, 0x50EC	; 0x8050ec <Pan_id_1>
    6b9a:	90 91 ed 50 	lds	r25, 0x50ED	; 0x8050ed <Pan_id_1+0x1>
    6b9e:	48 0f       	add	r20, r24
    6ba0:	59 1f       	adc	r21, r25
    6ba2:	40 93 5d 51 	sts	0x515D, r20	; 0x80515d <ZB_id>
    6ba6:	50 93 5e 51 	sts	0x515E, r21	; 0x80515e <ZB_id+0x1>
				DIGIT[1][3] = fnd_tbl[ZB_id / 10000];		// FND 1 ┐б ZigBee PanID 1000~10└╟ └┌╕о ╟е╜├
    6baa:	9a 01       	movw	r18, r20
    6bac:	32 95       	swap	r19
    6bae:	22 95       	swap	r18
    6bb0:	2f 70       	andi	r18, 0x0F	; 15
    6bb2:	23 27       	eor	r18, r19
    6bb4:	3f 70       	andi	r19, 0x0F	; 15
    6bb6:	23 27       	eor	r18, r19
    6bb8:	a7 e4       	ldi	r26, 0x47	; 71
    6bba:	b3 e0       	ldi	r27, 0x03	; 3
    6bbc:	0e 94 0f 3d 	call	0x7a1e	; 0x7a1e <__umulhisi3>
    6bc0:	96 95       	lsr	r25
    6bc2:	87 95       	ror	r24
    6bc4:	96 95       	lsr	r25
    6bc6:	87 95       	ror	r24
    6bc8:	96 95       	lsr	r25
    6bca:	87 95       	ror	r24
    6bcc:	fc 01       	movw	r30, r24
    6bce:	ed 5b       	subi	r30, 0xBD	; 189
    6bd0:	fe 4b       	sbci	r31, 0xBE	; 190
    6bd2:	20 81       	ld	r18, Z
    6bd4:	2f 83       	std	Y+7, r18	; 0x07
				DIGIT[1][2] = fnd_tbl[ZB_id % 10000 / 1000];
    6bd6:	8a 9d       	mul	r24, r10
    6bd8:	90 01       	movw	r18, r0
    6bda:	8b 9d       	mul	r24, r11
    6bdc:	30 0d       	add	r19, r0
    6bde:	9a 9d       	mul	r25, r10
    6be0:	30 0d       	add	r19, r0
    6be2:	11 24       	eor	r1, r1
    6be4:	ca 01       	movw	r24, r20
    6be6:	82 1b       	sub	r24, r18
    6be8:	93 0b       	sbc	r25, r19
    6bea:	9c 01       	movw	r18, r24
    6bec:	36 95       	lsr	r19
    6bee:	27 95       	ror	r18
    6bf0:	36 95       	lsr	r19
    6bf2:	27 95       	ror	r18
    6bf4:	36 95       	lsr	r19
    6bf6:	27 95       	ror	r18
    6bf8:	a5 ec       	ldi	r26, 0xC5	; 197
    6bfa:	b0 e2       	ldi	r27, 0x20	; 32
    6bfc:	0e 94 0f 3d 	call	0x7a1e	; 0x7a1e <__umulhisi3>
    6c00:	92 95       	swap	r25
    6c02:	82 95       	swap	r24
    6c04:	8f 70       	andi	r24, 0x0F	; 15
    6c06:	89 27       	eor	r24, r25
    6c08:	9f 70       	andi	r25, 0x0F	; 15
    6c0a:	89 27       	eor	r24, r25
    6c0c:	fc 01       	movw	r30, r24
    6c0e:	ed 5b       	subi	r30, 0xBD	; 189
    6c10:	fe 4b       	sbci	r31, 0xBE	; 190
    6c12:	80 81       	ld	r24, Z
    6c14:	8e 83       	std	Y+6, r24	; 0x06
				DIGIT[1][1] = fnd_tbl[ZB_id % 1000 / 100];
    6c16:	9a 01       	movw	r18, r20
    6c18:	36 95       	lsr	r19
    6c1a:	27 95       	ror	r18
    6c1c:	36 95       	lsr	r19
    6c1e:	27 95       	ror	r18
    6c20:	36 95       	lsr	r19
    6c22:	27 95       	ror	r18
    6c24:	0e 94 0f 3d 	call	0x7a1e	; 0x7a1e <__umulhisi3>
    6c28:	92 95       	swap	r25
    6c2a:	82 95       	swap	r24
    6c2c:	8f 70       	andi	r24, 0x0F	; 15
    6c2e:	89 27       	eor	r24, r25
    6c30:	9f 70       	andi	r25, 0x0F	; 15
    6c32:	89 27       	eor	r24, r25
    6c34:	8c 9d       	mul	r24, r12
    6c36:	90 01       	movw	r18, r0
    6c38:	8d 9d       	mul	r24, r13
    6c3a:	30 0d       	add	r19, r0
    6c3c:	9c 9d       	mul	r25, r12
    6c3e:	30 0d       	add	r19, r0
    6c40:	11 24       	eor	r1, r1
    6c42:	fa 01       	movw	r30, r20
    6c44:	e2 1b       	sub	r30, r18
    6c46:	f3 0b       	sbc	r31, r19
    6c48:	9f 01       	movw	r18, r30
    6c4a:	36 95       	lsr	r19
    6c4c:	27 95       	ror	r18
    6c4e:	36 95       	lsr	r19
    6c50:	27 95       	ror	r18
    6c52:	ab e7       	ldi	r26, 0x7B	; 123
    6c54:	b4 e1       	ldi	r27, 0x14	; 20
    6c56:	0e 94 0f 3d 	call	0x7a1e	; 0x7a1e <__umulhisi3>
    6c5a:	96 95       	lsr	r25
    6c5c:	87 95       	ror	r24
    6c5e:	fc 01       	movw	r30, r24
    6c60:	ed 5b       	subi	r30, 0xBD	; 189
    6c62:	fe 4b       	sbci	r31, 0xBE	; 190
    6c64:	80 81       	ld	r24, Z
    6c66:	8d 83       	std	Y+5, r24	; 0x05
				DIGIT[1][0] = fnd_tbl[ZB_id % 100 / 10];
    6c68:	9a 01       	movw	r18, r20
    6c6a:	36 95       	lsr	r19
    6c6c:	27 95       	ror	r18
    6c6e:	36 95       	lsr	r19
    6c70:	27 95       	ror	r18
    6c72:	0e 94 0f 3d 	call	0x7a1e	; 0x7a1e <__umulhisi3>
    6c76:	96 95       	lsr	r25
    6c78:	87 95       	ror	r24
    6c7a:	64 e6       	ldi	r22, 0x64	; 100
    6c7c:	68 9f       	mul	r22, r24
    6c7e:	90 01       	movw	r18, r0
    6c80:	69 9f       	mul	r22, r25
    6c82:	30 0d       	add	r19, r0
    6c84:	11 24       	eor	r1, r1
    6c86:	ca 01       	movw	r24, r20
    6c88:	82 1b       	sub	r24, r18
    6c8a:	93 0b       	sbc	r25, r19
    6c8c:	9c 01       	movw	r18, r24
    6c8e:	ad ec       	ldi	r26, 0xCD	; 205
    6c90:	bc ec       	ldi	r27, 0xCC	; 204
    6c92:	0e 94 0f 3d 	call	0x7a1e	; 0x7a1e <__umulhisi3>
    6c96:	96 95       	lsr	r25
    6c98:	87 95       	ror	r24
    6c9a:	96 95       	lsr	r25
    6c9c:	87 95       	ror	r24
    6c9e:	96 95       	lsr	r25
    6ca0:	87 95       	ror	r24
    6ca2:	fc 01       	movw	r30, r24
    6ca4:	ed 5b       	subi	r30, 0xBD	; 189
    6ca6:	fe 4b       	sbci	r31, 0xBE	; 190
    6ca8:	80 81       	ld	r24, Z
    6caa:	8c 83       	std	Y+4, r24	; 0x04

				DIGIT[2][3] = fnd_tbl[ZB_id % 10];		// FND 1 ┐б ZigBee PanID 1└╟ └┌╕о ╟е╜├
    6cac:	9a 01       	movw	r18, r20
    6cae:	0e 94 0f 3d 	call	0x7a1e	; 0x7a1e <__umulhisi3>
    6cb2:	96 95       	lsr	r25
    6cb4:	87 95       	ror	r24
    6cb6:	96 95       	lsr	r25
    6cb8:	87 95       	ror	r24
    6cba:	96 95       	lsr	r25
    6cbc:	87 95       	ror	r24
    6cbe:	9c 01       	movw	r18, r24
    6cc0:	22 0f       	add	r18, r18
    6cc2:	33 1f       	adc	r19, r19
    6cc4:	88 0f       	add	r24, r24
    6cc6:	99 1f       	adc	r25, r25
    6cc8:	88 0f       	add	r24, r24
    6cca:	99 1f       	adc	r25, r25
    6ccc:	88 0f       	add	r24, r24
    6cce:	99 1f       	adc	r25, r25
    6cd0:	82 0f       	add	r24, r18
    6cd2:	93 1f       	adc	r25, r19
    6cd4:	48 1b       	sub	r20, r24
    6cd6:	59 0b       	sbc	r21, r25
    6cd8:	fa 01       	movw	r30, r20
    6cda:	ed 5b       	subi	r30, 0xBD	; 189
    6cdc:	fe 4b       	sbci	r31, 0xBE	; 190
    6cde:	80 81       	ld	r24, Z
    6ce0:	8b 87       	std	Y+11, r24	; 0x0b
				DIGIT[2][2] = FND_OFF;
    6ce2:	1a 86       	std	Y+10, r1	; 0x0a
				DIGIT[2][1] = FND_OFF;
    6ce4:	19 86       	std	Y+9, r1	; 0x09

				if(SET.Select) {ZigBee_PanID_Write();}		// ZigBee PanID ╝│┴д
    6ce6:	f7 01       	movw	r30, r14
    6ce8:	81 81       	ldd	r24, Z+1	; 0x01
    6cea:	81 11       	cpse	r24, r1
    6cec:	0e 94 f1 2f 	call	0x5fe2	; 0x5fe2 <ZigBee_PanID_Write>

			case 3:							// Count = 3 └╠╕щ
				Count = 1;					// ╣▌║╣└╗ └з╟╪ Count╕ж ├╓└·╖╬ ░и╝╥ ╜├┼┤
			break;
		}
		wdt_reset();							// ┐І─б╡╢ ╕о╝┬
    6cf0:	0e 94 18 14 	call	0x2830	; 0x2830 <wdt_reset>
	uint8_t Count = 1;							// ─л┐ю╞о ║п╝І ├╩▒т╚н
	SET.Select = 0;								// Select ╣І╞░ ├╩▒т╚н
	FND_Value_Data(0, 2, 12);						// FND 0 ~ 2 FND_OFF
	ZigBee_Read();								// ZigBee ╝│┴д░к └╨▒т
//-------------------------------------------------------------------------------------------------
	while(SET.Menu)								// ╕▐┤║░б 1 └╠╕щ ╣▌║╣
    6cf4:	f7 01       	movw	r30, r14
    6cf6:	80 81       	ld	r24, Z
    6cf8:	81 11       	cpse	r24, r1
    6cfa:	d3 ce       	rjmp	.-602    	; 0x6aa2 <ZigBee_Set+0x9c>
    6cfc:	05 c0       	rjmp	.+10     	; 0x6d08 <ZigBee_Set+0x302>
		if(KEY.Buff)							// Key └╘╖┬└╠ └╓└╕╕щ
		{
			if     (KEY.Key == 1 && Count < 3) {Count++; KEY.Key = 0;}	// ╛і  ╣І╞░ └╠╕щ Count ┴є░б
			else if(KEY.Key == 3 && Count > 0) {Count--; KEY.Key = 0;}	// ┤┘┐ю╣І╞░ └╠╕щ Count ░и╝╥
		}
		DIGIT[2][0] = fnd_tbl[Count];					// FND 2.0 ┐б Count ╟е╜├
    6cfe:	e3 e4       	ldi	r30, 0x43	; 67
    6d00:	f1 e4       	ldi	r31, 0x41	; 65
    6d02:	80 81       	ld	r24, Z
    6d04:	88 87       	std	Y+8, r24	; 0x08
    6d06:	f5 ce       	rjmp	.-534    	; 0x6af2 <ZigBee_Set+0xec>
				Count = 1;					// ╣▌║╣└╗ └з╟╪ Count╕ж ├╓└·╖╬ ░и╝╥ ╜├┼┤
			break;
		}
		wdt_reset();							// ┐І─б╡╢ ╕о╝┬
	}
}
    6d08:	df 91       	pop	r29
    6d0a:	cf 91       	pop	r28
    6d0c:	1f 91       	pop	r17
    6d0e:	ff 90       	pop	r15
    6d10:	ef 90       	pop	r14
    6d12:	df 90       	pop	r13
    6d14:	cf 90       	pop	r12
    6d16:	bf 90       	pop	r11
    6d18:	af 90       	pop	r10
    6d1a:	9f 90       	pop	r9
    6d1c:	8f 90       	pop	r8
    6d1e:	6f 90       	pop	r6
    6d20:	5f 90       	pop	r5
    6d22:	4f 90       	pop	r4
    6d24:	3f 90       	pop	r3
    6d26:	2f 90       	pop	r2
    6d28:	08 95       	ret

00006d2a <__subsf3>:
    6d2a:	50 58       	subi	r21, 0x80	; 128

00006d2c <__addsf3>:
    6d2c:	bb 27       	eor	r27, r27
    6d2e:	aa 27       	eor	r26, r26
    6d30:	0e 94 ad 36 	call	0x6d5a	; 0x6d5a <__addsf3x>
    6d34:	0c 94 65 38 	jmp	0x70ca	; 0x70ca <__fp_round>
    6d38:	0e 94 57 38 	call	0x70ae	; 0x70ae <__fp_pscA>
    6d3c:	38 f0       	brcs	.+14     	; 0x6d4c <__addsf3+0x20>
    6d3e:	0e 94 5e 38 	call	0x70bc	; 0x70bc <__fp_pscB>
    6d42:	20 f0       	brcs	.+8      	; 0x6d4c <__addsf3+0x20>
    6d44:	39 f4       	brne	.+14     	; 0x6d54 <__addsf3+0x28>
    6d46:	9f 3f       	cpi	r25, 0xFF	; 255
    6d48:	19 f4       	brne	.+6      	; 0x6d50 <__addsf3+0x24>
    6d4a:	26 f4       	brtc	.+8      	; 0x6d54 <__addsf3+0x28>
    6d4c:	0c 94 54 38 	jmp	0x70a8	; 0x70a8 <__fp_nan>
    6d50:	0e f4       	brtc	.+2      	; 0x6d54 <__addsf3+0x28>
    6d52:	e0 95       	com	r30
    6d54:	e7 fb       	bst	r30, 7
    6d56:	0c 94 4e 38 	jmp	0x709c	; 0x709c <__fp_inf>

00006d5a <__addsf3x>:
    6d5a:	e9 2f       	mov	r30, r25
    6d5c:	0e 94 76 38 	call	0x70ec	; 0x70ec <__fp_split3>
    6d60:	58 f3       	brcs	.-42     	; 0x6d38 <__addsf3+0xc>
    6d62:	ba 17       	cp	r27, r26
    6d64:	62 07       	cpc	r22, r18
    6d66:	73 07       	cpc	r23, r19
    6d68:	84 07       	cpc	r24, r20
    6d6a:	95 07       	cpc	r25, r21
    6d6c:	20 f0       	brcs	.+8      	; 0x6d76 <__addsf3x+0x1c>
    6d6e:	79 f4       	brne	.+30     	; 0x6d8e <__addsf3x+0x34>
    6d70:	a6 f5       	brtc	.+104    	; 0x6dda <__addsf3x+0x80>
    6d72:	0c 94 98 38 	jmp	0x7130	; 0x7130 <__fp_zero>
    6d76:	0e f4       	brtc	.+2      	; 0x6d7a <__addsf3x+0x20>
    6d78:	e0 95       	com	r30
    6d7a:	0b 2e       	mov	r0, r27
    6d7c:	ba 2f       	mov	r27, r26
    6d7e:	a0 2d       	mov	r26, r0
    6d80:	0b 01       	movw	r0, r22
    6d82:	b9 01       	movw	r22, r18
    6d84:	90 01       	movw	r18, r0
    6d86:	0c 01       	movw	r0, r24
    6d88:	ca 01       	movw	r24, r20
    6d8a:	a0 01       	movw	r20, r0
    6d8c:	11 24       	eor	r1, r1
    6d8e:	ff 27       	eor	r31, r31
    6d90:	59 1b       	sub	r21, r25
    6d92:	99 f0       	breq	.+38     	; 0x6dba <__addsf3x+0x60>
    6d94:	59 3f       	cpi	r21, 0xF9	; 249
    6d96:	50 f4       	brcc	.+20     	; 0x6dac <__addsf3x+0x52>
    6d98:	50 3e       	cpi	r21, 0xE0	; 224
    6d9a:	68 f1       	brcs	.+90     	; 0x6df6 <__addsf3x+0x9c>
    6d9c:	1a 16       	cp	r1, r26
    6d9e:	f0 40       	sbci	r31, 0x00	; 0
    6da0:	a2 2f       	mov	r26, r18
    6da2:	23 2f       	mov	r18, r19
    6da4:	34 2f       	mov	r19, r20
    6da6:	44 27       	eor	r20, r20
    6da8:	58 5f       	subi	r21, 0xF8	; 248
    6daa:	f3 cf       	rjmp	.-26     	; 0x6d92 <__addsf3x+0x38>
    6dac:	46 95       	lsr	r20
    6dae:	37 95       	ror	r19
    6db0:	27 95       	ror	r18
    6db2:	a7 95       	ror	r26
    6db4:	f0 40       	sbci	r31, 0x00	; 0
    6db6:	53 95       	inc	r21
    6db8:	c9 f7       	brne	.-14     	; 0x6dac <__addsf3x+0x52>
    6dba:	7e f4       	brtc	.+30     	; 0x6dda <__addsf3x+0x80>
    6dbc:	1f 16       	cp	r1, r31
    6dbe:	ba 0b       	sbc	r27, r26
    6dc0:	62 0b       	sbc	r22, r18
    6dc2:	73 0b       	sbc	r23, r19
    6dc4:	84 0b       	sbc	r24, r20
    6dc6:	ba f0       	brmi	.+46     	; 0x6df6 <__addsf3x+0x9c>
    6dc8:	91 50       	subi	r25, 0x01	; 1
    6dca:	a1 f0       	breq	.+40     	; 0x6df4 <__addsf3x+0x9a>
    6dcc:	ff 0f       	add	r31, r31
    6dce:	bb 1f       	adc	r27, r27
    6dd0:	66 1f       	adc	r22, r22
    6dd2:	77 1f       	adc	r23, r23
    6dd4:	88 1f       	adc	r24, r24
    6dd6:	c2 f7       	brpl	.-16     	; 0x6dc8 <__addsf3x+0x6e>
    6dd8:	0e c0       	rjmp	.+28     	; 0x6df6 <__addsf3x+0x9c>
    6dda:	ba 0f       	add	r27, r26
    6ddc:	62 1f       	adc	r22, r18
    6dde:	73 1f       	adc	r23, r19
    6de0:	84 1f       	adc	r24, r20
    6de2:	48 f4       	brcc	.+18     	; 0x6df6 <__addsf3x+0x9c>
    6de4:	87 95       	ror	r24
    6de6:	77 95       	ror	r23
    6de8:	67 95       	ror	r22
    6dea:	b7 95       	ror	r27
    6dec:	f7 95       	ror	r31
    6dee:	9e 3f       	cpi	r25, 0xFE	; 254
    6df0:	08 f0       	brcs	.+2      	; 0x6df4 <__addsf3x+0x9a>
    6df2:	b0 cf       	rjmp	.-160    	; 0x6d54 <__addsf3+0x28>
    6df4:	93 95       	inc	r25
    6df6:	88 0f       	add	r24, r24
    6df8:	08 f0       	brcs	.+2      	; 0x6dfc <__addsf3x+0xa2>
    6dfa:	99 27       	eor	r25, r25
    6dfc:	ee 0f       	add	r30, r30
    6dfe:	97 95       	ror	r25
    6e00:	87 95       	ror	r24
    6e02:	08 95       	ret

00006e04 <__cmpsf2>:
    6e04:	0e 94 2a 38 	call	0x7054	; 0x7054 <__fp_cmp>
    6e08:	08 f4       	brcc	.+2      	; 0x6e0c <__cmpsf2+0x8>
    6e0a:	81 e0       	ldi	r24, 0x01	; 1
    6e0c:	08 95       	ret

00006e0e <__divsf3>:
    6e0e:	0e 94 1b 37 	call	0x6e36	; 0x6e36 <__divsf3x>
    6e12:	0c 94 65 38 	jmp	0x70ca	; 0x70ca <__fp_round>
    6e16:	0e 94 5e 38 	call	0x70bc	; 0x70bc <__fp_pscB>
    6e1a:	58 f0       	brcs	.+22     	; 0x6e32 <__divsf3+0x24>
    6e1c:	0e 94 57 38 	call	0x70ae	; 0x70ae <__fp_pscA>
    6e20:	40 f0       	brcs	.+16     	; 0x6e32 <__divsf3+0x24>
    6e22:	29 f4       	brne	.+10     	; 0x6e2e <__divsf3+0x20>
    6e24:	5f 3f       	cpi	r21, 0xFF	; 255
    6e26:	29 f0       	breq	.+10     	; 0x6e32 <__divsf3+0x24>
    6e28:	0c 94 4e 38 	jmp	0x709c	; 0x709c <__fp_inf>
    6e2c:	51 11       	cpse	r21, r1
    6e2e:	0c 94 99 38 	jmp	0x7132	; 0x7132 <__fp_szero>
    6e32:	0c 94 54 38 	jmp	0x70a8	; 0x70a8 <__fp_nan>

00006e36 <__divsf3x>:
    6e36:	0e 94 76 38 	call	0x70ec	; 0x70ec <__fp_split3>
    6e3a:	68 f3       	brcs	.-38     	; 0x6e16 <__divsf3+0x8>

00006e3c <__divsf3_pse>:
    6e3c:	99 23       	and	r25, r25
    6e3e:	b1 f3       	breq	.-20     	; 0x6e2c <__divsf3+0x1e>
    6e40:	55 23       	and	r21, r21
    6e42:	91 f3       	breq	.-28     	; 0x6e28 <__divsf3+0x1a>
    6e44:	95 1b       	sub	r25, r21
    6e46:	55 0b       	sbc	r21, r21
    6e48:	bb 27       	eor	r27, r27
    6e4a:	aa 27       	eor	r26, r26
    6e4c:	62 17       	cp	r22, r18
    6e4e:	73 07       	cpc	r23, r19
    6e50:	84 07       	cpc	r24, r20
    6e52:	38 f0       	brcs	.+14     	; 0x6e62 <__divsf3_pse+0x26>
    6e54:	9f 5f       	subi	r25, 0xFF	; 255
    6e56:	5f 4f       	sbci	r21, 0xFF	; 255
    6e58:	22 0f       	add	r18, r18
    6e5a:	33 1f       	adc	r19, r19
    6e5c:	44 1f       	adc	r20, r20
    6e5e:	aa 1f       	adc	r26, r26
    6e60:	a9 f3       	breq	.-22     	; 0x6e4c <__divsf3_pse+0x10>
    6e62:	35 d0       	rcall	.+106    	; 0x6ece <__divsf3_pse+0x92>
    6e64:	0e 2e       	mov	r0, r30
    6e66:	3a f0       	brmi	.+14     	; 0x6e76 <__divsf3_pse+0x3a>
    6e68:	e0 e8       	ldi	r30, 0x80	; 128
    6e6a:	32 d0       	rcall	.+100    	; 0x6ed0 <__divsf3_pse+0x94>
    6e6c:	91 50       	subi	r25, 0x01	; 1
    6e6e:	50 40       	sbci	r21, 0x00	; 0
    6e70:	e6 95       	lsr	r30
    6e72:	00 1c       	adc	r0, r0
    6e74:	ca f7       	brpl	.-14     	; 0x6e68 <__divsf3_pse+0x2c>
    6e76:	2b d0       	rcall	.+86     	; 0x6ece <__divsf3_pse+0x92>
    6e78:	fe 2f       	mov	r31, r30
    6e7a:	29 d0       	rcall	.+82     	; 0x6ece <__divsf3_pse+0x92>
    6e7c:	66 0f       	add	r22, r22
    6e7e:	77 1f       	adc	r23, r23
    6e80:	88 1f       	adc	r24, r24
    6e82:	bb 1f       	adc	r27, r27
    6e84:	26 17       	cp	r18, r22
    6e86:	37 07       	cpc	r19, r23
    6e88:	48 07       	cpc	r20, r24
    6e8a:	ab 07       	cpc	r26, r27
    6e8c:	b0 e8       	ldi	r27, 0x80	; 128
    6e8e:	09 f0       	breq	.+2      	; 0x6e92 <__divsf3_pse+0x56>
    6e90:	bb 0b       	sbc	r27, r27
    6e92:	80 2d       	mov	r24, r0
    6e94:	bf 01       	movw	r22, r30
    6e96:	ff 27       	eor	r31, r31
    6e98:	93 58       	subi	r25, 0x83	; 131
    6e9a:	5f 4f       	sbci	r21, 0xFF	; 255
    6e9c:	3a f0       	brmi	.+14     	; 0x6eac <__divsf3_pse+0x70>
    6e9e:	9e 3f       	cpi	r25, 0xFE	; 254
    6ea0:	51 05       	cpc	r21, r1
    6ea2:	78 f0       	brcs	.+30     	; 0x6ec2 <__divsf3_pse+0x86>
    6ea4:	0c 94 4e 38 	jmp	0x709c	; 0x709c <__fp_inf>
    6ea8:	0c 94 99 38 	jmp	0x7132	; 0x7132 <__fp_szero>
    6eac:	5f 3f       	cpi	r21, 0xFF	; 255
    6eae:	e4 f3       	brlt	.-8      	; 0x6ea8 <__divsf3_pse+0x6c>
    6eb0:	98 3e       	cpi	r25, 0xE8	; 232
    6eb2:	d4 f3       	brlt	.-12     	; 0x6ea8 <__divsf3_pse+0x6c>
    6eb4:	86 95       	lsr	r24
    6eb6:	77 95       	ror	r23
    6eb8:	67 95       	ror	r22
    6eba:	b7 95       	ror	r27
    6ebc:	f7 95       	ror	r31
    6ebe:	9f 5f       	subi	r25, 0xFF	; 255
    6ec0:	c9 f7       	brne	.-14     	; 0x6eb4 <__divsf3_pse+0x78>
    6ec2:	88 0f       	add	r24, r24
    6ec4:	91 1d       	adc	r25, r1
    6ec6:	96 95       	lsr	r25
    6ec8:	87 95       	ror	r24
    6eca:	97 f9       	bld	r25, 7
    6ecc:	08 95       	ret
    6ece:	e1 e0       	ldi	r30, 0x01	; 1
    6ed0:	66 0f       	add	r22, r22
    6ed2:	77 1f       	adc	r23, r23
    6ed4:	88 1f       	adc	r24, r24
    6ed6:	bb 1f       	adc	r27, r27
    6ed8:	62 17       	cp	r22, r18
    6eda:	73 07       	cpc	r23, r19
    6edc:	84 07       	cpc	r24, r20
    6ede:	ba 07       	cpc	r27, r26
    6ee0:	20 f0       	brcs	.+8      	; 0x6eea <__divsf3_pse+0xae>
    6ee2:	62 1b       	sub	r22, r18
    6ee4:	73 0b       	sbc	r23, r19
    6ee6:	84 0b       	sbc	r24, r20
    6ee8:	ba 0b       	sbc	r27, r26
    6eea:	ee 1f       	adc	r30, r30
    6eec:	88 f7       	brcc	.-30     	; 0x6ed0 <__divsf3_pse+0x94>
    6eee:	e0 95       	com	r30
    6ef0:	08 95       	ret

00006ef2 <__fixsfsi>:
    6ef2:	0e 94 80 37 	call	0x6f00	; 0x6f00 <__fixunssfsi>
    6ef6:	68 94       	set
    6ef8:	b1 11       	cpse	r27, r1
    6efa:	0c 94 99 38 	jmp	0x7132	; 0x7132 <__fp_szero>
    6efe:	08 95       	ret

00006f00 <__fixunssfsi>:
    6f00:	0e 94 7e 38 	call	0x70fc	; 0x70fc <__fp_splitA>
    6f04:	88 f0       	brcs	.+34     	; 0x6f28 <__fixunssfsi+0x28>
    6f06:	9f 57       	subi	r25, 0x7F	; 127
    6f08:	98 f0       	brcs	.+38     	; 0x6f30 <__fixunssfsi+0x30>
    6f0a:	b9 2f       	mov	r27, r25
    6f0c:	99 27       	eor	r25, r25
    6f0e:	b7 51       	subi	r27, 0x17	; 23
    6f10:	b0 f0       	brcs	.+44     	; 0x6f3e <__fixunssfsi+0x3e>
    6f12:	e1 f0       	breq	.+56     	; 0x6f4c <__fixunssfsi+0x4c>
    6f14:	66 0f       	add	r22, r22
    6f16:	77 1f       	adc	r23, r23
    6f18:	88 1f       	adc	r24, r24
    6f1a:	99 1f       	adc	r25, r25
    6f1c:	1a f0       	brmi	.+6      	; 0x6f24 <__fixunssfsi+0x24>
    6f1e:	ba 95       	dec	r27
    6f20:	c9 f7       	brne	.-14     	; 0x6f14 <__fixunssfsi+0x14>
    6f22:	14 c0       	rjmp	.+40     	; 0x6f4c <__fixunssfsi+0x4c>
    6f24:	b1 30       	cpi	r27, 0x01	; 1
    6f26:	91 f0       	breq	.+36     	; 0x6f4c <__fixunssfsi+0x4c>
    6f28:	0e 94 98 38 	call	0x7130	; 0x7130 <__fp_zero>
    6f2c:	b1 e0       	ldi	r27, 0x01	; 1
    6f2e:	08 95       	ret
    6f30:	0c 94 98 38 	jmp	0x7130	; 0x7130 <__fp_zero>
    6f34:	67 2f       	mov	r22, r23
    6f36:	78 2f       	mov	r23, r24
    6f38:	88 27       	eor	r24, r24
    6f3a:	b8 5f       	subi	r27, 0xF8	; 248
    6f3c:	39 f0       	breq	.+14     	; 0x6f4c <__fixunssfsi+0x4c>
    6f3e:	b9 3f       	cpi	r27, 0xF9	; 249
    6f40:	cc f3       	brlt	.-14     	; 0x6f34 <__fixunssfsi+0x34>
    6f42:	86 95       	lsr	r24
    6f44:	77 95       	ror	r23
    6f46:	67 95       	ror	r22
    6f48:	b3 95       	inc	r27
    6f4a:	d9 f7       	brne	.-10     	; 0x6f42 <__fixunssfsi+0x42>
    6f4c:	3e f4       	brtc	.+14     	; 0x6f5c <__fixunssfsi+0x5c>
    6f4e:	90 95       	com	r25
    6f50:	80 95       	com	r24
    6f52:	70 95       	com	r23
    6f54:	61 95       	neg	r22
    6f56:	7f 4f       	sbci	r23, 0xFF	; 255
    6f58:	8f 4f       	sbci	r24, 0xFF	; 255
    6f5a:	9f 4f       	sbci	r25, 0xFF	; 255
    6f5c:	08 95       	ret

00006f5e <__floatunsisf>:
    6f5e:	e8 94       	clt
    6f60:	09 c0       	rjmp	.+18     	; 0x6f74 <__floatsisf+0x12>

00006f62 <__floatsisf>:
    6f62:	97 fb       	bst	r25, 7
    6f64:	3e f4       	brtc	.+14     	; 0x6f74 <__floatsisf+0x12>
    6f66:	90 95       	com	r25
    6f68:	80 95       	com	r24
    6f6a:	70 95       	com	r23
    6f6c:	61 95       	neg	r22
    6f6e:	7f 4f       	sbci	r23, 0xFF	; 255
    6f70:	8f 4f       	sbci	r24, 0xFF	; 255
    6f72:	9f 4f       	sbci	r25, 0xFF	; 255
    6f74:	99 23       	and	r25, r25
    6f76:	a9 f0       	breq	.+42     	; 0x6fa2 <__floatsisf+0x40>
    6f78:	f9 2f       	mov	r31, r25
    6f7a:	96 e9       	ldi	r25, 0x96	; 150
    6f7c:	bb 27       	eor	r27, r27
    6f7e:	93 95       	inc	r25
    6f80:	f6 95       	lsr	r31
    6f82:	87 95       	ror	r24
    6f84:	77 95       	ror	r23
    6f86:	67 95       	ror	r22
    6f88:	b7 95       	ror	r27
    6f8a:	f1 11       	cpse	r31, r1
    6f8c:	f8 cf       	rjmp	.-16     	; 0x6f7e <__floatsisf+0x1c>
    6f8e:	fa f4       	brpl	.+62     	; 0x6fce <__floatsisf+0x6c>
    6f90:	bb 0f       	add	r27, r27
    6f92:	11 f4       	brne	.+4      	; 0x6f98 <__floatsisf+0x36>
    6f94:	60 ff       	sbrs	r22, 0
    6f96:	1b c0       	rjmp	.+54     	; 0x6fce <__floatsisf+0x6c>
    6f98:	6f 5f       	subi	r22, 0xFF	; 255
    6f9a:	7f 4f       	sbci	r23, 0xFF	; 255
    6f9c:	8f 4f       	sbci	r24, 0xFF	; 255
    6f9e:	9f 4f       	sbci	r25, 0xFF	; 255
    6fa0:	16 c0       	rjmp	.+44     	; 0x6fce <__floatsisf+0x6c>
    6fa2:	88 23       	and	r24, r24
    6fa4:	11 f0       	breq	.+4      	; 0x6faa <__floatsisf+0x48>
    6fa6:	96 e9       	ldi	r25, 0x96	; 150
    6fa8:	11 c0       	rjmp	.+34     	; 0x6fcc <__floatsisf+0x6a>
    6faa:	77 23       	and	r23, r23
    6fac:	21 f0       	breq	.+8      	; 0x6fb6 <__floatsisf+0x54>
    6fae:	9e e8       	ldi	r25, 0x8E	; 142
    6fb0:	87 2f       	mov	r24, r23
    6fb2:	76 2f       	mov	r23, r22
    6fb4:	05 c0       	rjmp	.+10     	; 0x6fc0 <__floatsisf+0x5e>
    6fb6:	66 23       	and	r22, r22
    6fb8:	71 f0       	breq	.+28     	; 0x6fd6 <__floatsisf+0x74>
    6fba:	96 e8       	ldi	r25, 0x86	; 134
    6fbc:	86 2f       	mov	r24, r22
    6fbe:	70 e0       	ldi	r23, 0x00	; 0
    6fc0:	60 e0       	ldi	r22, 0x00	; 0
    6fc2:	2a f0       	brmi	.+10     	; 0x6fce <__floatsisf+0x6c>
    6fc4:	9a 95       	dec	r25
    6fc6:	66 0f       	add	r22, r22
    6fc8:	77 1f       	adc	r23, r23
    6fca:	88 1f       	adc	r24, r24
    6fcc:	da f7       	brpl	.-10     	; 0x6fc4 <__floatsisf+0x62>
    6fce:	88 0f       	add	r24, r24
    6fd0:	96 95       	lsr	r25
    6fd2:	87 95       	ror	r24
    6fd4:	97 f9       	bld	r25, 7
    6fd6:	08 95       	ret

00006fd8 <__floatundisf>:
    6fd8:	e8 94       	clt

00006fda <__fp_di2sf>:
    6fda:	f9 2f       	mov	r31, r25
    6fdc:	96 eb       	ldi	r25, 0xB6	; 182
    6fde:	ff 23       	and	r31, r31
    6fe0:	81 f0       	breq	.+32     	; 0x7002 <__fp_di2sf+0x28>
    6fe2:	12 16       	cp	r1, r18
    6fe4:	13 06       	cpc	r1, r19
    6fe6:	14 06       	cpc	r1, r20
    6fe8:	44 0b       	sbc	r20, r20
    6fea:	93 95       	inc	r25
    6fec:	f6 95       	lsr	r31
    6fee:	87 95       	ror	r24
    6ff0:	77 95       	ror	r23
    6ff2:	67 95       	ror	r22
    6ff4:	57 95       	ror	r21
    6ff6:	40 40       	sbci	r20, 0x00	; 0
    6ff8:	ff 23       	and	r31, r31
    6ffa:	b9 f7       	brne	.-18     	; 0x6fea <__fp_di2sf+0x10>
    6ffc:	1b c0       	rjmp	.+54     	; 0x7034 <__fp_di2sf+0x5a>
    6ffe:	99 27       	eor	r25, r25
    7000:	08 95       	ret
    7002:	88 23       	and	r24, r24
    7004:	51 f4       	brne	.+20     	; 0x701a <__fp_di2sf+0x40>
    7006:	98 50       	subi	r25, 0x08	; 8
    7008:	d2 f7       	brpl	.-12     	; 0x6ffe <__fp_di2sf+0x24>
    700a:	87 2b       	or	r24, r23
    700c:	76 2f       	mov	r23, r22
    700e:	65 2f       	mov	r22, r21
    7010:	54 2f       	mov	r21, r20
    7012:	43 2f       	mov	r20, r19
    7014:	32 2f       	mov	r19, r18
    7016:	20 e0       	ldi	r18, 0x00	; 0
    7018:	b1 f3       	breq	.-20     	; 0x7006 <__fp_di2sf+0x2c>
    701a:	12 16       	cp	r1, r18
    701c:	13 06       	cpc	r1, r19
    701e:	14 06       	cpc	r1, r20
    7020:	44 0b       	sbc	r20, r20
    7022:	88 23       	and	r24, r24
    7024:	3a f0       	brmi	.+14     	; 0x7034 <__fp_di2sf+0x5a>
    7026:	9a 95       	dec	r25
    7028:	44 0f       	add	r20, r20
    702a:	55 1f       	adc	r21, r21
    702c:	66 1f       	adc	r22, r22
    702e:	77 1f       	adc	r23, r23
    7030:	88 1f       	adc	r24, r24
    7032:	ca f7       	brpl	.-14     	; 0x7026 <__fp_di2sf+0x4c>
    7034:	55 23       	and	r21, r21
    7036:	4a f4       	brpl	.+18     	; 0x704a <__fp_di2sf+0x70>
    7038:	44 0f       	add	r20, r20
    703a:	55 1f       	adc	r21, r21
    703c:	11 f4       	brne	.+4      	; 0x7042 <__fp_di2sf+0x68>
    703e:	60 ff       	sbrs	r22, 0
    7040:	04 c0       	rjmp	.+8      	; 0x704a <__fp_di2sf+0x70>
    7042:	6f 5f       	subi	r22, 0xFF	; 255
    7044:	7f 4f       	sbci	r23, 0xFF	; 255
    7046:	8f 4f       	sbci	r24, 0xFF	; 255
    7048:	9f 4f       	sbci	r25, 0xFF	; 255
    704a:	88 0f       	add	r24, r24
    704c:	96 95       	lsr	r25
    704e:	87 95       	ror	r24
    7050:	97 f9       	bld	r25, 7
    7052:	08 95       	ret

00007054 <__fp_cmp>:
    7054:	99 0f       	add	r25, r25
    7056:	00 08       	sbc	r0, r0
    7058:	55 0f       	add	r21, r21
    705a:	aa 0b       	sbc	r26, r26
    705c:	e0 e8       	ldi	r30, 0x80	; 128
    705e:	fe ef       	ldi	r31, 0xFE	; 254
    7060:	16 16       	cp	r1, r22
    7062:	17 06       	cpc	r1, r23
    7064:	e8 07       	cpc	r30, r24
    7066:	f9 07       	cpc	r31, r25
    7068:	c0 f0       	brcs	.+48     	; 0x709a <__fp_cmp+0x46>
    706a:	12 16       	cp	r1, r18
    706c:	13 06       	cpc	r1, r19
    706e:	e4 07       	cpc	r30, r20
    7070:	f5 07       	cpc	r31, r21
    7072:	98 f0       	brcs	.+38     	; 0x709a <__fp_cmp+0x46>
    7074:	62 1b       	sub	r22, r18
    7076:	73 0b       	sbc	r23, r19
    7078:	84 0b       	sbc	r24, r20
    707a:	95 0b       	sbc	r25, r21
    707c:	39 f4       	brne	.+14     	; 0x708c <__fp_cmp+0x38>
    707e:	0a 26       	eor	r0, r26
    7080:	61 f0       	breq	.+24     	; 0x709a <__fp_cmp+0x46>
    7082:	23 2b       	or	r18, r19
    7084:	24 2b       	or	r18, r20
    7086:	25 2b       	or	r18, r21
    7088:	21 f4       	brne	.+8      	; 0x7092 <__fp_cmp+0x3e>
    708a:	08 95       	ret
    708c:	0a 26       	eor	r0, r26
    708e:	09 f4       	brne	.+2      	; 0x7092 <__fp_cmp+0x3e>
    7090:	a1 40       	sbci	r26, 0x01	; 1
    7092:	a6 95       	lsr	r26
    7094:	8f ef       	ldi	r24, 0xFF	; 255
    7096:	81 1d       	adc	r24, r1
    7098:	81 1d       	adc	r24, r1
    709a:	08 95       	ret

0000709c <__fp_inf>:
    709c:	97 f9       	bld	r25, 7
    709e:	9f 67       	ori	r25, 0x7F	; 127
    70a0:	80 e8       	ldi	r24, 0x80	; 128
    70a2:	70 e0       	ldi	r23, 0x00	; 0
    70a4:	60 e0       	ldi	r22, 0x00	; 0
    70a6:	08 95       	ret

000070a8 <__fp_nan>:
    70a8:	9f ef       	ldi	r25, 0xFF	; 255
    70aa:	80 ec       	ldi	r24, 0xC0	; 192
    70ac:	08 95       	ret

000070ae <__fp_pscA>:
    70ae:	00 24       	eor	r0, r0
    70b0:	0a 94       	dec	r0
    70b2:	16 16       	cp	r1, r22
    70b4:	17 06       	cpc	r1, r23
    70b6:	18 06       	cpc	r1, r24
    70b8:	09 06       	cpc	r0, r25
    70ba:	08 95       	ret

000070bc <__fp_pscB>:
    70bc:	00 24       	eor	r0, r0
    70be:	0a 94       	dec	r0
    70c0:	12 16       	cp	r1, r18
    70c2:	13 06       	cpc	r1, r19
    70c4:	14 06       	cpc	r1, r20
    70c6:	05 06       	cpc	r0, r21
    70c8:	08 95       	ret

000070ca <__fp_round>:
    70ca:	09 2e       	mov	r0, r25
    70cc:	03 94       	inc	r0
    70ce:	00 0c       	add	r0, r0
    70d0:	11 f4       	brne	.+4      	; 0x70d6 <__fp_round+0xc>
    70d2:	88 23       	and	r24, r24
    70d4:	52 f0       	brmi	.+20     	; 0x70ea <__fp_round+0x20>
    70d6:	bb 0f       	add	r27, r27
    70d8:	40 f4       	brcc	.+16     	; 0x70ea <__fp_round+0x20>
    70da:	bf 2b       	or	r27, r31
    70dc:	11 f4       	brne	.+4      	; 0x70e2 <__fp_round+0x18>
    70de:	60 ff       	sbrs	r22, 0
    70e0:	04 c0       	rjmp	.+8      	; 0x70ea <__fp_round+0x20>
    70e2:	6f 5f       	subi	r22, 0xFF	; 255
    70e4:	7f 4f       	sbci	r23, 0xFF	; 255
    70e6:	8f 4f       	sbci	r24, 0xFF	; 255
    70e8:	9f 4f       	sbci	r25, 0xFF	; 255
    70ea:	08 95       	ret

000070ec <__fp_split3>:
    70ec:	57 fd       	sbrc	r21, 7
    70ee:	90 58       	subi	r25, 0x80	; 128
    70f0:	44 0f       	add	r20, r20
    70f2:	55 1f       	adc	r21, r21
    70f4:	59 f0       	breq	.+22     	; 0x710c <__fp_splitA+0x10>
    70f6:	5f 3f       	cpi	r21, 0xFF	; 255
    70f8:	71 f0       	breq	.+28     	; 0x7116 <__fp_splitA+0x1a>
    70fa:	47 95       	ror	r20

000070fc <__fp_splitA>:
    70fc:	88 0f       	add	r24, r24
    70fe:	97 fb       	bst	r25, 7
    7100:	99 1f       	adc	r25, r25
    7102:	61 f0       	breq	.+24     	; 0x711c <__fp_splitA+0x20>
    7104:	9f 3f       	cpi	r25, 0xFF	; 255
    7106:	79 f0       	breq	.+30     	; 0x7126 <__fp_splitA+0x2a>
    7108:	87 95       	ror	r24
    710a:	08 95       	ret
    710c:	12 16       	cp	r1, r18
    710e:	13 06       	cpc	r1, r19
    7110:	14 06       	cpc	r1, r20
    7112:	55 1f       	adc	r21, r21
    7114:	f2 cf       	rjmp	.-28     	; 0x70fa <__fp_split3+0xe>
    7116:	46 95       	lsr	r20
    7118:	f1 df       	rcall	.-30     	; 0x70fc <__fp_splitA>
    711a:	08 c0       	rjmp	.+16     	; 0x712c <__fp_splitA+0x30>
    711c:	16 16       	cp	r1, r22
    711e:	17 06       	cpc	r1, r23
    7120:	18 06       	cpc	r1, r24
    7122:	99 1f       	adc	r25, r25
    7124:	f1 cf       	rjmp	.-30     	; 0x7108 <__fp_splitA+0xc>
    7126:	86 95       	lsr	r24
    7128:	71 05       	cpc	r23, r1
    712a:	61 05       	cpc	r22, r1
    712c:	08 94       	sec
    712e:	08 95       	ret

00007130 <__fp_zero>:
    7130:	e8 94       	clt

00007132 <__fp_szero>:
    7132:	bb 27       	eor	r27, r27
    7134:	66 27       	eor	r22, r22
    7136:	77 27       	eor	r23, r23
    7138:	cb 01       	movw	r24, r22
    713a:	97 f9       	bld	r25, 7
    713c:	08 95       	ret

0000713e <__gesf2>:
    713e:	0e 94 2a 38 	call	0x7054	; 0x7054 <__fp_cmp>
    7142:	08 f4       	brcc	.+2      	; 0x7146 <__gesf2+0x8>
    7144:	8f ef       	ldi	r24, 0xFF	; 255
    7146:	08 95       	ret

00007148 <__mulsf3>:
    7148:	0e 94 b7 38 	call	0x716e	; 0x716e <__mulsf3x>
    714c:	0c 94 65 38 	jmp	0x70ca	; 0x70ca <__fp_round>
    7150:	0e 94 57 38 	call	0x70ae	; 0x70ae <__fp_pscA>
    7154:	38 f0       	brcs	.+14     	; 0x7164 <__mulsf3+0x1c>
    7156:	0e 94 5e 38 	call	0x70bc	; 0x70bc <__fp_pscB>
    715a:	20 f0       	brcs	.+8      	; 0x7164 <__mulsf3+0x1c>
    715c:	95 23       	and	r25, r21
    715e:	11 f0       	breq	.+4      	; 0x7164 <__mulsf3+0x1c>
    7160:	0c 94 4e 38 	jmp	0x709c	; 0x709c <__fp_inf>
    7164:	0c 94 54 38 	jmp	0x70a8	; 0x70a8 <__fp_nan>
    7168:	11 24       	eor	r1, r1
    716a:	0c 94 99 38 	jmp	0x7132	; 0x7132 <__fp_szero>

0000716e <__mulsf3x>:
    716e:	0e 94 76 38 	call	0x70ec	; 0x70ec <__fp_split3>
    7172:	70 f3       	brcs	.-36     	; 0x7150 <__mulsf3+0x8>

00007174 <__mulsf3_pse>:
    7174:	95 9f       	mul	r25, r21
    7176:	c1 f3       	breq	.-16     	; 0x7168 <__mulsf3+0x20>
    7178:	95 0f       	add	r25, r21
    717a:	50 e0       	ldi	r21, 0x00	; 0
    717c:	55 1f       	adc	r21, r21
    717e:	62 9f       	mul	r22, r18
    7180:	f0 01       	movw	r30, r0
    7182:	72 9f       	mul	r23, r18
    7184:	bb 27       	eor	r27, r27
    7186:	f0 0d       	add	r31, r0
    7188:	b1 1d       	adc	r27, r1
    718a:	63 9f       	mul	r22, r19
    718c:	aa 27       	eor	r26, r26
    718e:	f0 0d       	add	r31, r0
    7190:	b1 1d       	adc	r27, r1
    7192:	aa 1f       	adc	r26, r26
    7194:	64 9f       	mul	r22, r20
    7196:	66 27       	eor	r22, r22
    7198:	b0 0d       	add	r27, r0
    719a:	a1 1d       	adc	r26, r1
    719c:	66 1f       	adc	r22, r22
    719e:	82 9f       	mul	r24, r18
    71a0:	22 27       	eor	r18, r18
    71a2:	b0 0d       	add	r27, r0
    71a4:	a1 1d       	adc	r26, r1
    71a6:	62 1f       	adc	r22, r18
    71a8:	73 9f       	mul	r23, r19
    71aa:	b0 0d       	add	r27, r0
    71ac:	a1 1d       	adc	r26, r1
    71ae:	62 1f       	adc	r22, r18
    71b0:	83 9f       	mul	r24, r19
    71b2:	a0 0d       	add	r26, r0
    71b4:	61 1d       	adc	r22, r1
    71b6:	22 1f       	adc	r18, r18
    71b8:	74 9f       	mul	r23, r20
    71ba:	33 27       	eor	r19, r19
    71bc:	a0 0d       	add	r26, r0
    71be:	61 1d       	adc	r22, r1
    71c0:	23 1f       	adc	r18, r19
    71c2:	84 9f       	mul	r24, r20
    71c4:	60 0d       	add	r22, r0
    71c6:	21 1d       	adc	r18, r1
    71c8:	82 2f       	mov	r24, r18
    71ca:	76 2f       	mov	r23, r22
    71cc:	6a 2f       	mov	r22, r26
    71ce:	11 24       	eor	r1, r1
    71d0:	9f 57       	subi	r25, 0x7F	; 127
    71d2:	50 40       	sbci	r21, 0x00	; 0
    71d4:	9a f0       	brmi	.+38     	; 0x71fc <__mulsf3_pse+0x88>
    71d6:	f1 f0       	breq	.+60     	; 0x7214 <__mulsf3_pse+0xa0>
    71d8:	88 23       	and	r24, r24
    71da:	4a f0       	brmi	.+18     	; 0x71ee <__mulsf3_pse+0x7a>
    71dc:	ee 0f       	add	r30, r30
    71de:	ff 1f       	adc	r31, r31
    71e0:	bb 1f       	adc	r27, r27
    71e2:	66 1f       	adc	r22, r22
    71e4:	77 1f       	adc	r23, r23
    71e6:	88 1f       	adc	r24, r24
    71e8:	91 50       	subi	r25, 0x01	; 1
    71ea:	50 40       	sbci	r21, 0x00	; 0
    71ec:	a9 f7       	brne	.-22     	; 0x71d8 <__mulsf3_pse+0x64>
    71ee:	9e 3f       	cpi	r25, 0xFE	; 254
    71f0:	51 05       	cpc	r21, r1
    71f2:	80 f0       	brcs	.+32     	; 0x7214 <__mulsf3_pse+0xa0>
    71f4:	0c 94 4e 38 	jmp	0x709c	; 0x709c <__fp_inf>
    71f8:	0c 94 99 38 	jmp	0x7132	; 0x7132 <__fp_szero>
    71fc:	5f 3f       	cpi	r21, 0xFF	; 255
    71fe:	e4 f3       	brlt	.-8      	; 0x71f8 <__mulsf3_pse+0x84>
    7200:	98 3e       	cpi	r25, 0xE8	; 232
    7202:	d4 f3       	brlt	.-12     	; 0x71f8 <__mulsf3_pse+0x84>
    7204:	86 95       	lsr	r24
    7206:	77 95       	ror	r23
    7208:	67 95       	ror	r22
    720a:	b7 95       	ror	r27
    720c:	f7 95       	ror	r31
    720e:	e7 95       	ror	r30
    7210:	9f 5f       	subi	r25, 0xFF	; 255
    7212:	c1 f7       	brne	.-16     	; 0x7204 <__mulsf3_pse+0x90>
    7214:	fe 2b       	or	r31, r30
    7216:	88 0f       	add	r24, r24
    7218:	91 1d       	adc	r25, r1
    721a:	96 95       	lsr	r25
    721c:	87 95       	ror	r24
    721e:	97 f9       	bld	r25, 7
    7220:	08 95       	ret

00007222 <vfprintf>:
    7222:	2f 92       	push	r2
    7224:	3f 92       	push	r3
    7226:	4f 92       	push	r4
    7228:	5f 92       	push	r5
    722a:	6f 92       	push	r6
    722c:	7f 92       	push	r7
    722e:	8f 92       	push	r8
    7230:	9f 92       	push	r9
    7232:	af 92       	push	r10
    7234:	bf 92       	push	r11
    7236:	cf 92       	push	r12
    7238:	df 92       	push	r13
    723a:	ef 92       	push	r14
    723c:	ff 92       	push	r15
    723e:	0f 93       	push	r16
    7240:	1f 93       	push	r17
    7242:	cf 93       	push	r28
    7244:	df 93       	push	r29
    7246:	cd b7       	in	r28, 0x3d	; 61
    7248:	de b7       	in	r29, 0x3e	; 62
    724a:	60 97       	sbiw	r28, 0x10	; 16
    724c:	cd bf       	out	0x3d, r28	; 61
    724e:	de bf       	out	0x3e, r29	; 62
    7250:	7c 01       	movw	r14, r24
    7252:	1b 01       	movw	r2, r22
    7254:	6a 01       	movw	r12, r20
    7256:	fc 01       	movw	r30, r24
    7258:	16 82       	std	Z+6, r1	; 0x06
    725a:	17 82       	std	Z+7, r1	; 0x07
    725c:	83 81       	ldd	r24, Z+3	; 0x03
    725e:	81 ff       	sbrs	r24, 1
    7260:	44 c3       	rjmp	.+1672   	; 0x78ea <vfprintf+0x6c8>
    7262:	9e 01       	movw	r18, r28
    7264:	2f 5f       	subi	r18, 0xFF	; 255
    7266:	3f 4f       	sbci	r19, 0xFF	; 255
    7268:	39 01       	movw	r6, r18
    726a:	f7 01       	movw	r30, r14
    726c:	93 81       	ldd	r25, Z+3	; 0x03
    726e:	f1 01       	movw	r30, r2
    7270:	93 fd       	sbrc	r25, 3
    7272:	85 91       	lpm	r24, Z+
    7274:	93 ff       	sbrs	r25, 3
    7276:	81 91       	ld	r24, Z+
    7278:	1f 01       	movw	r2, r30
    727a:	88 23       	and	r24, r24
    727c:	09 f4       	brne	.+2      	; 0x7280 <vfprintf+0x5e>
    727e:	31 c3       	rjmp	.+1634   	; 0x78e2 <vfprintf+0x6c0>
    7280:	85 32       	cpi	r24, 0x25	; 37
    7282:	39 f4       	brne	.+14     	; 0x7292 <vfprintf+0x70>
    7284:	93 fd       	sbrc	r25, 3
    7286:	85 91       	lpm	r24, Z+
    7288:	93 ff       	sbrs	r25, 3
    728a:	81 91       	ld	r24, Z+
    728c:	1f 01       	movw	r2, r30
    728e:	85 32       	cpi	r24, 0x25	; 37
    7290:	39 f4       	brne	.+14     	; 0x72a0 <vfprintf+0x7e>
    7292:	b7 01       	movw	r22, r14
    7294:	90 e0       	ldi	r25, 0x00	; 0
    7296:	0e 94 71 3f 	call	0x7ee2	; 0x7ee2 <fputc>
    729a:	56 01       	movw	r10, r12
    729c:	65 01       	movw	r12, r10
    729e:	e5 cf       	rjmp	.-54     	; 0x726a <vfprintf+0x48>
    72a0:	10 e0       	ldi	r17, 0x00	; 0
    72a2:	51 2c       	mov	r5, r1
    72a4:	91 2c       	mov	r9, r1
    72a6:	ff e1       	ldi	r31, 0x1F	; 31
    72a8:	f9 15       	cp	r31, r9
    72aa:	d8 f0       	brcs	.+54     	; 0x72e2 <vfprintf+0xc0>
    72ac:	8b 32       	cpi	r24, 0x2B	; 43
    72ae:	79 f0       	breq	.+30     	; 0x72ce <vfprintf+0xac>
    72b0:	38 f4       	brcc	.+14     	; 0x72c0 <vfprintf+0x9e>
    72b2:	80 32       	cpi	r24, 0x20	; 32
    72b4:	79 f0       	breq	.+30     	; 0x72d4 <vfprintf+0xb2>
    72b6:	83 32       	cpi	r24, 0x23	; 35
    72b8:	a1 f4       	brne	.+40     	; 0x72e2 <vfprintf+0xc0>
    72ba:	f9 2d       	mov	r31, r9
    72bc:	f0 61       	ori	r31, 0x10	; 16
    72be:	2e c0       	rjmp	.+92     	; 0x731c <vfprintf+0xfa>
    72c0:	8d 32       	cpi	r24, 0x2D	; 45
    72c2:	61 f0       	breq	.+24     	; 0x72dc <vfprintf+0xba>
    72c4:	80 33       	cpi	r24, 0x30	; 48
    72c6:	69 f4       	brne	.+26     	; 0x72e2 <vfprintf+0xc0>
    72c8:	29 2d       	mov	r18, r9
    72ca:	21 60       	ori	r18, 0x01	; 1
    72cc:	2d c0       	rjmp	.+90     	; 0x7328 <vfprintf+0x106>
    72ce:	39 2d       	mov	r19, r9
    72d0:	32 60       	ori	r19, 0x02	; 2
    72d2:	93 2e       	mov	r9, r19
    72d4:	89 2d       	mov	r24, r9
    72d6:	84 60       	ori	r24, 0x04	; 4
    72d8:	98 2e       	mov	r9, r24
    72da:	2a c0       	rjmp	.+84     	; 0x7330 <vfprintf+0x10e>
    72dc:	e9 2d       	mov	r30, r9
    72de:	e8 60       	ori	r30, 0x08	; 8
    72e0:	15 c0       	rjmp	.+42     	; 0x730c <vfprintf+0xea>
    72e2:	97 fc       	sbrc	r9, 7
    72e4:	2d c0       	rjmp	.+90     	; 0x7340 <vfprintf+0x11e>
    72e6:	20 ed       	ldi	r18, 0xD0	; 208
    72e8:	28 0f       	add	r18, r24
    72ea:	2a 30       	cpi	r18, 0x0A	; 10
    72ec:	88 f4       	brcc	.+34     	; 0x7310 <vfprintf+0xee>
    72ee:	96 fe       	sbrs	r9, 6
    72f0:	06 c0       	rjmp	.+12     	; 0x72fe <vfprintf+0xdc>
    72f2:	3a e0       	ldi	r19, 0x0A	; 10
    72f4:	13 9f       	mul	r17, r19
    72f6:	20 0d       	add	r18, r0
    72f8:	11 24       	eor	r1, r1
    72fa:	12 2f       	mov	r17, r18
    72fc:	19 c0       	rjmp	.+50     	; 0x7330 <vfprintf+0x10e>
    72fe:	8a e0       	ldi	r24, 0x0A	; 10
    7300:	58 9e       	mul	r5, r24
    7302:	20 0d       	add	r18, r0
    7304:	11 24       	eor	r1, r1
    7306:	52 2e       	mov	r5, r18
    7308:	e9 2d       	mov	r30, r9
    730a:	e0 62       	ori	r30, 0x20	; 32
    730c:	9e 2e       	mov	r9, r30
    730e:	10 c0       	rjmp	.+32     	; 0x7330 <vfprintf+0x10e>
    7310:	8e 32       	cpi	r24, 0x2E	; 46
    7312:	31 f4       	brne	.+12     	; 0x7320 <vfprintf+0xfe>
    7314:	96 fc       	sbrc	r9, 6
    7316:	e5 c2       	rjmp	.+1482   	; 0x78e2 <vfprintf+0x6c0>
    7318:	f9 2d       	mov	r31, r9
    731a:	f0 64       	ori	r31, 0x40	; 64
    731c:	9f 2e       	mov	r9, r31
    731e:	08 c0       	rjmp	.+16     	; 0x7330 <vfprintf+0x10e>
    7320:	8c 36       	cpi	r24, 0x6C	; 108
    7322:	21 f4       	brne	.+8      	; 0x732c <vfprintf+0x10a>
    7324:	29 2d       	mov	r18, r9
    7326:	20 68       	ori	r18, 0x80	; 128
    7328:	92 2e       	mov	r9, r18
    732a:	02 c0       	rjmp	.+4      	; 0x7330 <vfprintf+0x10e>
    732c:	88 36       	cpi	r24, 0x68	; 104
    732e:	41 f4       	brne	.+16     	; 0x7340 <vfprintf+0x11e>
    7330:	f1 01       	movw	r30, r2
    7332:	93 fd       	sbrc	r25, 3
    7334:	85 91       	lpm	r24, Z+
    7336:	93 ff       	sbrs	r25, 3
    7338:	81 91       	ld	r24, Z+
    733a:	1f 01       	movw	r2, r30
    733c:	81 11       	cpse	r24, r1
    733e:	b3 cf       	rjmp	.-154    	; 0x72a6 <vfprintf+0x84>
    7340:	9b eb       	ldi	r25, 0xBB	; 187
    7342:	98 0f       	add	r25, r24
    7344:	93 30       	cpi	r25, 0x03	; 3
    7346:	20 f4       	brcc	.+8      	; 0x7350 <vfprintf+0x12e>
    7348:	99 2d       	mov	r25, r9
    734a:	90 61       	ori	r25, 0x10	; 16
    734c:	80 5e       	subi	r24, 0xE0	; 224
    734e:	07 c0       	rjmp	.+14     	; 0x735e <vfprintf+0x13c>
    7350:	9b e9       	ldi	r25, 0x9B	; 155
    7352:	98 0f       	add	r25, r24
    7354:	93 30       	cpi	r25, 0x03	; 3
    7356:	08 f0       	brcs	.+2      	; 0x735a <vfprintf+0x138>
    7358:	66 c1       	rjmp	.+716    	; 0x7626 <vfprintf+0x404>
    735a:	99 2d       	mov	r25, r9
    735c:	9f 7e       	andi	r25, 0xEF	; 239
    735e:	96 ff       	sbrs	r25, 6
    7360:	16 e0       	ldi	r17, 0x06	; 6
    7362:	9f 73       	andi	r25, 0x3F	; 63
    7364:	99 2e       	mov	r9, r25
    7366:	85 36       	cpi	r24, 0x65	; 101
    7368:	19 f4       	brne	.+6      	; 0x7370 <vfprintf+0x14e>
    736a:	90 64       	ori	r25, 0x40	; 64
    736c:	99 2e       	mov	r9, r25
    736e:	08 c0       	rjmp	.+16     	; 0x7380 <vfprintf+0x15e>
    7370:	86 36       	cpi	r24, 0x66	; 102
    7372:	21 f4       	brne	.+8      	; 0x737c <vfprintf+0x15a>
    7374:	39 2f       	mov	r19, r25
    7376:	30 68       	ori	r19, 0x80	; 128
    7378:	93 2e       	mov	r9, r19
    737a:	02 c0       	rjmp	.+4      	; 0x7380 <vfprintf+0x15e>
    737c:	11 11       	cpse	r17, r1
    737e:	11 50       	subi	r17, 0x01	; 1
    7380:	97 fe       	sbrs	r9, 7
    7382:	07 c0       	rjmp	.+14     	; 0x7392 <vfprintf+0x170>
    7384:	1c 33       	cpi	r17, 0x3C	; 60
    7386:	50 f4       	brcc	.+20     	; 0x739c <vfprintf+0x17a>
    7388:	44 24       	eor	r4, r4
    738a:	43 94       	inc	r4
    738c:	41 0e       	add	r4, r17
    738e:	27 e0       	ldi	r18, 0x07	; 7
    7390:	0b c0       	rjmp	.+22     	; 0x73a8 <vfprintf+0x186>
    7392:	18 30       	cpi	r17, 0x08	; 8
    7394:	38 f0       	brcs	.+14     	; 0x73a4 <vfprintf+0x182>
    7396:	27 e0       	ldi	r18, 0x07	; 7
    7398:	17 e0       	ldi	r17, 0x07	; 7
    739a:	05 c0       	rjmp	.+10     	; 0x73a6 <vfprintf+0x184>
    739c:	27 e0       	ldi	r18, 0x07	; 7
    739e:	9c e3       	ldi	r25, 0x3C	; 60
    73a0:	49 2e       	mov	r4, r25
    73a2:	02 c0       	rjmp	.+4      	; 0x73a8 <vfprintf+0x186>
    73a4:	21 2f       	mov	r18, r17
    73a6:	41 2c       	mov	r4, r1
    73a8:	56 01       	movw	r10, r12
    73aa:	84 e0       	ldi	r24, 0x04	; 4
    73ac:	a8 0e       	add	r10, r24
    73ae:	b1 1c       	adc	r11, r1
    73b0:	f6 01       	movw	r30, r12
    73b2:	60 81       	ld	r22, Z
    73b4:	71 81       	ldd	r23, Z+1	; 0x01
    73b6:	82 81       	ldd	r24, Z+2	; 0x02
    73b8:	93 81       	ldd	r25, Z+3	; 0x03
    73ba:	04 2d       	mov	r16, r4
    73bc:	a3 01       	movw	r20, r6
    73be:	0e 94 38 3e 	call	0x7c70	; 0x7c70 <__ftoa_engine>
    73c2:	6c 01       	movw	r12, r24
    73c4:	f9 81       	ldd	r31, Y+1	; 0x01
    73c6:	fc 87       	std	Y+12, r31	; 0x0c
    73c8:	f0 ff       	sbrs	r31, 0
    73ca:	02 c0       	rjmp	.+4      	; 0x73d0 <vfprintf+0x1ae>
    73cc:	f3 ff       	sbrs	r31, 3
    73ce:	06 c0       	rjmp	.+12     	; 0x73dc <vfprintf+0x1ba>
    73d0:	91 fc       	sbrc	r9, 1
    73d2:	06 c0       	rjmp	.+12     	; 0x73e0 <vfprintf+0x1be>
    73d4:	92 fe       	sbrs	r9, 2
    73d6:	06 c0       	rjmp	.+12     	; 0x73e4 <vfprintf+0x1c2>
    73d8:	00 e2       	ldi	r16, 0x20	; 32
    73da:	05 c0       	rjmp	.+10     	; 0x73e6 <vfprintf+0x1c4>
    73dc:	0d e2       	ldi	r16, 0x2D	; 45
    73de:	03 c0       	rjmp	.+6      	; 0x73e6 <vfprintf+0x1c4>
    73e0:	0b e2       	ldi	r16, 0x2B	; 43
    73e2:	01 c0       	rjmp	.+2      	; 0x73e6 <vfprintf+0x1c4>
    73e4:	00 e0       	ldi	r16, 0x00	; 0
    73e6:	8c 85       	ldd	r24, Y+12	; 0x0c
    73e8:	8c 70       	andi	r24, 0x0C	; 12
    73ea:	19 f0       	breq	.+6      	; 0x73f2 <vfprintf+0x1d0>
    73ec:	01 11       	cpse	r16, r1
    73ee:	5a c2       	rjmp	.+1204   	; 0x78a4 <vfprintf+0x682>
    73f0:	9b c2       	rjmp	.+1334   	; 0x7928 <vfprintf+0x706>
    73f2:	97 fe       	sbrs	r9, 7
    73f4:	10 c0       	rjmp	.+32     	; 0x7416 <vfprintf+0x1f4>
    73f6:	4c 0c       	add	r4, r12
    73f8:	fc 85       	ldd	r31, Y+12	; 0x0c
    73fa:	f4 ff       	sbrs	r31, 4
    73fc:	04 c0       	rjmp	.+8      	; 0x7406 <vfprintf+0x1e4>
    73fe:	8a 81       	ldd	r24, Y+2	; 0x02
    7400:	81 33       	cpi	r24, 0x31	; 49
    7402:	09 f4       	brne	.+2      	; 0x7406 <vfprintf+0x1e4>
    7404:	4a 94       	dec	r4
    7406:	14 14       	cp	r1, r4
    7408:	74 f5       	brge	.+92     	; 0x7466 <vfprintf+0x244>
    740a:	28 e0       	ldi	r18, 0x08	; 8
    740c:	24 15       	cp	r18, r4
    740e:	78 f5       	brcc	.+94     	; 0x746e <vfprintf+0x24c>
    7410:	88 e0       	ldi	r24, 0x08	; 8
    7412:	48 2e       	mov	r4, r24
    7414:	2c c0       	rjmp	.+88     	; 0x746e <vfprintf+0x24c>
    7416:	96 fc       	sbrc	r9, 6
    7418:	2a c0       	rjmp	.+84     	; 0x746e <vfprintf+0x24c>
    741a:	81 2f       	mov	r24, r17
    741c:	90 e0       	ldi	r25, 0x00	; 0
    741e:	8c 15       	cp	r24, r12
    7420:	9d 05       	cpc	r25, r13
    7422:	9c f0       	brlt	.+38     	; 0x744a <vfprintf+0x228>
    7424:	3c ef       	ldi	r19, 0xFC	; 252
    7426:	c3 16       	cp	r12, r19
    7428:	3f ef       	ldi	r19, 0xFF	; 255
    742a:	d3 06       	cpc	r13, r19
    742c:	74 f0       	brlt	.+28     	; 0x744a <vfprintf+0x228>
    742e:	89 2d       	mov	r24, r9
    7430:	80 68       	ori	r24, 0x80	; 128
    7432:	98 2e       	mov	r9, r24
    7434:	0a c0       	rjmp	.+20     	; 0x744a <vfprintf+0x228>
    7436:	e2 e0       	ldi	r30, 0x02	; 2
    7438:	f0 e0       	ldi	r31, 0x00	; 0
    743a:	ec 0f       	add	r30, r28
    743c:	fd 1f       	adc	r31, r29
    743e:	e1 0f       	add	r30, r17
    7440:	f1 1d       	adc	r31, r1
    7442:	80 81       	ld	r24, Z
    7444:	80 33       	cpi	r24, 0x30	; 48
    7446:	19 f4       	brne	.+6      	; 0x744e <vfprintf+0x22c>
    7448:	11 50       	subi	r17, 0x01	; 1
    744a:	11 11       	cpse	r17, r1
    744c:	f4 cf       	rjmp	.-24     	; 0x7436 <vfprintf+0x214>
    744e:	97 fe       	sbrs	r9, 7
    7450:	0e c0       	rjmp	.+28     	; 0x746e <vfprintf+0x24c>
    7452:	44 24       	eor	r4, r4
    7454:	43 94       	inc	r4
    7456:	41 0e       	add	r4, r17
    7458:	81 2f       	mov	r24, r17
    745a:	90 e0       	ldi	r25, 0x00	; 0
    745c:	c8 16       	cp	r12, r24
    745e:	d9 06       	cpc	r13, r25
    7460:	2c f4       	brge	.+10     	; 0x746c <vfprintf+0x24a>
    7462:	1c 19       	sub	r17, r12
    7464:	04 c0       	rjmp	.+8      	; 0x746e <vfprintf+0x24c>
    7466:	44 24       	eor	r4, r4
    7468:	43 94       	inc	r4
    746a:	01 c0       	rjmp	.+2      	; 0x746e <vfprintf+0x24c>
    746c:	10 e0       	ldi	r17, 0x00	; 0
    746e:	97 fe       	sbrs	r9, 7
    7470:	06 c0       	rjmp	.+12     	; 0x747e <vfprintf+0x25c>
    7472:	1c 14       	cp	r1, r12
    7474:	1d 04       	cpc	r1, r13
    7476:	34 f4       	brge	.+12     	; 0x7484 <vfprintf+0x262>
    7478:	c6 01       	movw	r24, r12
    747a:	01 96       	adiw	r24, 0x01	; 1
    747c:	05 c0       	rjmp	.+10     	; 0x7488 <vfprintf+0x266>
    747e:	85 e0       	ldi	r24, 0x05	; 5
    7480:	90 e0       	ldi	r25, 0x00	; 0
    7482:	02 c0       	rjmp	.+4      	; 0x7488 <vfprintf+0x266>
    7484:	81 e0       	ldi	r24, 0x01	; 1
    7486:	90 e0       	ldi	r25, 0x00	; 0
    7488:	01 11       	cpse	r16, r1
    748a:	01 96       	adiw	r24, 0x01	; 1
    748c:	11 23       	and	r17, r17
    748e:	31 f0       	breq	.+12     	; 0x749c <vfprintf+0x27a>
    7490:	21 2f       	mov	r18, r17
    7492:	30 e0       	ldi	r19, 0x00	; 0
    7494:	2f 5f       	subi	r18, 0xFF	; 255
    7496:	3f 4f       	sbci	r19, 0xFF	; 255
    7498:	82 0f       	add	r24, r18
    749a:	93 1f       	adc	r25, r19
    749c:	25 2d       	mov	r18, r5
    749e:	30 e0       	ldi	r19, 0x00	; 0
    74a0:	82 17       	cp	r24, r18
    74a2:	93 07       	cpc	r25, r19
    74a4:	14 f4       	brge	.+4      	; 0x74aa <vfprintf+0x288>
    74a6:	58 1a       	sub	r5, r24
    74a8:	01 c0       	rjmp	.+2      	; 0x74ac <vfprintf+0x28a>
    74aa:	51 2c       	mov	r5, r1
    74ac:	89 2d       	mov	r24, r9
    74ae:	89 70       	andi	r24, 0x09	; 9
    74b0:	49 f4       	brne	.+18     	; 0x74c4 <vfprintf+0x2a2>
    74b2:	55 20       	and	r5, r5
    74b4:	39 f0       	breq	.+14     	; 0x74c4 <vfprintf+0x2a2>
    74b6:	b7 01       	movw	r22, r14
    74b8:	80 e2       	ldi	r24, 0x20	; 32
    74ba:	90 e0       	ldi	r25, 0x00	; 0
    74bc:	0e 94 71 3f 	call	0x7ee2	; 0x7ee2 <fputc>
    74c0:	5a 94       	dec	r5
    74c2:	f7 cf       	rjmp	.-18     	; 0x74b2 <vfprintf+0x290>
    74c4:	00 23       	and	r16, r16
    74c6:	29 f0       	breq	.+10     	; 0x74d2 <vfprintf+0x2b0>
    74c8:	b7 01       	movw	r22, r14
    74ca:	80 2f       	mov	r24, r16
    74cc:	90 e0       	ldi	r25, 0x00	; 0
    74ce:	0e 94 71 3f 	call	0x7ee2	; 0x7ee2 <fputc>
    74d2:	93 fc       	sbrc	r9, 3
    74d4:	09 c0       	rjmp	.+18     	; 0x74e8 <vfprintf+0x2c6>
    74d6:	55 20       	and	r5, r5
    74d8:	39 f0       	breq	.+14     	; 0x74e8 <vfprintf+0x2c6>
    74da:	b7 01       	movw	r22, r14
    74dc:	80 e3       	ldi	r24, 0x30	; 48
    74de:	90 e0       	ldi	r25, 0x00	; 0
    74e0:	0e 94 71 3f 	call	0x7ee2	; 0x7ee2 <fputc>
    74e4:	5a 94       	dec	r5
    74e6:	f7 cf       	rjmp	.-18     	; 0x74d6 <vfprintf+0x2b4>
    74e8:	97 fe       	sbrs	r9, 7
    74ea:	4c c0       	rjmp	.+152    	; 0x7584 <vfprintf+0x362>
    74ec:	46 01       	movw	r8, r12
    74ee:	d7 fe       	sbrs	r13, 7
    74f0:	02 c0       	rjmp	.+4      	; 0x74f6 <vfprintf+0x2d4>
    74f2:	81 2c       	mov	r8, r1
    74f4:	91 2c       	mov	r9, r1
    74f6:	c6 01       	movw	r24, r12
    74f8:	88 19       	sub	r24, r8
    74fa:	99 09       	sbc	r25, r9
    74fc:	f3 01       	movw	r30, r6
    74fe:	e8 0f       	add	r30, r24
    7500:	f9 1f       	adc	r31, r25
    7502:	ed 87       	std	Y+13, r30	; 0x0d
    7504:	fe 87       	std	Y+14, r31	; 0x0e
    7506:	96 01       	movw	r18, r12
    7508:	24 19       	sub	r18, r4
    750a:	31 09       	sbc	r19, r1
    750c:	2f 87       	std	Y+15, r18	; 0x0f
    750e:	38 8b       	std	Y+16, r19	; 0x10
    7510:	01 2f       	mov	r16, r17
    7512:	10 e0       	ldi	r17, 0x00	; 0
    7514:	11 95       	neg	r17
    7516:	01 95       	neg	r16
    7518:	11 09       	sbc	r17, r1
    751a:	3f ef       	ldi	r19, 0xFF	; 255
    751c:	83 16       	cp	r8, r19
    751e:	93 06       	cpc	r9, r19
    7520:	29 f4       	brne	.+10     	; 0x752c <vfprintf+0x30a>
    7522:	b7 01       	movw	r22, r14
    7524:	8e e2       	ldi	r24, 0x2E	; 46
    7526:	90 e0       	ldi	r25, 0x00	; 0
    7528:	0e 94 71 3f 	call	0x7ee2	; 0x7ee2 <fputc>
    752c:	c8 14       	cp	r12, r8
    752e:	d9 04       	cpc	r13, r9
    7530:	4c f0       	brlt	.+18     	; 0x7544 <vfprintf+0x322>
    7532:	8f 85       	ldd	r24, Y+15	; 0x0f
    7534:	98 89       	ldd	r25, Y+16	; 0x10
    7536:	88 15       	cp	r24, r8
    7538:	99 05       	cpc	r25, r9
    753a:	24 f4       	brge	.+8      	; 0x7544 <vfprintf+0x322>
    753c:	ed 85       	ldd	r30, Y+13	; 0x0d
    753e:	fe 85       	ldd	r31, Y+14	; 0x0e
    7540:	81 81       	ldd	r24, Z+1	; 0x01
    7542:	01 c0       	rjmp	.+2      	; 0x7546 <vfprintf+0x324>
    7544:	80 e3       	ldi	r24, 0x30	; 48
    7546:	f1 e0       	ldi	r31, 0x01	; 1
    7548:	8f 1a       	sub	r8, r31
    754a:	91 08       	sbc	r9, r1
    754c:	2d 85       	ldd	r18, Y+13	; 0x0d
    754e:	3e 85       	ldd	r19, Y+14	; 0x0e
    7550:	2f 5f       	subi	r18, 0xFF	; 255
    7552:	3f 4f       	sbci	r19, 0xFF	; 255
    7554:	2d 87       	std	Y+13, r18	; 0x0d
    7556:	3e 87       	std	Y+14, r19	; 0x0e
    7558:	80 16       	cp	r8, r16
    755a:	91 06       	cpc	r9, r17
    755c:	2c f0       	brlt	.+10     	; 0x7568 <vfprintf+0x346>
    755e:	b7 01       	movw	r22, r14
    7560:	90 e0       	ldi	r25, 0x00	; 0
    7562:	0e 94 71 3f 	call	0x7ee2	; 0x7ee2 <fputc>
    7566:	d9 cf       	rjmp	.-78     	; 0x751a <vfprintf+0x2f8>
    7568:	c8 14       	cp	r12, r8
    756a:	d9 04       	cpc	r13, r9
    756c:	41 f4       	brne	.+16     	; 0x757e <vfprintf+0x35c>
    756e:	9a 81       	ldd	r25, Y+2	; 0x02
    7570:	96 33       	cpi	r25, 0x36	; 54
    7572:	20 f4       	brcc	.+8      	; 0x757c <vfprintf+0x35a>
    7574:	95 33       	cpi	r25, 0x35	; 53
    7576:	19 f4       	brne	.+6      	; 0x757e <vfprintf+0x35c>
    7578:	3c 85       	ldd	r19, Y+12	; 0x0c
    757a:	34 ff       	sbrs	r19, 4
    757c:	81 e3       	ldi	r24, 0x31	; 49
    757e:	b7 01       	movw	r22, r14
    7580:	90 e0       	ldi	r25, 0x00	; 0
    7582:	4e c0       	rjmp	.+156    	; 0x7620 <vfprintf+0x3fe>
    7584:	8a 81       	ldd	r24, Y+2	; 0x02
    7586:	81 33       	cpi	r24, 0x31	; 49
    7588:	19 f0       	breq	.+6      	; 0x7590 <vfprintf+0x36e>
    758a:	9c 85       	ldd	r25, Y+12	; 0x0c
    758c:	9f 7e       	andi	r25, 0xEF	; 239
    758e:	9c 87       	std	Y+12, r25	; 0x0c
    7590:	b7 01       	movw	r22, r14
    7592:	90 e0       	ldi	r25, 0x00	; 0
    7594:	0e 94 71 3f 	call	0x7ee2	; 0x7ee2 <fputc>
    7598:	11 11       	cpse	r17, r1
    759a:	05 c0       	rjmp	.+10     	; 0x75a6 <vfprintf+0x384>
    759c:	94 fc       	sbrc	r9, 4
    759e:	18 c0       	rjmp	.+48     	; 0x75d0 <vfprintf+0x3ae>
    75a0:	85 e6       	ldi	r24, 0x65	; 101
    75a2:	90 e0       	ldi	r25, 0x00	; 0
    75a4:	17 c0       	rjmp	.+46     	; 0x75d4 <vfprintf+0x3b2>
    75a6:	b7 01       	movw	r22, r14
    75a8:	8e e2       	ldi	r24, 0x2E	; 46
    75aa:	90 e0       	ldi	r25, 0x00	; 0
    75ac:	0e 94 71 3f 	call	0x7ee2	; 0x7ee2 <fputc>
    75b0:	1e 5f       	subi	r17, 0xFE	; 254
    75b2:	82 e0       	ldi	r24, 0x02	; 2
    75b4:	01 e0       	ldi	r16, 0x01	; 1
    75b6:	08 0f       	add	r16, r24
    75b8:	f3 01       	movw	r30, r6
    75ba:	e8 0f       	add	r30, r24
    75bc:	f1 1d       	adc	r31, r1
    75be:	80 81       	ld	r24, Z
    75c0:	b7 01       	movw	r22, r14
    75c2:	90 e0       	ldi	r25, 0x00	; 0
    75c4:	0e 94 71 3f 	call	0x7ee2	; 0x7ee2 <fputc>
    75c8:	80 2f       	mov	r24, r16
    75ca:	01 13       	cpse	r16, r17
    75cc:	f3 cf       	rjmp	.-26     	; 0x75b4 <vfprintf+0x392>
    75ce:	e6 cf       	rjmp	.-52     	; 0x759c <vfprintf+0x37a>
    75d0:	85 e4       	ldi	r24, 0x45	; 69
    75d2:	90 e0       	ldi	r25, 0x00	; 0
    75d4:	b7 01       	movw	r22, r14
    75d6:	0e 94 71 3f 	call	0x7ee2	; 0x7ee2 <fputc>
    75da:	d7 fc       	sbrc	r13, 7
    75dc:	06 c0       	rjmp	.+12     	; 0x75ea <vfprintf+0x3c8>
    75de:	c1 14       	cp	r12, r1
    75e0:	d1 04       	cpc	r13, r1
    75e2:	41 f4       	brne	.+16     	; 0x75f4 <vfprintf+0x3d2>
    75e4:	ec 85       	ldd	r30, Y+12	; 0x0c
    75e6:	e4 ff       	sbrs	r30, 4
    75e8:	05 c0       	rjmp	.+10     	; 0x75f4 <vfprintf+0x3d2>
    75ea:	d1 94       	neg	r13
    75ec:	c1 94       	neg	r12
    75ee:	d1 08       	sbc	r13, r1
    75f0:	8d e2       	ldi	r24, 0x2D	; 45
    75f2:	01 c0       	rjmp	.+2      	; 0x75f6 <vfprintf+0x3d4>
    75f4:	8b e2       	ldi	r24, 0x2B	; 43
    75f6:	b7 01       	movw	r22, r14
    75f8:	90 e0       	ldi	r25, 0x00	; 0
    75fa:	0e 94 71 3f 	call	0x7ee2	; 0x7ee2 <fputc>
    75fe:	80 e3       	ldi	r24, 0x30	; 48
    7600:	2a e0       	ldi	r18, 0x0A	; 10
    7602:	c2 16       	cp	r12, r18
    7604:	d1 04       	cpc	r13, r1
    7606:	2c f0       	brlt	.+10     	; 0x7612 <vfprintf+0x3f0>
    7608:	8f 5f       	subi	r24, 0xFF	; 255
    760a:	fa e0       	ldi	r31, 0x0A	; 10
    760c:	cf 1a       	sub	r12, r31
    760e:	d1 08       	sbc	r13, r1
    7610:	f7 cf       	rjmp	.-18     	; 0x7600 <vfprintf+0x3de>
    7612:	b7 01       	movw	r22, r14
    7614:	90 e0       	ldi	r25, 0x00	; 0
    7616:	0e 94 71 3f 	call	0x7ee2	; 0x7ee2 <fputc>
    761a:	b7 01       	movw	r22, r14
    761c:	c6 01       	movw	r24, r12
    761e:	c0 96       	adiw	r24, 0x30	; 48
    7620:	0e 94 71 3f 	call	0x7ee2	; 0x7ee2 <fputc>
    7624:	54 c1       	rjmp	.+680    	; 0x78ce <vfprintf+0x6ac>
    7626:	83 36       	cpi	r24, 0x63	; 99
    7628:	31 f0       	breq	.+12     	; 0x7636 <vfprintf+0x414>
    762a:	83 37       	cpi	r24, 0x73	; 115
    762c:	79 f0       	breq	.+30     	; 0x764c <vfprintf+0x42a>
    762e:	83 35       	cpi	r24, 0x53	; 83
    7630:	09 f0       	breq	.+2      	; 0x7634 <vfprintf+0x412>
    7632:	56 c0       	rjmp	.+172    	; 0x76e0 <vfprintf+0x4be>
    7634:	20 c0       	rjmp	.+64     	; 0x7676 <vfprintf+0x454>
    7636:	56 01       	movw	r10, r12
    7638:	32 e0       	ldi	r19, 0x02	; 2
    763a:	a3 0e       	add	r10, r19
    763c:	b1 1c       	adc	r11, r1
    763e:	f6 01       	movw	r30, r12
    7640:	80 81       	ld	r24, Z
    7642:	89 83       	std	Y+1, r24	; 0x01
    7644:	01 e0       	ldi	r16, 0x01	; 1
    7646:	10 e0       	ldi	r17, 0x00	; 0
    7648:	63 01       	movw	r12, r6
    764a:	12 c0       	rjmp	.+36     	; 0x7670 <vfprintf+0x44e>
    764c:	56 01       	movw	r10, r12
    764e:	f2 e0       	ldi	r31, 0x02	; 2
    7650:	af 0e       	add	r10, r31
    7652:	b1 1c       	adc	r11, r1
    7654:	f6 01       	movw	r30, r12
    7656:	c0 80       	ld	r12, Z
    7658:	d1 80       	ldd	r13, Z+1	; 0x01
    765a:	96 fe       	sbrs	r9, 6
    765c:	03 c0       	rjmp	.+6      	; 0x7664 <vfprintf+0x442>
    765e:	61 2f       	mov	r22, r17
    7660:	70 e0       	ldi	r23, 0x00	; 0
    7662:	02 c0       	rjmp	.+4      	; 0x7668 <vfprintf+0x446>
    7664:	6f ef       	ldi	r22, 0xFF	; 255
    7666:	7f ef       	ldi	r23, 0xFF	; 255
    7668:	c6 01       	movw	r24, r12
    766a:	0e 94 1b 3f 	call	0x7e36	; 0x7e36 <strnlen>
    766e:	8c 01       	movw	r16, r24
    7670:	f9 2d       	mov	r31, r9
    7672:	ff 77       	andi	r31, 0x7F	; 127
    7674:	14 c0       	rjmp	.+40     	; 0x769e <vfprintf+0x47c>
    7676:	56 01       	movw	r10, r12
    7678:	22 e0       	ldi	r18, 0x02	; 2
    767a:	a2 0e       	add	r10, r18
    767c:	b1 1c       	adc	r11, r1
    767e:	f6 01       	movw	r30, r12
    7680:	c0 80       	ld	r12, Z
    7682:	d1 80       	ldd	r13, Z+1	; 0x01
    7684:	96 fe       	sbrs	r9, 6
    7686:	03 c0       	rjmp	.+6      	; 0x768e <vfprintf+0x46c>
    7688:	61 2f       	mov	r22, r17
    768a:	70 e0       	ldi	r23, 0x00	; 0
    768c:	02 c0       	rjmp	.+4      	; 0x7692 <vfprintf+0x470>
    768e:	6f ef       	ldi	r22, 0xFF	; 255
    7690:	7f ef       	ldi	r23, 0xFF	; 255
    7692:	c6 01       	movw	r24, r12
    7694:	0e 94 10 3f 	call	0x7e20	; 0x7e20 <strnlen_P>
    7698:	8c 01       	movw	r16, r24
    769a:	f9 2d       	mov	r31, r9
    769c:	f0 68       	ori	r31, 0x80	; 128
    769e:	9f 2e       	mov	r9, r31
    76a0:	f3 fd       	sbrc	r31, 3
    76a2:	1a c0       	rjmp	.+52     	; 0x76d8 <vfprintf+0x4b6>
    76a4:	85 2d       	mov	r24, r5
    76a6:	90 e0       	ldi	r25, 0x00	; 0
    76a8:	08 17       	cp	r16, r24
    76aa:	19 07       	cpc	r17, r25
    76ac:	a8 f4       	brcc	.+42     	; 0x76d8 <vfprintf+0x4b6>
    76ae:	b7 01       	movw	r22, r14
    76b0:	80 e2       	ldi	r24, 0x20	; 32
    76b2:	90 e0       	ldi	r25, 0x00	; 0
    76b4:	0e 94 71 3f 	call	0x7ee2	; 0x7ee2 <fputc>
    76b8:	5a 94       	dec	r5
    76ba:	f4 cf       	rjmp	.-24     	; 0x76a4 <vfprintf+0x482>
    76bc:	f6 01       	movw	r30, r12
    76be:	97 fc       	sbrc	r9, 7
    76c0:	85 91       	lpm	r24, Z+
    76c2:	97 fe       	sbrs	r9, 7
    76c4:	81 91       	ld	r24, Z+
    76c6:	6f 01       	movw	r12, r30
    76c8:	b7 01       	movw	r22, r14
    76ca:	90 e0       	ldi	r25, 0x00	; 0
    76cc:	0e 94 71 3f 	call	0x7ee2	; 0x7ee2 <fputc>
    76d0:	51 10       	cpse	r5, r1
    76d2:	5a 94       	dec	r5
    76d4:	01 50       	subi	r16, 0x01	; 1
    76d6:	11 09       	sbc	r17, r1
    76d8:	01 15       	cp	r16, r1
    76da:	11 05       	cpc	r17, r1
    76dc:	79 f7       	brne	.-34     	; 0x76bc <vfprintf+0x49a>
    76de:	f7 c0       	rjmp	.+494    	; 0x78ce <vfprintf+0x6ac>
    76e0:	84 36       	cpi	r24, 0x64	; 100
    76e2:	11 f0       	breq	.+4      	; 0x76e8 <vfprintf+0x4c6>
    76e4:	89 36       	cpi	r24, 0x69	; 105
    76e6:	61 f5       	brne	.+88     	; 0x7740 <vfprintf+0x51e>
    76e8:	56 01       	movw	r10, r12
    76ea:	97 fe       	sbrs	r9, 7
    76ec:	09 c0       	rjmp	.+18     	; 0x7700 <vfprintf+0x4de>
    76ee:	24 e0       	ldi	r18, 0x04	; 4
    76f0:	a2 0e       	add	r10, r18
    76f2:	b1 1c       	adc	r11, r1
    76f4:	f6 01       	movw	r30, r12
    76f6:	60 81       	ld	r22, Z
    76f8:	71 81       	ldd	r23, Z+1	; 0x01
    76fa:	82 81       	ldd	r24, Z+2	; 0x02
    76fc:	93 81       	ldd	r25, Z+3	; 0x03
    76fe:	0a c0       	rjmp	.+20     	; 0x7714 <vfprintf+0x4f2>
    7700:	f2 e0       	ldi	r31, 0x02	; 2
    7702:	af 0e       	add	r10, r31
    7704:	b1 1c       	adc	r11, r1
    7706:	f6 01       	movw	r30, r12
    7708:	60 81       	ld	r22, Z
    770a:	71 81       	ldd	r23, Z+1	; 0x01
    770c:	07 2e       	mov	r0, r23
    770e:	00 0c       	add	r0, r0
    7710:	88 0b       	sbc	r24, r24
    7712:	99 0b       	sbc	r25, r25
    7714:	f9 2d       	mov	r31, r9
    7716:	ff 76       	andi	r31, 0x6F	; 111
    7718:	9f 2e       	mov	r9, r31
    771a:	97 ff       	sbrs	r25, 7
    771c:	09 c0       	rjmp	.+18     	; 0x7730 <vfprintf+0x50e>
    771e:	90 95       	com	r25
    7720:	80 95       	com	r24
    7722:	70 95       	com	r23
    7724:	61 95       	neg	r22
    7726:	7f 4f       	sbci	r23, 0xFF	; 255
    7728:	8f 4f       	sbci	r24, 0xFF	; 255
    772a:	9f 4f       	sbci	r25, 0xFF	; 255
    772c:	f0 68       	ori	r31, 0x80	; 128
    772e:	9f 2e       	mov	r9, r31
    7730:	2a e0       	ldi	r18, 0x0A	; 10
    7732:	30 e0       	ldi	r19, 0x00	; 0
    7734:	a3 01       	movw	r20, r6
    7736:	0e 94 f1 3f 	call	0x7fe2	; 0x7fe2 <__ultoa_invert>
    773a:	c8 2e       	mov	r12, r24
    773c:	c6 18       	sub	r12, r6
    773e:	3f c0       	rjmp	.+126    	; 0x77be <vfprintf+0x59c>
    7740:	09 2d       	mov	r16, r9
    7742:	85 37       	cpi	r24, 0x75	; 117
    7744:	21 f4       	brne	.+8      	; 0x774e <vfprintf+0x52c>
    7746:	0f 7e       	andi	r16, 0xEF	; 239
    7748:	2a e0       	ldi	r18, 0x0A	; 10
    774a:	30 e0       	ldi	r19, 0x00	; 0
    774c:	1d c0       	rjmp	.+58     	; 0x7788 <vfprintf+0x566>
    774e:	09 7f       	andi	r16, 0xF9	; 249
    7750:	8f 36       	cpi	r24, 0x6F	; 111
    7752:	91 f0       	breq	.+36     	; 0x7778 <vfprintf+0x556>
    7754:	18 f4       	brcc	.+6      	; 0x775c <vfprintf+0x53a>
    7756:	88 35       	cpi	r24, 0x58	; 88
    7758:	59 f0       	breq	.+22     	; 0x7770 <vfprintf+0x54e>
    775a:	c3 c0       	rjmp	.+390    	; 0x78e2 <vfprintf+0x6c0>
    775c:	80 37       	cpi	r24, 0x70	; 112
    775e:	19 f0       	breq	.+6      	; 0x7766 <vfprintf+0x544>
    7760:	88 37       	cpi	r24, 0x78	; 120
    7762:	11 f0       	breq	.+4      	; 0x7768 <vfprintf+0x546>
    7764:	be c0       	rjmp	.+380    	; 0x78e2 <vfprintf+0x6c0>
    7766:	00 61       	ori	r16, 0x10	; 16
    7768:	04 ff       	sbrs	r16, 4
    776a:	09 c0       	rjmp	.+18     	; 0x777e <vfprintf+0x55c>
    776c:	04 60       	ori	r16, 0x04	; 4
    776e:	07 c0       	rjmp	.+14     	; 0x777e <vfprintf+0x55c>
    7770:	94 fe       	sbrs	r9, 4
    7772:	08 c0       	rjmp	.+16     	; 0x7784 <vfprintf+0x562>
    7774:	06 60       	ori	r16, 0x06	; 6
    7776:	06 c0       	rjmp	.+12     	; 0x7784 <vfprintf+0x562>
    7778:	28 e0       	ldi	r18, 0x08	; 8
    777a:	30 e0       	ldi	r19, 0x00	; 0
    777c:	05 c0       	rjmp	.+10     	; 0x7788 <vfprintf+0x566>
    777e:	20 e1       	ldi	r18, 0x10	; 16
    7780:	30 e0       	ldi	r19, 0x00	; 0
    7782:	02 c0       	rjmp	.+4      	; 0x7788 <vfprintf+0x566>
    7784:	20 e1       	ldi	r18, 0x10	; 16
    7786:	32 e0       	ldi	r19, 0x02	; 2
    7788:	56 01       	movw	r10, r12
    778a:	07 ff       	sbrs	r16, 7
    778c:	09 c0       	rjmp	.+18     	; 0x77a0 <vfprintf+0x57e>
    778e:	84 e0       	ldi	r24, 0x04	; 4
    7790:	a8 0e       	add	r10, r24
    7792:	b1 1c       	adc	r11, r1
    7794:	f6 01       	movw	r30, r12
    7796:	60 81       	ld	r22, Z
    7798:	71 81       	ldd	r23, Z+1	; 0x01
    779a:	82 81       	ldd	r24, Z+2	; 0x02
    779c:	93 81       	ldd	r25, Z+3	; 0x03
    779e:	08 c0       	rjmp	.+16     	; 0x77b0 <vfprintf+0x58e>
    77a0:	f2 e0       	ldi	r31, 0x02	; 2
    77a2:	af 0e       	add	r10, r31
    77a4:	b1 1c       	adc	r11, r1
    77a6:	f6 01       	movw	r30, r12
    77a8:	60 81       	ld	r22, Z
    77aa:	71 81       	ldd	r23, Z+1	; 0x01
    77ac:	80 e0       	ldi	r24, 0x00	; 0
    77ae:	90 e0       	ldi	r25, 0x00	; 0
    77b0:	a3 01       	movw	r20, r6
    77b2:	0e 94 f1 3f 	call	0x7fe2	; 0x7fe2 <__ultoa_invert>
    77b6:	c8 2e       	mov	r12, r24
    77b8:	c6 18       	sub	r12, r6
    77ba:	0f 77       	andi	r16, 0x7F	; 127
    77bc:	90 2e       	mov	r9, r16
    77be:	96 fe       	sbrs	r9, 6
    77c0:	0b c0       	rjmp	.+22     	; 0x77d8 <vfprintf+0x5b6>
    77c2:	09 2d       	mov	r16, r9
    77c4:	0e 7f       	andi	r16, 0xFE	; 254
    77c6:	c1 16       	cp	r12, r17
    77c8:	50 f4       	brcc	.+20     	; 0x77de <vfprintf+0x5bc>
    77ca:	94 fe       	sbrs	r9, 4
    77cc:	0a c0       	rjmp	.+20     	; 0x77e2 <vfprintf+0x5c0>
    77ce:	92 fc       	sbrc	r9, 2
    77d0:	08 c0       	rjmp	.+16     	; 0x77e2 <vfprintf+0x5c0>
    77d2:	09 2d       	mov	r16, r9
    77d4:	0e 7e       	andi	r16, 0xEE	; 238
    77d6:	05 c0       	rjmp	.+10     	; 0x77e2 <vfprintf+0x5c0>
    77d8:	dc 2c       	mov	r13, r12
    77da:	09 2d       	mov	r16, r9
    77dc:	03 c0       	rjmp	.+6      	; 0x77e4 <vfprintf+0x5c2>
    77de:	dc 2c       	mov	r13, r12
    77e0:	01 c0       	rjmp	.+2      	; 0x77e4 <vfprintf+0x5c2>
    77e2:	d1 2e       	mov	r13, r17
    77e4:	04 ff       	sbrs	r16, 4
    77e6:	0d c0       	rjmp	.+26     	; 0x7802 <vfprintf+0x5e0>
    77e8:	fe 01       	movw	r30, r28
    77ea:	ec 0d       	add	r30, r12
    77ec:	f1 1d       	adc	r31, r1
    77ee:	80 81       	ld	r24, Z
    77f0:	80 33       	cpi	r24, 0x30	; 48
    77f2:	11 f4       	brne	.+4      	; 0x77f8 <vfprintf+0x5d6>
    77f4:	09 7e       	andi	r16, 0xE9	; 233
    77f6:	09 c0       	rjmp	.+18     	; 0x780a <vfprintf+0x5e8>
    77f8:	02 ff       	sbrs	r16, 2
    77fa:	06 c0       	rjmp	.+12     	; 0x7808 <vfprintf+0x5e6>
    77fc:	d3 94       	inc	r13
    77fe:	d3 94       	inc	r13
    7800:	04 c0       	rjmp	.+8      	; 0x780a <vfprintf+0x5e8>
    7802:	80 2f       	mov	r24, r16
    7804:	86 78       	andi	r24, 0x86	; 134
    7806:	09 f0       	breq	.+2      	; 0x780a <vfprintf+0x5e8>
    7808:	d3 94       	inc	r13
    780a:	03 fd       	sbrc	r16, 3
    780c:	11 c0       	rjmp	.+34     	; 0x7830 <vfprintf+0x60e>
    780e:	00 ff       	sbrs	r16, 0
    7810:	06 c0       	rjmp	.+12     	; 0x781e <vfprintf+0x5fc>
    7812:	1c 2d       	mov	r17, r12
    7814:	d5 14       	cp	r13, r5
    7816:	80 f4       	brcc	.+32     	; 0x7838 <vfprintf+0x616>
    7818:	15 0d       	add	r17, r5
    781a:	1d 19       	sub	r17, r13
    781c:	0d c0       	rjmp	.+26     	; 0x7838 <vfprintf+0x616>
    781e:	d5 14       	cp	r13, r5
    7820:	58 f4       	brcc	.+22     	; 0x7838 <vfprintf+0x616>
    7822:	b7 01       	movw	r22, r14
    7824:	80 e2       	ldi	r24, 0x20	; 32
    7826:	90 e0       	ldi	r25, 0x00	; 0
    7828:	0e 94 71 3f 	call	0x7ee2	; 0x7ee2 <fputc>
    782c:	d3 94       	inc	r13
    782e:	f7 cf       	rjmp	.-18     	; 0x781e <vfprintf+0x5fc>
    7830:	d5 14       	cp	r13, r5
    7832:	10 f4       	brcc	.+4      	; 0x7838 <vfprintf+0x616>
    7834:	5d 18       	sub	r5, r13
    7836:	01 c0       	rjmp	.+2      	; 0x783a <vfprintf+0x618>
    7838:	51 2c       	mov	r5, r1
    783a:	04 ff       	sbrs	r16, 4
    783c:	10 c0       	rjmp	.+32     	; 0x785e <vfprintf+0x63c>
    783e:	b7 01       	movw	r22, r14
    7840:	80 e3       	ldi	r24, 0x30	; 48
    7842:	90 e0       	ldi	r25, 0x00	; 0
    7844:	0e 94 71 3f 	call	0x7ee2	; 0x7ee2 <fputc>
    7848:	02 ff       	sbrs	r16, 2
    784a:	17 c0       	rjmp	.+46     	; 0x787a <vfprintf+0x658>
    784c:	01 fd       	sbrc	r16, 1
    784e:	03 c0       	rjmp	.+6      	; 0x7856 <vfprintf+0x634>
    7850:	88 e7       	ldi	r24, 0x78	; 120
    7852:	90 e0       	ldi	r25, 0x00	; 0
    7854:	02 c0       	rjmp	.+4      	; 0x785a <vfprintf+0x638>
    7856:	88 e5       	ldi	r24, 0x58	; 88
    7858:	90 e0       	ldi	r25, 0x00	; 0
    785a:	b7 01       	movw	r22, r14
    785c:	0c c0       	rjmp	.+24     	; 0x7876 <vfprintf+0x654>
    785e:	80 2f       	mov	r24, r16
    7860:	86 78       	andi	r24, 0x86	; 134
    7862:	59 f0       	breq	.+22     	; 0x787a <vfprintf+0x658>
    7864:	01 ff       	sbrs	r16, 1
    7866:	02 c0       	rjmp	.+4      	; 0x786c <vfprintf+0x64a>
    7868:	8b e2       	ldi	r24, 0x2B	; 43
    786a:	01 c0       	rjmp	.+2      	; 0x786e <vfprintf+0x64c>
    786c:	80 e2       	ldi	r24, 0x20	; 32
    786e:	07 fd       	sbrc	r16, 7
    7870:	8d e2       	ldi	r24, 0x2D	; 45
    7872:	b7 01       	movw	r22, r14
    7874:	90 e0       	ldi	r25, 0x00	; 0
    7876:	0e 94 71 3f 	call	0x7ee2	; 0x7ee2 <fputc>
    787a:	c1 16       	cp	r12, r17
    787c:	38 f4       	brcc	.+14     	; 0x788c <vfprintf+0x66a>
    787e:	b7 01       	movw	r22, r14
    7880:	80 e3       	ldi	r24, 0x30	; 48
    7882:	90 e0       	ldi	r25, 0x00	; 0
    7884:	0e 94 71 3f 	call	0x7ee2	; 0x7ee2 <fputc>
    7888:	11 50       	subi	r17, 0x01	; 1
    788a:	f7 cf       	rjmp	.-18     	; 0x787a <vfprintf+0x658>
    788c:	ca 94       	dec	r12
    788e:	f3 01       	movw	r30, r6
    7890:	ec 0d       	add	r30, r12
    7892:	f1 1d       	adc	r31, r1
    7894:	80 81       	ld	r24, Z
    7896:	b7 01       	movw	r22, r14
    7898:	90 e0       	ldi	r25, 0x00	; 0
    789a:	0e 94 71 3f 	call	0x7ee2	; 0x7ee2 <fputc>
    789e:	c1 10       	cpse	r12, r1
    78a0:	f5 cf       	rjmp	.-22     	; 0x788c <vfprintf+0x66a>
    78a2:	15 c0       	rjmp	.+42     	; 0x78ce <vfprintf+0x6ac>
    78a4:	f4 e0       	ldi	r31, 0x04	; 4
    78a6:	f5 15       	cp	r31, r5
    78a8:	60 f5       	brcc	.+88     	; 0x7902 <vfprintf+0x6e0>
    78aa:	84 e0       	ldi	r24, 0x04	; 4
    78ac:	58 1a       	sub	r5, r24
    78ae:	93 fe       	sbrs	r9, 3
    78b0:	1f c0       	rjmp	.+62     	; 0x78f0 <vfprintf+0x6ce>
    78b2:	01 11       	cpse	r16, r1
    78b4:	27 c0       	rjmp	.+78     	; 0x7904 <vfprintf+0x6e2>
    78b6:	2c 85       	ldd	r18, Y+12	; 0x0c
    78b8:	23 ff       	sbrs	r18, 3
    78ba:	2a c0       	rjmp	.+84     	; 0x7910 <vfprintf+0x6ee>
    78bc:	0a e3       	ldi	r16, 0x3A	; 58
    78be:	17 e0       	ldi	r17, 0x07	; 7
    78c0:	39 2d       	mov	r19, r9
    78c2:	30 71       	andi	r19, 0x10	; 16
    78c4:	93 2e       	mov	r9, r19
    78c6:	f8 01       	movw	r30, r16
    78c8:	84 91       	lpm	r24, Z
    78ca:	81 11       	cpse	r24, r1
    78cc:	24 c0       	rjmp	.+72     	; 0x7916 <vfprintf+0x6f4>
    78ce:	55 20       	and	r5, r5
    78d0:	09 f4       	brne	.+2      	; 0x78d4 <vfprintf+0x6b2>
    78d2:	e4 cc       	rjmp	.-1592   	; 0x729c <vfprintf+0x7a>
    78d4:	b7 01       	movw	r22, r14
    78d6:	80 e2       	ldi	r24, 0x20	; 32
    78d8:	90 e0       	ldi	r25, 0x00	; 0
    78da:	0e 94 71 3f 	call	0x7ee2	; 0x7ee2 <fputc>
    78de:	5a 94       	dec	r5
    78e0:	f6 cf       	rjmp	.-20     	; 0x78ce <vfprintf+0x6ac>
    78e2:	f7 01       	movw	r30, r14
    78e4:	86 81       	ldd	r24, Z+6	; 0x06
    78e6:	97 81       	ldd	r25, Z+7	; 0x07
    78e8:	26 c0       	rjmp	.+76     	; 0x7936 <vfprintf+0x714>
    78ea:	8f ef       	ldi	r24, 0xFF	; 255
    78ec:	9f ef       	ldi	r25, 0xFF	; 255
    78ee:	23 c0       	rjmp	.+70     	; 0x7936 <vfprintf+0x714>
    78f0:	b7 01       	movw	r22, r14
    78f2:	80 e2       	ldi	r24, 0x20	; 32
    78f4:	90 e0       	ldi	r25, 0x00	; 0
    78f6:	0e 94 71 3f 	call	0x7ee2	; 0x7ee2 <fputc>
    78fa:	5a 94       	dec	r5
    78fc:	51 10       	cpse	r5, r1
    78fe:	f8 cf       	rjmp	.-16     	; 0x78f0 <vfprintf+0x6ce>
    7900:	d8 cf       	rjmp	.-80     	; 0x78b2 <vfprintf+0x690>
    7902:	51 2c       	mov	r5, r1
    7904:	b7 01       	movw	r22, r14
    7906:	80 2f       	mov	r24, r16
    7908:	90 e0       	ldi	r25, 0x00	; 0
    790a:	0e 94 71 3f 	call	0x7ee2	; 0x7ee2 <fputc>
    790e:	d3 cf       	rjmp	.-90     	; 0x78b6 <vfprintf+0x694>
    7910:	0e e3       	ldi	r16, 0x3E	; 62
    7912:	17 e0       	ldi	r17, 0x07	; 7
    7914:	d5 cf       	rjmp	.-86     	; 0x78c0 <vfprintf+0x69e>
    7916:	91 10       	cpse	r9, r1
    7918:	80 52       	subi	r24, 0x20	; 32
    791a:	b7 01       	movw	r22, r14
    791c:	90 e0       	ldi	r25, 0x00	; 0
    791e:	0e 94 71 3f 	call	0x7ee2	; 0x7ee2 <fputc>
    7922:	0f 5f       	subi	r16, 0xFF	; 255
    7924:	1f 4f       	sbci	r17, 0xFF	; 255
    7926:	cf cf       	rjmp	.-98     	; 0x78c6 <vfprintf+0x6a4>
    7928:	23 e0       	ldi	r18, 0x03	; 3
    792a:	25 15       	cp	r18, r5
    792c:	10 f4       	brcc	.+4      	; 0x7932 <vfprintf+0x710>
    792e:	83 e0       	ldi	r24, 0x03	; 3
    7930:	bd cf       	rjmp	.-134    	; 0x78ac <vfprintf+0x68a>
    7932:	51 2c       	mov	r5, r1
    7934:	c0 cf       	rjmp	.-128    	; 0x78b6 <vfprintf+0x694>
    7936:	60 96       	adiw	r28, 0x10	; 16
    7938:	cd bf       	out	0x3d, r28	; 61
    793a:	de bf       	out	0x3e, r29	; 62
    793c:	df 91       	pop	r29
    793e:	cf 91       	pop	r28
    7940:	1f 91       	pop	r17
    7942:	0f 91       	pop	r16
    7944:	ff 90       	pop	r15
    7946:	ef 90       	pop	r14
    7948:	df 90       	pop	r13
    794a:	cf 90       	pop	r12
    794c:	bf 90       	pop	r11
    794e:	af 90       	pop	r10
    7950:	9f 90       	pop	r9
    7952:	8f 90       	pop	r8
    7954:	7f 90       	pop	r7
    7956:	6f 90       	pop	r6
    7958:	5f 90       	pop	r5
    795a:	4f 90       	pop	r4
    795c:	3f 90       	pop	r3
    795e:	2f 90       	pop	r2
    7960:	08 95       	ret

00007962 <__divmodhi4>:
    7962:	97 fb       	bst	r25, 7
    7964:	07 2e       	mov	r0, r23
    7966:	16 f4       	brtc	.+4      	; 0x796c <__divmodhi4+0xa>
    7968:	00 94       	com	r0
    796a:	07 d0       	rcall	.+14     	; 0x797a <__divmodhi4_neg1>
    796c:	77 fd       	sbrc	r23, 7
    796e:	09 d0       	rcall	.+18     	; 0x7982 <__divmodhi4_neg2>
    7970:	0e 94 24 3e 	call	0x7c48	; 0x7c48 <__udivmodhi4>
    7974:	07 fc       	sbrc	r0, 7
    7976:	05 d0       	rcall	.+10     	; 0x7982 <__divmodhi4_neg2>
    7978:	3e f4       	brtc	.+14     	; 0x7988 <__divmodhi4_exit>

0000797a <__divmodhi4_neg1>:
    797a:	90 95       	com	r25
    797c:	81 95       	neg	r24
    797e:	9f 4f       	sbci	r25, 0xFF	; 255
    7980:	08 95       	ret

00007982 <__divmodhi4_neg2>:
    7982:	70 95       	com	r23
    7984:	61 95       	neg	r22
    7986:	7f 4f       	sbci	r23, 0xFF	; 255

00007988 <__divmodhi4_exit>:
    7988:	08 95       	ret

0000798a <__udivmodsi4>:
    798a:	a1 e2       	ldi	r26, 0x21	; 33
    798c:	1a 2e       	mov	r1, r26
    798e:	aa 1b       	sub	r26, r26
    7990:	bb 1b       	sub	r27, r27
    7992:	fd 01       	movw	r30, r26
    7994:	0d c0       	rjmp	.+26     	; 0x79b0 <__udivmodsi4_ep>

00007996 <__udivmodsi4_loop>:
    7996:	aa 1f       	adc	r26, r26
    7998:	bb 1f       	adc	r27, r27
    799a:	ee 1f       	adc	r30, r30
    799c:	ff 1f       	adc	r31, r31
    799e:	a2 17       	cp	r26, r18
    79a0:	b3 07       	cpc	r27, r19
    79a2:	e4 07       	cpc	r30, r20
    79a4:	f5 07       	cpc	r31, r21
    79a6:	20 f0       	brcs	.+8      	; 0x79b0 <__udivmodsi4_ep>
    79a8:	a2 1b       	sub	r26, r18
    79aa:	b3 0b       	sbc	r27, r19
    79ac:	e4 0b       	sbc	r30, r20
    79ae:	f5 0b       	sbc	r31, r21

000079b0 <__udivmodsi4_ep>:
    79b0:	66 1f       	adc	r22, r22
    79b2:	77 1f       	adc	r23, r23
    79b4:	88 1f       	adc	r24, r24
    79b6:	99 1f       	adc	r25, r25
    79b8:	1a 94       	dec	r1
    79ba:	69 f7       	brne	.-38     	; 0x7996 <__udivmodsi4_loop>
    79bc:	60 95       	com	r22
    79be:	70 95       	com	r23
    79c0:	80 95       	com	r24
    79c2:	90 95       	com	r25
    79c4:	9b 01       	movw	r18, r22
    79c6:	ac 01       	movw	r20, r24
    79c8:	bd 01       	movw	r22, r26
    79ca:	cf 01       	movw	r24, r30
    79cc:	08 95       	ret

000079ce <__divmodsi4>:
    79ce:	05 2e       	mov	r0, r21
    79d0:	97 fb       	bst	r25, 7
    79d2:	1e f4       	brtc	.+6      	; 0x79da <__divmodsi4+0xc>
    79d4:	00 94       	com	r0
    79d6:	0e 94 fe 3c 	call	0x79fc	; 0x79fc <__negsi2>
    79da:	57 fd       	sbrc	r21, 7
    79dc:	07 d0       	rcall	.+14     	; 0x79ec <__divmodsi4_neg2>
    79de:	0e 94 c5 3c 	call	0x798a	; 0x798a <__udivmodsi4>
    79e2:	07 fc       	sbrc	r0, 7
    79e4:	03 d0       	rcall	.+6      	; 0x79ec <__divmodsi4_neg2>
    79e6:	4e f4       	brtc	.+18     	; 0x79fa <__divmodsi4_exit>
    79e8:	0c 94 fe 3c 	jmp	0x79fc	; 0x79fc <__negsi2>

000079ec <__divmodsi4_neg2>:
    79ec:	50 95       	com	r21
    79ee:	40 95       	com	r20
    79f0:	30 95       	com	r19
    79f2:	21 95       	neg	r18
    79f4:	3f 4f       	sbci	r19, 0xFF	; 255
    79f6:	4f 4f       	sbci	r20, 0xFF	; 255
    79f8:	5f 4f       	sbci	r21, 0xFF	; 255

000079fa <__divmodsi4_exit>:
    79fa:	08 95       	ret

000079fc <__negsi2>:
    79fc:	90 95       	com	r25
    79fe:	80 95       	com	r24
    7a00:	70 95       	com	r23
    7a02:	61 95       	neg	r22
    7a04:	7f 4f       	sbci	r23, 0xFF	; 255
    7a06:	8f 4f       	sbci	r24, 0xFF	; 255
    7a08:	9f 4f       	sbci	r25, 0xFF	; 255
    7a0a:	08 95       	ret

00007a0c <__tablejump2__>:
    7a0c:	ee 0f       	add	r30, r30
    7a0e:	ff 1f       	adc	r31, r31
    7a10:	00 24       	eor	r0, r0
    7a12:	00 1c       	adc	r0, r0
    7a14:	0b be       	out	0x3b, r0	; 59
    7a16:	07 90       	elpm	r0, Z+
    7a18:	f6 91       	elpm	r31, Z
    7a1a:	e0 2d       	mov	r30, r0
    7a1c:	09 94       	ijmp

00007a1e <__umulhisi3>:
    7a1e:	a2 9f       	mul	r26, r18
    7a20:	b0 01       	movw	r22, r0
    7a22:	b3 9f       	mul	r27, r19
    7a24:	c0 01       	movw	r24, r0
    7a26:	a3 9f       	mul	r26, r19
    7a28:	70 0d       	add	r23, r0
    7a2a:	81 1d       	adc	r24, r1
    7a2c:	11 24       	eor	r1, r1
    7a2e:	91 1d       	adc	r25, r1
    7a30:	b2 9f       	mul	r27, r18
    7a32:	70 0d       	add	r23, r0
    7a34:	81 1d       	adc	r24, r1
    7a36:	11 24       	eor	r1, r1
    7a38:	91 1d       	adc	r25, r1
    7a3a:	08 95       	ret

00007a3c <__muluhisi3>:
    7a3c:	0e 94 0f 3d 	call	0x7a1e	; 0x7a1e <__umulhisi3>
    7a40:	a5 9f       	mul	r26, r21
    7a42:	90 0d       	add	r25, r0
    7a44:	b4 9f       	mul	r27, r20
    7a46:	90 0d       	add	r25, r0
    7a48:	a4 9f       	mul	r26, r20
    7a4a:	80 0d       	add	r24, r0
    7a4c:	91 1d       	adc	r25, r1
    7a4e:	11 24       	eor	r1, r1
    7a50:	08 95       	ret

00007a52 <__muldi3>:
    7a52:	df 93       	push	r29
    7a54:	cf 93       	push	r28
    7a56:	1f 93       	push	r17
    7a58:	0f 93       	push	r16
    7a5a:	9a 9d       	mul	r25, r10
    7a5c:	f0 2d       	mov	r31, r0
    7a5e:	21 9f       	mul	r18, r17
    7a60:	f0 0d       	add	r31, r0
    7a62:	8b 9d       	mul	r24, r11
    7a64:	f0 0d       	add	r31, r0
    7a66:	8a 9d       	mul	r24, r10
    7a68:	e0 2d       	mov	r30, r0
    7a6a:	f1 0d       	add	r31, r1
    7a6c:	03 9f       	mul	r16, r19
    7a6e:	f0 0d       	add	r31, r0
    7a70:	02 9f       	mul	r16, r18
    7a72:	e0 0d       	add	r30, r0
    7a74:	f1 1d       	adc	r31, r1
    7a76:	4e 9d       	mul	r20, r14
    7a78:	e0 0d       	add	r30, r0
    7a7a:	f1 1d       	adc	r31, r1
    7a7c:	5e 9d       	mul	r21, r14
    7a7e:	f0 0d       	add	r31, r0
    7a80:	4f 9d       	mul	r20, r15
    7a82:	f0 0d       	add	r31, r0
    7a84:	7f 93       	push	r23
    7a86:	6f 93       	push	r22
    7a88:	bf 92       	push	r11
    7a8a:	af 92       	push	r10
    7a8c:	5f 93       	push	r21
    7a8e:	4f 93       	push	r20
    7a90:	d5 01       	movw	r26, r10
    7a92:	0e 94 0f 3d 	call	0x7a1e	; 0x7a1e <__umulhisi3>
    7a96:	8b 01       	movw	r16, r22
    7a98:	ac 01       	movw	r20, r24
    7a9a:	d7 01       	movw	r26, r14
    7a9c:	0e 94 0f 3d 	call	0x7a1e	; 0x7a1e <__umulhisi3>
    7aa0:	eb 01       	movw	r28, r22
    7aa2:	e8 0f       	add	r30, r24
    7aa4:	f9 1f       	adc	r31, r25
    7aa6:	d6 01       	movw	r26, r12
    7aa8:	0e 94 79 3d 	call	0x7af2	; 0x7af2 <__muldi3_6>
    7aac:	2f 91       	pop	r18
    7aae:	3f 91       	pop	r19
    7ab0:	d6 01       	movw	r26, r12
    7ab2:	0e 94 0f 3d 	call	0x7a1e	; 0x7a1e <__umulhisi3>
    7ab6:	c6 0f       	add	r28, r22
    7ab8:	d7 1f       	adc	r29, r23
    7aba:	e8 1f       	adc	r30, r24
    7abc:	f9 1f       	adc	r31, r25
    7abe:	af 91       	pop	r26
    7ac0:	bf 91       	pop	r27
    7ac2:	0e 94 79 3d 	call	0x7af2	; 0x7af2 <__muldi3_6>
    7ac6:	2f 91       	pop	r18
    7ac8:	3f 91       	pop	r19
    7aca:	0e 94 0f 3d 	call	0x7a1e	; 0x7a1e <__umulhisi3>
    7ace:	c6 0f       	add	r28, r22
    7ad0:	d7 1f       	adc	r29, r23
    7ad2:	e8 1f       	adc	r30, r24
    7ad4:	f9 1f       	adc	r31, r25
    7ad6:	d6 01       	movw	r26, r12
    7ad8:	0e 94 0f 3d 	call	0x7a1e	; 0x7a1e <__umulhisi3>
    7adc:	e6 0f       	add	r30, r22
    7ade:	f7 1f       	adc	r31, r23
    7ae0:	98 01       	movw	r18, r16
    7ae2:	be 01       	movw	r22, r28
    7ae4:	cf 01       	movw	r24, r30
    7ae6:	11 24       	eor	r1, r1
    7ae8:	0f 91       	pop	r16
    7aea:	1f 91       	pop	r17
    7aec:	cf 91       	pop	r28
    7aee:	df 91       	pop	r29
    7af0:	08 95       	ret

00007af2 <__muldi3_6>:
    7af2:	0e 94 0f 3d 	call	0x7a1e	; 0x7a1e <__umulhisi3>
    7af6:	46 0f       	add	r20, r22
    7af8:	57 1f       	adc	r21, r23
    7afa:	c8 1f       	adc	r28, r24
    7afc:	d9 1f       	adc	r29, r25
    7afe:	08 f4       	brcc	.+2      	; 0x7b02 <__muldi3_6+0x10>
    7b00:	31 96       	adiw	r30, 0x01	; 1
    7b02:	08 95       	ret

00007b04 <__umoddi3>:
    7b04:	68 94       	set
    7b06:	01 c0       	rjmp	.+2      	; 0x7b0a <__udivdi3_umoddi3>

00007b08 <__udivdi3>:
    7b08:	e8 94       	clt

00007b0a <__udivdi3_umoddi3>:
    7b0a:	8f 92       	push	r8
    7b0c:	9f 92       	push	r9
    7b0e:	cf 93       	push	r28
    7b10:	df 93       	push	r29
    7b12:	0e 94 90 3d 	call	0x7b20	; 0x7b20 <__udivmod64>
    7b16:	df 91       	pop	r29
    7b18:	cf 91       	pop	r28
    7b1a:	9f 90       	pop	r9
    7b1c:	8f 90       	pop	r8
    7b1e:	08 95       	ret

00007b20 <__udivmod64>:
    7b20:	88 24       	eor	r8, r8
    7b22:	99 24       	eor	r9, r9
    7b24:	f4 01       	movw	r30, r8
    7b26:	e4 01       	movw	r28, r8
    7b28:	b0 e4       	ldi	r27, 0x40	; 64
    7b2a:	9f 93       	push	r25
    7b2c:	aa 27       	eor	r26, r26
    7b2e:	9a 15       	cp	r25, r10
    7b30:	8b 04       	cpc	r8, r11
    7b32:	9c 04       	cpc	r9, r12
    7b34:	ed 05       	cpc	r30, r13
    7b36:	fe 05       	cpc	r31, r14
    7b38:	cf 05       	cpc	r28, r15
    7b3a:	d0 07       	cpc	r29, r16
    7b3c:	a1 07       	cpc	r26, r17
    7b3e:	98 f4       	brcc	.+38     	; 0x7b66 <__udivmod64+0x46>
    7b40:	ad 2f       	mov	r26, r29
    7b42:	dc 2f       	mov	r29, r28
    7b44:	cf 2f       	mov	r28, r31
    7b46:	fe 2f       	mov	r31, r30
    7b48:	e9 2d       	mov	r30, r9
    7b4a:	98 2c       	mov	r9, r8
    7b4c:	89 2e       	mov	r8, r25
    7b4e:	98 2f       	mov	r25, r24
    7b50:	87 2f       	mov	r24, r23
    7b52:	76 2f       	mov	r23, r22
    7b54:	65 2f       	mov	r22, r21
    7b56:	54 2f       	mov	r21, r20
    7b58:	43 2f       	mov	r20, r19
    7b5a:	32 2f       	mov	r19, r18
    7b5c:	22 27       	eor	r18, r18
    7b5e:	b8 50       	subi	r27, 0x08	; 8
    7b60:	31 f7       	brne	.-52     	; 0x7b2e <__udivmod64+0xe>
    7b62:	bf 91       	pop	r27
    7b64:	27 c0       	rjmp	.+78     	; 0x7bb4 <__udivmod64+0x94>
    7b66:	1b 2e       	mov	r1, r27
    7b68:	bf 91       	pop	r27
    7b6a:	bb 27       	eor	r27, r27
    7b6c:	22 0f       	add	r18, r18
    7b6e:	33 1f       	adc	r19, r19
    7b70:	44 1f       	adc	r20, r20
    7b72:	55 1f       	adc	r21, r21
    7b74:	66 1f       	adc	r22, r22
    7b76:	77 1f       	adc	r23, r23
    7b78:	88 1f       	adc	r24, r24
    7b7a:	99 1f       	adc	r25, r25
    7b7c:	88 1c       	adc	r8, r8
    7b7e:	99 1c       	adc	r9, r9
    7b80:	ee 1f       	adc	r30, r30
    7b82:	ff 1f       	adc	r31, r31
    7b84:	cc 1f       	adc	r28, r28
    7b86:	dd 1f       	adc	r29, r29
    7b88:	aa 1f       	adc	r26, r26
    7b8a:	bb 1f       	adc	r27, r27
    7b8c:	8a 14       	cp	r8, r10
    7b8e:	9b 04       	cpc	r9, r11
    7b90:	ec 05       	cpc	r30, r12
    7b92:	fd 05       	cpc	r31, r13
    7b94:	ce 05       	cpc	r28, r14
    7b96:	df 05       	cpc	r29, r15
    7b98:	a0 07       	cpc	r26, r16
    7b9a:	b1 07       	cpc	r27, r17
    7b9c:	48 f0       	brcs	.+18     	; 0x7bb0 <__udivmod64+0x90>
    7b9e:	8a 18       	sub	r8, r10
    7ba0:	9b 08       	sbc	r9, r11
    7ba2:	ec 09       	sbc	r30, r12
    7ba4:	fd 09       	sbc	r31, r13
    7ba6:	ce 09       	sbc	r28, r14
    7ba8:	df 09       	sbc	r29, r15
    7baa:	a0 0b       	sbc	r26, r16
    7bac:	b1 0b       	sbc	r27, r17
    7bae:	21 60       	ori	r18, 0x01	; 1
    7bb0:	1a 94       	dec	r1
    7bb2:	e1 f6       	brne	.-72     	; 0x7b6c <__udivmod64+0x4c>
    7bb4:	2e f4       	brtc	.+10     	; 0x7bc0 <__udivmod64+0xa0>
    7bb6:	94 01       	movw	r18, r8
    7bb8:	af 01       	movw	r20, r30
    7bba:	be 01       	movw	r22, r28
    7bbc:	cd 01       	movw	r24, r26
    7bbe:	00 0c       	add	r0, r0
    7bc0:	08 95       	ret

00007bc2 <__ashldi3>:
    7bc2:	0f 93       	push	r16
    7bc4:	08 30       	cpi	r16, 0x08	; 8
    7bc6:	90 f0       	brcs	.+36     	; 0x7bec <__ashldi3+0x2a>
    7bc8:	98 2f       	mov	r25, r24
    7bca:	87 2f       	mov	r24, r23
    7bcc:	76 2f       	mov	r23, r22
    7bce:	65 2f       	mov	r22, r21
    7bd0:	54 2f       	mov	r21, r20
    7bd2:	43 2f       	mov	r20, r19
    7bd4:	32 2f       	mov	r19, r18
    7bd6:	22 27       	eor	r18, r18
    7bd8:	08 50       	subi	r16, 0x08	; 8
    7bda:	f4 cf       	rjmp	.-24     	; 0x7bc4 <__ashldi3+0x2>
    7bdc:	22 0f       	add	r18, r18
    7bde:	33 1f       	adc	r19, r19
    7be0:	44 1f       	adc	r20, r20
    7be2:	55 1f       	adc	r21, r21
    7be4:	66 1f       	adc	r22, r22
    7be6:	77 1f       	adc	r23, r23
    7be8:	88 1f       	adc	r24, r24
    7bea:	99 1f       	adc	r25, r25
    7bec:	0a 95       	dec	r16
    7bee:	b2 f7       	brpl	.-20     	; 0x7bdc <__ashldi3+0x1a>
    7bf0:	0f 91       	pop	r16
    7bf2:	08 95       	ret

00007bf4 <__adddi3>:
    7bf4:	2a 0d       	add	r18, r10
    7bf6:	3b 1d       	adc	r19, r11
    7bf8:	4c 1d       	adc	r20, r12
    7bfa:	5d 1d       	adc	r21, r13
    7bfc:	6e 1d       	adc	r22, r14
    7bfe:	7f 1d       	adc	r23, r15
    7c00:	80 1f       	adc	r24, r16
    7c02:	91 1f       	adc	r25, r17
    7c04:	08 95       	ret

00007c06 <__adddi3_s8>:
    7c06:	00 24       	eor	r0, r0
    7c08:	a7 fd       	sbrc	r26, 7
    7c0a:	00 94       	com	r0
    7c0c:	2a 0f       	add	r18, r26
    7c0e:	30 1d       	adc	r19, r0
    7c10:	40 1d       	adc	r20, r0
    7c12:	50 1d       	adc	r21, r0
    7c14:	60 1d       	adc	r22, r0
    7c16:	70 1d       	adc	r23, r0
    7c18:	80 1d       	adc	r24, r0
    7c1a:	90 1d       	adc	r25, r0
    7c1c:	08 95       	ret

00007c1e <__subdi3>:
    7c1e:	2a 19       	sub	r18, r10
    7c20:	3b 09       	sbc	r19, r11
    7c22:	4c 09       	sbc	r20, r12
    7c24:	5d 09       	sbc	r21, r13
    7c26:	6e 09       	sbc	r22, r14
    7c28:	7f 09       	sbc	r23, r15
    7c2a:	80 0b       	sbc	r24, r16
    7c2c:	91 0b       	sbc	r25, r17
    7c2e:	08 95       	ret

00007c30 <__cmpdi2_s8>:
    7c30:	00 24       	eor	r0, r0
    7c32:	a7 fd       	sbrc	r26, 7
    7c34:	00 94       	com	r0
    7c36:	2a 17       	cp	r18, r26
    7c38:	30 05       	cpc	r19, r0
    7c3a:	40 05       	cpc	r20, r0
    7c3c:	50 05       	cpc	r21, r0
    7c3e:	60 05       	cpc	r22, r0
    7c40:	70 05       	cpc	r23, r0
    7c42:	80 05       	cpc	r24, r0
    7c44:	90 05       	cpc	r25, r0
    7c46:	08 95       	ret

00007c48 <__udivmodhi4>:
    7c48:	aa 1b       	sub	r26, r26
    7c4a:	bb 1b       	sub	r27, r27
    7c4c:	51 e1       	ldi	r21, 0x11	; 17
    7c4e:	07 c0       	rjmp	.+14     	; 0x7c5e <__udivmodhi4_ep>

00007c50 <__udivmodhi4_loop>:
    7c50:	aa 1f       	adc	r26, r26
    7c52:	bb 1f       	adc	r27, r27
    7c54:	a6 17       	cp	r26, r22
    7c56:	b7 07       	cpc	r27, r23
    7c58:	10 f0       	brcs	.+4      	; 0x7c5e <__udivmodhi4_ep>
    7c5a:	a6 1b       	sub	r26, r22
    7c5c:	b7 0b       	sbc	r27, r23

00007c5e <__udivmodhi4_ep>:
    7c5e:	88 1f       	adc	r24, r24
    7c60:	99 1f       	adc	r25, r25
    7c62:	5a 95       	dec	r21
    7c64:	a9 f7       	brne	.-22     	; 0x7c50 <__udivmodhi4_loop>
    7c66:	80 95       	com	r24
    7c68:	90 95       	com	r25
    7c6a:	bc 01       	movw	r22, r24
    7c6c:	cd 01       	movw	r24, r26
    7c6e:	08 95       	ret

00007c70 <__ftoa_engine>:
    7c70:	28 30       	cpi	r18, 0x08	; 8
    7c72:	08 f0       	brcs	.+2      	; 0x7c76 <__ftoa_engine+0x6>
    7c74:	27 e0       	ldi	r18, 0x07	; 7
    7c76:	33 27       	eor	r19, r19
    7c78:	da 01       	movw	r26, r20
    7c7a:	99 0f       	add	r25, r25
    7c7c:	31 1d       	adc	r19, r1
    7c7e:	87 fd       	sbrc	r24, 7
    7c80:	91 60       	ori	r25, 0x01	; 1
    7c82:	00 96       	adiw	r24, 0x00	; 0
    7c84:	61 05       	cpc	r22, r1
    7c86:	71 05       	cpc	r23, r1
    7c88:	39 f4       	brne	.+14     	; 0x7c98 <__ftoa_engine+0x28>
    7c8a:	32 60       	ori	r19, 0x02	; 2
    7c8c:	2e 5f       	subi	r18, 0xFE	; 254
    7c8e:	3d 93       	st	X+, r19
    7c90:	30 e3       	ldi	r19, 0x30	; 48
    7c92:	2a 95       	dec	r18
    7c94:	e1 f7       	brne	.-8      	; 0x7c8e <__ftoa_engine+0x1e>
    7c96:	08 95       	ret
    7c98:	9f 3f       	cpi	r25, 0xFF	; 255
    7c9a:	30 f0       	brcs	.+12     	; 0x7ca8 <__ftoa_engine+0x38>
    7c9c:	80 38       	cpi	r24, 0x80	; 128
    7c9e:	71 05       	cpc	r23, r1
    7ca0:	61 05       	cpc	r22, r1
    7ca2:	09 f0       	breq	.+2      	; 0x7ca6 <__ftoa_engine+0x36>
    7ca4:	3c 5f       	subi	r19, 0xFC	; 252
    7ca6:	3c 5f       	subi	r19, 0xFC	; 252
    7ca8:	3d 93       	st	X+, r19
    7caa:	91 30       	cpi	r25, 0x01	; 1
    7cac:	08 f0       	brcs	.+2      	; 0x7cb0 <__ftoa_engine+0x40>
    7cae:	80 68       	ori	r24, 0x80	; 128
    7cb0:	91 1d       	adc	r25, r1
    7cb2:	df 93       	push	r29
    7cb4:	cf 93       	push	r28
    7cb6:	1f 93       	push	r17
    7cb8:	0f 93       	push	r16
    7cba:	ff 92       	push	r15
    7cbc:	ef 92       	push	r14
    7cbe:	19 2f       	mov	r17, r25
    7cc0:	98 7f       	andi	r25, 0xF8	; 248
    7cc2:	96 95       	lsr	r25
    7cc4:	e9 2f       	mov	r30, r25
    7cc6:	96 95       	lsr	r25
    7cc8:	96 95       	lsr	r25
    7cca:	e9 0f       	add	r30, r25
    7ccc:	ff 27       	eor	r31, r31
    7cce:	e4 56       	subi	r30, 0x64	; 100
    7cd0:	f8 4f       	sbci	r31, 0xF8	; 248
    7cd2:	99 27       	eor	r25, r25
    7cd4:	33 27       	eor	r19, r19
    7cd6:	ee 24       	eor	r14, r14
    7cd8:	ff 24       	eor	r15, r15
    7cda:	a7 01       	movw	r20, r14
    7cdc:	e7 01       	movw	r28, r14
    7cde:	05 90       	lpm	r0, Z+
    7ce0:	08 94       	sec
    7ce2:	07 94       	ror	r0
    7ce4:	28 f4       	brcc	.+10     	; 0x7cf0 <__ftoa_engine+0x80>
    7ce6:	36 0f       	add	r19, r22
    7ce8:	e7 1e       	adc	r14, r23
    7cea:	f8 1e       	adc	r15, r24
    7cec:	49 1f       	adc	r20, r25
    7cee:	51 1d       	adc	r21, r1
    7cf0:	66 0f       	add	r22, r22
    7cf2:	77 1f       	adc	r23, r23
    7cf4:	88 1f       	adc	r24, r24
    7cf6:	99 1f       	adc	r25, r25
    7cf8:	06 94       	lsr	r0
    7cfa:	a1 f7       	brne	.-24     	; 0x7ce4 <__ftoa_engine+0x74>
    7cfc:	05 90       	lpm	r0, Z+
    7cfe:	07 94       	ror	r0
    7d00:	28 f4       	brcc	.+10     	; 0x7d0c <__ftoa_engine+0x9c>
    7d02:	e7 0e       	add	r14, r23
    7d04:	f8 1e       	adc	r15, r24
    7d06:	49 1f       	adc	r20, r25
    7d08:	56 1f       	adc	r21, r22
    7d0a:	c1 1d       	adc	r28, r1
    7d0c:	77 0f       	add	r23, r23
    7d0e:	88 1f       	adc	r24, r24
    7d10:	99 1f       	adc	r25, r25
    7d12:	66 1f       	adc	r22, r22
    7d14:	06 94       	lsr	r0
    7d16:	a1 f7       	brne	.-24     	; 0x7d00 <__ftoa_engine+0x90>
    7d18:	05 90       	lpm	r0, Z+
    7d1a:	07 94       	ror	r0
    7d1c:	28 f4       	brcc	.+10     	; 0x7d28 <__ftoa_engine+0xb8>
    7d1e:	f8 0e       	add	r15, r24
    7d20:	49 1f       	adc	r20, r25
    7d22:	56 1f       	adc	r21, r22
    7d24:	c7 1f       	adc	r28, r23
    7d26:	d1 1d       	adc	r29, r1
    7d28:	88 0f       	add	r24, r24
    7d2a:	99 1f       	adc	r25, r25
    7d2c:	66 1f       	adc	r22, r22
    7d2e:	77 1f       	adc	r23, r23
    7d30:	06 94       	lsr	r0
    7d32:	a1 f7       	brne	.-24     	; 0x7d1c <__ftoa_engine+0xac>
    7d34:	05 90       	lpm	r0, Z+
    7d36:	07 94       	ror	r0
    7d38:	20 f4       	brcc	.+8      	; 0x7d42 <__ftoa_engine+0xd2>
    7d3a:	49 0f       	add	r20, r25
    7d3c:	56 1f       	adc	r21, r22
    7d3e:	c7 1f       	adc	r28, r23
    7d40:	d8 1f       	adc	r29, r24
    7d42:	99 0f       	add	r25, r25
    7d44:	66 1f       	adc	r22, r22
    7d46:	77 1f       	adc	r23, r23
    7d48:	88 1f       	adc	r24, r24
    7d4a:	06 94       	lsr	r0
    7d4c:	a9 f7       	brne	.-22     	; 0x7d38 <__ftoa_engine+0xc8>
    7d4e:	84 91       	lpm	r24, Z
    7d50:	10 95       	com	r17
    7d52:	17 70       	andi	r17, 0x07	; 7
    7d54:	41 f0       	breq	.+16     	; 0x7d66 <__ftoa_engine+0xf6>
    7d56:	d6 95       	lsr	r29
    7d58:	c7 95       	ror	r28
    7d5a:	57 95       	ror	r21
    7d5c:	47 95       	ror	r20
    7d5e:	f7 94       	ror	r15
    7d60:	e7 94       	ror	r14
    7d62:	1a 95       	dec	r17
    7d64:	c1 f7       	brne	.-16     	; 0x7d56 <__ftoa_engine+0xe6>
    7d66:	e2 e4       	ldi	r30, 0x42	; 66
    7d68:	f7 e0       	ldi	r31, 0x07	; 7
    7d6a:	68 94       	set
    7d6c:	15 90       	lpm	r1, Z+
    7d6e:	15 91       	lpm	r17, Z+
    7d70:	35 91       	lpm	r19, Z+
    7d72:	65 91       	lpm	r22, Z+
    7d74:	95 91       	lpm	r25, Z+
    7d76:	05 90       	lpm	r0, Z+
    7d78:	7f e2       	ldi	r23, 0x2F	; 47
    7d7a:	73 95       	inc	r23
    7d7c:	e1 18       	sub	r14, r1
    7d7e:	f1 0a       	sbc	r15, r17
    7d80:	43 0b       	sbc	r20, r19
    7d82:	56 0b       	sbc	r21, r22
    7d84:	c9 0b       	sbc	r28, r25
    7d86:	d0 09       	sbc	r29, r0
    7d88:	c0 f7       	brcc	.-16     	; 0x7d7a <__ftoa_engine+0x10a>
    7d8a:	e1 0c       	add	r14, r1
    7d8c:	f1 1e       	adc	r15, r17
    7d8e:	43 1f       	adc	r20, r19
    7d90:	56 1f       	adc	r21, r22
    7d92:	c9 1f       	adc	r28, r25
    7d94:	d0 1d       	adc	r29, r0
    7d96:	7e f4       	brtc	.+30     	; 0x7db6 <__ftoa_engine+0x146>
    7d98:	70 33       	cpi	r23, 0x30	; 48
    7d9a:	11 f4       	brne	.+4      	; 0x7da0 <__ftoa_engine+0x130>
    7d9c:	8a 95       	dec	r24
    7d9e:	e6 cf       	rjmp	.-52     	; 0x7d6c <__ftoa_engine+0xfc>
    7da0:	e8 94       	clt
    7da2:	01 50       	subi	r16, 0x01	; 1
    7da4:	30 f0       	brcs	.+12     	; 0x7db2 <__ftoa_engine+0x142>
    7da6:	08 0f       	add	r16, r24
    7da8:	0a f4       	brpl	.+2      	; 0x7dac <__ftoa_engine+0x13c>
    7daa:	00 27       	eor	r16, r16
    7dac:	02 17       	cp	r16, r18
    7dae:	08 f4       	brcc	.+2      	; 0x7db2 <__ftoa_engine+0x142>
    7db0:	20 2f       	mov	r18, r16
    7db2:	23 95       	inc	r18
    7db4:	02 2f       	mov	r16, r18
    7db6:	7a 33       	cpi	r23, 0x3A	; 58
    7db8:	28 f0       	brcs	.+10     	; 0x7dc4 <__ftoa_engine+0x154>
    7dba:	79 e3       	ldi	r23, 0x39	; 57
    7dbc:	7d 93       	st	X+, r23
    7dbe:	2a 95       	dec	r18
    7dc0:	e9 f7       	brne	.-6      	; 0x7dbc <__ftoa_engine+0x14c>
    7dc2:	10 c0       	rjmp	.+32     	; 0x7de4 <__ftoa_engine+0x174>
    7dc4:	7d 93       	st	X+, r23
    7dc6:	2a 95       	dec	r18
    7dc8:	89 f6       	brne	.-94     	; 0x7d6c <__ftoa_engine+0xfc>
    7dca:	06 94       	lsr	r0
    7dcc:	97 95       	ror	r25
    7dce:	67 95       	ror	r22
    7dd0:	37 95       	ror	r19
    7dd2:	17 95       	ror	r17
    7dd4:	17 94       	ror	r1
    7dd6:	e1 18       	sub	r14, r1
    7dd8:	f1 0a       	sbc	r15, r17
    7dda:	43 0b       	sbc	r20, r19
    7ddc:	56 0b       	sbc	r21, r22
    7dde:	c9 0b       	sbc	r28, r25
    7de0:	d0 09       	sbc	r29, r0
    7de2:	98 f0       	brcs	.+38     	; 0x7e0a <__ftoa_engine+0x19a>
    7de4:	23 95       	inc	r18
    7de6:	7e 91       	ld	r23, -X
    7de8:	73 95       	inc	r23
    7dea:	7a 33       	cpi	r23, 0x3A	; 58
    7dec:	08 f0       	brcs	.+2      	; 0x7df0 <__ftoa_engine+0x180>
    7dee:	70 e3       	ldi	r23, 0x30	; 48
    7df0:	7c 93       	st	X, r23
    7df2:	20 13       	cpse	r18, r16
    7df4:	b8 f7       	brcc	.-18     	; 0x7de4 <__ftoa_engine+0x174>
    7df6:	7e 91       	ld	r23, -X
    7df8:	70 61       	ori	r23, 0x10	; 16
    7dfa:	7d 93       	st	X+, r23
    7dfc:	30 f0       	brcs	.+12     	; 0x7e0a <__ftoa_engine+0x19a>
    7dfe:	83 95       	inc	r24
    7e00:	71 e3       	ldi	r23, 0x31	; 49
    7e02:	7d 93       	st	X+, r23
    7e04:	70 e3       	ldi	r23, 0x30	; 48
    7e06:	2a 95       	dec	r18
    7e08:	e1 f7       	brne	.-8      	; 0x7e02 <__ftoa_engine+0x192>
    7e0a:	11 24       	eor	r1, r1
    7e0c:	ef 90       	pop	r14
    7e0e:	ff 90       	pop	r15
    7e10:	0f 91       	pop	r16
    7e12:	1f 91       	pop	r17
    7e14:	cf 91       	pop	r28
    7e16:	df 91       	pop	r29
    7e18:	99 27       	eor	r25, r25
    7e1a:	87 fd       	sbrc	r24, 7
    7e1c:	90 95       	com	r25
    7e1e:	08 95       	ret

00007e20 <strnlen_P>:
    7e20:	fc 01       	movw	r30, r24
    7e22:	05 90       	lpm	r0, Z+
    7e24:	61 50       	subi	r22, 0x01	; 1
    7e26:	70 40       	sbci	r23, 0x00	; 0
    7e28:	01 10       	cpse	r0, r1
    7e2a:	d8 f7       	brcc	.-10     	; 0x7e22 <strnlen_P+0x2>
    7e2c:	80 95       	com	r24
    7e2e:	90 95       	com	r25
    7e30:	8e 0f       	add	r24, r30
    7e32:	9f 1f       	adc	r25, r31
    7e34:	08 95       	ret

00007e36 <strnlen>:
    7e36:	fc 01       	movw	r30, r24
    7e38:	61 50       	subi	r22, 0x01	; 1
    7e3a:	70 40       	sbci	r23, 0x00	; 0
    7e3c:	01 90       	ld	r0, Z+
    7e3e:	01 10       	cpse	r0, r1
    7e40:	d8 f7       	brcc	.-10     	; 0x7e38 <strnlen+0x2>
    7e42:	80 95       	com	r24
    7e44:	90 95       	com	r25
    7e46:	8e 0f       	add	r24, r30
    7e48:	9f 1f       	adc	r25, r31
    7e4a:	08 95       	ret

00007e4c <fdevopen>:
    7e4c:	0f 93       	push	r16
    7e4e:	1f 93       	push	r17
    7e50:	cf 93       	push	r28
    7e52:	df 93       	push	r29
    7e54:	00 97       	sbiw	r24, 0x00	; 0
    7e56:	31 f4       	brne	.+12     	; 0x7e64 <fdevopen+0x18>
    7e58:	61 15       	cp	r22, r1
    7e5a:	71 05       	cpc	r23, r1
    7e5c:	19 f4       	brne	.+6      	; 0x7e64 <fdevopen+0x18>
    7e5e:	80 e0       	ldi	r24, 0x00	; 0
    7e60:	90 e0       	ldi	r25, 0x00	; 0
    7e62:	3a c0       	rjmp	.+116    	; 0x7ed8 <fdevopen+0x8c>
    7e64:	8b 01       	movw	r16, r22
    7e66:	ec 01       	movw	r28, r24
    7e68:	6e e0       	ldi	r22, 0x0E	; 14
    7e6a:	70 e0       	ldi	r23, 0x00	; 0
    7e6c:	81 e0       	ldi	r24, 0x01	; 1
    7e6e:	90 e0       	ldi	r25, 0x00	; 0
    7e70:	0e 94 4f 40 	call	0x809e	; 0x809e <calloc>
    7e74:	fc 01       	movw	r30, r24
    7e76:	89 2b       	or	r24, r25
    7e78:	91 f3       	breq	.-28     	; 0x7e5e <fdevopen+0x12>
    7e7a:	80 e8       	ldi	r24, 0x80	; 128
    7e7c:	83 83       	std	Z+3, r24	; 0x03
    7e7e:	01 15       	cp	r16, r1
    7e80:	11 05       	cpc	r17, r1
    7e82:	71 f0       	breq	.+28     	; 0x7ea0 <fdevopen+0x54>
    7e84:	02 87       	std	Z+10, r16	; 0x0a
    7e86:	13 87       	std	Z+11, r17	; 0x0b
    7e88:	81 e8       	ldi	r24, 0x81	; 129
    7e8a:	83 83       	std	Z+3, r24	; 0x03
    7e8c:	80 91 90 52 	lds	r24, 0x5290	; 0x805290 <__iob>
    7e90:	90 91 91 52 	lds	r25, 0x5291	; 0x805291 <__iob+0x1>
    7e94:	89 2b       	or	r24, r25
    7e96:	21 f4       	brne	.+8      	; 0x7ea0 <fdevopen+0x54>
    7e98:	e0 93 90 52 	sts	0x5290, r30	; 0x805290 <__iob>
    7e9c:	f0 93 91 52 	sts	0x5291, r31	; 0x805291 <__iob+0x1>
    7ea0:	20 97       	sbiw	r28, 0x00	; 0
    7ea2:	c9 f0       	breq	.+50     	; 0x7ed6 <fdevopen+0x8a>
    7ea4:	c0 87       	std	Z+8, r28	; 0x08
    7ea6:	d1 87       	std	Z+9, r29	; 0x09
    7ea8:	83 81       	ldd	r24, Z+3	; 0x03
    7eaa:	82 60       	ori	r24, 0x02	; 2
    7eac:	83 83       	std	Z+3, r24	; 0x03
    7eae:	80 91 92 52 	lds	r24, 0x5292	; 0x805292 <__iob+0x2>
    7eb2:	90 91 93 52 	lds	r25, 0x5293	; 0x805293 <__iob+0x3>
    7eb6:	89 2b       	or	r24, r25
    7eb8:	71 f4       	brne	.+28     	; 0x7ed6 <fdevopen+0x8a>
    7eba:	e0 93 92 52 	sts	0x5292, r30	; 0x805292 <__iob+0x2>
    7ebe:	f0 93 93 52 	sts	0x5293, r31	; 0x805293 <__iob+0x3>
    7ec2:	80 91 94 52 	lds	r24, 0x5294	; 0x805294 <__iob+0x4>
    7ec6:	90 91 95 52 	lds	r25, 0x5295	; 0x805295 <__iob+0x5>
    7eca:	89 2b       	or	r24, r25
    7ecc:	21 f4       	brne	.+8      	; 0x7ed6 <fdevopen+0x8a>
    7ece:	e0 93 94 52 	sts	0x5294, r30	; 0x805294 <__iob+0x4>
    7ed2:	f0 93 95 52 	sts	0x5295, r31	; 0x805295 <__iob+0x5>
    7ed6:	cf 01       	movw	r24, r30
    7ed8:	df 91       	pop	r29
    7eda:	cf 91       	pop	r28
    7edc:	1f 91       	pop	r17
    7ede:	0f 91       	pop	r16
    7ee0:	08 95       	ret

00007ee2 <fputc>:
    7ee2:	0f 93       	push	r16
    7ee4:	1f 93       	push	r17
    7ee6:	cf 93       	push	r28
    7ee8:	df 93       	push	r29
    7eea:	fb 01       	movw	r30, r22
    7eec:	23 81       	ldd	r18, Z+3	; 0x03
    7eee:	21 fd       	sbrc	r18, 1
    7ef0:	03 c0       	rjmp	.+6      	; 0x7ef8 <fputc+0x16>
    7ef2:	8f ef       	ldi	r24, 0xFF	; 255
    7ef4:	9f ef       	ldi	r25, 0xFF	; 255
    7ef6:	2c c0       	rjmp	.+88     	; 0x7f50 <fputc+0x6e>
    7ef8:	22 ff       	sbrs	r18, 2
    7efa:	16 c0       	rjmp	.+44     	; 0x7f28 <fputc+0x46>
    7efc:	46 81       	ldd	r20, Z+6	; 0x06
    7efe:	57 81       	ldd	r21, Z+7	; 0x07
    7f00:	24 81       	ldd	r18, Z+4	; 0x04
    7f02:	35 81       	ldd	r19, Z+5	; 0x05
    7f04:	42 17       	cp	r20, r18
    7f06:	53 07       	cpc	r21, r19
    7f08:	44 f4       	brge	.+16     	; 0x7f1a <fputc+0x38>
    7f0a:	a0 81       	ld	r26, Z
    7f0c:	b1 81       	ldd	r27, Z+1	; 0x01
    7f0e:	9d 01       	movw	r18, r26
    7f10:	2f 5f       	subi	r18, 0xFF	; 255
    7f12:	3f 4f       	sbci	r19, 0xFF	; 255
    7f14:	20 83       	st	Z, r18
    7f16:	31 83       	std	Z+1, r19	; 0x01
    7f18:	8c 93       	st	X, r24
    7f1a:	26 81       	ldd	r18, Z+6	; 0x06
    7f1c:	37 81       	ldd	r19, Z+7	; 0x07
    7f1e:	2f 5f       	subi	r18, 0xFF	; 255
    7f20:	3f 4f       	sbci	r19, 0xFF	; 255
    7f22:	26 83       	std	Z+6, r18	; 0x06
    7f24:	37 83       	std	Z+7, r19	; 0x07
    7f26:	14 c0       	rjmp	.+40     	; 0x7f50 <fputc+0x6e>
    7f28:	8b 01       	movw	r16, r22
    7f2a:	ec 01       	movw	r28, r24
    7f2c:	fb 01       	movw	r30, r22
    7f2e:	00 84       	ldd	r0, Z+8	; 0x08
    7f30:	f1 85       	ldd	r31, Z+9	; 0x09
    7f32:	e0 2d       	mov	r30, r0
    7f34:	09 95       	icall
    7f36:	89 2b       	or	r24, r25
    7f38:	e1 f6       	brne	.-72     	; 0x7ef2 <fputc+0x10>
    7f3a:	d8 01       	movw	r26, r16
    7f3c:	16 96       	adiw	r26, 0x06	; 6
    7f3e:	8d 91       	ld	r24, X+
    7f40:	9c 91       	ld	r25, X
    7f42:	17 97       	sbiw	r26, 0x07	; 7
    7f44:	01 96       	adiw	r24, 0x01	; 1
    7f46:	16 96       	adiw	r26, 0x06	; 6
    7f48:	8d 93       	st	X+, r24
    7f4a:	9c 93       	st	X, r25
    7f4c:	17 97       	sbiw	r26, 0x07	; 7
    7f4e:	ce 01       	movw	r24, r28
    7f50:	df 91       	pop	r29
    7f52:	cf 91       	pop	r28
    7f54:	1f 91       	pop	r17
    7f56:	0f 91       	pop	r16
    7f58:	08 95       	ret

00007f5a <printf>:
    7f5a:	cf 93       	push	r28
    7f5c:	df 93       	push	r29
    7f5e:	cd b7       	in	r28, 0x3d	; 61
    7f60:	de b7       	in	r29, 0x3e	; 62
    7f62:	ae 01       	movw	r20, r28
    7f64:	4b 5f       	subi	r20, 0xFB	; 251
    7f66:	5f 4f       	sbci	r21, 0xFF	; 255
    7f68:	fa 01       	movw	r30, r20
    7f6a:	61 91       	ld	r22, Z+
    7f6c:	71 91       	ld	r23, Z+
    7f6e:	af 01       	movw	r20, r30
    7f70:	80 91 92 52 	lds	r24, 0x5292	; 0x805292 <__iob+0x2>
    7f74:	90 91 93 52 	lds	r25, 0x5293	; 0x805293 <__iob+0x3>
    7f78:	0e 94 11 39 	call	0x7222	; 0x7222 <vfprintf>
    7f7c:	df 91       	pop	r29
    7f7e:	cf 91       	pop	r28
    7f80:	08 95       	ret

00007f82 <puts>:
    7f82:	0f 93       	push	r16
    7f84:	1f 93       	push	r17
    7f86:	cf 93       	push	r28
    7f88:	df 93       	push	r29
    7f8a:	e0 91 92 52 	lds	r30, 0x5292	; 0x805292 <__iob+0x2>
    7f8e:	f0 91 93 52 	lds	r31, 0x5293	; 0x805293 <__iob+0x3>
    7f92:	23 81       	ldd	r18, Z+3	; 0x03
    7f94:	21 ff       	sbrs	r18, 1
    7f96:	1b c0       	rjmp	.+54     	; 0x7fce <puts+0x4c>
    7f98:	8c 01       	movw	r16, r24
    7f9a:	d0 e0       	ldi	r29, 0x00	; 0
    7f9c:	c0 e0       	ldi	r28, 0x00	; 0
    7f9e:	f8 01       	movw	r30, r16
    7fa0:	81 91       	ld	r24, Z+
    7fa2:	8f 01       	movw	r16, r30
    7fa4:	60 91 92 52 	lds	r22, 0x5292	; 0x805292 <__iob+0x2>
    7fa8:	70 91 93 52 	lds	r23, 0x5293	; 0x805293 <__iob+0x3>
    7fac:	db 01       	movw	r26, r22
    7fae:	18 96       	adiw	r26, 0x08	; 8
    7fb0:	ed 91       	ld	r30, X+
    7fb2:	fc 91       	ld	r31, X
    7fb4:	19 97       	sbiw	r26, 0x09	; 9
    7fb6:	88 23       	and	r24, r24
    7fb8:	31 f0       	breq	.+12     	; 0x7fc6 <puts+0x44>
    7fba:	09 95       	icall
    7fbc:	89 2b       	or	r24, r25
    7fbe:	79 f3       	breq	.-34     	; 0x7f9e <puts+0x1c>
    7fc0:	df ef       	ldi	r29, 0xFF	; 255
    7fc2:	cf ef       	ldi	r28, 0xFF	; 255
    7fc4:	ec cf       	rjmp	.-40     	; 0x7f9e <puts+0x1c>
    7fc6:	8a e0       	ldi	r24, 0x0A	; 10
    7fc8:	09 95       	icall
    7fca:	89 2b       	or	r24, r25
    7fcc:	19 f0       	breq	.+6      	; 0x7fd4 <puts+0x52>
    7fce:	8f ef       	ldi	r24, 0xFF	; 255
    7fd0:	9f ef       	ldi	r25, 0xFF	; 255
    7fd2:	02 c0       	rjmp	.+4      	; 0x7fd8 <puts+0x56>
    7fd4:	8d 2f       	mov	r24, r29
    7fd6:	9c 2f       	mov	r25, r28
    7fd8:	df 91       	pop	r29
    7fda:	cf 91       	pop	r28
    7fdc:	1f 91       	pop	r17
    7fde:	0f 91       	pop	r16
    7fe0:	08 95       	ret

00007fe2 <__ultoa_invert>:
    7fe2:	fa 01       	movw	r30, r20
    7fe4:	aa 27       	eor	r26, r26
    7fe6:	28 30       	cpi	r18, 0x08	; 8
    7fe8:	51 f1       	breq	.+84     	; 0x803e <__RODATA_PM_OFFSET__+0x3e>
    7fea:	20 31       	cpi	r18, 0x10	; 16
    7fec:	81 f1       	breq	.+96     	; 0x804e <__RODATA_PM_OFFSET__+0x4e>
    7fee:	e8 94       	clt
    7ff0:	6f 93       	push	r22
    7ff2:	6e 7f       	andi	r22, 0xFE	; 254
    7ff4:	6e 5f       	subi	r22, 0xFE	; 254
    7ff6:	7f 4f       	sbci	r23, 0xFF	; 255
    7ff8:	8f 4f       	sbci	r24, 0xFF	; 255
    7ffa:	9f 4f       	sbci	r25, 0xFF	; 255
    7ffc:	af 4f       	sbci	r26, 0xFF	; 255
    7ffe:	b1 e0       	ldi	r27, 0x01	; 1
    8000:	3e d0       	rcall	.+124    	; 0x807e <__RODATA_PM_OFFSET__+0x7e>
    8002:	b4 e0       	ldi	r27, 0x04	; 4
    8004:	3c d0       	rcall	.+120    	; 0x807e <__RODATA_PM_OFFSET__+0x7e>
    8006:	67 0f       	add	r22, r23
    8008:	78 1f       	adc	r23, r24
    800a:	89 1f       	adc	r24, r25
    800c:	9a 1f       	adc	r25, r26
    800e:	a1 1d       	adc	r26, r1
    8010:	68 0f       	add	r22, r24
    8012:	79 1f       	adc	r23, r25
    8014:	8a 1f       	adc	r24, r26
    8016:	91 1d       	adc	r25, r1
    8018:	a1 1d       	adc	r26, r1
    801a:	6a 0f       	add	r22, r26
    801c:	71 1d       	adc	r23, r1
    801e:	81 1d       	adc	r24, r1
    8020:	91 1d       	adc	r25, r1
    8022:	a1 1d       	adc	r26, r1
    8024:	20 d0       	rcall	.+64     	; 0x8066 <__RODATA_PM_OFFSET__+0x66>
    8026:	09 f4       	brne	.+2      	; 0x802a <__RODATA_PM_OFFSET__+0x2a>
    8028:	68 94       	set
    802a:	3f 91       	pop	r19
    802c:	2a e0       	ldi	r18, 0x0A	; 10
    802e:	26 9f       	mul	r18, r22
    8030:	11 24       	eor	r1, r1
    8032:	30 19       	sub	r19, r0
    8034:	30 5d       	subi	r19, 0xD0	; 208
    8036:	31 93       	st	Z+, r19
    8038:	de f6       	brtc	.-74     	; 0x7ff0 <__ultoa_invert+0xe>
    803a:	cf 01       	movw	r24, r30
    803c:	08 95       	ret
    803e:	46 2f       	mov	r20, r22
    8040:	47 70       	andi	r20, 0x07	; 7
    8042:	40 5d       	subi	r20, 0xD0	; 208
    8044:	41 93       	st	Z+, r20
    8046:	b3 e0       	ldi	r27, 0x03	; 3
    8048:	0f d0       	rcall	.+30     	; 0x8068 <__RODATA_PM_OFFSET__+0x68>
    804a:	c9 f7       	brne	.-14     	; 0x803e <__RODATA_PM_OFFSET__+0x3e>
    804c:	f6 cf       	rjmp	.-20     	; 0x803a <__RODATA_PM_OFFSET__+0x3a>
    804e:	46 2f       	mov	r20, r22
    8050:	4f 70       	andi	r20, 0x0F	; 15
    8052:	40 5d       	subi	r20, 0xD0	; 208
    8054:	4a 33       	cpi	r20, 0x3A	; 58
    8056:	18 f0       	brcs	.+6      	; 0x805e <__RODATA_PM_OFFSET__+0x5e>
    8058:	49 5d       	subi	r20, 0xD9	; 217
    805a:	31 fd       	sbrc	r19, 1
    805c:	40 52       	subi	r20, 0x20	; 32
    805e:	41 93       	st	Z+, r20
    8060:	02 d0       	rcall	.+4      	; 0x8066 <__RODATA_PM_OFFSET__+0x66>
    8062:	a9 f7       	brne	.-22     	; 0x804e <__RODATA_PM_OFFSET__+0x4e>
    8064:	ea cf       	rjmp	.-44     	; 0x803a <__RODATA_PM_OFFSET__+0x3a>
    8066:	b4 e0       	ldi	r27, 0x04	; 4
    8068:	a6 95       	lsr	r26
    806a:	97 95       	ror	r25
    806c:	87 95       	ror	r24
    806e:	77 95       	ror	r23
    8070:	67 95       	ror	r22
    8072:	ba 95       	dec	r27
    8074:	c9 f7       	brne	.-14     	; 0x8068 <__RODATA_PM_OFFSET__+0x68>
    8076:	00 97       	sbiw	r24, 0x00	; 0
    8078:	61 05       	cpc	r22, r1
    807a:	71 05       	cpc	r23, r1
    807c:	08 95       	ret
    807e:	9b 01       	movw	r18, r22
    8080:	ac 01       	movw	r20, r24
    8082:	0a 2e       	mov	r0, r26
    8084:	06 94       	lsr	r0
    8086:	57 95       	ror	r21
    8088:	47 95       	ror	r20
    808a:	37 95       	ror	r19
    808c:	27 95       	ror	r18
    808e:	ba 95       	dec	r27
    8090:	c9 f7       	brne	.-14     	; 0x8084 <__RODATA_PM_OFFSET__+0x84>
    8092:	62 0f       	add	r22, r18
    8094:	73 1f       	adc	r23, r19
    8096:	84 1f       	adc	r24, r20
    8098:	95 1f       	adc	r25, r21
    809a:	a0 1d       	adc	r26, r0
    809c:	08 95       	ret

0000809e <calloc>:
    809e:	0f 93       	push	r16
    80a0:	1f 93       	push	r17
    80a2:	cf 93       	push	r28
    80a4:	df 93       	push	r29
    80a6:	86 9f       	mul	r24, r22
    80a8:	80 01       	movw	r16, r0
    80aa:	87 9f       	mul	r24, r23
    80ac:	10 0d       	add	r17, r0
    80ae:	96 9f       	mul	r25, r22
    80b0:	10 0d       	add	r17, r0
    80b2:	11 24       	eor	r1, r1
    80b4:	c8 01       	movw	r24, r16
    80b6:	0e 94 6b 40 	call	0x80d6	; 0x80d6 <malloc>
    80ba:	ec 01       	movw	r28, r24
    80bc:	00 97       	sbiw	r24, 0x00	; 0
    80be:	29 f0       	breq	.+10     	; 0x80ca <calloc+0x2c>
    80c0:	a8 01       	movw	r20, r16
    80c2:	60 e0       	ldi	r22, 0x00	; 0
    80c4:	70 e0       	ldi	r23, 0x00	; 0
    80c6:	0e 94 8c 41 	call	0x8318	; 0x8318 <memset>
    80ca:	ce 01       	movw	r24, r28
    80cc:	df 91       	pop	r29
    80ce:	cf 91       	pop	r28
    80d0:	1f 91       	pop	r17
    80d2:	0f 91       	pop	r16
    80d4:	08 95       	ret

000080d6 <malloc>:
    80d6:	0f 93       	push	r16
    80d8:	1f 93       	push	r17
    80da:	cf 93       	push	r28
    80dc:	df 93       	push	r29
    80de:	82 30       	cpi	r24, 0x02	; 2
    80e0:	91 05       	cpc	r25, r1
    80e2:	10 f4       	brcc	.+4      	; 0x80e8 <malloc+0x12>
    80e4:	82 e0       	ldi	r24, 0x02	; 2
    80e6:	90 e0       	ldi	r25, 0x00	; 0
    80e8:	e0 91 98 52 	lds	r30, 0x5298	; 0x805298 <__flp>
    80ec:	f0 91 99 52 	lds	r31, 0x5299	; 0x805299 <__flp+0x1>
    80f0:	20 e0       	ldi	r18, 0x00	; 0
    80f2:	30 e0       	ldi	r19, 0x00	; 0
    80f4:	a0 e0       	ldi	r26, 0x00	; 0
    80f6:	b0 e0       	ldi	r27, 0x00	; 0
    80f8:	30 97       	sbiw	r30, 0x00	; 0
    80fa:	19 f1       	breq	.+70     	; 0x8142 <malloc+0x6c>
    80fc:	40 81       	ld	r20, Z
    80fe:	51 81       	ldd	r21, Z+1	; 0x01
    8100:	02 81       	ldd	r16, Z+2	; 0x02
    8102:	13 81       	ldd	r17, Z+3	; 0x03
    8104:	48 17       	cp	r20, r24
    8106:	59 07       	cpc	r21, r25
    8108:	c8 f0       	brcs	.+50     	; 0x813c <malloc+0x66>
    810a:	84 17       	cp	r24, r20
    810c:	95 07       	cpc	r25, r21
    810e:	69 f4       	brne	.+26     	; 0x812a <malloc+0x54>
    8110:	10 97       	sbiw	r26, 0x00	; 0
    8112:	31 f0       	breq	.+12     	; 0x8120 <malloc+0x4a>
    8114:	12 96       	adiw	r26, 0x02	; 2
    8116:	0c 93       	st	X, r16
    8118:	12 97       	sbiw	r26, 0x02	; 2
    811a:	13 96       	adiw	r26, 0x03	; 3
    811c:	1c 93       	st	X, r17
    811e:	27 c0       	rjmp	.+78     	; 0x816e <malloc+0x98>
    8120:	00 93 98 52 	sts	0x5298, r16	; 0x805298 <__flp>
    8124:	10 93 99 52 	sts	0x5299, r17	; 0x805299 <__flp+0x1>
    8128:	22 c0       	rjmp	.+68     	; 0x816e <malloc+0x98>
    812a:	21 15       	cp	r18, r1
    812c:	31 05       	cpc	r19, r1
    812e:	19 f0       	breq	.+6      	; 0x8136 <malloc+0x60>
    8130:	42 17       	cp	r20, r18
    8132:	53 07       	cpc	r21, r19
    8134:	18 f4       	brcc	.+6      	; 0x813c <malloc+0x66>
    8136:	9a 01       	movw	r18, r20
    8138:	bd 01       	movw	r22, r26
    813a:	ef 01       	movw	r28, r30
    813c:	df 01       	movw	r26, r30
    813e:	f8 01       	movw	r30, r16
    8140:	db cf       	rjmp	.-74     	; 0x80f8 <malloc+0x22>
    8142:	21 15       	cp	r18, r1
    8144:	31 05       	cpc	r19, r1
    8146:	f9 f0       	breq	.+62     	; 0x8186 <malloc+0xb0>
    8148:	28 1b       	sub	r18, r24
    814a:	39 0b       	sbc	r19, r25
    814c:	24 30       	cpi	r18, 0x04	; 4
    814e:	31 05       	cpc	r19, r1
    8150:	80 f4       	brcc	.+32     	; 0x8172 <malloc+0x9c>
    8152:	8a 81       	ldd	r24, Y+2	; 0x02
    8154:	9b 81       	ldd	r25, Y+3	; 0x03
    8156:	61 15       	cp	r22, r1
    8158:	71 05       	cpc	r23, r1
    815a:	21 f0       	breq	.+8      	; 0x8164 <malloc+0x8e>
    815c:	fb 01       	movw	r30, r22
    815e:	82 83       	std	Z+2, r24	; 0x02
    8160:	93 83       	std	Z+3, r25	; 0x03
    8162:	04 c0       	rjmp	.+8      	; 0x816c <malloc+0x96>
    8164:	80 93 98 52 	sts	0x5298, r24	; 0x805298 <__flp>
    8168:	90 93 99 52 	sts	0x5299, r25	; 0x805299 <__flp+0x1>
    816c:	fe 01       	movw	r30, r28
    816e:	32 96       	adiw	r30, 0x02	; 2
    8170:	44 c0       	rjmp	.+136    	; 0x81fa <malloc+0x124>
    8172:	fe 01       	movw	r30, r28
    8174:	e2 0f       	add	r30, r18
    8176:	f3 1f       	adc	r31, r19
    8178:	81 93       	st	Z+, r24
    817a:	91 93       	st	Z+, r25
    817c:	22 50       	subi	r18, 0x02	; 2
    817e:	31 09       	sbc	r19, r1
    8180:	28 83       	st	Y, r18
    8182:	39 83       	std	Y+1, r19	; 0x01
    8184:	3a c0       	rjmp	.+116    	; 0x81fa <malloc+0x124>
    8186:	20 91 96 52 	lds	r18, 0x5296	; 0x805296 <__brkval>
    818a:	30 91 97 52 	lds	r19, 0x5297	; 0x805297 <__brkval+0x1>
    818e:	23 2b       	or	r18, r19
    8190:	41 f4       	brne	.+16     	; 0x81a2 <malloc+0xcc>
    8192:	20 91 02 40 	lds	r18, 0x4002	; 0x804002 <__malloc_heap_start>
    8196:	30 91 03 40 	lds	r19, 0x4003	; 0x804003 <__malloc_heap_start+0x1>
    819a:	20 93 96 52 	sts	0x5296, r18	; 0x805296 <__brkval>
    819e:	30 93 97 52 	sts	0x5297, r19	; 0x805297 <__brkval+0x1>
    81a2:	20 91 00 40 	lds	r18, 0x4000	; 0x804000 <__DATA_REGION_ORIGIN__>
    81a6:	30 91 01 40 	lds	r19, 0x4001	; 0x804001 <__DATA_REGION_ORIGIN__+0x1>
    81aa:	21 15       	cp	r18, r1
    81ac:	31 05       	cpc	r19, r1
    81ae:	41 f4       	brne	.+16     	; 0x81c0 <malloc+0xea>
    81b0:	2d b7       	in	r18, 0x3d	; 61
    81b2:	3e b7       	in	r19, 0x3e	; 62
    81b4:	40 91 04 40 	lds	r20, 0x4004	; 0x804004 <__malloc_margin>
    81b8:	50 91 05 40 	lds	r21, 0x4005	; 0x804005 <__malloc_margin+0x1>
    81bc:	24 1b       	sub	r18, r20
    81be:	35 0b       	sbc	r19, r21
    81c0:	e0 91 96 52 	lds	r30, 0x5296	; 0x805296 <__brkval>
    81c4:	f0 91 97 52 	lds	r31, 0x5297	; 0x805297 <__brkval+0x1>
    81c8:	e2 17       	cp	r30, r18
    81ca:	f3 07       	cpc	r31, r19
    81cc:	a0 f4       	brcc	.+40     	; 0x81f6 <malloc+0x120>
    81ce:	2e 1b       	sub	r18, r30
    81d0:	3f 0b       	sbc	r19, r31
    81d2:	28 17       	cp	r18, r24
    81d4:	39 07       	cpc	r19, r25
    81d6:	78 f0       	brcs	.+30     	; 0x81f6 <malloc+0x120>
    81d8:	ac 01       	movw	r20, r24
    81da:	4e 5f       	subi	r20, 0xFE	; 254
    81dc:	5f 4f       	sbci	r21, 0xFF	; 255
    81de:	24 17       	cp	r18, r20
    81e0:	35 07       	cpc	r19, r21
    81e2:	48 f0       	brcs	.+18     	; 0x81f6 <malloc+0x120>
    81e4:	4e 0f       	add	r20, r30
    81e6:	5f 1f       	adc	r21, r31
    81e8:	40 93 96 52 	sts	0x5296, r20	; 0x805296 <__brkval>
    81ec:	50 93 97 52 	sts	0x5297, r21	; 0x805297 <__brkval+0x1>
    81f0:	81 93       	st	Z+, r24
    81f2:	91 93       	st	Z+, r25
    81f4:	02 c0       	rjmp	.+4      	; 0x81fa <malloc+0x124>
    81f6:	e0 e0       	ldi	r30, 0x00	; 0
    81f8:	f0 e0       	ldi	r31, 0x00	; 0
    81fa:	cf 01       	movw	r24, r30
    81fc:	df 91       	pop	r29
    81fe:	cf 91       	pop	r28
    8200:	1f 91       	pop	r17
    8202:	0f 91       	pop	r16
    8204:	08 95       	ret

00008206 <free>:
    8206:	cf 93       	push	r28
    8208:	df 93       	push	r29
    820a:	00 97       	sbiw	r24, 0x00	; 0
    820c:	09 f4       	brne	.+2      	; 0x8210 <free+0xa>
    820e:	81 c0       	rjmp	.+258    	; 0x8312 <free+0x10c>
    8210:	fc 01       	movw	r30, r24
    8212:	32 97       	sbiw	r30, 0x02	; 2
    8214:	12 82       	std	Z+2, r1	; 0x02
    8216:	13 82       	std	Z+3, r1	; 0x03
    8218:	a0 91 98 52 	lds	r26, 0x5298	; 0x805298 <__flp>
    821c:	b0 91 99 52 	lds	r27, 0x5299	; 0x805299 <__flp+0x1>
    8220:	10 97       	sbiw	r26, 0x00	; 0
    8222:	81 f4       	brne	.+32     	; 0x8244 <free+0x3e>
    8224:	20 81       	ld	r18, Z
    8226:	31 81       	ldd	r19, Z+1	; 0x01
    8228:	82 0f       	add	r24, r18
    822a:	93 1f       	adc	r25, r19
    822c:	20 91 96 52 	lds	r18, 0x5296	; 0x805296 <__brkval>
    8230:	30 91 97 52 	lds	r19, 0x5297	; 0x805297 <__brkval+0x1>
    8234:	28 17       	cp	r18, r24
    8236:	39 07       	cpc	r19, r25
    8238:	51 f5       	brne	.+84     	; 0x828e <free+0x88>
    823a:	e0 93 96 52 	sts	0x5296, r30	; 0x805296 <__brkval>
    823e:	f0 93 97 52 	sts	0x5297, r31	; 0x805297 <__brkval+0x1>
    8242:	67 c0       	rjmp	.+206    	; 0x8312 <free+0x10c>
    8244:	ed 01       	movw	r28, r26
    8246:	20 e0       	ldi	r18, 0x00	; 0
    8248:	30 e0       	ldi	r19, 0x00	; 0
    824a:	ce 17       	cp	r28, r30
    824c:	df 07       	cpc	r29, r31
    824e:	40 f4       	brcc	.+16     	; 0x8260 <free+0x5a>
    8250:	4a 81       	ldd	r20, Y+2	; 0x02
    8252:	5b 81       	ldd	r21, Y+3	; 0x03
    8254:	9e 01       	movw	r18, r28
    8256:	41 15       	cp	r20, r1
    8258:	51 05       	cpc	r21, r1
    825a:	f1 f0       	breq	.+60     	; 0x8298 <free+0x92>
    825c:	ea 01       	movw	r28, r20
    825e:	f5 cf       	rjmp	.-22     	; 0x824a <free+0x44>
    8260:	c2 83       	std	Z+2, r28	; 0x02
    8262:	d3 83       	std	Z+3, r29	; 0x03
    8264:	40 81       	ld	r20, Z
    8266:	51 81       	ldd	r21, Z+1	; 0x01
    8268:	84 0f       	add	r24, r20
    826a:	95 1f       	adc	r25, r21
    826c:	c8 17       	cp	r28, r24
    826e:	d9 07       	cpc	r29, r25
    8270:	59 f4       	brne	.+22     	; 0x8288 <free+0x82>
    8272:	88 81       	ld	r24, Y
    8274:	99 81       	ldd	r25, Y+1	; 0x01
    8276:	84 0f       	add	r24, r20
    8278:	95 1f       	adc	r25, r21
    827a:	02 96       	adiw	r24, 0x02	; 2
    827c:	80 83       	st	Z, r24
    827e:	91 83       	std	Z+1, r25	; 0x01
    8280:	8a 81       	ldd	r24, Y+2	; 0x02
    8282:	9b 81       	ldd	r25, Y+3	; 0x03
    8284:	82 83       	std	Z+2, r24	; 0x02
    8286:	93 83       	std	Z+3, r25	; 0x03
    8288:	21 15       	cp	r18, r1
    828a:	31 05       	cpc	r19, r1
    828c:	29 f4       	brne	.+10     	; 0x8298 <free+0x92>
    828e:	e0 93 98 52 	sts	0x5298, r30	; 0x805298 <__flp>
    8292:	f0 93 99 52 	sts	0x5299, r31	; 0x805299 <__flp+0x1>
    8296:	3d c0       	rjmp	.+122    	; 0x8312 <free+0x10c>
    8298:	e9 01       	movw	r28, r18
    829a:	ea 83       	std	Y+2, r30	; 0x02
    829c:	fb 83       	std	Y+3, r31	; 0x03
    829e:	49 91       	ld	r20, Y+
    82a0:	59 91       	ld	r21, Y+
    82a2:	c4 0f       	add	r28, r20
    82a4:	d5 1f       	adc	r29, r21
    82a6:	ec 17       	cp	r30, r28
    82a8:	fd 07       	cpc	r31, r29
    82aa:	61 f4       	brne	.+24     	; 0x82c4 <free+0xbe>
    82ac:	80 81       	ld	r24, Z
    82ae:	91 81       	ldd	r25, Z+1	; 0x01
    82b0:	84 0f       	add	r24, r20
    82b2:	95 1f       	adc	r25, r21
    82b4:	02 96       	adiw	r24, 0x02	; 2
    82b6:	e9 01       	movw	r28, r18
    82b8:	88 83       	st	Y, r24
    82ba:	99 83       	std	Y+1, r25	; 0x01
    82bc:	82 81       	ldd	r24, Z+2	; 0x02
    82be:	93 81       	ldd	r25, Z+3	; 0x03
    82c0:	8a 83       	std	Y+2, r24	; 0x02
    82c2:	9b 83       	std	Y+3, r25	; 0x03
    82c4:	e0 e0       	ldi	r30, 0x00	; 0
    82c6:	f0 e0       	ldi	r31, 0x00	; 0
    82c8:	12 96       	adiw	r26, 0x02	; 2
    82ca:	8d 91       	ld	r24, X+
    82cc:	9c 91       	ld	r25, X
    82ce:	13 97       	sbiw	r26, 0x03	; 3
    82d0:	00 97       	sbiw	r24, 0x00	; 0
    82d2:	19 f0       	breq	.+6      	; 0x82da <free+0xd4>
    82d4:	fd 01       	movw	r30, r26
    82d6:	dc 01       	movw	r26, r24
    82d8:	f7 cf       	rjmp	.-18     	; 0x82c8 <free+0xc2>
    82da:	8d 91       	ld	r24, X+
    82dc:	9c 91       	ld	r25, X
    82de:	11 97       	sbiw	r26, 0x01	; 1
    82e0:	9d 01       	movw	r18, r26
    82e2:	2e 5f       	subi	r18, 0xFE	; 254
    82e4:	3f 4f       	sbci	r19, 0xFF	; 255
    82e6:	82 0f       	add	r24, r18
    82e8:	93 1f       	adc	r25, r19
    82ea:	20 91 96 52 	lds	r18, 0x5296	; 0x805296 <__brkval>
    82ee:	30 91 97 52 	lds	r19, 0x5297	; 0x805297 <__brkval+0x1>
    82f2:	28 17       	cp	r18, r24
    82f4:	39 07       	cpc	r19, r25
    82f6:	69 f4       	brne	.+26     	; 0x8312 <free+0x10c>
    82f8:	30 97       	sbiw	r30, 0x00	; 0
    82fa:	29 f4       	brne	.+10     	; 0x8306 <free+0x100>
    82fc:	10 92 98 52 	sts	0x5298, r1	; 0x805298 <__flp>
    8300:	10 92 99 52 	sts	0x5299, r1	; 0x805299 <__flp+0x1>
    8304:	02 c0       	rjmp	.+4      	; 0x830a <free+0x104>
    8306:	12 82       	std	Z+2, r1	; 0x02
    8308:	13 82       	std	Z+3, r1	; 0x03
    830a:	a0 93 96 52 	sts	0x5296, r26	; 0x805296 <__brkval>
    830e:	b0 93 97 52 	sts	0x5297, r27	; 0x805297 <__brkval+0x1>
    8312:	df 91       	pop	r29
    8314:	cf 91       	pop	r28
    8316:	08 95       	ret

00008318 <memset>:
    8318:	dc 01       	movw	r26, r24
    831a:	01 c0       	rjmp	.+2      	; 0x831e <memset+0x6>
    831c:	6d 93       	st	X+, r22
    831e:	41 50       	subi	r20, 0x01	; 1
    8320:	50 40       	sbci	r21, 0x00	; 0
    8322:	e0 f7       	brcc	.-8      	; 0x831c <memset+0x4>
    8324:	08 95       	ret

00008326 <_exit>:
    8326:	f8 94       	cli

00008328 <__stop_program>:
    8328:	ff cf       	rjmp	.-2      	; 0x8328 <__stop_program>
