
Pig_Scales-2.elf:     file format elf32-avr

Sections:
Idx Name          Size      VMA       LMA       File off  Algn
  0 .data         0000018e  00804000  000080dc  00007b90  2**0
                  CONTENTS, ALLOC, LOAD, DATA
  1 .text         00007adc  00000600  00000600  000000b4  2**1
                  CONTENTS, ALLOC, LOAD, READONLY, CODE
  2 .bss          00001121  0080418e  0080418e  00007d1e  2**0
                  ALLOC
  3 .fuse         00000009  00820000  00820000  00007d1e  2**0
                  CONTENTS, ALLOC, LOAD, DATA
  4 .comment      0000005c  00000000  00000000  00007d27  2**0
                  CONTENTS, READONLY
  5 .note.gnu.avr.deviceinfo 00000040  00000000  00000000  00007d84  2**2
                  CONTENTS, READONLY
  6 .debug_aranges 00000608  00000000  00000000  00007dc8  2**3
                  CONTENTS, READONLY, DEBUGGING
  7 .debug_info   0000f648  00000000  00000000  000083d0  2**0
                  CONTENTS, READONLY, DEBUGGING
  8 .debug_abbrev 00004dc8  00000000  00000000  00017a18  2**0
                  CONTENTS, READONLY, DEBUGGING
  9 .debug_line   00005cd9  00000000  00000000  0001c7e0  2**0
                  CONTENTS, READONLY, DEBUGGING
 10 .debug_frame  00001054  00000000  00000000  000224bc  2**2
                  CONTENTS, READONLY, DEBUGGING
 11 .debug_str    00003963  00000000  00000000  00023510  2**0
                  CONTENTS, READONLY, DEBUGGING
 12 .debug_loc    00003f98  00000000  00000000  00026e73  2**0
                  CONTENTS, READONLY, DEBUGGING
 13 .debug_ranges 00000528  00000000  00000000  0002ae0b  2**0
                  CONTENTS, READONLY, DEBUGGING

Disassembly of section .text:

00000600 <__vectors>:
     600:	0c 94 1e 04 	jmp	0x83c	; 0x83c <__ctors_end>
     604:	0c 94 3d 04 	jmp	0x87a	; 0x87a <__bad_interrupt>
     608:	0c 94 3d 04 	jmp	0x87a	; 0x87a <__bad_interrupt>
     60c:	0c 94 3d 04 	jmp	0x87a	; 0x87a <__bad_interrupt>
     610:	0c 94 3d 04 	jmp	0x87a	; 0x87a <__bad_interrupt>
     614:	0c 94 3d 04 	jmp	0x87a	; 0x87a <__bad_interrupt>
     618:	0c 94 3d 04 	jmp	0x87a	; 0x87a <__bad_interrupt>
     61c:	0c 94 3d 04 	jmp	0x87a	; 0x87a <__bad_interrupt>
     620:	0c 94 3d 04 	jmp	0x87a	; 0x87a <__bad_interrupt>
     624:	0c 94 3d 04 	jmp	0x87a	; 0x87a <__bad_interrupt>
     628:	0c 94 3d 04 	jmp	0x87a	; 0x87a <__bad_interrupt>
     62c:	0c 94 3d 04 	jmp	0x87a	; 0x87a <__bad_interrupt>
     630:	0c 94 3d 04 	jmp	0x87a	; 0x87a <__bad_interrupt>
     634:	0c 94 3d 04 	jmp	0x87a	; 0x87a <__bad_interrupt>
     638:	0c 94 3d 04 	jmp	0x87a	; 0x87a <__bad_interrupt>
     63c:	0c 94 3d 04 	jmp	0x87a	; 0x87a <__bad_interrupt>
     640:	0c 94 3d 04 	jmp	0x87a	; 0x87a <__bad_interrupt>
     644:	0c 94 3d 04 	jmp	0x87a	; 0x87a <__bad_interrupt>
     648:	0c 94 3d 04 	jmp	0x87a	; 0x87a <__bad_interrupt>
     64c:	0c 94 3d 04 	jmp	0x87a	; 0x87a <__bad_interrupt>
     650:	0c 94 3d 04 	jmp	0x87a	; 0x87a <__bad_interrupt>
     654:	0c 94 3d 04 	jmp	0x87a	; 0x87a <__bad_interrupt>
     658:	0c 94 3d 04 	jmp	0x87a	; 0x87a <__bad_interrupt>
     65c:	0c 94 3d 04 	jmp	0x87a	; 0x87a <__bad_interrupt>
     660:	0c 94 3d 04 	jmp	0x87a	; 0x87a <__bad_interrupt>
     664:	0c 94 3d 04 	jmp	0x87a	; 0x87a <__bad_interrupt>
     668:	0c 94 3d 04 	jmp	0x87a	; 0x87a <__bad_interrupt>
     66c:	0c 94 3d 04 	jmp	0x87a	; 0x87a <__bad_interrupt>
     670:	0c 94 3d 04 	jmp	0x87a	; 0x87a <__bad_interrupt>
     674:	0c 94 3d 04 	jmp	0x87a	; 0x87a <__bad_interrupt>
     678:	0c 94 3d 04 	jmp	0x87a	; 0x87a <__bad_interrupt>
     67c:	0c 94 4a 04 	jmp	0x894	; 0x894 <__vector_31>
     680:	0c 94 3d 04 	jmp	0x87a	; 0x87a <__bad_interrupt>
     684:	0c 94 3d 04 	jmp	0x87a	; 0x87a <__bad_interrupt>
     688:	0c 94 3d 04 	jmp	0x87a	; 0x87a <__bad_interrupt>
     68c:	0c 94 3d 04 	jmp	0x87a	; 0x87a <__bad_interrupt>
     690:	0c 94 3d 04 	jmp	0x87a	; 0x87a <__bad_interrupt>
     694:	0c 94 3d 04 	jmp	0x87a	; 0x87a <__bad_interrupt>
     698:	0c 94 3d 04 	jmp	0x87a	; 0x87a <__bad_interrupt>
     69c:	0c 94 3d 04 	jmp	0x87a	; 0x87a <__bad_interrupt>
     6a0:	0c 94 3d 04 	jmp	0x87a	; 0x87a <__bad_interrupt>
     6a4:	0c 94 3d 04 	jmp	0x87a	; 0x87a <__bad_interrupt>
     6a8:	0c 94 3d 04 	jmp	0x87a	; 0x87a <__bad_interrupt>
     6ac:	0c 94 5e 17 	jmp	0x2ebc	; 0x2ebc <__vector_43>
     6b0:	0c 94 3d 04 	jmp	0x87a	; 0x87a <__bad_interrupt>
     6b4:	0c 94 3d 04 	jmp	0x87a	; 0x87a <__bad_interrupt>
     6b8:	0c 94 a2 04 	jmp	0x944	; 0x944 <__vector_46>
     6bc:	0c 94 3d 04 	jmp	0x87a	; 0x87a <__bad_interrupt>
     6c0:	0c 94 3d 04 	jmp	0x87a	; 0x87a <__bad_interrupt>
     6c4:	0c 94 3d 04 	jmp	0x87a	; 0x87a <__bad_interrupt>
     6c8:	0c 94 3d 04 	jmp	0x87a	; 0x87a <__bad_interrupt>
     6cc:	0c 94 3d 04 	jmp	0x87a	; 0x87a <__bad_interrupt>
     6d0:	0c 94 76 04 	jmp	0x8ec	; 0x8ec <__vector_52>
     6d4:	0c 94 3d 04 	jmp	0x87a	; 0x87a <__bad_interrupt>
     6d8:	0c 94 3d 04 	jmp	0x87a	; 0x87a <__bad_interrupt>
     6dc:	0c 94 3d 04 	jmp	0x87a	; 0x87a <__bad_interrupt>
     6e0:	0c 94 3d 04 	jmp	0x87a	; 0x87a <__bad_interrupt>
     6e4:	0c 94 3d 04 	jmp	0x87a	; 0x87a <__bad_interrupt>
     6e8:	0c 94 3d 04 	jmp	0x87a	; 0x87a <__bad_interrupt>
     6ec:	0c 94 3d 04 	jmp	0x87a	; 0x87a <__bad_interrupt>
     6f0:	0c 94 3d 04 	jmp	0x87a	; 0x87a <__bad_interrupt>
     6f4:	0c 94 3d 04 	jmp	0x87a	; 0x87a <__bad_interrupt>
     6f8:	0c 94 3d 04 	jmp	0x87a	; 0x87a <__bad_interrupt>
     6fc:	0c 94 3d 04 	jmp	0x87a	; 0x87a <__bad_interrupt>
     700:	84 0f       	add	r24, r20
     702:	11 0f       	add	r17, r17
     704:	29 0f       	add	r18, r25
     706:	40 0f       	add	r20, r16
     708:	56 0f       	add	r21, r22
     70a:	6c 0f       	add	r22, r28
     70c:	82 0f       	add	r24, r18
     70e:	80 29       	or	r24, r0
     710:	48 28       	or	r4, r8
     712:	77 28       	or	r7, r7
     714:	a7 28       	or	r10, r7
     716:	d5 28       	or	r13, r5
     718:	0e 29       	or	r16, r14
     71a:	44 29       	or	r20, r4
     71c:	7e 29       	or	r23, r14
     71e:	f4 29       	or	r31, r4
     720:	f8 29       	or	r31, r8
     722:	fc 29       	or	r31, r12
     724:	00 2a       	or	r0, r16
     726:	06 2a       	or	r0, r22
     728:	0a 2a       	or	r0, r26
     72a:	0e 2a       	or	r0, r30
     72c:	d0 2a       	or	r13, r16
     72e:	3a 2b       	or	r19, r26
     730:	a3 2b       	or	r26, r19
     732:	0b 2c       	mov	r0, r11
     734:	75 2c       	mov	r7, r5
     736:	df 2c       	mov	r13, r15
     738:	46 2d       	mov	r20, r6

0000073a <__trampolines_end>:
     73a:	6e 61       	ori	r22, 0x1E	; 30
     73c:	6e 00       	.word	0x006e	; ????

0000073e <__c.2332>:
     73e:	69 6e 66 00 00 40 7a 10 f3 5a 00 a0 72 4e 18 09     inf..@z..Z..rN..
     74e:	00 10 a5 d4 e8 00 00 e8 76 48 17 00 00 e4 0b 54     ........vH.....T
     75e:	02 00 00 ca 9a 3b 00 00 00 e1 f5 05 00 00 80 96     .....;..........
     76e:	98 00 00 00 40 42 0f 00 00 00 a0 86 01 00 00 00     ....@B..........
     77e:	10 27 00 00 00 00 e8 03 00 00 00 00 64 00 00 00     .'..........d...
     78e:	00 00 0a 00 00 00 00 00 01 00 00 00 00 00 2c 76     ..............,v
     79e:	d8 88 dc 67 4f 08 23 df c1 df ae 59 e1 b1 b7 96     ...gO.#....Y....
     7ae:	e5 e3 e4 53 c6 3a e6 51 99 76 96 e8 e6 c2 84 26     ...S.:.Q.v.....&
     7be:	eb 89 8c 9b 62 ed 40 7c 6f fc ef bc 9c 9f 40 f2     ....b.@|o.....@.
     7ce:	ba a5 6f a5 f4 90 05 5a 2a f7 5c 93 6b 6c f9 67     ..o....Z*.\.kl.g
     7de:	6d c1 1b fc e0 e4 0d 47 fe f5 20 e6 b5 00 d0 ed     m......G.. .....
     7ee:	90 2e 03 00 94 35 77 05 00 80 84 1e 08 00 00 20     .....5w........ 
     7fe:	4e 0a 00 00 00 c8 0c 33 33 33 33 0f 98 6e 12 83     N......3333..n..
     80e:	11 41 ef 8d 21 14 89 3b e6 55 16 cf fe e6 db 18     .A..!..;.U......
     81e:	d1 84 4b 38 1b f7 7c 1d 90 1d a4 bb e4 24 20 32     ..K8..|......$ 2
     82e:	84 72 5e 22 81 00 c9 f1 24 ec a1 e5 3d 27           .r^"....$...='

0000083c <__ctors_end>:
     83c:	11 24       	eor	r1, r1
     83e:	1f be       	out	0x3f, r1	; 63
     840:	cf ef       	ldi	r28, 0xFF	; 255
     842:	cd bf       	out	0x3d, r28	; 61
     844:	df e7       	ldi	r29, 0x7F	; 127
     846:	de bf       	out	0x3e, r29	; 62

00000848 <__do_copy_data>:
     848:	11 e4       	ldi	r17, 0x41	; 65
     84a:	a0 e0       	ldi	r26, 0x00	; 0
     84c:	b0 e4       	ldi	r27, 0x40	; 64
     84e:	ec ed       	ldi	r30, 0xDC	; 220
     850:	f0 e8       	ldi	r31, 0x80	; 128
     852:	00 e0       	ldi	r16, 0x00	; 0
     854:	0b bf       	out	0x3b, r16	; 59
     856:	02 c0       	rjmp	.+4      	; 0x85c <__do_copy_data+0x14>
     858:	07 90       	elpm	r0, Z+
     85a:	0d 92       	st	X+, r0
     85c:	ae 38       	cpi	r26, 0x8E	; 142
     85e:	b1 07       	cpc	r27, r17
     860:	d9 f7       	brne	.-10     	; 0x858 <__do_copy_data+0x10>

00000862 <__do_clear_bss>:
     862:	22 e5       	ldi	r18, 0x52	; 82
     864:	ae e8       	ldi	r26, 0x8E	; 142
     866:	b1 e4       	ldi	r27, 0x41	; 65
     868:	01 c0       	rjmp	.+2      	; 0x86c <.do_clear_bss_start>

0000086a <.do_clear_bss_loop>:
     86a:	1d 92       	st	X+, r1

0000086c <.do_clear_bss_start>:
     86c:	af 3a       	cpi	r26, 0xAF	; 175
     86e:	b2 07       	cpc	r27, r18
     870:	e1 f7       	brne	.-8      	; 0x86a <.do_clear_bss_loop>
     872:	0e 94 f5 10 	call	0x21ea	; 0x21ea <main>
     876:	0c 94 6c 40 	jmp	0x80d8	; 0x80d8 <_exit>

0000087a <__bad_interrupt>:
     87a:	0c 94 00 03 	jmp	0x600	; 0x600 <__vectors>

0000087e <atmel_start_init>:
/**
 * Initializes MCU, drivers and middleware in the project
 **/
void atmel_start_init(void)
{
	system_init();
     87e:	0e 94 f4 12 	call	0x25e8	; 0x25e8 <system_init>
     882:	08 95       	ret

00000884 <Beep>:
#include <compiler.h>

//=================================================================================================
void Beep(uint16_t BeepTimer_1ms)
{
	Buzzer_ON;								// Buzzer on
     884:	e4 e0       	ldi	r30, 0x04	; 4
     886:	f4 e0       	ldi	r31, 0x04	; 4
     888:	90 81       	ld	r25, Z
     88a:	92 60       	ori	r25, 0x02	; 2
     88c:	90 83       	st	Z, r25
	Beep_Timer = BeepTimer_1ms;
     88e:	80 93 81 51 	sts	0x5181, r24	; 0x805181 <Beep_Timer>
     892:	08 95       	ret

00000894 <__vector_31>:
#endif

//=================================================================================================
#ifdef Usart_1
ISR(USART1_RXC_vect)
{
     894:	1f 92       	push	r1
     896:	0f 92       	push	r0
     898:	0f b6       	in	r0, 0x3f	; 63
     89a:	0f 92       	push	r0
     89c:	11 24       	eor	r1, r1
     89e:	0b b6       	in	r0, 0x3b	; 59
     8a0:	0f 92       	push	r0
     8a2:	8f 93       	push	r24
     8a4:	9f 93       	push	r25
     8a6:	ef 93       	push	r30
     8a8:	ff 93       	push	r31
	while(!(USART1.STATUS & USART_RXCIF_bm)) ;
     8aa:	80 91 24 08 	lds	r24, 0x0824	; 0x800824 <__TEXT_REGION_LENGTH__+0x7e0824>
     8ae:	88 23       	and	r24, r24
     8b0:	e4 f7       	brge	.-8      	; 0x8aa <__vector_31+0x16>
	Rx1_Buff[Rx1_Cnt] = USART1.RXDATAL;
     8b2:	80 91 03 51 	lds	r24, 0x5103	; 0x805103 <Rx1_Cnt>
     8b6:	e8 2f       	mov	r30, r24
     8b8:	f0 e0       	ldi	r31, 0x00	; 0
     8ba:	90 91 20 08 	lds	r25, 0x0820	; 0x800820 <__TEXT_REGION_LENGTH__+0x7e0820>
     8be:	e8 5f       	subi	r30, 0xF8	; 248
     8c0:	fe 4a       	sbci	r31, 0xAE	; 174
     8c2:	90 83       	st	Z, r25
	if(Rx1_Cnt >= RX1_SIZE) {Rx1_Cnt = 0;}					// RX1_SIZE : 250
     8c4:	89 31       	cpi	r24, 0x19	; 25
     8c6:	10 f0       	brcs	.+4      	; 0x8cc <__vector_31+0x38>
     8c8:	10 92 03 51 	sts	0x5103, r1	; 0x805103 <Rx1_Cnt>
	Rx1_Cnt++;
     8cc:	80 91 03 51 	lds	r24, 0x5103	; 0x805103 <Rx1_Cnt>
     8d0:	8f 5f       	subi	r24, 0xFF	; 255
     8d2:	80 93 03 51 	sts	0x5103, r24	; 0x805103 <Rx1_Cnt>
}
     8d6:	ff 91       	pop	r31
     8d8:	ef 91       	pop	r30
     8da:	9f 91       	pop	r25
     8dc:	8f 91       	pop	r24
     8de:	0f 90       	pop	r0
     8e0:	0b be       	out	0x3b, r0	; 59
     8e2:	0f 90       	pop	r0
     8e4:	0f be       	out	0x3f, r0	; 63
     8e6:	0f 90       	pop	r0
     8e8:	1f 90       	pop	r1
     8ea:	18 95       	reti

000008ec <__vector_52>:
#endif

//=================================================================================================
#ifdef Usart_3
ISR(USART3_RXC_vect)
{
     8ec:	1f 92       	push	r1
     8ee:	0f 92       	push	r0
     8f0:	0f b6       	in	r0, 0x3f	; 63
     8f2:	0f 92       	push	r0
     8f4:	11 24       	eor	r1, r1
     8f6:	0b b6       	in	r0, 0x3b	; 59
     8f8:	0f 92       	push	r0
     8fa:	8f 93       	push	r24
     8fc:	9f 93       	push	r25
     8fe:	ef 93       	push	r30
     900:	ff 93       	push	r31
	while(!(USART3.STATUS & USART_RXCIF_bm)) ;
     902:	80 91 64 08 	lds	r24, 0x0864	; 0x800864 <__TEXT_REGION_LENGTH__+0x7e0864>
     906:	88 23       	and	r24, r24
     908:	e4 f7       	brge	.-8      	; 0x902 <__vector_52+0x16>
	Rx3_Buff[Rx3_Cnt] = USART3.RXDATAL;
     90a:	80 91 8a 51 	lds	r24, 0x518A	; 0x80518a <Rx3_Cnt>
     90e:	e8 2f       	mov	r30, r24
     910:	f0 e0       	ldi	r31, 0x00	; 0
     912:	90 91 60 08 	lds	r25, 0x0860	; 0x800860 <__TEXT_REGION_LENGTH__+0x7e0860>
     916:	ee 55       	subi	r30, 0x5E	; 94
     918:	fe 4a       	sbci	r31, 0xAE	; 174
     91a:	90 83       	st	Z, r25
	if(Rx3_Cnt >= RX3_SIZE) {Rx3_Cnt = 0;}					// RX3_SIZE : 250
     91c:	8a 3f       	cpi	r24, 0xFA	; 250
     91e:	10 f0       	brcs	.+4      	; 0x924 <__vector_52+0x38>
     920:	10 92 8a 51 	sts	0x518A, r1	; 0x80518a <Rx3_Cnt>
	Rx3_Cnt++;
     924:	80 91 8a 51 	lds	r24, 0x518A	; 0x80518a <Rx3_Cnt>
     928:	8f 5f       	subi	r24, 0xFF	; 255
     92a:	80 93 8a 51 	sts	0x518A, r24	; 0x80518a <Rx3_Cnt>
}
     92e:	ff 91       	pop	r31
     930:	ef 91       	pop	r30
     932:	9f 91       	pop	r25
     934:	8f 91       	pop	r24
     936:	0f 90       	pop	r0
     938:	0b be       	out	0x3b, r0	; 59
     93a:	0f 90       	pop	r0
     93c:	0f be       	out	0x3f, r0	; 63
     93e:	0f 90       	pop	r0
     940:	1f 90       	pop	r1
     942:	18 95       	reti

00000944 <__vector_46>:
#endif

//=================================================================================================
#ifdef Timer_1
ISR(TCA1_OVF_vect)								// 5mSec Timer
{
     944:	1f 92       	push	r1
     946:	0f 92       	push	r0
     948:	0f b6       	in	r0, 0x3f	; 63
     94a:	0f 92       	push	r0
     94c:	11 24       	eor	r1, r1
     94e:	0b b6       	in	r0, 0x3b	; 59
     950:	0f 92       	push	r0
     952:	2f 93       	push	r18
     954:	3f 93       	push	r19
     956:	4f 93       	push	r20
     958:	5f 93       	push	r21
     95a:	6f 93       	push	r22
     95c:	7f 93       	push	r23
     95e:	8f 93       	push	r24
     960:	9f 93       	push	r25
     962:	af 93       	push	r26
     964:	bf 93       	push	r27
     966:	ef 93       	push	r30
     968:	ff 93       	push	r31
	TCA1.SINGLE.INTFLAGS = TCA_SINGLE_OVF_bm;				// TCA1 ҝА№цЗГ·Оҝц SET
     96a:	81 e0       	ldi	r24, 0x01	; 1
     96c:	80 93 4b 0a 	sts	0x0A4B, r24	; 0x800a4b <__TEXT_REGION_LENGTH__+0x7e0a4b>

	Fnd_Display();								// FND Display
     970:	0e 94 48 05 	call	0xa90	; 0xa90 <Fnd_Display>
	Key_Scan();								// key АФ·В ГјЕ©
     974:	0e 94 fe 05 	call	0xbfc	; 0xbfc <Key_Scan>

	if(Timer.Input_Key == 0) {KEY.Buff = 0; KEY.Key = 0;}			// Timer.Input_Key °Ў 0 АМёй Key °Ә №Ч Key АФ·В ГКұвИӯ
     978:	80 91 4d 51 	lds	r24, 0x514D	; 0x80514d <Timer>
     97c:	81 11       	cpse	r24, r1
     97e:	05 c0       	rjmp	.+10     	; 0x98a <__vector_46+0x46>
     980:	e7 e6       	ldi	r30, 0x67	; 103
     982:	f1 e5       	ldi	r31, 0x51	; 81
     984:	11 82       	std	Z+1, r1	; 0x01
     986:	12 82       	std	Z+2, r1	; 0x02
     988:	05 c0       	rjmp	.+10     	; 0x994 <__vector_46+0x50>
	else			 {Timer.Input_Key--;}				// Timer.Input_Key °Ў 0 АМ ҫЖҙПёй Timer.Input_Key °ЁјТ
     98a:	ed e4       	ldi	r30, 0x4D	; 77
     98c:	f1 e5       	ldi	r31, 0x51	; 81
     98e:	80 81       	ld	r24, Z
     990:	81 50       	subi	r24, 0x01	; 1
     992:	80 83       	st	Z, r24
//-------------------------------------------------------------------------------------------------
	if(Beep_Timer == 0) {Buzzer_OFF;}					// Beep_Timer °Ў 0 АМёй Buzzer OFF
     994:	80 91 81 51 	lds	r24, 0x5181	; 0x805181 <Beep_Timer>
     998:	81 11       	cpse	r24, r1
     99a:	06 c0       	rjmp	.+12     	; 0x9a8 <__vector_46+0x64>
     99c:	e4 e0       	ldi	r30, 0x04	; 4
     99e:	f4 e0       	ldi	r31, 0x04	; 4
     9a0:	80 81       	ld	r24, Z
     9a2:	8d 7f       	andi	r24, 0xFD	; 253
     9a4:	80 83       	st	Z, r24
     9a6:	03 c0       	rjmp	.+6      	; 0x9ae <__vector_46+0x6a>
	else		    {Beep_Timer--;}					// Beep_Timer °Ў 0 АМ ҫЖҙПёй Beep_Timer °ЁјТ
     9a8:	81 50       	subi	r24, 0x01	; 1
     9aa:	80 93 81 51 	sts	0x5181, r24	; 0x805181 <Beep_Timer>
//-------------------------------------------------------------------------------------------------
	Timer.RegExitTimer++;							// Timer.RegExitTimer Бх°Ў (5mSec ё¶ҙЩ)
     9ae:	ed e4       	ldi	r30, 0x4D	; 77
     9b0:	f1 e5       	ldi	r31, 0x51	; 81
     9b2:	81 81       	ldd	r24, Z+1	; 0x01
     9b4:	92 81       	ldd	r25, Z+2	; 0x02
     9b6:	01 96       	adiw	r24, 0x01	; 1
     9b8:	81 83       	std	Z+1, r24	; 0x01
     9ba:	92 83       	std	Z+2, r25	; 0x02
	if(Timer.RegExitTimer >= REG_EXIT_TIME)					// Timer.RegExitTimer °Ў REG_EXIT_TIME °ъ °°°ЕіӘ Е©ёй
     9bc:	81 81       	ldd	r24, Z+1	; 0x01
     9be:	92 81       	ldd	r25, Z+2	; 0x02
     9c0:	80 3d       	cpi	r24, 0xD0	; 208
     9c2:	97 40       	sbci	r25, 0x07	; 7
     9c4:	28 f0       	brcs	.+10     	; 0x9d0 <__vector_46+0x8c>
	{									// јіБӨ ёрөеИД АПБӨҪГ°Ј(10ГК) №цЖ° АФ·В ҫшАёёй Е»Гв
		SET.Menu = 0;							// Menu ёрөе ГКұвИӯ
     9c6:	e8 e2       	ldi	r30, 0x28	; 40
     9c8:	f1 e5       	ldi	r31, 0x51	; 81
     9ca:	10 82       	st	Z, r1
		SET.Select = 0;							// Select ёрөе ГКұвИӯ
     9cc:	11 82       	std	Z+1, r1	; 0x01
		SET.NumSET = 0;							// №ж№шИЈ Set ёрөе ГКұвИӯ
     9ce:	12 82       	std	Z+2, r1	; 0x02
	}
//-------------------------------------------------------------------------------------------------
	Timer.RTC_Timer++;							// Timer.RTC_Timer Бх°Ў (5mSec ё¶ҙЩ)
     9d0:	ed e4       	ldi	r30, 0x4D	; 77
     9d2:	f1 e5       	ldi	r31, 0x51	; 81
     9d4:	83 81       	ldd	r24, Z+3	; 0x03
     9d6:	94 81       	ldd	r25, Z+4	; 0x04
     9d8:	01 96       	adiw	r24, 0x01	; 1
     9da:	83 83       	std	Z+3, r24	; 0x03
     9dc:	94 83       	std	Z+4, r25	; 0x04
//-------------------------------------------------------------------------------------------------
	Blink_Timer++;								// Blink_Timer Бх°Ў (5mSec ё¶ҙЩ)
     9de:	80 91 35 51 	lds	r24, 0x5135	; 0x805135 <Blink_Timer>
     9e2:	8f 5f       	subi	r24, 0xFF	; 255
     9e4:	80 93 35 51 	sts	0x5135, r24	; 0x805135 <Blink_Timer>
	if(Blink_Timer > 50)							// Blink_Timer АМ 50(0.25ГК)әёҙЩ Е©ёй
     9e8:	83 33       	cpi	r24, 0x33	; 51
     9ea:	48 f0       	brcs	.+18     	; 0x9fe <__vector_46+0xba>
	{
		Blink = Blink ? 0 : 1;						// Blink АМ 1АМёй 0Аё·О 0АМёй 1·О әҜ°ж
     9ec:	81 e0       	ldi	r24, 0x01	; 1
     9ee:	90 91 93 51 	lds	r25, 0x5193	; 0x805193 <Blink>
     9f2:	91 11       	cpse	r25, r1
     9f4:	80 e0       	ldi	r24, 0x00	; 0
     9f6:	80 93 93 51 	sts	0x5193, r24	; 0x805193 <Blink>
		Blink_Timer = 0;						// Blink_Timer ГКұвИӯ
     9fa:	10 92 35 51 	sts	0x5135, r1	; 0x805135 <Blink_Timer>
	}
//-------------------------------------------------------------------------------------------------
}
     9fe:	ff 91       	pop	r31
     a00:	ef 91       	pop	r30
     a02:	bf 91       	pop	r27
     a04:	af 91       	pop	r26
     a06:	9f 91       	pop	r25
     a08:	8f 91       	pop	r24
     a0a:	7f 91       	pop	r23
     a0c:	6f 91       	pop	r22
     a0e:	5f 91       	pop	r21
     a10:	4f 91       	pop	r20
     a12:	3f 91       	pop	r19
     a14:	2f 91       	pop	r18
     a16:	0f 90       	pop	r0
     a18:	0b be       	out	0x3b, r0	; 59
     a1a:	0f 90       	pop	r0
     a1c:	0f be       	out	0x3f, r0	; 63
     a1e:	0f 90       	pop	r0
     a20:	1f 90       	pop	r1
     a22:	18 95       	reti

00000a24 <std_putchar>:
	SAVE.Month  [Data_Number] = ee_read_byte(MEASURE_MONTH  + (MEASURE_LENGTH * cnt));
	SAVE.Date   [Data_Number] = ee_read_byte(MEASURE_DATE   + (MEASURE_LENGTH * cnt));
	SAVE.Hour   [Data_Number] = ee_read_byte(MEASURE_HOUR   + (MEASURE_LENGTH * cnt));
	SAVE.Min    [Data_Number] = ee_read_byte(MEASURE_MIN    + (MEASURE_LENGTH * cnt));
	SAVE.Sec    [Data_Number] = ee_read_byte(MEASURE_MIN    + (MEASURE_LENGTH * cnt));
}
     a24:	cf 93       	push	r28
     a26:	c8 2f       	mov	r28, r24
     a28:	80 91 66 51 	lds	r24, 0x5166	; 0x805166 <printf_port>
     a2c:	81 30       	cpi	r24, 0x01	; 1
     a2e:	19 f4       	brne	.+6      	; 0xa36 <std_putchar+0x12>
     a30:	8c 2f       	mov	r24, r28
     a32:	0e 94 85 2d 	call	0x5b0a	; 0x5b0a <USART1_Write>
     a36:	80 91 66 51 	lds	r24, 0x5166	; 0x805166 <printf_port>
     a3a:	83 30       	cpi	r24, 0x03	; 3
     a3c:	19 f4       	brne	.+6      	; 0xa44 <std_putchar+0x20>
     a3e:	8c 2f       	mov	r24, r28
     a40:	0e 94 9a 2d 	call	0x5b34	; 0x5b34 <USART3_Write>
     a44:	80 e0       	ldi	r24, 0x00	; 0
     a46:	90 e0       	ldi	r25, 0x00	; 0
     a48:	cf 91       	pop	r28
     a4a:	08 95       	ret

00000a4c <MCU_Init>:
     a4c:	8e e0       	ldi	r24, 0x0E	; 14
     a4e:	80 93 00 04 	sts	0x0400, r24	; 0x800400 <__TEXT_REGION_LENGTH__+0x7e0400>
     a52:	8d e0       	ldi	r24, 0x0D	; 13
     a54:	80 93 20 04 	sts	0x0420, r24	; 0x800420 <__TEXT_REGION_LENGTH__+0x7e0420>
     a58:	85 e5       	ldi	r24, 0x55	; 85
     a5a:	80 93 40 04 	sts	0x0440, r24	; 0x800440 <__TEXT_REGION_LENGTH__+0x7e0440>
     a5e:	10 92 60 04 	sts	0x0460, r1	; 0x800460 <__TEXT_REGION_LENGTH__+0x7e0460>
     a62:	10 92 80 04 	sts	0x0480, r1	; 0x800480 <__TEXT_REGION_LENGTH__+0x7e0480>
     a66:	8c e0       	ldi	r24, 0x0C	; 12
     a68:	80 93 a0 04 	sts	0x04A0, r24	; 0x8004a0 <__TEXT_REGION_LENGTH__+0x7e04a0>
     a6c:	87 ef       	ldi	r24, 0xF7	; 247
     a6e:	80 93 c0 04 	sts	0x04C0, r24	; 0x8004c0 <__TEXT_REGION_LENGTH__+0x7e04c0>
     a72:	10 92 04 04 	sts	0x0404, r1	; 0x800404 <__TEXT_REGION_LENGTH__+0x7e0404>
     a76:	10 92 24 04 	sts	0x0424, r1	; 0x800424 <__TEXT_REGION_LENGTH__+0x7e0424>
     a7a:	10 92 44 04 	sts	0x0444, r1	; 0x800444 <__TEXT_REGION_LENGTH__+0x7e0444>
     a7e:	10 92 64 04 	sts	0x0464, r1	; 0x800464 <__TEXT_REGION_LENGTH__+0x7e0464>
     a82:	10 92 84 04 	sts	0x0484, r1	; 0x800484 <__TEXT_REGION_LENGTH__+0x7e0484>
     a86:	10 92 a4 04 	sts	0x04A4, r1	; 0x8004a4 <__TEXT_REGION_LENGTH__+0x7e04a4>
     a8a:	10 92 c4 04 	sts	0x04C4, r1	; 0x8004c4 <__TEXT_REGION_LENGTH__+0x7e04c4>
     a8e:	08 95       	ret

00000a90 <Fnd_Display>:
     a90:	32 e0       	ldi	r19, 0x02	; 2
     a92:	2f c0       	rjmp	.+94     	; 0xaf2 <Fnd_Display+0x62>
     a94:	e4 ec       	ldi	r30, 0xC4	; 196
     a96:	f4 e0       	ldi	r31, 0x04	; 4
     a98:	80 81       	ld	r24, Z
     a9a:	8d 7f       	andi	r24, 0xFD	; 253
     a9c:	80 83       	st	Z, r24
     a9e:	80 91 90 41 	lds	r24, 0x4190	; 0x804190 <cnt.6421>
     aa2:	94 e0       	ldi	r25, 0x04	; 4
     aa4:	39 02       	muls	r19, r25
     aa6:	f0 01       	movw	r30, r0
     aa8:	11 24       	eor	r1, r1
     aaa:	ef 56       	subi	r30, 0x6F	; 111
     aac:	fe 4b       	sbci	r31, 0xBE	; 190
     aae:	e8 0f       	add	r30, r24
     ab0:	f1 1d       	adc	r31, r1
     ab2:	80 81       	ld	r24, Z
     ab4:	90 e0       	ldi	r25, 0x00	; 0
     ab6:	02 2e       	mov	r0, r18
     ab8:	02 c0       	rjmp	.+4      	; 0xabe <Fnd_Display+0x2e>
     aba:	95 95       	asr	r25
     abc:	87 95       	ror	r24
     abe:	0a 94       	dec	r0
     ac0:	e2 f7       	brpl	.-8      	; 0xaba <Fnd_Display+0x2a>
     ac2:	80 ff       	sbrs	r24, 0
     ac4:	06 c0       	rjmp	.+12     	; 0xad2 <Fnd_Display+0x42>
     ac6:	e4 ec       	ldi	r30, 0xC4	; 196
     ac8:	f4 e0       	ldi	r31, 0x04	; 4
     aca:	80 81       	ld	r24, Z
     acc:	84 60       	ori	r24, 0x04	; 4
     ace:	80 83       	st	Z, r24
     ad0:	05 c0       	rjmp	.+10     	; 0xadc <Fnd_Display+0x4c>
     ad2:	e4 ec       	ldi	r30, 0xC4	; 196
     ad4:	f4 e0       	ldi	r31, 0x04	; 4
     ad6:	80 81       	ld	r24, Z
     ad8:	8b 7f       	andi	r24, 0xFB	; 251
     ada:	80 83       	st	Z, r24
     adc:	e4 ec       	ldi	r30, 0xC4	; 196
     ade:	f4 e0       	ldi	r31, 0x04	; 4
     ae0:	80 81       	ld	r24, Z
     ae2:	82 60       	ori	r24, 0x02	; 2
     ae4:	80 83       	st	Z, r24
     ae6:	2f 5f       	subi	r18, 0xFF	; 255
     ae8:	01 c0       	rjmp	.+2      	; 0xaec <Fnd_Display+0x5c>
     aea:	20 e0       	ldi	r18, 0x00	; 0
     aec:	28 30       	cpi	r18, 0x08	; 8
     aee:	90 f2       	brcs	.-92     	; 0xa94 <Fnd_Display+0x4>
     af0:	31 50       	subi	r19, 0x01	; 1
     af2:	33 23       	and	r19, r19
     af4:	d4 f7       	brge	.-12     	; 0xaea <Fnd_Display+0x5a>
     af6:	e4 ec       	ldi	r30, 0xC4	; 196
     af8:	f4 e0       	ldi	r31, 0x04	; 4
     afa:	80 81       	ld	r24, Z
     afc:	81 60       	ori	r24, 0x01	; 1
     afe:	80 83       	st	Z, r24
     b00:	80 81       	ld	r24, Z
     b02:	8e 7f       	andi	r24, 0xFE	; 254
     b04:	80 83       	st	Z, r24
     b06:	80 91 90 41 	lds	r24, 0x4190	; 0x804190 <cnt.6421>
     b0a:	81 30       	cpi	r24, 0x01	; 1
     b0c:	a9 f0       	breq	.+42     	; 0xb38 <Fnd_Display+0xa8>
     b0e:	28 f0       	brcs	.+10     	; 0xb1a <Fnd_Display+0x8a>
     b10:	82 30       	cpi	r24, 0x02	; 2
     b12:	09 f1       	breq	.+66     	; 0xb56 <Fnd_Display+0xc6>
     b14:	83 30       	cpi	r24, 0x03	; 3
     b16:	71 f1       	breq	.+92     	; 0xb74 <Fnd_Display+0xe4>
     b18:	3b c0       	rjmp	.+118    	; 0xb90 <Fnd_Display+0x100>
     b1a:	e4 ec       	ldi	r30, 0xC4	; 196
     b1c:	f4 e0       	ldi	r31, 0x04	; 4
     b1e:	80 81       	ld	r24, Z
     b20:	8f 7e       	andi	r24, 0xEF	; 239
     b22:	80 83       	st	Z, r24
     b24:	80 81       	ld	r24, Z
     b26:	8f 7d       	andi	r24, 0xDF	; 223
     b28:	80 83       	st	Z, r24
     b2a:	80 81       	ld	r24, Z
     b2c:	8f 7b       	andi	r24, 0xBF	; 191
     b2e:	80 83       	st	Z, r24
     b30:	80 81       	ld	r24, Z
     b32:	80 68       	ori	r24, 0x80	; 128
     b34:	80 83       	st	Z, r24
     b36:	2c c0       	rjmp	.+88     	; 0xb90 <Fnd_Display+0x100>
     b38:	e4 ec       	ldi	r30, 0xC4	; 196
     b3a:	f4 e0       	ldi	r31, 0x04	; 4
     b3c:	80 81       	ld	r24, Z
     b3e:	8f 7e       	andi	r24, 0xEF	; 239
     b40:	80 83       	st	Z, r24
     b42:	80 81       	ld	r24, Z
     b44:	8f 7d       	andi	r24, 0xDF	; 223
     b46:	80 83       	st	Z, r24
     b48:	80 81       	ld	r24, Z
     b4a:	80 64       	ori	r24, 0x40	; 64
     b4c:	80 83       	st	Z, r24
     b4e:	80 81       	ld	r24, Z
     b50:	8f 77       	andi	r24, 0x7F	; 127
     b52:	80 83       	st	Z, r24
     b54:	1d c0       	rjmp	.+58     	; 0xb90 <Fnd_Display+0x100>
     b56:	e4 ec       	ldi	r30, 0xC4	; 196
     b58:	f4 e0       	ldi	r31, 0x04	; 4
     b5a:	80 81       	ld	r24, Z
     b5c:	8f 7e       	andi	r24, 0xEF	; 239
     b5e:	80 83       	st	Z, r24
     b60:	80 81       	ld	r24, Z
     b62:	80 62       	ori	r24, 0x20	; 32
     b64:	80 83       	st	Z, r24
     b66:	80 81       	ld	r24, Z
     b68:	8f 7b       	andi	r24, 0xBF	; 191
     b6a:	80 83       	st	Z, r24
     b6c:	80 81       	ld	r24, Z
     b6e:	8f 77       	andi	r24, 0x7F	; 127
     b70:	80 83       	st	Z, r24
     b72:	0e c0       	rjmp	.+28     	; 0xb90 <Fnd_Display+0x100>
     b74:	e4 ec       	ldi	r30, 0xC4	; 196
     b76:	f4 e0       	ldi	r31, 0x04	; 4
     b78:	80 81       	ld	r24, Z
     b7a:	80 61       	ori	r24, 0x10	; 16
     b7c:	80 83       	st	Z, r24
     b7e:	80 81       	ld	r24, Z
     b80:	8f 7d       	andi	r24, 0xDF	; 223
     b82:	80 83       	st	Z, r24
     b84:	80 81       	ld	r24, Z
     b86:	8f 7b       	andi	r24, 0xBF	; 191
     b88:	80 83       	st	Z, r24
     b8a:	80 81       	ld	r24, Z
     b8c:	8f 77       	andi	r24, 0x7F	; 127
     b8e:	80 83       	st	Z, r24
     b90:	80 91 90 41 	lds	r24, 0x4190	; 0x804190 <cnt.6421>
     b94:	8f 5f       	subi	r24, 0xFF	; 255
     b96:	80 93 90 41 	sts	0x4190, r24	; 0x804190 <cnt.6421>
     b9a:	84 30       	cpi	r24, 0x04	; 4
     b9c:	10 f0       	brcs	.+4      	; 0xba2 <Fnd_Display+0x112>
     b9e:	10 92 90 41 	sts	0x4190, r1	; 0x804190 <cnt.6421>
     ba2:	08 95       	ret

00000ba4 <FND_Value_Data>:
     ba4:	16 c0       	rjmp	.+44     	; 0xbd2 <FND_Value_Data+0x2e>
     ba6:	e8 2f       	mov	r30, r24
     ba8:	f0 e0       	ldi	r31, 0x00	; 0
     baa:	a4 2f       	mov	r26, r20
     bac:	b0 e0       	ldi	r27, 0x00	; 0
     bae:	a5 5a       	subi	r26, 0xA5	; 165
     bb0:	be 4b       	sbci	r27, 0xBE	; 190
     bb2:	2c 91       	ld	r18, X
     bb4:	ee 0f       	add	r30, r30
     bb6:	ff 1f       	adc	r31, r31
     bb8:	ee 0f       	add	r30, r30
     bba:	ff 1f       	adc	r31, r31
     bbc:	ef 56       	subi	r30, 0x6F	; 111
     bbe:	fe 4b       	sbci	r31, 0xBE	; 190
     bc0:	e9 0f       	add	r30, r25
     bc2:	f1 1d       	adc	r31, r1
     bc4:	20 83       	st	Z, r18
     bc6:	9f 5f       	subi	r25, 0xFF	; 255
     bc8:	01 c0       	rjmp	.+2      	; 0xbcc <FND_Value_Data+0x28>
     bca:	90 e0       	ldi	r25, 0x00	; 0
     bcc:	94 30       	cpi	r25, 0x04	; 4
     bce:	58 f3       	brcs	.-42     	; 0xba6 <FND_Value_Data+0x2>
     bd0:	8f 5f       	subi	r24, 0xFF	; 255
     bd2:	68 17       	cp	r22, r24
     bd4:	d0 f7       	brcc	.-12     	; 0xbca <FND_Value_Data+0x26>
     bd6:	08 95       	ret

00000bd8 <FND_ALL_OFF>:
     bd8:	80 e0       	ldi	r24, 0x00	; 0
     bda:	0d c0       	rjmp	.+26     	; 0xbf6 <FND_ALL_OFF+0x1e>
     bdc:	e8 2f       	mov	r30, r24
     bde:	f0 e0       	ldi	r31, 0x00	; 0
     be0:	ee 0f       	add	r30, r30
     be2:	ff 1f       	adc	r31, r31
     be4:	ee 0f       	add	r30, r30
     be6:	ff 1f       	adc	r31, r31
     be8:	ef 56       	subi	r30, 0x6F	; 111
     bea:	fe 4b       	sbci	r31, 0xBE	; 190
     bec:	13 82       	std	Z+3, r1	; 0x03
     bee:	12 82       	std	Z+2, r1	; 0x02
     bf0:	11 82       	std	Z+1, r1	; 0x01
     bf2:	10 82       	st	Z, r1
     bf4:	8f 5f       	subi	r24, 0xFF	; 255
     bf6:	83 30       	cpi	r24, 0x03	; 3
     bf8:	88 f3       	brcs	.-30     	; 0xbdc <FND_ALL_OFF+0x4>
     bfa:	08 95       	ret

00000bfc <Key_Scan>:
     bfc:	80 91 68 51 	lds	r24, 0x5168	; 0x805168 <KEY+0x1>
     c00:	81 11       	cpse	r24, r1
     c02:	cd c0       	rjmp	.+410    	; 0xd9e <Key_Scan+0x1a2>
     c04:	80 91 08 04 	lds	r24, 0x0408	; 0x800408 <__TEXT_REGION_LENGTH__+0x7e0408>
     c08:	84 fd       	sbrc	r24, 4
     c0a:	0f c0       	rjmp	.+30     	; 0xc2a <Key_Scan+0x2e>
     c0c:	8a e0       	ldi	r24, 0x0A	; 10
     c0e:	90 e0       	ldi	r25, 0x00	; 0
     c10:	0e 94 42 04 	call	0x884	; 0x884 <Beep>
     c14:	e7 e6       	ldi	r30, 0x67	; 103
     c16:	f1 e5       	ldi	r31, 0x51	; 81
     c18:	81 e0       	ldi	r24, 0x01	; 1
     c1a:	82 83       	std	Z+2, r24	; 0x02
     c1c:	81 83       	std	Z+1, r24	; 0x01
     c1e:	10 92 4e 51 	sts	0x514E, r1	; 0x80514e <Timer+0x1>
     c22:	10 92 4f 51 	sts	0x514F, r1	; 0x80514f <Timer+0x2>
     c26:	10 92 24 51 	sts	0x5124, r1	; 0x805124 <Sec_Count>
     c2a:	80 91 08 04 	lds	r24, 0x0408	; 0x800408 <__TEXT_REGION_LENGTH__+0x7e0408>
     c2e:	85 fd       	sbrc	r24, 5
     c30:	10 c0       	rjmp	.+32     	; 0xc52 <Key_Scan+0x56>
     c32:	8a e0       	ldi	r24, 0x0A	; 10
     c34:	90 e0       	ldi	r25, 0x00	; 0
     c36:	0e 94 42 04 	call	0x884	; 0x884 <Beep>
     c3a:	e7 e6       	ldi	r30, 0x67	; 103
     c3c:	f1 e5       	ldi	r31, 0x51	; 81
     c3e:	82 e0       	ldi	r24, 0x02	; 2
     c40:	82 83       	std	Z+2, r24	; 0x02
     c42:	81 e0       	ldi	r24, 0x01	; 1
     c44:	81 83       	std	Z+1, r24	; 0x01
     c46:	10 92 4e 51 	sts	0x514E, r1	; 0x80514e <Timer+0x1>
     c4a:	10 92 4f 51 	sts	0x514F, r1	; 0x80514f <Timer+0x2>
     c4e:	10 92 24 51 	sts	0x5124, r1	; 0x805124 <Sec_Count>
     c52:	80 91 08 04 	lds	r24, 0x0408	; 0x800408 <__TEXT_REGION_LENGTH__+0x7e0408>
     c56:	86 fd       	sbrc	r24, 6
     c58:	10 c0       	rjmp	.+32     	; 0xc7a <Key_Scan+0x7e>
     c5a:	8a e0       	ldi	r24, 0x0A	; 10
     c5c:	90 e0       	ldi	r25, 0x00	; 0
     c5e:	0e 94 42 04 	call	0x884	; 0x884 <Beep>
     c62:	e7 e6       	ldi	r30, 0x67	; 103
     c64:	f1 e5       	ldi	r31, 0x51	; 81
     c66:	83 e0       	ldi	r24, 0x03	; 3
     c68:	82 83       	std	Z+2, r24	; 0x02
     c6a:	81 e0       	ldi	r24, 0x01	; 1
     c6c:	81 83       	std	Z+1, r24	; 0x01
     c6e:	10 92 4e 51 	sts	0x514E, r1	; 0x80514e <Timer+0x1>
     c72:	10 92 4f 51 	sts	0x514F, r1	; 0x80514f <Timer+0x2>
     c76:	10 92 24 51 	sts	0x5124, r1	; 0x805124 <Sec_Count>
     c7a:	80 91 08 04 	lds	r24, 0x0408	; 0x800408 <__TEXT_REGION_LENGTH__+0x7e0408>
     c7e:	88 23       	and	r24, r24
     c80:	84 f0       	brlt	.+32     	; 0xca2 <Key_Scan+0xa6>
     c82:	8a e0       	ldi	r24, 0x0A	; 10
     c84:	90 e0       	ldi	r25, 0x00	; 0
     c86:	0e 94 42 04 	call	0x884	; 0x884 <Beep>
     c8a:	e7 e6       	ldi	r30, 0x67	; 103
     c8c:	f1 e5       	ldi	r31, 0x51	; 81
     c8e:	84 e0       	ldi	r24, 0x04	; 4
     c90:	82 83       	std	Z+2, r24	; 0x02
     c92:	81 e0       	ldi	r24, 0x01	; 1
     c94:	81 83       	std	Z+1, r24	; 0x01
     c96:	10 92 4e 51 	sts	0x514E, r1	; 0x80514e <Timer+0x1>
     c9a:	10 92 4f 51 	sts	0x514F, r1	; 0x80514f <Timer+0x2>
     c9e:	10 92 24 51 	sts	0x5124, r1	; 0x805124 <Sec_Count>
     ca2:	80 91 69 51 	lds	r24, 0x5169	; 0x805169 <KEY+0x2>
     ca6:	84 30       	cpi	r24, 0x04	; 4
     ca8:	51 f4       	brne	.+20     	; 0xcbe <Key_Scan+0xc2>
     caa:	80 91 28 51 	lds	r24, 0x5128	; 0x805128 <SET>
     cae:	88 23       	and	r24, r24
     cb0:	19 f0       	breq	.+6      	; 0xcb8 <Key_Scan+0xbc>
     cb2:	10 92 28 51 	sts	0x5128, r1	; 0x805128 <SET>
     cb6:	03 c0       	rjmp	.+6      	; 0xcbe <Key_Scan+0xc2>
     cb8:	81 e0       	ldi	r24, 0x01	; 1
     cba:	80 93 28 51 	sts	0x5128, r24	; 0x805128 <SET>
     cbe:	80 91 28 51 	lds	r24, 0x5128	; 0x805128 <SET>
     cc2:	88 23       	and	r24, r24
     cc4:	91 f0       	breq	.+36     	; 0xcea <Key_Scan+0xee>
     cc6:	80 91 69 51 	lds	r24, 0x5169	; 0x805169 <KEY+0x2>
     cca:	82 30       	cpi	r24, 0x02	; 2
     ccc:	71 f4       	brne	.+28     	; 0xcea <Key_Scan+0xee>
     cce:	80 91 2b 51 	lds	r24, 0x512B	; 0x80512b <SET+0x3>
     cd2:	81 11       	cpse	r24, r1
     cd4:	0a c0       	rjmp	.+20     	; 0xcea <Key_Scan+0xee>
     cd6:	80 91 29 51 	lds	r24, 0x5129	; 0x805129 <SET+0x1>
     cda:	88 23       	and	r24, r24
     cdc:	19 f0       	breq	.+6      	; 0xce4 <Key_Scan+0xe8>
     cde:	10 92 29 51 	sts	0x5129, r1	; 0x805129 <SET+0x1>
     ce2:	03 c0       	rjmp	.+6      	; 0xcea <Key_Scan+0xee>
     ce4:	81 e0       	ldi	r24, 0x01	; 1
     ce6:	80 93 29 51 	sts	0x5129, r24	; 0x805129 <SET+0x1>
     cea:	80 91 28 51 	lds	r24, 0x5128	; 0x805128 <SET>
     cee:	81 11       	cpse	r24, r1
     cf0:	17 c0       	rjmp	.+46     	; 0xd20 <Key_Scan+0x124>
     cf2:	80 91 2a 51 	lds	r24, 0x512A	; 0x80512a <SET+0x2>
     cf6:	81 11       	cpse	r24, r1
     cf8:	13 c0       	rjmp	.+38     	; 0xd20 <Key_Scan+0x124>
     cfa:	80 91 69 51 	lds	r24, 0x5169	; 0x805169 <KEY+0x2>
     cfe:	82 30       	cpi	r24, 0x02	; 2
     d00:	79 f4       	brne	.+30     	; 0xd20 <Key_Scan+0x124>
     d02:	80 91 2c 51 	lds	r24, 0x512C	; 0x80512c <SET+0x4>
     d06:	88 23       	and	r24, r24
     d08:	19 f0       	breq	.+6      	; 0xd10 <Key_Scan+0x114>
     d0a:	10 92 2c 51 	sts	0x512C, r1	; 0x80512c <SET+0x4>
     d0e:	08 c0       	rjmp	.+16     	; 0xd20 <Key_Scan+0x124>
     d10:	81 e0       	ldi	r24, 0x01	; 1
     d12:	80 93 2c 51 	sts	0x512C, r24	; 0x80512c <SET+0x4>
     d16:	4a e0       	ldi	r20, 0x0A	; 10
     d18:	62 e0       	ldi	r22, 0x02	; 2
     d1a:	82 e0       	ldi	r24, 0x02	; 2
     d1c:	0e 94 d2 05 	call	0xba4	; 0xba4 <FND_Value_Data>
     d20:	80 91 28 51 	lds	r24, 0x5128	; 0x805128 <SET>
     d24:	88 23       	and	r24, r24
     d26:	69 f0       	breq	.+26     	; 0xd42 <Key_Scan+0x146>
     d28:	80 91 69 51 	lds	r24, 0x5169	; 0x805169 <KEY+0x2>
     d2c:	82 30       	cpi	r24, 0x02	; 2
     d2e:	49 f4       	brne	.+18     	; 0xd42 <Key_Scan+0x146>
     d30:	80 91 2b 51 	lds	r24, 0x512B	; 0x80512b <SET+0x3>
     d34:	88 23       	and	r24, r24
     d36:	29 f0       	breq	.+10     	; 0xd42 <Key_Scan+0x146>
     d38:	e7 e6       	ldi	r30, 0x67	; 103
     d3a:	f1 e5       	ldi	r31, 0x51	; 81
     d3c:	80 81       	ld	r24, Z
     d3e:	8f 5f       	subi	r24, 0xFF	; 255
     d40:	80 83       	st	Z, r24
     d42:	80 91 28 51 	lds	r24, 0x5128	; 0x805128 <SET>
     d46:	81 11       	cpse	r24, r1
     d48:	0b c0       	rjmp	.+22     	; 0xd60 <Key_Scan+0x164>
     d4a:	80 91 69 51 	lds	r24, 0x5169	; 0x805169 <KEY+0x2>
     d4e:	81 30       	cpi	r24, 0x01	; 1
     d50:	39 f4       	brne	.+14     	; 0xd60 <Key_Scan+0x164>
     d52:	80 91 2a 51 	lds	r24, 0x512A	; 0x80512a <SET+0x2>
     d56:	81 11       	cpse	r24, r1
     d58:	03 c0       	rjmp	.+6      	; 0xd60 <Key_Scan+0x164>
     d5a:	81 e0       	ldi	r24, 0x01	; 1
     d5c:	80 93 2a 51 	sts	0x512A, r24	; 0x80512a <SET+0x2>
     d60:	e7 e6       	ldi	r30, 0x67	; 103
     d62:	f1 e5       	ldi	r31, 0x51	; 81
     d64:	93 81       	ldd	r25, Z+3	; 0x03
     d66:	82 81       	ldd	r24, Z+2	; 0x02
     d68:	98 13       	cpse	r25, r24
     d6a:	11 c0       	rjmp	.+34     	; 0xd8e <Key_Scan+0x192>
     d6c:	80 91 6b 51 	lds	r24, 0x516B	; 0x80516b <KEY+0x4>
     d70:	82 30       	cpi	r24, 0x02	; 2
     d72:	20 f0       	brcs	.+8      	; 0xd7c <Key_Scan+0x180>
     d74:	84 e1       	ldi	r24, 0x14	; 20
     d76:	80 93 4d 51 	sts	0x514D, r24	; 0x80514d <Timer>
     d7a:	08 95       	ret
     d7c:	82 e3       	ldi	r24, 0x32	; 50
     d7e:	80 93 4d 51 	sts	0x514D, r24	; 0x80514d <Timer>
     d82:	e7 e6       	ldi	r30, 0x67	; 103
     d84:	f1 e5       	ldi	r31, 0x51	; 81
     d86:	84 81       	ldd	r24, Z+4	; 0x04
     d88:	8f 5f       	subi	r24, 0xFF	; 255
     d8a:	84 83       	std	Z+4, r24	; 0x04
     d8c:	08 95       	ret
     d8e:	82 e3       	ldi	r24, 0x32	; 50
     d90:	80 93 4d 51 	sts	0x514D, r24	; 0x80514d <Timer>
     d94:	e7 e6       	ldi	r30, 0x67	; 103
     d96:	f1 e5       	ldi	r31, 0x51	; 81
     d98:	82 81       	ldd	r24, Z+2	; 0x02
     d9a:	83 83       	std	Z+3, r24	; 0x03
     d9c:	14 82       	std	Z+4, r1	; 0x04
     d9e:	08 95       	ret

00000da0 <Read_eeprom>:
     da0:	cf 92       	push	r12
     da2:	df 92       	push	r13
     da4:	ef 92       	push	r14
     da6:	ff 92       	push	r15
     da8:	80 e0       	ldi	r24, 0x00	; 0
     daa:	90 e0       	ldi	r25, 0x00	; 0
     dac:	0e 94 07 13 	call	0x260e	; 0x260e <ee_read_byte>
     db0:	80 93 63 51 	sts	0x5163, r24	; 0x805163 <Gukbun>
     db4:	81 50       	subi	r24, 0x01	; 1
     db6:	8c 33       	cpi	r24, 0x3C	; 60
     db8:	40 f0       	brcs	.+16     	; 0xdca <Read_eeprom+0x2a>
     dba:	81 e0       	ldi	r24, 0x01	; 1
     dbc:	80 93 63 51 	sts	0x5163, r24	; 0x805163 <Gukbun>
     dc0:	61 e0       	ldi	r22, 0x01	; 1
     dc2:	80 e0       	ldi	r24, 0x00	; 0
     dc4:	90 e0       	ldi	r25, 0x00	; 0
     dc6:	0e 94 29 13 	call	0x2652	; 0x2652 <ee_write_byte>
     dca:	81 e0       	ldi	r24, 0x01	; 1
     dcc:	90 e0       	ldi	r25, 0x00	; 0
     dce:	0e 94 07 13 	call	0x260e	; 0x260e <ee_read_byte>
     dd2:	80 93 6c 51 	sts	0x516C, r24	; 0x80516c <Gwid>
     dd6:	81 50       	subi	r24, 0x01	; 1
     dd8:	8c 33       	cpi	r24, 0x3C	; 60
     dda:	40 f0       	brcs	.+16     	; 0xdec <Read_eeprom+0x4c>
     ddc:	81 e0       	ldi	r24, 0x01	; 1
     dde:	80 93 6c 51 	sts	0x516C, r24	; 0x80516c <Gwid>
     de2:	61 e0       	ldi	r22, 0x01	; 1
     de4:	81 e0       	ldi	r24, 0x01	; 1
     de6:	90 e0       	ldi	r25, 0x00	; 0
     de8:	0e 94 29 13 	call	0x2652	; 0x2652 <ee_write_byte>
     dec:	82 e0       	ldi	r24, 0x02	; 2
     dee:	90 e0       	ldi	r25, 0x00	; 0
     df0:	0e 94 07 13 	call	0x260e	; 0x260e <ee_read_byte>
     df4:	80 93 59 51 	sts	0x5159, r24	; 0x805159 <RTC_T+0x7>
     df8:	80 32       	cpi	r24, 0x20	; 32
     dfa:	40 f0       	brcs	.+16     	; 0xe0c <Read_eeprom+0x6c>
     dfc:	81 e0       	ldi	r24, 0x01	; 1
     dfe:	80 93 59 51 	sts	0x5159, r24	; 0x805159 <RTC_T+0x7>
     e02:	61 e0       	ldi	r22, 0x01	; 1
     e04:	82 e0       	ldi	r24, 0x02	; 2
     e06:	90 e0       	ldi	r25, 0x00	; 0
     e08:	0e 94 29 13 	call	0x2652	; 0x2652 <ee_write_byte>
     e0c:	83 e0       	ldi	r24, 0x03	; 3
     e0e:	90 e0       	ldi	r25, 0x00	; 0
     e10:	0e 94 07 13 	call	0x260e	; 0x260e <ee_read_byte>
     e14:	80 93 02 51 	sts	0x5102, r24	; 0x805102 <Cell_ID>
     e18:	8d 33       	cpi	r24, 0x3D	; 61
     e1a:	40 f0       	brcs	.+16     	; 0xe2c <Read_eeprom+0x8c>
     e1c:	81 e0       	ldi	r24, 0x01	; 1
     e1e:	80 93 02 51 	sts	0x5102, r24	; 0x805102 <Cell_ID>
     e22:	61 e0       	ldi	r22, 0x01	; 1
     e24:	83 e0       	ldi	r24, 0x03	; 3
     e26:	90 e0       	ldi	r25, 0x00	; 0
     e28:	0e 94 29 13 	call	0x2652	; 0x2652 <ee_write_byte>
     e2c:	84 e0       	ldi	r24, 0x04	; 4
     e2e:	90 e0       	ldi	r25, 0x00	; 0
     e30:	0e 94 07 13 	call	0x260e	; 0x260e <ee_read_byte>
     e34:	80 93 96 51 	sts	0x5196, r24	; 0x805196 <Cell_CNT>
     e38:	81 50       	subi	r24, 0x01	; 1
     e3a:	84 30       	cpi	r24, 0x04	; 4
     e3c:	40 f0       	brcs	.+16     	; 0xe4e <Read_eeprom+0xae>
     e3e:	82 e0       	ldi	r24, 0x02	; 2
     e40:	80 93 96 51 	sts	0x5196, r24	; 0x805196 <Cell_CNT>
     e44:	62 e0       	ldi	r22, 0x02	; 2
     e46:	84 e0       	ldi	r24, 0x04	; 4
     e48:	90 e0       	ldi	r25, 0x00	; 0
     e4a:	0e 94 29 13 	call	0x2652	; 0x2652 <ee_write_byte>
     e4e:	88 e0       	ldi	r24, 0x08	; 8
     e50:	90 e0       	ldi	r25, 0x00	; 0
     e52:	0e 94 11 13 	call	0x2622	; 0x2622 <ee_read_word>
     e56:	a0 e0       	ldi	r26, 0x00	; 0
     e58:	b0 e0       	ldi	r27, 0x00	; 0
     e5a:	80 93 83 51 	sts	0x5183, r24	; 0x805183 <Cell_Capa>
     e5e:	90 93 84 51 	sts	0x5184, r25	; 0x805184 <Cell_Capa+0x1>
     e62:	a0 93 85 51 	sts	0x5185, r26	; 0x805185 <Cell_Capa+0x2>
     e66:	b0 93 86 51 	sts	0x5186, r27	; 0x805186 <Cell_Capa+0x3>
     e6a:	84 56       	subi	r24, 0x64	; 100
     e6c:	91 09       	sbc	r25, r1
     e6e:	a1 09       	sbc	r26, r1
     e70:	b1 09       	sbc	r27, r1
     e72:	85 38       	cpi	r24, 0x85	; 133
     e74:	93 40       	sbci	r25, 0x03	; 3
     e76:	a1 05       	cpc	r26, r1
     e78:	b1 05       	cpc	r27, r1
     e7a:	90 f0       	brcs	.+36     	; 0xea0 <Read_eeprom+0x100>
     e7c:	84 e6       	ldi	r24, 0x64	; 100
     e7e:	90 e0       	ldi	r25, 0x00	; 0
     e80:	a0 e0       	ldi	r26, 0x00	; 0
     e82:	b0 e0       	ldi	r27, 0x00	; 0
     e84:	80 93 83 51 	sts	0x5183, r24	; 0x805183 <Cell_Capa>
     e88:	90 93 84 51 	sts	0x5184, r25	; 0x805184 <Cell_Capa+0x1>
     e8c:	a0 93 85 51 	sts	0x5185, r26	; 0x805185 <Cell_Capa+0x2>
     e90:	b0 93 86 51 	sts	0x5186, r27	; 0x805186 <Cell_Capa+0x3>
     e94:	64 e6       	ldi	r22, 0x64	; 100
     e96:	70 e0       	ldi	r23, 0x00	; 0
     e98:	88 e0       	ldi	r24, 0x08	; 8
     e9a:	90 e0       	ldi	r25, 0x00	; 0
     e9c:	0e 94 4c 13 	call	0x2698	; 0x2698 <ee_write_word>
     ea0:	8c e0       	ldi	r24, 0x0C	; 12
     ea2:	90 e0       	ldi	r25, 0x00	; 0
     ea4:	0e 94 1c 13 	call	0x2638	; 0x2638 <ee_read_dword>
     ea8:	0e 94 88 36 	call	0x6d10	; 0x6d10 <__floatunsisf>
     eac:	6b 01       	movw	r12, r22
     eae:	7c 01       	movw	r14, r24
     eb0:	60 93 6f 51 	sts	0x516F, r22	; 0x80516f <Cell_RO>
     eb4:	70 93 70 51 	sts	0x5170, r23	; 0x805170 <Cell_RO+0x1>
     eb8:	80 93 71 51 	sts	0x5171, r24	; 0x805171 <Cell_RO+0x2>
     ebc:	90 93 72 51 	sts	0x5172, r25	; 0x805172 <Cell_RO+0x3>
     ec0:	20 e0       	ldi	r18, 0x00	; 0
     ec2:	38 ec       	ldi	r19, 0xC8	; 200
     ec4:	4f ea       	ldi	r20, 0xAF	; 175
     ec6:	57 e4       	ldi	r21, 0x47	; 71
     ec8:	0e 94 78 37 	call	0x6ef0	; 0x6ef0 <__gesf2>
     ecc:	18 16       	cp	r1, r24
     ece:	54 f0       	brlt	.+20     	; 0xee4 <Read_eeprom+0x144>
     ed0:	20 e0       	ldi	r18, 0x00	; 0
     ed2:	30 e4       	ldi	r19, 0x40	; 64
     ed4:	4c e1       	ldi	r20, 0x1C	; 28
     ed6:	56 e4       	ldi	r21, 0x46	; 70
     ed8:	c7 01       	movw	r24, r14
     eda:	b6 01       	movw	r22, r12
     edc:	0e 94 db 35 	call	0x6bb6	; 0x6bb6 <__cmpsf2>
     ee0:	88 23       	and	r24, r24
     ee2:	a4 f4       	brge	.+40     	; 0xf0c <Read_eeprom+0x16c>
     ee4:	80 e0       	ldi	r24, 0x00	; 0
     ee6:	90 e4       	ldi	r25, 0x40	; 64
     ee8:	ac e1       	ldi	r26, 0x1C	; 28
     eea:	b7 e4       	ldi	r27, 0x47	; 71
     eec:	80 93 6f 51 	sts	0x516F, r24	; 0x80516f <Cell_RO>
     ef0:	90 93 70 51 	sts	0x5170, r25	; 0x805170 <Cell_RO+0x1>
     ef4:	a0 93 71 51 	sts	0x5171, r26	; 0x805171 <Cell_RO+0x2>
     ef8:	b0 93 72 51 	sts	0x5172, r27	; 0x805172 <Cell_RO+0x3>
     efc:	40 e4       	ldi	r20, 0x40	; 64
     efe:	5c e9       	ldi	r21, 0x9C	; 156
     f00:	60 e0       	ldi	r22, 0x00	; 0
     f02:	70 e0       	ldi	r23, 0x00	; 0
     f04:	8c e0       	ldi	r24, 0x0C	; 12
     f06:	90 e0       	ldi	r25, 0x00	; 0
     f08:	0e 94 69 13 	call	0x26d2	; 0x26d2 <ee_write_dword>
     f0c:	8a e0       	ldi	r24, 0x0A	; 10
     f0e:	90 e0       	ldi	r25, 0x00	; 0
     f10:	0e 94 11 13 	call	0x2622	; 0x2622 <ee_read_word>
     f14:	80 93 21 51 	sts	0x5121, r24	; 0x805121 <IN_Scales>
     f18:	90 93 22 51 	sts	0x5122, r25	; 0x805122 <IN_Scales+0x1>
     f1c:	0a 97       	sbiw	r24, 0x0a	; 10
     f1e:	87 30       	cpi	r24, 0x07	; 7
     f20:	97 42       	sbci	r25, 0x27	; 39
     f22:	60 f0       	brcs	.+24     	; 0xf3c <Read_eeprom+0x19c>
     f24:	84 ef       	ldi	r24, 0xF4	; 244
     f26:	91 e0       	ldi	r25, 0x01	; 1
     f28:	80 93 21 51 	sts	0x5121, r24	; 0x805121 <IN_Scales>
     f2c:	90 93 22 51 	sts	0x5122, r25	; 0x805122 <IN_Scales+0x1>
     f30:	64 ef       	ldi	r22, 0xF4	; 244
     f32:	71 e0       	ldi	r23, 0x01	; 1
     f34:	8a e0       	ldi	r24, 0x0A	; 10
     f36:	90 e0       	ldi	r25, 0x00	; 0
     f38:	0e 94 4c 13 	call	0x2698	; 0x2698 <ee_write_word>
     f3c:	85 e0       	ldi	r24, 0x05	; 5
     f3e:	90 e0       	ldi	r25, 0x00	; 0
     f40:	0e 94 07 13 	call	0x260e	; 0x260e <ee_read_byte>
     f44:	80 93 94 51 	sts	0x5194, r24	; 0x805194 <Room_Number>
     f48:	81 50       	subi	r24, 0x01	; 1
     f4a:	84 36       	cpi	r24, 0x64	; 100
     f4c:	40 f0       	brcs	.+16     	; 0xf5e <Read_eeprom+0x1be>
     f4e:	81 e0       	ldi	r24, 0x01	; 1
     f50:	80 93 94 51 	sts	0x5194, r24	; 0x805194 <Room_Number>
     f54:	61 e0       	ldi	r22, 0x01	; 1
     f56:	85 e0       	ldi	r24, 0x05	; 5
     f58:	90 e0       	ldi	r25, 0x00	; 0
     f5a:	0e 94 29 13 	call	0x2652	; 0x2652 <ee_write_byte>
     f5e:	86 e0       	ldi	r24, 0x06	; 6
     f60:	90 e0       	ldi	r25, 0x00	; 0
     f62:	0e 94 07 13 	call	0x260e	; 0x260e <ee_read_byte>
     f66:	80 93 6d 51 	sts	0x516D, r24	; 0x80516d <Stal_Number>
     f6a:	81 50       	subi	r24, 0x01	; 1
     f6c:	84 36       	cpi	r24, 0x64	; 100
     f6e:	40 f0       	brcs	.+16     	; 0xf80 <Read_eeprom+0x1e0>
     f70:	81 e0       	ldi	r24, 0x01	; 1
     f72:	80 93 6d 51 	sts	0x516D, r24	; 0x80516d <Stal_Number>
     f76:	61 e0       	ldi	r22, 0x01	; 1
     f78:	86 e0       	ldi	r24, 0x06	; 6
     f7a:	90 e0       	ldi	r25, 0x00	; 0
     f7c:	0e 94 29 13 	call	0x2652	; 0x2652 <ee_write_byte>
     f80:	87 e0       	ldi	r24, 0x07	; 7
     f82:	90 e0       	ldi	r25, 0x00	; 0
     f84:	0e 94 07 13 	call	0x260e	; 0x260e <ee_read_byte>
     f88:	80 93 a1 51 	sts	0x51A1, r24	; 0x8051a1 <Auto_Mode>
     f8c:	83 30       	cpi	r24, 0x03	; 3
     f8e:	38 f0       	brcs	.+14     	; 0xf9e <Read_eeprom+0x1fe>
     f90:	10 92 a1 51 	sts	0x51A1, r1	; 0x8051a1 <Auto_Mode>
     f94:	60 e0       	ldi	r22, 0x00	; 0
     f96:	87 e0       	ldi	r24, 0x07	; 7
     f98:	90 e0       	ldi	r25, 0x00	; 0
     f9a:	0e 94 29 13 	call	0x2652	; 0x2652 <ee_write_byte>
     f9e:	0e 94 ae 29 	call	0x535c	; 0x535c <RTC_Time_Read>
     fa2:	80 91 52 51 	lds	r24, 0x5152	; 0x805152 <RTC_T>
     fa6:	8c 33       	cpi	r24, 0x3C	; 60
     fa8:	28 f0       	brcs	.+10     	; 0xfb4 <Read_eeprom+0x214>
     faa:	60 e0       	ldi	r22, 0x00	; 0
     fac:	80 e0       	ldi	r24, 0x00	; 0
     fae:	0e 94 e9 29 	call	0x53d2	; 0x53d2 <RTC_Time_Write>
     fb2:	ff cf       	rjmp	.-2      	; 0xfb2 <Read_eeprom+0x212>
     fb4:	80 91 58 51 	lds	r24, 0x5158	; 0x805158 <RTC_T+0x6>
     fb8:	81 11       	cpse	r24, r1
     fba:	1c c0       	rjmp	.+56     	; 0xff4 <Read_eeprom+0x254>
     fbc:	66 e1       	ldi	r22, 0x16	; 22
     fbe:	86 e0       	ldi	r24, 0x06	; 6
     fc0:	0e 94 e9 29 	call	0x53d2	; 0x53d2 <RTC_Time_Write>
     fc4:	69 e0       	ldi	r22, 0x09	; 9
     fc6:	85 e0       	ldi	r24, 0x05	; 5
     fc8:	0e 94 e9 29 	call	0x53d2	; 0x53d2 <RTC_Time_Write>
     fcc:	64 e1       	ldi	r22, 0x14	; 20
     fce:	84 e0       	ldi	r24, 0x04	; 4
     fd0:	0e 94 e9 29 	call	0x53d2	; 0x53d2 <RTC_Time_Write>
     fd4:	63 e0       	ldi	r22, 0x03	; 3
     fd6:	83 e0       	ldi	r24, 0x03	; 3
     fd8:	0e 94 e9 29 	call	0x53d2	; 0x53d2 <RTC_Time_Write>
     fdc:	6c e0       	ldi	r22, 0x0C	; 12
     fde:	82 e0       	ldi	r24, 0x02	; 2
     fe0:	0e 94 e9 29 	call	0x53d2	; 0x53d2 <RTC_Time_Write>
     fe4:	60 e0       	ldi	r22, 0x00	; 0
     fe6:	81 e0       	ldi	r24, 0x01	; 1
     fe8:	0e 94 e9 29 	call	0x53d2	; 0x53d2 <RTC_Time_Write>
     fec:	60 e0       	ldi	r22, 0x00	; 0
     fee:	80 e0       	ldi	r24, 0x00	; 0
     ff0:	0e 94 e9 29 	call	0x53d2	; 0x53d2 <RTC_Time_Write>
     ff4:	ff 90       	pop	r15
     ff6:	ef 90       	pop	r14
     ff8:	df 90       	pop	r13
     ffa:	cf 90       	pop	r12
     ffc:	08 95       	ret

00000ffe <Alarm>:

//=================================================================================================
void Alarm(void)								// ҫЛ¶ч(әсЗБ 3№ш) 
{
	Beep(15);								// 1mSec X 15 = 15mSec
     ffe:	8f e0       	ldi	r24, 0x0F	; 15
    1000:	90 e0       	ldi	r25, 0x00	; 0
    1002:	0e 94 42 04 	call	0x884	; 0x884 <Beep>
	#else
		//round up by default
		__ticks_dc = (uint32_t)(ceil(fabs(__tmp)));
	#endif

	__builtin_avr_delay_cycles(__ticks_dc);
    1006:	26 e6       	ldi	r18, 0x66	; 102
    1008:	86 e6       	ldi	r24, 0x66	; 102
    100a:	95 e0       	ldi	r25, 0x05	; 5
    100c:	21 50       	subi	r18, 0x01	; 1
    100e:	80 40       	sbci	r24, 0x00	; 0
    1010:	90 40       	sbci	r25, 0x00	; 0
    1012:	e1 f7       	brne	.-8      	; 0x100c <Alarm+0xe>
	_delay_ms(120);								// Time Delay  120mSec
	Beep(15);								// 1mSec X 15 = 15mSec
    1014:	8f e0       	ldi	r24, 0x0F	; 15
    1016:	90 e0       	ldi	r25, 0x00	; 0
    1018:	0e 94 42 04 	call	0x884	; 0x884 <Beep>
    101c:	26 e6       	ldi	r18, 0x66	; 102
    101e:	86 e6       	ldi	r24, 0x66	; 102
    1020:	95 e0       	ldi	r25, 0x05	; 5
    1022:	21 50       	subi	r18, 0x01	; 1
    1024:	80 40       	sbci	r24, 0x00	; 0
    1026:	90 40       	sbci	r25, 0x00	; 0
    1028:	e1 f7       	brne	.-8      	; 0x1022 <Alarm+0x24>
	_delay_ms(120);								// Time Delay  120mSec
	Beep(15);								// 1mSec X 15 = 15mSec
    102a:	8f e0       	ldi	r24, 0x0F	; 15
    102c:	90 e0       	ldi	r25, 0x00	; 0
    102e:	0e 94 42 04 	call	0x884	; 0x884 <Beep>
    1032:	08 95       	ret

00001034 <Room_Desplay>:
	Alarm();
}

//=================================================================================================
void Room_Desplay(void)								// №ж №шИЈ ЗҘҪГ
{
    1034:	cf 93       	push	r28
    1036:	df 93       	push	r29
	DIGIT[1][3] = FND_OFF;							// FND 1 ҝЎ №ж №шИЈ ЗҘҪГ
    1038:	c1 e9       	ldi	r28, 0x91	; 145
    103a:	d1 e4       	ldi	r29, 0x41	; 65
    103c:	1f 82       	std	Y+7, r1	; 0x07
	DIGIT[1][2] = fnd_tbl[Room_Number / 100];
    103e:	e0 91 94 51 	lds	r30, 0x5194	; 0x805194 <Room_Number>
    1042:	89 e2       	ldi	r24, 0x29	; 41
    1044:	e8 9f       	mul	r30, r24
    1046:	81 2d       	mov	r24, r1
    1048:	11 24       	eor	r1, r1
    104a:	82 95       	swap	r24
    104c:	8f 70       	andi	r24, 0x0F	; 15
    104e:	a8 2f       	mov	r26, r24
    1050:	b0 e0       	ldi	r27, 0x00	; 0
    1052:	a5 5a       	subi	r26, 0xA5	; 165
    1054:	be 4b       	sbci	r27, 0xBE	; 190
    1056:	9c 91       	ld	r25, X
    1058:	9e 83       	std	Y+6, r25	; 0x06
	DIGIT[1][1] = fnd_tbl[Room_Number % 100 / 10];
    105a:	ae 2f       	mov	r26, r30
    105c:	94 e6       	ldi	r25, 0x64	; 100
    105e:	89 9f       	mul	r24, r25
    1060:	a0 19       	sub	r26, r0
    1062:	11 24       	eor	r1, r1
    1064:	8d ec       	ldi	r24, 0xCD	; 205
    1066:	a8 9f       	mul	r26, r24
    1068:	a1 2d       	mov	r26, r1
    106a:	11 24       	eor	r1, r1
    106c:	a6 95       	lsr	r26
    106e:	a6 95       	lsr	r26
    1070:	a6 95       	lsr	r26
    1072:	b0 e0       	ldi	r27, 0x00	; 0
    1074:	a5 5a       	subi	r26, 0xA5	; 165
    1076:	be 4b       	sbci	r27, 0xBE	; 190
    1078:	9c 91       	ld	r25, X
    107a:	9d 83       	std	Y+5, r25	; 0x05
	DIGIT[1][0] = fnd_tbl[Room_Number % 10];
    107c:	e8 9f       	mul	r30, r24
    107e:	81 2d       	mov	r24, r1
    1080:	11 24       	eor	r1, r1
    1082:	86 95       	lsr	r24
    1084:	86 95       	lsr	r24
    1086:	86 95       	lsr	r24
    1088:	88 0f       	add	r24, r24
    108a:	98 2f       	mov	r25, r24
    108c:	99 0f       	add	r25, r25
    108e:	99 0f       	add	r25, r25
    1090:	89 0f       	add	r24, r25
    1092:	e8 1b       	sub	r30, r24
    1094:	f0 e0       	ldi	r31, 0x00	; 0
    1096:	e5 5a       	subi	r30, 0xA5	; 165
    1098:	fe 4b       	sbci	r31, 0xBE	; 190
    109a:	80 81       	ld	r24, Z
    109c:	8c 83       	std	Y+4, r24	; 0x04
}
    109e:	df 91       	pop	r29
    10a0:	cf 91       	pop	r28
    10a2:	08 95       	ret

000010a4 <Stal_Desplay>:

//=================================================================================================
void Stal_Desplay(void)								// ҪәЕз №шИЈ ЗҘҪГ
{
    10a4:	cf 93       	push	r28
    10a6:	df 93       	push	r29
	DIGIT[2][3] = FND_OFF;							// FND 2 ҝЎ ҪәЕз №шИЈ ЗҘҪГ
    10a8:	c1 e9       	ldi	r28, 0x91	; 145
    10aa:	d1 e4       	ldi	r29, 0x41	; 65
    10ac:	1b 86       	std	Y+11, r1	; 0x0b
	DIGIT[2][2] = fnd_tbl[Stal_Number / 100];
    10ae:	e0 91 6d 51 	lds	r30, 0x516D	; 0x80516d <Stal_Number>
    10b2:	89 e2       	ldi	r24, 0x29	; 41
    10b4:	e8 9f       	mul	r30, r24
    10b6:	81 2d       	mov	r24, r1
    10b8:	11 24       	eor	r1, r1
    10ba:	82 95       	swap	r24
    10bc:	8f 70       	andi	r24, 0x0F	; 15
    10be:	a8 2f       	mov	r26, r24
    10c0:	b0 e0       	ldi	r27, 0x00	; 0
    10c2:	a5 5a       	subi	r26, 0xA5	; 165
    10c4:	be 4b       	sbci	r27, 0xBE	; 190
    10c6:	9c 91       	ld	r25, X
    10c8:	9a 87       	std	Y+10, r25	; 0x0a
	DIGIT[2][1] = fnd_tbl[Stal_Number % 100 / 10];
    10ca:	ae 2f       	mov	r26, r30
    10cc:	94 e6       	ldi	r25, 0x64	; 100
    10ce:	89 9f       	mul	r24, r25
    10d0:	a0 19       	sub	r26, r0
    10d2:	11 24       	eor	r1, r1
    10d4:	8d ec       	ldi	r24, 0xCD	; 205
    10d6:	a8 9f       	mul	r26, r24
    10d8:	a1 2d       	mov	r26, r1
    10da:	11 24       	eor	r1, r1
    10dc:	a6 95       	lsr	r26
    10de:	a6 95       	lsr	r26
    10e0:	a6 95       	lsr	r26
    10e2:	b0 e0       	ldi	r27, 0x00	; 0
    10e4:	a5 5a       	subi	r26, 0xA5	; 165
    10e6:	be 4b       	sbci	r27, 0xBE	; 190
    10e8:	9c 91       	ld	r25, X
    10ea:	99 87       	std	Y+9, r25	; 0x09
	DIGIT[2][0] = fnd_tbl[Stal_Number % 10];
    10ec:	e8 9f       	mul	r30, r24
    10ee:	81 2d       	mov	r24, r1
    10f0:	11 24       	eor	r1, r1
    10f2:	86 95       	lsr	r24
    10f4:	86 95       	lsr	r24
    10f6:	86 95       	lsr	r24
    10f8:	88 0f       	add	r24, r24
    10fa:	98 2f       	mov	r25, r24
    10fc:	99 0f       	add	r25, r25
    10fe:	99 0f       	add	r25, r25
    1100:	89 0f       	add	r24, r25
    1102:	e8 1b       	sub	r30, r24
    1104:	f0 e0       	ldi	r31, 0x00	; 0
    1106:	e5 5a       	subi	r30, 0xA5	; 165
    1108:	fe 4b       	sbci	r31, 0xBE	; 190
    110a:	80 81       	ld	r24, Z
    110c:	88 87       	std	Y+8, r24	; 0x08
}
    110e:	df 91       	pop	r29
    1110:	cf 91       	pop	r28
    1112:	08 95       	ret

00001114 <Check_Value>:

//=================================================================================================
void Check_Value(void)								// ·Оөејҝ ГјБЯГшБӨ
{
    1114:	4f 92       	push	r4
    1116:	5f 92       	push	r5
    1118:	6f 92       	push	r6
    111a:	7f 92       	push	r7
    111c:	8f 92       	push	r8
    111e:	9f 92       	push	r9
    1120:	af 92       	push	r10
    1122:	bf 92       	push	r11
    1124:	cf 92       	push	r12
    1126:	df 92       	push	r13
    1128:	ef 92       	push	r14
    112a:	ff 92       	push	r15
    112c:	0f 93       	push	r16
    112e:	1f 93       	push	r17
    1130:	cf 93       	push	r28
    1132:	df 93       	push	r29
	uint32_t Value = Read_Load_Cell();					// ·Оөејҝ ГшБӨ°Ә АРұв
    1134:	0e 94 ee 19 	call	0x33dc	; 0x33dc <Read_Load_Cell>
    1138:	ac 01       	movw	r20, r24
    113a:	60 e0       	ldi	r22, 0x00	; 0
    113c:	70 e0       	ldi	r23, 0x00	; 0
	uint32_t Old_Value = CELL.Old_Value;					// ·Оөејҝ Old_Value °Ә
    113e:	c0 90 3f 51 	lds	r12, 0x513F	; 0x80513f <CELL+0x9>
    1142:	d0 90 40 51 	lds	r13, 0x5140	; 0x805140 <CELL+0xa>
    1146:	e0 90 41 51 	lds	r14, 0x5141	; 0x805141 <CELL+0xb>
    114a:	f0 90 42 51 	lds	r15, 0x5142	; 0x805142 <CELL+0xc>
    114e:	46 01       	movw	r8, r12
    1150:	57 01       	movw	r10, r14
 	uint8_t cnt_1 = 5;							// OK_Count °№јц
 	uint8_t cnt_2 = 15;							// OK_Count °№јц
//-------------------------------------------------------------------------------------------------
	if(Value)								// ГшБӨГјБЯАМ АЦАёёй
    1152:	41 15       	cp	r20, r1
    1154:	51 05       	cpc	r21, r1
    1156:	61 05       	cpc	r22, r1
    1158:	71 05       	cpc	r23, r1
    115a:	09 f4       	brne	.+2      	; 0x115e <Check_Value+0x4a>
    115c:	37 c2       	rjmp	.+1134   	; 0x15cc <Check_Value+0x4b8>
	{
 		if((Old_Value <= Value + Admit_Weight) & (Old_Value >= Value - Admit_Weight))
    115e:	2a 01       	movw	r4, r20
    1160:	3b 01       	movw	r6, r22
    1162:	25 e0       	ldi	r18, 0x05	; 5
    1164:	42 1a       	sub	r4, r18
    1166:	51 08       	sbc	r5, r1
    1168:	61 08       	sbc	r6, r1
    116a:	71 08       	sbc	r7, r1
    116c:	e1 e0       	ldi	r30, 0x01	; 1
    116e:	8a 01       	movw	r16, r20
    1170:	9b 01       	movw	r18, r22
    1172:	0b 5f       	subi	r16, 0xFB	; 251
    1174:	1f 4f       	sbci	r17, 0xFF	; 255
    1176:	2f 4f       	sbci	r18, 0xFF	; 255
    1178:	3f 4f       	sbci	r19, 0xFF	; 255
    117a:	0c 15       	cp	r16, r12
    117c:	1d 05       	cpc	r17, r13
    117e:	2e 05       	cpc	r18, r14
    1180:	3f 05       	cpc	r19, r15
    1182:	08 f4       	brcc	.+2      	; 0x1186 <Check_Value+0x72>
    1184:	e0 e0       	ldi	r30, 0x00	; 0
    1186:	21 e0       	ldi	r18, 0x01	; 1
    1188:	84 14       	cp	r8, r4
    118a:	95 04       	cpc	r9, r5
    118c:	a6 04       	cpc	r10, r6
    118e:	b7 04       	cpc	r11, r7
    1190:	08 f4       	brcc	.+2      	; 0x1194 <Check_Value+0x80>
    1192:	20 e0       	ldi	r18, 0x00	; 0
    1194:	2e 23       	and	r18, r30
    1196:	09 f4       	brne	.+2      	; 0x119a <Check_Value+0x86>
    1198:	a9 c1       	rjmp	.+850    	; 0x14ec <Check_Value+0x3d8>
		{								// АМАьГјБЯАМ ГшБӨГјБЯ°ъ АОБхГјБЯ(10x10g)А» ҙхЗС°Ә°ъ °°°ЕіӘ АЫ°н АОБхГјБЯ(10x10g)А» »«°Ә°ъ °°°ЕіӘ Е©ёйјӯ АМАьГјБЯ°ъ °°Аёёй
			CELL.Old_Value = (CELL.Over_Value + Value)/2;		// АМАьГјБЯҝЎ ГшБӨГјБЯ АъАе
    119a:	e6 e3       	ldi	r30, 0x36	; 54
    119c:	f1 e5       	ldi	r31, 0x51	; 81
    119e:	85 85       	ldd	r24, Z+13	; 0x0d
    11a0:	96 85       	ldd	r25, Z+14	; 0x0e
    11a2:	a7 85       	ldd	r26, Z+15	; 0x0f
    11a4:	b0 89       	ldd	r27, Z+16	; 0x10
    11a6:	48 0f       	add	r20, r24
    11a8:	59 1f       	adc	r21, r25
    11aa:	6a 1f       	adc	r22, r26
    11ac:	7b 1f       	adc	r23, r27
    11ae:	76 95       	lsr	r23
    11b0:	67 95       	ror	r22
    11b2:	57 95       	ror	r21
    11b4:	47 95       	ror	r20
    11b6:	41 87       	std	Z+9, r20	; 0x09
    11b8:	52 87       	std	Z+10, r21	; 0x0a
    11ba:	63 87       	std	Z+11, r22	; 0x0b
    11bc:	74 87       	std	Z+12, r23	; 0x0c
			Sec_Count = 0;
    11be:	10 92 24 51 	sts	0x5124, r1	; 0x805124 <Sec_Count>

			if(SET.Save || Auto_Mode)				// АЪөҝ ёрөеАП¶§ ГшБӨГјБЯ әҜИӯ°Ў АЫАёёй OK Count 1, OK Count 2 Бх°Ў
    11c2:	80 91 2c 51 	lds	r24, 0x512C	; 0x80512c <SET+0x4>
    11c6:	81 11       	cpse	r24, r1
    11c8:	04 c0       	rjmp	.+8      	; 0x11d2 <Check_Value+0xbe>
    11ca:	80 91 a1 51 	lds	r24, 0x51A1	; 0x8051a1 <Auto_Mode>
    11ce:	88 23       	and	r24, r24
    11d0:	51 f0       	breq	.+20     	; 0x11e6 <Check_Value+0xd2>
			{
				OK_Count_1++;
    11d2:	80 91 6e 51 	lds	r24, 0x516E	; 0x80516e <OK_Count_1>
    11d6:	8f 5f       	subi	r24, 0xFF	; 255
    11d8:	80 93 6e 51 	sts	0x516E, r24	; 0x80516e <OK_Count_1>
				OK_Count_2++;
    11dc:	80 91 98 51 	lds	r24, 0x5198	; 0x805198 <OK_Count_2>
    11e0:	8f 5f       	subi	r24, 0xFF	; 255
    11e2:	80 93 98 51 	sts	0x5198, r24	; 0x805198 <OK_Count_2>
			}

			if((OK_Count_1 >= cnt_1) || (OK_Count_2 >= cnt_2))	// ГшБӨГјБЯ OK Count әёҙЩ Е©ёй
    11e6:	80 91 6e 51 	lds	r24, 0x516E	; 0x80516e <OK_Count_1>
    11ea:	85 30       	cpi	r24, 0x05	; 5
    11ec:	28 f4       	brcc	.+10     	; 0x11f8 <Check_Value+0xe4>
    11ee:	80 91 98 51 	lds	r24, 0x5198	; 0x805198 <OK_Count_2>
    11f2:	8f 30       	cpi	r24, 0x0F	; 15
    11f4:	08 f4       	brcc	.+2      	; 0x11f8 <Check_Value+0xe4>
    11f6:	e1 c1       	rjmp	.+962    	; 0x15ba <Check_Value+0x4a6>
			{
				FND_Value_Data(1, 1, 10);			// FND 1 FND_MINUS ЗҘҪГ
    11f8:	4a e0       	ldi	r20, 0x0A	; 10
    11fa:	61 e0       	ldi	r22, 0x01	; 1
    11fc:	81 e0       	ldi	r24, 0x01	; 1
    11fe:	0e 94 d2 05 	call	0xba4	; 0xba4 <FND_Value_Data>

				if((SET.Save || Auto_Mode) && !CELL.Zero_Buff)	// АъАе Key °Ў ҙӯ·И°ЕіӘ АЪөҝёрөе АМёйјӯ CELL.Zero_Buff °Ў 0АМёй
    1202:	80 91 2c 51 	lds	r24, 0x512C	; 0x80512c <SET+0x4>
    1206:	81 11       	cpse	r24, r1
    1208:	05 c0       	rjmp	.+10     	; 0x1214 <Check_Value+0x100>
    120a:	80 91 a1 51 	lds	r24, 0x51A1	; 0x8051a1 <Auto_Mode>
    120e:	88 23       	and	r24, r24
    1210:	09 f4       	brne	.+2      	; 0x1214 <Check_Value+0x100>
    1212:	69 c1       	rjmp	.+722    	; 0x14e6 <Check_Value+0x3d2>
    1214:	80 91 36 51 	lds	r24, 0x5136	; 0x805136 <CELL>
    1218:	81 11       	cpse	r24, r1
    121a:	65 c1       	rjmp	.+714    	; 0x14e6 <Check_Value+0x3d2>
				{
					if(EepCnt < 35) {EepCnt++;}		// EEPROM АъАеИҪјц °Ў 0 ~ 34(35°і)әёҙЩ АЫАёёй АъАеИҪјц Бх°Ў
    121c:	80 91 c5 41 	lds	r24, 0x41C5	; 0x8041c5 <EepCnt>
    1220:	83 32       	cpi	r24, 0x23	; 35
    1222:	20 f4       	brcc	.+8      	; 0x122c <Check_Value+0x118>
    1224:	8f 5f       	subi	r24, 0xFF	; 255
    1226:	80 93 c5 41 	sts	0x41C5, r24	; 0x8041c5 <EepCnt>
    122a:	02 c0       	rjmp	.+4      	; 0x1230 <Check_Value+0x11c>
					else		{EepCnt=0;}		// ҫЖҙПёй EEPROM АъАеИҪјц ГКұвИӯ
    122c:	10 92 c5 41 	sts	0x41C5, r1	; 0x8041c5 <EepCnt>

					if(Data_Number < 299) {Data_Number++;}			// АъАеИҪјц °Ў 0 ~ 299(300°і)әёҙЩ АЫАёёй АъАеИҪјц Бх°Ў
    1230:	80 91 7b 51 	lds	r24, 0x517B	; 0x80517b <Data_Number>
    1234:	8f 5f       	subi	r24, 0xFF	; 255
    1236:	80 93 7b 51 	sts	0x517B, r24	; 0x80517b <Data_Number>
					else		      {Data_Number=0; EepCnt=0;}	// ҫЖҙПёй АъАеИҪјц ГКұвИӯ
//-------------------------------------------------------------------------------------------------
					SAVE.AutoSet[Data_Number] = Auto_Mode;
    123a:	90 e0       	ldi	r25, 0x00	; 0
    123c:	ec 01       	movw	r28, r24
    123e:	ca 53       	subi	r28, 0x3A	; 58
    1240:	de 4b       	sbci	r29, 0xBE	; 190
    1242:	20 91 a1 51 	lds	r18, 0x51A1	; 0x8051a1 <Auto_Mode>
    1246:	28 83       	st	Y, r18
					SAVE.Count  [Data_Number] = Data_Number;
    1248:	fc 01       	movw	r30, r24
    124a:	ea 56       	subi	r30, 0x6A	; 106
    124c:	ff 4f       	sbci	r31, 0xFF	; 255
    124e:	ee 0f       	add	r30, r30
    1250:	ff 1f       	adc	r31, r31
    1252:	ea 53       	subi	r30, 0x3A	; 58
    1254:	fe 4b       	sbci	r31, 0xBE	; 190
    1256:	80 83       	st	Z, r24
    1258:	91 83       	std	Z+1, r25	; 0x01
					SAVE.Data   [Data_Number] = CELL.Value = Old_Value;
    125a:	06 e3       	ldi	r16, 0x36	; 54
    125c:	11 e5       	ldi	r17, 0x51	; 81
    125e:	f8 01       	movw	r30, r16
    1260:	c1 82       	std	Z+1, r12	; 0x01
    1262:	d2 82       	std	Z+2, r13	; 0x02
    1264:	e3 82       	std	Z+3, r14	; 0x03
    1266:	f4 82       	std	Z+4, r15	; 0x04
    1268:	fc 01       	movw	r30, r24
    126a:	ee 53       	subi	r30, 0x3E	; 62
    126c:	fe 4f       	sbci	r31, 0xFE	; 254
    126e:	ee 0f       	add	r30, r30
    1270:	ff 1f       	adc	r31, r31
    1272:	ea 53       	subi	r30, 0x3A	; 58
    1274:	fe 4b       	sbci	r31, 0xBE	; 190
    1276:	c0 82       	st	Z, r12
    1278:	d1 82       	std	Z+1, r13	; 0x01
					SAVE.RoomNum[Data_Number] = Room_Number;
    127a:	fe 01       	movw	r30, r28
    127c:	e4 52       	subi	r30, 0x24	; 36
    127e:	fa 4f       	sbci	r31, 0xFA	; 250
    1280:	80 91 94 51 	lds	r24, 0x5194	; 0x805194 <Room_Number>
    1284:	80 83       	st	Z, r24
					SAVE.StalNum[Data_Number] = Stal_Number;
    1286:	e4 5d       	subi	r30, 0xD4	; 212
    1288:	fe 4f       	sbci	r31, 0xFE	; 254
    128a:	80 91 6d 51 	lds	r24, 0x516D	; 0x80516d <Stal_Number>
    128e:	80 83       	st	Z, r24
					SAVE.Year   [Data_Number] = RTC_Single_Read(RTC_YEAR);		// YEAR
    1290:	86 e0       	ldi	r24, 0x06	; 6
    1292:	0e 94 9f 29 	call	0x533e	; 0x533e <RTC_Single_Read>
    1296:	cc 5c       	subi	r28, 0xCC	; 204
    1298:	d7 4f       	sbci	r29, 0xF7	; 247
    129a:	88 83       	st	Y, r24
					SAVE.Month  [Data_Number] = RTC_Single_Read(RTC_MONTH);		// MONTH
    129c:	c0 91 7b 51 	lds	r28, 0x517B	; 0x80517b <Data_Number>
    12a0:	d0 e0       	ldi	r29, 0x00	; 0
    12a2:	85 e0       	ldi	r24, 0x05	; 5
    12a4:	0e 94 9f 29 	call	0x533e	; 0x533e <RTC_Single_Read>
    12a8:	ca 5d       	subi	r28, 0xDA	; 218
    12aa:	d4 4b       	sbci	r29, 0xB4	; 180
    12ac:	88 83       	st	Y, r24
					SAVE.Date   [Data_Number] = RTC_Single_Read(RTC_DATE);		// DATE
    12ae:	c0 91 7b 51 	lds	r28, 0x517B	; 0x80517b <Data_Number>
    12b2:	d0 e0       	ldi	r29, 0x00	; 0
    12b4:	84 e0       	ldi	r24, 0x04	; 4
    12b6:	0e 94 9f 29 	call	0x533e	; 0x533e <RTC_Single_Read>
    12ba:	ce 5a       	subi	r28, 0xAE	; 174
    12bc:	d3 4b       	sbci	r29, 0xB3	; 179
    12be:	88 83       	st	Y, r24
					SAVE.Hour   [Data_Number] = RTC_Single_Read(RTC_HOUR);		// HOUR
    12c0:	c0 91 7b 51 	lds	r28, 0x517B	; 0x80517b <Data_Number>
    12c4:	d0 e0       	ldi	r29, 0x00	; 0
    12c6:	82 e0       	ldi	r24, 0x02	; 2
    12c8:	0e 94 9f 29 	call	0x533e	; 0x533e <RTC_Single_Read>
    12cc:	c2 58       	subi	r28, 0x82	; 130
    12ce:	d2 4b       	sbci	r29, 0xB2	; 178
    12d0:	88 83       	st	Y, r24
					SAVE.Min    [Data_Number] = RTC_Single_Read(RTC_MINUTE);	// MINUTE
    12d2:	c0 91 7b 51 	lds	r28, 0x517B	; 0x80517b <Data_Number>
    12d6:	d0 e0       	ldi	r29, 0x00	; 0
    12d8:	81 e0       	ldi	r24, 0x01	; 1
    12da:	0e 94 9f 29 	call	0x533e	; 0x533e <RTC_Single_Read>
    12de:	c6 55       	subi	r28, 0x56	; 86
    12e0:	d1 4b       	sbci	r29, 0xB1	; 177
    12e2:	88 83       	st	Y, r24
					SAVE.Sec    [Data_Number] = RTC_Single_Read(RTC_SECOND);	// SECOND
    12e4:	c0 91 7b 51 	lds	r28, 0x517B	; 0x80517b <Data_Number>
    12e8:	d0 e0       	ldi	r29, 0x00	; 0
    12ea:	80 e0       	ldi	r24, 0x00	; 0
    12ec:	0e 94 9f 29 	call	0x533e	; 0x533e <RTC_Single_Read>
    12f0:	ca 52       	subi	r28, 0x2A	; 42
    12f2:	d0 4b       	sbci	r29, 0xB0	; 176
    12f4:	88 83       	st	Y, r24
//-------------------------------------------------------------------------------------------------
					ee_write_byte(MEASURE_AUTO   + (MEASURE_LENGTH * EepCnt), Auto_Mode);
    12f6:	80 91 c5 41 	lds	r24, 0x41C5	; 0x8041c5 <EepCnt>
    12fa:	90 e0       	ldi	r25, 0x00	; 0
    12fc:	9c 01       	movw	r18, r24
    12fe:	22 0f       	add	r18, r18
    1300:	33 1f       	adc	r19, r19
    1302:	82 0f       	add	r24, r18
    1304:	93 1f       	adc	r25, r19
    1306:	88 0f       	add	r24, r24
    1308:	99 1f       	adc	r25, r25
    130a:	88 0f       	add	r24, r24
    130c:	99 1f       	adc	r25, r25
    130e:	60 91 a1 51 	lds	r22, 0x51A1	; 0x8051a1 <Auto_Mode>
    1312:	80 96       	adiw	r24, 0x20	; 32
    1314:	0e 94 29 13 	call	0x2652	; 0x2652 <ee_write_byte>
					ee_write_word(MEASURE_COUNT  + (MEASURE_LENGTH * EepCnt), Data_Number);
    1318:	80 91 c5 41 	lds	r24, 0x41C5	; 0x8041c5 <EepCnt>
    131c:	90 e0       	ldi	r25, 0x00	; 0
    131e:	9c 01       	movw	r18, r24
    1320:	22 0f       	add	r18, r18
    1322:	33 1f       	adc	r19, r19
    1324:	82 0f       	add	r24, r18
    1326:	93 1f       	adc	r25, r19
    1328:	88 0f       	add	r24, r24
    132a:	99 1f       	adc	r25, r25
    132c:	88 0f       	add	r24, r24
    132e:	99 1f       	adc	r25, r25
    1330:	60 91 7b 51 	lds	r22, 0x517B	; 0x80517b <Data_Number>
    1334:	70 e0       	ldi	r23, 0x00	; 0
    1336:	44 96       	adiw	r24, 0x14	; 20
    1338:	0e 94 4c 13 	call	0x2698	; 0x2698 <ee_write_word>
					ee_write_word(MEASURE_WEIGHT + (MEASURE_LENGTH * EepCnt), CELL.Value = Old_Value);
    133c:	f8 01       	movw	r30, r16
    133e:	c1 82       	std	Z+1, r12	; 0x01
    1340:	d2 82       	std	Z+2, r13	; 0x02
    1342:	e3 82       	std	Z+3, r14	; 0x03
    1344:	f4 82       	std	Z+4, r15	; 0x04
    1346:	80 91 c5 41 	lds	r24, 0x41C5	; 0x8041c5 <EepCnt>
    134a:	90 e0       	ldi	r25, 0x00	; 0
    134c:	9c 01       	movw	r18, r24
    134e:	22 0f       	add	r18, r18
    1350:	33 1f       	adc	r19, r19
    1352:	82 0f       	add	r24, r18
    1354:	93 1f       	adc	r25, r19
    1356:	88 0f       	add	r24, r24
    1358:	99 1f       	adc	r25, r25
    135a:	88 0f       	add	r24, r24
    135c:	99 1f       	adc	r25, r25
    135e:	b6 01       	movw	r22, r12
    1360:	48 96       	adiw	r24, 0x18	; 24
    1362:	0e 94 4c 13 	call	0x2698	; 0x2698 <ee_write_word>
					ee_write_byte(ROOM_NUMBER    + (MEASURE_LENGTH * EepCnt), Room_Number);
    1366:	80 91 c5 41 	lds	r24, 0x41C5	; 0x8041c5 <EepCnt>
    136a:	90 e0       	ldi	r25, 0x00	; 0
    136c:	9c 01       	movw	r18, r24
    136e:	22 0f       	add	r18, r18
    1370:	33 1f       	adc	r19, r19
    1372:	82 0f       	add	r24, r18
    1374:	93 1f       	adc	r25, r19
    1376:	88 0f       	add	r24, r24
    1378:	99 1f       	adc	r25, r25
    137a:	88 0f       	add	r24, r24
    137c:	99 1f       	adc	r25, r25
    137e:	60 91 94 51 	lds	r22, 0x5194	; 0x805194 <Room_Number>
    1382:	46 96       	adiw	r24, 0x16	; 22
    1384:	0e 94 29 13 	call	0x2652	; 0x2652 <ee_write_byte>
					ee_write_byte(STALL_NUMBER   + (MEASURE_LENGTH * EepCnt), Stal_Number);
    1388:	80 91 c5 41 	lds	r24, 0x41C5	; 0x8041c5 <EepCnt>
    138c:	90 e0       	ldi	r25, 0x00	; 0
    138e:	9c 01       	movw	r18, r24
    1390:	22 0f       	add	r18, r18
    1392:	33 1f       	adc	r19, r19
    1394:	82 0f       	add	r24, r18
    1396:	93 1f       	adc	r25, r19
    1398:	88 0f       	add	r24, r24
    139a:	99 1f       	adc	r25, r25
    139c:	88 0f       	add	r24, r24
    139e:	99 1f       	adc	r25, r25
    13a0:	60 91 6d 51 	lds	r22, 0x516D	; 0x80516d <Stal_Number>
    13a4:	47 96       	adiw	r24, 0x17	; 23
    13a6:	0e 94 29 13 	call	0x2652	; 0x2652 <ee_write_byte>
					ee_write_byte(MEASURE_YEAR   + (MEASURE_LENGTH * EepCnt), RTC_Single_Read(RTC_YEAR));
    13aa:	86 e0       	ldi	r24, 0x06	; 6
    13ac:	0e 94 9f 29 	call	0x533e	; 0x533e <RTC_Single_Read>
    13b0:	68 2f       	mov	r22, r24
    13b2:	20 91 c5 41 	lds	r18, 0x41C5	; 0x8041c5 <EepCnt>
    13b6:	30 e0       	ldi	r19, 0x00	; 0
    13b8:	c9 01       	movw	r24, r18
    13ba:	88 0f       	add	r24, r24
    13bc:	99 1f       	adc	r25, r25
    13be:	28 0f       	add	r18, r24
    13c0:	39 1f       	adc	r19, r25
    13c2:	c9 01       	movw	r24, r18
    13c4:	88 0f       	add	r24, r24
    13c6:	99 1f       	adc	r25, r25
    13c8:	88 0f       	add	r24, r24
    13ca:	99 1f       	adc	r25, r25
    13cc:	4a 96       	adiw	r24, 0x1a	; 26
    13ce:	0e 94 29 13 	call	0x2652	; 0x2652 <ee_write_byte>
					ee_write_byte(MEASURE_MONTH  + (MEASURE_LENGTH * EepCnt), RTC_Single_Read(RTC_MONTH));
    13d2:	85 e0       	ldi	r24, 0x05	; 5
    13d4:	0e 94 9f 29 	call	0x533e	; 0x533e <RTC_Single_Read>
    13d8:	68 2f       	mov	r22, r24
    13da:	20 91 c5 41 	lds	r18, 0x41C5	; 0x8041c5 <EepCnt>
    13de:	30 e0       	ldi	r19, 0x00	; 0
    13e0:	c9 01       	movw	r24, r18
    13e2:	88 0f       	add	r24, r24
    13e4:	99 1f       	adc	r25, r25
    13e6:	28 0f       	add	r18, r24
    13e8:	39 1f       	adc	r19, r25
    13ea:	c9 01       	movw	r24, r18
    13ec:	88 0f       	add	r24, r24
    13ee:	99 1f       	adc	r25, r25
    13f0:	88 0f       	add	r24, r24
    13f2:	99 1f       	adc	r25, r25
    13f4:	4b 96       	adiw	r24, 0x1b	; 27
    13f6:	0e 94 29 13 	call	0x2652	; 0x2652 <ee_write_byte>
					ee_write_byte(MEASURE_DATE   + (MEASURE_LENGTH * EepCnt), RTC_Single_Read(RTC_DATE));
    13fa:	84 e0       	ldi	r24, 0x04	; 4
    13fc:	0e 94 9f 29 	call	0x533e	; 0x533e <RTC_Single_Read>
    1400:	68 2f       	mov	r22, r24
    1402:	20 91 c5 41 	lds	r18, 0x41C5	; 0x8041c5 <EepCnt>
    1406:	30 e0       	ldi	r19, 0x00	; 0
    1408:	c9 01       	movw	r24, r18
    140a:	88 0f       	add	r24, r24
    140c:	99 1f       	adc	r25, r25
    140e:	28 0f       	add	r18, r24
    1410:	39 1f       	adc	r19, r25
    1412:	c9 01       	movw	r24, r18
    1414:	88 0f       	add	r24, r24
    1416:	99 1f       	adc	r25, r25
    1418:	88 0f       	add	r24, r24
    141a:	99 1f       	adc	r25, r25
    141c:	4c 96       	adiw	r24, 0x1c	; 28
    141e:	0e 94 29 13 	call	0x2652	; 0x2652 <ee_write_byte>
					ee_write_byte(MEASURE_HOUR   + (MEASURE_LENGTH * EepCnt), RTC_Single_Read(RTC_HOUR));
    1422:	82 e0       	ldi	r24, 0x02	; 2
    1424:	0e 94 9f 29 	call	0x533e	; 0x533e <RTC_Single_Read>
    1428:	68 2f       	mov	r22, r24
    142a:	20 91 c5 41 	lds	r18, 0x41C5	; 0x8041c5 <EepCnt>
    142e:	30 e0       	ldi	r19, 0x00	; 0
    1430:	c9 01       	movw	r24, r18
    1432:	88 0f       	add	r24, r24
    1434:	99 1f       	adc	r25, r25
    1436:	28 0f       	add	r18, r24
    1438:	39 1f       	adc	r19, r25
    143a:	c9 01       	movw	r24, r18
    143c:	88 0f       	add	r24, r24
    143e:	99 1f       	adc	r25, r25
    1440:	88 0f       	add	r24, r24
    1442:	99 1f       	adc	r25, r25
    1444:	4d 96       	adiw	r24, 0x1d	; 29
    1446:	0e 94 29 13 	call	0x2652	; 0x2652 <ee_write_byte>
					ee_write_byte(MEASURE_MIN    + (MEASURE_LENGTH * EepCnt), RTC_Single_Read(RTC_MINUTE));
    144a:	81 e0       	ldi	r24, 0x01	; 1
    144c:	0e 94 9f 29 	call	0x533e	; 0x533e <RTC_Single_Read>
    1450:	68 2f       	mov	r22, r24
    1452:	20 91 c5 41 	lds	r18, 0x41C5	; 0x8041c5 <EepCnt>
    1456:	30 e0       	ldi	r19, 0x00	; 0
    1458:	c9 01       	movw	r24, r18
    145a:	88 0f       	add	r24, r24
    145c:	99 1f       	adc	r25, r25
    145e:	28 0f       	add	r18, r24
    1460:	39 1f       	adc	r19, r25
    1462:	c9 01       	movw	r24, r18
    1464:	88 0f       	add	r24, r24
    1466:	99 1f       	adc	r25, r25
    1468:	88 0f       	add	r24, r24
    146a:	99 1f       	adc	r25, r25
    146c:	4e 96       	adiw	r24, 0x1e	; 30
    146e:	0e 94 29 13 	call	0x2652	; 0x2652 <ee_write_byte>
					ee_write_byte(MEASURE_SEC    + (MEASURE_LENGTH * EepCnt), RTC_Single_Read(RTC_SECOND));
    1472:	80 e0       	ldi	r24, 0x00	; 0
    1474:	0e 94 9f 29 	call	0x533e	; 0x533e <RTC_Single_Read>
    1478:	68 2f       	mov	r22, r24
    147a:	20 91 c5 41 	lds	r18, 0x41C5	; 0x8041c5 <EepCnt>
    147e:	30 e0       	ldi	r19, 0x00	; 0
    1480:	c9 01       	movw	r24, r18
    1482:	88 0f       	add	r24, r24
    1484:	99 1f       	adc	r25, r25
    1486:	28 0f       	add	r18, r24
    1488:	39 1f       	adc	r19, r25
    148a:	c9 01       	movw	r24, r18
    148c:	88 0f       	add	r24, r24
    148e:	99 1f       	adc	r25, r25
    1490:	88 0f       	add	r24, r24
    1492:	99 1f       	adc	r25, r25
    1494:	4f 96       	adiw	r24, 0x1f	; 31
    1496:	0e 94 29 13 	call	0x2652	; 0x2652 <ee_write_byte>
//-------------------------------------------------------------------------------------------------
					CELL.Zero_Buff = 1;
    149a:	81 e0       	ldi	r24, 0x01	; 1
    149c:	f8 01       	movw	r30, r16
    149e:	80 83       	st	Z, r24
					SET.Save = 0;
    14a0:	10 92 2c 51 	sts	0x512C, r1	; 0x80512c <SET+0x4>
					Alarm();
    14a4:	0e 94 ff 07 	call	0xffe	; 0xffe <Alarm>
					printf("OK_Count_1 %d, OK_Count_2 %d \r\n", OK_Count_1, OK_Count_2);
    14a8:	80 91 98 51 	lds	r24, 0x5198	; 0x805198 <OK_Count_2>
    14ac:	1f 92       	push	r1
    14ae:	8f 93       	push	r24
    14b0:	80 91 6e 51 	lds	r24, 0x516E	; 0x80516e <OK_Count_1>
    14b4:	1f 92       	push	r1
    14b6:	8f 93       	push	r24
    14b8:	88 e4       	ldi	r24, 0x48	; 72
    14ba:	90 e4       	ldi	r25, 0x40	; 64
    14bc:	9f 93       	push	r25
    14be:	8f 93       	push	r24
    14c0:	0e 94 86 3e 	call	0x7d0c	; 0x7d0c <printf>
					printf("Value %ld \r\n", Old_Value);
    14c4:	ff 92       	push	r15
    14c6:	ef 92       	push	r14
    14c8:	df 92       	push	r13
    14ca:	cf 92       	push	r12
    14cc:	88 e6       	ldi	r24, 0x68	; 104
    14ce:	90 e4       	ldi	r25, 0x40	; 64
    14d0:	9f 93       	push	r25
    14d2:	8f 93       	push	r24
    14d4:	0e 94 86 3e 	call	0x7d0c	; 0x7d0c <printf>
					Cell_Desplay();				// ·Оөејҝ №«°Ф ЗҘҪГ
    14d8:	0e 94 24 18 	call	0x3048	; 0x3048 <Cell_Desplay>
    14dc:	8d b7       	in	r24, 0x3d	; 61
    14de:	9e b7       	in	r25, 0x3e	; 62
    14e0:	0c 96       	adiw	r24, 0x0c	; 12
    14e2:	8d bf       	out	0x3d, r24	; 61
    14e4:	9e bf       	out	0x3e, r25	; 62
				}
				Stal_Desplay();					// ҪәЕз №шИЈ ЗҘҪГ
    14e6:	0e 94 52 08 	call	0x10a4	; 0x10a4 <Stal_Desplay>
    14ea:	67 c0       	rjmp	.+206    	; 0x15ba <Check_Value+0x4a6>
			}
		}
		else
		{
 			if((CELL.Over_Value <= Value + (Admit_Weight * 5)) && (CELL.Over_Value >= Value - (Admit_Weight * 5)))
    14ec:	c0 90 43 51 	lds	r12, 0x5143	; 0x805143 <CELL+0xd>
    14f0:	d0 90 44 51 	lds	r13, 0x5144	; 0x805144 <CELL+0xe>
    14f4:	e0 90 45 51 	lds	r14, 0x5145	; 0x805145 <CELL+0xf>
    14f8:	f0 90 46 51 	lds	r15, 0x5146	; 0x805146 <CELL+0x10>
    14fc:	8a 01       	movw	r16, r20
    14fe:	9b 01       	movw	r18, r22
    1500:	07 5e       	subi	r16, 0xE7	; 231
    1502:	1f 4f       	sbci	r17, 0xFF	; 255
    1504:	2f 4f       	sbci	r18, 0xFF	; 255
    1506:	3f 4f       	sbci	r19, 0xFF	; 255
    1508:	0c 15       	cp	r16, r12
    150a:	1d 05       	cpc	r17, r13
    150c:	2e 05       	cpc	r18, r14
    150e:	3f 05       	cpc	r19, r15
    1510:	08 f4       	brcc	.+2      	; 0x1514 <Check_Value+0x400>
    1512:	43 c0       	rjmp	.+134    	; 0x159a <Check_Value+0x486>
    1514:	c0 90 43 51 	lds	r12, 0x5143	; 0x805143 <CELL+0xd>
    1518:	d0 90 44 51 	lds	r13, 0x5144	; 0x805144 <CELL+0xe>
    151c:	e0 90 45 51 	lds	r14, 0x5145	; 0x805145 <CELL+0xf>
    1520:	f0 90 46 51 	lds	r15, 0x5146	; 0x805146 <CELL+0x10>
    1524:	8a 01       	movw	r16, r20
    1526:	9b 01       	movw	r18, r22
    1528:	09 51       	subi	r16, 0x19	; 25
    152a:	11 09       	sbc	r17, r1
    152c:	21 09       	sbc	r18, r1
    152e:	31 09       	sbc	r19, r1
    1530:	c0 16       	cp	r12, r16
    1532:	d1 06       	cpc	r13, r17
    1534:	e2 06       	cpc	r14, r18
    1536:	f3 06       	cpc	r15, r19
    1538:	80 f1       	brcs	.+96     	; 0x159a <Check_Value+0x486>
			{							// АМАьГјБЯАМ ГшБӨГјБЯ°ъ АОБхГјБЯ((10+5)x10g)А» ҙхЗС°Ә°ъ °°°ЕіӘ АЫ°н АОБхГјБЯ((10+5)x10g)А» »«°Ә°ъ °°°ЕіӘ Е©ёйјӯ АМАьГјБЯ°ъ °°Аёёй
 				if(SET.Save || Auto_Mode) {OK_Count_2++;}	// АЪөҝ ёрөеАП¶§ ГшБӨГјБЯ OK Count 2 Бх°Ў
    153a:	80 91 2c 51 	lds	r24, 0x512C	; 0x80512c <SET+0x4>
    153e:	81 11       	cpse	r24, r1
    1540:	04 c0       	rjmp	.+8      	; 0x154a <Check_Value+0x436>
    1542:	80 91 a1 51 	lds	r24, 0x51A1	; 0x8051a1 <Auto_Mode>
    1546:	88 23       	and	r24, r24
    1548:	29 f0       	breq	.+10     	; 0x1554 <Check_Value+0x440>
    154a:	80 91 98 51 	lds	r24, 0x5198	; 0x805198 <OK_Count_2>
    154e:	8f 5f       	subi	r24, 0xFF	; 255
    1550:	80 93 98 51 	sts	0x5198, r24	; 0x805198 <OK_Count_2>
				CELL.Old_Value = (CELL.Over_Value + Value)/2;	// АМАьГјБЯҝЎ ГшБӨГјБЯ АъАе
    1554:	e6 e3       	ldi	r30, 0x36	; 54
    1556:	f1 e5       	ldi	r31, 0x51	; 81
    1558:	85 85       	ldd	r24, Z+13	; 0x0d
    155a:	96 85       	ldd	r25, Z+14	; 0x0e
    155c:	a7 85       	ldd	r26, Z+15	; 0x0f
    155e:	b0 89       	ldd	r27, Z+16	; 0x10
    1560:	48 0f       	add	r20, r24
    1562:	59 1f       	adc	r21, r25
    1564:	6a 1f       	adc	r22, r26
    1566:	7b 1f       	adc	r23, r27
    1568:	76 95       	lsr	r23
    156a:	67 95       	ror	r22
    156c:	57 95       	ror	r21
    156e:	47 95       	ror	r20
    1570:	41 87       	std	Z+9, r20	; 0x09
    1572:	52 87       	std	Z+10, r21	; 0x0a
    1574:	63 87       	std	Z+11, r22	; 0x0b
    1576:	74 87       	std	Z+12, r23	; 0x0c
				CELL.Value = CELL.Old_Value;			// АМАьГјБЯА» №«°ФЗҘҪГ ГјБЯ ҝЎ АъАе 
    1578:	81 85       	ldd	r24, Z+9	; 0x09
    157a:	92 85       	ldd	r25, Z+10	; 0x0a
    157c:	a3 85       	ldd	r26, Z+11	; 0x0b
    157e:	b4 85       	ldd	r27, Z+12	; 0x0c
    1580:	81 83       	std	Z+1, r24	; 0x01
    1582:	92 83       	std	Z+2, r25	; 0x02
    1584:	a3 83       	std	Z+3, r26	; 0x03
    1586:	b4 83       	std	Z+4, r27	; 0x04
 				CELL.Over_Value = CELL.Old_Value;		// ГшБӨГјБЯА» ҙЩАҪ әсұі ГјБЯ°ӘҝЎ АъАе
    1588:	81 85       	ldd	r24, Z+9	; 0x09
    158a:	92 85       	ldd	r25, Z+10	; 0x0a
    158c:	a3 85       	ldd	r26, Z+11	; 0x0b
    158e:	b4 85       	ldd	r27, Z+12	; 0x0c
    1590:	85 87       	std	Z+13, r24	; 0x0d
    1592:	96 87       	std	Z+14, r25	; 0x0e
    1594:	a7 87       	std	Z+15, r26	; 0x0f
    1596:	b0 8b       	std	Z+16, r27	; 0x10
    1598:	0e c0       	rjmp	.+28     	; 0x15b6 <Check_Value+0x4a2>
			}
			else
			{
  				CELL.Value = CELL.Over_Value = Value;
    159a:	a0 e0       	ldi	r26, 0x00	; 0
    159c:	b0 e0       	ldi	r27, 0x00	; 0
    159e:	e6 e3       	ldi	r30, 0x36	; 54
    15a0:	f1 e5       	ldi	r31, 0x51	; 81
    15a2:	85 87       	std	Z+13, r24	; 0x0d
    15a4:	96 87       	std	Z+14, r25	; 0x0e
    15a6:	a7 87       	std	Z+15, r26	; 0x0f
    15a8:	b0 8b       	std	Z+16, r27	; 0x10
    15aa:	81 83       	std	Z+1, r24	; 0x01
    15ac:	92 83       	std	Z+2, r25	; 0x02
    15ae:	a3 83       	std	Z+3, r26	; 0x03
    15b0:	b4 83       	std	Z+4, r27	; 0x04
// 				CELL.Over_Value = Value;			// ГшБӨГјБЯА» ҙЩАҪ әсұі ГјБЯ°ӘҝЎ АъАе
				OK_Count_1 = 0;					// ГјБЯ әҜИӯ°Ў Е©ёй OK_Count 1 ГКұвИӯ
    15b2:	10 92 6e 51 	sts	0x516E, r1	; 0x80516e <OK_Count_1>
			}
			Room_Desplay();						// №ж №шИЈ ЗҘҪГ
    15b6:	0e 94 1a 08 	call	0x1034	; 0x1034 <Room_Desplay>
		}
		Zero_Count = 0;
    15ba:	10 92 88 51 	sts	0x5188, r1	; 0x805188 <Zero_Count>
		if(!CELL.Zero_Buff) {Cell_Desplay();}				// ·Оөејҝ №«°Ф ЗҘҪГ
    15be:	80 91 36 51 	lds	r24, 0x5136	; 0x805136 <CELL>
    15c2:	81 11       	cpse	r24, r1
    15c4:	2b c0       	rjmp	.+86     	; 0x161c <Check_Value+0x508>
    15c6:	0e 94 24 18 	call	0x3048	; 0x3048 <Cell_Desplay>
    15ca:	28 c0       	rjmp	.+80     	; 0x161c <Check_Value+0x508>
	}
	else									// ГшБӨГјБЯАМ ҫшёй
	{
		Zero_Count++;							// Zero_Count Бх°Ў
    15cc:	20 91 88 51 	lds	r18, 0x5188	; 0x805188 <Zero_Count>
    15d0:	2f 5f       	subi	r18, 0xFF	; 255
    15d2:	20 93 88 51 	sts	0x5188, r18	; 0x805188 <Zero_Count>
		if(Zero_Count > 5)						// Zero_Count АМ 2әёҙЩ Е©ёй
    15d6:	26 30       	cpi	r18, 0x06	; 6
    15d8:	08 f1       	brcs	.+66     	; 0x161c <Check_Value+0x508>
		{
			CELL.Old_Value = 0;					// АМАьГшБӨГјБЯ ГКұвИӯ
    15da:	e6 e3       	ldi	r30, 0x36	; 54
    15dc:	f1 e5       	ldi	r31, 0x51	; 81
    15de:	11 86       	std	Z+9, r1	; 0x09
    15e0:	12 86       	std	Z+10, r1	; 0x0a
    15e2:	13 86       	std	Z+11, r1	; 0x0b
    15e4:	14 86       	std	Z+12, r1	; 0x0c
			CELL.Over_Value = 0;					// АМАьГшБӨГјБЯ ГКұвИӯ
    15e6:	15 86       	std	Z+13, r1	; 0x0d
    15e8:	16 86       	std	Z+14, r1	; 0x0e
    15ea:	17 86       	std	Z+15, r1	; 0x0f
    15ec:	10 8a       	std	Z+16, r1	; 0x10
			CELL.Value = Value;
    15ee:	a0 e0       	ldi	r26, 0x00	; 0
    15f0:	b0 e0       	ldi	r27, 0x00	; 0
    15f2:	81 83       	std	Z+1, r24	; 0x01
    15f4:	92 83       	std	Z+2, r25	; 0x02
    15f6:	a3 83       	std	Z+3, r26	; 0x03
    15f8:	b4 83       	std	Z+4, r27	; 0x04
			CELL.Zero_Buff = 0;					// CELL.Zero_Buff ГКұвИӯ
    15fa:	10 82       	st	Z, r1
			Zero_Count = 0;						// Zero_Count ГКұвИӯ
    15fc:	10 92 88 51 	sts	0x5188, r1	; 0x805188 <Zero_Count>
			OK_Count_1 = 0;						// OK_Count 1 ГКұвИӯ
    1600:	10 92 6e 51 	sts	0x516E, r1	; 0x80516e <OK_Count_1>
			OK_Count_2 = 0;						// OK_Count 2 ГКұвИӯ
    1604:	10 92 98 51 	sts	0x5198, r1	; 0x805198 <OK_Count_2>
			if(!SET.Save) {Stal_Desplay();}				// Save ёрөе°Ў ҫЖҙПёй ҪәЕз №шИЈ ЗҘҪГ
    1608:	80 91 2c 51 	lds	r24, 0x512C	; 0x80512c <SET+0x4>
    160c:	81 11       	cpse	r24, r1
    160e:	02 c0       	rjmp	.+4      	; 0x1614 <Check_Value+0x500>
    1610:	0e 94 52 08 	call	0x10a4	; 0x10a4 <Stal_Desplay>
			Room_Desplay();						// №ж №шИЈ ЗҘҪГ
    1614:	0e 94 1a 08 	call	0x1034	; 0x1034 <Room_Desplay>
			Cell_Desplay();						// ГшБӨГјБЯ ЗҘҪГ
    1618:	0e 94 24 18 	call	0x3048	; 0x3048 <Cell_Desplay>
		}
	}
}
    161c:	df 91       	pop	r29
    161e:	cf 91       	pop	r28
    1620:	1f 91       	pop	r17
    1622:	0f 91       	pop	r16
    1624:	ff 90       	pop	r15
    1626:	ef 90       	pop	r14
    1628:	df 90       	pop	r13
    162a:	cf 90       	pop	r12
    162c:	bf 90       	pop	r11
    162e:	af 90       	pop	r10
    1630:	9f 90       	pop	r9
    1632:	8f 90       	pop	r8
    1634:	7f 90       	pop	r7
    1636:	6f 90       	pop	r6
    1638:	5f 90       	pop	r5
    163a:	4f 90       	pop	r4
    163c:	08 95       	ret

0000163e <Send_To_Server_0>:

//=================================================================================================
//		PC·О өҘАМЕН АьјЫ (20°і ГшБӨГјБЯ Data)
//=================================================================================================
void Send_To_Server_0(void)							// PC·О өҘАМЕН АьјЫ (1Иё 1°іҫҝ АьјЫ : ГшБӨГјБЯ Data)
{
    163e:	1f 93       	push	r17
    1640:	cf 93       	push	r28
    1642:	df 93       	push	r29
    1644:	cd b7       	in	r28, 0x3d	; 61
    1646:	de b7       	in	r29, 0x3e	; 62
    1648:	6e 97       	sbiw	r28, 0x1e	; 30
    164a:	cd bf       	out	0x3d, r28	; 61
    164c:	de bf       	out	0x3e, r29	; 62
	uint8_t cnt = 0;							// cnt әҜјц ГКұвИӯ
	uint8_t ChkSum = 0;							// ChkSum әҜјц ГКұвИӯ
	char SerialData[30] = {0};						// SerialData[30] №цЖЫ јұҫр
    164e:	8e e1       	ldi	r24, 0x1E	; 30
    1650:	fe 01       	movw	r30, r28
    1652:	31 96       	adiw	r30, 0x01	; 1
    1654:	df 01       	movw	r26, r30
    1656:	98 2f       	mov	r25, r24
    1658:	1d 92       	st	X+, r1
    165a:	9a 95       	dec	r25
    165c:	e9 f7       	brne	.-6      	; 0x1658 <Send_To_Server_0+0x1a>
	static uint16_t CommCnt	= 0;

	memset(SerialData, 0x00, sizeof(SerialData));				// №цЖЫ ГКұвИӯ
    165e:	df 01       	movw	r26, r30
    1660:	1d 92       	st	X+, r1
    1662:	8a 95       	dec	r24
    1664:	e9 f7       	brne	.-6      	; 0x1660 <Send_To_Server_0+0x22>

	if(CommCnt < Data_Number) {CommCnt++;}
    1666:	80 91 7b 51 	lds	r24, 0x517B	; 0x80517b <Data_Number>
    166a:	90 e0       	ldi	r25, 0x00	; 0
    166c:	20 91 8e 41 	lds	r18, 0x418E	; 0x80418e <__data_end>
    1670:	30 91 8f 41 	lds	r19, 0x418F	; 0x80418f <__data_end+0x1>
    1674:	28 17       	cp	r18, r24
    1676:	39 07       	cpc	r19, r25
    1678:	38 f4       	brcc	.+14     	; 0x1688 <Send_To_Server_0+0x4a>
    167a:	2f 5f       	subi	r18, 0xFF	; 255
    167c:	3f 4f       	sbci	r19, 0xFF	; 255
    167e:	20 93 8e 41 	sts	0x418E, r18	; 0x80418e <__data_end>
    1682:	30 93 8f 41 	sts	0x418F, r19	; 0x80418f <__data_end+0x1>
    1686:	04 c0       	rjmp	.+8      	; 0x1690 <Send_To_Server_0+0x52>
	else			  {CommCnt=0;}
    1688:	10 92 8e 41 	sts	0x418E, r1	; 0x80418e <__data_end>
    168c:	10 92 8f 41 	sts	0x418F, r1	; 0x80418f <__data_end+0x1>
//-------------------------------------------------------------------------------------------------
//		Serial Protocol Start
//-------------------------------------------------------------------------------------------------
	SerialData[cnt++] = STX_Iontec;						//  0 : STX_Iontec : 0xF0
    1690:	80 ef       	ldi	r24, 0xF0	; 240
    1692:	89 83       	std	Y+1, r24	; 0x01
	SerialData[cnt++] = CTL2PC;						//  1 : өҘАМЕН№жЗв
	SerialData[cnt++] = SORTING_MOVE;					//  2 : 21 АеәсұвБҫ : АМөҝЗь јұә°ұв(ЖчАҜАЪө·, әсА°ө·)
    1694:	85 e1       	ldi	r24, 0x15	; 21
    1696:	8b 83       	std	Y+3, r24	; 0x03
	SerialData[cnt++] = Cell_ID;						//  3 : Аеәсid (Cell_ID)
    1698:	80 91 02 51 	lds	r24, 0x5102	; 0x805102 <Cell_ID>
    169c:	8c 83       	std	Y+4, r24	; 0x04
	SerialData[cnt++] = CD_STATUS;						//  4 : 0 : ұёәРДЪөе (ҪЗҪГ°Ј»уЕВ БӨәё) 

	SerialData[cnt++] = FW_VER;						//  5 : Protocol Version 41
    169e:	8c e2       	ldi	r24, 0x2C	; 44
    16a0:	8e 83       	std	Y+6, r24	; 0x06
	SerialData[cnt++] = Gwid;						//  6 : GWID
    16a2:	80 91 6c 51 	lds	r24, 0x516C	; 0x80516c <Gwid>
    16a6:	8f 83       	std	Y+7, r24	; 0x07
	SerialData[cnt++] = 0x00;						//  7 : °іГјјш№ш
	SerialData[cnt++] = SAVE.AutoSet[CommCnt];				//  8 : АЪөҝ 1 / јцөҝ 0
    16a8:	80 91 8e 41 	lds	r24, 0x418E	; 0x80418e <__data_end>
    16ac:	90 91 8f 41 	lds	r25, 0x418F	; 0x80418f <__data_end+0x1>
    16b0:	fc 01       	movw	r30, r24
    16b2:	ea 53       	subi	r30, 0x3A	; 58
    16b4:	fe 4b       	sbci	r31, 0xBE	; 190
    16b6:	20 81       	ld	r18, Z
    16b8:	29 87       	std	Y+9, r18	; 0x09
	SerialData[cnt++] = 0x02;						//  9 : №«°Ф јТјцБЎ »зҝл:1, №«°Ф јТјцБЎ №М»зҝл:0, 10gҙЬА§:2
    16ba:	22 e0       	ldi	r18, 0x02	; 2
    16bc:	2a 87       	std	Y+10, r18	; 0x0a

	SerialData[cnt++] = SAVE.Count[CommCnt] / 256;				// 10 : ГшБӨИҪјц »уА§
    16be:	dc 01       	movw	r26, r24
    16c0:	aa 56       	subi	r26, 0x6A	; 106
    16c2:	bf 4f       	sbci	r27, 0xFF	; 255
    16c4:	aa 0f       	add	r26, r26
    16c6:	bb 1f       	adc	r27, r27
    16c8:	aa 53       	subi	r26, 0x3A	; 58
    16ca:	be 4b       	sbci	r27, 0xBE	; 190
    16cc:	2c 91       	ld	r18, X
    16ce:	11 96       	adiw	r26, 0x01	; 1
    16d0:	3c 91       	ld	r19, X
    16d2:	3b 87       	std	Y+11, r19	; 0x0b
	SerialData[cnt++] = SAVE.Count[CommCnt] % 256;				// 11 : ГшБӨИҪјц ЗПА§
    16d4:	2c 87       	std	Y+12, r18	; 0x0c
	SerialData[cnt++] = SAVE.Data[CommCnt] / 256;				// 12 : ГшБӨ№«°Ф [CommCnt] »уА§
    16d6:	dc 01       	movw	r26, r24
    16d8:	ae 53       	subi	r26, 0x3E	; 62
    16da:	be 4f       	sbci	r27, 0xFE	; 254
    16dc:	aa 0f       	add	r26, r26
    16de:	bb 1f       	adc	r27, r27
    16e0:	aa 53       	subi	r26, 0x3A	; 58
    16e2:	be 4b       	sbci	r27, 0xBE	; 190
    16e4:	2c 91       	ld	r18, X
    16e6:	11 96       	adiw	r26, 0x01	; 1
    16e8:	3c 91       	ld	r19, X
    16ea:	3d 87       	std	Y+13, r19	; 0x0d
	SerialData[cnt++] = SAVE.Data[CommCnt] % 256;				// 13 : ГшБӨ№«°Ф [CommCnt] ЗПА§
    16ec:	2e 87       	std	Y+14, r18	; 0x0e

	SerialData[cnt++] = SAVE.RoomNum[CommCnt];				// 14 : №ж №шИЈ
    16ee:	df 01       	movw	r26, r30
    16f0:	a4 52       	subi	r26, 0x24	; 36
    16f2:	ba 4f       	sbci	r27, 0xFA	; 250
    16f4:	2c 91       	ld	r18, X
    16f6:	2f 87       	std	Y+15, r18	; 0x0f
	SerialData[cnt++] = SAVE.StalNum[CommCnt];				// 15 : ҪәЕз №шИЈ
    16f8:	a4 5d       	subi	r26, 0xD4	; 212
    16fa:	be 4f       	sbci	r27, 0xFE	; 254
    16fc:	2c 91       	ld	r18, X
    16fe:	28 8b       	std	Y+16, r18	; 0x10

	SerialData[cnt++] = SAVE.Year[CommCnt];					// 16 : ГшБӨ ів [CommCnt]
    1700:	a4 5d       	subi	r26, 0xD4	; 212
    1702:	be 4f       	sbci	r27, 0xFE	; 254
    1704:	2c 91       	ld	r18, X
    1706:	29 8b       	std	Y+17, r18	; 0x11
	SerialData[cnt++] = SAVE.Month[CommCnt];				// 17 : ГшБӨ ҝщ [CommCnt]
    1708:	a4 5d       	subi	r26, 0xD4	; 212
    170a:	be 4f       	sbci	r27, 0xFE	; 254
    170c:	2c 91       	ld	r18, X
    170e:	2a 8b       	std	Y+18, r18	; 0x12
	SerialData[cnt++] = SAVE.Date[CommCnt];					// 18 : ГшБӨ АП [CommCnt]
    1710:	a4 5d       	subi	r26, 0xD4	; 212
    1712:	be 4f       	sbci	r27, 0xFE	; 254
    1714:	2c 91       	ld	r18, X
    1716:	2b 8b       	std	Y+19, r18	; 0x13
	SerialData[cnt++] = SAVE.Hour[CommCnt];					// 19 : ГшБӨ ҪГ [CommCnt]
    1718:	a4 5d       	subi	r26, 0xD4	; 212
    171a:	be 4f       	sbci	r27, 0xFE	; 254
    171c:	2c 91       	ld	r18, X
    171e:	2c 8b       	std	Y+20, r18	; 0x14
	SerialData[cnt++] = SAVE.Min[CommCnt];					// 20 : ГшБӨ әР [CommCnt]
    1720:	a4 5d       	subi	r26, 0xD4	; 212
    1722:	be 4f       	sbci	r27, 0xFE	; 254
    1724:	2c 91       	ld	r18, X
    1726:	2d 8b       	std	Y+21, r18	; 0x15
	SerialData[cnt++] = SAVE.Sec[CommCnt];					// 21 : ГшБӨ ГК [CommCnt]
    1728:	e0 5f       	subi	r30, 0xF0	; 240
    172a:	f1 4f       	sbci	r31, 0xF1	; 241
    172c:	20 81       	ld	r18, Z
    172e:	2e 8b       	std	Y+22, r18	; 0x16

	SerialData[cnt++] = CommCnt / 256;					// 22 : Data јш№ш »уА§
    1730:	9f 8b       	std	Y+23, r25	; 0x17
	SerialData[cnt++] = CommCnt % 256;					// 23 : Data јш№ш ЗПА§
    1732:	88 8f       	std	Y+24, r24	; 0x18
	SerialData[cnt++] = 0x00;						// 24 : ҝ№әс
	SerialData[cnt++] = 0x00;						// 25 : ҝ№әс
	SerialData[cnt++] = 0x00;						// 26 : ҝ№әс
	SerialData[cnt++] = 0x00;						// 27 : ҝ№әс

	for(uint8_t icnt2 = 1; icnt2 < cnt; icnt2++) {ChkSum += SerialData[icnt2];}	// ГјЕ©Ҫж °и»к
    1734:	81 e0       	ldi	r24, 0x01	; 1
//		PC·О өҘАМЕН АьјЫ (20°і ГшБӨГјБЯ Data)
//=================================================================================================
void Send_To_Server_0(void)							// PC·О өҘАМЕН АьјЫ (1Иё 1°іҫҝ АьјЫ : ГшБӨГјБЯ Data)
{
	uint8_t cnt = 0;							// cnt әҜјц ГКұвИӯ
	uint8_t ChkSum = 0;							// ChkSum әҜјц ГКұвИӯ
    1736:	90 e0       	ldi	r25, 0x00	; 0
	SerialData[cnt++] = 0x00;						// 24 : ҝ№әс
	SerialData[cnt++] = 0x00;						// 25 : ҝ№әс
	SerialData[cnt++] = 0x00;						// 26 : ҝ№әс
	SerialData[cnt++] = 0x00;						// 27 : ҝ№әс

	for(uint8_t icnt2 = 1; icnt2 < cnt; icnt2++) {ChkSum += SerialData[icnt2];}	// ГјЕ©Ҫж °и»к
    1738:	09 c0       	rjmp	.+18     	; 0x174c <Send_To_Server_0+0x10e>
    173a:	e1 e0       	ldi	r30, 0x01	; 1
    173c:	f0 e0       	ldi	r31, 0x00	; 0
    173e:	ec 0f       	add	r30, r28
    1740:	fd 1f       	adc	r31, r29
    1742:	e8 0f       	add	r30, r24
    1744:	f1 1d       	adc	r31, r1
    1746:	20 81       	ld	r18, Z
    1748:	92 0f       	add	r25, r18
    174a:	8f 5f       	subi	r24, 0xFF	; 255
    174c:	8c 31       	cpi	r24, 0x1C	; 28
    174e:	a8 f3       	brcs	.-22     	; 0x173a <Send_To_Server_0+0xfc>
	SerialData[cnt++] = ChkSum;						// 28 : ГјЕ©Ҫж
    1750:	9d 8f       	std	Y+29, r25	; 0x1d
	SerialData[cnt++] = ETX_Iontec;						// 29 : ETX_Iontec : 0xF1
    1752:	81 ef       	ldi	r24, 0xF1	; 241
    1754:	8e 8f       	std	Y+30, r24	; 0x1e
//-------------------------------------------------------------------------------------------------
//		Serial Protocol End
//-------------------------------------------------------------------------------------------------
	for(uint8_t j = 0; j < cnt; j++) {USART3_Write(SerialData[j]);}		// SerialData јцёёЕӯ јЫҪЕ
    1756:	10 e0       	ldi	r17, 0x00	; 0
    1758:	0a c0       	rjmp	.+20     	; 0x176e <Send_To_Server_0+0x130>
    175a:	e1 e0       	ldi	r30, 0x01	; 1
    175c:	f0 e0       	ldi	r31, 0x00	; 0
    175e:	ec 0f       	add	r30, r28
    1760:	fd 1f       	adc	r31, r29
    1762:	e1 0f       	add	r30, r17
    1764:	f1 1d       	adc	r31, r1
    1766:	80 81       	ld	r24, Z
    1768:	0e 94 9a 2d 	call	0x5b34	; 0x5b34 <USART3_Write>
    176c:	1f 5f       	subi	r17, 0xFF	; 255
    176e:	1e 31       	cpi	r17, 0x1E	; 30
    1770:	a0 f3       	brcs	.-24     	; 0x175a <Send_To_Server_0+0x11c>
}
    1772:	6e 96       	adiw	r28, 0x1e	; 30
    1774:	cd bf       	out	0x3d, r28	; 61
    1776:	de bf       	out	0x3e, r29	; 62
    1778:	df 91       	pop	r29
    177a:	cf 91       	pop	r28
    177c:	1f 91       	pop	r17
    177e:	08 95       	ret

00001780 <Send_To_Server_1>:

//=================================================================================================
//		PC·О өҘАМЕН АьјЫ (јіБӨБӨәё ҙдәҜ)
//=================================================================================================
void Send_To_Server_1(uint8_t Code)						// PC·О өҘАМЕН АьјЫ (јіБӨБӨәё ҙдәҜ)
{
    1780:	1f 93       	push	r17
    1782:	cf 93       	push	r28
    1784:	df 93       	push	r29
    1786:	cd b7       	in	r28, 0x3d	; 61
    1788:	de b7       	in	r29, 0x3e	; 62
    178a:	2a 97       	sbiw	r28, 0x0a	; 10
    178c:	cd bf       	out	0x3d, r28	; 61
    178e:	de bf       	out	0x3e, r29	; 62
	uint8_t cnt = 0;							// cnt әҜјц ГКұвИӯ
	uint8_t ChkSum = 0;							// ChkSum әҜјц ГКұвИӯ
	char SerialData[10] = {};						// SerialData[10] №цЖЫ јұҫр
    1790:	9a e0       	ldi	r25, 0x0A	; 10
    1792:	fe 01       	movw	r30, r28
    1794:	31 96       	adiw	r30, 0x01	; 1
    1796:	df 01       	movw	r26, r30
    1798:	29 2f       	mov	r18, r25
    179a:	1d 92       	st	X+, r1
    179c:	2a 95       	dec	r18
    179e:	e9 f7       	brne	.-6      	; 0x179a <Send_To_Server_1+0x1a>
	memset(SerialData, 0x00, sizeof(SerialData));				// №цЖЫ ГКұвИӯ
    17a0:	df 01       	movw	r26, r30
    17a2:	1d 92       	st	X+, r1
    17a4:	9a 95       	dec	r25
    17a6:	e9 f7       	brne	.-6      	; 0x17a2 <Send_To_Server_1+0x22>
//-------------------------------------------------------------------------------------------------
//		Serial Protocol Start
//-------------------------------------------------------------------------------------------------
	SerialData[cnt++] = STX_Iontec;						// 0 : STX_Iontec : 0xF0
    17a8:	90 ef       	ldi	r25, 0xF0	; 240
    17aa:	99 83       	std	Y+1, r25	; 0x01
	SerialData[cnt++] = CTL2PC;						// 1 : өҘАМЕН№жЗв
	SerialData[cnt++] = SORTING_MOVE;					// 2 : 21 АеәсұвБҫ : АМөҝЗь јұә°ұв(ЖчАҜАЪө·, әсА°ө·)
    17ac:	95 e1       	ldi	r25, 0x15	; 21
    17ae:	9b 83       	std	Y+3, r25	; 0x03
	SerialData[cnt++] = Cell_ID;						// 3 : Аеәсid (Cell_ID)
    17b0:	90 91 02 51 	lds	r25, 0x5102	; 0x805102 <Cell_ID>
    17b4:	9c 83       	std	Y+4, r25	; 0x04
	SerialData[cnt++] = Code;						// 4 : ұёәРДЪөе
    17b6:	8d 83       	std	Y+5, r24	; 0x05

	SerialData[cnt++] = FW_VER;						// 5 : Protocol Version
    17b8:	8c e2       	ldi	r24, 0x2C	; 44
    17ba:	8e 83       	std	Y+6, r24	; 0x06
	SerialData[cnt++] = Gwid;						// 6 : GWID
    17bc:	80 91 6c 51 	lds	r24, 0x516C	; 0x80516c <Gwid>
    17c0:	8f 83       	std	Y+7, r24	; 0x07
	SerialData[cnt++] = 0x00;						// 7 : ҝ№әс
	for(uint8_t icnt2 = 1; icnt2 < cnt; icnt2++) {ChkSum += SerialData[icnt2];}	// ГјЕ©Ҫж °и»к
    17c2:	81 e0       	ldi	r24, 0x01	; 1
//		PC·О өҘАМЕН АьјЫ (јіБӨБӨәё ҙдәҜ)
//=================================================================================================
void Send_To_Server_1(uint8_t Code)						// PC·О өҘАМЕН АьјЫ (јіБӨБӨәё ҙдәҜ)
{
	uint8_t cnt = 0;							// cnt әҜјц ГКұвИӯ
	uint8_t ChkSum = 0;							// ChkSum әҜјц ГКұвИӯ
    17c4:	90 e0       	ldi	r25, 0x00	; 0
	SerialData[cnt++] = Code;						// 4 : ұёәРДЪөе

	SerialData[cnt++] = FW_VER;						// 5 : Protocol Version
	SerialData[cnt++] = Gwid;						// 6 : GWID
	SerialData[cnt++] = 0x00;						// 7 : ҝ№әс
	for(uint8_t icnt2 = 1; icnt2 < cnt; icnt2++) {ChkSum += SerialData[icnt2];}	// ГјЕ©Ҫж °и»к
    17c6:	09 c0       	rjmp	.+18     	; 0x17da <Send_To_Server_1+0x5a>
    17c8:	e1 e0       	ldi	r30, 0x01	; 1
    17ca:	f0 e0       	ldi	r31, 0x00	; 0
    17cc:	ec 0f       	add	r30, r28
    17ce:	fd 1f       	adc	r31, r29
    17d0:	e8 0f       	add	r30, r24
    17d2:	f1 1d       	adc	r31, r1
    17d4:	20 81       	ld	r18, Z
    17d6:	92 0f       	add	r25, r18
    17d8:	8f 5f       	subi	r24, 0xFF	; 255
    17da:	88 30       	cpi	r24, 0x08	; 8
    17dc:	a8 f3       	brcs	.-22     	; 0x17c8 <Send_To_Server_1+0x48>
	SerialData[cnt++] = ChkSum;						// 8 : ГјЕ©Ҫж
    17de:	99 87       	std	Y+9, r25	; 0x09
	SerialData[cnt++] = ETX_Iontec;						// 9 : ETX_Iontec : 0xF1
    17e0:	81 ef       	ldi	r24, 0xF1	; 241
    17e2:	8a 87       	std	Y+10, r24	; 0x0a
//-------------------------------------------------------------------------------------------------
//		Serial Protocol End
//-------------------------------------------------------------------------------------------------
	for(uint8_t j = 0; j < cnt; j++) {USART3_Write(SerialData[j]);}		// SerialData јцёёЕӯ јЫҪЕ
    17e4:	10 e0       	ldi	r17, 0x00	; 0
    17e6:	0a c0       	rjmp	.+20     	; 0x17fc <Send_To_Server_1+0x7c>
    17e8:	e1 e0       	ldi	r30, 0x01	; 1
    17ea:	f0 e0       	ldi	r31, 0x00	; 0
    17ec:	ec 0f       	add	r30, r28
    17ee:	fd 1f       	adc	r31, r29
    17f0:	e1 0f       	add	r30, r17
    17f2:	f1 1d       	adc	r31, r1
    17f4:	80 81       	ld	r24, Z
    17f6:	0e 94 9a 2d 	call	0x5b34	; 0x5b34 <USART3_Write>
    17fa:	1f 5f       	subi	r17, 0xFF	; 255
    17fc:	1a 30       	cpi	r17, 0x0A	; 10
    17fe:	a0 f3       	brcs	.-24     	; 0x17e8 <Send_To_Server_1+0x68>
}
    1800:	2a 96       	adiw	r28, 0x0a	; 10
    1802:	cd bf       	out	0x3d, r28	; 61
    1804:	de bf       	out	0x3e, r29	; 62
    1806:	df 91       	pop	r29
    1808:	cf 91       	pop	r28
    180a:	1f 91       	pop	r17
    180c:	08 95       	ret

0000180e <Receiv_PC>:

//=================================================================================================
//		PC·О әОЕН өҘАМЕНјцҪЕ
//=================================================================================================
void Receiv_PC(void)								// PC·О әОЕН өҘАМЕНјцҪЕ
{
    180e:	ef 92       	push	r14
    1810:	ff 92       	push	r15
    1812:	0f 93       	push	r16
    1814:	1f 93       	push	r17
    1816:	cf 93       	push	r28
    1818:	df 93       	push	r29
	uint8_t cnt1;								// cnt1 әҜјц ГКұвИӯ
	uint8_t ChkSum = 0;							// ChkSum әҜјц ГКұвИӯ
	uint16_t IN_S;								// АФұё ГјБЯ әҜјц

	for(uint8_t cnt = 0; cnt < RX3_SIZE; cnt++)				// RX3_SIZE ёёЕӯ №Эә№
    181a:	c0 e0       	ldi	r28, 0x00	; 0
    181c:	63 c1       	rjmp	.+710    	; 0x1ae4 <Receiv_PC+0x2d6>
	{
		if(Rx3_Buff[cnt] == STX_Iontec && Rx3_Buff[cnt + 1] == PC2CTL && Rx3_Buff[cnt + 2] == 0x01 && Rx3_Buff[cnt + 4] == 0 && Rx3_Buff[cnt + 9] == ETX_Iontec)
    181e:	0c 2f       	mov	r16, r28
    1820:	10 e0       	ldi	r17, 0x00	; 0
    1822:	f8 01       	movw	r30, r16
    1824:	ee 55       	subi	r30, 0x5E	; 94
    1826:	fe 4a       	sbci	r31, 0xAE	; 174
    1828:	80 81       	ld	r24, Z
    182a:	80 3f       	cpi	r24, 0xF0	; 240
    182c:	09 f0       	breq	.+2      	; 0x1830 <Receiv_PC+0x22>
    182e:	52 c0       	rjmp	.+164    	; 0x18d4 <Receiv_PC+0xc6>
    1830:	f8 01       	movw	r30, r16
    1832:	ed 55       	subi	r30, 0x5D	; 93
    1834:	fe 4a       	sbci	r31, 0xAE	; 174
    1836:	90 81       	ld	r25, Z
    1838:	91 30       	cpi	r25, 0x01	; 1
    183a:	09 f0       	breq	.+2      	; 0x183e <Receiv_PC+0x30>
    183c:	4b c0       	rjmp	.+150    	; 0x18d4 <Receiv_PC+0xc6>
    183e:	f8 01       	movw	r30, r16
    1840:	ec 55       	subi	r30, 0x5C	; 92
    1842:	fe 4a       	sbci	r31, 0xAE	; 174
    1844:	90 81       	ld	r25, Z
    1846:	91 30       	cpi	r25, 0x01	; 1
    1848:	09 f0       	breq	.+2      	; 0x184c <Receiv_PC+0x3e>
    184a:	44 c0       	rjmp	.+136    	; 0x18d4 <Receiv_PC+0xc6>
    184c:	f8 01       	movw	r30, r16
    184e:	ea 55       	subi	r30, 0x5A	; 90
    1850:	fe 4a       	sbci	r31, 0xAE	; 174
    1852:	90 81       	ld	r25, Z
    1854:	91 11       	cpse	r25, r1
    1856:	3e c0       	rjmp	.+124    	; 0x18d4 <Receiv_PC+0xc6>
    1858:	f8 01       	movw	r30, r16
    185a:	e5 55       	subi	r30, 0x55	; 85
    185c:	fe 4a       	sbci	r31, 0xAE	; 174
    185e:	90 81       	ld	r25, Z
    1860:	91 3f       	cpi	r25, 0xF1	; 241
    1862:	c1 f5       	brne	.+112    	; 0x18d4 <Receiv_PC+0xc6>
		{//			STX			       PC2CTL			     јұә°ұв			ҪЗҪГ°ЈБӨәё			ETX
			Rx_LED_ON;						// RX LED ON
    1864:	e4 e2       	ldi	r30, 0x24	; 36
    1866:	f4 e0       	ldi	r31, 0x04	; 4
    1868:	80 81       	ld	r24, Z
    186a:	88 60       	ori	r24, 0x08	; 8
    186c:	80 83       	st	Z, r24
			ChkSum = 0;						// ChkSum ГКұвИӯ
    186e:	90 e0       	ldi	r25, 0x00	; 0

			for(cnt1 = 1; cnt1 < 8; cnt1++) {ChkSum += Rx3_Buff[cnt + cnt1];}	// ГјЕ©Ҫж °и»к
    1870:	81 e0       	ldi	r24, 0x01	; 1
    1872:	08 c0       	rjmp	.+16     	; 0x1884 <Receiv_PC+0x76>
    1874:	f8 01       	movw	r30, r16
    1876:	e8 0f       	add	r30, r24
    1878:	f1 1d       	adc	r31, r1
    187a:	ee 55       	subi	r30, 0x5E	; 94
    187c:	fe 4a       	sbci	r31, 0xAE	; 174
    187e:	20 81       	ld	r18, Z
    1880:	92 0f       	add	r25, r18
    1882:	8f 5f       	subi	r24, 0xFF	; 255
    1884:	88 30       	cpi	r24, 0x08	; 8
    1886:	b0 f3       	brcs	.-20     	; 0x1874 <Receiv_PC+0x66>

			if(ChkSum == Rx3_Buff[cnt + 8])				// ГјЕ©Ҫж И®АО
    1888:	f8 01       	movw	r30, r16
    188a:	e6 55       	subi	r30, 0x56	; 86
    188c:	fe 4a       	sbci	r31, 0xAE	; 174
    188e:	80 81       	ld	r24, Z
    1890:	98 13       	cpse	r25, r24
    1892:	18 c0       	rjmp	.+48     	; 0x18c4 <Receiv_PC+0xb6>
			{
				if(Rx3_Buff[cnt + 3] == Cell_ID)		// ID 1№ш АМёй
    1894:	f8 01       	movw	r30, r16
    1896:	eb 55       	subi	r30, 0x5B	; 91
    1898:	fe 4a       	sbci	r31, 0xAE	; 174
    189a:	90 81       	ld	r25, Z
    189c:	80 91 02 51 	lds	r24, 0x5102	; 0x805102 <Cell_ID>
    18a0:	98 13       	cpse	r25, r24
    18a2:	10 c0       	rjmp	.+32     	; 0x18c4 <Receiv_PC+0xb6>
				{						// ҪЗҪГ°Ј БӨәё
					Tx_LED_ON;				// TX LED ON
    18a4:	c4 e2       	ldi	r28, 0x24	; 36
    18a6:	d4 e0       	ldi	r29, 0x04	; 4
    18a8:	88 81       	ld	r24, Y
    18aa:	84 60       	ori	r24, 0x04	; 4
    18ac:	88 83       	st	Y, r24
					Send_To_Server_0();			// №«°Ф Data PC·О АьјЫ
    18ae:	0e 94 1f 0b 	call	0x163e	; 0x163e <Send_To_Server_0>
    18b2:	8c ec       	ldi	r24, 0xCC	; 204
    18b4:	9c e1       	ldi	r25, 0x1C	; 28
    18b6:	01 97       	sbiw	r24, 0x01	; 1
    18b8:	f1 f7       	brne	.-4      	; 0x18b6 <Receiv_PC+0xa8>
    18ba:	00 c0       	rjmp	.+0      	; 0x18bc <Receiv_PC+0xae>
    18bc:	00 00       	nop
					_delay_ms(2);
					Tx_LED_OFF;				// TX LED OFF
    18be:	88 81       	ld	r24, Y
    18c0:	8b 7f       	andi	r24, 0xFB	; 251
    18c2:	88 83       	st	Y, r24
				}
			}
			Rx3_Buff_Clear();					// Rx3 Buff Clear
    18c4:	0e 94 c1 2d 	call	0x5b82	; 0x5b82 <Rx3_Buff_Clear>
			Rx_LED_OFF;						// RX LED OFF
    18c8:	e4 e2       	ldi	r30, 0x24	; 36
    18ca:	f4 e0       	ldi	r31, 0x04	; 4
    18cc:	80 81       	ld	r24, Z
    18ce:	87 7f       	andi	r24, 0xF7	; 247
    18d0:	80 83       	st	Z, r24
			break;							// for №® әьБ® іӘ°Ўұв
    18d2:	0b c1       	rjmp	.+534    	; 0x1aea <Receiv_PC+0x2dc>
		}

		else if(Rx3_Buff[cnt] == STX_Iontec && Rx3_Buff[cnt + 1] == PC2CTL && Rx3_Buff[cnt + 4] == 9 && Rx3_Buff[cnt + 15] == ETX_Iontec)
    18d4:	80 3f       	cpi	r24, 0xF0	; 240
    18d6:	09 f0       	breq	.+2      	; 0x18da <Receiv_PC+0xcc>
    18d8:	a1 c0       	rjmp	.+322    	; 0x1a1c <Receiv_PC+0x20e>
    18da:	f8 01       	movw	r30, r16
    18dc:	ed 55       	subi	r30, 0x5D	; 93
    18de:	fe 4a       	sbci	r31, 0xAE	; 174
    18e0:	90 81       	ld	r25, Z
    18e2:	91 30       	cpi	r25, 0x01	; 1
    18e4:	09 f0       	breq	.+2      	; 0x18e8 <Receiv_PC+0xda>
    18e6:	9a c0       	rjmp	.+308    	; 0x1a1c <Receiv_PC+0x20e>
    18e8:	f8 01       	movw	r30, r16
    18ea:	ea 55       	subi	r30, 0x5A	; 90
    18ec:	fe 4a       	sbci	r31, 0xAE	; 174
    18ee:	90 81       	ld	r25, Z
    18f0:	99 30       	cpi	r25, 0x09	; 9
    18f2:	09 f0       	breq	.+2      	; 0x18f6 <Receiv_PC+0xe8>
    18f4:	93 c0       	rjmp	.+294    	; 0x1a1c <Receiv_PC+0x20e>
    18f6:	f8 01       	movw	r30, r16
    18f8:	ef 54       	subi	r30, 0x4F	; 79
    18fa:	fe 4a       	sbci	r31, 0xAE	; 174
    18fc:	90 81       	ld	r25, Z
    18fe:	91 3f       	cpi	r25, 0xF1	; 241
    1900:	09 f0       	breq	.+2      	; 0x1904 <Receiv_PC+0xf6>
    1902:	8c c0       	rjmp	.+280    	; 0x1a1c <Receiv_PC+0x20e>
		{//			    STX				    PC2CTL		    ҪГ°ЈБӨәёәҜ°ж			        ETX
			Rx_LED_ON;						// RX LED ON
    1904:	e4 e2       	ldi	r30, 0x24	; 36
    1906:	f4 e0       	ldi	r31, 0x04	; 4
    1908:	80 81       	ld	r24, Z
    190a:	88 60       	ori	r24, 0x08	; 8
    190c:	80 83       	st	Z, r24
			ChkSum = 0;						// ChkSum ГКұвИӯ
    190e:	90 e0       	ldi	r25, 0x00	; 0

			for(cnt1 = 1; cnt1 < 14; cnt1++) {ChkSum += Rx3_Buff[cnt + cnt1];}	// ГјЕ©Ҫж °и»к
    1910:	81 e0       	ldi	r24, 0x01	; 1
    1912:	08 c0       	rjmp	.+16     	; 0x1924 <Receiv_PC+0x116>
    1914:	f8 01       	movw	r30, r16
    1916:	e8 0f       	add	r30, r24
    1918:	f1 1d       	adc	r31, r1
    191a:	ee 55       	subi	r30, 0x5E	; 94
    191c:	fe 4a       	sbci	r31, 0xAE	; 174
    191e:	20 81       	ld	r18, Z
    1920:	92 0f       	add	r25, r18
    1922:	8f 5f       	subi	r24, 0xFF	; 255
    1924:	8e 30       	cpi	r24, 0x0E	; 14
    1926:	b0 f3       	brcs	.-20     	; 0x1914 <Receiv_PC+0x106>

			if(ChkSum == Rx3_Buff[cnt + 14])			// ГјЕ©Ҫж И®АО
    1928:	f8 01       	movw	r30, r16
    192a:	e0 55       	subi	r30, 0x50	; 80
    192c:	fe 4a       	sbci	r31, 0xAE	; 174
    192e:	80 81       	ld	r24, Z
    1930:	98 13       	cpse	r25, r24
    1932:	6c c0       	rjmp	.+216    	; 0x1a0c <Receiv_PC+0x1fe>
			{
				RTC_Time_Write(RTC_YEAR,  ((Rx3_Buff[cnt+ 8]&0xF0)>>4)*10+(Rx3_Buff[cnt+ 8]&0x0F));	// RTC ҝЎ ів АъАе
    1934:	f8 01       	movw	r30, r16
    1936:	e6 55       	subi	r30, 0x56	; 86
    1938:	fe 4a       	sbci	r31, 0xAE	; 174
    193a:	80 81       	ld	r24, Z
    193c:	98 2f       	mov	r25, r24
    193e:	92 95       	swap	r25
    1940:	9f 70       	andi	r25, 0x0F	; 15
    1942:	99 0f       	add	r25, r25
    1944:	69 2f       	mov	r22, r25
    1946:	66 0f       	add	r22, r22
    1948:	66 0f       	add	r22, r22
    194a:	96 0f       	add	r25, r22
    194c:	8f 70       	andi	r24, 0x0F	; 15
    194e:	69 2f       	mov	r22, r25
    1950:	68 0f       	add	r22, r24
    1952:	86 e0       	ldi	r24, 0x06	; 6
    1954:	0e 94 e9 29 	call	0x53d2	; 0x53d2 <RTC_Time_Write>
				RTC_Time_Write(RTC_MONTH, ((Rx3_Buff[cnt+ 9]&0xF0)>>4)*10+(Rx3_Buff[cnt+ 9]&0x0F));	// RTC ҝЎ ҝщ АъАе
    1958:	f8 01       	movw	r30, r16
    195a:	e5 55       	subi	r30, 0x55	; 85
    195c:	fe 4a       	sbci	r31, 0xAE	; 174
    195e:	80 81       	ld	r24, Z
    1960:	98 2f       	mov	r25, r24
    1962:	92 95       	swap	r25
    1964:	9f 70       	andi	r25, 0x0F	; 15
    1966:	99 0f       	add	r25, r25
    1968:	69 2f       	mov	r22, r25
    196a:	66 0f       	add	r22, r22
    196c:	66 0f       	add	r22, r22
    196e:	96 0f       	add	r25, r22
    1970:	8f 70       	andi	r24, 0x0F	; 15
    1972:	69 2f       	mov	r22, r25
    1974:	68 0f       	add	r22, r24
    1976:	85 e0       	ldi	r24, 0x05	; 5
    1978:	0e 94 e9 29 	call	0x53d2	; 0x53d2 <RTC_Time_Write>
				RTC_Time_Write(RTC_DATE,  ((Rx3_Buff[cnt+10]&0xF0)>>4)*10+(Rx3_Buff[cnt+10]&0x0F));	// RTC ҝЎ АП АъАе
    197c:	f8 01       	movw	r30, r16
    197e:	e4 55       	subi	r30, 0x54	; 84
    1980:	fe 4a       	sbci	r31, 0xAE	; 174
    1982:	80 81       	ld	r24, Z
    1984:	98 2f       	mov	r25, r24
    1986:	92 95       	swap	r25
    1988:	9f 70       	andi	r25, 0x0F	; 15
    198a:	99 0f       	add	r25, r25
    198c:	69 2f       	mov	r22, r25
    198e:	66 0f       	add	r22, r22
    1990:	66 0f       	add	r22, r22
    1992:	96 0f       	add	r25, r22
    1994:	8f 70       	andi	r24, 0x0F	; 15
    1996:	69 2f       	mov	r22, r25
    1998:	68 0f       	add	r22, r24
    199a:	84 e0       	ldi	r24, 0x04	; 4
    199c:	0e 94 e9 29 	call	0x53d2	; 0x53d2 <RTC_Time_Write>
				RTC_Time_Write(RTC_HOUR,  ((Rx3_Buff[cnt+11]&0xF0)>>4)*10+(Rx3_Buff[cnt+11]&0x0F));	// RTC ҝЎ ҪГ АъАе
    19a0:	f8 01       	movw	r30, r16
    19a2:	e3 55       	subi	r30, 0x53	; 83
    19a4:	fe 4a       	sbci	r31, 0xAE	; 174
    19a6:	80 81       	ld	r24, Z
    19a8:	98 2f       	mov	r25, r24
    19aa:	92 95       	swap	r25
    19ac:	9f 70       	andi	r25, 0x0F	; 15
    19ae:	99 0f       	add	r25, r25
    19b0:	69 2f       	mov	r22, r25
    19b2:	66 0f       	add	r22, r22
    19b4:	66 0f       	add	r22, r22
    19b6:	96 0f       	add	r25, r22
    19b8:	8f 70       	andi	r24, 0x0F	; 15
    19ba:	69 2f       	mov	r22, r25
    19bc:	68 0f       	add	r22, r24
    19be:	82 e0       	ldi	r24, 0x02	; 2
    19c0:	0e 94 e9 29 	call	0x53d2	; 0x53d2 <RTC_Time_Write>
				RTC_Time_Write(RTC_MINUTE,((Rx3_Buff[cnt+12]&0xF0)>>4)*10+(Rx3_Buff[cnt+12]&0x0F));	// RTC ҝЎ әР АъАе
    19c4:	f8 01       	movw	r30, r16
    19c6:	e2 55       	subi	r30, 0x52	; 82
    19c8:	fe 4a       	sbci	r31, 0xAE	; 174
    19ca:	80 81       	ld	r24, Z
    19cc:	98 2f       	mov	r25, r24
    19ce:	92 95       	swap	r25
    19d0:	9f 70       	andi	r25, 0x0F	; 15
    19d2:	99 0f       	add	r25, r25
    19d4:	69 2f       	mov	r22, r25
    19d6:	66 0f       	add	r22, r22
    19d8:	66 0f       	add	r22, r22
    19da:	96 0f       	add	r25, r22
    19dc:	8f 70       	andi	r24, 0x0F	; 15
    19de:	69 2f       	mov	r22, r25
    19e0:	68 0f       	add	r22, r24
    19e2:	81 e0       	ldi	r24, 0x01	; 1
    19e4:	0e 94 e9 29 	call	0x53d2	; 0x53d2 <RTC_Time_Write>
				RTC_Time_Write(RTC_SECOND,((Rx3_Buff[cnt+13]&0xF0)>>4)*10+(Rx3_Buff[cnt+13]&0x0F));	// RTC ҝЎ ГК АъАе
    19e8:	f8 01       	movw	r30, r16
    19ea:	e1 55       	subi	r30, 0x51	; 81
    19ec:	fe 4a       	sbci	r31, 0xAE	; 174
    19ee:	80 81       	ld	r24, Z
    19f0:	98 2f       	mov	r25, r24
    19f2:	92 95       	swap	r25
    19f4:	9f 70       	andi	r25, 0x0F	; 15
    19f6:	99 0f       	add	r25, r25
    19f8:	69 2f       	mov	r22, r25
    19fa:	66 0f       	add	r22, r22
    19fc:	66 0f       	add	r22, r22
    19fe:	96 0f       	add	r25, r22
    1a00:	8f 70       	andi	r24, 0x0F	; 15
    1a02:	69 2f       	mov	r22, r25
    1a04:	68 0f       	add	r22, r24
    1a06:	80 e0       	ldi	r24, 0x00	; 0
    1a08:	0e 94 e9 29 	call	0x53d2	; 0x53d2 <RTC_Time_Write>
			}
			Rx3_Buff_Clear();					// Rx3 Buff Clear
    1a0c:	0e 94 c1 2d 	call	0x5b82	; 0x5b82 <Rx3_Buff_Clear>
			Rx_LED_OFF;						// RX LED OFF
    1a10:	e4 e2       	ldi	r30, 0x24	; 36
    1a12:	f4 e0       	ldi	r31, 0x04	; 4
    1a14:	80 81       	ld	r24, Z
    1a16:	87 7f       	andi	r24, 0xF7	; 247
    1a18:	80 83       	st	Z, r24
			break;							// for №® әьБ® іӘ°Ўұв
    1a1a:	67 c0       	rjmp	.+206    	; 0x1aea <Receiv_PC+0x2dc>
		}

		else if(Rx3_Buff[cnt] == STX_Iontec && Rx3_Buff[cnt + 1] == PC2CTL && Rx3_Buff[cnt + 2] == 0x01 && Rx3_Buff[cnt + 4] == 7 && Rx3_Buff[cnt + 31] == ETX_Iontec)
    1a1c:	80 3f       	cpi	r24, 0xF0	; 240
    1a1e:	09 f0       	breq	.+2      	; 0x1a22 <Receiv_PC+0x214>
    1a20:	60 c0       	rjmp	.+192    	; 0x1ae2 <Receiv_PC+0x2d4>
    1a22:	f8 01       	movw	r30, r16
    1a24:	ed 55       	subi	r30, 0x5D	; 93
    1a26:	fe 4a       	sbci	r31, 0xAE	; 174
    1a28:	80 81       	ld	r24, Z
    1a2a:	81 30       	cpi	r24, 0x01	; 1
    1a2c:	09 f0       	breq	.+2      	; 0x1a30 <Receiv_PC+0x222>
    1a2e:	59 c0       	rjmp	.+178    	; 0x1ae2 <Receiv_PC+0x2d4>
    1a30:	f8 01       	movw	r30, r16
    1a32:	ec 55       	subi	r30, 0x5C	; 92
    1a34:	fe 4a       	sbci	r31, 0xAE	; 174
    1a36:	80 81       	ld	r24, Z
    1a38:	81 30       	cpi	r24, 0x01	; 1
    1a3a:	09 f0       	breq	.+2      	; 0x1a3e <Receiv_PC+0x230>
    1a3c:	52 c0       	rjmp	.+164    	; 0x1ae2 <Receiv_PC+0x2d4>
    1a3e:	78 01       	movw	r14, r16
    1a40:	94 e0       	ldi	r25, 0x04	; 4
    1a42:	e9 0e       	add	r14, r25
    1a44:	f1 1c       	adc	r15, r1
    1a46:	f7 01       	movw	r30, r14
    1a48:	ee 55       	subi	r30, 0x5E	; 94
    1a4a:	fe 4a       	sbci	r31, 0xAE	; 174
    1a4c:	80 81       	ld	r24, Z
    1a4e:	87 30       	cpi	r24, 0x07	; 7
    1a50:	09 f0       	breq	.+2      	; 0x1a54 <Receiv_PC+0x246>
    1a52:	47 c0       	rjmp	.+142    	; 0x1ae2 <Receiv_PC+0x2d4>
    1a54:	f8 01       	movw	r30, r16
    1a56:	ef 53       	subi	r30, 0x3F	; 63
    1a58:	fe 4a       	sbci	r31, 0xAE	; 174
    1a5a:	80 81       	ld	r24, Z
    1a5c:	81 3f       	cpi	r24, 0xF1	; 241
    1a5e:	09 f0       	breq	.+2      	; 0x1a62 <Receiv_PC+0x254>
    1a60:	40 c0       	rjmp	.+128    	; 0x1ae2 <Receiv_PC+0x2d4>
		{//			     STX			    PC2CTL			  јұә°ұв		јіБӨБӨәё(АФұёГјБЯ)		       ETX
			Rx_LED_ON;							// RX LED ON
    1a62:	e4 e2       	ldi	r30, 0x24	; 36
    1a64:	f4 e0       	ldi	r31, 0x04	; 4
    1a66:	80 81       	ld	r24, Z
    1a68:	88 60       	ori	r24, 0x08	; 8
    1a6a:	80 83       	st	Z, r24
			ChkSum = 0;							// ChkSum ГКұвИӯ
    1a6c:	90 e0       	ldi	r25, 0x00	; 0

			for(cnt1 = 1; cnt1 < 30; cnt1++) {ChkSum += Rx3_Buff[cnt + cnt1];}	// ГјЕ©Ҫж °и»к
    1a6e:	81 e0       	ldi	r24, 0x01	; 1
    1a70:	08 c0       	rjmp	.+16     	; 0x1a82 <Receiv_PC+0x274>
    1a72:	f8 01       	movw	r30, r16
    1a74:	e8 0f       	add	r30, r24
    1a76:	f1 1d       	adc	r31, r1
    1a78:	ee 55       	subi	r30, 0x5E	; 94
    1a7a:	fe 4a       	sbci	r31, 0xAE	; 174
    1a7c:	20 81       	ld	r18, Z
    1a7e:	92 0f       	add	r25, r18
    1a80:	8f 5f       	subi	r24, 0xFF	; 255
    1a82:	8e 31       	cpi	r24, 0x1E	; 30
    1a84:	b0 f3       	brcs	.-20     	; 0x1a72 <Receiv_PC+0x264>

			if(ChkSum == Rx3_Buff[cnt + 30])				// ГјЕ©Ҫж И®АО
    1a86:	f8 01       	movw	r30, r16
    1a88:	e0 54       	subi	r30, 0x40	; 64
    1a8a:	fe 4a       	sbci	r31, 0xAE	; 174
    1a8c:	80 81       	ld	r24, Z
    1a8e:	98 13       	cpse	r25, r24
    1a90:	28 c0       	rjmp	.+80     	; 0x1ae2 <Receiv_PC+0x2d4>
			{
				IN_S = Rx3_Buff[cnt + 8] << 8 & Rx3_Buff[cnt + 8];	// АФұёГјБЯ °Ә әҜИҜ
    1a92:	60 e0       	ldi	r22, 0x00	; 0
    1a94:	70 e0       	ldi	r23, 0x00	; 0

				if(Rx3_Buff[cnt + 3] == Cell_ID)			// Cell ID 1№ш АМёй
    1a96:	f8 01       	movw	r30, r16
    1a98:	eb 55       	subi	r30, 0x5B	; 91
    1a9a:	fe 4a       	sbci	r31, 0xAE	; 174
    1a9c:	90 81       	ld	r25, Z
    1a9e:	80 91 02 51 	lds	r24, 0x5102	; 0x805102 <Cell_ID>
    1aa2:	98 13       	cpse	r25, r24
    1aa4:	1e c0       	rjmp	.+60     	; 0x1ae2 <Receiv_PC+0x2d4>
				{
					IN_Scales = IN_S;				// АФұёГјБЯ °ӘА» ·Оөејҝ 1№шҝЎ Аыҝл
    1aa6:	60 93 21 51 	sts	0x5121, r22	; 0x805121 <IN_Scales>
    1aaa:	70 93 22 51 	sts	0x5122, r23	; 0x805122 <IN_Scales+0x1>
					ee_write_word(Cell_IN_S_Addr, IN_S);		// АФұёГјБЯ °ӘА» EEPROMҝЎ АъАе
    1aae:	8a e0       	ldi	r24, 0x0A	; 10
    1ab0:	90 e0       	ldi	r25, 0x00	; 0
    1ab2:	0e 94 4c 13 	call	0x2698	; 0x2698 <ee_write_word>
					Tx_LED_ON;					// TX LED ON
    1ab6:	04 e2       	ldi	r16, 0x24	; 36
    1ab8:	14 e0       	ldi	r17, 0x04	; 4
    1aba:	f8 01       	movw	r30, r16
    1abc:	80 81       	ld	r24, Z
    1abe:	84 60       	ori	r24, 0x04	; 4
    1ac0:	80 83       	st	Z, r24
					Send_To_Server_1(Rx3_Buff[cnt + 4]);		// јіБӨБӨәё PC·О АьјЫ
    1ac2:	f7 01       	movw	r30, r14
    1ac4:	ee 55       	subi	r30, 0x5E	; 94
    1ac6:	fe 4a       	sbci	r31, 0xAE	; 174
    1ac8:	80 81       	ld	r24, Z
    1aca:	0e 94 c0 0b 	call	0x1780	; 0x1780 <Send_To_Server_1>
    1ace:	8c ec       	ldi	r24, 0xCC	; 204
    1ad0:	9c e1       	ldi	r25, 0x1C	; 28
    1ad2:	01 97       	sbiw	r24, 0x01	; 1
    1ad4:	f1 f7       	brne	.-4      	; 0x1ad2 <Receiv_PC+0x2c4>
    1ad6:	00 c0       	rjmp	.+0      	; 0x1ad8 <Receiv_PC+0x2ca>
    1ad8:	00 00       	nop
					_delay_ms(2);
					Tx_LED_OFF;					// TX LED OFF
    1ada:	f8 01       	movw	r30, r16
    1adc:	80 81       	ld	r24, Z
    1ade:	8b 7f       	andi	r24, 0xFB	; 251
    1ae0:	80 83       	st	Z, r24
{
	uint8_t cnt1;								// cnt1 әҜјц ГКұвИӯ
	uint8_t ChkSum = 0;							// ChkSum әҜјц ГКұвИӯ
	uint16_t IN_S;								// АФұё ГјБЯ әҜјц

	for(uint8_t cnt = 0; cnt < RX3_SIZE; cnt++)				// RX3_SIZE ёёЕӯ №Эә№
    1ae2:	cf 5f       	subi	r28, 0xFF	; 255
    1ae4:	ca 3f       	cpi	r28, 0xFA	; 250
    1ae6:	08 f4       	brcc	.+2      	; 0x1aea <Receiv_PC+0x2dc>
    1ae8:	9a ce       	rjmp	.-716    	; 0x181e <Receiv_PC+0x10>
					Tx_LED_OFF;					// TX LED OFF
				}
			}
		}
	}
}
    1aea:	df 91       	pop	r29
    1aec:	cf 91       	pop	r28
    1aee:	1f 91       	pop	r17
    1af0:	0f 91       	pop	r16
    1af2:	ff 90       	pop	r15
    1af4:	ef 90       	pop	r14
    1af6:	08 95       	ret

00001af8 <Time_Check>:

//=================================================================================================
void Time_Check(void)								// ҪГ°Ј ГјЕ©
{
	if(Timer.RTC_Timer >= 1000)						// 5mSec X 1000 = 5Sec АМ»уАМ өЗёй БшАФ
    1af8:	80 91 50 51 	lds	r24, 0x5150	; 0x805150 <Timer+0x3>
    1afc:	90 91 51 51 	lds	r25, 0x5151	; 0x805151 <Timer+0x4>
    1b00:	88 3e       	cpi	r24, 0xE8	; 232
    1b02:	93 40       	sbci	r25, 0x03	; 3
    1b04:	08 f4       	brcc	.+2      	; 0x1b08 <Time_Check+0x10>
    1b06:	79 c0       	rjmp	.+242    	; 0x1bfa <Time_Check+0x102>
	{
		Timer.RTC_Timer = 0;						// RTC_Timer ГКұвИӯ (ЕёАМёУ1 ҝЎјӯ 5mSec ё¶ҙЩ Бх°Ў)
    1b08:	10 92 50 51 	sts	0x5150, r1	; 0x805150 <Timer+0x3>
    1b0c:	10 92 51 51 	sts	0x5151, r1	; 0x805151 <Timer+0x4>
		RTC_Time_Read();						// RTCҝЎјӯ ҪГ°Ј АРҫо ҝАұв
    1b10:	0e 94 ae 29 	call	0x535c	; 0x535c <RTC_Time_Read>

		if(RTC_T.OLD_D != RTC_T.Date)					// іҜВҘ Data °Ў ҙЩёЈёй
    1b14:	e2 e5       	ldi	r30, 0x52	; 82
    1b16:	f1 e5       	ldi	r31, 0x51	; 81
    1b18:	87 81       	ldd	r24, Z+7	; 0x07
    1b1a:	64 81       	ldd	r22, Z+4	; 0x04
    1b1c:	86 17       	cp	r24, r22
    1b1e:	09 f4       	brne	.+2      	; 0x1b22 <Time_Check+0x2a>
    1b20:	62 c0       	rjmp	.+196    	; 0x1be6 <Time_Check+0xee>
		{
			RTC_T.OLD_D = RTC_T.Date;				// ЗцАз іҜВҘ АъАе
    1b22:	60 93 59 51 	sts	0x5159, r22	; 0x805159 <RTC_T+0x7>
			ee_write_byte (OLD_Date_Addr, RTC_T.OLD_D);		// іҜВҘ ёҰ EEPROM ҝЎ АъАе
    1b26:	82 e0       	ldi	r24, 0x02	; 2
    1b28:	90 e0       	ldi	r25, 0x00	; 0
    1b2a:	0e 94 29 13 	call	0x2652	; 0x2652 <ee_write_byte>

			memset(SAVE.AutoSet, 0, 300);				// АЪөҝјіБӨ №цЖЫ Clear
    1b2e:	8c e2       	ldi	r24, 0x2C	; 44
    1b30:	91 e0       	ldi	r25, 0x01	; 1
    1b32:	e6 ec       	ldi	r30, 0xC6	; 198
    1b34:	f1 e4       	ldi	r31, 0x41	; 65
    1b36:	df 01       	movw	r26, r30
    1b38:	9c 01       	movw	r18, r24
    1b3a:	1d 92       	st	X+, r1
    1b3c:	21 50       	subi	r18, 0x01	; 1
    1b3e:	30 40       	sbci	r19, 0x00	; 0
    1b40:	e1 f7       	brne	.-8      	; 0x1b3a <Time_Check+0x42>
			memset(SAVE.Count,   0, 300);				// ГшБӨИҪјц №цЖЫ Clear
    1b42:	e2 ef       	ldi	r30, 0xF2	; 242
    1b44:	f2 e4       	ldi	r31, 0x42	; 66
    1b46:	df 01       	movw	r26, r30
    1b48:	9c 01       	movw	r18, r24
    1b4a:	1d 92       	st	X+, r1
    1b4c:	21 50       	subi	r18, 0x01	; 1
    1b4e:	30 40       	sbci	r19, 0x00	; 0
    1b50:	e1 f7       	brne	.-8      	; 0x1b4a <Time_Check+0x52>
			memset(SAVE.Data,    0, 300);				// ГшБӨ№«°Ф №цЖЫ Clear
    1b52:	ea e4       	ldi	r30, 0x4A	; 74
    1b54:	f5 e4       	ldi	r31, 0x45	; 69
    1b56:	df 01       	movw	r26, r30
    1b58:	9c 01       	movw	r18, r24
    1b5a:	1d 92       	st	X+, r1
    1b5c:	21 50       	subi	r18, 0x01	; 1
    1b5e:	30 40       	sbci	r19, 0x00	; 0
    1b60:	e1 f7       	brne	.-8      	; 0x1b5a <Time_Check+0x62>
			memset(SAVE.RoomNum, 0, 300);				// №ж№шИЈ №цЖЫ Clear
    1b62:	e2 ea       	ldi	r30, 0xA2	; 162
    1b64:	f7 e4       	ldi	r31, 0x47	; 71
    1b66:	df 01       	movw	r26, r30
    1b68:	9c 01       	movw	r18, r24
    1b6a:	1d 92       	st	X+, r1
    1b6c:	21 50       	subi	r18, 0x01	; 1
    1b6e:	30 40       	sbci	r19, 0x00	; 0
    1b70:	e1 f7       	brne	.-8      	; 0x1b6a <Time_Check+0x72>
			memset(SAVE.StalNum, 0, 300);				// ҪәЕз№шИЈ №цЖЫ Clear
    1b72:	ee ec       	ldi	r30, 0xCE	; 206
    1b74:	f8 e4       	ldi	r31, 0x48	; 72
    1b76:	df 01       	movw	r26, r30
    1b78:	9c 01       	movw	r18, r24
    1b7a:	1d 92       	st	X+, r1
    1b7c:	21 50       	subi	r18, 0x01	; 1
    1b7e:	30 40       	sbci	r19, 0x00	; 0
    1b80:	e1 f7       	brne	.-8      	; 0x1b7a <Time_Check+0x82>
			memset(SAVE.Year,    0, 300);				// ів №цЖЫ Clear
    1b82:	ea ef       	ldi	r30, 0xFA	; 250
    1b84:	f9 e4       	ldi	r31, 0x49	; 73
    1b86:	df 01       	movw	r26, r30
    1b88:	9c 01       	movw	r18, r24
    1b8a:	1d 92       	st	X+, r1
    1b8c:	21 50       	subi	r18, 0x01	; 1
    1b8e:	30 40       	sbci	r19, 0x00	; 0
    1b90:	e1 f7       	brne	.-8      	; 0x1b8a <Time_Check+0x92>
			memset(SAVE.Month,   0, 300);				// ҝщ №цЖЫ Clear
    1b92:	e6 e2       	ldi	r30, 0x26	; 38
    1b94:	fb e4       	ldi	r31, 0x4B	; 75
    1b96:	df 01       	movw	r26, r30
    1b98:	9c 01       	movw	r18, r24
    1b9a:	1d 92       	st	X+, r1
    1b9c:	21 50       	subi	r18, 0x01	; 1
    1b9e:	30 40       	sbci	r19, 0x00	; 0
    1ba0:	e1 f7       	brne	.-8      	; 0x1b9a <Time_Check+0xa2>
			memset(SAVE.Date,    0, 300);				// АП №цЖЫ Clear
    1ba2:	e2 e5       	ldi	r30, 0x52	; 82
    1ba4:	fc e4       	ldi	r31, 0x4C	; 76
    1ba6:	df 01       	movw	r26, r30
    1ba8:	9c 01       	movw	r18, r24
    1baa:	1d 92       	st	X+, r1
    1bac:	21 50       	subi	r18, 0x01	; 1
    1bae:	30 40       	sbci	r19, 0x00	; 0
    1bb0:	e1 f7       	brne	.-8      	; 0x1baa <Time_Check+0xb2>
			memset(SAVE.Hour,    0, 300);				// ҪГ №цЖЫ Clear
    1bb2:	ee e7       	ldi	r30, 0x7E	; 126
    1bb4:	fd e4       	ldi	r31, 0x4D	; 77
    1bb6:	df 01       	movw	r26, r30
    1bb8:	9c 01       	movw	r18, r24
    1bba:	1d 92       	st	X+, r1
    1bbc:	21 50       	subi	r18, 0x01	; 1
    1bbe:	30 40       	sbci	r19, 0x00	; 0
    1bc0:	e1 f7       	brne	.-8      	; 0x1bba <Time_Check+0xc2>
			memset(SAVE.Min,     0, 300);				// әР №цЖЫ Clear
    1bc2:	ea ea       	ldi	r30, 0xAA	; 170
    1bc4:	fe e4       	ldi	r31, 0x4E	; 78
    1bc6:	df 01       	movw	r26, r30
    1bc8:	9c 01       	movw	r18, r24
    1bca:	1d 92       	st	X+, r1
    1bcc:	21 50       	subi	r18, 0x01	; 1
    1bce:	30 40       	sbci	r19, 0x00	; 0
    1bd0:	e1 f7       	brne	.-8      	; 0x1bca <Time_Check+0xd2>
			memset(SAVE.Sec,     0, 300);				// ГК №цЖЫ Clear
    1bd2:	e6 ed       	ldi	r30, 0xD6	; 214
    1bd4:	ff e4       	ldi	r31, 0x4F	; 79
    1bd6:	df 01       	movw	r26, r30
    1bd8:	9c 01       	movw	r18, r24
    1bda:	1d 92       	st	X+, r1
    1bdc:	21 50       	subi	r18, 0x01	; 1
    1bde:	30 40       	sbci	r19, 0x00	; 0
    1be0:	e1 f7       	brne	.-8      	; 0x1bda <Time_Check+0xe2>

			Data_Number = 0;					// ГшБӨ №«°Ф Count Clear
    1be2:	10 92 7b 51 	sts	0x517B, r1	; 0x80517b <Data_Number>
		}
		Sec_Count++;							// Sec_Count Бх°Ў
    1be6:	80 91 24 51 	lds	r24, 0x5124	; 0x805124 <Sec_Count>
    1bea:	8f 5f       	subi	r24, 0xFF	; 255
    1bec:	80 93 24 51 	sts	0x5124, r24	; 0x805124 <Sec_Count>
		if(Sec_Count > 50) {Sec_Count = 50;}				// Sec_Count °Ў 10 әёҙЩ Е©ёй 10 Аё·О АҜБц
    1bf0:	83 33       	cpi	r24, 0x33	; 51
    1bf2:	18 f0       	brcs	.+6      	; 0x1bfa <Time_Check+0x102>
    1bf4:	82 e3       	ldi	r24, 0x32	; 50
    1bf6:	80 93 24 51 	sts	0x5124, r24	; 0x805124 <Sec_Count>
    1bfa:	08 95       	ret

00001bfc <Proportion_Set>:
	}
}

//=================================================================================================
void Proportion_Set(void)							// ·Оөејҝ әсАІ јіБӨ №Ч ГКұвИӯ
{
    1bfc:	cf 92       	push	r12
    1bfe:	df 92       	push	r13
    1c00:	ef 92       	push	r14
    1c02:	ff 92       	push	r15
	CELL.Proportion = (Cell_RO / 10000000 / 4 * 128 / 0.5 * 8388608 / (Cell_Capa * 1000)) / Cell_CNT;
    1c04:	20 e8       	ldi	r18, 0x80	; 128
    1c06:	36 e9       	ldi	r19, 0x96	; 150
    1c08:	48 e1       	ldi	r20, 0x18	; 24
    1c0a:	5b e4       	ldi	r21, 0x4B	; 75
    1c0c:	60 91 6f 51 	lds	r22, 0x516F	; 0x80516f <Cell_RO>
    1c10:	70 91 70 51 	lds	r23, 0x5170	; 0x805170 <Cell_RO+0x1>
    1c14:	80 91 71 51 	lds	r24, 0x5171	; 0x805171 <Cell_RO+0x2>
    1c18:	90 91 72 51 	lds	r25, 0x5172	; 0x805172 <Cell_RO+0x3>
    1c1c:	0e 94 e0 35 	call	0x6bc0	; 0x6bc0 <__divsf3>
    1c20:	20 e0       	ldi	r18, 0x00	; 0
    1c22:	30 e0       	ldi	r19, 0x00	; 0
    1c24:	40 e8       	ldi	r20, 0x80	; 128
    1c26:	5e e3       	ldi	r21, 0x3E	; 62
    1c28:	0e 94 7d 37 	call	0x6efa	; 0x6efa <__mulsf3>
    1c2c:	20 e0       	ldi	r18, 0x00	; 0
    1c2e:	30 e0       	ldi	r19, 0x00	; 0
    1c30:	40 e0       	ldi	r20, 0x00	; 0
    1c32:	53 e4       	ldi	r21, 0x43	; 67
    1c34:	0e 94 7d 37 	call	0x6efa	; 0x6efa <__mulsf3>
    1c38:	9b 01       	movw	r18, r22
    1c3a:	ac 01       	movw	r20, r24
    1c3c:	0e 94 6f 35 	call	0x6ade	; 0x6ade <__addsf3>
    1c40:	20 e0       	ldi	r18, 0x00	; 0
    1c42:	30 e0       	ldi	r19, 0x00	; 0
    1c44:	40 e0       	ldi	r20, 0x00	; 0
    1c46:	5b e4       	ldi	r21, 0x4B	; 75
    1c48:	0e 94 7d 37 	call	0x6efa	; 0x6efa <__mulsf3>
    1c4c:	6b 01       	movw	r12, r22
    1c4e:	7c 01       	movw	r14, r24
    1c50:	20 91 83 51 	lds	r18, 0x5183	; 0x805183 <Cell_Capa>
    1c54:	30 91 84 51 	lds	r19, 0x5184	; 0x805184 <Cell_Capa+0x1>
    1c58:	40 91 85 51 	lds	r20, 0x5185	; 0x805185 <Cell_Capa+0x2>
    1c5c:	50 91 86 51 	lds	r21, 0x5186	; 0x805186 <Cell_Capa+0x3>
    1c60:	a8 ee       	ldi	r26, 0xE8	; 232
    1c62:	b3 e0       	ldi	r27, 0x03	; 3
    1c64:	0e 94 f7 3b 	call	0x77ee	; 0x77ee <__muluhisi3>
    1c68:	0e 94 88 36 	call	0x6d10	; 0x6d10 <__floatunsisf>
    1c6c:	9b 01       	movw	r18, r22
    1c6e:	ac 01       	movw	r20, r24
    1c70:	c7 01       	movw	r24, r14
    1c72:	b6 01       	movw	r22, r12
    1c74:	0e 94 e0 35 	call	0x6bc0	; 0x6bc0 <__divsf3>
    1c78:	6b 01       	movw	r12, r22
    1c7a:	7c 01       	movw	r14, r24
    1c7c:	60 91 96 51 	lds	r22, 0x5196	; 0x805196 <Cell_CNT>
    1c80:	70 e0       	ldi	r23, 0x00	; 0
    1c82:	80 e0       	ldi	r24, 0x00	; 0
    1c84:	90 e0       	ldi	r25, 0x00	; 0
    1c86:	0e 94 8a 36 	call	0x6d14	; 0x6d14 <__floatsisf>
    1c8a:	9b 01       	movw	r18, r22
    1c8c:	ac 01       	movw	r20, r24
    1c8e:	c7 01       	movw	r24, r14
    1c90:	b6 01       	movw	r22, r12
    1c92:	0e 94 e0 35 	call	0x6bc0	; 0x6bc0 <__divsf3>
    1c96:	60 93 47 51 	sts	0x5147, r22	; 0x805147 <CELL+0x11>
    1c9a:	70 93 48 51 	sts	0x5148, r23	; 0x805148 <CELL+0x12>
    1c9e:	80 93 49 51 	sts	0x5149, r24	; 0x805149 <CELL+0x13>
    1ca2:	90 93 4a 51 	sts	0x514A, r25	; 0x80514a <CELL+0x14>
}
    1ca6:	ff 90       	pop	r15
    1ca8:	ef 90       	pop	r14
    1caa:	df 90       	pop	r13
    1cac:	cf 90       	pop	r12
    1cae:	08 95       	ret

00001cb0 <Var_Init>:

//=================================================================================================
void Var_Init(void)								// әҜјц №Ч ·Оөејҝ ГКұвИӯ
{
	FND_Value_Data(0, 2, 10);						// FND 0 ~ 2 FND_MINUS
    1cb0:	4a e0       	ldi	r20, 0x0A	; 10
    1cb2:	62 e0       	ldi	r22, 0x02	; 2
    1cb4:	80 e0       	ldi	r24, 0x00	; 0
    1cb6:	0e 94 d2 05 	call	0xba4	; 0xba4 <FND_Value_Data>

	Read_eeprom();								// EEPROM Data АРұв
    1cba:	0e 94 d0 06 	call	0xda0	; 0xda0 <Read_eeprom>
    1cbe:	86 e6       	ldi	r24, 0x66	; 102
    1cc0:	9e e0       	ldi	r25, 0x0E	; 14
    1cc2:	01 97       	sbiw	r24, 0x01	; 1
    1cc4:	f1 f7       	brne	.-4      	; 0x1cc2 <Var_Init+0x12>
    1cc6:	00 00       	nop
	_delay_ms(1);

	Proportion_Set();							// ·Оөејҝ әсАІ јіБӨ №Ч ГКұвИӯ
    1cc8:	0e 94 fe 0d 	call	0x1bfc	; 0x1bfc <Proportion_Set>
    1ccc:	86 e6       	ldi	r24, 0x66	; 102
    1cce:	9e e0       	ldi	r25, 0x0E	; 14
    1cd0:	01 97       	sbiw	r24, 0x01	; 1
    1cd2:	f1 f7       	brne	.-4      	; 0x1cd0 <Var_Init+0x20>
    1cd4:	00 00       	nop
	_delay_ms(1);

	Cell_Zero_Set();							// ·Оөејҝ 0 °Ә ГЈұв 2Иё №Эә№
    1cd6:	0e 94 ab 19 	call	0x3356	; 0x3356 <Cell_Zero_Set>
    1cda:	86 e6       	ldi	r24, 0x66	; 102
    1cdc:	9e e0       	ldi	r25, 0x0E	; 14
    1cde:	01 97       	sbiw	r24, 0x01	; 1
    1ce0:	f1 f7       	brne	.-4      	; 0x1cde <Var_Init+0x2e>
    1ce2:	00 00       	nop
	_delay_ms(1);
	Cell_Zero_Set();							
    1ce4:	0e 94 ab 19 	call	0x3356	; 0x3356 <Cell_Zero_Set>
	Alarm();								// ҫЛ¶ч(әсЗБ 3№ш)
    1ce8:	0e 94 ff 07 	call	0xffe	; 0xffe <Alarm>

	CELL.Zero_Buff = 0;							// ГшБӨ °Ә Zero Buff ГКұвИӯ
    1cec:	10 92 36 51 	sts	0x5136, r1	; 0x805136 <CELL>
	Sec_Count = 0;								// АПБӨҪГ°Ј(30ГК) №цЖ° АФ·В ҫшАёёй FND OFF Timer ГКұвИӯ
    1cf0:	10 92 24 51 	sts	0x5124, r1	; 0x805124 <Sec_Count>
	SET.Menu = 0;								// Menu   ёрөе ГКұвИӯ
    1cf4:	e8 e2       	ldi	r30, 0x28	; 40
    1cf6:	f1 e5       	ldi	r31, 0x51	; 81
    1cf8:	10 82       	st	Z, r1
	SET.Select = 0;								// Select ёрөе ГКұвИӯ
    1cfa:	11 82       	std	Z+1, r1	; 0x01
	SET.Blink = 0;								// АЪёҙјц ұф№ЪАУ ГКұвИӯ
    1cfc:	13 82       	std	Z+3, r1	; 0x03
	SET.NumSET = 0;
    1cfe:	12 82       	std	Z+2, r1	; 0x02
	KEY.Count = 0;								// Key °Ў ҙӯё°ИҪјц ГКұвИӯ
    1d00:	10 92 67 51 	sts	0x5167, r1	; 0x805167 <KEY>
	OK_Count_1 = 0;								// OK_Count ГКұвИӯ
    1d04:	10 92 6e 51 	sts	0x516E, r1	; 0x80516e <OK_Count_1>
	OK_Count_2 = 0;								// OK_Count ГКұвИӯ
    1d08:	10 92 98 51 	sts	0x5198, r1	; 0x805198 <OK_Count_2>

	FND_Value_Data(0, 2, 12);						// FND 0 ~ 2 FND_MINUS
    1d0c:	4c e0       	ldi	r20, 0x0C	; 12
    1d0e:	62 e0       	ldi	r22, 0x02	; 2
    1d10:	80 e0       	ldi	r24, 0x00	; 0
    1d12:	0e 94 d2 05 	call	0xba4	; 0xba4 <FND_Value_Data>
    1d16:	08 95       	ret

00001d18 <wdt_reset>:
#endif

//=================================================================================================
void wdt_reset(void)								// Reset WDT
{
	asm("WDR");								// Reset WDT
    1d18:	a8 95       	wdr
    1d1a:	08 95       	ret

00001d1c <Auto_Set>:
}

//=================================================================================================
void Auto_Set(void)								// АЪөҝёрөе,јцөҝёрөе јіБӨ
{
	while(SET.Menu && SET.Select)						// ёЮҙә°Ў 1 АМёй №Эә№
    1d1c:	3c c0       	rjmp	.+120    	; 0x1d96 <Auto_Set+0x7a>
	{
		if(KEY.Buff)							// Key АФ·ВАМ АЦАёёй
    1d1e:	80 91 68 51 	lds	r24, 0x5168	; 0x805168 <KEY+0x1>
    1d22:	88 23       	and	r24, r24
    1d24:	69 f0       	breq	.+26     	; 0x1d40 <Auto_Set+0x24>
		{
			if     (KEY.Key == 1) {Auto_Mode = 1;}
    1d26:	80 91 69 51 	lds	r24, 0x5169	; 0x805169 <KEY+0x2>
    1d2a:	81 30       	cpi	r24, 0x01	; 1
    1d2c:	19 f4       	brne	.+6      	; 0x1d34 <Auto_Set+0x18>
    1d2e:	80 93 a1 51 	sts	0x51A1, r24	; 0x8051a1 <Auto_Mode>
    1d32:	06 c0       	rjmp	.+12     	; 0x1d40 <Auto_Set+0x24>
			else if(KEY.Key == 3) {Auto_Mode = 0;}
    1d34:	80 91 69 51 	lds	r24, 0x5169	; 0x805169 <KEY+0x2>
    1d38:	83 30       	cpi	r24, 0x03	; 3
    1d3a:	11 f4       	brne	.+4      	; 0x1d40 <Auto_Set+0x24>
    1d3c:	10 92 a1 51 	sts	0x51A1, r1	; 0x8051a1 <Auto_Mode>
		}

		if(Auto_Mode)
    1d40:	80 91 a1 51 	lds	r24, 0x51A1	; 0x8051a1 <Auto_Mode>
    1d44:	88 23       	and	r24, r24
    1d46:	99 f0       	breq	.+38     	; 0x1d6e <Auto_Set+0x52>
		{
			if(Blink) {FND_Value_Data(1,1,12);}			// Blink = 1 АМёй FND 1 OFF
    1d48:	80 91 93 51 	lds	r24, 0x5193	; 0x805193 <Blink>
    1d4c:	88 23       	and	r24, r24
    1d4e:	31 f0       	breq	.+12     	; 0x1d5c <Auto_Set+0x40>
    1d50:	4c e0       	ldi	r20, 0x0C	; 12
    1d52:	61 e0       	ldi	r22, 0x01	; 1
    1d54:	81 e0       	ldi	r24, 0x01	; 1
    1d56:	0e 94 d2 05 	call	0xba4	; 0xba4 <FND_Value_Data>
    1d5a:	1b c0       	rjmp	.+54     	; 0x1d92 <Auto_Set+0x76>
			else
			{
				DIGIT[1][3] = FND_OFF;
    1d5c:	e1 e9       	ldi	r30, 0x91	; 145
    1d5e:	f1 e4       	ldi	r31, 0x41	; 65
    1d60:	17 82       	std	Z+7, r1	; 0x07
				DIGIT[1][2] = FND_OFF;
    1d62:	16 82       	std	Z+6, r1	; 0x06
				DIGIT[1][1] = FND_O;
    1d64:	8c ef       	ldi	r24, 0xFC	; 252
    1d66:	85 83       	std	Z+5, r24	; 0x05
				DIGIT[1][0] = FND_N;
    1d68:	8c ee       	ldi	r24, 0xEC	; 236
    1d6a:	84 83       	std	Z+4, r24	; 0x04
    1d6c:	12 c0       	rjmp	.+36     	; 0x1d92 <Auto_Set+0x76>
			}
		}
		else
		{
			if(Blink) {FND_Value_Data(1,1,12);}			// Blink = 1 АМёй FND 1 OFF
    1d6e:	80 91 93 51 	lds	r24, 0x5193	; 0x805193 <Blink>
    1d72:	88 23       	and	r24, r24
    1d74:	31 f0       	breq	.+12     	; 0x1d82 <Auto_Set+0x66>
    1d76:	4c e0       	ldi	r20, 0x0C	; 12
    1d78:	61 e0       	ldi	r22, 0x01	; 1
    1d7a:	81 e0       	ldi	r24, 0x01	; 1
    1d7c:	0e 94 d2 05 	call	0xba4	; 0xba4 <FND_Value_Data>
    1d80:	08 c0       	rjmp	.+16     	; 0x1d92 <Auto_Set+0x76>
			else
			{
				DIGIT[1][3] = FND_OFF;
    1d82:	e1 e9       	ldi	r30, 0x91	; 145
    1d84:	f1 e4       	ldi	r31, 0x41	; 65
    1d86:	17 82       	std	Z+7, r1	; 0x07
				DIGIT[1][2] = FND_O;
    1d88:	8c ef       	ldi	r24, 0xFC	; 252
    1d8a:	86 83       	std	Z+6, r24	; 0x06
				DIGIT[1][1] = FND_F;
    1d8c:	8e e8       	ldi	r24, 0x8E	; 142
    1d8e:	85 83       	std	Z+5, r24	; 0x05
				DIGIT[1][0] = FND_F;
    1d90:	84 83       	std	Z+4, r24	; 0x04
			}
		}
		wdt_reset();							// ҝцДЎө¶ ё®јВ
    1d92:	0e 94 8c 0e 	call	0x1d18	; 0x1d18 <wdt_reset>
}

//=================================================================================================
void Auto_Set(void)								// АЪөҝёрөе,јцөҝёрөе јіБӨ
{
	while(SET.Menu && SET.Select)						// ёЮҙә°Ў 1 АМёй №Эә№
    1d96:	80 91 28 51 	lds	r24, 0x5128	; 0x805128 <SET>
    1d9a:	88 23       	and	r24, r24
    1d9c:	21 f0       	breq	.+8      	; 0x1da6 <Auto_Set+0x8a>
    1d9e:	80 91 29 51 	lds	r24, 0x5129	; 0x805129 <SET+0x1>
    1da2:	81 11       	cpse	r24, r1
    1da4:	bc cf       	rjmp	.-136    	; 0x1d1e <Auto_Set+0x2>
				DIGIT[1][0] = FND_F;
			}
		}
		wdt_reset();							// ҝцДЎө¶ ё®јВ
	}
	ee_write_byte(Cell_AUTO_Addr, Auto_Mode);				// АЪөҝёрөе јіБӨ°ӘА» EEPROM ҝЎ АъАе
    1da6:	60 91 a1 51 	lds	r22, 0x51A1	; 0x8051a1 <Auto_Mode>
    1daa:	87 e0       	ldi	r24, 0x07	; 7
    1dac:	90 e0       	ldi	r25, 0x00	; 0
    1dae:	0e 94 29 13 	call	0x2652	; 0x2652 <ee_write_byte>
    1db2:	08 95       	ret

00001db4 <Seting_Mode_0>:
}

//=================================================================================================
void Seting_Mode_0(void)							// јВЖГёрөе 0
{
    1db4:	cf 93       	push	r28
	uint8_t Count = 1;							// Count әҜјц ГКұвИӯ
	SET.Select = 0;								// Select №цЖ° ГКұвИӯ
    1db6:	10 92 29 51 	sts	0x5129, r1	; 0x805129 <SET+0x1>

	FND_Value_Data(0, 2, 12);						// FND 0 ~ 2 FND_OFF
    1dba:	4c e0       	ldi	r20, 0x0C	; 12
    1dbc:	62 e0       	ldi	r22, 0x02	; 2
    1dbe:	80 e0       	ldi	r24, 0x00	; 0
    1dc0:	0e 94 d2 05 	call	0xba4	; 0xba4 <FND_Value_Data>
}

//=================================================================================================
void Seting_Mode_0(void)							// јВЖГёрөе 0
{
	uint8_t Count = 1;							// Count әҜјц ГКұвИӯ
    1dc4:	c1 e0       	ldi	r28, 0x01	; 1
	SET.Select = 0;								// Select №цЖ° ГКұвИӯ

	FND_Value_Data(0, 2, 12);						// FND 0 ~ 2 FND_OFF

	while(SET.Menu)								// Seting_Mode АМёй №«ЗС №Эә№
    1dc6:	a3 c0       	rjmp	.+326    	; 0x1f0e <Seting_Mode_0+0x15a>
	{
		if(KEY.Buff)							// Key АФ·ВАМ АЦАёёй
    1dc8:	80 91 68 51 	lds	r24, 0x5168	; 0x805168 <KEY+0x1>
    1dcc:	88 23       	and	r24, r24
    1dce:	99 f0       	breq	.+38     	; 0x1df6 <Seting_Mode_0+0x42>
		{
			if     (KEY.Key == 1 && Count < 6) {Count++; KEY.Key = 0;}	// ҫч  №цЖ° АМёй Count Бх°Ў
    1dd0:	80 91 69 51 	lds	r24, 0x5169	; 0x805169 <KEY+0x2>
    1dd4:	81 30       	cpi	r24, 0x01	; 1
    1dd6:	31 f4       	brne	.+12     	; 0x1de4 <Seting_Mode_0+0x30>
    1dd8:	c6 30       	cpi	r28, 0x06	; 6
    1dda:	20 f4       	brcc	.+8      	; 0x1de4 <Seting_Mode_0+0x30>
    1ddc:	cf 5f       	subi	r28, 0xFF	; 255
    1dde:	10 92 69 51 	sts	0x5169, r1	; 0x805169 <KEY+0x2>
    1de2:	09 c0       	rjmp	.+18     	; 0x1df6 <Seting_Mode_0+0x42>
			else if(KEY.Key == 3 && Count > 0) {Count--; KEY.Key = 0;}	// ҙЩҝо№цЖ° АМёй Count °ЁјТ
    1de4:	80 91 69 51 	lds	r24, 0x5169	; 0x805169 <KEY+0x2>
    1de8:	83 30       	cpi	r24, 0x03	; 3
    1dea:	29 f4       	brne	.+10     	; 0x1df6 <Seting_Mode_0+0x42>
    1dec:	cc 23       	and	r28, r28
    1dee:	19 f0       	breq	.+6      	; 0x1df6 <Seting_Mode_0+0x42>
    1df0:	c1 50       	subi	r28, 0x01	; 1
    1df2:	10 92 69 51 	sts	0x5169, r1	; 0x805169 <KEY+0x2>
		}
		DIGIT[2][3] = FND_OFF;
    1df6:	e1 e9       	ldi	r30, 0x91	; 145
    1df8:	f1 e4       	ldi	r31, 0x41	; 65
    1dfa:	13 86       	std	Z+11, r1	; 0x0b
		DIGIT[2][2] = FND_OFF;
    1dfc:	12 86       	std	Z+10, r1	; 0x0a
		DIGIT[2][1] = FND_OFF;
    1dfe:	11 86       	std	Z+9, r1	; 0x09
		DIGIT[2][0] = fnd_tbl[Count];					// FND 2.0 ҝЎ Count ЗҘҪГ
    1e00:	ac 2f       	mov	r26, r28
    1e02:	b0 e0       	ldi	r27, 0x00	; 0
    1e04:	a5 5a       	subi	r26, 0xA5	; 165
    1e06:	be 4b       	sbci	r27, 0xBE	; 190
    1e08:	8c 91       	ld	r24, X
    1e0a:	80 87       	std	Z+8, r24	; 0x08
//-------------------------------------------------------------------------------------------------
		switch(Count)							// Count
    1e0c:	8c 2f       	mov	r24, r28
    1e0e:	90 e0       	ldi	r25, 0x00	; 0
    1e10:	87 30       	cpi	r24, 0x07	; 7
    1e12:	91 05       	cpc	r25, r1
    1e14:	08 f0       	brcs	.+2      	; 0x1e18 <Seting_Mode_0+0x64>
    1e16:	79 c0       	rjmp	.+242    	; 0x1f0a <Seting_Mode_0+0x156>
    1e18:	fc 01       	movw	r30, r24
    1e1a:	e0 58       	subi	r30, 0x80	; 128
    1e1c:	fc 4f       	sbci	r31, 0xFC	; 252
    1e1e:	0c 94 df 3b 	jmp	0x77be	; 0x77be <__tablejump2__>
			case 0:							// Count = 0 АМёй
				Count = 5;					// №Эә№А» А§ЗШ Count ёҰ ГЦ°н·О Бх°Ў ҪГЕҙ
			break;

			case 1:							// Count = 1 АМёй
				DIGIT[0][3] = FND_a;				// cell ЗҘҪГ
    1e22:	e1 e9       	ldi	r30, 0x91	; 145
    1e24:	f1 e4       	ldi	r31, 0x41	; 65
    1e26:	8a ef       	ldi	r24, 0xFA	; 250
    1e28:	83 83       	std	Z+3, r24	; 0x03
				DIGIT[0][2] = FND_u;
    1e2a:	88 e3       	ldi	r24, 0x38	; 56
    1e2c:	82 83       	std	Z+2, r24	; 0x02
				DIGIT[0][1] = FND_t;
    1e2e:	8e e1       	ldi	r24, 0x1E	; 30
    1e30:	81 83       	std	Z+1, r24	; 0x01
				DIGIT[0][0] = FND_o;
    1e32:	9a e3       	ldi	r25, 0x3A	; 58
    1e34:	90 83       	st	Z, r25

				DIGIT[1][3] = FND_OFF;				// Set ЗҘҪГ
    1e36:	17 82       	std	Z+7, r1	; 0x07
				DIGIT[1][2] = FND_S;
    1e38:	96 eb       	ldi	r25, 0xB6	; 182
    1e3a:	96 83       	std	Z+6, r25	; 0x06
				DIGIT[1][1] = FND_e;
    1e3c:	9e ed       	ldi	r25, 0xDE	; 222
    1e3e:	95 83       	std	Z+5, r25	; 0x05
				DIGIT[1][0] = FND_t;
    1e40:	84 83       	std	Z+4, r24	; 0x04

				if(SET.Select) {Auto_Set();}			// АЪөҝёрөе,јцөҝёрөе јіБӨ
    1e42:	80 91 29 51 	lds	r24, 0x5129	; 0x805129 <SET+0x1>
    1e46:	88 23       	and	r24, r24
    1e48:	09 f4       	brne	.+2      	; 0x1e4c <Seting_Mode_0+0x98>
    1e4a:	5f c0       	rjmp	.+190    	; 0x1f0a <Seting_Mode_0+0x156>
    1e4c:	0e 94 8e 0e 	call	0x1d1c	; 0x1d1c <Auto_Set>
    1e50:	5c c0       	rjmp	.+184    	; 0x1f0a <Seting_Mode_0+0x156>
			break;

			case 2:							// Count = 2 АМёй
				DIGIT[0][3] = FND_c;				// cell ЗҘҪГ
    1e52:	e1 e9       	ldi	r30, 0x91	; 145
    1e54:	f1 e4       	ldi	r31, 0x41	; 65
    1e56:	8a e1       	ldi	r24, 0x1A	; 26
    1e58:	83 83       	std	Z+3, r24	; 0x03
				DIGIT[0][2] = FND_e;
    1e5a:	8e ed       	ldi	r24, 0xDE	; 222
    1e5c:	82 83       	std	Z+2, r24	; 0x02
				DIGIT[0][1] = FND_l;
    1e5e:	90 e6       	ldi	r25, 0x60	; 96
    1e60:	91 83       	std	Z+1, r25	; 0x01
				DIGIT[0][0] = FND_l;
    1e62:	90 83       	st	Z, r25

				DIGIT[1][3] = FND_OFF;				// Set ЗҘҪГ
    1e64:	17 82       	std	Z+7, r1	; 0x07
				DIGIT[1][2] = FND_S;
    1e66:	96 eb       	ldi	r25, 0xB6	; 182
    1e68:	96 83       	std	Z+6, r25	; 0x06
				DIGIT[1][1] = FND_e;
    1e6a:	85 83       	std	Z+5, r24	; 0x05
				DIGIT[1][0] = FND_t;
    1e6c:	8e e1       	ldi	r24, 0x1E	; 30
    1e6e:	84 83       	std	Z+4, r24	; 0x04

				if(SET.Select) {Loadcell_Set();}		// ·Оөејҝ јіБӨ ёрөе
    1e70:	80 91 29 51 	lds	r24, 0x5129	; 0x805129 <SET+0x1>
    1e74:	88 23       	and	r24, r24
    1e76:	09 f4       	brne	.+2      	; 0x1e7a <Seting_Mode_0+0xc6>
    1e78:	48 c0       	rjmp	.+144    	; 0x1f0a <Seting_Mode_0+0x156>
    1e7a:	0e 94 b1 26 	call	0x4d62	; 0x4d62 <Loadcell_Set>
    1e7e:	45 c0       	rjmp	.+138    	; 0x1f0a <Seting_Mode_0+0x156>
			break;

			case 3:							// Count = 3 АМёй
				DIGIT[0][3] = FND_OFF;				// gat ЗҘҪГ
    1e80:	e1 e9       	ldi	r30, 0x91	; 145
    1e82:	f1 e4       	ldi	r31, 0x41	; 65
    1e84:	13 82       	std	Z+3, r1	; 0x03
				DIGIT[0][2] = FND_g;
    1e86:	86 ef       	ldi	r24, 0xF6	; 246
    1e88:	82 83       	std	Z+2, r24	; 0x02
				DIGIT[0][1] = FND_a;
    1e8a:	8a ef       	ldi	r24, 0xFA	; 250
    1e8c:	81 83       	std	Z+1, r24	; 0x01
				DIGIT[0][0] = FND_t;
    1e8e:	8e e1       	ldi	r24, 0x1E	; 30
    1e90:	80 83       	st	Z, r24

				DIGIT[1][3] = FND_OFF;				// Set ЗҘҪГ
    1e92:	17 82       	std	Z+7, r1	; 0x07
				DIGIT[1][2] = FND_S;
    1e94:	96 eb       	ldi	r25, 0xB6	; 182
    1e96:	96 83       	std	Z+6, r25	; 0x06
				DIGIT[1][1] = FND_e;
    1e98:	9e ed       	ldi	r25, 0xDE	; 222
    1e9a:	95 83       	std	Z+5, r25	; 0x05
				DIGIT[1][0] = FND_t;
    1e9c:	84 83       	std	Z+4, r24	; 0x04

				if(SET.Select) {Gateway_Set();}			// °ФАМЖ® ҝюАМ јіБӨ
    1e9e:	80 91 29 51 	lds	r24, 0x5129	; 0x805129 <SET+0x1>
    1ea2:	88 23       	and	r24, r24
    1ea4:	91 f1       	breq	.+100    	; 0x1f0a <Seting_Mode_0+0x156>
    1ea6:	0e 94 3f 14 	call	0x287e	; 0x287e <Gateway_Set>
    1eaa:	2f c0       	rjmp	.+94     	; 0x1f0a <Seting_Mode_0+0x156>
			break;

			case 4:							// Count = 4 АМёй
				DIGIT[0][3] = FND_OFF;				// Zbe ЗҘҪГ
    1eac:	e1 e9       	ldi	r30, 0x91	; 145
    1eae:	f1 e4       	ldi	r31, 0x41	; 65
    1eb0:	13 82       	std	Z+3, r1	; 0x03
				DIGIT[0][2] = FND_Z;
    1eb2:	8a ed       	ldi	r24, 0xDA	; 218
    1eb4:	82 83       	std	Z+2, r24	; 0x02
				DIGIT[0][1] = FND_b;
    1eb6:	8e e3       	ldi	r24, 0x3E	; 62
    1eb8:	81 83       	std	Z+1, r24	; 0x01
				DIGIT[0][0] = FND_e;
    1eba:	8e ed       	ldi	r24, 0xDE	; 222
    1ebc:	80 83       	st	Z, r24

				DIGIT[1][3] = FND_OFF;				// Set ЗҘҪГ
    1ebe:	17 82       	std	Z+7, r1	; 0x07
				DIGIT[1][2] = FND_S;
    1ec0:	96 eb       	ldi	r25, 0xB6	; 182
    1ec2:	96 83       	std	Z+6, r25	; 0x06
				DIGIT[1][1] = FND_e;
    1ec4:	85 83       	std	Z+5, r24	; 0x05
				DIGIT[1][0] = FND_t;
    1ec6:	8e e1       	ldi	r24, 0x1E	; 30
    1ec8:	84 83       	std	Z+4, r24	; 0x04

				if(SET.Select) {ZigBee_Set();}			// БцұЧәс јіБӨ ёрөе
    1eca:	80 91 29 51 	lds	r24, 0x5129	; 0x805129 <SET+0x1>
    1ece:	88 23       	and	r24, r24
    1ed0:	e1 f0       	breq	.+56     	; 0x1f0a <Seting_Mode_0+0x156>
    1ed2:	0e 94 0b 34 	call	0x6816	; 0x6816 <ZigBee_Set>
    1ed6:	19 c0       	rjmp	.+50     	; 0x1f0a <Seting_Mode_0+0x156>
			break;

			case 5:							// Count = 5 АМёй
				DIGIT[0][3] = FND_OFF;				// rtc ЗҘҪГ
    1ed8:	e1 e9       	ldi	r30, 0x91	; 145
    1eda:	f1 e4       	ldi	r31, 0x41	; 65
    1edc:	13 82       	std	Z+3, r1	; 0x03
				DIGIT[0][2] = FND_r;
    1ede:	8a e0       	ldi	r24, 0x0A	; 10
    1ee0:	82 83       	std	Z+2, r24	; 0x02
				DIGIT[0][1] = FND_t;
    1ee2:	8e e1       	ldi	r24, 0x1E	; 30
    1ee4:	81 83       	std	Z+1, r24	; 0x01
				DIGIT[0][0] = FND_c;
    1ee6:	9a e1       	ldi	r25, 0x1A	; 26
    1ee8:	90 83       	st	Z, r25

				DIGIT[1][3] = FND_OFF;				// Set ЗҘҪГ
    1eea:	17 82       	std	Z+7, r1	; 0x07
				DIGIT[1][2] = FND_S;
    1eec:	96 eb       	ldi	r25, 0xB6	; 182
    1eee:	96 83       	std	Z+6, r25	; 0x06
				DIGIT[1][1] = FND_e;
    1ef0:	9e ed       	ldi	r25, 0xDE	; 222
    1ef2:	95 83       	std	Z+5, r25	; 0x05
				DIGIT[1][0] = FND_t;
    1ef4:	84 83       	std	Z+4, r24	; 0x04

				if(SET.Select) {RTC_Set();}			// RTC јіБӨ ёрөе
    1ef6:	80 91 29 51 	lds	r24, 0x5129	; 0x805129 <SET+0x1>
    1efa:	88 23       	and	r24, r24
    1efc:	31 f0       	breq	.+12     	; 0x1f0a <Seting_Mode_0+0x156>
    1efe:	0e 94 17 2a 	call	0x542e	; 0x542e <RTC_Set>
    1f02:	03 c0       	rjmp	.+6      	; 0x1f0a <Seting_Mode_0+0x156>
			break;

			case 6:							// Count = 6 АМёй
				Count = 1;					// №Эә№А» А§ЗШ Count ёҰ ГЦАъ·О °ЁјТ ҪГЕҙ
    1f04:	c1 e0       	ldi	r28, 0x01	; 1
			break;
    1f06:	01 c0       	rjmp	.+2      	; 0x1f0a <Seting_Mode_0+0x156>
		DIGIT[2][0] = fnd_tbl[Count];					// FND 2.0 ҝЎ Count ЗҘҪГ
//-------------------------------------------------------------------------------------------------
		switch(Count)							// Count
		{
			case 0:							// Count = 0 АМёй
				Count = 5;					// №Эә№А» А§ЗШ Count ёҰ ГЦ°н·О Бх°Ў ҪГЕҙ
    1f08:	c5 e0       	ldi	r28, 0x05	; 5

			case 6:							// Count = 6 АМёй
				Count = 1;					// №Эә№А» А§ЗШ Count ёҰ ГЦАъ·О °ЁјТ ҪГЕҙ
			break;
		}
		wdt_reset();							// ҝцДЎө¶ ё®јВ
    1f0a:	0e 94 8c 0e 	call	0x1d18	; 0x1d18 <wdt_reset>
	uint8_t Count = 1;							// Count әҜјц ГКұвИӯ
	SET.Select = 0;								// Select №цЖ° ГКұвИӯ

	FND_Value_Data(0, 2, 12);						// FND 0 ~ 2 FND_OFF

	while(SET.Menu)								// Seting_Mode АМёй №«ЗС №Эә№
    1f0e:	80 91 28 51 	lds	r24, 0x5128	; 0x805128 <SET>
    1f12:	81 11       	cpse	r24, r1
    1f14:	59 cf       	rjmp	.-334    	; 0x1dc8 <Seting_Mode_0+0x14>
				Count = 1;					// №Эә№А» А§ЗШ Count ёҰ ГЦАъ·О °ЁјТ ҪГЕҙ
			break;
		}
		wdt_reset();							// ҝцДЎө¶ ё®јВ
	}
	Var_Init();								// әҜјц ГКұвИӯ
    1f16:	0e 94 58 0e 	call	0x1cb0	; 0x1cb0 <Var_Init>
}
    1f1a:	cf 91       	pop	r28
    1f1c:	08 95       	ret

00001f1e <Seting_Mode_1>:

//=================================================================================================
void Seting_Mode_1(void)							// јВЖГёрөе 1
{
    1f1e:	cf 93       	push	r28
    1f20:	df 93       	push	r29
    1f22:	2f ef       	ldi	r18, 0xFF	; 255
    1f24:	8f e7       	ldi	r24, 0x7F	; 127
    1f26:	96 e1       	ldi	r25, 0x16	; 22
    1f28:	21 50       	subi	r18, 0x01	; 1
    1f2a:	80 40       	sbci	r24, 0x00	; 0
    1f2c:	90 40       	sbci	r25, 0x00	; 0
    1f2e:	e1 f7       	brne	.-8      	; 0x1f28 <Seting_Mode_1+0xa>
    1f30:	00 c0       	rjmp	.+0      	; 0x1f32 <Seting_Mode_1+0x14>
    1f32:	00 00       	nop
    1f34:	43 c1       	rjmp	.+646    	; 0x21bc <Seting_Mode_1+0x29e>
	_delay_ms(500);								// ёрөе БшАФ ҪГ ҝ¬јУ өҝАЫ №жБцёҰ А§ЗС өф·№АМ

	while(SET.NumSET)							// ёЮҙә ҝН јұЕГ АМ ёрөО 1 АМёй №Эә№
	{
		if(SET.NumSET == 1)
    1f36:	80 91 2a 51 	lds	r24, 0x512A	; 0x80512a <SET+0x2>
    1f3a:	81 30       	cpi	r24, 0x01	; 1
    1f3c:	09 f0       	breq	.+2      	; 0x1f40 <Seting_Mode_1+0x22>
    1f3e:	9d c0       	rjmp	.+314    	; 0x207a <Seting_Mode_1+0x15c>
		{
			if(KEY.Buff)						// Key АФ·ВАМ АЦАёёй
    1f40:	80 91 68 51 	lds	r24, 0x5168	; 0x805168 <KEY+0x1>
    1f44:	88 23       	and	r24, r24
    1f46:	41 f1       	breq	.+80     	; 0x1f98 <Seting_Mode_1+0x7a>
			{
				if     (KEY.Key == 1 && Room_Number < 100) {Room_Number++; KEY.Key = 0;}		// ҫч  №цЖ° АМёй °№јц јіБӨ°Ә Бх°Ў
    1f48:	80 91 69 51 	lds	r24, 0x5169	; 0x805169 <KEY+0x2>
    1f4c:	81 30       	cpi	r24, 0x01	; 1
    1f4e:	51 f4       	brne	.+20     	; 0x1f64 <Seting_Mode_1+0x46>
    1f50:	80 91 94 51 	lds	r24, 0x5194	; 0x805194 <Room_Number>
    1f54:	84 36       	cpi	r24, 0x64	; 100
    1f56:	30 f4       	brcc	.+12     	; 0x1f64 <Seting_Mode_1+0x46>
    1f58:	8f 5f       	subi	r24, 0xFF	; 255
    1f5a:	80 93 94 51 	sts	0x5194, r24	; 0x805194 <Room_Number>
    1f5e:	10 92 69 51 	sts	0x5169, r1	; 0x805169 <KEY+0x2>
    1f62:	1a c0       	rjmp	.+52     	; 0x1f98 <Seting_Mode_1+0x7a>
				else if(KEY.Key == 3 && Room_Number > 1)   {Room_Number--; KEY.Key = 0;}		// ҙЩҝо№цЖ° АМёй °№јц јіБӨ°Ә °ЁјТ
    1f64:	80 91 69 51 	lds	r24, 0x5169	; 0x805169 <KEY+0x2>
    1f68:	83 30       	cpi	r24, 0x03	; 3
    1f6a:	51 f4       	brne	.+20     	; 0x1f80 <Seting_Mode_1+0x62>
    1f6c:	80 91 94 51 	lds	r24, 0x5194	; 0x805194 <Room_Number>
    1f70:	82 30       	cpi	r24, 0x02	; 2
    1f72:	30 f0       	brcs	.+12     	; 0x1f80 <Seting_Mode_1+0x62>
    1f74:	81 50       	subi	r24, 0x01	; 1
    1f76:	80 93 94 51 	sts	0x5194, r24	; 0x805194 <Room_Number>
    1f7a:	10 92 69 51 	sts	0x5169, r1	; 0x805169 <KEY+0x2>
    1f7e:	0c c0       	rjmp	.+24     	; 0x1f98 <Seting_Mode_1+0x7a>
				else if(KEY.Key == 2)			   {SET.NumSET++; SET.Save = 0; KEY.Key = 0;}	// јұЕГ№цЖ° АМёй SET.Room ГКұвИӯ
    1f80:	80 91 69 51 	lds	r24, 0x5169	; 0x805169 <KEY+0x2>
    1f84:	82 30       	cpi	r24, 0x02	; 2
    1f86:	41 f4       	brne	.+16     	; 0x1f98 <Seting_Mode_1+0x7a>
    1f88:	e8 e2       	ldi	r30, 0x28	; 40
    1f8a:	f1 e5       	ldi	r31, 0x51	; 81
    1f8c:	82 81       	ldd	r24, Z+2	; 0x02
    1f8e:	8f 5f       	subi	r24, 0xFF	; 255
    1f90:	82 83       	std	Z+2, r24	; 0x02
    1f92:	14 82       	std	Z+4, r1	; 0x04
    1f94:	10 92 69 51 	sts	0x5169, r1	; 0x805169 <KEY+0x2>
			}

			if(Blink) {FND_Value_Data(1,1,12);}			// Blink = 1 АМёй FND 1 OFF
    1f98:	80 91 93 51 	lds	r24, 0x5193	; 0x805193 <Blink>
    1f9c:	88 23       	and	r24, r24
    1f9e:	31 f0       	breq	.+12     	; 0x1fac <Seting_Mode_1+0x8e>
    1fa0:	4c e0       	ldi	r20, 0x0C	; 12
    1fa2:	61 e0       	ldi	r22, 0x01	; 1
    1fa4:	81 e0       	ldi	r24, 0x01	; 1
    1fa6:	0e 94 d2 05 	call	0xba4	; 0xba4 <FND_Value_Data>
    1faa:	33 c0       	rjmp	.+102    	; 0x2012 <Seting_Mode_1+0xf4>
			else							// Blink = 0 АМёй FND 1 ҝЎ №ж №шИЈ ЗҘҪГ
			{
				DIGIT[1][3] = FND_OFF;				// FND 1 ҝЎ №ж №шИЈ ЗҘҪГ
    1fac:	c1 e9       	ldi	r28, 0x91	; 145
    1fae:	d1 e4       	ldi	r29, 0x41	; 65
    1fb0:	1f 82       	std	Y+7, r1	; 0x07
				DIGIT[1][2] = fnd_tbl[Room_Number / 100];
    1fb2:	e0 91 94 51 	lds	r30, 0x5194	; 0x805194 <Room_Number>
    1fb6:	89 e2       	ldi	r24, 0x29	; 41
    1fb8:	e8 9f       	mul	r30, r24
    1fba:	81 2d       	mov	r24, r1
    1fbc:	11 24       	eor	r1, r1
    1fbe:	82 95       	swap	r24
    1fc0:	8f 70       	andi	r24, 0x0F	; 15
    1fc2:	a8 2f       	mov	r26, r24
    1fc4:	b0 e0       	ldi	r27, 0x00	; 0
    1fc6:	a5 5a       	subi	r26, 0xA5	; 165
    1fc8:	be 4b       	sbci	r27, 0xBE	; 190
    1fca:	9c 91       	ld	r25, X
    1fcc:	9e 83       	std	Y+6, r25	; 0x06
				DIGIT[1][1] = fnd_tbl[Room_Number % 100 / 10];
    1fce:	ae 2f       	mov	r26, r30
    1fd0:	24 e6       	ldi	r18, 0x64	; 100
    1fd2:	82 9f       	mul	r24, r18
    1fd4:	a0 19       	sub	r26, r0
    1fd6:	11 24       	eor	r1, r1
    1fd8:	8d ec       	ldi	r24, 0xCD	; 205
    1fda:	a8 9f       	mul	r26, r24
    1fdc:	a1 2d       	mov	r26, r1
    1fde:	11 24       	eor	r1, r1
    1fe0:	a6 95       	lsr	r26
    1fe2:	a6 95       	lsr	r26
    1fe4:	a6 95       	lsr	r26
    1fe6:	b0 e0       	ldi	r27, 0x00	; 0
    1fe8:	a5 5a       	subi	r26, 0xA5	; 165
    1fea:	be 4b       	sbci	r27, 0xBE	; 190
    1fec:	9c 91       	ld	r25, X
    1fee:	9d 83       	std	Y+5, r25	; 0x05
				DIGIT[1][0] = fnd_tbl[Room_Number % 10];
    1ff0:	e8 9f       	mul	r30, r24
    1ff2:	81 2d       	mov	r24, r1
    1ff4:	11 24       	eor	r1, r1
    1ff6:	86 95       	lsr	r24
    1ff8:	86 95       	lsr	r24
    1ffa:	86 95       	lsr	r24
    1ffc:	88 0f       	add	r24, r24
    1ffe:	98 2f       	mov	r25, r24
    2000:	99 0f       	add	r25, r25
    2002:	99 0f       	add	r25, r25
    2004:	89 0f       	add	r24, r25
    2006:	e8 1b       	sub	r30, r24
    2008:	f0 e0       	ldi	r31, 0x00	; 0
    200a:	e5 5a       	subi	r30, 0xA5	; 165
    200c:	fe 4b       	sbci	r31, 0xBE	; 190
    200e:	80 81       	ld	r24, Z
    2010:	8c 83       	std	Y+4, r24	; 0x04
			}
			DIGIT[2][3] = FND_OFF;					// FND 2 ҝЎ ҪәЕз №шИЈ ЗҘҪГ
    2012:	c1 e9       	ldi	r28, 0x91	; 145
    2014:	d1 e4       	ldi	r29, 0x41	; 65
    2016:	1b 86       	std	Y+11, r1	; 0x0b
			DIGIT[2][2] = fnd_tbl[Stal_Number / 100];
    2018:	e0 91 6d 51 	lds	r30, 0x516D	; 0x80516d <Stal_Number>
    201c:	89 e2       	ldi	r24, 0x29	; 41
    201e:	e8 9f       	mul	r30, r24
    2020:	81 2d       	mov	r24, r1
    2022:	11 24       	eor	r1, r1
    2024:	82 95       	swap	r24
    2026:	8f 70       	andi	r24, 0x0F	; 15
    2028:	a8 2f       	mov	r26, r24
    202a:	b0 e0       	ldi	r27, 0x00	; 0
    202c:	a5 5a       	subi	r26, 0xA5	; 165
    202e:	be 4b       	sbci	r27, 0xBE	; 190
    2030:	9c 91       	ld	r25, X
    2032:	9a 87       	std	Y+10, r25	; 0x0a
			DIGIT[2][1] = fnd_tbl[Stal_Number % 100 / 10];
    2034:	ae 2f       	mov	r26, r30
    2036:	94 e6       	ldi	r25, 0x64	; 100
    2038:	89 9f       	mul	r24, r25
    203a:	a0 19       	sub	r26, r0
    203c:	11 24       	eor	r1, r1
    203e:	8d ec       	ldi	r24, 0xCD	; 205
    2040:	a8 9f       	mul	r26, r24
    2042:	a1 2d       	mov	r26, r1
    2044:	11 24       	eor	r1, r1
    2046:	a6 95       	lsr	r26
    2048:	a6 95       	lsr	r26
    204a:	a6 95       	lsr	r26
    204c:	b0 e0       	ldi	r27, 0x00	; 0
    204e:	a5 5a       	subi	r26, 0xA5	; 165
    2050:	be 4b       	sbci	r27, 0xBE	; 190
    2052:	9c 91       	ld	r25, X
    2054:	99 87       	std	Y+9, r25	; 0x09
			DIGIT[2][0] = fnd_tbl[Stal_Number % 10];
    2056:	e8 9f       	mul	r30, r24
    2058:	81 2d       	mov	r24, r1
    205a:	11 24       	eor	r1, r1
    205c:	86 95       	lsr	r24
    205e:	86 95       	lsr	r24
    2060:	86 95       	lsr	r24
    2062:	88 0f       	add	r24, r24
    2064:	98 2f       	mov	r25, r24
    2066:	99 0f       	add	r25, r25
    2068:	99 0f       	add	r25, r25
    206a:	89 0f       	add	r24, r25
    206c:	e8 1b       	sub	r30, r24
    206e:	f0 e0       	ldi	r31, 0x00	; 0
    2070:	e5 5a       	subi	r30, 0xA5	; 165
    2072:	fe 4b       	sbci	r31, 0xBE	; 190
    2074:	80 81       	ld	r24, Z
    2076:	88 87       	std	Y+8, r24	; 0x08
    2078:	9f c0       	rjmp	.+318    	; 0x21b8 <Seting_Mode_1+0x29a>
		}
		else if(SET.NumSET == 2)
    207a:	80 91 2a 51 	lds	r24, 0x512A	; 0x80512a <SET+0x2>
    207e:	82 30       	cpi	r24, 0x02	; 2
    2080:	09 f0       	breq	.+2      	; 0x2084 <Seting_Mode_1+0x166>
    2082:	9a c0       	rjmp	.+308    	; 0x21b8 <Seting_Mode_1+0x29a>
		{
			if(KEY.Buff)						// Key АФ·ВАМ АЦАёёй
    2084:	80 91 68 51 	lds	r24, 0x5168	; 0x805168 <KEY+0x1>
    2088:	88 23       	and	r24, r24
    208a:	31 f1       	breq	.+76     	; 0x20d8 <Seting_Mode_1+0x1ba>
			{
				if     (KEY.Key == 1 && Stal_Number < 100) {Stal_Number++; KEY.Key = 0;}		// ҫч  №цЖ° АМёй °№јц јіБӨ°Ә Бх°Ў
    208c:	80 91 69 51 	lds	r24, 0x5169	; 0x805169 <KEY+0x2>
    2090:	81 30       	cpi	r24, 0x01	; 1
    2092:	51 f4       	brne	.+20     	; 0x20a8 <Seting_Mode_1+0x18a>
    2094:	80 91 6d 51 	lds	r24, 0x516D	; 0x80516d <Stal_Number>
    2098:	84 36       	cpi	r24, 0x64	; 100
    209a:	30 f4       	brcc	.+12     	; 0x20a8 <Seting_Mode_1+0x18a>
    209c:	8f 5f       	subi	r24, 0xFF	; 255
    209e:	80 93 6d 51 	sts	0x516D, r24	; 0x80516d <Stal_Number>
    20a2:	10 92 69 51 	sts	0x5169, r1	; 0x805169 <KEY+0x2>
    20a6:	18 c0       	rjmp	.+48     	; 0x20d8 <Seting_Mode_1+0x1ba>
				else if(KEY.Key == 3 && Stal_Number > 1)   {Stal_Number--; KEY.Key = 0;}		// ҙЩҝо№цЖ° АМёй °№јц јіБӨ°Ә °ЁјТ
    20a8:	80 91 69 51 	lds	r24, 0x5169	; 0x805169 <KEY+0x2>
    20ac:	83 30       	cpi	r24, 0x03	; 3
    20ae:	51 f4       	brne	.+20     	; 0x20c4 <Seting_Mode_1+0x1a6>
    20b0:	80 91 6d 51 	lds	r24, 0x516D	; 0x80516d <Stal_Number>
    20b4:	82 30       	cpi	r24, 0x02	; 2
    20b6:	30 f0       	brcs	.+12     	; 0x20c4 <Seting_Mode_1+0x1a6>
    20b8:	81 50       	subi	r24, 0x01	; 1
    20ba:	80 93 6d 51 	sts	0x516D, r24	; 0x80516d <Stal_Number>
    20be:	10 92 69 51 	sts	0x5169, r1	; 0x805169 <KEY+0x2>
    20c2:	0a c0       	rjmp	.+20     	; 0x20d8 <Seting_Mode_1+0x1ba>
				else if(KEY.Key == 2)			   {SET.NumSET = 0; SET.Save = 0; KEY.Key = 0;}	// јұЕГ№цЖ° АМёй SET.Room ГКұвИӯ
    20c4:	80 91 69 51 	lds	r24, 0x5169	; 0x805169 <KEY+0x2>
    20c8:	82 30       	cpi	r24, 0x02	; 2
    20ca:	31 f4       	brne	.+12     	; 0x20d8 <Seting_Mode_1+0x1ba>
    20cc:	e8 e2       	ldi	r30, 0x28	; 40
    20ce:	f1 e5       	ldi	r31, 0x51	; 81
    20d0:	12 82       	std	Z+2, r1	; 0x02
    20d2:	14 82       	std	Z+4, r1	; 0x04
    20d4:	10 92 69 51 	sts	0x5169, r1	; 0x805169 <KEY+0x2>
			}

			if(Blink) {FND_Value_Data(2,2,12);}			// Blink = 1 АМёй FND 2 OFF
    20d8:	80 91 93 51 	lds	r24, 0x5193	; 0x805193 <Blink>
    20dc:	88 23       	and	r24, r24
    20de:	31 f0       	breq	.+12     	; 0x20ec <Seting_Mode_1+0x1ce>
    20e0:	4c e0       	ldi	r20, 0x0C	; 12
    20e2:	62 e0       	ldi	r22, 0x02	; 2
    20e4:	82 e0       	ldi	r24, 0x02	; 2
    20e6:	0e 94 d2 05 	call	0xba4	; 0xba4 <FND_Value_Data>
    20ea:	33 c0       	rjmp	.+102    	; 0x2152 <Seting_Mode_1+0x234>
			else							// Blink = 0 АМёй FND 2ҝЎ ҪәЕз №шИЈ ЗҘҪГ
			{
				DIGIT[2][3] = FND_OFF;				// FND 2 ҝЎ ҪәЕз №шИЈ ЗҘҪГ
    20ec:	c1 e9       	ldi	r28, 0x91	; 145
    20ee:	d1 e4       	ldi	r29, 0x41	; 65
    20f0:	1b 86       	std	Y+11, r1	; 0x0b
				DIGIT[2][2] = fnd_tbl[Stal_Number / 100];
    20f2:	e0 91 6d 51 	lds	r30, 0x516D	; 0x80516d <Stal_Number>
    20f6:	89 e2       	ldi	r24, 0x29	; 41
    20f8:	e8 9f       	mul	r30, r24
    20fa:	81 2d       	mov	r24, r1
    20fc:	11 24       	eor	r1, r1
    20fe:	82 95       	swap	r24
    2100:	8f 70       	andi	r24, 0x0F	; 15
    2102:	a8 2f       	mov	r26, r24
    2104:	b0 e0       	ldi	r27, 0x00	; 0
    2106:	a5 5a       	subi	r26, 0xA5	; 165
    2108:	be 4b       	sbci	r27, 0xBE	; 190
    210a:	9c 91       	ld	r25, X
    210c:	9a 87       	std	Y+10, r25	; 0x0a
				DIGIT[2][1] = fnd_tbl[Stal_Number % 100 / 10];
    210e:	ae 2f       	mov	r26, r30
    2110:	24 e6       	ldi	r18, 0x64	; 100
    2112:	82 9f       	mul	r24, r18
    2114:	a0 19       	sub	r26, r0
    2116:	11 24       	eor	r1, r1
    2118:	8d ec       	ldi	r24, 0xCD	; 205
    211a:	a8 9f       	mul	r26, r24
    211c:	a1 2d       	mov	r26, r1
    211e:	11 24       	eor	r1, r1
    2120:	a6 95       	lsr	r26
    2122:	a6 95       	lsr	r26
    2124:	a6 95       	lsr	r26
    2126:	b0 e0       	ldi	r27, 0x00	; 0
    2128:	a5 5a       	subi	r26, 0xA5	; 165
    212a:	be 4b       	sbci	r27, 0xBE	; 190
    212c:	9c 91       	ld	r25, X
    212e:	99 87       	std	Y+9, r25	; 0x09
				DIGIT[2][0] = fnd_tbl[Stal_Number % 10];
    2130:	e8 9f       	mul	r30, r24
    2132:	81 2d       	mov	r24, r1
    2134:	11 24       	eor	r1, r1
    2136:	86 95       	lsr	r24
    2138:	86 95       	lsr	r24
    213a:	86 95       	lsr	r24
    213c:	88 0f       	add	r24, r24
    213e:	98 2f       	mov	r25, r24
    2140:	99 0f       	add	r25, r25
    2142:	99 0f       	add	r25, r25
    2144:	89 0f       	add	r24, r25
    2146:	e8 1b       	sub	r30, r24
    2148:	f0 e0       	ldi	r31, 0x00	; 0
    214a:	e5 5a       	subi	r30, 0xA5	; 165
    214c:	fe 4b       	sbci	r31, 0xBE	; 190
    214e:	80 81       	ld	r24, Z
    2150:	88 87       	std	Y+8, r24	; 0x08
			}
			DIGIT[1][3] = FND_OFF;					// FND 1 ҝЎ №ж №шИЈ ЗҘҪГ
    2152:	c1 e9       	ldi	r28, 0x91	; 145
    2154:	d1 e4       	ldi	r29, 0x41	; 65
    2156:	1f 82       	std	Y+7, r1	; 0x07
			DIGIT[1][2] = fnd_tbl[Room_Number / 100];
    2158:	e0 91 94 51 	lds	r30, 0x5194	; 0x805194 <Room_Number>
    215c:	89 e2       	ldi	r24, 0x29	; 41
    215e:	e8 9f       	mul	r30, r24
    2160:	81 2d       	mov	r24, r1
    2162:	11 24       	eor	r1, r1
    2164:	82 95       	swap	r24
    2166:	8f 70       	andi	r24, 0x0F	; 15
    2168:	a8 2f       	mov	r26, r24
    216a:	b0 e0       	ldi	r27, 0x00	; 0
    216c:	a5 5a       	subi	r26, 0xA5	; 165
    216e:	be 4b       	sbci	r27, 0xBE	; 190
    2170:	9c 91       	ld	r25, X
    2172:	9e 83       	std	Y+6, r25	; 0x06
			DIGIT[1][1] = fnd_tbl[Room_Number % 100 / 10];
    2174:	ae 2f       	mov	r26, r30
    2176:	94 e6       	ldi	r25, 0x64	; 100
    2178:	89 9f       	mul	r24, r25
    217a:	a0 19       	sub	r26, r0
    217c:	11 24       	eor	r1, r1
    217e:	8d ec       	ldi	r24, 0xCD	; 205
    2180:	a8 9f       	mul	r26, r24
    2182:	a1 2d       	mov	r26, r1
    2184:	11 24       	eor	r1, r1
    2186:	a6 95       	lsr	r26
    2188:	a6 95       	lsr	r26
    218a:	a6 95       	lsr	r26
    218c:	b0 e0       	ldi	r27, 0x00	; 0
    218e:	a5 5a       	subi	r26, 0xA5	; 165
    2190:	be 4b       	sbci	r27, 0xBE	; 190
    2192:	9c 91       	ld	r25, X
    2194:	9d 83       	std	Y+5, r25	; 0x05
			DIGIT[1][0] = fnd_tbl[Room_Number % 10];
    2196:	e8 9f       	mul	r30, r24
    2198:	81 2d       	mov	r24, r1
    219a:	11 24       	eor	r1, r1
    219c:	86 95       	lsr	r24
    219e:	86 95       	lsr	r24
    21a0:	86 95       	lsr	r24
    21a2:	88 0f       	add	r24, r24
    21a4:	98 2f       	mov	r25, r24
    21a6:	99 0f       	add	r25, r25
    21a8:	99 0f       	add	r25, r25
    21aa:	89 0f       	add	r24, r25
    21ac:	e8 1b       	sub	r30, r24
    21ae:	f0 e0       	ldi	r31, 0x00	; 0
    21b0:	e5 5a       	subi	r30, 0xA5	; 165
    21b2:	fe 4b       	sbci	r31, 0xBE	; 190
    21b4:	80 81       	ld	r24, Z
    21b6:	8c 83       	std	Y+4, r24	; 0x04
		}
		wdt_reset();							// ҝцДЎө¶ ё®јВ
    21b8:	0e 94 8c 0e 	call	0x1d18	; 0x1d18 <wdt_reset>
//=================================================================================================
void Seting_Mode_1(void)							// јВЖГёрөе 1
{
	_delay_ms(500);								// ёрөе БшАФ ҪГ ҝ¬јУ өҝАЫ №жБцёҰ А§ЗС өф·№АМ

	while(SET.NumSET)							// ёЮҙә ҝН јұЕГ АМ ёрөО 1 АМёй №Эә№
    21bc:	80 91 2a 51 	lds	r24, 0x512A	; 0x80512a <SET+0x2>
    21c0:	81 11       	cpse	r24, r1
    21c2:	b9 ce       	rjmp	.-654    	; 0x1f36 <Seting_Mode_1+0x18>
			DIGIT[1][1] = fnd_tbl[Room_Number % 100 / 10];
			DIGIT[1][0] = fnd_tbl[Room_Number % 10];
		}
		wdt_reset();							// ҝцДЎө¶ ё®јВ
	}
	SET.NumSET = 0;
    21c4:	10 92 2a 51 	sts	0x512A, r1	; 0x80512a <SET+0x2>
	ee_write_byte(Cell_ROOM_Addr, Room_Number);
    21c8:	60 91 94 51 	lds	r22, 0x5194	; 0x805194 <Room_Number>
    21cc:	85 e0       	ldi	r24, 0x05	; 5
    21ce:	90 e0       	ldi	r25, 0x00	; 0
    21d0:	0e 94 29 13 	call	0x2652	; 0x2652 <ee_write_byte>
	ee_write_byte(Cell_STAL_Addr, Stal_Number);
    21d4:	60 91 6d 51 	lds	r22, 0x516D	; 0x80516d <Stal_Number>
    21d8:	86 e0       	ldi	r24, 0x06	; 6
    21da:	90 e0       	ldi	r25, 0x00	; 0
    21dc:	0e 94 29 13 	call	0x2652	; 0x2652 <ee_write_byte>
	Alarm();
    21e0:	0e 94 ff 07 	call	0xffe	; 0xffe <Alarm>
}
    21e4:	df 91       	pop	r29
    21e6:	cf 91       	pop	r28
    21e8:	08 95       	ret

000021ea <main>:
}

//=================================================================================================
int main(void)
{
	atmel_start_init();
    21ea:	0e 94 3f 04 	call	0x87e	; 0x87e <atmel_start_init>
	MCU_Init();								// MCU Port ГКұвИӯ
    21ee:	0e 94 26 05 	call	0xa4c	; 0xa4c <MCU_Init>
//-------------------------------------------------------------------------------------------------
#ifdef USART_SET								// USART »зҝлјіБӨ
	fdevopen(std_putchar, NULL);						// printf ЗФјц»зҝл јіБӨ
    21f2:	60 e0       	ldi	r22, 0x00	; 0
    21f4:	70 e0       	ldi	r23, 0x00	; 0
    21f6:	82 e1       	ldi	r24, 0x12	; 18
    21f8:	95 e0       	ldi	r25, 0x05	; 5
    21fa:	0e 94 ff 3d 	call	0x7bfe	; 0x7bfe <fdevopen>
	printf_port = 1;							// Usart Port 1 »зҝл
    21fe:	81 e0       	ldi	r24, 0x01	; 1
    2200:	80 93 66 51 	sts	0x5166, r24	; 0x805166 <printf_port>
    2204:	2f ef       	ldi	r18, 0xFF	; 255
    2206:	8f e3       	ldi	r24, 0x3F	; 63
    2208:	92 e0       	ldi	r25, 0x02	; 2
    220a:	21 50       	subi	r18, 0x01	; 1
    220c:	80 40       	sbci	r24, 0x00	; 0
    220e:	90 40       	sbci	r25, 0x00	; 0
    2210:	e1 f7       	brne	.-8      	; 0x220a <main+0x20>
    2212:	00 c0       	rjmp	.+0      	; 0x2214 <main+0x2a>
    2214:	00 00       	nop
	_delay_ms(50);								// ЕлҪЕ Port ҫИБӨИӯ Time

	printf("\r\n");
    2216:	8b e1       	ldi	r24, 0x1B	; 27
    2218:	91 e4       	ldi	r25, 0x41	; 65
    221a:	0e 94 9a 3e 	call	0x7d34	; 0x7d34 <puts>
	printf("//=================================================//\r\n");
    221e:	85 e7       	ldi	r24, 0x75	; 117
    2220:	90 e4       	ldi	r25, 0x40	; 64
    2222:	0e 94 9a 3e 	call	0x7d34	; 0x7d34 <puts>
	printf("//===  Product Name : Pig Scales 2 V%d.%d(SC-500) ===//\r\n",FW_VER / 10, FW_VER % 10);	// ProductName
    2226:	1f 92       	push	r1
    2228:	84 e0       	ldi	r24, 0x04	; 4
    222a:	8f 93       	push	r24
    222c:	1f 92       	push	r1
    222e:	8f 93       	push	r24
    2230:	8c ea       	ldi	r24, 0xAC	; 172
    2232:	90 e4       	ldi	r25, 0x40	; 64
    2234:	9f 93       	push	r25
    2236:	8f 93       	push	r24
    2238:	0e 94 86 3e 	call	0x7d0c	; 0x7d0c <printf>
	printf("//===  File Content : Moving Weight Scales      ===//\r\n");				// File і»ҝл : АМөҝЗь ГјБЯ ГшБӨұв 
    223c:	86 ee       	ldi	r24, 0xE6	; 230
    223e:	90 e4       	ldi	r25, 0x40	; 64
    2240:	0e 94 9a 3e 	call	0x7d34	; 0x7d34 <puts>
	printf("//===  Compiled     : %s, %s     ===//\r\n", __DATE__, __TIME__);			// Compiled : іҜВҘ, ҪГ°Ј ЗҘҪГ
    2244:	8d e1       	ldi	r24, 0x1D	; 29
    2246:	91 e4       	ldi	r25, 0x41	; 65
    2248:	9f 93       	push	r25
    224a:	8f 93       	push	r24
    224c:	86 e2       	ldi	r24, 0x26	; 38
    224e:	91 e4       	ldi	r25, 0x41	; 65
    2250:	9f 93       	push	r25
    2252:	8f 93       	push	r24
    2254:	82 e3       	ldi	r24, 0x32	; 50
    2256:	91 e4       	ldi	r25, 0x41	; 65
    2258:	9f 93       	push	r25
    225a:	8f 93       	push	r24
    225c:	0e 94 86 3e 	call	0x7d0c	; 0x7d0c <printf>
	printf("//=================================================//\r\n");
    2260:	85 e7       	ldi	r24, 0x75	; 117
    2262:	90 e4       	ldi	r25, 0x40	; 64
    2264:	0e 94 9a 3e 	call	0x7d34	; 0x7d34 <puts>
	printf("\r\n");
    2268:	8b e1       	ldi	r24, 0x1B	; 27
    226a:	91 e4       	ldi	r25, 0x41	; 65
    226c:	0e 94 9a 3e 	call	0x7d34	; 0x7d34 <puts>
// #ifdef PWM_SET								// PWM »зҝлјіБӨ
// 	PWM_0_enable();								// PWM 0 ГКұвИӯ №Ч јіБӨ
// 	PWM_0_enable_output_ch0();
// #endif
//-------------------------------------------------------------------------------------------------
	sei();									// АьГј АОЕН·ҙЕН ҪГАЫ
    2270:	78 94       	sei
	Alarm();								// ҫЛ¶ч(әсЗБ 3№ш)
    2272:	0e 94 ff 07 	call	0xffe	; 0xffe <Alarm>
	Rx_LED_OFF;								// RX LED OFF
    2276:	e4 e2       	ldi	r30, 0x24	; 36
    2278:	f4 e0       	ldi	r31, 0x04	; 4
    227a:	80 81       	ld	r24, Z
    227c:	87 7f       	andi	r24, 0xF7	; 247
    227e:	80 83       	st	Z, r24
	Tx_LED_OFF;								// TX LED OFF
    2280:	80 81       	ld	r24, Z
    2282:	8b 7f       	andi	r24, 0xFB	; 251
    2284:	80 83       	st	Z, r24
//-------------------------------------------------------------------------------------------------
	DIGIT[0][3] = FND_OFF;							// ЖЯҝюҫо №цБҜ ЗҘҪГ
    2286:	e1 e9       	ldi	r30, 0x91	; 145
    2288:	f1 e4       	ldi	r31, 0x41	; 65
    228a:	13 82       	std	Z+3, r1	; 0x03
	DIGIT[0][2] = fnd_tbl[FW_VER / 10] + FND_Point;
    228c:	87 e6       	ldi	r24, 0x67	; 103
    228e:	82 83       	std	Z+2, r24	; 0x02
	DIGIT[0][1] = fnd_tbl[FW_VER % 10];
    2290:	86 e6       	ldi	r24, 0x66	; 102
    2292:	81 83       	std	Z+1, r24	; 0x01
	DIGIT[0][0] = FND_OFF;
    2294:	10 82       	st	Z, r1
    2296:	2f ef       	ldi	r18, 0xFF	; 255
    2298:	8f ef       	ldi	r24, 0xFF	; 255
    229a:	9c e2       	ldi	r25, 0x2C	; 44
    229c:	21 50       	subi	r18, 0x01	; 1
    229e:	80 40       	sbci	r24, 0x00	; 0
    22a0:	90 40       	sbci	r25, 0x00	; 0
    22a2:	e1 f7       	brne	.-8      	; 0x229c <main+0xb2>
    22a4:	00 c0       	rjmp	.+0      	; 0x22a6 <main+0xbc>
    22a6:	00 00       	nop
	_delay_ms(1000);							// 1ГК өҝҫИ ЗҘҪГ
	wdt_reset();								// Reset WT
    22a8:	0e 94 8c 0e 	call	0x1d18	; 0x1d18 <wdt_reset>

	Time_Count = 5;								// ҪГ°Ј ЗҘҪГ ҝл әҜјц јіБӨ
    22ac:	85 e0       	ldi	r24, 0x05	; 5
    22ae:	80 93 87 51 	sts	0x5187, r24	; 0x805187 <Time_Count>
	Sec_Count = 0;
    22b2:	10 92 24 51 	sts	0x5124, r1	; 0x805124 <Sec_Count>
	SECOND = 0;								// АМАь ҪГ°Ј(ГК)ҝл әҜјц јіБӨ
    22b6:	10 92 a4 52 	sts	0x52A4, r1	; 0x8052a4 <SECOND>
	Read_eeprom();
    22ba:	0e 94 d0 06 	call	0xda0	; 0xda0 <Read_eeprom>
//-------------------------------------------------------------------------------------------------
	while(Time_Count)							// Time_Count °Ў 0АМ ҫЖҙПёй №Эә№(5ГКөҝҫИ ҪГ°ЈЗҘҪГ)
    22be:	8d b7       	in	r24, 0x3d	; 61
    22c0:	9e b7       	in	r25, 0x3e	; 62
    22c2:	0c 96       	adiw	r24, 0x0c	; 12
    22c4:	8d bf       	out	0x3d, r24	; 61
    22c6:	9e bf       	out	0x3e, r25	; 62
    22c8:	ae c0       	rjmp	.+348    	; 0x2426 <main+0x23c>
	{
		RTC_Time_Read();						// RTC Data АРұв
    22ca:	0e 94 ae 29 	call	0x535c	; 0x535c <RTC_Time_Read>

		DIGIT[0][3] = fnd_tbl[RTC_T.Year / 10];				// ів ЗҘҪГ
    22ce:	c2 e5       	ldi	r28, 0x52	; 82
    22d0:	d1 e5       	ldi	r29, 0x51	; 81
    22d2:	9e 81       	ldd	r25, Y+6	; 0x06
    22d4:	8d ec       	ldi	r24, 0xCD	; 205
    22d6:	98 9f       	mul	r25, r24
    22d8:	21 2d       	mov	r18, r1
    22da:	11 24       	eor	r1, r1
    22dc:	26 95       	lsr	r18
    22de:	26 95       	lsr	r18
    22e0:	26 95       	lsr	r18
    22e2:	e2 2f       	mov	r30, r18
    22e4:	f0 e0       	ldi	r31, 0x00	; 0
    22e6:	e5 5a       	subi	r30, 0xA5	; 165
    22e8:	fe 4b       	sbci	r31, 0xBE	; 190
    22ea:	30 81       	ld	r19, Z
    22ec:	e1 e9       	ldi	r30, 0x91	; 145
    22ee:	f1 e4       	ldi	r31, 0x41	; 65
    22f0:	33 83       	std	Z+3, r19	; 0x03
		DIGIT[0][2] = fnd_tbl[RTC_T.Year % 10];
    22f2:	22 0f       	add	r18, r18
    22f4:	32 2f       	mov	r19, r18
    22f6:	33 0f       	add	r19, r19
    22f8:	33 0f       	add	r19, r19
    22fa:	23 0f       	add	r18, r19
    22fc:	a9 2f       	mov	r26, r25
    22fe:	a2 1b       	sub	r26, r18
    2300:	b0 e0       	ldi	r27, 0x00	; 0
    2302:	a5 5a       	subi	r26, 0xA5	; 165
    2304:	be 4b       	sbci	r27, 0xBE	; 190
    2306:	9c 91       	ld	r25, X
    2308:	92 83       	std	Z+2, r25	; 0x02

		DIGIT[0][1] = fnd_tbl[RTC_T.Month / 10];			// ҝщ ЗҘҪГ
    230a:	9d 81       	ldd	r25, Y+5	; 0x05
    230c:	98 9f       	mul	r25, r24
    230e:	21 2d       	mov	r18, r1
    2310:	11 24       	eor	r1, r1
    2312:	26 95       	lsr	r18
    2314:	26 95       	lsr	r18
    2316:	26 95       	lsr	r18
    2318:	a2 2f       	mov	r26, r18
    231a:	b0 e0       	ldi	r27, 0x00	; 0
    231c:	a5 5a       	subi	r26, 0xA5	; 165
    231e:	be 4b       	sbci	r27, 0xBE	; 190
    2320:	3c 91       	ld	r19, X
    2322:	31 83       	std	Z+1, r19	; 0x01
		DIGIT[0][0] = fnd_tbl[RTC_T.Month % 10];
    2324:	22 0f       	add	r18, r18
    2326:	32 2f       	mov	r19, r18
    2328:	33 0f       	add	r19, r19
    232a:	33 0f       	add	r19, r19
    232c:	23 0f       	add	r18, r19
    232e:	a9 2f       	mov	r26, r25
    2330:	a2 1b       	sub	r26, r18
    2332:	b0 e0       	ldi	r27, 0x00	; 0
    2334:	a5 5a       	subi	r26, 0xA5	; 165
    2336:	be 4b       	sbci	r27, 0xBE	; 190
    2338:	9c 91       	ld	r25, X
    233a:	90 83       	st	Z, r25

		DIGIT[1][3] = fnd_tbl[RTC_T.Date / 10];				// АП ЗҘҪГ
    233c:	9c 81       	ldd	r25, Y+4	; 0x04
    233e:	98 9f       	mul	r25, r24
    2340:	21 2d       	mov	r18, r1
    2342:	11 24       	eor	r1, r1
    2344:	26 95       	lsr	r18
    2346:	26 95       	lsr	r18
    2348:	26 95       	lsr	r18
    234a:	a2 2f       	mov	r26, r18
    234c:	b0 e0       	ldi	r27, 0x00	; 0
    234e:	a5 5a       	subi	r26, 0xA5	; 165
    2350:	be 4b       	sbci	r27, 0xBE	; 190
    2352:	3c 91       	ld	r19, X
    2354:	37 83       	std	Z+7, r19	; 0x07
		DIGIT[1][2] = fnd_tbl[RTC_T.Date % 10];
    2356:	22 0f       	add	r18, r18
    2358:	32 2f       	mov	r19, r18
    235a:	33 0f       	add	r19, r19
    235c:	33 0f       	add	r19, r19
    235e:	23 0f       	add	r18, r19
    2360:	a9 2f       	mov	r26, r25
    2362:	a2 1b       	sub	r26, r18
    2364:	b0 e0       	ldi	r27, 0x00	; 0
    2366:	a5 5a       	subi	r26, 0xA5	; 165
    2368:	be 4b       	sbci	r27, 0xBE	; 190
    236a:	9c 91       	ld	r25, X
    236c:	96 83       	std	Z+6, r25	; 0x06

		DIGIT[1][1] = fnd_tbl[RTC_T.Hour / 10];				// ҪГ ЗҘҪГ
    236e:	9a 81       	ldd	r25, Y+2	; 0x02
    2370:	98 9f       	mul	r25, r24
    2372:	21 2d       	mov	r18, r1
    2374:	11 24       	eor	r1, r1
    2376:	26 95       	lsr	r18
    2378:	26 95       	lsr	r18
    237a:	26 95       	lsr	r18
    237c:	a2 2f       	mov	r26, r18
    237e:	b0 e0       	ldi	r27, 0x00	; 0
    2380:	a5 5a       	subi	r26, 0xA5	; 165
    2382:	be 4b       	sbci	r27, 0xBE	; 190
    2384:	3c 91       	ld	r19, X
    2386:	35 83       	std	Z+5, r19	; 0x05
		DIGIT[1][0] = fnd_tbl[RTC_T.Hour % 10];
    2388:	22 0f       	add	r18, r18
    238a:	32 2f       	mov	r19, r18
    238c:	33 0f       	add	r19, r19
    238e:	33 0f       	add	r19, r19
    2390:	23 0f       	add	r18, r19
    2392:	a9 2f       	mov	r26, r25
    2394:	a2 1b       	sub	r26, r18
    2396:	b0 e0       	ldi	r27, 0x00	; 0
    2398:	a5 5a       	subi	r26, 0xA5	; 165
    239a:	be 4b       	sbci	r27, 0xBE	; 190
    239c:	9c 91       	ld	r25, X
    239e:	94 83       	std	Z+4, r25	; 0x04

		DIGIT[2][3] = fnd_tbl[RTC_T.Min / 10];				// әР ЗҘҪГ
    23a0:	99 81       	ldd	r25, Y+1	; 0x01
    23a2:	98 9f       	mul	r25, r24
    23a4:	21 2d       	mov	r18, r1
    23a6:	11 24       	eor	r1, r1
    23a8:	26 95       	lsr	r18
    23aa:	26 95       	lsr	r18
    23ac:	26 95       	lsr	r18
    23ae:	a2 2f       	mov	r26, r18
    23b0:	b0 e0       	ldi	r27, 0x00	; 0
    23b2:	a5 5a       	subi	r26, 0xA5	; 165
    23b4:	be 4b       	sbci	r27, 0xBE	; 190
    23b6:	3c 91       	ld	r19, X
    23b8:	33 87       	std	Z+11, r19	; 0x0b
		DIGIT[2][2] = fnd_tbl[RTC_T.Min % 10];
    23ba:	22 0f       	add	r18, r18
    23bc:	32 2f       	mov	r19, r18
    23be:	33 0f       	add	r19, r19
    23c0:	33 0f       	add	r19, r19
    23c2:	23 0f       	add	r18, r19
    23c4:	a9 2f       	mov	r26, r25
    23c6:	a2 1b       	sub	r26, r18
    23c8:	b0 e0       	ldi	r27, 0x00	; 0
    23ca:	a5 5a       	subi	r26, 0xA5	; 165
    23cc:	be 4b       	sbci	r27, 0xBE	; 190
    23ce:	9c 91       	ld	r25, X
    23d0:	92 87       	std	Z+10, r25	; 0x0a

		DIGIT[2][1] = fnd_tbl[RTC_T.Sec / 10];				// ГК ЗҘҪГ
    23d2:	98 81       	ld	r25, Y
    23d4:	98 9f       	mul	r25, r24
    23d6:	81 2d       	mov	r24, r1
    23d8:	11 24       	eor	r1, r1
    23da:	86 95       	lsr	r24
    23dc:	86 95       	lsr	r24
    23de:	86 95       	lsr	r24
    23e0:	a8 2f       	mov	r26, r24
    23e2:	b0 e0       	ldi	r27, 0x00	; 0
    23e4:	a5 5a       	subi	r26, 0xA5	; 165
    23e6:	be 4b       	sbci	r27, 0xBE	; 190
    23e8:	2c 91       	ld	r18, X
    23ea:	21 87       	std	Z+9, r18	; 0x09
		DIGIT[2][0] = fnd_tbl[RTC_T.Sec % 10];
    23ec:	88 0f       	add	r24, r24
    23ee:	28 2f       	mov	r18, r24
    23f0:	22 0f       	add	r18, r18
    23f2:	22 0f       	add	r18, r18
    23f4:	82 0f       	add	r24, r18
    23f6:	a9 2f       	mov	r26, r25
    23f8:	a8 1b       	sub	r26, r24
    23fa:	b0 e0       	ldi	r27, 0x00	; 0
    23fc:	a5 5a       	subi	r26, 0xA5	; 165
    23fe:	be 4b       	sbci	r27, 0xBE	; 190
    2400:	8c 91       	ld	r24, X
    2402:	80 87       	std	Z+8, r24	; 0x08

		if(SECOND != RTC_T.Sec)						// АМАь ҪГ°Ј(ГК)АМ ЗцАзҪГ°Ј(ГК)ҝН °°Бц ҫКАёёй
    2404:	80 91 a4 52 	lds	r24, 0x52A4	; 0x8052a4 <SECOND>
    2408:	98 17       	cp	r25, r24
    240a:	69 f0       	breq	.+26     	; 0x2426 <main+0x23c>
		{
			SECOND = RTC_T.Sec;					// АМАь ҪГ°Ј(ГК)ҝЎ ЗцАзҪГ°Ј(ГК) АъАе	
    240c:	90 93 a4 52 	sts	0x52A4, r25	; 0x8052a4 <SECOND>
			Beep(10);						// әсЗБ(1ГКҝЎ 1№шҫҝ)
    2410:	8a e0       	ldi	r24, 0x0A	; 10
    2412:	90 e0       	ldi	r25, 0x00	; 0
    2414:	0e 94 42 04 	call	0x884	; 0x884 <Beep>
			wdt_reset();						// Reset WDT
    2418:	0e 94 8c 0e 	call	0x1d18	; 0x1d18 <wdt_reset>
			Time_Count--;						// Time_Count °ЁјТ
    241c:	80 91 87 51 	lds	r24, 0x5187	; 0x805187 <Time_Count>
    2420:	81 50       	subi	r24, 0x01	; 1
    2422:	80 93 87 51 	sts	0x5187, r24	; 0x805187 <Time_Count>
	Time_Count = 5;								// ҪГ°Ј ЗҘҪГ ҝл әҜјц јіБӨ
	Sec_Count = 0;
	SECOND = 0;								// АМАь ҪГ°Ј(ГК)ҝл әҜјц јіБӨ
	Read_eeprom();
//-------------------------------------------------------------------------------------------------
	while(Time_Count)							// Time_Count °Ў 0АМ ҫЖҙПёй №Эә№(5ГКөҝҫИ ҪГ°ЈЗҘҪГ)
    2426:	80 91 87 51 	lds	r24, 0x5187	; 0x805187 <Time_Count>
    242a:	81 11       	cpse	r24, r1
    242c:	4e cf       	rjmp	.-356    	; 0x22ca <main+0xe0>
			Beep(10);						// әсЗБ(1ГКҝЎ 1№шҫҝ)
			wdt_reset();						// Reset WDT
			Time_Count--;						// Time_Count °ЁјТ
		}
	}
	Var_Init();								// әҜјц №Ч ·Оөејҝ ГКұвИӯ
    242e:	0e 94 58 0e 	call	0x1cb0	; 0x1cb0 <Var_Init>
	wdt_reset();								// Reset WDT
    2432:	0e 94 8c 0e 	call	0x1d18	; 0x1d18 <wdt_reset>
	}

//-------------------------------------------------------------------------------------------------
	while(1)
	{
		if(Sec_Count < 36) {Check_Value();}				// 5Sec x 36 = 180Sec әёҙЩ Е©ёй FND ALL OFF
    2436:	80 91 24 51 	lds	r24, 0x5124	; 0x805124 <Sec_Count>
    243a:	84 32       	cpi	r24, 0x24	; 36
    243c:	38 f4       	brcc	.+14     	; 0x244c <main+0x262>
    243e:	0e 94 8a 08 	call	0x1114	; 0x1114 <Check_Value>
    2442:	0c c0       	rjmp	.+24     	; 0x245c <main+0x272>
		else
		{
			while(!KEY.Buff)
			{
				FND_ALL_OFF();					// FND АьәО
    2444:	0e 94 ec 05 	call	0xbd8	; 0xbd8 <FND_ALL_OFF>
				wdt_reset();					// Reset WDT
    2448:	0e 94 8c 0e 	call	0x1d18	; 0x1d18 <wdt_reset>
	while(1)
	{
		if(Sec_Count < 36) {Check_Value();}				// 5Sec x 36 = 180Sec әёҙЩ Е©ёй FND ALL OFF
		else
		{
			while(!KEY.Buff)
    244c:	80 91 68 51 	lds	r24, 0x5168	; 0x805168 <KEY+0x1>
    2450:	88 23       	and	r24, r24
    2452:	c1 f3       	breq	.-16     	; 0x2444 <main+0x25a>
			{
				FND_ALL_OFF();					// FND АьәО
				wdt_reset();					// Reset WDT
			}
			KEY.Buff = 0;
    2454:	10 92 68 51 	sts	0x5168, r1	; 0x805168 <KEY+0x1>
			Var_Init();						// әҜјц №Ч ·Оөејҝ ГКұвИӯ
    2458:	0e 94 58 0e 	call	0x1cb0	; 0x1cb0 <Var_Init>
		}
		Check_Value();
    245c:	0e 94 8a 08 	call	0x1114	; 0x1114 <Check_Value>

		if(SET.Menu)   {Seting_Mode_0();}				// SET Menu   °Ў јіБӨөЗҫо АЦАёёй Seting_Mode_0 БшАФ
    2460:	80 91 28 51 	lds	r24, 0x5128	; 0x805128 <SET>
    2464:	81 11       	cpse	r24, r1
    2466:	0e 94 da 0e 	call	0x1db4	; 0x1db4 <Seting_Mode_0>
		if(SET.NumSET) {Seting_Mode_1();}				// SET.NumSET °Ў јіБӨөЗҫо АЦАёёй Seting_Mode_1 БшАФ
    246a:	80 91 2a 51 	lds	r24, 0x512A	; 0x80512a <SET+0x2>
    246e:	81 11       	cpse	r24, r1
    2470:	0e 94 8f 0f 	call	0x1f1e	; 0x1f1e <Seting_Mode_1>
		Receiv_PC();							// PC·О әОЕН өҘАМЕНјцҪЕ И®АО
    2474:	0e 94 07 0c 	call	0x180e	; 0x180e <Receiv_PC>
		Time_Check();							// ҪГ°Ј ГјЕ©(іҜВҘәҜ°ж И®АО)
    2478:	0e 94 7c 0d 	call	0x1af8	; 0x1af8 <Time_Check>
    247c:	9f ef       	ldi	r25, 0xFF	; 255
    247e:	2f e3       	ldi	r18, 0x3F	; 63
    2480:	82 e0       	ldi	r24, 0x02	; 2
    2482:	91 50       	subi	r25, 0x01	; 1
    2484:	20 40       	sbci	r18, 0x00	; 0
    2486:	80 40       	sbci	r24, 0x00	; 0
    2488:	e1 f7       	brne	.-8      	; 0x2482 <main+0x298>
    248a:	00 c0       	rjmp	.+0      	; 0x248c <main+0x2a2>
    248c:	00 00       	nop
		_delay_ms(50);							// ҝ¬јУ өҝАЫА» ё·ұвА§ЗС Delay
		wdt_reset();							// Reset WDT
    248e:	0e 94 8c 0e 	call	0x1d18	; 0x1d18 <wdt_reset>
	}
    2492:	d1 cf       	rjmp	.-94     	; 0x2436 <main+0x24c>

00002494 <BOD_init>:
    2494:	10 92 89 00 	sts	0x0089, r1	; 0x800089 <__TEXT_REGION_LENGTH__+0x7e0089>
    2498:	80 e0       	ldi	r24, 0x00	; 0
    249a:	08 95       	ret

0000249c <CLKCTRL_init>:
    249c:	43 e0       	ldi	r20, 0x03	; 3
    249e:	68 ed       	ldi	r22, 0xD8	; 216
    24a0:	80 e6       	ldi	r24, 0x60	; 96
    24a2:	90 e0       	ldi	r25, 0x00	; 0
    24a4:	0e 94 9a 29 	call	0x5334	; 0x5334 <protected_write_io>
    24a8:	80 91 63 00 	lds	r24, 0x0063	; 0x800063 <__TEXT_REGION_LENGTH__+0x7e0063>
    24ac:	80 fd       	sbrc	r24, 0
    24ae:	fc cf       	rjmp	.-8      	; 0x24a8 <CLKCTRL_init+0xc>
    24b0:	80 e0       	ldi	r24, 0x00	; 0
    24b2:	08 95       	ret

000024b4 <mcu_init>:
	 * disables all peripherals to save power. Driver shall enable
	 * peripheral if used */

	/* Set all pins to low power mode */

	for (uint8_t i = 0; i < 8; i++) {
    24b4:	80 e0       	ldi	r24, 0x00	; 0
    24b6:	08 c0       	rjmp	.+16     	; 0x24c8 <mcu_init+0x14>
		*((uint8_t *)&PORTA + 0x10 + i) |= 1 << PORT_PULLUPEN_bp;
    24b8:	e8 2f       	mov	r30, r24
    24ba:	f0 e0       	ldi	r31, 0x00	; 0
    24bc:	e0 5f       	subi	r30, 0xF0	; 240
    24be:	fb 4f       	sbci	r31, 0xFB	; 251
    24c0:	90 81       	ld	r25, Z
    24c2:	98 60       	ori	r25, 0x08	; 8
    24c4:	90 83       	st	Z, r25
	 * disables all peripherals to save power. Driver shall enable
	 * peripheral if used */

	/* Set all pins to low power mode */

	for (uint8_t i = 0; i < 8; i++) {
    24c6:	8f 5f       	subi	r24, 0xFF	; 255
    24c8:	88 30       	cpi	r24, 0x08	; 8
    24ca:	b0 f3       	brcs	.-20     	; 0x24b8 <mcu_init+0x4>
    24cc:	80 e0       	ldi	r24, 0x00	; 0
    24ce:	08 c0       	rjmp	.+16     	; 0x24e0 <mcu_init+0x2c>
		*((uint8_t *)&PORTA + 0x10 + i) |= 1 << PORT_PULLUPEN_bp;
	}

	for (uint8_t i = 0; i < 8; i++) {
		*((uint8_t *)&PORTB + 0x10 + i) |= 1 << PORT_PULLUPEN_bp;
    24d0:	e8 2f       	mov	r30, r24
    24d2:	f0 e0       	ldi	r31, 0x00	; 0
    24d4:	e0 5d       	subi	r30, 0xD0	; 208
    24d6:	fb 4f       	sbci	r31, 0xFB	; 251
    24d8:	90 81       	ld	r25, Z
    24da:	98 60       	ori	r25, 0x08	; 8
    24dc:	90 83       	st	Z, r25

	for (uint8_t i = 0; i < 8; i++) {
		*((uint8_t *)&PORTA + 0x10 + i) |= 1 << PORT_PULLUPEN_bp;
	}

	for (uint8_t i = 0; i < 8; i++) {
    24de:	8f 5f       	subi	r24, 0xFF	; 255
    24e0:	88 30       	cpi	r24, 0x08	; 8
    24e2:	b0 f3       	brcs	.-20     	; 0x24d0 <mcu_init+0x1c>
    24e4:	80 e0       	ldi	r24, 0x00	; 0
    24e6:	08 c0       	rjmp	.+16     	; 0x24f8 <mcu_init+0x44>
		*((uint8_t *)&PORTB + 0x10 + i) |= 1 << PORT_PULLUPEN_bp;
	}

	for (uint8_t i = 0; i < 8; i++) {
		*((uint8_t *)&PORTC + 0x10 + i) |= 1 << PORT_PULLUPEN_bp;
    24e8:	e8 2f       	mov	r30, r24
    24ea:	f0 e0       	ldi	r31, 0x00	; 0
    24ec:	e0 5b       	subi	r30, 0xB0	; 176
    24ee:	fb 4f       	sbci	r31, 0xFB	; 251
    24f0:	90 81       	ld	r25, Z
    24f2:	98 60       	ori	r25, 0x08	; 8
    24f4:	90 83       	st	Z, r25

	for (uint8_t i = 0; i < 8; i++) {
		*((uint8_t *)&PORTB + 0x10 + i) |= 1 << PORT_PULLUPEN_bp;
	}

	for (uint8_t i = 0; i < 8; i++) {
    24f6:	8f 5f       	subi	r24, 0xFF	; 255
    24f8:	88 30       	cpi	r24, 0x08	; 8
    24fa:	b0 f3       	brcs	.-20     	; 0x24e8 <mcu_init+0x34>
    24fc:	80 e0       	ldi	r24, 0x00	; 0
    24fe:	08 c0       	rjmp	.+16     	; 0x2510 <mcu_init+0x5c>
		*((uint8_t *)&PORTC + 0x10 + i) |= 1 << PORT_PULLUPEN_bp;
	}

	for (uint8_t i = 0; i < 8; i++) {
		*((uint8_t *)&PORTD + 0x10 + i) |= 1 << PORT_PULLUPEN_bp;
    2500:	e8 2f       	mov	r30, r24
    2502:	f0 e0       	ldi	r31, 0x00	; 0
    2504:	e0 59       	subi	r30, 0x90	; 144
    2506:	fb 4f       	sbci	r31, 0xFB	; 251
    2508:	90 81       	ld	r25, Z
    250a:	98 60       	ori	r25, 0x08	; 8
    250c:	90 83       	st	Z, r25

	for (uint8_t i = 0; i < 8; i++) {
		*((uint8_t *)&PORTC + 0x10 + i) |= 1 << PORT_PULLUPEN_bp;
	}

	for (uint8_t i = 0; i < 8; i++) {
    250e:	8f 5f       	subi	r24, 0xFF	; 255
    2510:	88 30       	cpi	r24, 0x08	; 8
    2512:	b0 f3       	brcs	.-20     	; 0x2500 <mcu_init+0x4c>
    2514:	80 e0       	ldi	r24, 0x00	; 0
    2516:	08 c0       	rjmp	.+16     	; 0x2528 <mcu_init+0x74>
		*((uint8_t *)&PORTD + 0x10 + i) |= 1 << PORT_PULLUPEN_bp;
	}

	for (uint8_t i = 0; i < 8; i++) {
		*((uint8_t *)&PORTE + 0x10 + i) |= 1 << PORT_PULLUPEN_bp;
    2518:	e8 2f       	mov	r30, r24
    251a:	f0 e0       	ldi	r31, 0x00	; 0
    251c:	e0 57       	subi	r30, 0x70	; 112
    251e:	fb 4f       	sbci	r31, 0xFB	; 251
    2520:	90 81       	ld	r25, Z
    2522:	98 60       	ori	r25, 0x08	; 8
    2524:	90 83       	st	Z, r25

	for (uint8_t i = 0; i < 8; i++) {
		*((uint8_t *)&PORTD + 0x10 + i) |= 1 << PORT_PULLUPEN_bp;
	}

	for (uint8_t i = 0; i < 8; i++) {
    2526:	8f 5f       	subi	r24, 0xFF	; 255
    2528:	88 30       	cpi	r24, 0x08	; 8
    252a:	b0 f3       	brcs	.-20     	; 0x2518 <mcu_init+0x64>
    252c:	80 e0       	ldi	r24, 0x00	; 0
    252e:	08 c0       	rjmp	.+16     	; 0x2540 <mcu_init+0x8c>
		*((uint8_t *)&PORTE + 0x10 + i) |= 1 << PORT_PULLUPEN_bp;
	}

	for (uint8_t i = 0; i < 8; i++) {
		*((uint8_t *)&PORTF + 0x10 + i) |= 1 << PORT_PULLUPEN_bp;
    2530:	e8 2f       	mov	r30, r24
    2532:	f0 e0       	ldi	r31, 0x00	; 0
    2534:	e0 55       	subi	r30, 0x50	; 80
    2536:	fb 4f       	sbci	r31, 0xFB	; 251
    2538:	90 81       	ld	r25, Z
    253a:	98 60       	ori	r25, 0x08	; 8
    253c:	90 83       	st	Z, r25

	for (uint8_t i = 0; i < 8; i++) {
		*((uint8_t *)&PORTE + 0x10 + i) |= 1 << PORT_PULLUPEN_bp;
	}

	for (uint8_t i = 0; i < 8; i++) {
    253e:	8f 5f       	subi	r24, 0xFF	; 255
    2540:	88 30       	cpi	r24, 0x08	; 8
    2542:	b0 f3       	brcs	.-20     	; 0x2530 <mcu_init+0x7c>
    2544:	80 e0       	ldi	r24, 0x00	; 0
    2546:	08 c0       	rjmp	.+16     	; 0x2558 <mcu_init+0xa4>
		*((uint8_t *)&PORTF + 0x10 + i) |= 1 << PORT_PULLUPEN_bp;
	}

	for (uint8_t i = 0; i < 8; i++) {
		*((uint8_t *)&PORTG + 0x10 + i) |= 1 << PORT_PULLUPEN_bp;
    2548:	e8 2f       	mov	r30, r24
    254a:	f0 e0       	ldi	r31, 0x00	; 0
    254c:	e0 53       	subi	r30, 0x30	; 48
    254e:	fb 4f       	sbci	r31, 0xFB	; 251
    2550:	90 81       	ld	r25, Z
    2552:	98 60       	ori	r25, 0x08	; 8
    2554:	90 83       	st	Z, r25

	for (uint8_t i = 0; i < 8; i++) {
		*((uint8_t *)&PORTF + 0x10 + i) |= 1 << PORT_PULLUPEN_bp;
	}

	for (uint8_t i = 0; i < 8; i++) {
    2556:	8f 5f       	subi	r24, 0xFF	; 255
    2558:	88 30       	cpi	r24, 0x08	; 8
    255a:	b0 f3       	brcs	.-20     	; 0x2548 <mcu_init+0x94>
		*((uint8_t *)&PORTG + 0x10 + i) |= 1 << PORT_PULLUPEN_bp;
	}
}
    255c:	08 95       	ret

0000255e <I2C_0_initialization>:
static inline void PORTF_set_pin_level(const uint8_t pin, const bool level)
{
	if (level == true) {
		VPORTF.OUT |= (1 << pin);
	} else {
		VPORTF.OUT &= ~(1 << pin);
    255e:	85 b3       	in	r24, 0x15	; 21
    2560:	87 7f       	andi	r24, 0xF7	; 247
    2562:	85 bb       	out	0x15, r24	; 21
	switch (dir) {
	case PORT_DIR_IN:
		VPORTF.DIR &= ~(1 << pin);
		break;
	case PORT_DIR_OUT:
		VPORTF.DIR |= (1 << pin);
    2564:	84 b3       	in	r24, 0x14	; 20
    2566:	88 60       	ori	r24, 0x08	; 8
    2568:	84 bb       	out	0x14, r24	; 20
	volatile uint8_t *port_pin_ctrl = ((uint8_t *)&PORTF + 0x10 + pin);

	if (pull_mode == PORT_PULL_UP) {
		*port_pin_ctrl |= PORT_PULLUPEN_bm;
	} else if (pull_mode == PORT_PULL_OFF) {
		*port_pin_ctrl &= ~PORT_PULLUPEN_bm;
    256a:	e3 eb       	ldi	r30, 0xB3	; 179
    256c:	f4 e0       	ldi	r31, 0x04	; 4
    256e:	80 81       	ld	r24, Z
    2570:	87 7f       	andi	r24, 0xF7	; 247
    2572:	80 83       	st	Z, r24
	volatile uint8_t *port_pin_ctrl = ((uint8_t *)&PORTF + 0x10 + pin);

	if (inverted) {
		*port_pin_ctrl |= PORT_INVEN_bm;
	} else {
		*port_pin_ctrl &= ~PORT_INVEN_bm;
    2574:	80 81       	ld	r24, Z
    2576:	8f 77       	andi	r24, 0x7F	; 127
    2578:	80 83       	st	Z, r24
 */
static inline void PORTF_pin_set_isc(const uint8_t pin, const PORT_ISC_t isc)
{
	volatile uint8_t *port_pin_ctrl = ((uint8_t *)&PORTF + 0x10 + pin);

	*port_pin_ctrl = (*port_pin_ctrl & ~PORT_ISC_gm) | isc;
    257a:	80 81       	ld	r24, Z
    257c:	88 7f       	andi	r24, 0xF8	; 248
    257e:	80 83       	st	Z, r24
static inline void PORTF_set_pin_level(const uint8_t pin, const bool level)
{
	if (level == true) {
		VPORTF.OUT |= (1 << pin);
	} else {
		VPORTF.OUT &= ~(1 << pin);
    2580:	85 b3       	in	r24, 0x15	; 21
    2582:	8b 7f       	andi	r24, 0xFB	; 251
    2584:	85 bb       	out	0x15, r24	; 21
	switch (dir) {
	case PORT_DIR_IN:
		VPORTF.DIR &= ~(1 << pin);
		break;
	case PORT_DIR_OUT:
		VPORTF.DIR |= (1 << pin);
    2586:	84 b3       	in	r24, 0x14	; 20
    2588:	84 60       	ori	r24, 0x04	; 4
    258a:	84 bb       	out	0x14, r24	; 20
	volatile uint8_t *port_pin_ctrl = ((uint8_t *)&PORTF + 0x10 + pin);

	if (pull_mode == PORT_PULL_UP) {
		*port_pin_ctrl |= PORT_PULLUPEN_bm;
	} else if (pull_mode == PORT_PULL_OFF) {
		*port_pin_ctrl &= ~PORT_PULLUPEN_bm;
    258c:	e2 eb       	ldi	r30, 0xB2	; 178
    258e:	f4 e0       	ldi	r31, 0x04	; 4
    2590:	80 81       	ld	r24, Z
    2592:	87 7f       	andi	r24, 0xF7	; 247
    2594:	80 83       	st	Z, r24
	volatile uint8_t *port_pin_ctrl = ((uint8_t *)&PORTF + 0x10 + pin);

	if (inverted) {
		*port_pin_ctrl |= PORT_INVEN_bm;
	} else {
		*port_pin_ctrl &= ~PORT_INVEN_bm;
    2596:	80 81       	ld	r24, Z
    2598:	8f 77       	andi	r24, 0x7F	; 127
    259a:	80 83       	st	Z, r24
 */
static inline void PORTF_pin_set_isc(const uint8_t pin, const PORT_ISC_t isc)
{
	volatile uint8_t *port_pin_ctrl = ((uint8_t *)&PORTF + 0x10 + pin);

	*port_pin_ctrl = (*port_pin_ctrl & ~PORT_ISC_gm) | isc;
    259c:	80 81       	ld	r24, Z
    259e:	88 7f       	andi	r24, 0xF8	; 248
    25a0:	80 83       	st	Z, r24
	// <PORT_ISC_FALLING_gc"> Sense Falling Edge
	// <PORT_ISC_INPUT_DISABLE_gc"> Digital Input Buffer disabled
	// <PORT_ISC_LEVEL_gc"> Sense low Level
	PORT_ISC_INTDISABLE_gc);

	I2C_0_init();
    25a2:	0e 94 c8 16 	call	0x2d90	; 0x2d90 <I2C_0_init>
    25a6:	08 95       	ret

000025a8 <USART_1_initialization>:
//=================================================================================================
#ifdef Usart_1
void USART_1_initialization(void)			// USART 1 АЗ ЗЙА» јіБӨЗП°н ·№БцҪәЕНёҰ ГКұвИӯ
{
	#if Usart_1 == 0
	PORTMUX.USARTROUTEA &= ~PORTMUX_USART10_bm;	// USART 1 јЫ,јцҪЕ : Pin PC0, PC1 ·О әҜ°ж
    25a8:	e0 ee       	ldi	r30, 0xE0	; 224
    25aa:	f5 e0       	ldi	r31, 0x05	; 5
    25ac:	82 81       	ldd	r24, Z+2	; 0x02
    25ae:	8b 7f       	andi	r24, 0xFB	; 251
    25b0:	82 83       	std	Z+2, r24	; 0x02
	PORTC.DIR |=  PIN0_bm;				// set pin 0 of	PORT C (TXd) as	output (PORT C (TXd)АЗ 0№ш ЗЙА» Гв·ВАё·О јіБӨ)
    25b2:	e0 e4       	ldi	r30, 0x40	; 64
    25b4:	f4 e0       	ldi	r31, 0x04	; 4
    25b6:	80 81       	ld	r24, Z
    25b8:	81 60       	ori	r24, 0x01	; 1
    25ba:	80 83       	st	Z, r24
	PORTC.DIR &= ~PIN1_bm;				// set pin 1 of	PORT C (RXd) as	input  (PORT C (RXd)АЗ 1№ш ЗЙА» АФ·ВАё·О јіБӨ)
    25bc:	80 81       	ld	r24, Z
    25be:	8d 7f       	andi	r24, 0xFD	; 253
    25c0:	80 83       	st	Z, r24
	#elif Usart_1 == 1
	PORTMUX.USARTROUTEA |= PORTMUX_USART10_bm;	// USART 1 јЫ,јцҪЕ : Pin PC4, PC5 ·О әҜ°ж
	PORTC.DIR |=  PIN4_bm;				// set pin 4 of	PORT C (TXd) as	output (PORT C (TXd)АЗ 4№ш ЗЙА» Гв·ВАё·О јіБӨ)
	PORTC.DIR &= ~PIN5_bm;				// set pin 5 of	PORT C (RXd) as	input  (PORT C (RXd)АЗ 5№ш ЗЙА» АФ·ВАё·О јіБӨ)
	#endif
	USART_1_init();
    25c2:	0e 94 79 2d 	call	0x5af2	; 0x5af2 <USART_1_init>
    25c6:	08 95       	ret

000025c8 <USART_3_initialization>:
//=================================================================================================
#ifdef Usart_3
void USART_3_initialization(void)			// USART 3 АЗ ЗЙА» јіБӨЗП°н ·№БцҪәЕНёҰ ГКұвИӯ
{
	#if Usart_3 == 0
	PORTMUX.USARTROUTEA &= ~PORTMUX_USART30_bm;	// USART 3 јЫ,јцҪЕ : Pin PB0, PB1 ·О әҜ°ж
    25c8:	e0 ee       	ldi	r30, 0xE0	; 224
    25ca:	f5 e0       	ldi	r31, 0x05	; 5
    25cc:	82 81       	ldd	r24, Z+2	; 0x02
    25ce:	8f 7b       	andi	r24, 0xBF	; 191
    25d0:	82 83       	std	Z+2, r24	; 0x02
	PORTB.DIR |=  PIN0_bm;				// set pin 0 of	PORT B (TXd) as	output (PORT B (TXd)АЗ 0№ш ЗЙА» Гв·ВАё·О јіБӨ)
    25d2:	e0 e2       	ldi	r30, 0x20	; 32
    25d4:	f4 e0       	ldi	r31, 0x04	; 4
    25d6:	80 81       	ld	r24, Z
    25d8:	81 60       	ori	r24, 0x01	; 1
    25da:	80 83       	st	Z, r24
	PORTB.DIR &= ~PIN1_bm;				// set pin 1 of	PORT B (RXd) as	input  (PORT B (RXd)АЗ 1№ш ЗЙА» АФ·ВАё·О јіБӨ)
    25dc:	80 81       	ld	r24, Z
    25de:	8d 7f       	andi	r24, 0xFD	; 253
    25e0:	80 83       	st	Z, r24
	#elif Usart_3 == 1
	PORTMUX.USARTROUTEA |= PORTMUX_USART30_bm;	// USART 3 јЫ,јцҪЕ : Pin PB4, PB5 ·О әҜ°ж
	PORTB.DIR |=  PIN4_bm;				// set pin 4 of	PORT B (TXd) as output (PORT B (TXd)АЗ 4№ш ЗЙА» Гв·ВАё·О јіБӨ)
	PORTB.DIR &= ~PIN5_bm;				// set pin 5 of	PORT B (RXd) as input  (PORT B (RXd)АЗ 5№ш ЗЙА» АФ·ВАё·О јіБӨ)
	#endif
	USART_3_init();
    25e2:	0e 94 8e 2d 	call	0x5b1c	; 0x5b1c <USART_3_init>
    25e6:	08 95       	ret

000025e8 <system_init>:
#endif

//=================================================================================================
void system_init()
{
	mcu_init();
    25e8:	0e 94 5a 12 	call	0x24b4	; 0x24b4 <mcu_init>
//-------------------------------------------------------------------------------------------------
	CLKCTRL_init();
    25ec:	0e 94 4e 12 	call	0x249c	; 0x249c <CLKCTRL_init>
#ifdef Usart_0
	USART_0_initialization();			// USART 0 АЗ ЗЙА» јіБӨЗП°н ·№БцҪәЕНёҰ ГКұвИӯ
#endif
//-------------------------------------------------------------------------------------------------
#ifdef Usart_1
	USART_1_initialization();			// USART 1 АЗ ЗЙА» јіБӨЗП°н ·№БцҪәЕНёҰ ГКұвИӯ
    25f0:	0e 94 d4 12 	call	0x25a8	; 0x25a8 <USART_1_initialization>
#ifdef Usart_2
	USART_2_initialization();			// USART 2 АЗ ЗЙА» јіБӨЗП°н ·№БцҪәЕНёҰ ГКұвИӯ
#endif
//-------------------------------------------------------------------------------------------------
#ifdef Usart_3
 	USART_3_initialization();			// USART 3 АЗ ЗЙА» јіБӨЗП°н ·№БцҪәЕНёҰ ГКұвИӯ
    25f4:	0e 94 e4 12 	call	0x25c8	; 0x25c8 <USART_3_initialization>
//-------------------------------------------------------------------------------------------------
#ifdef PWM_SET
	PWM_0_initialization();					// PWM0 АЗ ЗЙА» јіБӨЗП°н ·№БцҪәЕНёҰ ГКұвИӯ
#endif
//-------------------------------------------------------------------------------------------------
	SLPCTRL_init();
    25f8:	0e 94 6b 2d 	call	0x5ad6	; 0x5ad6 <SLPCTRL_init>
#ifdef Timer_0
	TIMER_0_init();
#endif
//-------------------------------------------------------------------------------------------------
#ifdef Timer_1
	TIMER_1_init();
    25fc:	0e 94 6d 2d 	call	0x5ada	; 0x5ada <TIMER_1_init>
#endif
//-------------------------------------------------------------------------------------------------
	BOD_init();
    2600:	0e 94 4a 12 	call	0x2494	; 0x2494 <BOD_init>
//-------------------------------------------------------------------------------------------------
	WDT_init();
    2604:	0e 94 cb 2d 	call	0x5b96	; 0x5b96 <WDT_init>
//-------------------------------------------------------------------------------------------------
	I2C_0_initialization();
    2608:	0e 94 af 12 	call	0x255e	; 0x255e <I2C_0_initialization>
    260c:	08 95       	ret

0000260e <ee_read_byte>:
    260e:	81 15       	cp	r24, r1
    2610:	22 e0       	ldi	r18, 0x02	; 2
    2612:	92 07       	cpc	r25, r18
    2614:	10 f0       	brcs	.+4      	; 0x261a <ee_read_byte+0xc>
    2616:	8f ef       	ldi	r24, 0xFF	; 255
    2618:	91 e0       	ldi	r25, 0x01	; 1
    261a:	fc 01       	movw	r30, r24
    261c:	fc 5e       	subi	r31, 0xEC	; 236
    261e:	80 81       	ld	r24, Z
    2620:	08 95       	ret

00002622 <ee_read_word>:
    2622:	8f 3f       	cpi	r24, 0xFF	; 255
    2624:	21 e0       	ldi	r18, 0x01	; 1
    2626:	92 07       	cpc	r25, r18
    2628:	10 f0       	brcs	.+4      	; 0x262e <ee_read_word+0xc>
    262a:	8e ef       	ldi	r24, 0xFE	; 254
    262c:	91 e0       	ldi	r25, 0x01	; 1
    262e:	fc 01       	movw	r30, r24
    2630:	fc 5e       	subi	r31, 0xEC	; 236
    2632:	80 81       	ld	r24, Z
    2634:	91 81       	ldd	r25, Z+1	; 0x01
    2636:	08 95       	ret

00002638 <ee_read_dword>:
    2638:	8d 3f       	cpi	r24, 0xFD	; 253
    263a:	21 e0       	ldi	r18, 0x01	; 1
    263c:	92 07       	cpc	r25, r18
    263e:	10 f0       	brcs	.+4      	; 0x2644 <ee_read_dword+0xc>
    2640:	8c ef       	ldi	r24, 0xFC	; 252
    2642:	91 e0       	ldi	r25, 0x01	; 1
    2644:	fc 01       	movw	r30, r24
    2646:	fc 5e       	subi	r31, 0xEC	; 236
    2648:	60 81       	ld	r22, Z
    264a:	71 81       	ldd	r23, Z+1	; 0x01
    264c:	82 81       	ldd	r24, Z+2	; 0x02
    264e:	93 81       	ldd	r25, Z+3	; 0x03
    2650:	08 95       	ret

00002652 <ee_write_byte>:
    2652:	1f 93       	push	r17
    2654:	cf 93       	push	r28
    2656:	df 93       	push	r29
    2658:	9c 01       	movw	r18, r24
    265a:	21 15       	cp	r18, r1
    265c:	82 e0       	ldi	r24, 0x02	; 2
    265e:	38 07       	cpc	r19, r24
    2660:	b0 f4       	brcc	.+44     	; 0x268e <ee_write_byte+0x3c>
    2662:	90 91 02 10 	lds	r25, 0x1002	; 0x801002 <__TEXT_REGION_LENGTH__+0x7e1002>
    2666:	93 70       	andi	r25, 0x03	; 3
    2668:	e1 f7       	brne	.-8      	; 0x2662 <ee_write_byte+0x10>
    266a:	16 2f       	mov	r17, r22
    266c:	e9 01       	movw	r28, r18
    266e:	43 e1       	ldi	r20, 0x13	; 19
    2670:	6d e9       	ldi	r22, 0x9D	; 157
    2672:	80 e0       	ldi	r24, 0x00	; 0
    2674:	90 e1       	ldi	r25, 0x10	; 16
    2676:	0e 94 9a 29 	call	0x5334	; 0x5334 <protected_write_io>
    267a:	dc 5e       	subi	r29, 0xEC	; 236
    267c:	18 83       	st	Y, r17
    267e:	40 e0       	ldi	r20, 0x00	; 0
    2680:	6d e9       	ldi	r22, 0x9D	; 157
    2682:	80 e0       	ldi	r24, 0x00	; 0
    2684:	90 e1       	ldi	r25, 0x10	; 16
    2686:	0e 94 9a 29 	call	0x5334	; 0x5334 <protected_write_io>
    268a:	81 e0       	ldi	r24, 0x01	; 1
    268c:	01 c0       	rjmp	.+2      	; 0x2690 <ee_write_byte+0x3e>
    268e:	80 e0       	ldi	r24, 0x00	; 0
    2690:	df 91       	pop	r29
    2692:	cf 91       	pop	r28
    2694:	1f 91       	pop	r17
    2696:	08 95       	ret

00002698 <ee_write_word>:
    2698:	cf 92       	push	r12
    269a:	df 92       	push	r13
    269c:	ef 92       	push	r14
    269e:	ff 92       	push	r15
    26a0:	cf 93       	push	r28
    26a2:	df 93       	push	r29
    26a4:	8f 3f       	cpi	r24, 0xFF	; 255
    26a6:	21 e0       	ldi	r18, 0x01	; 1
    26a8:	92 07       	cpc	r25, r18
    26aa:	58 f4       	brcc	.+22     	; 0x26c2 <ee_write_word+0x2a>
    26ac:	ec 01       	movw	r28, r24
    26ae:	6b 01       	movw	r12, r22
    26b0:	0e 94 29 13 	call	0x2652	; 0x2652 <ee_write_byte>
    26b4:	6d 2d       	mov	r22, r13
    26b6:	ce 01       	movw	r24, r28
    26b8:	01 96       	adiw	r24, 0x01	; 1
    26ba:	0e 94 29 13 	call	0x2652	; 0x2652 <ee_write_byte>
    26be:	81 e0       	ldi	r24, 0x01	; 1
    26c0:	01 c0       	rjmp	.+2      	; 0x26c4 <ee_write_word+0x2c>
    26c2:	80 e0       	ldi	r24, 0x00	; 0
    26c4:	df 91       	pop	r29
    26c6:	cf 91       	pop	r28
    26c8:	ff 90       	pop	r15
    26ca:	ef 90       	pop	r14
    26cc:	df 90       	pop	r13
    26ce:	cf 90       	pop	r12
    26d0:	08 95       	ret

000026d2 <ee_write_dword>:
    26d2:	ff 92       	push	r15
    26d4:	0f 93       	push	r16
    26d6:	1f 93       	push	r17
    26d8:	cf 93       	push	r28
    26da:	df 93       	push	r29
    26dc:	8d 3f       	cpi	r24, 0xFD	; 253
    26de:	21 e0       	ldi	r18, 0x01	; 1
    26e0:	92 07       	cpc	r25, r18
    26e2:	c0 f4       	brcc	.+48     	; 0x2714 <ee_write_dword+0x42>
    26e4:	17 2f       	mov	r17, r23
    26e6:	06 2f       	mov	r16, r22
    26e8:	f5 2e       	mov	r15, r21
    26ea:	64 2f       	mov	r22, r20
    26ec:	ec 01       	movw	r28, r24
    26ee:	0e 94 29 13 	call	0x2652	; 0x2652 <ee_write_byte>
    26f2:	6f 2d       	mov	r22, r15
    26f4:	ce 01       	movw	r24, r28
    26f6:	01 96       	adiw	r24, 0x01	; 1
    26f8:	0e 94 29 13 	call	0x2652	; 0x2652 <ee_write_byte>
    26fc:	60 2f       	mov	r22, r16
    26fe:	ce 01       	movw	r24, r28
    2700:	02 96       	adiw	r24, 0x02	; 2
    2702:	0e 94 29 13 	call	0x2652	; 0x2652 <ee_write_byte>
    2706:	61 2f       	mov	r22, r17
    2708:	ce 01       	movw	r24, r28
    270a:	03 96       	adiw	r24, 0x03	; 3
    270c:	0e 94 29 13 	call	0x2652	; 0x2652 <ee_write_byte>
    2710:	81 e0       	ldi	r24, 0x01	; 1
    2712:	01 c0       	rjmp	.+2      	; 0x2716 <ee_write_dword+0x44>
    2714:	80 e0       	ldi	r24, 0x00	; 0
    2716:	df 91       	pop	r29
    2718:	cf 91       	pop	r28
    271a:	1f 91       	pop	r17
    271c:	0f 91       	pop	r16
    271e:	ff 90       	pop	r15
    2720:	08 95       	ret

00002722 <Gukbun_Set>:
#include <gateway.h> 

//=================================================================================================
void Gukbun_Set(void)								// °ФАМЖ® ҝюАМ ұ№№ш јіБӨ
{
	FND_Value_Data(0, 2, 12);						// FND 0 ~ 2 FND_OFF
    2722:	4c e0       	ldi	r20, 0x0C	; 12
    2724:	62 e0       	ldi	r22, 0x02	; 2
    2726:	80 e0       	ldi	r24, 0x00	; 0
    2728:	0e 94 d2 05 	call	0xba4	; 0xba4 <FND_Value_Data>

	while(SET.Menu && SET.Select)						// ёЮҙә ҝН јұЕГ АМ ёрөО 1 АМёй №Эә№
    272c:	42 c0       	rjmp	.+132    	; 0x27b2 <Gukbun_Set+0x90>
	{
		DIGIT[0][3] = FND_G;						// FND 0 ҝЎ G-no (ұ№№ш)ЗҘҪГ
    272e:	e1 e9       	ldi	r30, 0x91	; 145
    2730:	f1 e4       	ldi	r31, 0x41	; 65
    2732:	8e eb       	ldi	r24, 0xBE	; 190
    2734:	83 83       	std	Z+3, r24	; 0x03
		DIGIT[0][2] = FND_MINUS;
    2736:	82 e0       	ldi	r24, 0x02	; 2
    2738:	82 83       	std	Z+2, r24	; 0x02
		DIGIT[0][1] = FND_n;
    273a:	8a e2       	ldi	r24, 0x2A	; 42
    273c:	81 83       	std	Z+1, r24	; 0x01
		DIGIT[0][0] = FND_o;
    273e:	8a e3       	ldi	r24, 0x3A	; 58
    2740:	80 83       	st	Z, r24

		DIGIT[1][1] = fnd_tbl[Gukbun / 10];				// FND 1 ҝЎ ұ№№ш №шИЈ ЗҘҪГ
    2742:	20 91 63 51 	lds	r18, 0x5163	; 0x805163 <Gukbun>
    2746:	8d ec       	ldi	r24, 0xCD	; 205
    2748:	28 9f       	mul	r18, r24
    274a:	81 2d       	mov	r24, r1
    274c:	11 24       	eor	r1, r1
    274e:	86 95       	lsr	r24
    2750:	86 95       	lsr	r24
    2752:	86 95       	lsr	r24
    2754:	a8 2f       	mov	r26, r24
    2756:	b0 e0       	ldi	r27, 0x00	; 0
    2758:	a5 5a       	subi	r26, 0xA5	; 165
    275a:	be 4b       	sbci	r27, 0xBE	; 190
    275c:	9c 91       	ld	r25, X
    275e:	95 83       	std	Z+5, r25	; 0x05
		DIGIT[1][0] = fnd_tbl[Gukbun % 10];
    2760:	88 0f       	add	r24, r24
    2762:	98 2f       	mov	r25, r24
    2764:	99 0f       	add	r25, r25
    2766:	99 0f       	add	r25, r25
    2768:	89 0f       	add	r24, r25
    276a:	a2 2f       	mov	r26, r18
    276c:	a8 1b       	sub	r26, r24
    276e:	b0 e0       	ldi	r27, 0x00	; 0
    2770:	a5 5a       	subi	r26, 0xA5	; 165
    2772:	be 4b       	sbci	r27, 0xBE	; 190
    2774:	8c 91       	ld	r24, X
    2776:	84 83       	std	Z+4, r24	; 0x04

		if(KEY.Buff)							// Key АФ·ВАМ АЦАёёй
    2778:	80 91 68 51 	lds	r24, 0x5168	; 0x805168 <KEY+0x1>
    277c:	88 23       	and	r24, r24
    277e:	b9 f0       	breq	.+46     	; 0x27ae <Gukbun_Set+0x8c>
		{
			if     (KEY.Key == 1 && Gukbun < 60) {Gukbun++; KEY.Key = 0;}		// ҫч  №цЖ° АМёй ұ№№ш 60ұоБц Бх°Ў
    2780:	80 91 69 51 	lds	r24, 0x5169	; 0x805169 <KEY+0x2>
    2784:	81 30       	cpi	r24, 0x01	; 1
    2786:	41 f4       	brne	.+16     	; 0x2798 <Gukbun_Set+0x76>
    2788:	2c 33       	cpi	r18, 0x3C	; 60
    278a:	30 f4       	brcc	.+12     	; 0x2798 <Gukbun_Set+0x76>
    278c:	2f 5f       	subi	r18, 0xFF	; 255
    278e:	20 93 63 51 	sts	0x5163, r18	; 0x805163 <Gukbun>
    2792:	10 92 69 51 	sts	0x5169, r1	; 0x805169 <KEY+0x2>
    2796:	0b c0       	rjmp	.+22     	; 0x27ae <Gukbun_Set+0x8c>
			else if(KEY.Key == 3 && Gukbun > 1)  {Gukbun--; KEY.Key = 0;}		// ҙЩҝо№цЖ° АМёй ұ№№ш  0ұоБц °ЁјТ
    2798:	80 91 69 51 	lds	r24, 0x5169	; 0x805169 <KEY+0x2>
    279c:	83 30       	cpi	r24, 0x03	; 3
    279e:	39 f4       	brne	.+14     	; 0x27ae <Gukbun_Set+0x8c>
    27a0:	22 30       	cpi	r18, 0x02	; 2
    27a2:	28 f0       	brcs	.+10     	; 0x27ae <Gukbun_Set+0x8c>
    27a4:	21 50       	subi	r18, 0x01	; 1
    27a6:	20 93 63 51 	sts	0x5163, r18	; 0x805163 <Gukbun>
    27aa:	10 92 69 51 	sts	0x5169, r1	; 0x805169 <KEY+0x2>
		}
		wdt_reset();							// ҝцДЎө¶ ё®јВ
    27ae:	0e 94 8c 0e 	call	0x1d18	; 0x1d18 <wdt_reset>
//=================================================================================================
void Gukbun_Set(void)								// °ФАМЖ® ҝюАМ ұ№№ш јіБӨ
{
	FND_Value_Data(0, 2, 12);						// FND 0 ~ 2 FND_OFF

	while(SET.Menu && SET.Select)						// ёЮҙә ҝН јұЕГ АМ ёрөО 1 АМёй №Эә№
    27b2:	80 91 28 51 	lds	r24, 0x5128	; 0x805128 <SET>
    27b6:	88 23       	and	r24, r24
    27b8:	21 f0       	breq	.+8      	; 0x27c2 <Gukbun_Set+0xa0>
    27ba:	80 91 29 51 	lds	r24, 0x5129	; 0x805129 <SET+0x1>
    27be:	81 11       	cpse	r24, r1
    27c0:	b6 cf       	rjmp	.-148    	; 0x272e <Gukbun_Set+0xc>
			if     (KEY.Key == 1 && Gukbun < 60) {Gukbun++; KEY.Key = 0;}		// ҫч  №цЖ° АМёй ұ№№ш 60ұоБц Бх°Ў
			else if(KEY.Key == 3 && Gukbun > 1)  {Gukbun--; KEY.Key = 0;}		// ҙЩҝо№цЖ° АМёй ұ№№ш  0ұоБц °ЁјТ
		}
		wdt_reset();							// ҝцДЎө¶ ё®јВ
	}
	ee_write_byte(Gateway_Gukbun_Addr, Gukbun);				// ұ№№ш №шИЈёҰ EEPROM ҝЎ АъАе
    27c2:	60 91 63 51 	lds	r22, 0x5163	; 0x805163 <Gukbun>
    27c6:	80 e0       	ldi	r24, 0x00	; 0
    27c8:	90 e0       	ldi	r25, 0x00	; 0
    27ca:	0e 94 29 13 	call	0x2652	; 0x2652 <ee_write_byte>
    27ce:	08 95       	ret

000027d0 <Gwid_Set>:
}

//=================================================================================================
void Gwid_Set(void)								// °ФАМЖ® ҝюАМ ID јіБӨ
{
	FND_Value_Data(0, 2, 12);						// FND 0 ~ 2 FND_OFF
    27d0:	4c e0       	ldi	r20, 0x0C	; 12
    27d2:	62 e0       	ldi	r22, 0x02	; 2
    27d4:	80 e0       	ldi	r24, 0x00	; 0
    27d6:	0e 94 d2 05 	call	0xba4	; 0xba4 <FND_Value_Data>

	while(SET.Menu && SET.Select)						// ёЮҙә ҝН јұЕГ АМ ёрөО 1 АМёй №Эә№
    27da:	42 c0       	rjmp	.+132    	; 0x2860 <Gwid_Set+0x90>
	{
		DIGIT[0][3] = FND_G;						// FND 0 ҝЎ G-Id (ұ№№ш)ЗҘҪГ
    27dc:	e1 e9       	ldi	r30, 0x91	; 145
    27de:	f1 e4       	ldi	r31, 0x41	; 65
    27e0:	8e eb       	ldi	r24, 0xBE	; 190
    27e2:	83 83       	std	Z+3, r24	; 0x03
		DIGIT[0][2] = FND_MINUS;
    27e4:	82 e0       	ldi	r24, 0x02	; 2
    27e6:	82 83       	std	Z+2, r24	; 0x02
		DIGIT[0][1] = FND_I;
    27e8:	80 e6       	ldi	r24, 0x60	; 96
    27ea:	81 83       	std	Z+1, r24	; 0x01
		DIGIT[0][0] = FND_d;
    27ec:	8a e7       	ldi	r24, 0x7A	; 122
    27ee:	80 83       	st	Z, r24

		DIGIT[1][1] = fnd_tbl[Gwid / 10];				// FND 1 ҝЎ °ФАМЖ® ҝюАМ ID ЗҘҪГ
    27f0:	20 91 6c 51 	lds	r18, 0x516C	; 0x80516c <Gwid>
    27f4:	8d ec       	ldi	r24, 0xCD	; 205
    27f6:	28 9f       	mul	r18, r24
    27f8:	81 2d       	mov	r24, r1
    27fa:	11 24       	eor	r1, r1
    27fc:	86 95       	lsr	r24
    27fe:	86 95       	lsr	r24
    2800:	86 95       	lsr	r24
    2802:	a8 2f       	mov	r26, r24
    2804:	b0 e0       	ldi	r27, 0x00	; 0
    2806:	a5 5a       	subi	r26, 0xA5	; 165
    2808:	be 4b       	sbci	r27, 0xBE	; 190
    280a:	9c 91       	ld	r25, X
    280c:	95 83       	std	Z+5, r25	; 0x05
		DIGIT[1][0] = fnd_tbl[Gwid % 10];
    280e:	88 0f       	add	r24, r24
    2810:	98 2f       	mov	r25, r24
    2812:	99 0f       	add	r25, r25
    2814:	99 0f       	add	r25, r25
    2816:	89 0f       	add	r24, r25
    2818:	a2 2f       	mov	r26, r18
    281a:	a8 1b       	sub	r26, r24
    281c:	b0 e0       	ldi	r27, 0x00	; 0
    281e:	a5 5a       	subi	r26, 0xA5	; 165
    2820:	be 4b       	sbci	r27, 0xBE	; 190
    2822:	8c 91       	ld	r24, X
    2824:	84 83       	std	Z+4, r24	; 0x04

		if(KEY.Buff)							// Key АФ·ВАМ АЦАёёй
    2826:	80 91 68 51 	lds	r24, 0x5168	; 0x805168 <KEY+0x1>
    282a:	88 23       	and	r24, r24
    282c:	b9 f0       	breq	.+46     	; 0x285c <Gwid_Set+0x8c>
		{
			if     (KEY.Key == 1 && Gwid < 60) {Gwid++; KEY.Key = 0;}		// ҫч  №цЖ° АМёй ID 60ұоБц Бх°Ў
    282e:	80 91 69 51 	lds	r24, 0x5169	; 0x805169 <KEY+0x2>
    2832:	81 30       	cpi	r24, 0x01	; 1
    2834:	41 f4       	brne	.+16     	; 0x2846 <Gwid_Set+0x76>
    2836:	2c 33       	cpi	r18, 0x3C	; 60
    2838:	30 f4       	brcc	.+12     	; 0x2846 <Gwid_Set+0x76>
    283a:	2f 5f       	subi	r18, 0xFF	; 255
    283c:	20 93 6c 51 	sts	0x516C, r18	; 0x80516c <Gwid>
    2840:	10 92 69 51 	sts	0x5169, r1	; 0x805169 <KEY+0x2>
    2844:	0b c0       	rjmp	.+22     	; 0x285c <Gwid_Set+0x8c>
			else if(KEY.Key == 3 && Gwid > 1)  {Gwid--; KEY.Key = 0;}		// ҙЩҝо№цЖ° АМёй ID  0ұоБц °ЁјТ
    2846:	80 91 69 51 	lds	r24, 0x5169	; 0x805169 <KEY+0x2>
    284a:	83 30       	cpi	r24, 0x03	; 3
    284c:	39 f4       	brne	.+14     	; 0x285c <Gwid_Set+0x8c>
    284e:	22 30       	cpi	r18, 0x02	; 2
    2850:	28 f0       	brcs	.+10     	; 0x285c <Gwid_Set+0x8c>
    2852:	21 50       	subi	r18, 0x01	; 1
    2854:	20 93 6c 51 	sts	0x516C, r18	; 0x80516c <Gwid>
    2858:	10 92 69 51 	sts	0x5169, r1	; 0x805169 <KEY+0x2>
		}
		wdt_reset();							// ҝцДЎө¶ ё®јВ
    285c:	0e 94 8c 0e 	call	0x1d18	; 0x1d18 <wdt_reset>
//=================================================================================================
void Gwid_Set(void)								// °ФАМЖ® ҝюАМ ID јіБӨ
{
	FND_Value_Data(0, 2, 12);						// FND 0 ~ 2 FND_OFF

	while(SET.Menu && SET.Select)						// ёЮҙә ҝН јұЕГ АМ ёрөО 1 АМёй №Эә№
    2860:	80 91 28 51 	lds	r24, 0x5128	; 0x805128 <SET>
    2864:	88 23       	and	r24, r24
    2866:	21 f0       	breq	.+8      	; 0x2870 <Gwid_Set+0xa0>
    2868:	80 91 29 51 	lds	r24, 0x5129	; 0x805129 <SET+0x1>
    286c:	81 11       	cpse	r24, r1
    286e:	b6 cf       	rjmp	.-148    	; 0x27dc <Gwid_Set+0xc>
			if     (KEY.Key == 1 && Gwid < 60) {Gwid++; KEY.Key = 0;}		// ҫч  №цЖ° АМёй ID 60ұоБц Бх°Ў
			else if(KEY.Key == 3 && Gwid > 1)  {Gwid--; KEY.Key = 0;}		// ҙЩҝо№цЖ° АМёй ID  0ұоБц °ЁјТ
		}
		wdt_reset();							// ҝцДЎө¶ ё®јВ
	}
	ee_write_byte(Gateway_GWID_Addr, Gwid);					// °ФАМЖ® ҝюАМ ID ёҰ EEPROM ҝЎ АъАе
    2870:	60 91 6c 51 	lds	r22, 0x516C	; 0x80516c <Gwid>
    2874:	81 e0       	ldi	r24, 0x01	; 1
    2876:	90 e0       	ldi	r25, 0x00	; 0
    2878:	0e 94 29 13 	call	0x2652	; 0x2652 <ee_write_byte>
    287c:	08 95       	ret

0000287e <Gateway_Set>:
}

//=================================================================================================
void Gateway_Set(void)								// °ФАМЖ® ҝюАМ јіБӨ
{
    287e:	cf 93       	push	r28
	uint8_t count = 1;							// Д«ҝоЖ® әҜјц ГКұвИӯ
	SET.Select = 0;								// Select №цЖ° ГКұвИӯ
    2880:	10 92 29 51 	sts	0x5129, r1	; 0x805129 <SET+0x1>

	FND_Value_Data(0, 2, 12);						// FND 0 ~ 2 FND_OFF
    2884:	4c e0       	ldi	r20, 0x0C	; 12
    2886:	62 e0       	ldi	r22, 0x02	; 2
    2888:	80 e0       	ldi	r24, 0x00	; 0
    288a:	0e 94 d2 05 	call	0xba4	; 0xba4 <FND_Value_Data>
}

//=================================================================================================
void Gateway_Set(void)								// °ФАМЖ® ҝюАМ јіБӨ
{
	uint8_t count = 1;							// Д«ҝоЖ® әҜјц ГКұвИӯ
    288e:	c1 e0       	ldi	r28, 0x01	; 1
	SET.Select = 0;								// Select №цЖ° ГКұвИӯ

	FND_Value_Data(0, 2, 12);						// FND 0 ~ 2 FND_OFF
	
	while(SET.Menu)								// ёЮҙә°Ў 1 АМёй №Эә№
    2890:	8b c0       	rjmp	.+278    	; 0x29a8 <Gateway_Set+0x12a>
	{
		if(KEY.Buff)							// Key АФ·ВАМ АЦАёёй
    2892:	80 91 68 51 	lds	r24, 0x5168	; 0x805168 <KEY+0x1>
    2896:	88 23       	and	r24, r24
    2898:	99 f0       	breq	.+38     	; 0x28c0 <Gateway_Set+0x42>
		{
			if     (KEY.Key == 1 && count < 3) {count++; KEY.Key = 0;}		// ҫч  №цЖ° АМёй Count Бх°Ў
    289a:	80 91 69 51 	lds	r24, 0x5169	; 0x805169 <KEY+0x2>
    289e:	81 30       	cpi	r24, 0x01	; 1
    28a0:	31 f4       	brne	.+12     	; 0x28ae <Gateway_Set+0x30>
    28a2:	c3 30       	cpi	r28, 0x03	; 3
    28a4:	20 f4       	brcc	.+8      	; 0x28ae <Gateway_Set+0x30>
    28a6:	cf 5f       	subi	r28, 0xFF	; 255
    28a8:	10 92 69 51 	sts	0x5169, r1	; 0x805169 <KEY+0x2>
    28ac:	09 c0       	rjmp	.+18     	; 0x28c0 <Gateway_Set+0x42>
			else if(KEY.Key == 3 && count > 0) {count--; KEY.Key = 0;}		// ҙЩҝо№цЖ° АМёй Count °ЁјТ
    28ae:	80 91 69 51 	lds	r24, 0x5169	; 0x805169 <KEY+0x2>
    28b2:	83 30       	cpi	r24, 0x03	; 3
    28b4:	29 f4       	brne	.+10     	; 0x28c0 <Gateway_Set+0x42>
    28b6:	cc 23       	and	r28, r28
    28b8:	19 f0       	breq	.+6      	; 0x28c0 <Gateway_Set+0x42>
    28ba:	c1 50       	subi	r28, 0x01	; 1
    28bc:	10 92 69 51 	sts	0x5169, r1	; 0x805169 <KEY+0x2>
		}
		DIGIT[2][0] = fnd_tbl[count];					// FND 2.0 ҝЎ Count ЗҘҪГ
    28c0:	ec 2f       	mov	r30, r28
    28c2:	f0 e0       	ldi	r31, 0x00	; 0
    28c4:	e5 5a       	subi	r30, 0xA5	; 165
    28c6:	fe 4b       	sbci	r31, 0xBE	; 190
    28c8:	80 81       	ld	r24, Z
    28ca:	80 93 99 41 	sts	0x4199, r24	; 0x804199 <DIGIT+0x8>

		switch(count)							// count
    28ce:	c1 30       	cpi	r28, 0x01	; 1
    28d0:	41 f0       	breq	.+16     	; 0x28e2 <Gateway_Set+0x64>
    28d2:	08 f4       	brcc	.+2      	; 0x28d6 <Gateway_Set+0x58>
    28d4:	66 c0       	rjmp	.+204    	; 0x29a2 <Gateway_Set+0x124>
    28d6:	c2 30       	cpi	r28, 0x02	; 2
    28d8:	99 f1       	breq	.+102    	; 0x2940 <Gateway_Set+0xc2>
    28da:	c3 30       	cpi	r28, 0x03	; 3
    28dc:	09 f4       	brne	.+2      	; 0x28e0 <Gateway_Set+0x62>
    28de:	5f c0       	rjmp	.+190    	; 0x299e <Gateway_Set+0x120>
    28e0:	61 c0       	rjmp	.+194    	; 0x29a4 <Gateway_Set+0x126>
			case 0:							// Count = 0 АМёй
				count = 2;					// №Эә№А» А§ЗШ Count ёҰ ГЦ°н·О Бх°Ў ҪГЕҙ
			break;

			case 1:							// Count = 1 АМёй
				DIGIT[0][3] = FND_G;				// FND 0 ҝЎ G-no (ұ№№ш)ЗҘҪГ
    28e2:	e1 e9       	ldi	r30, 0x91	; 145
    28e4:	f1 e4       	ldi	r31, 0x41	; 65
    28e6:	8e eb       	ldi	r24, 0xBE	; 190
    28e8:	83 83       	std	Z+3, r24	; 0x03
				DIGIT[0][2] = FND_MINUS;
    28ea:	82 e0       	ldi	r24, 0x02	; 2
    28ec:	82 83       	std	Z+2, r24	; 0x02
				DIGIT[0][1] = FND_n;
    28ee:	8a e2       	ldi	r24, 0x2A	; 42
    28f0:	81 83       	std	Z+1, r24	; 0x01
				DIGIT[0][0] = FND_o;
    28f2:	8a e3       	ldi	r24, 0x3A	; 58
    28f4:	80 83       	st	Z, r24

				DIGIT[1][3] = FND_OFF;				// FND 1 ҝЎ ұ№№ш №шИЈ ЗҘҪГ
    28f6:	17 82       	std	Z+7, r1	; 0x07
				DIGIT[1][2] = FND_OFF;
    28f8:	16 82       	std	Z+6, r1	; 0x06
				DIGIT[1][1] = fnd_tbl[Gukbun / 10];
    28fa:	40 91 63 51 	lds	r20, 0x5163	; 0x805163 <Gukbun>
    28fe:	8d ec       	ldi	r24, 0xCD	; 205
    2900:	48 9f       	mul	r20, r24
    2902:	81 2d       	mov	r24, r1
    2904:	11 24       	eor	r1, r1
    2906:	86 95       	lsr	r24
    2908:	86 95       	lsr	r24
    290a:	86 95       	lsr	r24
    290c:	28 2f       	mov	r18, r24
    290e:	30 e0       	ldi	r19, 0x00	; 0
    2910:	25 5a       	subi	r18, 0xA5	; 165
    2912:	3e 4b       	sbci	r19, 0xBE	; 190
    2914:	d9 01       	movw	r26, r18
    2916:	9c 91       	ld	r25, X
    2918:	95 83       	std	Z+5, r25	; 0x05
				DIGIT[1][0] = fnd_tbl[Gukbun % 10];
    291a:	88 0f       	add	r24, r24
    291c:	98 2f       	mov	r25, r24
    291e:	99 0f       	add	r25, r25
    2920:	99 0f       	add	r25, r25
    2922:	89 0f       	add	r24, r25
    2924:	a4 2f       	mov	r26, r20
    2926:	a8 1b       	sub	r26, r24
    2928:	b0 e0       	ldi	r27, 0x00	; 0
    292a:	a5 5a       	subi	r26, 0xA5	; 165
    292c:	be 4b       	sbci	r27, 0xBE	; 190
    292e:	8c 91       	ld	r24, X
    2930:	84 83       	std	Z+4, r24	; 0x04

				if(SET.Select) {Gukbun_Set();}			// °ФАМЖ® ҝюАМ ұ№№ш јіБӨ
    2932:	80 91 29 51 	lds	r24, 0x5129	; 0x805129 <SET+0x1>
    2936:	88 23       	and	r24, r24
    2938:	a9 f1       	breq	.+106    	; 0x29a4 <Gateway_Set+0x126>
    293a:	0e 94 91 13 	call	0x2722	; 0x2722 <Gukbun_Set>
    293e:	32 c0       	rjmp	.+100    	; 0x29a4 <Gateway_Set+0x126>
			break;

			case 2:							// Count = 2 АМёй
				DIGIT[0][3] = FND_G;				// FND 0 ҝЎ G-Id ЗҘҪГ
    2940:	e1 e9       	ldi	r30, 0x91	; 145
    2942:	f1 e4       	ldi	r31, 0x41	; 65
    2944:	8e eb       	ldi	r24, 0xBE	; 190
    2946:	83 83       	std	Z+3, r24	; 0x03
				DIGIT[0][2] = FND_MINUS;
    2948:	82 e0       	ldi	r24, 0x02	; 2
    294a:	82 83       	std	Z+2, r24	; 0x02
				DIGIT[0][1] = FND_I;
    294c:	80 e6       	ldi	r24, 0x60	; 96
    294e:	81 83       	std	Z+1, r24	; 0x01
				DIGIT[0][0] = FND_d;
    2950:	8a e7       	ldi	r24, 0x7A	; 122
    2952:	80 83       	st	Z, r24

				DIGIT[1][3] = FND_OFF;				// FND 1 ҝЎ °ФАМЖ® ҝюАМ ID ЗҘҪГ
    2954:	17 82       	std	Z+7, r1	; 0x07
				DIGIT[1][2] = FND_OFF;
    2956:	16 82       	std	Z+6, r1	; 0x06
				DIGIT[1][1] = fnd_tbl[Gwid / 10];
    2958:	40 91 6c 51 	lds	r20, 0x516C	; 0x80516c <Gwid>
    295c:	8d ec       	ldi	r24, 0xCD	; 205
    295e:	48 9f       	mul	r20, r24
    2960:	81 2d       	mov	r24, r1
    2962:	11 24       	eor	r1, r1
    2964:	86 95       	lsr	r24
    2966:	86 95       	lsr	r24
    2968:	86 95       	lsr	r24
    296a:	28 2f       	mov	r18, r24
    296c:	30 e0       	ldi	r19, 0x00	; 0
    296e:	25 5a       	subi	r18, 0xA5	; 165
    2970:	3e 4b       	sbci	r19, 0xBE	; 190
    2972:	d9 01       	movw	r26, r18
    2974:	9c 91       	ld	r25, X
    2976:	95 83       	std	Z+5, r25	; 0x05
				DIGIT[1][0] = fnd_tbl[Gwid % 10];
    2978:	88 0f       	add	r24, r24
    297a:	98 2f       	mov	r25, r24
    297c:	99 0f       	add	r25, r25
    297e:	99 0f       	add	r25, r25
    2980:	89 0f       	add	r24, r25
    2982:	a4 2f       	mov	r26, r20
    2984:	a8 1b       	sub	r26, r24
    2986:	b0 e0       	ldi	r27, 0x00	; 0
    2988:	a5 5a       	subi	r26, 0xA5	; 165
    298a:	be 4b       	sbci	r27, 0xBE	; 190
    298c:	8c 91       	ld	r24, X
    298e:	84 83       	std	Z+4, r24	; 0x04

				if(SET.Select) {Gwid_Set();}			// °ФАМЖ® ҝюАМ ID јіБӨ
    2990:	80 91 29 51 	lds	r24, 0x5129	; 0x805129 <SET+0x1>
    2994:	88 23       	and	r24, r24
    2996:	31 f0       	breq	.+12     	; 0x29a4 <Gateway_Set+0x126>
    2998:	0e 94 e8 13 	call	0x27d0	; 0x27d0 <Gwid_Set>
    299c:	03 c0       	rjmp	.+6      	; 0x29a4 <Gateway_Set+0x126>
			break;

			case 3:							// Count = 3 АМёй
				count = 1;					// №Эә№А» А§ЗШ Count ёҰ ГЦАъ·О °ЁјТ ҪГЕҙ
    299e:	c1 e0       	ldi	r28, 0x01	; 1
			break;
    29a0:	01 c0       	rjmp	.+2      	; 0x29a4 <Gateway_Set+0x126>
		DIGIT[2][0] = fnd_tbl[count];					// FND 2.0 ҝЎ Count ЗҘҪГ

		switch(count)							// count
		{
			case 0:							// Count = 0 АМёй
				count = 2;					// №Эә№А» А§ЗШ Count ёҰ ГЦ°н·О Бх°Ў ҪГЕҙ
    29a2:	c2 e0       	ldi	r28, 0x02	; 2

			case 3:							// Count = 3 АМёй
				count = 1;					// №Эә№А» А§ЗШ Count ёҰ ГЦАъ·О °ЁјТ ҪГЕҙ
			break;
		}
		wdt_reset();							// ҝцДЎө¶ ё®јВ
    29a4:	0e 94 8c 0e 	call	0x1d18	; 0x1d18 <wdt_reset>
	uint8_t count = 1;							// Д«ҝоЖ® әҜјц ГКұвИӯ
	SET.Select = 0;								// Select №цЖ° ГКұвИӯ

	FND_Value_Data(0, 2, 12);						// FND 0 ~ 2 FND_OFF
	
	while(SET.Menu)								// ёЮҙә°Ў 1 АМёй №Эә№
    29a8:	80 91 28 51 	lds	r24, 0x5128	; 0x805128 <SET>
    29ac:	81 11       	cpse	r24, r1
    29ae:	71 cf       	rjmp	.-286    	; 0x2892 <Gateway_Set+0x14>
				count = 1;					// №Эә№А» А§ЗШ Count ёҰ ГЦАъ·О °ЁјТ ҪГЕҙ
			break;
		}
		wdt_reset();							// ҝцДЎө¶ ё®јВ
	}
}
    29b0:	cf 91       	pop	r28
    29b2:	08 95       	ret

000029b4 <I2C_0_do_I2C_RESET>:
 * \brief Identical to I2C_0_master_operation(true);
 */
i2c_error_t I2C_0_master_read(void)
{
	return I2C_0_master_operation(true);
}
    29b4:	e0 e2       	ldi	r30, 0x20	; 32
    29b6:	f9 e0       	ldi	r31, 0x09	; 9
    29b8:	84 81       	ldd	r24, Z+4	; 0x04
    29ba:	88 60       	ori	r24, 0x08	; 8
    29bc:	84 83       	std	Z+4, r24	; 0x04
    29be:	85 81       	ldd	r24, Z+5	; 0x05
    29c0:	81 60       	ori	r24, 0x01	; 1
    29c2:	85 83       	std	Z+5, r24	; 0x05
    29c4:	ed e9       	ldi	r30, 0x9D	; 157
    29c6:	f1 e4       	ldi	r31, 0x41	; 65
    29c8:	80 81       	ld	r24, Z
    29ca:	8e 7f       	andi	r24, 0xFE	; 254
    29cc:	80 83       	st	Z, r24
    29ce:	13 86       	std	Z+11, r1	; 0x0b
    29d0:	8e e0       	ldi	r24, 0x0E	; 14
    29d2:	08 95       	ret

000029d4 <I2C_0_do_I2C_IDLE>:
    29d4:	ed e9       	ldi	r30, 0x9D	; 157
    29d6:	f1 e4       	ldi	r31, 0x41	; 65
    29d8:	80 81       	ld	r24, Z
    29da:	8e 7f       	andi	r24, 0xFE	; 254
    29dc:	80 83       	st	Z, r24
    29de:	13 86       	std	Z+11, r1	; 0x0b
    29e0:	80 e0       	ldi	r24, 0x00	; 0
    29e2:	08 95       	ret

000029e4 <I2C_0_do_I2C_SEND_STOP>:
    29e4:	e0 e2       	ldi	r30, 0x20	; 32
    29e6:	f9 e0       	ldi	r31, 0x09	; 9
    29e8:	84 81       	ldd	r24, Z+4	; 0x04
    29ea:	83 60       	ori	r24, 0x03	; 3
    29ec:	84 83       	std	Z+4, r24	; 0x04
    29ee:	0e 94 ea 14 	call	0x29d4	; 0x29d4 <I2C_0_do_I2C_IDLE>
    29f2:	08 95       	ret

000029f4 <I2C_0_do_I2C_SEND_ADR_READ>:
    29f4:	ed e9       	ldi	r30, 0x9D	; 157
    29f6:	f1 e4       	ldi	r31, 0x41	; 65
    29f8:	80 81       	ld	r24, Z
    29fa:	88 60       	ori	r24, 0x08	; 8
    29fc:	80 83       	st	Z, r24
    29fe:	81 81       	ldd	r24, Z+1	; 0x01
    2a00:	90 e0       	ldi	r25, 0x00	; 0
    2a02:	88 0f       	add	r24, r24
    2a04:	99 1f       	adc	r25, r25
    2a06:	81 60       	ori	r24, 0x01	; 1
    2a08:	80 93 27 09 	sts	0x0927, r24	; 0x800927 <__TEXT_REGION_LENGTH__+0x7e0927>
    2a0c:	84 e0       	ldi	r24, 0x04	; 4
    2a0e:	08 95       	ret

00002a10 <I2C_0_do_I2C_SEND_RESTART>:
    2a10:	0e 94 fa 14 	call	0x29f4	; 0x29f4 <I2C_0_do_I2C_SEND_ADR_READ>
    2a14:	08 95       	ret

00002a16 <I2C_0_do_I2C_SEND_RESTART_READ>:
    2a16:	0e 94 fa 14 	call	0x29f4	; 0x29f4 <I2C_0_do_I2C_SEND_ADR_READ>
    2a1a:	08 95       	ret

00002a1c <I2C_0_do_I2C_SEND_ADR_WRITE>:
    2a1c:	ed e9       	ldi	r30, 0x9D	; 157
    2a1e:	f1 e4       	ldi	r31, 0x41	; 65
    2a20:	80 81       	ld	r24, Z
    2a22:	88 60       	ori	r24, 0x08	; 8
    2a24:	80 83       	st	Z, r24
    2a26:	81 81       	ldd	r24, Z+1	; 0x01
    2a28:	88 0f       	add	r24, r24
    2a2a:	80 93 27 09 	sts	0x0927, r24	; 0x800927 <__TEXT_REGION_LENGTH__+0x7e0927>
    2a2e:	83 e0       	ldi	r24, 0x03	; 3
    2a30:	08 95       	ret

00002a32 <I2C_0_do_I2C_SEND_RESTART_WRITE>:
    2a32:	0e 94 0e 15 	call	0x2a1c	; 0x2a1c <I2C_0_do_I2C_SEND_ADR_WRITE>
    2a36:	08 95       	ret

00002a38 <I2C_0_do_I2C_DO_ADDRESS_NACK>:
    2a38:	ad e9       	ldi	r26, 0x9D	; 157
    2a3a:	b1 e4       	ldi	r27, 0x41	; 65
    2a3c:	8c 91       	ld	r24, X
    2a3e:	87 7f       	andi	r24, 0xF7	; 247
    2a40:	8c 93       	st	X, r24
    2a42:	82 e0       	ldi	r24, 0x02	; 2
    2a44:	1b 96       	adiw	r26, 0x0b	; 11
    2a46:	8c 93       	st	X, r24
    2a48:	1b 97       	sbiw	r26, 0x0b	; 11
    2a4a:	50 96       	adiw	r26, 0x10	; 16
    2a4c:	ed 91       	ld	r30, X+
    2a4e:	fc 91       	ld	r31, X
    2a50:	51 97       	sbiw	r26, 0x11	; 17
    2a52:	5c 96       	adiw	r26, 0x1c	; 28
    2a54:	8d 91       	ld	r24, X+
    2a56:	9c 91       	ld	r25, X
    2a58:	5d 97       	sbiw	r26, 0x1d	; 29
    2a5a:	09 95       	icall
    2a5c:	82 30       	cpi	r24, 0x02	; 2
    2a5e:	19 f0       	breq	.+6      	; 0x2a66 <I2C_0_do_I2C_DO_ADDRESS_NACK+0x2e>
    2a60:	83 30       	cpi	r24, 0x03	; 3
    2a62:	21 f0       	breq	.+8      	; 0x2a6c <I2C_0_do_I2C_DO_ADDRESS_NACK+0x34>
    2a64:	06 c0       	rjmp	.+12     	; 0x2a72 <I2C_0_do_I2C_DO_ADDRESS_NACK+0x3a>
    2a66:	0e 94 0b 15 	call	0x2a16	; 0x2a16 <I2C_0_do_I2C_SEND_RESTART_READ>
    2a6a:	08 95       	ret
    2a6c:	0e 94 19 15 	call	0x2a32	; 0x2a32 <I2C_0_do_I2C_SEND_RESTART_WRITE>
    2a70:	08 95       	ret
    2a72:	0e 94 f2 14 	call	0x29e4	; 0x29e4 <I2C_0_do_I2C_SEND_STOP>
    2a76:	08 95       	ret

00002a78 <I2C_0_do_I2C_RX_DO_ACK>:
    2a78:	e0 e2       	ldi	r30, 0x20	; 32
    2a7a:	f9 e0       	ldi	r31, 0x09	; 9
    2a7c:	84 81       	ldd	r24, Z+4	; 0x04
    2a7e:	8b 7f       	andi	r24, 0xFB	; 251
    2a80:	84 83       	std	Z+4, r24	; 0x04
    2a82:	84 e0       	ldi	r24, 0x04	; 4
    2a84:	08 95       	ret

00002a86 <I2C_0_do_I2C_TX_DO_ACK>:
    2a86:	e0 e2       	ldi	r30, 0x20	; 32
    2a88:	f9 e0       	ldi	r31, 0x09	; 9
    2a8a:	84 81       	ldd	r24, Z+4	; 0x04
    2a8c:	8b 7f       	andi	r24, 0xFB	; 251
    2a8e:	84 83       	std	Z+4, r24	; 0x04
    2a90:	83 e0       	ldi	r24, 0x03	; 3
    2a92:	08 95       	ret

00002a94 <I2C_0_do_I2C_DO_NACK_STOP>:
    2a94:	e0 e2       	ldi	r30, 0x20	; 32
    2a96:	f9 e0       	ldi	r31, 0x09	; 9
    2a98:	84 81       	ldd	r24, Z+4	; 0x04
    2a9a:	84 60       	ori	r24, 0x04	; 4
    2a9c:	84 83       	std	Z+4, r24	; 0x04
    2a9e:	84 81       	ldd	r24, Z+4	; 0x04
    2aa0:	83 60       	ori	r24, 0x03	; 3
    2aa2:	84 83       	std	Z+4, r24	; 0x04
    2aa4:	0e 94 ea 14 	call	0x29d4	; 0x29d4 <I2C_0_do_I2C_IDLE>
    2aa8:	08 95       	ret

00002aaa <I2C_0_do_I2C_DO_NACK_RESTART>:
    2aaa:	e0 e2       	ldi	r30, 0x20	; 32
    2aac:	f9 e0       	ldi	r31, 0x09	; 9
    2aae:	84 81       	ldd	r24, Z+4	; 0x04
    2ab0:	84 60       	ori	r24, 0x04	; 4
    2ab2:	84 83       	std	Z+4, r24	; 0x04
    2ab4:	88 e0       	ldi	r24, 0x08	; 8
    2ab6:	08 95       	ret

00002ab8 <I2C_0_do_I2C_TX>:
    2ab8:	80 91 25 09 	lds	r24, 0x0925	; 0x800925 <__TEXT_REGION_LENGTH__+0x7e0925>
    2abc:	84 ff       	sbrs	r24, 4
    2abe:	19 c0       	rjmp	.+50     	; 0x2af2 <I2C_0_do_I2C_TX+0x3a>
    2ac0:	ad e9       	ldi	r26, 0x9D	; 157
    2ac2:	b1 e4       	ldi	r27, 0x41	; 65
    2ac4:	52 96       	adiw	r26, 0x12	; 18
    2ac6:	ed 91       	ld	r30, X+
    2ac8:	fc 91       	ld	r31, X
    2aca:	53 97       	sbiw	r26, 0x13	; 19
    2acc:	5e 96       	adiw	r26, 0x1e	; 30
    2ace:	8d 91       	ld	r24, X+
    2ad0:	9c 91       	ld	r25, X
    2ad2:	5f 97       	sbiw	r26, 0x1f	; 31
    2ad4:	09 95       	icall
    2ad6:	82 30       	cpi	r24, 0x02	; 2
    2ad8:	19 f0       	breq	.+6      	; 0x2ae0 <I2C_0_do_I2C_TX+0x28>
    2ada:	83 30       	cpi	r24, 0x03	; 3
    2adc:	21 f0       	breq	.+8      	; 0x2ae6 <I2C_0_do_I2C_TX+0x2e>
    2ade:	06 c0       	rjmp	.+12     	; 0x2aec <I2C_0_do_I2C_TX+0x34>
    2ae0:	0e 94 0b 15 	call	0x2a16	; 0x2a16 <I2C_0_do_I2C_SEND_RESTART_READ>
    2ae4:	08 95       	ret
    2ae6:	0e 94 19 15 	call	0x2a32	; 0x2a32 <I2C_0_do_I2C_SEND_RESTART_WRITE>
    2aea:	08 95       	ret
    2aec:	0e 94 f2 14 	call	0x29e4	; 0x29e4 <I2C_0_do_I2C_SEND_STOP>
    2af0:	08 95       	ret
    2af2:	ed e9       	ldi	r30, 0x9D	; 157
    2af4:	f1 e4       	ldi	r31, 0x41	; 65
    2af6:	80 81       	ld	r24, Z
    2af8:	87 7f       	andi	r24, 0xF7	; 247
    2afa:	80 83       	st	Z, r24
    2afc:	a2 81       	ldd	r26, Z+2	; 0x02
    2afe:	b3 81       	ldd	r27, Z+3	; 0x03
    2b00:	cd 01       	movw	r24, r26
    2b02:	01 96       	adiw	r24, 0x01	; 1
    2b04:	82 83       	std	Z+2, r24	; 0x02
    2b06:	93 83       	std	Z+3, r25	; 0x03
    2b08:	8c 91       	ld	r24, X
    2b0a:	80 93 28 09 	sts	0x0928, r24	; 0x800928 <__TEXT_REGION_LENGTH__+0x7e0928>
    2b0e:	84 81       	ldd	r24, Z+4	; 0x04
    2b10:	95 81       	ldd	r25, Z+5	; 0x05
    2b12:	01 97       	sbiw	r24, 0x01	; 1
    2b14:	84 83       	std	Z+4, r24	; 0x04
    2b16:	95 83       	std	Z+5, r25	; 0x05
    2b18:	89 2b       	or	r24, r25
    2b1a:	11 f0       	breq	.+4      	; 0x2b20 <I2C_0_do_I2C_TX+0x68>
    2b1c:	83 e0       	ldi	r24, 0x03	; 3
    2b1e:	08 95       	ret
    2b20:	85 e0       	ldi	r24, 0x05	; 5
    2b22:	08 95       	ret

00002b24 <I2C_0_do_I2C_RX>:
    2b24:	cf 93       	push	r28
    2b26:	df 93       	push	r29
    2b28:	ed e9       	ldi	r30, 0x9D	; 157
    2b2a:	f1 e4       	ldi	r31, 0x41	; 65
    2b2c:	80 81       	ld	r24, Z
    2b2e:	87 7f       	andi	r24, 0xF7	; 247
    2b30:	80 83       	st	Z, r24
    2b32:	84 81       	ldd	r24, Z+4	; 0x04
    2b34:	95 81       	ldd	r25, Z+5	; 0x05
    2b36:	01 97       	sbiw	r24, 0x01	; 1
    2b38:	31 f4       	brne	.+12     	; 0x2b46 <I2C_0_do_I2C_RX+0x22>
    2b3a:	e0 e2       	ldi	r30, 0x20	; 32
    2b3c:	f9 e0       	ldi	r31, 0x09	; 9
    2b3e:	84 81       	ldd	r24, Z+4	; 0x04
    2b40:	84 60       	ori	r24, 0x04	; 4
    2b42:	84 83       	std	Z+4, r24	; 0x04
    2b44:	05 c0       	rjmp	.+10     	; 0x2b50 <I2C_0_do_I2C_RX+0x2c>
    2b46:	e0 e2       	ldi	r30, 0x20	; 32
    2b48:	f9 e0       	ldi	r31, 0x09	; 9
    2b4a:	84 81       	ldd	r24, Z+4	; 0x04
    2b4c:	8b 7f       	andi	r24, 0xFB	; 251
    2b4e:	84 83       	std	Z+4, r24	; 0x04
    2b50:	ed e9       	ldi	r30, 0x9D	; 157
    2b52:	f1 e4       	ldi	r31, 0x41	; 65
    2b54:	84 81       	ldd	r24, Z+4	; 0x04
    2b56:	95 81       	ldd	r25, Z+5	; 0x05
    2b58:	01 97       	sbiw	r24, 0x01	; 1
    2b5a:	84 83       	std	Z+4, r24	; 0x04
    2b5c:	95 83       	std	Z+5, r25	; 0x05
    2b5e:	89 2b       	or	r24, r25
    2b60:	a9 f0       	breq	.+42     	; 0x2b8c <I2C_0_do_I2C_RX+0x68>
    2b62:	df 01       	movw	r26, r30
    2b64:	c2 81       	ldd	r28, Z+2	; 0x02
    2b66:	d3 81       	ldd	r29, Z+3	; 0x03
    2b68:	e0 e2       	ldi	r30, 0x20	; 32
    2b6a:	f9 e0       	ldi	r31, 0x09	; 9
    2b6c:	80 85       	ldd	r24, Z+8	; 0x08
    2b6e:	88 83       	st	Y, r24
    2b70:	12 96       	adiw	r26, 0x02	; 2
    2b72:	8d 91       	ld	r24, X+
    2b74:	9c 91       	ld	r25, X
    2b76:	13 97       	sbiw	r26, 0x03	; 3
    2b78:	01 96       	adiw	r24, 0x01	; 1
    2b7a:	12 96       	adiw	r26, 0x02	; 2
    2b7c:	8d 93       	st	X+, r24
    2b7e:	9c 93       	st	X, r25
    2b80:	13 97       	sbiw	r26, 0x03	; 3
    2b82:	84 81       	ldd	r24, Z+4	; 0x04
    2b84:	82 60       	ori	r24, 0x02	; 2
    2b86:	84 83       	std	Z+4, r24	; 0x04
    2b88:	84 e0       	ldi	r24, 0x04	; 4
    2b8a:	26 c0       	rjmp	.+76     	; 0x2bd8 <I2C_0_do_I2C_RX+0xb4>
    2b8c:	ad e9       	ldi	r26, 0x9D	; 157
    2b8e:	b1 e4       	ldi	r27, 0x41	; 65
    2b90:	12 96       	adiw	r26, 0x02	; 2
    2b92:	ed 91       	ld	r30, X+
    2b94:	fc 91       	ld	r31, X
    2b96:	13 97       	sbiw	r26, 0x03	; 3
    2b98:	80 91 28 09 	lds	r24, 0x0928	; 0x800928 <__TEXT_REGION_LENGTH__+0x7e0928>
    2b9c:	80 83       	st	Z, r24
    2b9e:	12 96       	adiw	r26, 0x02	; 2
    2ba0:	8d 91       	ld	r24, X+
    2ba2:	9c 91       	ld	r25, X
    2ba4:	13 97       	sbiw	r26, 0x03	; 3
    2ba6:	01 96       	adiw	r24, 0x01	; 1
    2ba8:	12 96       	adiw	r26, 0x02	; 2
    2baa:	8d 93       	st	X+, r24
    2bac:	9c 93       	st	X, r25
    2bae:	13 97       	sbiw	r26, 0x03	; 3
    2bb0:	8c 91       	ld	r24, X
    2bb2:	84 60       	ori	r24, 0x04	; 4
    2bb4:	8c 93       	st	X, r24
    2bb6:	1c 96       	adiw	r26, 0x0c	; 12
    2bb8:	ed 91       	ld	r30, X+
    2bba:	fc 91       	ld	r31, X
    2bbc:	1d 97       	sbiw	r26, 0x0d	; 13
    2bbe:	58 96       	adiw	r26, 0x18	; 24
    2bc0:	8d 91       	ld	r24, X+
    2bc2:	9c 91       	ld	r25, X
    2bc4:	59 97       	sbiw	r26, 0x19	; 25
    2bc6:	09 95       	icall
    2bc8:	82 50       	subi	r24, 0x02	; 2
    2bca:	82 30       	cpi	r24, 0x02	; 2
    2bcc:	18 f4       	brcc	.+6      	; 0x2bd4 <I2C_0_do_I2C_RX+0xb0>
    2bce:	0e 94 55 15 	call	0x2aaa	; 0x2aaa <I2C_0_do_I2C_DO_NACK_RESTART>
    2bd2:	02 c0       	rjmp	.+4      	; 0x2bd8 <I2C_0_do_I2C_RX+0xb4>
    2bd4:	0e 94 4a 15 	call	0x2a94	; 0x2a94 <I2C_0_do_I2C_DO_NACK_STOP>
    2bd8:	df 91       	pop	r29
    2bda:	cf 91       	pop	r28
    2bdc:	08 95       	ret

00002bde <I2C_0_do_I2C_TX_EMPTY>:
    2bde:	80 91 25 09 	lds	r24, 0x0925	; 0x800925 <__TEXT_REGION_LENGTH__+0x7e0925>
    2be2:	84 ff       	sbrs	r24, 4
    2be4:	19 c0       	rjmp	.+50     	; 0x2c18 <I2C_0_do_I2C_TX_EMPTY+0x3a>
    2be6:	ad e9       	ldi	r26, 0x9D	; 157
    2be8:	b1 e4       	ldi	r27, 0x41	; 65
    2bea:	52 96       	adiw	r26, 0x12	; 18
    2bec:	ed 91       	ld	r30, X+
    2bee:	fc 91       	ld	r31, X
    2bf0:	53 97       	sbiw	r26, 0x13	; 19
    2bf2:	5e 96       	adiw	r26, 0x1e	; 30
    2bf4:	8d 91       	ld	r24, X+
    2bf6:	9c 91       	ld	r25, X
    2bf8:	5f 97       	sbiw	r26, 0x1f	; 31
    2bfa:	09 95       	icall
    2bfc:	82 30       	cpi	r24, 0x02	; 2
    2bfe:	19 f0       	breq	.+6      	; 0x2c06 <I2C_0_do_I2C_TX_EMPTY+0x28>
    2c00:	83 30       	cpi	r24, 0x03	; 3
    2c02:	21 f0       	breq	.+8      	; 0x2c0c <I2C_0_do_I2C_TX_EMPTY+0x2e>
    2c04:	06 c0       	rjmp	.+12     	; 0x2c12 <I2C_0_do_I2C_TX_EMPTY+0x34>
    2c06:	0e 94 0b 15 	call	0x2a16	; 0x2a16 <I2C_0_do_I2C_SEND_RESTART_READ>
    2c0a:	08 95       	ret
    2c0c:	0e 94 19 15 	call	0x2a32	; 0x2a32 <I2C_0_do_I2C_SEND_RESTART_WRITE>
    2c10:	08 95       	ret
    2c12:	0e 94 f2 14 	call	0x29e4	; 0x29e4 <I2C_0_do_I2C_SEND_STOP>
    2c16:	08 95       	ret
    2c18:	ad e9       	ldi	r26, 0x9D	; 157
    2c1a:	b1 e4       	ldi	r27, 0x41	; 65
    2c1c:	8c 91       	ld	r24, X
    2c1e:	84 60       	ori	r24, 0x04	; 4
    2c20:	8c 93       	st	X, r24
    2c22:	1c 96       	adiw	r26, 0x0c	; 12
    2c24:	ed 91       	ld	r30, X+
    2c26:	fc 91       	ld	r31, X
    2c28:	1d 97       	sbiw	r26, 0x0d	; 13
    2c2a:	58 96       	adiw	r26, 0x18	; 24
    2c2c:	8d 91       	ld	r24, X+
    2c2e:	9c 91       	ld	r25, X
    2c30:	59 97       	sbiw	r26, 0x19	; 25
    2c32:	09 95       	icall
    2c34:	83 30       	cpi	r24, 0x03	; 3
    2c36:	39 f0       	breq	.+14     	; 0x2c46 <I2C_0_do_I2C_TX_EMPTY+0x68>
    2c38:	84 30       	cpi	r24, 0x04	; 4
    2c3a:	41 f0       	breq	.+16     	; 0x2c4c <I2C_0_do_I2C_TX_EMPTY+0x6e>
    2c3c:	82 30       	cpi	r24, 0x02	; 2
    2c3e:	49 f4       	brne	.+18     	; 0x2c52 <I2C_0_do_I2C_TX_EMPTY+0x74>
    2c40:	0e 94 0b 15 	call	0x2a16	; 0x2a16 <I2C_0_do_I2C_SEND_RESTART_READ>
    2c44:	08 95       	ret
    2c46:	0e 94 19 15 	call	0x2a32	; 0x2a32 <I2C_0_do_I2C_SEND_RESTART_WRITE>
    2c4a:	08 95       	ret
    2c4c:	0e 94 5c 15 	call	0x2ab8	; 0x2ab8 <I2C_0_do_I2C_TX>
    2c50:	08 95       	ret
    2c52:	0e 94 f2 14 	call	0x29e4	; 0x29e4 <I2C_0_do_I2C_SEND_STOP>
    2c56:	08 95       	ret

00002c58 <I2C_0_do_I2C_BUS_COLLISION>:
    2c58:	e0 e2       	ldi	r30, 0x20	; 32
    2c5a:	f9 e0       	ldi	r31, 0x09	; 9
    2c5c:	85 81       	ldd	r24, Z+5	; 0x05
    2c5e:	88 60       	ori	r24, 0x08	; 8
    2c60:	85 83       	std	Z+5, r24	; 0x05
    2c62:	ad e9       	ldi	r26, 0x9D	; 157
    2c64:	b1 e4       	ldi	r27, 0x41	; 65
    2c66:	82 e0       	ldi	r24, 0x02	; 2
    2c68:	1b 96       	adiw	r26, 0x0b	; 11
    2c6a:	8c 93       	st	X, r24
    2c6c:	1b 97       	sbiw	r26, 0x0b	; 11
    2c6e:	1e 96       	adiw	r26, 0x0e	; 14
    2c70:	ed 91       	ld	r30, X+
    2c72:	fc 91       	ld	r31, X
    2c74:	1f 97       	sbiw	r26, 0x0f	; 15
    2c76:	5a 96       	adiw	r26, 0x1a	; 26
    2c78:	8d 91       	ld	r24, X+
    2c7a:	9c 91       	ld	r25, X
    2c7c:	5b 97       	sbiw	r26, 0x1b	; 27
    2c7e:	09 95       	icall
    2c80:	82 30       	cpi	r24, 0x02	; 2
    2c82:	19 f0       	breq	.+6      	; 0x2c8a <I2C_0_do_I2C_BUS_COLLISION+0x32>
    2c84:	83 30       	cpi	r24, 0x03	; 3
    2c86:	21 f0       	breq	.+8      	; 0x2c90 <I2C_0_do_I2C_BUS_COLLISION+0x38>
    2c88:	06 c0       	rjmp	.+12     	; 0x2c96 <I2C_0_do_I2C_BUS_COLLISION+0x3e>
    2c8a:	0e 94 0b 15 	call	0x2a16	; 0x2a16 <I2C_0_do_I2C_SEND_RESTART_READ>
    2c8e:	08 95       	ret
    2c90:	0e 94 19 15 	call	0x2a32	; 0x2a32 <I2C_0_do_I2C_SEND_RESTART_WRITE>
    2c94:	08 95       	ret
    2c96:	0e 94 da 14 	call	0x29b4	; 0x29b4 <I2C_0_do_I2C_RESET>
    2c9a:	08 95       	ret

00002c9c <I2C_0_do_I2C_BUS_ERROR>:
    2c9c:	e0 e2       	ldi	r30, 0x20	; 32
    2c9e:	f9 e0       	ldi	r31, 0x09	; 9
    2ca0:	84 81       	ldd	r24, Z+4	; 0x04
    2ca2:	88 60       	ori	r24, 0x08	; 8
    2ca4:	84 83       	std	Z+4, r24	; 0x04
    2ca6:	85 81       	ldd	r24, Z+5	; 0x05
    2ca8:	81 60       	ori	r24, 0x01	; 1
    2caa:	85 83       	std	Z+5, r24	; 0x05
    2cac:	ed e9       	ldi	r30, 0x9D	; 157
    2cae:	f1 e4       	ldi	r31, 0x41	; 65
    2cb0:	80 81       	ld	r24, Z
    2cb2:	8e 7f       	andi	r24, 0xFE	; 254
    2cb4:	80 83       	st	Z, r24
    2cb6:	82 e0       	ldi	r24, 0x02	; 2
    2cb8:	83 87       	std	Z+11, r24	; 0x0b
    2cba:	8e e0       	ldi	r24, 0x0E	; 14
    2cbc:	08 95       	ret

00002cbe <I2C_0_master_isr>:
    2cbe:	cf 93       	push	r28
    2cc0:	df 93       	push	r29
    2cc2:	e0 e2       	ldi	r30, 0x20	; 32
    2cc4:	f9 e0       	ldi	r31, 0x09	; 9
    2cc6:	85 81       	ldd	r24, Z+5	; 0x05
    2cc8:	80 6c       	ori	r24, 0xC0	; 192
    2cca:	85 83       	std	Z+5, r24	; 0x05
    2ccc:	80 91 9d 41 	lds	r24, 0x419D	; 0x80419d <I2C_0_status>
    2cd0:	83 ff       	sbrs	r24, 3
    2cd2:	07 c0       	rjmp	.+14     	; 0x2ce2 <I2C_0_master_isr+0x24>
    2cd4:	80 91 25 09 	lds	r24, 0x0925	; 0x800925 <__TEXT_REGION_LENGTH__+0x7e0925>
    2cd8:	84 ff       	sbrs	r24, 4
    2cda:	03 c0       	rjmp	.+6      	; 0x2ce2 <I2C_0_master_isr+0x24>
    2cdc:	8f e0       	ldi	r24, 0x0F	; 15
    2cde:	80 93 a7 41 	sts	0x41A7, r24	; 0x8041a7 <I2C_0_status+0xa>
    2ce2:	80 91 25 09 	lds	r24, 0x0925	; 0x800925 <__TEXT_REGION_LENGTH__+0x7e0925>
    2ce6:	83 ff       	sbrs	r24, 3
    2ce8:	03 c0       	rjmp	.+6      	; 0x2cf0 <I2C_0_master_isr+0x32>
    2cea:	80 e1       	ldi	r24, 0x10	; 16
    2cec:	80 93 a7 41 	sts	0x41A7, r24	; 0x8041a7 <I2C_0_status+0xa>
    2cf0:	80 91 25 09 	lds	r24, 0x0925	; 0x800925 <__TEXT_REGION_LENGTH__+0x7e0925>
    2cf4:	82 ff       	sbrs	r24, 2
    2cf6:	03 c0       	rjmp	.+6      	; 0x2cfe <I2C_0_master_isr+0x40>
    2cf8:	81 e1       	ldi	r24, 0x11	; 17
    2cfa:	80 93 a7 41 	sts	0x41A7, r24	; 0x8041a7 <I2C_0_status+0xa>
    2cfe:	cd e9       	ldi	r28, 0x9D	; 157
    2d00:	d1 e4       	ldi	r29, 0x41	; 65
    2d02:	ea 85       	ldd	r30, Y+10	; 0x0a
    2d04:	f0 e0       	ldi	r31, 0x00	; 0
    2d06:	ee 0f       	add	r30, r30
    2d08:	ff 1f       	adc	r31, r31
    2d0a:	ea 5f       	subi	r30, 0xFA	; 250
    2d0c:	ff 4b       	sbci	r31, 0xBF	; 191
    2d0e:	01 90       	ld	r0, Z+
    2d10:	f0 81       	ld	r31, Z
    2d12:	e0 2d       	mov	r30, r0
    2d14:	09 95       	icall
    2d16:	8a 87       	std	Y+10, r24	; 0x0a
    2d18:	df 91       	pop	r29
    2d1a:	cf 91       	pop	r28
    2d1c:	08 95       	ret

00002d1e <I2C_0_return_stop>:
    2d1e:	81 e0       	ldi	r24, 0x01	; 1
    2d20:	08 95       	ret

00002d22 <I2C_0_return_reset>:
    2d22:	85 e0       	ldi	r24, 0x05	; 5
    2d24:	08 95       	ret

00002d26 <I2C_0_set_callback>:
    2d26:	61 15       	cp	r22, r1
    2d28:	71 05       	cpc	r23, r1
    2d2a:	91 f0       	breq	.+36     	; 0x2d50 <I2C_0_set_callback+0x2a>
    2d2c:	90 e0       	ldi	r25, 0x00	; 0
    2d2e:	fc 01       	movw	r30, r24
    2d30:	36 96       	adiw	r30, 0x06	; 6
    2d32:	ee 0f       	add	r30, r30
    2d34:	ff 1f       	adc	r31, r31
    2d36:	e3 56       	subi	r30, 0x63	; 99
    2d38:	fe 4b       	sbci	r31, 0xBE	; 190
    2d3a:	60 83       	st	Z, r22
    2d3c:	71 83       	std	Z+1, r23	; 0x01
    2d3e:	fc 01       	movw	r30, r24
    2d40:	3c 96       	adiw	r30, 0x0c	; 12
    2d42:	ee 0f       	add	r30, r30
    2d44:	ff 1f       	adc	r31, r31
    2d46:	e3 56       	subi	r30, 0x63	; 99
    2d48:	fe 4b       	sbci	r31, 0xBE	; 190
    2d4a:	40 83       	st	Z, r20
    2d4c:	51 83       	std	Z+1, r21	; 0x01
    2d4e:	08 95       	ret
    2d50:	90 e0       	ldi	r25, 0x00	; 0
    2d52:	fc 01       	movw	r30, r24
    2d54:	36 96       	adiw	r30, 0x06	; 6
    2d56:	ee 0f       	add	r30, r30
    2d58:	ff 1f       	adc	r31, r31
    2d5a:	e3 56       	subi	r30, 0x63	; 99
    2d5c:	fe 4b       	sbci	r31, 0xBE	; 190
    2d5e:	2f e8       	ldi	r18, 0x8F	; 143
    2d60:	36 e1       	ldi	r19, 0x16	; 22
    2d62:	20 83       	st	Z, r18
    2d64:	31 83       	std	Z+1, r19	; 0x01
    2d66:	fc 01       	movw	r30, r24
    2d68:	3c 96       	adiw	r30, 0x0c	; 12
    2d6a:	ee 0f       	add	r30, r30
    2d6c:	ff 1f       	adc	r31, r31
    2d6e:	e3 56       	subi	r30, 0x63	; 99
    2d70:	fe 4b       	sbci	r31, 0xBE	; 190
    2d72:	10 82       	st	Z, r1
    2d74:	11 82       	std	Z+1, r1	; 0x01
    2d76:	08 95       	ret

00002d78 <I2C_0_set_data_complete_callback>:
    2d78:	ab 01       	movw	r20, r22
    2d7a:	bc 01       	movw	r22, r24
    2d7c:	80 e0       	ldi	r24, 0x00	; 0
    2d7e:	0e 94 93 16 	call	0x2d26	; 0x2d26 <I2C_0_set_callback>
    2d82:	08 95       	ret

00002d84 <I2C_0_set_address_nack_callback>:
    2d84:	ab 01       	movw	r20, r22
    2d86:	bc 01       	movw	r22, r24
    2d88:	82 e0       	ldi	r24, 0x02	; 2
    2d8a:	0e 94 93 16 	call	0x2d26	; 0x2d26 <I2C_0_set_callback>
    2d8e:	08 95       	ret

00002d90 <I2C_0_init>:
    2d90:	e0 e2       	ldi	r30, 0x20	; 32
    2d92:	f9 e0       	ldi	r31, 0x09	; 9
    2d94:	84 e4       	ldi	r24, 0x44	; 68
    2d96:	86 83       	std	Z+6, r24	; 0x06
    2d98:	81 ec       	ldi	r24, 0xC1	; 193
    2d9a:	83 83       	std	Z+3, r24	; 0x03
    2d9c:	08 95       	ret

00002d9e <I2C_0_open>:
    2d9e:	90 91 9d 41 	lds	r25, 0x419D	; 0x80419d <I2C_0_status>
    2da2:	91 fd       	sbrc	r25, 1
    2da4:	37 c0       	rjmp	.+110    	; 0x2e14 <I2C_0_open+0x76>
    2da6:	ed e9       	ldi	r30, 0x9D	; 157
    2da8:	f1 e4       	ldi	r31, 0x41	; 65
    2daa:	81 83       	std	Z+1, r24	; 0x01
    2dac:	89 2f       	mov	r24, r25
    2dae:	8e 7f       	andi	r24, 0xFE	; 254
    2db0:	82 60       	ori	r24, 0x02	; 2
    2db2:	9e e0       	ldi	r25, 0x0E	; 14
    2db4:	92 87       	std	Z+10, r25	; 0x0a
    2db6:	24 ef       	ldi	r18, 0xF4	; 244
    2db8:	31 e0       	ldi	r19, 0x01	; 1
    2dba:	20 87       	std	Z+8, r18	; 0x08
    2dbc:	31 87       	std	Z+9, r19	; 0x09
    2dbe:	87 7f       	andi	r24, 0xF7	; 247
    2dc0:	84 60       	ori	r24, 0x04	; 4
    2dc2:	80 83       	st	Z, r24
    2dc4:	8f e8       	ldi	r24, 0x8F	; 143
    2dc6:	96 e1       	ldi	r25, 0x16	; 22
    2dc8:	84 87       	std	Z+12, r24	; 0x0c
    2dca:	95 87       	std	Z+13, r25	; 0x0d
    2dcc:	10 8e       	std	Z+24, r1	; 0x18
    2dce:	11 8e       	std	Z+25, r1	; 0x19
    2dd0:	86 87       	std	Z+14, r24	; 0x0e
    2dd2:	97 87       	std	Z+15, r25	; 0x0f
    2dd4:	12 8e       	std	Z+26, r1	; 0x1a
    2dd6:	13 8e       	std	Z+27, r1	; 0x1b
    2dd8:	80 8b       	std	Z+16, r24	; 0x10
    2dda:	91 8b       	std	Z+17, r25	; 0x11
    2ddc:	14 8e       	std	Z+28, r1	; 0x1c
    2dde:	15 8e       	std	Z+29, r1	; 0x1d
    2de0:	82 8b       	std	Z+18, r24	; 0x12
    2de2:	93 8b       	std	Z+19, r25	; 0x13
    2de4:	16 8e       	std	Z+30, r1	; 0x1e
    2de6:	17 8e       	std	Z+31, r1	; 0x1f
    2de8:	81 e9       	ldi	r24, 0x91	; 145
    2dea:	96 e1       	ldi	r25, 0x16	; 22
    2dec:	84 8b       	std	Z+20, r24	; 0x14
    2dee:	95 8b       	std	Z+21, r25	; 0x15
    2df0:	10 a2       	std	Z+32, r1	; 0x20
    2df2:	11 a2       	std	Z+33, r1	; 0x21
    2df4:	e0 e2       	ldi	r30, 0x20	; 32
    2df6:	f9 e0       	ldi	r31, 0x09	; 9
    2df8:	84 81       	ldd	r24, Z+4	; 0x04
    2dfa:	88 60       	ori	r24, 0x08	; 8
    2dfc:	84 83       	std	Z+4, r24	; 0x04
    2dfe:	85 81       	ldd	r24, Z+5	; 0x05
    2e00:	81 60       	ori	r24, 0x01	; 1
    2e02:	85 83       	std	Z+5, r24	; 0x05
    2e04:	85 81       	ldd	r24, Z+5	; 0x05
    2e06:	80 6c       	ori	r24, 0xC0	; 192
    2e08:	85 83       	std	Z+5, r24	; 0x05
    2e0a:	83 81       	ldd	r24, Z+3	; 0x03
    2e0c:	80 6c       	ori	r24, 0xC0	; 192
    2e0e:	83 83       	std	Z+3, r24	; 0x03
    2e10:	80 e0       	ldi	r24, 0x00	; 0
    2e12:	08 95       	ret
    2e14:	81 e0       	ldi	r24, 0x01	; 1
    2e16:	08 95       	ret

00002e18 <I2C_0_close>:
    2e18:	80 91 25 09 	lds	r24, 0x0925	; 0x800925 <__TEXT_REGION_LENGTH__+0x7e0925>
    2e1c:	82 ff       	sbrs	r24, 2
    2e1e:	07 c0       	rjmp	.+14     	; 0x2e2e <I2C_0_close+0x16>
    2e20:	ed e9       	ldi	r30, 0x9D	; 157
    2e22:	f1 e4       	ldi	r31, 0x41	; 65
    2e24:	80 81       	ld	r24, Z
    2e26:	8e 7f       	andi	r24, 0xFE	; 254
    2e28:	80 83       	st	Z, r24
    2e2a:	82 e0       	ldi	r24, 0x02	; 2
    2e2c:	83 87       	std	Z+11, r24	; 0x0b
    2e2e:	80 91 9d 41 	lds	r24, 0x419D	; 0x80419d <I2C_0_status>
    2e32:	80 fd       	sbrc	r24, 0
    2e34:	17 c0       	rjmp	.+46     	; 0x2e64 <I2C_0_close+0x4c>
    2e36:	ed e9       	ldi	r30, 0x9D	; 157
    2e38:	f1 e4       	ldi	r31, 0x41	; 65
    2e3a:	8d 7f       	andi	r24, 0xFD	; 253
    2e3c:	80 83       	st	Z, r24
    2e3e:	8f ef       	ldi	r24, 0xFF	; 255
    2e40:	81 83       	std	Z+1, r24	; 0x01
    2e42:	a0 e2       	ldi	r26, 0x20	; 32
    2e44:	b9 e0       	ldi	r27, 0x09	; 9
    2e46:	15 96       	adiw	r26, 0x05	; 5
    2e48:	8c 91       	ld	r24, X
    2e4a:	15 97       	sbiw	r26, 0x05	; 5
    2e4c:	80 6c       	ori	r24, 0xC0	; 192
    2e4e:	15 96       	adiw	r26, 0x05	; 5
    2e50:	8c 93       	st	X, r24
    2e52:	15 97       	sbiw	r26, 0x05	; 5
    2e54:	13 96       	adiw	r26, 0x03	; 3
    2e56:	8c 91       	ld	r24, X
    2e58:	13 97       	sbiw	r26, 0x03	; 3
    2e5a:	8f 73       	andi	r24, 0x3F	; 63
    2e5c:	13 96       	adiw	r26, 0x03	; 3
    2e5e:	8c 93       	st	X, r24
    2e60:	83 85       	ldd	r24, Z+11	; 0x0b
    2e62:	08 95       	ret
    2e64:	81 e0       	ldi	r24, 0x01	; 1
    2e66:	08 95       	ret

00002e68 <I2C_0_set_buffer>:
    2e68:	9c 01       	movw	r18, r24
    2e6a:	90 91 9d 41 	lds	r25, 0x419D	; 0x80419d <I2C_0_status>
    2e6e:	92 ff       	sbrs	r25, 2
    2e70:	09 c0       	rjmp	.+18     	; 0x2e84 <I2C_0_set_buffer+0x1c>
    2e72:	ed e9       	ldi	r30, 0x9D	; 157
    2e74:	f1 e4       	ldi	r31, 0x41	; 65
    2e76:	22 83       	std	Z+2, r18	; 0x02
    2e78:	33 83       	std	Z+3, r19	; 0x03
    2e7a:	64 83       	std	Z+4, r22	; 0x04
    2e7c:	75 83       	std	Z+5, r23	; 0x05
    2e7e:	89 2f       	mov	r24, r25
    2e80:	8b 7f       	andi	r24, 0xFB	; 251
    2e82:	80 83       	st	Z, r24
    2e84:	08 95       	ret

00002e86 <I2C_0_master_operation>:
    2e86:	90 91 9d 41 	lds	r25, 0x419D	; 0x80419d <I2C_0_status>
    2e8a:	90 fd       	sbrc	r25, 0
    2e8c:	11 c0       	rjmp	.+34     	; 0x2eb0 <I2C_0_master_operation+0x2a>
    2e8e:	ed e9       	ldi	r30, 0x9D	; 157
    2e90:	f1 e4       	ldi	r31, 0x41	; 65
    2e92:	91 60       	ori	r25, 0x01	; 1
    2e94:	90 83       	st	Z, r25
    2e96:	88 23       	and	r24, r24
    2e98:	21 f0       	breq	.+8      	; 0x2ea2 <I2C_0_master_operation+0x1c>
    2e9a:	81 e0       	ldi	r24, 0x01	; 1
    2e9c:	80 93 a7 41 	sts	0x41A7, r24	; 0x8041a7 <I2C_0_status+0xa>
    2ea0:	03 c0       	rjmp	.+6      	; 0x2ea8 <I2C_0_master_operation+0x22>
    2ea2:	82 e0       	ldi	r24, 0x02	; 2
    2ea4:	80 93 a7 41 	sts	0x41A7, r24	; 0x8041a7 <I2C_0_status+0xa>
    2ea8:	0e 94 5f 16 	call	0x2cbe	; 0x2cbe <I2C_0_master_isr>
    2eac:	80 e0       	ldi	r24, 0x00	; 0
    2eae:	08 95       	ret
    2eb0:	81 e0       	ldi	r24, 0x01	; 1
    2eb2:	08 95       	ret

00002eb4 <I2C_0_master_write>:
/**
 * \brief Identical to I2C_0_master_operation(false);
 */
i2c_error_t I2C_0_master_write(void)
{
	return I2C_0_master_operation(false);
    2eb4:	80 e0       	ldi	r24, 0x00	; 0
    2eb6:	0e 94 43 17 	call	0x2e86	; 0x2e86 <I2C_0_master_operation>
}
    2eba:	08 95       	ret

00002ebc <__vector_43>:
    I2C_0_do_I2C_BUS_COLLISION,      // I2C_BUS_COLLISION
    I2C_0_do_I2C_BUS_ERROR           // I2C_BUS_ERROR
};

ISR(TWI1_TWIM_vect)
{
    2ebc:	1f 92       	push	r1
    2ebe:	0f 92       	push	r0
    2ec0:	0f b6       	in	r0, 0x3f	; 63
    2ec2:	0f 92       	push	r0
    2ec4:	11 24       	eor	r1, r1
    2ec6:	0b b6       	in	r0, 0x3b	; 59
    2ec8:	0f 92       	push	r0
    2eca:	2f 93       	push	r18
    2ecc:	3f 93       	push	r19
    2ece:	4f 93       	push	r20
    2ed0:	5f 93       	push	r21
    2ed2:	6f 93       	push	r22
    2ed4:	7f 93       	push	r23
    2ed6:	8f 93       	push	r24
    2ed8:	9f 93       	push	r25
    2eda:	af 93       	push	r26
    2edc:	bf 93       	push	r27
    2ede:	ef 93       	push	r30
    2ee0:	ff 93       	push	r31
	I2C_0_master_isr();
    2ee2:	0e 94 5f 16 	call	0x2cbe	; 0x2cbe <I2C_0_master_isr>
}
    2ee6:	ff 91       	pop	r31
    2ee8:	ef 91       	pop	r30
    2eea:	bf 91       	pop	r27
    2eec:	af 91       	pop	r26
    2eee:	9f 91       	pop	r25
    2ef0:	8f 91       	pop	r24
    2ef2:	7f 91       	pop	r23
    2ef4:	6f 91       	pop	r22
    2ef6:	5f 91       	pop	r21
    2ef8:	4f 91       	pop	r20
    2efa:	3f 91       	pop	r19
    2efc:	2f 91       	pop	r18
    2efe:	0f 90       	pop	r0
    2f00:	0b be       	out	0x3b, r0	; 59
    2f02:	0f 90       	pop	r0
    2f04:	0f be       	out	0x3f, r0	; 63
    2f06:	0f 90       	pop	r0
    2f08:	1f 90       	pop	r1
    2f0a:	18 95       	reti

00002f0c <I2C_0_wr1RegCompleteHandler>:
    2f0c:	61 e0       	ldi	r22, 0x01	; 1
    2f0e:	70 e0       	ldi	r23, 0x00	; 0
    2f10:	0e 94 34 17 	call	0x2e68	; 0x2e68 <I2C_0_set_buffer>
    2f14:	60 e0       	ldi	r22, 0x00	; 0
    2f16:	70 e0       	ldi	r23, 0x00	; 0
    2f18:	80 e0       	ldi	r24, 0x00	; 0
    2f1a:	90 e0       	ldi	r25, 0x00	; 0
    2f1c:	0e 94 bc 16 	call	0x2d78	; 0x2d78 <I2C_0_set_data_complete_callback>
    2f20:	84 e0       	ldi	r24, 0x04	; 4
    2f22:	08 95       	ret

00002f24 <I2C_0_rd1RegCompleteHandler>:
    2f24:	61 e0       	ldi	r22, 0x01	; 1
    2f26:	70 e0       	ldi	r23, 0x00	; 0
    2f28:	0e 94 34 17 	call	0x2e68	; 0x2e68 <I2C_0_set_buffer>
    2f2c:	60 e0       	ldi	r22, 0x00	; 0
    2f2e:	70 e0       	ldi	r23, 0x00	; 0
    2f30:	80 e0       	ldi	r24, 0x00	; 0
    2f32:	90 e0       	ldi	r25, 0x00	; 0
    2f34:	0e 94 bc 16 	call	0x2d78	; 0x2d78 <I2C_0_set_data_complete_callback>
    2f38:	82 e0       	ldi	r24, 0x02	; 2
    2f3a:	08 95       	ret

00002f3c <I2C_0_write1ByteRegister>:
    2f3c:	ff 92       	push	r15
    2f3e:	0f 93       	push	r16
    2f40:	1f 93       	push	r17
    2f42:	cf 93       	push	r28
    2f44:	df 93       	push	r29
    2f46:	00 d0       	rcall	.+0      	; 0x2f48 <I2C_0_write1ByteRegister+0xc>
    2f48:	cd b7       	in	r28, 0x3d	; 61
    2f4a:	de b7       	in	r29, 0x3e	; 62
    2f4c:	f8 2e       	mov	r15, r24
    2f4e:	69 83       	std	Y+1, r22	; 0x01
    2f50:	4a 83       	std	Y+2, r20	; 0x02
    2f52:	00 e1       	ldi	r16, 0x10	; 16
    2f54:	17 e2       	ldi	r17, 0x27	; 39
    2f56:	8f 2d       	mov	r24, r15
    2f58:	0e 94 cf 16 	call	0x2d9e	; 0x2d9e <I2C_0_open>
    2f5c:	81 30       	cpi	r24, 0x01	; 1
    2f5e:	19 f4       	brne	.+6      	; 0x2f66 <I2C_0_write1ByteRegister+0x2a>
    2f60:	01 50       	subi	r16, 0x01	; 1
    2f62:	11 09       	sbc	r17, r1
    2f64:	c1 f7       	brne	.-16     	; 0x2f56 <I2C_0_write1ByteRegister+0x1a>
    2f66:	01 2b       	or	r16, r17
    2f68:	11 f1       	breq	.+68     	; 0x2fae <I2C_0_write1ByteRegister+0x72>
    2f6a:	be 01       	movw	r22, r28
    2f6c:	6e 5f       	subi	r22, 0xFE	; 254
    2f6e:	7f 4f       	sbci	r23, 0xFF	; 255
    2f70:	86 e8       	ldi	r24, 0x86	; 134
    2f72:	97 e1       	ldi	r25, 0x17	; 23
    2f74:	0e 94 bc 16 	call	0x2d78	; 0x2d78 <I2C_0_set_data_complete_callback>
    2f78:	61 e0       	ldi	r22, 0x01	; 1
    2f7a:	70 e0       	ldi	r23, 0x00	; 0
    2f7c:	ce 01       	movw	r24, r28
    2f7e:	01 96       	adiw	r24, 0x01	; 1
    2f80:	0e 94 34 17 	call	0x2e68	; 0x2e68 <I2C_0_set_buffer>
    2f84:	60 e0       	ldi	r22, 0x00	; 0
    2f86:	70 e0       	ldi	r23, 0x00	; 0
    2f88:	82 e2       	ldi	r24, 0x22	; 34
    2f8a:	98 e1       	ldi	r25, 0x18	; 24
    2f8c:	0e 94 c2 16 	call	0x2d84	; 0x2d84 <I2C_0_set_address_nack_callback>
    2f90:	0e 94 5a 17 	call	0x2eb4	; 0x2eb4 <I2C_0_master_write>
    2f94:	00 e1       	ldi	r16, 0x10	; 16
    2f96:	17 e2       	ldi	r17, 0x27	; 39
    2f98:	0e 94 0c 17 	call	0x2e18	; 0x2e18 <I2C_0_close>
    2f9c:	81 30       	cpi	r24, 0x01	; 1
    2f9e:	19 f4       	brne	.+6      	; 0x2fa6 <I2C_0_write1ByteRegister+0x6a>
    2fa0:	01 50       	subi	r16, 0x01	; 1
    2fa2:	11 09       	sbc	r17, r1
    2fa4:	c9 f7       	brne	.-14     	; 0x2f98 <I2C_0_write1ByteRegister+0x5c>
    2fa6:	01 2b       	or	r16, r17
    2fa8:	21 f4       	brne	.+8      	; 0x2fb2 <I2C_0_write1ByteRegister+0x76>
    2faa:	82 e0       	ldi	r24, 0x02	; 2
    2fac:	03 c0       	rjmp	.+6      	; 0x2fb4 <I2C_0_write1ByteRegister+0x78>
    2fae:	81 e0       	ldi	r24, 0x01	; 1
    2fb0:	01 c0       	rjmp	.+2      	; 0x2fb4 <I2C_0_write1ByteRegister+0x78>
    2fb2:	80 e0       	ldi	r24, 0x00	; 0
    2fb4:	0f 90       	pop	r0
    2fb6:	0f 90       	pop	r0
    2fb8:	df 91       	pop	r29
    2fba:	cf 91       	pop	r28
    2fbc:	1f 91       	pop	r17
    2fbe:	0f 91       	pop	r16
    2fc0:	ff 90       	pop	r15
    2fc2:	08 95       	ret

00002fc4 <I2C_0_read1ByteRegister>:
    2fc4:	ef 92       	push	r14
    2fc6:	ff 92       	push	r15
    2fc8:	1f 93       	push	r17
    2fca:	cf 93       	push	r28
    2fcc:	df 93       	push	r29
    2fce:	00 d0       	rcall	.+0      	; 0x2fd0 <I2C_0_read1ByteRegister+0xc>
    2fd0:	cd b7       	in	r28, 0x3d	; 61
    2fd2:	de b7       	in	r29, 0x3e	; 62
    2fd4:	18 2f       	mov	r17, r24
    2fd6:	6a 83       	std	Y+2, r22	; 0x02
    2fd8:	8a e2       	ldi	r24, 0x2A	; 42
    2fda:	89 83       	std	Y+1, r24	; 0x01
    2fdc:	68 94       	set
    2fde:	ee 24       	eor	r14, r14
    2fe0:	e1 f8       	bld	r14, 1
    2fe2:	f1 2c       	mov	r15, r1
    2fe4:	23 c0       	rjmp	.+70     	; 0x302c <I2C_0_read1ByteRegister+0x68>
    2fe6:	81 2f       	mov	r24, r17
    2fe8:	0e 94 cf 16 	call	0x2d9e	; 0x2d9e <I2C_0_open>
    2fec:	88 23       	and	r24, r24
    2fee:	d9 f3       	breq	.-10     	; 0x2fe6 <I2C_0_read1ByteRegister+0x22>
    2ff0:	be 01       	movw	r22, r28
    2ff2:	6f 5f       	subi	r22, 0xFF	; 255
    2ff4:	7f 4f       	sbci	r23, 0xFF	; 255
    2ff6:	82 e9       	ldi	r24, 0x92	; 146
    2ff8:	97 e1       	ldi	r25, 0x17	; 23
    2ffa:	0e 94 bc 16 	call	0x2d78	; 0x2d78 <I2C_0_set_data_complete_callback>
    2ffe:	61 e0       	ldi	r22, 0x01	; 1
    3000:	70 e0       	ldi	r23, 0x00	; 0
    3002:	ce 01       	movw	r24, r28
    3004:	02 96       	adiw	r24, 0x02	; 2
    3006:	0e 94 34 17 	call	0x2e68	; 0x2e68 <I2C_0_set_buffer>
    300a:	60 e0       	ldi	r22, 0x00	; 0
    300c:	70 e0       	ldi	r23, 0x00	; 0
    300e:	82 e2       	ldi	r24, 0x22	; 34
    3010:	98 e1       	ldi	r25, 0x18	; 24
    3012:	0e 94 c2 16 	call	0x2d84	; 0x2d84 <I2C_0_set_address_nack_callback>
    3016:	0e 94 5a 17 	call	0x2eb4	; 0x2eb4 <I2C_0_master_write>
    301a:	0e 94 0c 17 	call	0x2e18	; 0x2e18 <I2C_0_close>
    301e:	81 30       	cpi	r24, 0x01	; 1
    3020:	e1 f3       	breq	.-8      	; 0x301a <I2C_0_read1ByteRegister+0x56>
    3022:	88 23       	and	r24, r24
    3024:	31 f0       	breq	.+12     	; 0x3032 <I2C_0_read1ByteRegister+0x6e>
    3026:	81 e0       	ldi	r24, 0x01	; 1
    3028:	e8 1a       	sub	r14, r24
    302a:	f1 08       	sbc	r15, r1
    302c:	e1 14       	cp	r14, r1
    302e:	f1 04       	cpc	r15, r1
    3030:	d1 f6       	brne	.-76     	; 0x2fe6 <I2C_0_read1ByteRegister+0x22>
    3032:	89 81       	ldd	r24, Y+1	; 0x01
    3034:	0f 90       	pop	r0
    3036:	0f 90       	pop	r0
    3038:	df 91       	pop	r29
    303a:	cf 91       	pop	r28
    303c:	1f 91       	pop	r17
    303e:	ff 90       	pop	r15
    3040:	ef 90       	pop	r14
    3042:	08 95       	ret

00003044 <i2c_cb_restart_write>:
    3044:	83 e0       	ldi	r24, 0x03	; 3
    3046:	08 95       	ret

00003048 <Cell_Desplay>:
//=================================================================================================
#include <loadcell.h>

//=================================================================================================
void Cell_Desplay(void)								// лЎңл“ңм…Җ л¬ҙкІҢ н‘ңмӢң
{
    3048:	8f 92       	push	r8
    304a:	9f 92       	push	r9
    304c:	af 92       	push	r10
    304e:	bf 92       	push	r11
    3050:	ef 92       	push	r14
    3052:	ff 92       	push	r15
    3054:	0f 93       	push	r16
    3056:	1f 93       	push	r17
    3058:	cf 93       	push	r28
    305a:	df 93       	push	r29
	Weight_10000 = CELL.Value / 10000;					// мёЎм •л¬ҙкІҢ 100.00мқҳ мһҗлҰ¬ 100.00kg
    305c:	c6 e3       	ldi	r28, 0x36	; 54
    305e:	d1 e5       	ldi	r29, 0x51	; 81
    3060:	69 81       	ldd	r22, Y+1	; 0x01
    3062:	7a 81       	ldd	r23, Y+2	; 0x02
    3064:	8b 81       	ldd	r24, Y+3	; 0x03
    3066:	9c 81       	ldd	r25, Y+4	; 0x04
    3068:	0f 2e       	mov	r0, r31
    306a:	f0 e1       	ldi	r31, 0x10	; 16
    306c:	8f 2e       	mov	r8, r31
    306e:	f7 e2       	ldi	r31, 0x27	; 39
    3070:	9f 2e       	mov	r9, r31
    3072:	a1 2c       	mov	r10, r1
    3074:	b1 2c       	mov	r11, r1
    3076:	f0 2d       	mov	r31, r0
    3078:	a5 01       	movw	r20, r10
    307a:	94 01       	movw	r18, r8
    307c:	0e 94 c0 3b 	call	0x7780	; 0x7780 <__divmodsi4>
    3080:	e2 2e       	mov	r14, r18
    3082:	20 93 c2 41 	sts	0x41C2, r18	; 0x8041c2 <Weight_10000>
	Weight_1000  = CELL.Value % 10000 / 1000;				// мёЎм •л¬ҙкІҢ  10.00мқҳ мһҗлҰ¬  10.00kg
    3086:	69 81       	ldd	r22, Y+1	; 0x01
    3088:	7a 81       	ldd	r23, Y+2	; 0x02
    308a:	8b 81       	ldd	r24, Y+3	; 0x03
    308c:	9c 81       	ldd	r25, Y+4	; 0x04
    308e:	a5 01       	movw	r20, r10
    3090:	94 01       	movw	r18, r8
    3092:	0e 94 c0 3b 	call	0x7780	; 0x7780 <__divmodsi4>
    3096:	0f 2e       	mov	r0, r31
    3098:	f8 ee       	ldi	r31, 0xE8	; 232
    309a:	8f 2e       	mov	r8, r31
    309c:	f3 e0       	ldi	r31, 0x03	; 3
    309e:	9f 2e       	mov	r9, r31
    30a0:	a1 2c       	mov	r10, r1
    30a2:	b1 2c       	mov	r11, r1
    30a4:	f0 2d       	mov	r31, r0
    30a6:	a5 01       	movw	r20, r10
    30a8:	94 01       	movw	r18, r8
    30aa:	0e 94 c0 3b 	call	0x7780	; 0x7780 <__divmodsi4>
    30ae:	f2 2e       	mov	r15, r18
    30b0:	20 93 97 51 	sts	0x5197, r18	; 0x805197 <Weight_1000>
	Weight_100   = CELL.Value % 1000 / 100;					// мёЎм •л¬ҙкІҢ   1.00мқҳ мһҗлҰ¬   1.00kg
    30b4:	69 81       	ldd	r22, Y+1	; 0x01
    30b6:	7a 81       	ldd	r23, Y+2	; 0x02
    30b8:	8b 81       	ldd	r24, Y+3	; 0x03
    30ba:	9c 81       	ldd	r25, Y+4	; 0x04
    30bc:	a5 01       	movw	r20, r10
    30be:	94 01       	movw	r18, r8
    30c0:	0e 94 c0 3b 	call	0x7780	; 0x7780 <__divmodsi4>
    30c4:	0f 2e       	mov	r0, r31
    30c6:	f4 e6       	ldi	r31, 0x64	; 100
    30c8:	8f 2e       	mov	r8, r31
    30ca:	91 2c       	mov	r9, r1
    30cc:	a1 2c       	mov	r10, r1
    30ce:	b1 2c       	mov	r11, r1
    30d0:	f0 2d       	mov	r31, r0
    30d2:	a5 01       	movw	r20, r10
    30d4:	94 01       	movw	r18, r8
    30d6:	0e 94 c0 3b 	call	0x7780	; 0x7780 <__divmodsi4>
    30da:	02 2f       	mov	r16, r18
    30dc:	20 93 89 51 	sts	0x5189, r18	; 0x805189 <Weight_100>
	Weight_10    = CELL.Value % 100 / 10;					// мёЎм •л¬ҙкІҢ   0.10мқҳ мһҗлҰ¬   0.10Kg
    30e0:	69 81       	ldd	r22, Y+1	; 0x01
    30e2:	7a 81       	ldd	r23, Y+2	; 0x02
    30e4:	8b 81       	ldd	r24, Y+3	; 0x03
    30e6:	9c 81       	ldd	r25, Y+4	; 0x04
    30e8:	a5 01       	movw	r20, r10
    30ea:	94 01       	movw	r18, r8
    30ec:	0e 94 c0 3b 	call	0x7780	; 0x7780 <__divmodsi4>
    30f0:	0f 2e       	mov	r0, r31
    30f2:	fa e0       	ldi	r31, 0x0A	; 10
    30f4:	8f 2e       	mov	r8, r31
    30f6:	91 2c       	mov	r9, r1
    30f8:	a1 2c       	mov	r10, r1
    30fa:	b1 2c       	mov	r11, r1
    30fc:	f0 2d       	mov	r31, r0
    30fe:	a5 01       	movw	r20, r10
    3100:	94 01       	movw	r18, r8
    3102:	0e 94 c0 3b 	call	0x7780	; 0x7780 <__divmodsi4>
    3106:	12 2f       	mov	r17, r18
    3108:	20 93 62 51 	sts	0x5162, r18	; 0x805162 <Weight_10>
	Weight_1     = CELL.Value % 10;						// мёЎм •л¬ҙкІҢ   0.01мқҳ мһҗлҰ¬   0.01Kg
    310c:	69 81       	ldd	r22, Y+1	; 0x01
    310e:	7a 81       	ldd	r23, Y+2	; 0x02
    3110:	8b 81       	ldd	r24, Y+3	; 0x03
    3112:	9c 81       	ldd	r25, Y+4	; 0x04
    3114:	a5 01       	movw	r20, r10
    3116:	94 01       	movw	r18, r8
    3118:	0e 94 c0 3b 	call	0x7780	; 0x7780 <__divmodsi4>
    311c:	60 93 7f 51 	sts	0x517F, r22	; 0x80517f <Weight_1>

	if(CELL.Value > 10000)							// мёЎм •л¬ҙкІҢ 100Kg ліҙлӢӨ нҒ¬л©ҙ
    3120:	89 81       	ldd	r24, Y+1	; 0x01
    3122:	9a 81       	ldd	r25, Y+2	; 0x02
    3124:	ab 81       	ldd	r26, Y+3	; 0x03
    3126:	bc 81       	ldd	r27, Y+4	; 0x04
    3128:	81 31       	cpi	r24, 0x11	; 17
    312a:	97 42       	sbci	r25, 0x27	; 39
    312c:	a1 05       	cpc	r26, r1
    312e:	b1 05       	cpc	r27, r1
    3130:	14 f1       	brlt	.+68     	; 0x3176 <Cell_Desplay+0x12e>
	{
		DIGIT[0][3] = fnd_tbl[Weight_10000];				// мёЎм •л¬ҙкІҢ 100.00мқҳ мһҗлҰ¬
    3132:	ee 2d       	mov	r30, r14
    3134:	f0 e0       	ldi	r31, 0x00	; 0
    3136:	e5 5a       	subi	r30, 0xA5	; 165
    3138:	fe 4b       	sbci	r31, 0xBE	; 190
    313a:	80 81       	ld	r24, Z
    313c:	a1 e9       	ldi	r26, 0x91	; 145
    313e:	b1 e4       	ldi	r27, 0x41	; 65
    3140:	13 96       	adiw	r26, 0x03	; 3
    3142:	8c 93       	st	X, r24
    3144:	13 97       	sbiw	r26, 0x03	; 3
		DIGIT[0][2] = fnd_tbl[Weight_1000];				// мёЎм •л¬ҙкІҢ  10.00мқҳ мһҗлҰ¬
    3146:	ef 2d       	mov	r30, r15
    3148:	f0 e0       	ldi	r31, 0x00	; 0
    314a:	e5 5a       	subi	r30, 0xA5	; 165
    314c:	fe 4b       	sbci	r31, 0xBE	; 190
    314e:	80 81       	ld	r24, Z
    3150:	12 96       	adiw	r26, 0x02	; 2
    3152:	8c 93       	st	X, r24
    3154:	12 97       	sbiw	r26, 0x02	; 2
		DIGIT[0][1] = fnd_tbl[Weight_100]+FND_Point;			// мёЎм •л¬ҙкІҢ   1.00мқҳ мһҗлҰ¬
    3156:	e0 2f       	mov	r30, r16
    3158:	f0 e0       	ldi	r31, 0x00	; 0
    315a:	e5 5a       	subi	r30, 0xA5	; 165
    315c:	fe 4b       	sbci	r31, 0xBE	; 190
    315e:	80 81       	ld	r24, Z
    3160:	8f 5f       	subi	r24, 0xFF	; 255
    3162:	11 96       	adiw	r26, 0x01	; 1
    3164:	8c 93       	st	X, r24
    3166:	11 97       	sbiw	r26, 0x01	; 1
		DIGIT[0][0] = fnd_tbl[Weight_10];				// мёЎм •л¬ҙкІҢ   0.10мқҳ мһҗлҰ¬
    3168:	e1 2f       	mov	r30, r17
    316a:	f0 e0       	ldi	r31, 0x00	; 0
    316c:	e5 5a       	subi	r30, 0xA5	; 165
    316e:	fe 4b       	sbci	r31, 0xBE	; 190
    3170:	80 81       	ld	r24, Z
    3172:	8c 93       	st	X, r24
    3174:	58 c0       	rjmp	.+176    	; 0x3226 <Cell_Desplay+0x1de>
	}
	else if(CELL.Value > 1000)						// мёЎм •л¬ҙкІҢ 10Kg ліҙлӢӨ нҒ¬л©ҙ
    3176:	80 91 37 51 	lds	r24, 0x5137	; 0x805137 <CELL+0x1>
    317a:	90 91 38 51 	lds	r25, 0x5138	; 0x805138 <CELL+0x2>
    317e:	a0 91 39 51 	lds	r26, 0x5139	; 0x805139 <CELL+0x3>
    3182:	b0 91 3a 51 	lds	r27, 0x513A	; 0x80513a <CELL+0x4>
    3186:	89 3e       	cpi	r24, 0xE9	; 233
    3188:	93 40       	sbci	r25, 0x03	; 3
    318a:	a1 05       	cpc	r26, r1
    318c:	b1 05       	cpc	r27, r1
    318e:	14 f1       	brlt	.+68     	; 0x31d4 <Cell_Desplay+0x18c>
	{
		DIGIT[0][3] = fnd_tbl[Weight_1000];				// мёЎм •л¬ҙкІҢ 10.00мқҳ мһҗлҰ¬
    3190:	ef 2d       	mov	r30, r15
    3192:	f0 e0       	ldi	r31, 0x00	; 0
    3194:	e5 5a       	subi	r30, 0xA5	; 165
    3196:	fe 4b       	sbci	r31, 0xBE	; 190
    3198:	80 81       	ld	r24, Z
    319a:	a1 e9       	ldi	r26, 0x91	; 145
    319c:	b1 e4       	ldi	r27, 0x41	; 65
    319e:	13 96       	adiw	r26, 0x03	; 3
    31a0:	8c 93       	st	X, r24
    31a2:	13 97       	sbiw	r26, 0x03	; 3
		DIGIT[0][2] = fnd_tbl[Weight_100]+FND_Point;			// мёЎм •л¬ҙкІҢ  1.00мқҳ мһҗлҰ¬
    31a4:	e0 2f       	mov	r30, r16
    31a6:	f0 e0       	ldi	r31, 0x00	; 0
    31a8:	e5 5a       	subi	r30, 0xA5	; 165
    31aa:	fe 4b       	sbci	r31, 0xBE	; 190
    31ac:	80 81       	ld	r24, Z
    31ae:	8f 5f       	subi	r24, 0xFF	; 255
    31b0:	12 96       	adiw	r26, 0x02	; 2
    31b2:	8c 93       	st	X, r24
    31b4:	12 97       	sbiw	r26, 0x02	; 2
		DIGIT[0][1] = fnd_tbl[Weight_10];				// мёЎм •л¬ҙкІҢ  0.10мқҳ мһҗлҰ¬
    31b6:	e1 2f       	mov	r30, r17
    31b8:	f0 e0       	ldi	r31, 0x00	; 0
    31ba:	e5 5a       	subi	r30, 0xA5	; 165
    31bc:	fe 4b       	sbci	r31, 0xBE	; 190
    31be:	80 81       	ld	r24, Z
    31c0:	11 96       	adiw	r26, 0x01	; 1
    31c2:	8c 93       	st	X, r24
    31c4:	11 97       	sbiw	r26, 0x01	; 1
		DIGIT[0][0] = fnd_tbl[Weight_1];				// мёЎм •л¬ҙкІҢ  0.01мқҳ мһҗлҰ¬
    31c6:	e6 2f       	mov	r30, r22
    31c8:	f0 e0       	ldi	r31, 0x00	; 0
    31ca:	e5 5a       	subi	r30, 0xA5	; 165
    31cc:	fe 4b       	sbci	r31, 0xBE	; 190
    31ce:	80 81       	ld	r24, Z
    31d0:	8c 93       	st	X, r24
    31d2:	29 c0       	rjmp	.+82     	; 0x3226 <Cell_Desplay+0x1de>
	}
	else if(CELL.Value < 1000)						// мёЎм •л¬ҙкІҢ 10Kg ліҙлӢӨ мһ‘мңјл©ҙ
    31d4:	80 91 37 51 	lds	r24, 0x5137	; 0x805137 <CELL+0x1>
    31d8:	90 91 38 51 	lds	r25, 0x5138	; 0x805138 <CELL+0x2>
    31dc:	a0 91 39 51 	lds	r26, 0x5139	; 0x805139 <CELL+0x3>
    31e0:	b0 91 3a 51 	lds	r27, 0x513A	; 0x80513a <CELL+0x4>
    31e4:	88 3e       	cpi	r24, 0xE8	; 232
    31e6:	93 40       	sbci	r25, 0x03	; 3
    31e8:	a1 05       	cpc	r26, r1
    31ea:	b1 05       	cpc	r27, r1
    31ec:	e4 f4       	brge	.+56     	; 0x3226 <Cell_Desplay+0x1de>
	{
		DIGIT[0][3] = FND_OFF;						// мёЎм •л¬ҙкІҢ 10.00мқҳ мһҗлҰ¬ OFF
    31ee:	a1 e9       	ldi	r26, 0x91	; 145
    31f0:	b1 e4       	ldi	r27, 0x41	; 65
    31f2:	13 96       	adiw	r26, 0x03	; 3
    31f4:	1c 92       	st	X, r1
    31f6:	13 97       	sbiw	r26, 0x03	; 3
		DIGIT[0][2] = fnd_tbl[Weight_100]+FND_Point;			// мёЎм •л¬ҙкІҢ  1.00мқҳ мһҗлҰ¬
    31f8:	e0 2f       	mov	r30, r16
    31fa:	f0 e0       	ldi	r31, 0x00	; 0
    31fc:	e5 5a       	subi	r30, 0xA5	; 165
    31fe:	fe 4b       	sbci	r31, 0xBE	; 190
    3200:	80 81       	ld	r24, Z
    3202:	8f 5f       	subi	r24, 0xFF	; 255
    3204:	12 96       	adiw	r26, 0x02	; 2
    3206:	8c 93       	st	X, r24
    3208:	12 97       	sbiw	r26, 0x02	; 2
		DIGIT[0][1] = fnd_tbl[Weight_10];				// мёЎм •л¬ҙкІҢ  0.10мқҳ мһҗлҰ¬
    320a:	e1 2f       	mov	r30, r17
    320c:	f0 e0       	ldi	r31, 0x00	; 0
    320e:	e5 5a       	subi	r30, 0xA5	; 165
    3210:	fe 4b       	sbci	r31, 0xBE	; 190
    3212:	80 81       	ld	r24, Z
    3214:	11 96       	adiw	r26, 0x01	; 1
    3216:	8c 93       	st	X, r24
    3218:	11 97       	sbiw	r26, 0x01	; 1
		DIGIT[0][0] = fnd_tbl[Weight_1];				// мёЎм •л¬ҙкІҢ  0.01мқҳ мһҗлҰ¬
    321a:	e6 2f       	mov	r30, r22
    321c:	f0 e0       	ldi	r31, 0x00	; 0
    321e:	e5 5a       	subi	r30, 0xA5	; 165
    3220:	fe 4b       	sbci	r31, 0xBE	; 190
    3222:	80 81       	ld	r24, Z
    3224:	8c 93       	st	X, r24
	}
}
    3226:	df 91       	pop	r29
    3228:	cf 91       	pop	r28
    322a:	1f 91       	pop	r17
    322c:	0f 91       	pop	r16
    322e:	ff 90       	pop	r15
    3230:	ef 90       	pop	r14
    3232:	bf 90       	pop	r11
    3234:	af 90       	pop	r10
    3236:	9f 90       	pop	r9
    3238:	8f 90       	pop	r8
    323a:	08 95       	ret

0000323c <Cell_Data_Read>:

//=================================================================================================
int32_t Cell_Data_Read(void)							// лЎңл“ңм…Җ Data мқҪкё°, HX711 м ңм–ҙ
{
    323c:	8f 92       	push	r8
    323e:	9f 92       	push	r9
    3240:	af 92       	push	r10
    3242:	bf 92       	push	r11
    3244:	cf 92       	push	r12
    3246:	df 92       	push	r13
    3248:	ef 92       	push	r14
    324a:	ff 92       	push	r15
	int32_t Value = 0;							// Data м ҖмһҘмҡ© ліҖмҲҳ мҙҲкё°нҷ”
	SCK_LOW_1;								// HX711 SCk LOW
    324c:	e4 e4       	ldi	r30, 0x44	; 68
    324e:	f4 e0       	ldi	r31, 0x04	; 4
    3250:	80 81       	ld	r24, Z
    3252:	8b 7f       	andi	r24, 0xFB	; 251
    3254:	80 83       	st	Z, r24
	while(DO1);								// HX711 SDAк°Җ HIGH мқҙл©ҙ лҢҖкё°
    3256:	80 91 48 04 	lds	r24, 0x0448	; 0x800448 <__TEXT_REGION_LENGTH__+0x7e0448>
    325a:	83 ff       	sbrs	r24, 3
    325c:	fc cf       	rjmp	.-8      	; 0x3256 <Cell_Data_Read+0x1a>
    325e:	90 e0       	ldi	r25, 0x00	; 0
    3260:	40 e0       	ldi	r20, 0x00	; 0
    3262:	50 e0       	ldi	r21, 0x00	; 0
    3264:	ba 01       	movw	r22, r20
    3266:	1d c0       	rjmp	.+58     	; 0x32a2 <Cell_Data_Read+0x66>
	for(uint8_t i = 0; i < 24; i++)						// 24bit Data л§ҢнҒј л°ҳліө
	{
		SCK_HIGH_1;							// HX711 SCk HIGH
    3268:	e4 e4       	ldi	r30, 0x44	; 68
    326a:	f4 e0       	ldi	r31, 0x04	; 4
    326c:	80 81       	ld	r24, Z
    326e:	84 60       	ori	r24, 0x04	; 4
    3270:	80 83       	st	Z, r24
	#else
		//round up by default
		__ticks_dc = (uint32_t)(ceil(fabs(__tmp)));
	#endif

	__builtin_avr_delay_cycles(__ticks_dc);
    3272:	22 e6       	ldi	r18, 0x62	; 98
    3274:	2a 95       	dec	r18
    3276:	f1 f7       	brne	.-4      	; 0x3274 <Cell_Data_Read+0x38>
    3278:	00 00       	nop
		_delay_us(20);
		Value = Value << 1;						// Data 1мһҗлҰ¬ мү¬н”„нҠё
    327a:	44 0f       	add	r20, r20
    327c:	55 1f       	adc	r21, r21
    327e:	66 1f       	adc	r22, r22
    3280:	77 1f       	adc	r23, r23
		SCK_LOW_1;							// HX711 SCk LOW
    3282:	80 81       	ld	r24, Z
    3284:	8b 7f       	andi	r24, 0xFB	; 251
    3286:	80 83       	st	Z, r24
    3288:	82 e6       	ldi	r24, 0x62	; 98
    328a:	8a 95       	dec	r24
    328c:	f1 f7       	brne	.-4      	; 0x328a <Cell_Data_Read+0x4e>
    328e:	00 00       	nop
		_delay_us(20);
		if(DO1) {Value++;}						// HX711 SDAк°Җ HIGH мқҙл©ҙ Bit Data лҚ”н•ҳкё°
    3290:	80 91 48 04 	lds	r24, 0x0448	; 0x800448 <__TEXT_REGION_LENGTH__+0x7e0448>
    3294:	83 fd       	sbrc	r24, 3
    3296:	04 c0       	rjmp	.+8      	; 0x32a0 <Cell_Data_Read+0x64>
    3298:	4f 5f       	subi	r20, 0xFF	; 255
    329a:	5f 4f       	sbci	r21, 0xFF	; 255
    329c:	6f 4f       	sbci	r22, 0xFF	; 255
    329e:	7f 4f       	sbci	r23, 0xFF	; 255
int32_t Cell_Data_Read(void)							// лЎңл“ңм…Җ Data мқҪкё°, HX711 м ңм–ҙ
{
	int32_t Value = 0;							// Data м ҖмһҘмҡ© ліҖмҲҳ мҙҲкё°нҷ”
	SCK_LOW_1;								// HX711 SCk LOW
	while(DO1);								// HX711 SDAк°Җ HIGH мқҙл©ҙ лҢҖкё°
	for(uint8_t i = 0; i < 24; i++)						// 24bit Data л§ҢнҒј л°ҳліө
    32a0:	9f 5f       	subi	r25, 0xFF	; 255
    32a2:	98 31       	cpi	r25, 0x18	; 24
    32a4:	08 f3       	brcs	.-62     	; 0x3268 <Cell_Data_Read+0x2c>
		Value = Value << 1;						// Data 1мһҗлҰ¬ мү¬н”„нҠё
		SCK_LOW_1;							// HX711 SCk LOW
		_delay_us(20);
		if(DO1) {Value++;}						// HX711 SDAк°Җ HIGH мқҙл©ҙ Bit Data лҚ”н•ҳкё°
	}
	SCK_HIGH_1;								// HX711 SCk HIGH
    32a6:	e4 e4       	ldi	r30, 0x44	; 68
    32a8:	f4 e0       	ldi	r31, 0x04	; 4
    32aa:	80 81       	ld	r24, Z
    32ac:	84 60       	ori	r24, 0x04	; 4
    32ae:	80 83       	st	Z, r24
    32b0:	92 e6       	ldi	r25, 0x62	; 98
    32b2:	9a 95       	dec	r25
    32b4:	f1 f7       	brne	.-4      	; 0x32b2 <Cell_Data_Read+0x76>
    32b6:	00 00       	nop
	_delay_us(20);
	SCK_LOW_1;								// HX711 SCk LOW
    32b8:	80 81       	ld	r24, Z
    32ba:	8b 7f       	andi	r24, 0xFB	; 251
    32bc:	80 83       	st	Z, r24
	#else
		//round up by default
		__ticks_dc = (uint32_t)(ceil(fabs(__tmp)));
	#endif

	__builtin_avr_delay_cycles(__ticks_dc);
    32be:	2f ef       	ldi	r18, 0xFF	; 255
    32c0:	8f e7       	ldi	r24, 0x7F	; 127
    32c2:	94 e0       	ldi	r25, 0x04	; 4
    32c4:	21 50       	subi	r18, 0x01	; 1
    32c6:	80 40       	sbci	r24, 0x00	; 0
    32c8:	90 40       	sbci	r25, 0x00	; 0
    32ca:	e1 f7       	brne	.-8      	; 0x32c4 <Cell_Data_Read+0x88>
    32cc:	00 c0       	rjmp	.+0      	; 0x32ce <Cell_Data_Read+0x92>
    32ce:	00 00       	nop
	_delay_ms(100);

	Value = Value ^ 0x400000;						// м „мІҙ Data мқҳ 2мқҳ ліҙмҲҳ к°’ кө¬н•ҳкё°
    32d0:	6a 01       	movw	r12, r20
    32d2:	7b 01       	movw	r14, r22
    32d4:	20 e4       	ldi	r18, 0x40	; 64
    32d6:	e2 26       	eor	r14, r18
	if(Value > Cell_Capa * 10000 + CELL.OFF_Set) {Value = 0;}		// м „мІҙ Data к°Җ мғҒн•ңк°’ мқҙмғҒмқҙл©ҙ Data мҙҲкё°нҷ” (if(Value > 0x7FF000) {Value = 0;})
    32d8:	20 91 83 51 	lds	r18, 0x5183	; 0x805183 <Cell_Capa>
    32dc:	30 91 84 51 	lds	r19, 0x5184	; 0x805184 <Cell_Capa+0x1>
    32e0:	40 91 85 51 	lds	r20, 0x5185	; 0x805185 <Cell_Capa+0x2>
    32e4:	50 91 86 51 	lds	r21, 0x5186	; 0x805186 <Cell_Capa+0x3>
    32e8:	a0 e1       	ldi	r26, 0x10	; 16
    32ea:	b7 e2       	ldi	r27, 0x27	; 39
    32ec:	0e 94 f7 3b 	call	0x77ee	; 0x77ee <__muluhisi3>
    32f0:	80 90 3b 51 	lds	r8, 0x513B	; 0x80513b <CELL+0x5>
    32f4:	90 90 3c 51 	lds	r9, 0x513C	; 0x80513c <CELL+0x6>
    32f8:	a0 90 3d 51 	lds	r10, 0x513D	; 0x80513d <CELL+0x7>
    32fc:	b0 90 3e 51 	lds	r11, 0x513E	; 0x80513e <CELL+0x8>
    3300:	dc 01       	movw	r26, r24
    3302:	cb 01       	movw	r24, r22
    3304:	88 0d       	add	r24, r8
    3306:	99 1d       	adc	r25, r9
    3308:	aa 1d       	adc	r26, r10
    330a:	bb 1d       	adc	r27, r11
    330c:	8c 15       	cp	r24, r12
    330e:	9d 05       	cpc	r25, r13
    3310:	ae 05       	cpc	r26, r14
    3312:	bf 05       	cpc	r27, r15
    3314:	18 f4       	brcc	.+6      	; 0x331c <Cell_Data_Read+0xe0>
    3316:	c1 2c       	mov	r12, r1
    3318:	d1 2c       	mov	r13, r1
    331a:	76 01       	movw	r14, r12
	Proportion_Set();							// л°°мңЁ кі„мӮ°
    331c:	0e 94 fe 0d 	call	0x1bfc	; 0x1bfc <Proportion_Set>
	Value = Value / CELL.Proportion;					// Data / л°°мңЁ = л¬ҙкІҢ
    3320:	80 90 47 51 	lds	r8, 0x5147	; 0x805147 <CELL+0x11>
    3324:	90 90 48 51 	lds	r9, 0x5148	; 0x805148 <CELL+0x12>
    3328:	a0 90 49 51 	lds	r10, 0x5149	; 0x805149 <CELL+0x13>
    332c:	b0 90 4a 51 	lds	r11, 0x514A	; 0x80514a <CELL+0x14>
    3330:	c7 01       	movw	r24, r14
    3332:	b6 01       	movw	r22, r12
    3334:	0e 94 8a 36 	call	0x6d14	; 0x6d14 <__floatsisf>
    3338:	a5 01       	movw	r20, r10
    333a:	94 01       	movw	r18, r8
    333c:	0e 94 e0 35 	call	0x6bc0	; 0x6bc0 <__divsf3>
    3340:	0e 94 52 36 	call	0x6ca4	; 0x6ca4 <__fixsfsi>
	return(Value);
}
    3344:	ff 90       	pop	r15
    3346:	ef 90       	pop	r14
    3348:	df 90       	pop	r13
    334a:	cf 90       	pop	r12
    334c:	bf 90       	pop	r11
    334e:	af 90       	pop	r10
    3350:	9f 90       	pop	r9
    3352:	8f 90       	pop	r8
    3354:	08 95       	ret

00003356 <Cell_Zero_Set>:
	return(ValSum);								// лҰ¬н„ҙ ValSum
}

//=================================================================================================
void Cell_Zero_Set(void)							// лЎңл“ңм…Җ 0 к°’ м°ҫкё°
{
    3356:	0f 93       	push	r16
    3358:	1f 93       	push	r17
	int32_t Value = 0;							// мёЎм • к°’ ліҖмҲҳ мҙҲкё°нҷ”
	int32_t Value_Sum = 0;							// мёЎм • к°’ кі„мӮ° ліҖмҲҳ мҙҲкё°нҷ”

	Value = Cell_Data_Read();						// лЎңл“ңм…Җ Data мқҪкё°
    335a:	0e 94 1e 19 	call	0x323c	; 0x323c <Cell_Data_Read>
    335e:	8b 01       	movw	r16, r22
    3360:	9c 01       	movw	r18, r24
	do{
		Value_Sum = CELL.OFF_Set - Value;				// лЎңл“ңм…Җ OFF_Set мҙҲкё°к°’(20Kg) - Data = Value_Sum
    3362:	80 91 3b 51 	lds	r24, 0x513B	; 0x80513b <CELL+0x5>
    3366:	90 91 3c 51 	lds	r25, 0x513C	; 0x80513c <CELL+0x6>
    336a:	a0 91 3d 51 	lds	r26, 0x513D	; 0x80513d <CELL+0x7>
    336e:	b0 91 3e 51 	lds	r27, 0x513E	; 0x80513e <CELL+0x8>
    3372:	80 1b       	sub	r24, r16
    3374:	91 0b       	sbc	r25, r17
    3376:	a2 0b       	sbc	r26, r18
    3378:	b3 0b       	sbc	r27, r19
		if     (Value_Sum > 0) {CELL.OFF_Set = CELL.OFF_Set - Value_Sum;}				// Value_Sum к°’мқҙ 0 ліҙлӢӨ   нҒ¬л©ҙ OFF_Set - Value_Sum н•ҙм„ң OFF_Setм—җ м ҖмһҘ
    337a:	18 16       	cp	r1, r24
    337c:	19 06       	cpc	r1, r25
    337e:	1a 06       	cpc	r1, r26
    3380:	1b 06       	cpc	r1, r27
    3382:	7c f4       	brge	.+30     	; 0x33a2 <Cell_Zero_Set+0x4c>
    3384:	e6 e3       	ldi	r30, 0x36	; 54
    3386:	f1 e5       	ldi	r31, 0x51	; 81
    3388:	45 81       	ldd	r20, Z+5	; 0x05
    338a:	56 81       	ldd	r21, Z+6	; 0x06
    338c:	67 81       	ldd	r22, Z+7	; 0x07
    338e:	70 85       	ldd	r23, Z+8	; 0x08
    3390:	48 1b       	sub	r20, r24
    3392:	59 0b       	sbc	r21, r25
    3394:	6a 0b       	sbc	r22, r26
    3396:	7b 0b       	sbc	r23, r27
    3398:	45 83       	std	Z+5, r20	; 0x05
    339a:	56 83       	std	Z+6, r21	; 0x06
    339c:	67 83       	std	Z+7, r22	; 0x07
    339e:	70 87       	std	Z+8, r23	; 0x08
    33a0:	10 c0       	rjmp	.+32     	; 0x33c2 <Cell_Zero_Set+0x6c>
		else if(Value_Sum < 0) {CELL.OFF_Set = CELL.OFF_Set + Value_Sum;}				// Value_Sum к°’мқҙ 0 ліҙлӢӨ мһ‘мңјл©ҙ OFF_Set + Value_Sum н•ҙм„ң OFF_Setм—җ м ҖмһҘ
    33a2:	bb 23       	and	r27, r27
    33a4:	74 f4       	brge	.+28     	; 0x33c2 <Cell_Zero_Set+0x6c>
    33a6:	e6 e3       	ldi	r30, 0x36	; 54
    33a8:	f1 e5       	ldi	r31, 0x51	; 81
    33aa:	45 81       	ldd	r20, Z+5	; 0x05
    33ac:	56 81       	ldd	r21, Z+6	; 0x06
    33ae:	67 81       	ldd	r22, Z+7	; 0x07
    33b0:	70 85       	ldd	r23, Z+8	; 0x08
    33b2:	48 0f       	add	r20, r24
    33b4:	59 1f       	adc	r21, r25
    33b6:	6a 1f       	adc	r22, r26
    33b8:	7b 1f       	adc	r23, r27
    33ba:	45 83       	std	Z+5, r20	; 0x05
    33bc:	56 83       	std	Z+6, r21	; 0x06
    33be:	67 83       	std	Z+7, r22	; 0x07
    33c0:	70 87       	std	Z+8, r23	; 0x08
	}while(Value_Sum != 0);							// !Value_Sum мқҙ 0 мқјл•Ңк№Ңм§Җ л°ҳліө
    33c2:	89 2b       	or	r24, r25
    33c4:	8a 2b       	or	r24, r26
    33c6:	8b 2b       	or	r24, r27
    33c8:	61 f6       	brne	.-104    	; 0x3362 <Cell_Zero_Set+0xc>
	Beep(10);
    33ca:	8a e0       	ldi	r24, 0x0A	; 10
    33cc:	90 e0       	ldi	r25, 0x00	; 0
    33ce:	0e 94 42 04 	call	0x884	; 0x884 <Beep>
	wdt_reset();								// Reset WDT
    33d2:	0e 94 8c 0e 	call	0x1d18	; 0x1d18 <wdt_reset>
}
    33d6:	1f 91       	pop	r17
    33d8:	0f 91       	pop	r16
    33da:	08 95       	ret

000033dc <Read_Load_Cell>:
	return(Value);
}

//=================================================================================================
uint16_t Read_Load_Cell(void)							// лЎңл“ңм…Җ мёЎм •к°’ мқҪкё°
{
    33dc:	4f 92       	push	r4
    33de:	5f 92       	push	r5
    33e0:	6f 92       	push	r6
    33e2:	7f 92       	push	r7
    33e4:	8f 92       	push	r8
    33e6:	9f 92       	push	r9
    33e8:	af 92       	push	r10
    33ea:	bf 92       	push	r11
    33ec:	cf 92       	push	r12
    33ee:	df 92       	push	r13
    33f0:	ef 92       	push	r14
    33f2:	ff 92       	push	r15
    33f4:	0f 93       	push	r16
    33f6:	1f 93       	push	r17
	int32_t Value = 0;							// мёЎм •к°’ м ҖмһҘмҡ© ліҖмҲҳ мҙҲкё°нҷ”
	int32_t ValSum = 0;							// OFF-Set кі„мӮ°к°’ м ҖмһҘмҡ© ліҖмҲҳ мҙҲкё°нҷ”
	uint32_t CAPA;								// Cell_Capa * 1000
	int32_t OFF_SET = CELL.OFF_Set;						// лЎңл“ңм…Җ OFF_Set(мһ…л Ҙк°’мқ„ 0к°’ мңјлЎң л§Ңл“Өкё°мң„н•ң к°’)
    33f8:	c0 90 3b 51 	lds	r12, 0x513B	; 0x80513b <CELL+0x5>
    33fc:	d0 90 3c 51 	lds	r13, 0x513C	; 0x80513c <CELL+0x6>
    3400:	e0 90 3d 51 	lds	r14, 0x513D	; 0x80513d <CELL+0x7>
    3404:	f0 90 3e 51 	lds	r15, 0x513E	; 0x80513e <CELL+0x8>
//-------------------------------------------------------------------------------------------------
	Value = Cell_Data_Read();						// лЎңл“ңм…Җ мёЎм •к°’ мқҪкё°
    3408:	0e 94 1e 19 	call	0x323c	; 0x323c <Cell_Data_Read>
    340c:	2b 01       	movw	r4, r22
    340e:	3c 01       	movw	r6, r24
	CAPA = Cell_Capa * 1000;
    3410:	20 91 83 51 	lds	r18, 0x5183	; 0x805183 <Cell_Capa>
    3414:	30 91 84 51 	lds	r19, 0x5184	; 0x805184 <Cell_Capa+0x1>
    3418:	40 91 85 51 	lds	r20, 0x5185	; 0x805185 <Cell_Capa+0x2>
    341c:	50 91 86 51 	lds	r21, 0x5186	; 0x805186 <Cell_Capa+0x3>
    3420:	a8 ee       	ldi	r26, 0xE8	; 232
    3422:	b3 e0       	ldi	r27, 0x03	; 3
    3424:	0e 94 f7 3b 	call	0x77ee	; 0x77ee <__muluhisi3>
    3428:	4b 01       	movw	r8, r22
    342a:	5c 01       	movw	r10, r24
//-------------------------------------------------------------------------------------------------
	if(Value > 0)								// л¬ҙкІҢ Data к°Җ мһҲмңјл©ҙ
    342c:	14 14       	cp	r1, r4
    342e:	15 04       	cpc	r1, r5
    3430:	16 04       	cpc	r1, r6
    3432:	17 04       	cpc	r1, r7
    3434:	0c f0       	brlt	.+2      	; 0x3438 <Read_Load_Cell+0x5c>
    3436:	81 c0       	rjmp	.+258    	; 0x353a <Read_Load_Cell+0x15e>
	{
		ValSum = Value - CELL.OFF_Set;					// л¬ҙкІҢ Data - OFF_Set
    3438:	80 91 3b 51 	lds	r24, 0x513B	; 0x80513b <CELL+0x5>
    343c:	90 91 3c 51 	lds	r25, 0x513C	; 0x80513c <CELL+0x6>
    3440:	a0 91 3d 51 	lds	r26, 0x513D	; 0x80513d <CELL+0x7>
    3444:	b0 91 3e 51 	lds	r27, 0x513E	; 0x80513e <CELL+0x8>
    3448:	93 01       	movw	r18, r6
    344a:	82 01       	movw	r16, r4
    344c:	08 1b       	sub	r16, r24
    344e:	19 0b       	sbc	r17, r25
    3450:	2a 0b       	sbc	r18, r26
    3452:	3b 0b       	sbc	r19, r27
    3454:	c9 01       	movw	r24, r18
    3456:	b8 01       	movw	r22, r16
		ValSum = ValSum / 10;						// лӮ®мқҖ Data к°’ м§Җмҡ°кё°
    3458:	2a e0       	ldi	r18, 0x0A	; 10
    345a:	30 e0       	ldi	r19, 0x00	; 0
    345c:	40 e0       	ldi	r20, 0x00	; 0
    345e:	50 e0       	ldi	r21, 0x00	; 0
    3460:	0e 94 c0 3b 	call	0x7780	; 0x7780 <__divmodsi4>
		ValSum = ValSum * 10;						// лӮ®мқҖ Data к°’ м§Җмҡ°кё°
    3464:	ba 01       	movw	r22, r20
    3466:	a9 01       	movw	r20, r18
    3468:	44 0f       	add	r20, r20
    346a:	55 1f       	adc	r21, r21
    346c:	66 1f       	adc	r22, r22
    346e:	77 1f       	adc	r23, r23
    3470:	db 01       	movw	r26, r22
    3472:	ca 01       	movw	r24, r20
    3474:	88 0f       	add	r24, r24
    3476:	99 1f       	adc	r25, r25
    3478:	aa 1f       	adc	r26, r26
    347a:	bb 1f       	adc	r27, r27
    347c:	88 0f       	add	r24, r24
    347e:	99 1f       	adc	r25, r25
    3480:	aa 1f       	adc	r26, r26
    3482:	bb 1f       	adc	r27, r27
    3484:	8a 01       	movw	r16, r20
    3486:	9b 01       	movw	r18, r22
    3488:	08 0f       	add	r16, r24
    348a:	19 1f       	adc	r17, r25
    348c:	2a 1f       	adc	r18, r26
    348e:	3b 1f       	adc	r19, r27
    3490:	c9 01       	movw	r24, r18
    3492:	b8 01       	movw	r22, r16

		if(ValSum >= 0)	{Value_Count = 0;}				// Value_Count мҙҲкё°нҷ”
    3494:	33 23       	and	r19, r19
    3496:	14 f0       	brlt	.+4      	; 0x349c <Read_Load_Cell+0xc0>
    3498:	10 92 4c 51 	sts	0x514C, r1	; 0x80514c <Value_Count>
//-------------------------------------------------------------------------------------------------
// 		printf("ValSum %ld \r\n", ValSum);
		if(ValSum < 0 || ValSum > CAPA)					// ValSum мқҙ 0 ліҙлӢӨ мһ‘кұ°лӮҳ CAPA ліҙлӢӨ нҒ¬л©ҙ мҙҲкё°нҷ” м№ҙмҡҙн„° 
    349c:	99 23       	and	r25, r25
    349e:	2c f0       	brlt	.+10     	; 0x34aa <Read_Load_Cell+0xce>
    34a0:	86 16       	cp	r8, r22
    34a2:	97 06       	cpc	r9, r23
    34a4:	a8 06       	cpc	r10, r24
    34a6:	b9 06       	cpc	r11, r25
    34a8:	00 f5       	brcc	.+64     	; 0x34ea <Read_Load_Cell+0x10e>
		{
			Value_Count++;						// Value_Count мҰқк°Җ
    34aa:	80 91 4c 51 	lds	r24, 0x514C	; 0x80514c <Value_Count>
    34ae:	8f 5f       	subi	r24, 0xFF	; 255
    34b0:	80 93 4c 51 	sts	0x514C, r24	; 0x80514c <Value_Count>
			if(Value_Count > 5)					// Value_Count к°Җ мҙҲкё°нҷ” к°’ ліҙлӢӨ нҒ¬л©ҙ
    34b4:	86 30       	cpi	r24, 0x06	; 6
    34b6:	40 f0       	brcs	.+16     	; 0x34c8 <Read_Load_Cell+0xec>
			{
				Cell_Zero_Set();				// лЎңл“ңм…Җ 0 к°’ м°ҫкё°
    34b8:	0e 94 ab 19 	call	0x3356	; 0x3356 <Cell_Zero_Set>
	 			Value_Count = 0;
    34bc:	10 92 4c 51 	sts	0x514C, r1	; 0x80514c <Value_Count>
			}
			else {CELL.OFF_Set = OFF_SET -5;}			// OFF_Set - 5
			ValSum = 0;						// ValSum мқ„ 0мңјлЎң мҙҲкё°нҷ”
    34c0:	60 e0       	ldi	r22, 0x00	; 0
    34c2:	70 e0       	ldi	r23, 0x00	; 0
    34c4:	cb 01       	movw	r24, r22
    34c6:	33 c0       	rjmp	.+102    	; 0x352e <Read_Load_Cell+0x152>
			if(Value_Count > 5)					// Value_Count к°Җ мҙҲкё°нҷ” к°’ ліҙлӢӨ нҒ¬л©ҙ
			{
				Cell_Zero_Set();				// лЎңл“ңм…Җ 0 к°’ м°ҫкё°
	 			Value_Count = 0;
			}
			else {CELL.OFF_Set = OFF_SET -5;}			// OFF_Set - 5
    34c8:	15 e0       	ldi	r17, 0x05	; 5
    34ca:	c1 1a       	sub	r12, r17
    34cc:	d1 08       	sbc	r13, r1
    34ce:	e1 08       	sbc	r14, r1
    34d0:	f1 08       	sbc	r15, r1
    34d2:	c0 92 3b 51 	sts	0x513B, r12	; 0x80513b <CELL+0x5>
    34d6:	d0 92 3c 51 	sts	0x513C, r13	; 0x80513c <CELL+0x6>
    34da:	e0 92 3d 51 	sts	0x513D, r14	; 0x80513d <CELL+0x7>
    34de:	f0 92 3e 51 	sts	0x513E, r15	; 0x80513e <CELL+0x8>
			ValSum = 0;						// ValSum мқ„ 0мңјлЎң мҙҲкё°нҷ”
    34e2:	60 e0       	ldi	r22, 0x00	; 0
    34e4:	70 e0       	ldi	r23, 0x00	; 0
    34e6:	cb 01       	movw	r24, r22
    34e8:	22 c0       	rjmp	.+68     	; 0x352e <Read_Load_Cell+0x152>
		}
		else if(ValSum > 0 && IN_Scales > ValSum)			// ValSum мқҙ 0 ліҙлӢӨ нҒ¬кі  мһ…кө¬мІҙмӨ‘ ліҙлӢӨ мһ‘мңјл©ҙ
    34ea:	16 16       	cp	r1, r22
    34ec:	17 06       	cpc	r1, r23
    34ee:	18 06       	cpc	r1, r24
    34f0:	19 06       	cpc	r1, r25
    34f2:	ec f4       	brge	.+58     	; 0x352e <Read_Load_Cell+0x152>
    34f4:	40 90 21 51 	lds	r4, 0x5121	; 0x805121 <IN_Scales>
    34f8:	50 90 22 51 	lds	r5, 0x5122	; 0x805122 <IN_Scales+0x1>
    34fc:	05 2c       	mov	r0, r5
    34fe:	00 0c       	add	r0, r0
    3500:	66 08       	sbc	r6, r6
    3502:	77 08       	sbc	r7, r7
    3504:	64 15       	cp	r22, r4
    3506:	75 05       	cpc	r23, r5
    3508:	86 05       	cpc	r24, r6
    350a:	97 05       	cpc	r25, r7
    350c:	84 f4       	brge	.+32     	; 0x352e <Read_Load_Cell+0x152>
		{
			CELL.OFF_Set = OFF_SET + 5;				// OFF_Set + 10
    350e:	25 e0       	ldi	r18, 0x05	; 5
    3510:	c2 0e       	add	r12, r18
    3512:	d1 1c       	adc	r13, r1
    3514:	e1 1c       	adc	r14, r1
    3516:	f1 1c       	adc	r15, r1
    3518:	c0 92 3b 51 	sts	0x513B, r12	; 0x80513b <CELL+0x5>
    351c:	d0 92 3c 51 	sts	0x513C, r13	; 0x80513c <CELL+0x6>
    3520:	e0 92 3d 51 	sts	0x513D, r14	; 0x80513d <CELL+0x7>
    3524:	f0 92 3e 51 	sts	0x513E, r15	; 0x80513e <CELL+0x8>
			ValSum = 0;						// ValSum мқ„ 0мңјлЎң мҙҲкё°нҷ”
    3528:	60 e0       	ldi	r22, 0x00	; 0
    352a:	70 e0       	ldi	r23, 0x00	; 0
    352c:	cb 01       	movw	r24, r22
		}

		if(ValSum > CAPA) {ValSum = 0;}					// ValSum мқҙ CAPA(200Kg) ліҙлӢӨ нҒ¬л©ҙ
    352e:	86 16       	cp	r8, r22
    3530:	97 06       	cpc	r9, r23
    3532:	a8 06       	cpc	r10, r24
    3534:	b9 06       	cpc	r11, r25
    3536:	28 f0       	brcs	.+10     	; 0x3542 <Read_Load_Cell+0x166>
    3538:	07 c0       	rjmp	.+14     	; 0x3548 <Read_Load_Cell+0x16c>

//=================================================================================================
uint16_t Read_Load_Cell(void)							// лЎңл“ңм…Җ мёЎм •к°’ мқҪкё°
{
	int32_t Value = 0;							// мёЎм •к°’ м ҖмһҘмҡ© ліҖмҲҳ мҙҲкё°нҷ”
	int32_t ValSum = 0;							// OFF-Set кі„мӮ°к°’ м ҖмһҘмҡ© ліҖмҲҳ мҙҲкё°нҷ”
    353a:	60 e0       	ldi	r22, 0x00	; 0
    353c:	70 e0       	ldi	r23, 0x00	; 0
    353e:	cb 01       	movw	r24, r22
    3540:	03 c0       	rjmp	.+6      	; 0x3548 <Read_Load_Cell+0x16c>
		{
			CELL.OFF_Set = OFF_SET + 5;				// OFF_Set + 10
			ValSum = 0;						// ValSum мқ„ 0мңјлЎң мҙҲкё°нҷ”
		}

		if(ValSum > CAPA) {ValSum = 0;}					// ValSum мқҙ CAPA(200Kg) ліҙлӢӨ нҒ¬л©ҙ
    3542:	60 e0       	ldi	r22, 0x00	; 0
    3544:	70 e0       	ldi	r23, 0x00	; 0
    3546:	cb 01       	movw	r24, r22
	}
	ValSum = ValSum / 10;							// ValSum лҘј 10мңјлЎң лӮҳлҲ”
    3548:	2a e0       	ldi	r18, 0x0A	; 10
    354a:	30 e0       	ldi	r19, 0x00	; 0
    354c:	40 e0       	ldi	r20, 0x00	; 0
    354e:	50 e0       	ldi	r21, 0x00	; 0
    3550:	0e 94 c0 3b 	call	0x7780	; 0x7780 <__divmodsi4>
	return(ValSum);								// лҰ¬н„ҙ ValSum
}
    3554:	c9 01       	movw	r24, r18
    3556:	1f 91       	pop	r17
    3558:	0f 91       	pop	r16
    355a:	ff 90       	pop	r15
    355c:	ef 90       	pop	r14
    355e:	df 90       	pop	r13
    3560:	cf 90       	pop	r12
    3562:	bf 90       	pop	r11
    3564:	af 90       	pop	r10
    3566:	9f 90       	pop	r9
    3568:	8f 90       	pop	r8
    356a:	7f 90       	pop	r7
    356c:	6f 90       	pop	r6
    356e:	5f 90       	pop	r5
    3570:	4f 90       	pop	r4
    3572:	08 95       	ret

00003574 <IN_Scales_Set>:
}

//=================================================================================================
void IN_Scales_Set(void)							// IN_Scales м„Өм •
{
	DIGIT[2][0] = FND_OFF;							// лЎңл“ңм…Җ RO, мһ…кө¬мІҙмӨ‘ 1мқҳ мһҗлҰ¬ м§Җмҡ°кё°
    3574:	10 92 99 41 	sts	0x4199, r1	; 0x804199 <DIGIT+0x8>

	IN_Scales = ee_read_word(Cell_IN_S_Addr);				// лЎңл“ңм…Җ мһ…кө¬мІҙмӨ‘к°’ л¶Ҳлҹ¬мҳӨкё°
    3578:	8a e0       	ldi	r24, 0x0A	; 10
    357a:	90 e0       	ldi	r25, 0x00	; 0
    357c:	0e 94 11 13 	call	0x2622	; 0x2622 <ee_read_word>
    3580:	9c 01       	movw	r18, r24
    3582:	80 93 21 51 	sts	0x5121, r24	; 0x805121 <IN_Scales>
    3586:	90 93 22 51 	sts	0x5122, r25	; 0x805122 <IN_Scales+0x1>
//-------------------------------------------------------------------------------------------------
	IN_S_10000 = IN_Scales / 10000;						// лЎңл“ңм…Җ мһ…кө¬мІҙмӨ‘ 10000мқҳ мһҗлҰ¬
    358a:	60 e1       	ldi	r22, 0x10	; 16
    358c:	77 e2       	ldi	r23, 0x27	; 39
    358e:	0e 94 8a 3b 	call	0x7714	; 0x7714 <__divmodhi4>
    3592:	60 93 23 51 	sts	0x5123, r22	; 0x805123 <IN_S_10000>
	IN_S_1000  = IN_Scales % 10000/ 1000;					// лЎңл“ңм…Җ мһ…кө¬мІҙмӨ‘  1000мқҳ мһҗлҰ¬
    3596:	e8 ee       	ldi	r30, 0xE8	; 232
    3598:	f3 e0       	ldi	r31, 0x03	; 3
    359a:	bf 01       	movw	r22, r30
    359c:	0e 94 8a 3b 	call	0x7714	; 0x7714 <__divmodhi4>
    35a0:	60 93 95 51 	sts	0x5195, r22	; 0x805195 <IN_S_1000>
	IN_S_100   = IN_Scales % 1000 / 100;					// лЎңл“ңм…Җ мһ…кө¬мІҙмӨ‘   100мқҳ мһҗлҰ¬
    35a4:	c9 01       	movw	r24, r18
    35a6:	bf 01       	movw	r22, r30
    35a8:	0e 94 8a 3b 	call	0x7714	; 0x7714 <__divmodhi4>
    35ac:	e4 e6       	ldi	r30, 0x64	; 100
    35ae:	f0 e0       	ldi	r31, 0x00	; 0
    35b0:	bf 01       	movw	r22, r30
    35b2:	0e 94 8a 3b 	call	0x7714	; 0x7714 <__divmodhi4>
    35b6:	60 93 25 51 	sts	0x5125, r22	; 0x805125 <IN_S_100>
	IN_S_10    = IN_Scales % 100 / 10;					// лЎңл“ңм…Җ мһ…кө¬мІҙмӨ‘    10мқҳ мһҗлҰ¬
    35ba:	c9 01       	movw	r24, r18
    35bc:	bf 01       	movw	r22, r30
    35be:	0e 94 8a 3b 	call	0x7714	; 0x7714 <__divmodhi4>
    35c2:	ea e0       	ldi	r30, 0x0A	; 10
    35c4:	f0 e0       	ldi	r31, 0x00	; 0
    35c6:	bf 01       	movw	r22, r30
    35c8:	0e 94 8a 3b 	call	0x7714	; 0x7714 <__divmodhi4>
    35cc:	60 93 07 51 	sts	0x5107, r22	; 0x805107 <IN_S_10>
	IN_S_1     = IN_Scales % 10;						// лЎңл“ңм…Җ мһ…кө¬мІҙмӨ‘     1мқҳ мһҗлҰ¬
    35d0:	c9 01       	movw	r24, r18
    35d2:	bf 01       	movw	r22, r30
    35d4:	0e 94 8a 3b 	call	0x7714	; 0x7714 <__divmodhi4>
    35d8:	80 93 80 51 	sts	0x5180, r24	; 0x805180 <IN_S_1>
//-------------------------------------------------------------------------------------------------
	while(SET.Menu)								// л©”лүҙлӘЁл“ң мқҙл©ҙ л°ҳліө
    35dc:	3d c1       	rjmp	.+634    	; 0x3858 <IN_Scales_Set+0x2e4>
	{
		SET.Blink = 1;							// мһҗлҰҝмҲҳ к№ңл°•мһ„ м„Өм •
    35de:	81 e0       	ldi	r24, 0x01	; 1
    35e0:	80 93 2b 51 	sts	0x512B, r24	; 0x80512b <SET+0x3>

		switch(KEY.Count)						// м„ нғқ Key к°Җ лҲҢлҰ°нҡҹмҲҳ
    35e4:	80 91 67 51 	lds	r24, 0x5167	; 0x805167 <KEY>
    35e8:	82 30       	cpi	r24, 0x02	; 2
    35ea:	09 f4       	brne	.+2      	; 0x35ee <IN_Scales_Set+0x7a>
    35ec:	85 c0       	rjmp	.+266    	; 0x36f8 <IN_Scales_Set+0x184>
    35ee:	30 f4       	brcc	.+12     	; 0x35fc <IN_Scales_Set+0x88>
    35f0:	88 23       	and	r24, r24
    35f2:	69 f0       	breq	.+26     	; 0x360e <IN_Scales_Set+0x9a>
    35f4:	81 30       	cpi	r24, 0x01	; 1
    35f6:	09 f4       	brne	.+2      	; 0x35fa <IN_Scales_Set+0x86>
    35f8:	44 c0       	rjmp	.+136    	; 0x3682 <IN_Scales_Set+0x10e>
    35fa:	2c c1       	rjmp	.+600    	; 0x3854 <IN_Scales_Set+0x2e0>
    35fc:	84 30       	cpi	r24, 0x04	; 4
    35fe:	09 f4       	brne	.+2      	; 0x3602 <IN_Scales_Set+0x8e>
    3600:	f0 c0       	rjmp	.+480    	; 0x37e2 <IN_Scales_Set+0x26e>
    3602:	08 f4       	brcc	.+2      	; 0x3606 <IN_Scales_Set+0x92>
    3604:	b4 c0       	rjmp	.+360    	; 0x376e <IN_Scales_Set+0x1fa>
    3606:	85 30       	cpi	r24, 0x05	; 5
    3608:	09 f4       	brne	.+2      	; 0x360c <IN_Scales_Set+0x98>
    360a:	22 c1       	rjmp	.+580    	; 0x3850 <IN_Scales_Set+0x2dc>
    360c:	23 c1       	rjmp	.+582    	; 0x3854 <IN_Scales_Set+0x2e0>
		{
			case 0:							// лЎңл“ңм…Җ мһ…кө¬мІҙмӨ‘ 10000мқҳ мһҗлҰ¬
				DIGIT[2][3] = fnd_tbl[IN_S_1];			// лЎңл“ңм…Җ мһ…кө¬мІҙмӨ‘ 1мқҳ мһҗлҰ¬ н‘ңмӢң
    360e:	e0 91 80 51 	lds	r30, 0x5180	; 0x805180 <IN_S_1>
    3612:	f0 e0       	ldi	r31, 0x00	; 0
    3614:	e5 5a       	subi	r30, 0xA5	; 165
    3616:	fe 4b       	sbci	r31, 0xBE	; 190
    3618:	80 81       	ld	r24, Z
    361a:	80 93 9c 41 	sts	0x419C, r24	; 0x80419c <DIGIT+0xb>
				if(Blink) {DIGIT[1][3] = FND_OFF;}		// Blink = 1 мқҙл©ҙ лЎңл“ңм…Җ мһ…кө¬мІҙмӨ‘ 10000мқҳ мһҗлҰ¬ OFF
    361e:	80 91 93 51 	lds	r24, 0x5193	; 0x805193 <Blink>
    3622:	88 23       	and	r24, r24
    3624:	19 f0       	breq	.+6      	; 0x362c <IN_Scales_Set+0xb8>
    3626:	10 92 98 41 	sts	0x4198, r1	; 0x804198 <DIGIT+0x7>
    362a:	08 c0       	rjmp	.+16     	; 0x363c <IN_Scales_Set+0xc8>
				else	  {DIGIT[1][3] = fnd_tbl[IN_S_10000];}	// Blink = 0 мқҙл©ҙ лЎңл“ңм…Җ мһ…кө¬мІҙмӨ‘ 10000мқҳ мһҗлҰ¬ н‘ңмӢң
    362c:	e0 91 23 51 	lds	r30, 0x5123	; 0x805123 <IN_S_10000>
    3630:	f0 e0       	ldi	r31, 0x00	; 0
    3632:	e5 5a       	subi	r30, 0xA5	; 165
    3634:	fe 4b       	sbci	r31, 0xBE	; 190
    3636:	80 81       	ld	r24, Z
    3638:	80 93 98 41 	sts	0x4198, r24	; 0x804198 <DIGIT+0x7>

				if(KEY.Buff)					// Key мһ…л Ҙмқҙ мһҲмңјл©ҙ
    363c:	80 91 68 51 	lds	r24, 0x5168	; 0x805168 <KEY+0x1>
    3640:	88 23       	and	r24, r24
    3642:	09 f4       	brne	.+2      	; 0x3646 <IN_Scales_Set+0xd2>
    3644:	07 c1       	rjmp	.+526    	; 0x3854 <IN_Scales_Set+0x2e0>
				{
					if     (KEY.Key == 1 && IN_S_10000 < 1) {IN_S_10000++; KEY.Key = 0;}	// м—…  лІ„нҠј мқҙл©ҙ мһ…кө¬мІҙмӨ‘ 10000мқҳ мһҗлҰ¬ мҰқк°Җ
    3646:	80 91 69 51 	lds	r24, 0x5169	; 0x805169 <KEY+0x2>
    364a:	81 30       	cpi	r24, 0x01	; 1
    364c:	51 f4       	brne	.+20     	; 0x3662 <IN_Scales_Set+0xee>
    364e:	80 91 23 51 	lds	r24, 0x5123	; 0x805123 <IN_S_10000>
    3652:	81 11       	cpse	r24, r1
    3654:	06 c0       	rjmp	.+12     	; 0x3662 <IN_Scales_Set+0xee>
    3656:	8f 5f       	subi	r24, 0xFF	; 255
    3658:	80 93 23 51 	sts	0x5123, r24	; 0x805123 <IN_S_10000>
    365c:	10 92 69 51 	sts	0x5169, r1	; 0x805169 <KEY+0x2>
    3660:	f9 c0       	rjmp	.+498    	; 0x3854 <IN_Scales_Set+0x2e0>
					else if(KEY.Key == 3 && IN_S_10000 > 0) {IN_S_10000--; KEY.Key = 0;}	// лӢӨмҡҙлІ„нҠј мқҙл©ҙ мһ…кө¬мІҙмӨ‘ 10000мқҳ мһҗлҰ¬ к°җмҶҢ
    3662:	80 91 69 51 	lds	r24, 0x5169	; 0x805169 <KEY+0x2>
    3666:	83 30       	cpi	r24, 0x03	; 3
    3668:	09 f0       	breq	.+2      	; 0x366c <IN_Scales_Set+0xf8>
    366a:	f4 c0       	rjmp	.+488    	; 0x3854 <IN_Scales_Set+0x2e0>
    366c:	80 91 23 51 	lds	r24, 0x5123	; 0x805123 <IN_S_10000>
    3670:	88 23       	and	r24, r24
    3672:	09 f4       	brne	.+2      	; 0x3676 <IN_Scales_Set+0x102>
    3674:	ef c0       	rjmp	.+478    	; 0x3854 <IN_Scales_Set+0x2e0>
    3676:	81 50       	subi	r24, 0x01	; 1
    3678:	80 93 23 51 	sts	0x5123, r24	; 0x805123 <IN_S_10000>
    367c:	10 92 69 51 	sts	0x5169, r1	; 0x805169 <KEY+0x2>
    3680:	e9 c0       	rjmp	.+466    	; 0x3854 <IN_Scales_Set+0x2e0>
				}
			break;

			case 1:							// лЎңл“ңм…Җ мһ…кө¬мІҙмӨ‘ 1000мқҳ мһҗлҰ¬
				DIGIT[1][3] = fnd_tbl[IN_S_10000];		// лЎңл“ңм…Җ мһ…кө¬мІҙмӨ‘ 10000мқҳ мһҗлҰ¬ н‘ңмӢң
    3682:	e0 91 23 51 	lds	r30, 0x5123	; 0x805123 <IN_S_10000>
    3686:	f0 e0       	ldi	r31, 0x00	; 0
    3688:	e5 5a       	subi	r30, 0xA5	; 165
    368a:	fe 4b       	sbci	r31, 0xBE	; 190
    368c:	80 81       	ld	r24, Z
    368e:	80 93 98 41 	sts	0x4198, r24	; 0x804198 <DIGIT+0x7>
				if(Blink) {DIGIT[1][2] = FND_OFF;}						// Blink = 1 мқҙл©ҙ лЎңл“ңм…Җ мһ…кө¬мІҙмӨ‘ 1000мқҳ мһҗлҰ¬ OFF
    3692:	80 91 93 51 	lds	r24, 0x5193	; 0x805193 <Blink>
    3696:	88 23       	and	r24, r24
    3698:	19 f0       	breq	.+6      	; 0x36a0 <IN_Scales_Set+0x12c>
    369a:	10 92 97 41 	sts	0x4197, r1	; 0x804197 <DIGIT+0x6>
    369e:	09 c0       	rjmp	.+18     	; 0x36b2 <IN_Scales_Set+0x13e>
				else	  {DIGIT[1][2] = fnd_tbl[IN_S_1000]+FND_Point;}				// Blink = 0 мқҙл©ҙ лЎңл“ңм…Җ мһ…кө¬мІҙмӨ‘ 1000мқҳ мһҗлҰ¬ н‘ңмӢң
    36a0:	e0 91 95 51 	lds	r30, 0x5195	; 0x805195 <IN_S_1000>
    36a4:	f0 e0       	ldi	r31, 0x00	; 0
    36a6:	e5 5a       	subi	r30, 0xA5	; 165
    36a8:	fe 4b       	sbci	r31, 0xBE	; 190
    36aa:	80 81       	ld	r24, Z
    36ac:	8f 5f       	subi	r24, 0xFF	; 255
    36ae:	80 93 97 41 	sts	0x4197, r24	; 0x804197 <DIGIT+0x6>

				if(KEY.Buff)					// Key мһ…л Ҙмқҙ мһҲмңјл©ҙ
    36b2:	80 91 68 51 	lds	r24, 0x5168	; 0x805168 <KEY+0x1>
    36b6:	88 23       	and	r24, r24
    36b8:	09 f4       	brne	.+2      	; 0x36bc <IN_Scales_Set+0x148>
    36ba:	cc c0       	rjmp	.+408    	; 0x3854 <IN_Scales_Set+0x2e0>
				{
					if     (KEY.Key == 1 && IN_S_1000 < 9) {IN_S_1000++; KEY.Key = 0;}	// м—…  лІ„нҠј мқҙл©ҙ мһ…кө¬мІҙмӨ‘ 1000мқҳ мһҗлҰ¬ мҰқк°Җ
    36bc:	80 91 69 51 	lds	r24, 0x5169	; 0x805169 <KEY+0x2>
    36c0:	81 30       	cpi	r24, 0x01	; 1
    36c2:	51 f4       	brne	.+20     	; 0x36d8 <IN_Scales_Set+0x164>
    36c4:	80 91 95 51 	lds	r24, 0x5195	; 0x805195 <IN_S_1000>
    36c8:	89 30       	cpi	r24, 0x09	; 9
    36ca:	30 f4       	brcc	.+12     	; 0x36d8 <IN_Scales_Set+0x164>
    36cc:	8f 5f       	subi	r24, 0xFF	; 255
    36ce:	80 93 95 51 	sts	0x5195, r24	; 0x805195 <IN_S_1000>
    36d2:	10 92 69 51 	sts	0x5169, r1	; 0x805169 <KEY+0x2>
    36d6:	be c0       	rjmp	.+380    	; 0x3854 <IN_Scales_Set+0x2e0>
					else if(KEY.Key == 3 && IN_S_1000 > 0) {IN_S_1000--; KEY.Key = 0;}	// лӢӨмҡҙлІ„нҠј мқҙл©ҙ мһ…кө¬мІҙмӨ‘ 1000мқҳ мһҗлҰ¬ к°җмҶҢ
    36d8:	80 91 69 51 	lds	r24, 0x5169	; 0x805169 <KEY+0x2>
    36dc:	83 30       	cpi	r24, 0x03	; 3
    36de:	09 f0       	breq	.+2      	; 0x36e2 <IN_Scales_Set+0x16e>
    36e0:	b9 c0       	rjmp	.+370    	; 0x3854 <IN_Scales_Set+0x2e0>
    36e2:	80 91 95 51 	lds	r24, 0x5195	; 0x805195 <IN_S_1000>
    36e6:	88 23       	and	r24, r24
    36e8:	09 f4       	brne	.+2      	; 0x36ec <IN_Scales_Set+0x178>
    36ea:	b4 c0       	rjmp	.+360    	; 0x3854 <IN_Scales_Set+0x2e0>
    36ec:	81 50       	subi	r24, 0x01	; 1
    36ee:	80 93 95 51 	sts	0x5195, r24	; 0x805195 <IN_S_1000>
    36f2:	10 92 69 51 	sts	0x5169, r1	; 0x805169 <KEY+0x2>
    36f6:	ae c0       	rjmp	.+348    	; 0x3854 <IN_Scales_Set+0x2e0>
				}
			break;

			case 2:							// лЎңл“ңм…Җ мһ…кө¬мІҙмӨ‘ 100мқҳ мһҗлҰ¬
				DIGIT[1][2] = fnd_tbl[IN_S_1000]+FND_Point;	// лЎңл“ңм…Җ мһ…кө¬мІҙмӨ‘ 1000мқҳ мһҗлҰ¬ н‘ңмӢң
    36f8:	e0 91 95 51 	lds	r30, 0x5195	; 0x805195 <IN_S_1000>
    36fc:	f0 e0       	ldi	r31, 0x00	; 0
    36fe:	e5 5a       	subi	r30, 0xA5	; 165
    3700:	fe 4b       	sbci	r31, 0xBE	; 190
    3702:	80 81       	ld	r24, Z
    3704:	8f 5f       	subi	r24, 0xFF	; 255
    3706:	80 93 97 41 	sts	0x4197, r24	; 0x804197 <DIGIT+0x6>
				if(Blink) {DIGIT[1][1] = FND_OFF;}		// Blink = 1 мқҙл©ҙ лЎңл“ңм…Җ мһ…кө¬мІҙмӨ‘ 100мқҳ мһҗлҰ¬ OFF
    370a:	80 91 93 51 	lds	r24, 0x5193	; 0x805193 <Blink>
    370e:	88 23       	and	r24, r24
    3710:	19 f0       	breq	.+6      	; 0x3718 <IN_Scales_Set+0x1a4>
    3712:	10 92 96 41 	sts	0x4196, r1	; 0x804196 <DIGIT+0x5>
    3716:	08 c0       	rjmp	.+16     	; 0x3728 <IN_Scales_Set+0x1b4>
				else	  {DIGIT[1][1] = fnd_tbl[IN_S_100];}	// Blink = 0 мқҙл©ҙ лЎңл“ңм…Җ мһ…кө¬мІҙмӨ‘ 100мқҳ мһҗлҰ¬ н‘ңмӢң
    3718:	e0 91 25 51 	lds	r30, 0x5125	; 0x805125 <IN_S_100>
    371c:	f0 e0       	ldi	r31, 0x00	; 0
    371e:	e5 5a       	subi	r30, 0xA5	; 165
    3720:	fe 4b       	sbci	r31, 0xBE	; 190
    3722:	80 81       	ld	r24, Z
    3724:	80 93 96 41 	sts	0x4196, r24	; 0x804196 <DIGIT+0x5>

				if(KEY.Buff)					// Key мһ…л Ҙмқҙ мһҲмңјл©ҙ
    3728:	80 91 68 51 	lds	r24, 0x5168	; 0x805168 <KEY+0x1>
    372c:	88 23       	and	r24, r24
    372e:	09 f4       	brne	.+2      	; 0x3732 <IN_Scales_Set+0x1be>
    3730:	91 c0       	rjmp	.+290    	; 0x3854 <IN_Scales_Set+0x2e0>
				{
					if     (KEY.Key == 1 && IN_S_100 < 9) {IN_S_100++; KEY.Key = 0;}	// м—…  лІ„нҠј мқҙл©ҙ мһ…кө¬мІҙмӨ‘ 100мқҳ мһҗлҰ¬ мҰқк°Җ
    3732:	80 91 69 51 	lds	r24, 0x5169	; 0x805169 <KEY+0x2>
    3736:	81 30       	cpi	r24, 0x01	; 1
    3738:	51 f4       	brne	.+20     	; 0x374e <IN_Scales_Set+0x1da>
    373a:	80 91 25 51 	lds	r24, 0x5125	; 0x805125 <IN_S_100>
    373e:	89 30       	cpi	r24, 0x09	; 9
    3740:	30 f4       	brcc	.+12     	; 0x374e <IN_Scales_Set+0x1da>
    3742:	8f 5f       	subi	r24, 0xFF	; 255
    3744:	80 93 25 51 	sts	0x5125, r24	; 0x805125 <IN_S_100>
    3748:	10 92 69 51 	sts	0x5169, r1	; 0x805169 <KEY+0x2>
    374c:	83 c0       	rjmp	.+262    	; 0x3854 <IN_Scales_Set+0x2e0>
					else if(KEY.Key == 3 && IN_S_100 > 0) {IN_S_100--; KEY.Key = 0;}	// лӢӨмҡҙлІ„нҠј мқҙл©ҙ мһ…кө¬мІҙмӨ‘ 100мқҳ мһҗлҰ¬ к°җмҶҢ
    374e:	80 91 69 51 	lds	r24, 0x5169	; 0x805169 <KEY+0x2>
    3752:	83 30       	cpi	r24, 0x03	; 3
    3754:	09 f0       	breq	.+2      	; 0x3758 <IN_Scales_Set+0x1e4>
    3756:	7e c0       	rjmp	.+252    	; 0x3854 <IN_Scales_Set+0x2e0>
    3758:	80 91 25 51 	lds	r24, 0x5125	; 0x805125 <IN_S_100>
    375c:	88 23       	and	r24, r24
    375e:	09 f4       	brne	.+2      	; 0x3762 <IN_Scales_Set+0x1ee>
    3760:	79 c0       	rjmp	.+242    	; 0x3854 <IN_Scales_Set+0x2e0>
    3762:	81 50       	subi	r24, 0x01	; 1
    3764:	80 93 25 51 	sts	0x5125, r24	; 0x805125 <IN_S_100>
    3768:	10 92 69 51 	sts	0x5169, r1	; 0x805169 <KEY+0x2>
    376c:	73 c0       	rjmp	.+230    	; 0x3854 <IN_Scales_Set+0x2e0>
				}
			break;

			case 3:							// лЎңл“ңм…Җ мһ…кө¬мІҙмӨ‘ 10мқҳ мһҗлҰ¬
				DIGIT[1][1] = fnd_tbl[IN_S_100];		// лЎңл“ңм…Җ мһ…кө¬мІҙмӨ‘ 100мқҳ мһҗлҰ¬ н‘ңмӢң
    376e:	e0 91 25 51 	lds	r30, 0x5125	; 0x805125 <IN_S_100>
    3772:	f0 e0       	ldi	r31, 0x00	; 0
    3774:	e5 5a       	subi	r30, 0xA5	; 165
    3776:	fe 4b       	sbci	r31, 0xBE	; 190
    3778:	80 81       	ld	r24, Z
    377a:	80 93 96 41 	sts	0x4196, r24	; 0x804196 <DIGIT+0x5>
				if(Blink) {DIGIT[1][0] = FND_OFF;}		// Blink = 1 мқҙл©ҙ лЎңл“ңм…Җ мһ…кө¬мІҙмӨ‘ 10мқҳ мһҗлҰ¬ OFF
    377e:	80 91 93 51 	lds	r24, 0x5193	; 0x805193 <Blink>
    3782:	88 23       	and	r24, r24
    3784:	19 f0       	breq	.+6      	; 0x378c <IN_Scales_Set+0x218>
    3786:	10 92 95 41 	sts	0x4195, r1	; 0x804195 <DIGIT+0x4>
    378a:	08 c0       	rjmp	.+16     	; 0x379c <IN_Scales_Set+0x228>
				else	  {DIGIT[1][0] = fnd_tbl[IN_S_10];}	// Blink = 0 мқҙл©ҙ лЎңл“ңм…Җ мһ…кө¬мІҙмӨ‘ 10мқҳ мһҗлҰ¬ н‘ңмӢң
    378c:	e0 91 07 51 	lds	r30, 0x5107	; 0x805107 <IN_S_10>
    3790:	f0 e0       	ldi	r31, 0x00	; 0
    3792:	e5 5a       	subi	r30, 0xA5	; 165
    3794:	fe 4b       	sbci	r31, 0xBE	; 190
    3796:	80 81       	ld	r24, Z
    3798:	80 93 95 41 	sts	0x4195, r24	; 0x804195 <DIGIT+0x4>

				if(KEY.Buff)					// Key мһ…л Ҙмқҙ мһҲмңјл©ҙ
    379c:	80 91 68 51 	lds	r24, 0x5168	; 0x805168 <KEY+0x1>
    37a0:	88 23       	and	r24, r24
    37a2:	09 f4       	brne	.+2      	; 0x37a6 <IN_Scales_Set+0x232>
    37a4:	57 c0       	rjmp	.+174    	; 0x3854 <IN_Scales_Set+0x2e0>
				{
					if     (KEY.Key == 1 && IN_S_10 < 9) {IN_S_10++; KEY.Key = 0;}		// м—…  лІ„нҠј мқҙл©ҙ мһ…кө¬мІҙмӨ‘ 10мқҳ мһҗлҰ¬ мҰқк°Җ
    37a6:	80 91 69 51 	lds	r24, 0x5169	; 0x805169 <KEY+0x2>
    37aa:	81 30       	cpi	r24, 0x01	; 1
    37ac:	51 f4       	brne	.+20     	; 0x37c2 <IN_Scales_Set+0x24e>
    37ae:	80 91 07 51 	lds	r24, 0x5107	; 0x805107 <IN_S_10>
    37b2:	89 30       	cpi	r24, 0x09	; 9
    37b4:	30 f4       	brcc	.+12     	; 0x37c2 <IN_Scales_Set+0x24e>
    37b6:	8f 5f       	subi	r24, 0xFF	; 255
    37b8:	80 93 07 51 	sts	0x5107, r24	; 0x805107 <IN_S_10>
    37bc:	10 92 69 51 	sts	0x5169, r1	; 0x805169 <KEY+0x2>
    37c0:	49 c0       	rjmp	.+146    	; 0x3854 <IN_Scales_Set+0x2e0>
					else if(KEY.Key == 3 && IN_S_10 > 0) {IN_S_10--; KEY.Key = 0;}		// лӢӨмҡҙлІ„нҠј мқҙл©ҙ мһ…кө¬мІҙмӨ‘ 10мқҳ мһҗлҰ¬ к°җмҶҢ
    37c2:	80 91 69 51 	lds	r24, 0x5169	; 0x805169 <KEY+0x2>
    37c6:	83 30       	cpi	r24, 0x03	; 3
    37c8:	09 f0       	breq	.+2      	; 0x37cc <IN_Scales_Set+0x258>
    37ca:	44 c0       	rjmp	.+136    	; 0x3854 <IN_Scales_Set+0x2e0>
    37cc:	80 91 07 51 	lds	r24, 0x5107	; 0x805107 <IN_S_10>
    37d0:	88 23       	and	r24, r24
    37d2:	09 f4       	brne	.+2      	; 0x37d6 <IN_Scales_Set+0x262>
    37d4:	3f c0       	rjmp	.+126    	; 0x3854 <IN_Scales_Set+0x2e0>
    37d6:	81 50       	subi	r24, 0x01	; 1
    37d8:	80 93 07 51 	sts	0x5107, r24	; 0x805107 <IN_S_10>
    37dc:	10 92 69 51 	sts	0x5169, r1	; 0x805169 <KEY+0x2>
    37e0:	39 c0       	rjmp	.+114    	; 0x3854 <IN_Scales_Set+0x2e0>
				}
			break;

			case 4:							// лЎңл“ңм…Җ мһ…кө¬мІҙмӨ‘ 1мқҳ мһҗлҰ¬
				DIGIT[1][0] = fnd_tbl[IN_S_10];			// лЎңл“ңм…Җ мһ…кө¬мІҙмӨ‘ 10мқҳ мһҗлҰ¬ н‘ңмӢң
    37e2:	e0 91 07 51 	lds	r30, 0x5107	; 0x805107 <IN_S_10>
    37e6:	f0 e0       	ldi	r31, 0x00	; 0
    37e8:	e5 5a       	subi	r30, 0xA5	; 165
    37ea:	fe 4b       	sbci	r31, 0xBE	; 190
    37ec:	80 81       	ld	r24, Z
    37ee:	80 93 95 41 	sts	0x4195, r24	; 0x804195 <DIGIT+0x4>
				if(Blink) {DIGIT[2][3] = FND_OFF;}		// Blink = 1 мқҙл©ҙ лЎңл“ңм…Җ мһ…кө¬мІҙмӨ‘ 1мқҳ мһҗлҰ¬ OFF
    37f2:	80 91 93 51 	lds	r24, 0x5193	; 0x805193 <Blink>
    37f6:	88 23       	and	r24, r24
    37f8:	19 f0       	breq	.+6      	; 0x3800 <IN_Scales_Set+0x28c>
    37fa:	10 92 9c 41 	sts	0x419C, r1	; 0x80419c <DIGIT+0xb>
    37fe:	08 c0       	rjmp	.+16     	; 0x3810 <IN_Scales_Set+0x29c>
				else	  {DIGIT[2][3] = fnd_tbl[IN_S_1];}	// Blink = 0 мқҙл©ҙ лЎңл“ңм…Җ мһ…кө¬мІҙмӨ‘ 1мқҳ мһҗлҰ¬ н‘ңмӢң
    3800:	e0 91 80 51 	lds	r30, 0x5180	; 0x805180 <IN_S_1>
    3804:	f0 e0       	ldi	r31, 0x00	; 0
    3806:	e5 5a       	subi	r30, 0xA5	; 165
    3808:	fe 4b       	sbci	r31, 0xBE	; 190
    380a:	80 81       	ld	r24, Z
    380c:	80 93 9c 41 	sts	0x419C, r24	; 0x80419c <DIGIT+0xb>

				if(KEY.Buff)					// Key мһ…л Ҙмқҙ мһҲмңјл©ҙ
    3810:	80 91 68 51 	lds	r24, 0x5168	; 0x805168 <KEY+0x1>
    3814:	88 23       	and	r24, r24
    3816:	f1 f0       	breq	.+60     	; 0x3854 <IN_Scales_Set+0x2e0>
				{
					if     (KEY.Key == 1 && IN_S_1 < 9) {IN_S_1++; KEY.Key = 0;}		// м—…  лІ„нҠј мқҙл©ҙ мһ…кө¬мІҙмӨ‘ 1мқҳ мһҗлҰ¬ мҰқк°Җ
    3818:	80 91 69 51 	lds	r24, 0x5169	; 0x805169 <KEY+0x2>
    381c:	81 30       	cpi	r24, 0x01	; 1
    381e:	51 f4       	brne	.+20     	; 0x3834 <IN_Scales_Set+0x2c0>
    3820:	80 91 80 51 	lds	r24, 0x5180	; 0x805180 <IN_S_1>
    3824:	89 30       	cpi	r24, 0x09	; 9
    3826:	30 f4       	brcc	.+12     	; 0x3834 <IN_Scales_Set+0x2c0>
    3828:	8f 5f       	subi	r24, 0xFF	; 255
    382a:	80 93 80 51 	sts	0x5180, r24	; 0x805180 <IN_S_1>
    382e:	10 92 69 51 	sts	0x5169, r1	; 0x805169 <KEY+0x2>
    3832:	10 c0       	rjmp	.+32     	; 0x3854 <IN_Scales_Set+0x2e0>
					else if(KEY.Key == 3 && IN_S_1 > 0) {IN_S_1--; KEY.Key = 0;}		// лӢӨмҡҙлІ„нҠј мқҙл©ҙ мһ…кө¬мІҙмӨ‘ 1мқҳ мһҗлҰ¬ к°җмҶҢ
    3834:	80 91 69 51 	lds	r24, 0x5169	; 0x805169 <KEY+0x2>
    3838:	83 30       	cpi	r24, 0x03	; 3
    383a:	61 f4       	brne	.+24     	; 0x3854 <IN_Scales_Set+0x2e0>
    383c:	80 91 80 51 	lds	r24, 0x5180	; 0x805180 <IN_S_1>
    3840:	88 23       	and	r24, r24
    3842:	41 f0       	breq	.+16     	; 0x3854 <IN_Scales_Set+0x2e0>
    3844:	81 50       	subi	r24, 0x01	; 1
    3846:	80 93 80 51 	sts	0x5180, r24	; 0x805180 <IN_S_1>
    384a:	10 92 69 51 	sts	0x5169, r1	; 0x805169 <KEY+0x2>
    384e:	02 c0       	rjmp	.+4      	; 0x3854 <IN_Scales_Set+0x2e0>
				}
			break;

			case 5:
				KEY.Count = 0;					// л°ҳліөмқ„ мң„н•ҙ KEY.Count лҘј мҙҲкё°нҷ” мӢңнӮҙ
    3850:	10 92 67 51 	sts	0x5167, r1	; 0x805167 <KEY>
			break;
		}
		wdt_reset();							// мӣҢм№ҳлҸ… лҰ¬м…Ӣ
    3854:	0e 94 8c 0e 	call	0x1d18	; 0x1d18 <wdt_reset>
	IN_S_1000  = IN_Scales % 10000/ 1000;					// лЎңл“ңм…Җ мһ…кө¬мІҙмӨ‘  1000мқҳ мһҗлҰ¬
	IN_S_100   = IN_Scales % 1000 / 100;					// лЎңл“ңм…Җ мһ…кө¬мІҙмӨ‘   100мқҳ мһҗлҰ¬
	IN_S_10    = IN_Scales % 100 / 10;					// лЎңл“ңм…Җ мһ…кө¬мІҙмӨ‘    10мқҳ мһҗлҰ¬
	IN_S_1     = IN_Scales % 10;						// лЎңл“ңм…Җ мһ…кө¬мІҙмӨ‘     1мқҳ мһҗлҰ¬
//-------------------------------------------------------------------------------------------------
	while(SET.Menu)								// л©”лүҙлӘЁл“ң мқҙл©ҙ л°ҳліө
    3858:	80 91 28 51 	lds	r24, 0x5128	; 0x805128 <SET>
    385c:	81 11       	cpse	r24, r1
    385e:	bf ce       	rjmp	.-642    	; 0x35de <IN_Scales_Set+0x6a>
		}
		wdt_reset();							// мӣҢм№ҳлҸ… лҰ¬м…Ӣ
	}
//-------------------------------------------------------------------------------------------------
	IN_Scales = 0;								// лЎңл“ңм…Җ мһ…кө¬мІҙмӨ‘ мҙҲкё°нҷ”
	IN_Scales += (IN_S_10000 * 10000);					// лЎңл“ңм…Җ мһ…кө¬мІҙмӨ‘ 10000мқҳ мһҗлҰ¬
    3860:	20 91 23 51 	lds	r18, 0x5123	; 0x805123 <IN_S_10000>
    3864:	80 e1       	ldi	r24, 0x10	; 16
    3866:	97 e2       	ldi	r25, 0x27	; 39
    3868:	28 9f       	mul	r18, r24
    386a:	b0 01       	movw	r22, r0
    386c:	29 9f       	mul	r18, r25
    386e:	70 0d       	add	r23, r0
    3870:	11 24       	eor	r1, r1
	IN_Scales += (IN_S_1000  * 1000);					// лЎңл“ңм…Җ мһ…кө¬мІҙмӨ‘  1000мқҳ мһҗлҰ¬
    3872:	40 91 95 51 	lds	r20, 0x5195	; 0x805195 <IN_S_1000>
    3876:	28 ee       	ldi	r18, 0xE8	; 232
    3878:	33 e0       	ldi	r19, 0x03	; 3
    387a:	42 9f       	mul	r20, r18
    387c:	c0 01       	movw	r24, r0
    387e:	43 9f       	mul	r20, r19
    3880:	90 0d       	add	r25, r0
    3882:	11 24       	eor	r1, r1
    3884:	68 0f       	add	r22, r24
    3886:	79 1f       	adc	r23, r25
	IN_Scales += (IN_S_100   * 100);					// лЎңл“ңм…Җ мһ…кө¬мІҙмӨ‘   100мқҳ мһҗлҰ¬
    3888:	80 91 25 51 	lds	r24, 0x5125	; 0x805125 <IN_S_100>
    388c:	94 e6       	ldi	r25, 0x64	; 100
    388e:	89 9f       	mul	r24, r25
    3890:	60 0d       	add	r22, r0
    3892:	71 1d       	adc	r23, r1
    3894:	11 24       	eor	r1, r1
	IN_Scales += (IN_S_10    * 10);						// лЎңл“ңм…Җ мһ…кө¬мІҙмӨ‘    10мқҳ мһҗлҰ¬
    3896:	80 91 07 51 	lds	r24, 0x5107	; 0x805107 <IN_S_10>
    389a:	90 e0       	ldi	r25, 0x00	; 0
    389c:	9c 01       	movw	r18, r24
    389e:	22 0f       	add	r18, r18
    38a0:	33 1f       	adc	r19, r19
    38a2:	88 0f       	add	r24, r24
    38a4:	99 1f       	adc	r25, r25
    38a6:	88 0f       	add	r24, r24
    38a8:	99 1f       	adc	r25, r25
    38aa:	88 0f       	add	r24, r24
    38ac:	99 1f       	adc	r25, r25
    38ae:	82 0f       	add	r24, r18
    38b0:	93 1f       	adc	r25, r19
    38b2:	68 0f       	add	r22, r24
    38b4:	79 1f       	adc	r23, r25
	IN_Scales += (IN_S_1     * 1);						// лЎңл“ңм…Җ мһ…кө¬мІҙмӨ‘     1мқҳ мһҗлҰ¬
    38b6:	80 91 80 51 	lds	r24, 0x5180	; 0x805180 <IN_S_1>
    38ba:	68 0f       	add	r22, r24
    38bc:	71 1d       	adc	r23, r1
    38be:	60 93 21 51 	sts	0x5121, r22	; 0x805121 <IN_Scales>
    38c2:	70 93 22 51 	sts	0x5122, r23	; 0x805122 <IN_Scales+0x1>
//-------------------------------------------------------------------------------------------------
	ee_write_word(Cell_IN_S_Addr, IN_Scales);				// лЎңл“ңм…Җ мһ…кө¬мІҙмӨ‘к°’ м ҖмһҘ
    38c6:	8a e0       	ldi	r24, 0x0A	; 10
    38c8:	90 e0       	ldi	r25, 0x00	; 0
    38ca:	0e 94 4c 13 	call	0x2698	; 0x2698 <ee_write_word>

	SET.Menu = 1;								// Menu лӘЁл“ң мң м§Җ
    38ce:	e8 e2       	ldi	r30, 0x28	; 40
    38d0:	f1 e5       	ldi	r31, 0x51	; 81
    38d2:	81 e0       	ldi	r24, 0x01	; 1
    38d4:	80 83       	st	Z, r24
	SET.Select = 0;								// Select лІ„нҠј мҙҲкё°нҷ”
    38d6:	11 82       	std	Z+1, r1	; 0x01
	SET.Blink = 0;								// мһҗлҰҝмҲҳ к№ңл°•мһ„ мҙҲкё°нҷ”
    38d8:	13 82       	std	Z+3, r1	; 0x03
	KEY.Count = 0;								// м„ нғқ Key к°Җ лҲҢлҰ°нҡҹмҲҳ мҙҲкё°нҷ”
    38da:	10 92 67 51 	sts	0x5167, r1	; 0x805167 <KEY>
    38de:	08 95       	ret

000038e0 <RO_Set>:
}

//=================================================================================================
void RO_Set(void)								// RO м„Өм •
{
    38e0:	2f 92       	push	r2
    38e2:	3f 92       	push	r3
    38e4:	4f 92       	push	r4
    38e6:	5f 92       	push	r5
    38e8:	6f 92       	push	r6
    38ea:	7f 92       	push	r7
    38ec:	8f 92       	push	r8
    38ee:	9f 92       	push	r9
    38f0:	af 92       	push	r10
    38f2:	bf 92       	push	r11
    38f4:	cf 92       	push	r12
    38f6:	df 92       	push	r13
    38f8:	ef 92       	push	r14
    38fa:	ff 92       	push	r15
    38fc:	0f 93       	push	r16
    38fe:	1f 93       	push	r17
    3900:	cf 93       	push	r28
    3902:	df 93       	push	r29
    3904:	cd b7       	in	r28, 0x3d	; 61
    3906:	de b7       	in	r29, 0x3e	; 62
    3908:	25 97       	sbiw	r28, 0x05	; 5
    390a:	cd bf       	out	0x3d, r28	; 61
    390c:	de bf       	out	0x3e, r29	; 62
	DIGIT[2][0] = FND_OFF;							// лЎңл“ңм…Җ RO, мһ…кө¬мІҙмӨ‘ 1мқҳ мһҗлҰ¬ м§Җмҡ°кё°
    390e:	10 92 99 41 	sts	0x4199, r1	; 0x804199 <DIGIT+0x8>

	RO = ee_read_dword(Cell_RO_Addr);					// лЎңл“ңм…Җ ROк°’ л¶Ҳлҹ¬мҳӨкё°
    3912:	8c e0       	ldi	r24, 0x0C	; 12
    3914:	90 e0       	ldi	r25, 0x00	; 0
    3916:	0e 94 1c 13 	call	0x2638	; 0x2638 <ee_read_dword>
    391a:	1b 01       	movw	r2, r22
    391c:	2c 01       	movw	r4, r24
    391e:	60 93 2d 51 	sts	0x512D, r22	; 0x80512d <RO>
    3922:	30 92 2e 51 	sts	0x512E, r3	; 0x80512e <RO+0x1>
    3926:	40 92 2f 51 	sts	0x512F, r4	; 0x80512f <RO+0x2>
    392a:	50 92 30 51 	sts	0x5130, r5	; 0x805130 <RO+0x3>
    392e:	10 92 31 51 	sts	0x5131, r1	; 0x805131 <RO+0x4>
    3932:	10 92 32 51 	sts	0x5132, r1	; 0x805132 <RO+0x5>
    3936:	10 92 33 51 	sts	0x5133, r1	; 0x805133 <RO+0x6>
    393a:	10 92 34 51 	sts	0x5134, r1	; 0x805134 <RO+0x7>
//-------------------------------------------------------------------------------------------------
	RO_10000 = RO / 10000;							// лЎңл“ңм…Җ RO 10000мқҳ мһҗлҰ¬
    393e:	68 94       	set
    3940:	aa 24       	eor	r10, r10
    3942:	a4 f8       	bld	r10, 4
    3944:	0f 2e       	mov	r0, r31
    3946:	f7 e2       	ldi	r31, 0x27	; 39
    3948:	bf 2e       	mov	r11, r31
    394a:	f0 2d       	mov	r31, r0
    394c:	c1 2c       	mov	r12, r1
    394e:	d1 2c       	mov	r13, r1
    3950:	e1 2c       	mov	r14, r1
    3952:	f1 2c       	mov	r15, r1
    3954:	00 e0       	ldi	r16, 0x00	; 0
    3956:	10 e0       	ldi	r17, 0x00	; 0
    3958:	26 2f       	mov	r18, r22
    395a:	33 2d       	mov	r19, r3
    395c:	44 2d       	mov	r20, r4
    395e:	55 2d       	mov	r21, r5
    3960:	60 e0       	ldi	r22, 0x00	; 0
    3962:	70 e0       	ldi	r23, 0x00	; 0
    3964:	80 e0       	ldi	r24, 0x00	; 0
    3966:	90 e0       	ldi	r25, 0x00	; 0
    3968:	0e 94 5d 3c 	call	0x78ba	; 0x78ba <__udivdi3>
    396c:	20 93 73 51 	sts	0x5173, r18	; 0x805173 <RO_10000>
    3970:	30 93 74 51 	sts	0x5174, r19	; 0x805174 <RO_10000+0x1>
    3974:	40 93 75 51 	sts	0x5175, r20	; 0x805175 <RO_10000+0x2>
    3978:	50 93 76 51 	sts	0x5176, r21	; 0x805176 <RO_10000+0x3>
    397c:	60 93 77 51 	sts	0x5177, r22	; 0x805177 <RO_10000+0x4>
    3980:	70 93 78 51 	sts	0x5178, r23	; 0x805178 <RO_10000+0x5>
    3984:	80 93 79 51 	sts	0x5179, r24	; 0x805179 <RO_10000+0x6>
    3988:	90 93 7a 51 	sts	0x517A, r25	; 0x80517a <RO_10000+0x7>
	RO_1000  = RO % 10000 / 1000;						// лЎңл“ңм…Җ RO  1000мқҳ мһҗлҰ¬
    398c:	22 2d       	mov	r18, r2
    398e:	33 2d       	mov	r19, r3
    3990:	44 2d       	mov	r20, r4
    3992:	55 2d       	mov	r21, r5
    3994:	60 e0       	ldi	r22, 0x00	; 0
    3996:	70 e0       	ldi	r23, 0x00	; 0
    3998:	80 e0       	ldi	r24, 0x00	; 0
    399a:	90 e0       	ldi	r25, 0x00	; 0
    399c:	0e 94 5b 3c 	call	0x78b6	; 0x78b6 <__umoddi3>
    39a0:	0f 2e       	mov	r0, r31
    39a2:	f8 ee       	ldi	r31, 0xE8	; 232
    39a4:	af 2e       	mov	r10, r31
    39a6:	f0 2d       	mov	r31, r0
    39a8:	0f 2e       	mov	r0, r31
    39aa:	f3 e0       	ldi	r31, 0x03	; 3
    39ac:	bf 2e       	mov	r11, r31
    39ae:	f0 2d       	mov	r31, r0
    39b0:	0e 94 5d 3c 	call	0x78ba	; 0x78ba <__udivdi3>
    39b4:	20 93 9c 52 	sts	0x529C, r18	; 0x80529c <RO_1000>
    39b8:	30 93 9d 52 	sts	0x529D, r19	; 0x80529d <RO_1000+0x1>
    39bc:	40 93 9e 52 	sts	0x529E, r20	; 0x80529e <RO_1000+0x2>
    39c0:	50 93 9f 52 	sts	0x529F, r21	; 0x80529f <RO_1000+0x3>
    39c4:	60 93 a0 52 	sts	0x52A0, r22	; 0x8052a0 <RO_1000+0x4>
    39c8:	70 93 a1 52 	sts	0x52A1, r23	; 0x8052a1 <RO_1000+0x5>
    39cc:	80 93 a2 52 	sts	0x52A2, r24	; 0x8052a2 <RO_1000+0x6>
    39d0:	90 93 a3 52 	sts	0x52A3, r25	; 0x8052a3 <RO_1000+0x7>
	RO_100   = RO % 1000 / 100;						// лЎңл“ңм…Җ RO   100мқҳ мһҗлҰ¬
    39d4:	22 2d       	mov	r18, r2
    39d6:	33 2d       	mov	r19, r3
    39d8:	44 2d       	mov	r20, r4
    39da:	55 2d       	mov	r21, r5
    39dc:	60 e0       	ldi	r22, 0x00	; 0
    39de:	70 e0       	ldi	r23, 0x00	; 0
    39e0:	80 e0       	ldi	r24, 0x00	; 0
    39e2:	90 e0       	ldi	r25, 0x00	; 0
    39e4:	0e 94 5b 3c 	call	0x78b6	; 0x78b6 <__umoddi3>
    39e8:	0f 2e       	mov	r0, r31
    39ea:	f4 e6       	ldi	r31, 0x64	; 100
    39ec:	af 2e       	mov	r10, r31
    39ee:	f0 2d       	mov	r31, r0
    39f0:	b1 2c       	mov	r11, r1
    39f2:	0e 94 5d 3c 	call	0x78ba	; 0x78ba <__udivdi3>
    39f6:	20 93 8b 51 	sts	0x518B, r18	; 0x80518b <RO_100>
    39fa:	30 93 8c 51 	sts	0x518C, r19	; 0x80518c <RO_100+0x1>
    39fe:	40 93 8d 51 	sts	0x518D, r20	; 0x80518d <RO_100+0x2>
    3a02:	50 93 8e 51 	sts	0x518E, r21	; 0x80518e <RO_100+0x3>
    3a06:	60 93 8f 51 	sts	0x518F, r22	; 0x80518f <RO_100+0x4>
    3a0a:	70 93 90 51 	sts	0x5190, r23	; 0x805190 <RO_100+0x5>
    3a0e:	80 93 91 51 	sts	0x5191, r24	; 0x805191 <RO_100+0x6>
    3a12:	90 93 92 51 	sts	0x5192, r25	; 0x805192 <RO_100+0x7>
	RO_10    = RO % 100 / 10;						// лЎңл“ңм…Җ RO    10мқҳ мһҗлҰ¬
    3a16:	22 2d       	mov	r18, r2
    3a18:	33 2d       	mov	r19, r3
    3a1a:	44 2d       	mov	r20, r4
    3a1c:	55 2d       	mov	r21, r5
    3a1e:	60 e0       	ldi	r22, 0x00	; 0
    3a20:	70 e0       	ldi	r23, 0x00	; 0
    3a22:	80 e0       	ldi	r24, 0x00	; 0
    3a24:	90 e0       	ldi	r25, 0x00	; 0
    3a26:	0e 94 5b 3c 	call	0x78b6	; 0x78b6 <__umoddi3>
    3a2a:	0f 2e       	mov	r0, r31
    3a2c:	fa e0       	ldi	r31, 0x0A	; 10
    3a2e:	af 2e       	mov	r10, r31
    3a30:	f0 2d       	mov	r31, r0
    3a32:	0e 94 5d 3c 	call	0x78ba	; 0x78ba <__udivdi3>
    3a36:	20 93 5a 51 	sts	0x515A, r18	; 0x80515a <RO_10>
    3a3a:	30 93 5b 51 	sts	0x515B, r19	; 0x80515b <RO_10+0x1>
    3a3e:	40 93 5c 51 	sts	0x515C, r20	; 0x80515c <RO_10+0x2>
    3a42:	50 93 5d 51 	sts	0x515D, r21	; 0x80515d <RO_10+0x3>
    3a46:	60 93 5e 51 	sts	0x515E, r22	; 0x80515e <RO_10+0x4>
    3a4a:	70 93 5f 51 	sts	0x515F, r23	; 0x80515f <RO_10+0x5>
    3a4e:	80 93 60 51 	sts	0x5160, r24	; 0x805160 <RO_10+0x6>
    3a52:	90 93 61 51 	sts	0x5161, r25	; 0x805161 <RO_10+0x7>
	RO_1     = RO % 10;							// лЎңл“ңм…Җ RO     1мқҳ мһҗлҰ¬
    3a56:	22 2d       	mov	r18, r2
    3a58:	33 2d       	mov	r19, r3
    3a5a:	44 2d       	mov	r20, r4
    3a5c:	55 2d       	mov	r21, r5
    3a5e:	60 e0       	ldi	r22, 0x00	; 0
    3a60:	70 e0       	ldi	r23, 0x00	; 0
    3a62:	80 e0       	ldi	r24, 0x00	; 0
    3a64:	90 e0       	ldi	r25, 0x00	; 0
    3a66:	0e 94 5b 3c 	call	0x78b6	; 0x78b6 <__umoddi3>
    3a6a:	20 93 99 51 	sts	0x5199, r18	; 0x805199 <RO_1>
    3a6e:	30 93 9a 51 	sts	0x519A, r19	; 0x80519a <RO_1+0x1>
    3a72:	40 93 9b 51 	sts	0x519B, r20	; 0x80519b <RO_1+0x2>
    3a76:	50 93 9c 51 	sts	0x519C, r21	; 0x80519c <RO_1+0x3>
    3a7a:	60 93 9d 51 	sts	0x519D, r22	; 0x80519d <RO_1+0x4>
    3a7e:	70 93 9e 51 	sts	0x519E, r23	; 0x80519e <RO_1+0x5>
    3a82:	80 93 9f 51 	sts	0x519F, r24	; 0x80519f <RO_1+0x6>
    3a86:	90 93 a0 51 	sts	0x51A0, r25	; 0x8051a0 <RO_1+0x7>
//-------------------------------------------------------------------------------------------------
	while(SET.Menu)								// л©”лүҙк°Җ 1 мқҙл©ҙ л°ҳліө
    3a8a:	f2 c2       	rjmp	.+1508   	; 0x4070 <__DATA_REGION_LENGTH__+0x70>
	{
		SET.Blink = 1;							// мһҗлҰҝмҲҳ к№ңл°•мһ„ м„Өм •
    3a8c:	81 e0       	ldi	r24, 0x01	; 1
    3a8e:	80 93 2b 51 	sts	0x512B, r24	; 0x80512b <SET+0x3>

		switch(KEY.Count)						// м„ нғқ Key к°Җ лҲҢлҰ°нҡҹмҲҳ
    3a92:	80 91 67 51 	lds	r24, 0x5167	; 0x805167 <KEY>
    3a96:	82 30       	cpi	r24, 0x02	; 2
    3a98:	09 f4       	brne	.+2      	; 0x3a9c <RO_Set+0x1bc>
    3a9a:	35 c1       	rjmp	.+618    	; 0x3d06 <RO_Set+0x426>
    3a9c:	30 f4       	brcc	.+12     	; 0x3aaa <RO_Set+0x1ca>
    3a9e:	88 23       	and	r24, r24
    3aa0:	69 f0       	breq	.+26     	; 0x3abc <RO_Set+0x1dc>
    3aa2:	81 30       	cpi	r24, 0x01	; 1
    3aa4:	09 f4       	brne	.+2      	; 0x3aa8 <RO_Set+0x1c8>
    3aa6:	9d c0       	rjmp	.+314    	; 0x3be2 <RO_Set+0x302>
    3aa8:	e1 c2       	rjmp	.+1474   	; 0x406c <__DATA_REGION_LENGTH__+0x6c>
    3aaa:	84 30       	cpi	r24, 0x04	; 4
    3aac:	09 f4       	brne	.+2      	; 0x3ab0 <RO_Set+0x1d0>
    3aae:	4d c2       	rjmp	.+1178   	; 0x3f4a <RO_Set+0x66a>
    3ab0:	08 f4       	brcc	.+2      	; 0x3ab4 <RO_Set+0x1d4>
    3ab2:	ba c1       	rjmp	.+884    	; 0x3e28 <RO_Set+0x548>
    3ab4:	85 30       	cpi	r24, 0x05	; 5
    3ab6:	09 f4       	brne	.+2      	; 0x3aba <RO_Set+0x1da>
    3ab8:	d7 c2       	rjmp	.+1454   	; 0x4068 <__DATA_REGION_LENGTH__+0x68>
    3aba:	d8 c2       	rjmp	.+1456   	; 0x406c <__DATA_REGION_LENGTH__+0x6c>
		{
			case 0:							// лЎңл“ңм…Җ RO 10000мқҳ мһҗлҰ¬
				DIGIT[2][3] = fnd_tbl[RO_1];			// лЎңл“ңм…Җ RO 1мқҳ мһҗлҰ¬ н‘ңмӢң
    3abc:	e0 91 99 51 	lds	r30, 0x5199	; 0x805199 <RO_1>
    3ac0:	f0 91 9a 51 	lds	r31, 0x519A	; 0x80519a <RO_1+0x1>
    3ac4:	e5 5a       	subi	r30, 0xA5	; 165
    3ac6:	fe 4b       	sbci	r31, 0xBE	; 190
    3ac8:	80 81       	ld	r24, Z
    3aca:	80 93 9c 41 	sts	0x419C, r24	; 0x80419c <DIGIT+0xb>
				if(Blink) {DIGIT[1][3] = FND_OFF;}						// Blink = 1 мқҙл©ҙ лЎңл“ңм…Җ RO 10000мқҳ мһҗлҰ¬ OFF
    3ace:	80 91 93 51 	lds	r24, 0x5193	; 0x805193 <Blink>
    3ad2:	88 23       	and	r24, r24
    3ad4:	19 f0       	breq	.+6      	; 0x3adc <RO_Set+0x1fc>
    3ad6:	10 92 98 41 	sts	0x4198, r1	; 0x804198 <DIGIT+0x7>
    3ada:	0a c0       	rjmp	.+20     	; 0x3af0 <RO_Set+0x210>
				else	  {DIGIT[1][3] = fnd_tbl[RO_10000] + FND_Point;}			// Blink = 0 мқҙл©ҙ лЎңл“ңм…Җ RO 10000мқҳ мһҗлҰ¬ н‘ңмӢң
    3adc:	e0 91 73 51 	lds	r30, 0x5173	; 0x805173 <RO_10000>
    3ae0:	f0 91 74 51 	lds	r31, 0x5174	; 0x805174 <RO_10000+0x1>
    3ae4:	e5 5a       	subi	r30, 0xA5	; 165
    3ae6:	fe 4b       	sbci	r31, 0xBE	; 190
    3ae8:	80 81       	ld	r24, Z
    3aea:	8f 5f       	subi	r24, 0xFF	; 255
    3aec:	80 93 98 41 	sts	0x4198, r24	; 0x804198 <DIGIT+0x7>

				if(KEY.Buff)					// Key мһ…л Ҙмқҙ мһҲмңјл©ҙ
    3af0:	80 91 68 51 	lds	r24, 0x5168	; 0x805168 <KEY+0x1>
    3af4:	88 23       	and	r24, r24
    3af6:	09 f4       	brne	.+2      	; 0x3afa <RO_Set+0x21a>
    3af8:	b9 c2       	rjmp	.+1394   	; 0x406c <__DATA_REGION_LENGTH__+0x6c>
				{
					if     (KEY.Key == 1 && RO_10000 < 8) {RO_10000++; KEY.Key = 0;}	// м—…  лІ„нҠј мқҙл©ҙ ROк°’ 10000мқҳ мһҗлҰ¬ мҰқк°Җ
    3afa:	80 91 69 51 	lds	r24, 0x5169	; 0x805169 <KEY+0x2>
    3afe:	81 30       	cpi	r24, 0x01	; 1
    3b00:	a9 f5       	brne	.+106    	; 0x3b6c <RO_Set+0x28c>
    3b02:	f0 90 73 51 	lds	r15, 0x5173	; 0x805173 <RO_10000>
    3b06:	00 91 74 51 	lds	r16, 0x5174	; 0x805174 <RO_10000+0x1>
    3b0a:	10 91 75 51 	lds	r17, 0x5175	; 0x805175 <RO_10000+0x2>
    3b0e:	80 91 76 51 	lds	r24, 0x5176	; 0x805176 <RO_10000+0x3>
    3b12:	8a 83       	std	Y+2, r24	; 0x02
    3b14:	80 91 77 51 	lds	r24, 0x5177	; 0x805177 <RO_10000+0x4>
    3b18:	89 83       	std	Y+1, r24	; 0x01
    3b1a:	b0 91 78 51 	lds	r27, 0x5178	; 0x805178 <RO_10000+0x5>
    3b1e:	f0 91 79 51 	lds	r31, 0x5179	; 0x805179 <RO_10000+0x6>
    3b22:	e0 91 7a 51 	lds	r30, 0x517A	; 0x80517a <RO_10000+0x7>
    3b26:	2f 2d       	mov	r18, r15
    3b28:	30 2f       	mov	r19, r16
    3b2a:	41 2f       	mov	r20, r17
    3b2c:	5a 81       	ldd	r21, Y+2	; 0x02
    3b2e:	68 2f       	mov	r22, r24
    3b30:	7b 2f       	mov	r23, r27
    3b32:	8f 2f       	mov	r24, r31
    3b34:	9e 2f       	mov	r25, r30
    3b36:	a7 e0       	ldi	r26, 0x07	; 7
    3b38:	0e 94 f1 3c 	call	0x79e2	; 0x79e2 <__cmpdi2_s8>
    3b3c:	09 f0       	breq	.+2      	; 0x3b40 <RO_Set+0x260>
    3b3e:	b0 f4       	brcc	.+44     	; 0x3b6c <RO_Set+0x28c>
    3b40:	a1 e0       	ldi	r26, 0x01	; 1
    3b42:	0e 94 dc 3c 	call	0x79b8	; 0x79b8 <__adddi3_s8>
    3b46:	20 93 73 51 	sts	0x5173, r18	; 0x805173 <RO_10000>
    3b4a:	30 93 74 51 	sts	0x5174, r19	; 0x805174 <RO_10000+0x1>
    3b4e:	40 93 75 51 	sts	0x5175, r20	; 0x805175 <RO_10000+0x2>
    3b52:	50 93 76 51 	sts	0x5176, r21	; 0x805176 <RO_10000+0x3>
    3b56:	60 93 77 51 	sts	0x5177, r22	; 0x805177 <RO_10000+0x4>
    3b5a:	70 93 78 51 	sts	0x5178, r23	; 0x805178 <RO_10000+0x5>
    3b5e:	80 93 79 51 	sts	0x5179, r24	; 0x805179 <RO_10000+0x6>
    3b62:	90 93 7a 51 	sts	0x517A, r25	; 0x80517a <RO_10000+0x7>
    3b66:	10 92 69 51 	sts	0x5169, r1	; 0x805169 <KEY+0x2>
    3b6a:	80 c2       	rjmp	.+1280   	; 0x406c <__DATA_REGION_LENGTH__+0x6c>
					else if(KEY.Key == 3 && RO_10000 > 1) {RO_10000--; KEY.Key = 0;}	// лӢӨмҡҙлІ„нҠј мқҙл©ҙ ROк°’ 10000мқҳ мһҗлҰ¬ к°җмҶҢ
    3b6c:	80 91 69 51 	lds	r24, 0x5169	; 0x805169 <KEY+0x2>
    3b70:	83 30       	cpi	r24, 0x03	; 3
    3b72:	09 f0       	breq	.+2      	; 0x3b76 <RO_Set+0x296>
    3b74:	7b c2       	rjmp	.+1270   	; 0x406c <__DATA_REGION_LENGTH__+0x6c>
    3b76:	f0 90 73 51 	lds	r15, 0x5173	; 0x805173 <RO_10000>
    3b7a:	00 91 74 51 	lds	r16, 0x5174	; 0x805174 <RO_10000+0x1>
    3b7e:	10 91 75 51 	lds	r17, 0x5175	; 0x805175 <RO_10000+0x2>
    3b82:	80 91 76 51 	lds	r24, 0x5176	; 0x805176 <RO_10000+0x3>
    3b86:	8a 83       	std	Y+2, r24	; 0x02
    3b88:	80 91 77 51 	lds	r24, 0x5177	; 0x805177 <RO_10000+0x4>
    3b8c:	89 83       	std	Y+1, r24	; 0x01
    3b8e:	b0 91 78 51 	lds	r27, 0x5178	; 0x805178 <RO_10000+0x5>
    3b92:	f0 91 79 51 	lds	r31, 0x5179	; 0x805179 <RO_10000+0x6>
    3b96:	e0 91 7a 51 	lds	r30, 0x517A	; 0x80517a <RO_10000+0x7>
    3b9a:	2f 2d       	mov	r18, r15
    3b9c:	30 2f       	mov	r19, r16
    3b9e:	41 2f       	mov	r20, r17
    3ba0:	5a 81       	ldd	r21, Y+2	; 0x02
    3ba2:	68 2f       	mov	r22, r24
    3ba4:	7b 2f       	mov	r23, r27
    3ba6:	8f 2f       	mov	r24, r31
    3ba8:	9e 2f       	mov	r25, r30
    3baa:	a1 e0       	ldi	r26, 0x01	; 1
    3bac:	0e 94 f1 3c 	call	0x79e2	; 0x79e2 <__cmpdi2_s8>
    3bb0:	09 f0       	breq	.+2      	; 0x3bb4 <RO_Set+0x2d4>
    3bb2:	08 f4       	brcc	.+2      	; 0x3bb6 <RO_Set+0x2d6>
    3bb4:	5b c2       	rjmp	.+1206   	; 0x406c <__DATA_REGION_LENGTH__+0x6c>
    3bb6:	af ef       	ldi	r26, 0xFF	; 255
    3bb8:	0e 94 dc 3c 	call	0x79b8	; 0x79b8 <__adddi3_s8>
    3bbc:	20 93 73 51 	sts	0x5173, r18	; 0x805173 <RO_10000>
    3bc0:	30 93 74 51 	sts	0x5174, r19	; 0x805174 <RO_10000+0x1>
    3bc4:	40 93 75 51 	sts	0x5175, r20	; 0x805175 <RO_10000+0x2>
    3bc8:	50 93 76 51 	sts	0x5176, r21	; 0x805176 <RO_10000+0x3>
    3bcc:	60 93 77 51 	sts	0x5177, r22	; 0x805177 <RO_10000+0x4>
    3bd0:	70 93 78 51 	sts	0x5178, r23	; 0x805178 <RO_10000+0x5>
    3bd4:	80 93 79 51 	sts	0x5179, r24	; 0x805179 <RO_10000+0x6>
    3bd8:	90 93 7a 51 	sts	0x517A, r25	; 0x80517a <RO_10000+0x7>
    3bdc:	10 92 69 51 	sts	0x5169, r1	; 0x805169 <KEY+0x2>
    3be0:	45 c2       	rjmp	.+1162   	; 0x406c <__DATA_REGION_LENGTH__+0x6c>
				}
			break;

			case 1:							// лЎңл“ңм…Җ RO 1000мқҳ мһҗлҰ¬
				DIGIT[1][3] = fnd_tbl[RO_10000] + FND_Point;	// лЎңл“ңм…Җ RO 10000мқҳ мһҗлҰ¬ н‘ңмӢң
    3be2:	e0 91 73 51 	lds	r30, 0x5173	; 0x805173 <RO_10000>
    3be6:	f0 91 74 51 	lds	r31, 0x5174	; 0x805174 <RO_10000+0x1>
    3bea:	e5 5a       	subi	r30, 0xA5	; 165
    3bec:	fe 4b       	sbci	r31, 0xBE	; 190
    3bee:	80 81       	ld	r24, Z
    3bf0:	8f 5f       	subi	r24, 0xFF	; 255
    3bf2:	80 93 98 41 	sts	0x4198, r24	; 0x804198 <DIGIT+0x7>
				if(Blink) {DIGIT[1][2] = FND_OFF;}		// Blink = 1 мқҙл©ҙ лЎңл“ңм…Җ RO 1000мқҳ мһҗлҰ¬ OFF
    3bf6:	80 91 93 51 	lds	r24, 0x5193	; 0x805193 <Blink>
    3bfa:	88 23       	and	r24, r24
    3bfc:	19 f0       	breq	.+6      	; 0x3c04 <RO_Set+0x324>
    3bfe:	10 92 97 41 	sts	0x4197, r1	; 0x804197 <DIGIT+0x6>
    3c02:	09 c0       	rjmp	.+18     	; 0x3c16 <RO_Set+0x336>
				else	  {DIGIT[1][2] = fnd_tbl[RO_1000];}	// Blink = 0 мқҙл©ҙ лЎңл“ңм…Җ RO 1000мқҳ мһҗлҰ¬ н‘ңмӢң
    3c04:	e0 91 9c 52 	lds	r30, 0x529C	; 0x80529c <RO_1000>
    3c08:	f0 91 9d 52 	lds	r31, 0x529D	; 0x80529d <RO_1000+0x1>
    3c0c:	e5 5a       	subi	r30, 0xA5	; 165
    3c0e:	fe 4b       	sbci	r31, 0xBE	; 190
    3c10:	80 81       	ld	r24, Z
    3c12:	80 93 97 41 	sts	0x4197, r24	; 0x804197 <DIGIT+0x6>

				if(KEY.Buff)					// Key мһ…л Ҙмқҙ мһҲмңјл©ҙ
    3c16:	80 91 68 51 	lds	r24, 0x5168	; 0x805168 <KEY+0x1>
    3c1a:	88 23       	and	r24, r24
    3c1c:	09 f4       	brne	.+2      	; 0x3c20 <RO_Set+0x340>
    3c1e:	26 c2       	rjmp	.+1100   	; 0x406c <__DATA_REGION_LENGTH__+0x6c>
				{
					if     (KEY.Key == 1 && RO_1000 < 9) {RO_1000++; KEY.Key = 0;}		// м—…  лІ„нҠј мқҙл©ҙ ROк°’ 1000мқҳ мһҗлҰ¬ мҰқк°Җ
    3c20:	80 91 69 51 	lds	r24, 0x5169	; 0x805169 <KEY+0x2>
    3c24:	81 30       	cpi	r24, 0x01	; 1
    3c26:	a9 f5       	brne	.+106    	; 0x3c92 <RO_Set+0x3b2>
    3c28:	f0 90 9c 52 	lds	r15, 0x529C	; 0x80529c <RO_1000>
    3c2c:	00 91 9d 52 	lds	r16, 0x529D	; 0x80529d <RO_1000+0x1>
    3c30:	10 91 9e 52 	lds	r17, 0x529E	; 0x80529e <RO_1000+0x2>
    3c34:	80 91 9f 52 	lds	r24, 0x529F	; 0x80529f <RO_1000+0x3>
    3c38:	8a 83       	std	Y+2, r24	; 0x02
    3c3a:	80 91 a0 52 	lds	r24, 0x52A0	; 0x8052a0 <RO_1000+0x4>
    3c3e:	89 83       	std	Y+1, r24	; 0x01
    3c40:	b0 91 a1 52 	lds	r27, 0x52A1	; 0x8052a1 <RO_1000+0x5>
    3c44:	f0 91 a2 52 	lds	r31, 0x52A2	; 0x8052a2 <RO_1000+0x6>
    3c48:	e0 91 a3 52 	lds	r30, 0x52A3	; 0x8052a3 <RO_1000+0x7>
    3c4c:	2f 2d       	mov	r18, r15
    3c4e:	30 2f       	mov	r19, r16
    3c50:	41 2f       	mov	r20, r17
    3c52:	5a 81       	ldd	r21, Y+2	; 0x02
    3c54:	68 2f       	mov	r22, r24
    3c56:	7b 2f       	mov	r23, r27
    3c58:	8f 2f       	mov	r24, r31
    3c5a:	9e 2f       	mov	r25, r30
    3c5c:	a8 e0       	ldi	r26, 0x08	; 8
    3c5e:	0e 94 f1 3c 	call	0x79e2	; 0x79e2 <__cmpdi2_s8>
    3c62:	09 f0       	breq	.+2      	; 0x3c66 <RO_Set+0x386>
    3c64:	b0 f4       	brcc	.+44     	; 0x3c92 <RO_Set+0x3b2>
    3c66:	a1 e0       	ldi	r26, 0x01	; 1
    3c68:	0e 94 dc 3c 	call	0x79b8	; 0x79b8 <__adddi3_s8>
    3c6c:	20 93 9c 52 	sts	0x529C, r18	; 0x80529c <RO_1000>
    3c70:	30 93 9d 52 	sts	0x529D, r19	; 0x80529d <RO_1000+0x1>
    3c74:	40 93 9e 52 	sts	0x529E, r20	; 0x80529e <RO_1000+0x2>
    3c78:	50 93 9f 52 	sts	0x529F, r21	; 0x80529f <RO_1000+0x3>
    3c7c:	60 93 a0 52 	sts	0x52A0, r22	; 0x8052a0 <RO_1000+0x4>
    3c80:	70 93 a1 52 	sts	0x52A1, r23	; 0x8052a1 <RO_1000+0x5>
    3c84:	80 93 a2 52 	sts	0x52A2, r24	; 0x8052a2 <RO_1000+0x6>
    3c88:	90 93 a3 52 	sts	0x52A3, r25	; 0x8052a3 <RO_1000+0x7>
    3c8c:	10 92 69 51 	sts	0x5169, r1	; 0x805169 <KEY+0x2>
    3c90:	ed c1       	rjmp	.+986    	; 0x406c <__DATA_REGION_LENGTH__+0x6c>
					else if(KEY.Key == 3 && RO_1000 > 0) {RO_1000--; KEY.Key = 0;}		// лӢӨмҡҙлІ„нҠј мқҙл©ҙ ROк°’ 1000мқҳ мһҗлҰ¬ к°җмҶҢ
    3c92:	80 91 69 51 	lds	r24, 0x5169	; 0x805169 <KEY+0x2>
    3c96:	83 30       	cpi	r24, 0x03	; 3
    3c98:	09 f0       	breq	.+2      	; 0x3c9c <RO_Set+0x3bc>
    3c9a:	e8 c1       	rjmp	.+976    	; 0x406c <__DATA_REGION_LENGTH__+0x6c>
    3c9c:	f0 90 9c 52 	lds	r15, 0x529C	; 0x80529c <RO_1000>
    3ca0:	00 91 9d 52 	lds	r16, 0x529D	; 0x80529d <RO_1000+0x1>
    3ca4:	10 91 9e 52 	lds	r17, 0x529E	; 0x80529e <RO_1000+0x2>
    3ca8:	80 91 9f 52 	lds	r24, 0x529F	; 0x80529f <RO_1000+0x3>
    3cac:	8a 83       	std	Y+2, r24	; 0x02
    3cae:	80 91 a0 52 	lds	r24, 0x52A0	; 0x8052a0 <RO_1000+0x4>
    3cb2:	89 83       	std	Y+1, r24	; 0x01
    3cb4:	b0 91 a1 52 	lds	r27, 0x52A1	; 0x8052a1 <RO_1000+0x5>
    3cb8:	f0 91 a2 52 	lds	r31, 0x52A2	; 0x8052a2 <RO_1000+0x6>
    3cbc:	e0 91 a3 52 	lds	r30, 0x52A3	; 0x8052a3 <RO_1000+0x7>
    3cc0:	2f 2d       	mov	r18, r15
    3cc2:	30 2f       	mov	r19, r16
    3cc4:	41 2f       	mov	r20, r17
    3cc6:	5a 81       	ldd	r21, Y+2	; 0x02
    3cc8:	68 2f       	mov	r22, r24
    3cca:	7b 2f       	mov	r23, r27
    3ccc:	8f 2f       	mov	r24, r31
    3cce:	9e 2f       	mov	r25, r30
    3cd0:	a0 e0       	ldi	r26, 0x00	; 0
    3cd2:	0e 94 f1 3c 	call	0x79e2	; 0x79e2 <__cmpdi2_s8>
    3cd6:	09 f4       	brne	.+2      	; 0x3cda <RO_Set+0x3fa>
    3cd8:	c9 c1       	rjmp	.+914    	; 0x406c <__DATA_REGION_LENGTH__+0x6c>
    3cda:	af ef       	ldi	r26, 0xFF	; 255
    3cdc:	0e 94 dc 3c 	call	0x79b8	; 0x79b8 <__adddi3_s8>
    3ce0:	20 93 9c 52 	sts	0x529C, r18	; 0x80529c <RO_1000>
    3ce4:	30 93 9d 52 	sts	0x529D, r19	; 0x80529d <RO_1000+0x1>
    3ce8:	40 93 9e 52 	sts	0x529E, r20	; 0x80529e <RO_1000+0x2>
    3cec:	50 93 9f 52 	sts	0x529F, r21	; 0x80529f <RO_1000+0x3>
    3cf0:	60 93 a0 52 	sts	0x52A0, r22	; 0x8052a0 <RO_1000+0x4>
    3cf4:	70 93 a1 52 	sts	0x52A1, r23	; 0x8052a1 <RO_1000+0x5>
    3cf8:	80 93 a2 52 	sts	0x52A2, r24	; 0x8052a2 <RO_1000+0x6>
    3cfc:	90 93 a3 52 	sts	0x52A3, r25	; 0x8052a3 <RO_1000+0x7>
    3d00:	10 92 69 51 	sts	0x5169, r1	; 0x805169 <KEY+0x2>
    3d04:	b3 c1       	rjmp	.+870    	; 0x406c <__DATA_REGION_LENGTH__+0x6c>
				}
			break;

			case 2:							// лЎңл“ңм…Җ RO 100мқҳ мһҗлҰ¬
				DIGIT[1][2] = fnd_tbl[RO_1000];			// лЎңл“ңм…Җ RO 1000мқҳ мһҗлҰ¬ н‘ңмӢң
    3d06:	e0 91 9c 52 	lds	r30, 0x529C	; 0x80529c <RO_1000>
    3d0a:	f0 91 9d 52 	lds	r31, 0x529D	; 0x80529d <RO_1000+0x1>
    3d0e:	e5 5a       	subi	r30, 0xA5	; 165
    3d10:	fe 4b       	sbci	r31, 0xBE	; 190
    3d12:	80 81       	ld	r24, Z
    3d14:	80 93 97 41 	sts	0x4197, r24	; 0x804197 <DIGIT+0x6>
				if(Blink) {DIGIT[1][1] = FND_OFF;}		// Blink = 1 мқҙл©ҙ лЎңл“ңм…Җ RO 100мқҳ мһҗлҰ¬ OFF
    3d18:	80 91 93 51 	lds	r24, 0x5193	; 0x805193 <Blink>
    3d1c:	88 23       	and	r24, r24
    3d1e:	19 f0       	breq	.+6      	; 0x3d26 <RO_Set+0x446>
    3d20:	10 92 96 41 	sts	0x4196, r1	; 0x804196 <DIGIT+0x5>
    3d24:	09 c0       	rjmp	.+18     	; 0x3d38 <RO_Set+0x458>
				else	  {DIGIT[1][1] = fnd_tbl[RO_100];}	// Blink = 0 мқҙл©ҙ лЎңл“ңм…Җ RO 100мқҳ мһҗлҰ¬ н‘ңмӢң
    3d26:	e0 91 8b 51 	lds	r30, 0x518B	; 0x80518b <RO_100>
    3d2a:	f0 91 8c 51 	lds	r31, 0x518C	; 0x80518c <RO_100+0x1>
    3d2e:	e5 5a       	subi	r30, 0xA5	; 165
    3d30:	fe 4b       	sbci	r31, 0xBE	; 190
    3d32:	80 81       	ld	r24, Z
    3d34:	80 93 96 41 	sts	0x4196, r24	; 0x804196 <DIGIT+0x5>

				if(KEY.Buff)					// Key мһ…л Ҙмқҙ мһҲмңјл©ҙ
    3d38:	80 91 68 51 	lds	r24, 0x5168	; 0x805168 <KEY+0x1>
    3d3c:	88 23       	and	r24, r24
    3d3e:	09 f4       	brne	.+2      	; 0x3d42 <RO_Set+0x462>
    3d40:	95 c1       	rjmp	.+810    	; 0x406c <__DATA_REGION_LENGTH__+0x6c>
				{
					if     (KEY.Key == 1 && RO_100 < 9) {RO_100++; KEY.Key = 0;}		// м—…  лІ„нҠј мқҙл©ҙ ROк°’ 100мқҳ мһҗлҰ¬ мҰқк°Җ
    3d42:	80 91 69 51 	lds	r24, 0x5169	; 0x805169 <KEY+0x2>
    3d46:	81 30       	cpi	r24, 0x01	; 1
    3d48:	a9 f5       	brne	.+106    	; 0x3db4 <RO_Set+0x4d4>
    3d4a:	f0 90 8b 51 	lds	r15, 0x518B	; 0x80518b <RO_100>
    3d4e:	00 91 8c 51 	lds	r16, 0x518C	; 0x80518c <RO_100+0x1>
    3d52:	10 91 8d 51 	lds	r17, 0x518D	; 0x80518d <RO_100+0x2>
    3d56:	80 91 8e 51 	lds	r24, 0x518E	; 0x80518e <RO_100+0x3>
    3d5a:	8a 83       	std	Y+2, r24	; 0x02
    3d5c:	80 91 8f 51 	lds	r24, 0x518F	; 0x80518f <RO_100+0x4>
    3d60:	89 83       	std	Y+1, r24	; 0x01
    3d62:	b0 91 90 51 	lds	r27, 0x5190	; 0x805190 <RO_100+0x5>
    3d66:	f0 91 91 51 	lds	r31, 0x5191	; 0x805191 <RO_100+0x6>
    3d6a:	e0 91 92 51 	lds	r30, 0x5192	; 0x805192 <RO_100+0x7>
    3d6e:	2f 2d       	mov	r18, r15
    3d70:	30 2f       	mov	r19, r16
    3d72:	41 2f       	mov	r20, r17
    3d74:	5a 81       	ldd	r21, Y+2	; 0x02
    3d76:	68 2f       	mov	r22, r24
    3d78:	7b 2f       	mov	r23, r27
    3d7a:	8f 2f       	mov	r24, r31
    3d7c:	9e 2f       	mov	r25, r30
    3d7e:	a8 e0       	ldi	r26, 0x08	; 8
    3d80:	0e 94 f1 3c 	call	0x79e2	; 0x79e2 <__cmpdi2_s8>
    3d84:	09 f0       	breq	.+2      	; 0x3d88 <RO_Set+0x4a8>
    3d86:	b0 f4       	brcc	.+44     	; 0x3db4 <RO_Set+0x4d4>
    3d88:	a1 e0       	ldi	r26, 0x01	; 1
    3d8a:	0e 94 dc 3c 	call	0x79b8	; 0x79b8 <__adddi3_s8>
    3d8e:	20 93 8b 51 	sts	0x518B, r18	; 0x80518b <RO_100>
    3d92:	30 93 8c 51 	sts	0x518C, r19	; 0x80518c <RO_100+0x1>
    3d96:	40 93 8d 51 	sts	0x518D, r20	; 0x80518d <RO_100+0x2>
    3d9a:	50 93 8e 51 	sts	0x518E, r21	; 0x80518e <RO_100+0x3>
    3d9e:	60 93 8f 51 	sts	0x518F, r22	; 0x80518f <RO_100+0x4>
    3da2:	70 93 90 51 	sts	0x5190, r23	; 0x805190 <RO_100+0x5>
    3da6:	80 93 91 51 	sts	0x5191, r24	; 0x805191 <RO_100+0x6>
    3daa:	90 93 92 51 	sts	0x5192, r25	; 0x805192 <RO_100+0x7>
    3dae:	10 92 69 51 	sts	0x5169, r1	; 0x805169 <KEY+0x2>
    3db2:	5c c1       	rjmp	.+696    	; 0x406c <__DATA_REGION_LENGTH__+0x6c>
					else if(KEY.Key == 3 && RO_100 > 0) {RO_100--; KEY.Key = 0;}		// лӢӨмҡҙлІ„нҠј мқҙл©ҙ ROк°’ 100мқҳ мһҗлҰ¬ к°җмҶҢ
    3db4:	80 91 69 51 	lds	r24, 0x5169	; 0x805169 <KEY+0x2>
    3db8:	83 30       	cpi	r24, 0x03	; 3
    3dba:	09 f0       	breq	.+2      	; 0x3dbe <RO_Set+0x4de>
    3dbc:	57 c1       	rjmp	.+686    	; 0x406c <__DATA_REGION_LENGTH__+0x6c>
    3dbe:	f0 90 8b 51 	lds	r15, 0x518B	; 0x80518b <RO_100>
    3dc2:	00 91 8c 51 	lds	r16, 0x518C	; 0x80518c <RO_100+0x1>
    3dc6:	10 91 8d 51 	lds	r17, 0x518D	; 0x80518d <RO_100+0x2>
    3dca:	80 91 8e 51 	lds	r24, 0x518E	; 0x80518e <RO_100+0x3>
    3dce:	8a 83       	std	Y+2, r24	; 0x02
    3dd0:	80 91 8f 51 	lds	r24, 0x518F	; 0x80518f <RO_100+0x4>
    3dd4:	89 83       	std	Y+1, r24	; 0x01
    3dd6:	b0 91 90 51 	lds	r27, 0x5190	; 0x805190 <RO_100+0x5>
    3dda:	f0 91 91 51 	lds	r31, 0x5191	; 0x805191 <RO_100+0x6>
    3dde:	e0 91 92 51 	lds	r30, 0x5192	; 0x805192 <RO_100+0x7>
    3de2:	2f 2d       	mov	r18, r15
    3de4:	30 2f       	mov	r19, r16
    3de6:	41 2f       	mov	r20, r17
    3de8:	5a 81       	ldd	r21, Y+2	; 0x02
    3dea:	68 2f       	mov	r22, r24
    3dec:	7b 2f       	mov	r23, r27
    3dee:	8f 2f       	mov	r24, r31
    3df0:	9e 2f       	mov	r25, r30
    3df2:	a0 e0       	ldi	r26, 0x00	; 0
    3df4:	0e 94 f1 3c 	call	0x79e2	; 0x79e2 <__cmpdi2_s8>
    3df8:	09 f4       	brne	.+2      	; 0x3dfc <RO_Set+0x51c>
    3dfa:	38 c1       	rjmp	.+624    	; 0x406c <__DATA_REGION_LENGTH__+0x6c>
    3dfc:	af ef       	ldi	r26, 0xFF	; 255
    3dfe:	0e 94 dc 3c 	call	0x79b8	; 0x79b8 <__adddi3_s8>
    3e02:	20 93 8b 51 	sts	0x518B, r18	; 0x80518b <RO_100>
    3e06:	30 93 8c 51 	sts	0x518C, r19	; 0x80518c <RO_100+0x1>
    3e0a:	40 93 8d 51 	sts	0x518D, r20	; 0x80518d <RO_100+0x2>
    3e0e:	50 93 8e 51 	sts	0x518E, r21	; 0x80518e <RO_100+0x3>
    3e12:	60 93 8f 51 	sts	0x518F, r22	; 0x80518f <RO_100+0x4>
    3e16:	70 93 90 51 	sts	0x5190, r23	; 0x805190 <RO_100+0x5>
    3e1a:	80 93 91 51 	sts	0x5191, r24	; 0x805191 <RO_100+0x6>
    3e1e:	90 93 92 51 	sts	0x5192, r25	; 0x805192 <RO_100+0x7>
    3e22:	10 92 69 51 	sts	0x5169, r1	; 0x805169 <KEY+0x2>
    3e26:	22 c1       	rjmp	.+580    	; 0x406c <__DATA_REGION_LENGTH__+0x6c>
				}
			break;

			case 3:							// лЎңл“ңм…Җ RO 10мқҳ мһҗлҰ¬
				DIGIT[1][1] = fnd_tbl[RO_100];			// лЎңл“ңм…Җ RO 100мқҳ мһҗлҰ¬ н‘ңмӢң
    3e28:	e0 91 8b 51 	lds	r30, 0x518B	; 0x80518b <RO_100>
    3e2c:	f0 91 8c 51 	lds	r31, 0x518C	; 0x80518c <RO_100+0x1>
    3e30:	e5 5a       	subi	r30, 0xA5	; 165
    3e32:	fe 4b       	sbci	r31, 0xBE	; 190
    3e34:	80 81       	ld	r24, Z
    3e36:	80 93 96 41 	sts	0x4196, r24	; 0x804196 <DIGIT+0x5>
				if(Blink) {DIGIT[1][0] = FND_OFF;}		// Blink = 1 мқҙл©ҙ лЎңл“ңм…Җ RO 10мқҳ мһҗлҰ¬ OFF
    3e3a:	80 91 93 51 	lds	r24, 0x5193	; 0x805193 <Blink>
    3e3e:	88 23       	and	r24, r24
    3e40:	19 f0       	breq	.+6      	; 0x3e48 <RO_Set+0x568>
    3e42:	10 92 95 41 	sts	0x4195, r1	; 0x804195 <DIGIT+0x4>
    3e46:	09 c0       	rjmp	.+18     	; 0x3e5a <RO_Set+0x57a>
				else	  {DIGIT[1][0] = fnd_tbl[RO_10];}	// Blink = 0 мқҙл©ҙ лЎңл“ңм…Җ RO 10мқҳ мһҗлҰ¬ н‘ңмӢң
    3e48:	e0 91 5a 51 	lds	r30, 0x515A	; 0x80515a <RO_10>
    3e4c:	f0 91 5b 51 	lds	r31, 0x515B	; 0x80515b <RO_10+0x1>
    3e50:	e5 5a       	subi	r30, 0xA5	; 165
    3e52:	fe 4b       	sbci	r31, 0xBE	; 190
    3e54:	80 81       	ld	r24, Z
    3e56:	80 93 95 41 	sts	0x4195, r24	; 0x804195 <DIGIT+0x4>

				if(KEY.Buff)					// Key мһ…л Ҙмқҙ мһҲмңјл©ҙ
    3e5a:	80 91 68 51 	lds	r24, 0x5168	; 0x805168 <KEY+0x1>
    3e5e:	88 23       	and	r24, r24
    3e60:	09 f4       	brne	.+2      	; 0x3e64 <RO_Set+0x584>
    3e62:	04 c1       	rjmp	.+520    	; 0x406c <__DATA_REGION_LENGTH__+0x6c>
				{
					if     (KEY.Key == 1 && RO_10 < 9) {RO_10++; KEY.Key = 0;}		// м—…  лІ„нҠј мқҙл©ҙ ROк°’ 10мқҳ мһҗлҰ¬ мҰқк°Җ
    3e64:	80 91 69 51 	lds	r24, 0x5169	; 0x805169 <KEY+0x2>
    3e68:	81 30       	cpi	r24, 0x01	; 1
    3e6a:	a9 f5       	brne	.+106    	; 0x3ed6 <RO_Set+0x5f6>
    3e6c:	f0 90 5a 51 	lds	r15, 0x515A	; 0x80515a <RO_10>
    3e70:	00 91 5b 51 	lds	r16, 0x515B	; 0x80515b <RO_10+0x1>
    3e74:	10 91 5c 51 	lds	r17, 0x515C	; 0x80515c <RO_10+0x2>
    3e78:	80 91 5d 51 	lds	r24, 0x515D	; 0x80515d <RO_10+0x3>
    3e7c:	8a 83       	std	Y+2, r24	; 0x02
    3e7e:	80 91 5e 51 	lds	r24, 0x515E	; 0x80515e <RO_10+0x4>
    3e82:	89 83       	std	Y+1, r24	; 0x01
    3e84:	b0 91 5f 51 	lds	r27, 0x515F	; 0x80515f <RO_10+0x5>
    3e88:	f0 91 60 51 	lds	r31, 0x5160	; 0x805160 <RO_10+0x6>
    3e8c:	e0 91 61 51 	lds	r30, 0x5161	; 0x805161 <RO_10+0x7>
    3e90:	2f 2d       	mov	r18, r15
    3e92:	30 2f       	mov	r19, r16
    3e94:	41 2f       	mov	r20, r17
    3e96:	5a 81       	ldd	r21, Y+2	; 0x02
    3e98:	68 2f       	mov	r22, r24
    3e9a:	7b 2f       	mov	r23, r27
    3e9c:	8f 2f       	mov	r24, r31
    3e9e:	9e 2f       	mov	r25, r30
    3ea0:	a8 e0       	ldi	r26, 0x08	; 8
    3ea2:	0e 94 f1 3c 	call	0x79e2	; 0x79e2 <__cmpdi2_s8>
    3ea6:	09 f0       	breq	.+2      	; 0x3eaa <RO_Set+0x5ca>
    3ea8:	b0 f4       	brcc	.+44     	; 0x3ed6 <RO_Set+0x5f6>
    3eaa:	a1 e0       	ldi	r26, 0x01	; 1
    3eac:	0e 94 dc 3c 	call	0x79b8	; 0x79b8 <__adddi3_s8>
    3eb0:	20 93 5a 51 	sts	0x515A, r18	; 0x80515a <RO_10>
    3eb4:	30 93 5b 51 	sts	0x515B, r19	; 0x80515b <RO_10+0x1>
    3eb8:	40 93 5c 51 	sts	0x515C, r20	; 0x80515c <RO_10+0x2>
    3ebc:	50 93 5d 51 	sts	0x515D, r21	; 0x80515d <RO_10+0x3>
    3ec0:	60 93 5e 51 	sts	0x515E, r22	; 0x80515e <RO_10+0x4>
    3ec4:	70 93 5f 51 	sts	0x515F, r23	; 0x80515f <RO_10+0x5>
    3ec8:	80 93 60 51 	sts	0x5160, r24	; 0x805160 <RO_10+0x6>
    3ecc:	90 93 61 51 	sts	0x5161, r25	; 0x805161 <RO_10+0x7>
    3ed0:	10 92 69 51 	sts	0x5169, r1	; 0x805169 <KEY+0x2>
    3ed4:	cb c0       	rjmp	.+406    	; 0x406c <__DATA_REGION_LENGTH__+0x6c>
					else if(KEY.Key == 3 && RO_10 > 0) {RO_10--; KEY.Key = 0;}		// лӢӨмҡҙлІ„нҠј мқҙл©ҙ ROк°’ 10мқҳ мһҗлҰ¬ к°җмҶҢ
    3ed6:	80 91 69 51 	lds	r24, 0x5169	; 0x805169 <KEY+0x2>
    3eda:	83 30       	cpi	r24, 0x03	; 3
    3edc:	09 f0       	breq	.+2      	; 0x3ee0 <RO_Set+0x600>
    3ede:	c6 c0       	rjmp	.+396    	; 0x406c <__DATA_REGION_LENGTH__+0x6c>
    3ee0:	f0 90 5a 51 	lds	r15, 0x515A	; 0x80515a <RO_10>
    3ee4:	00 91 5b 51 	lds	r16, 0x515B	; 0x80515b <RO_10+0x1>
    3ee8:	10 91 5c 51 	lds	r17, 0x515C	; 0x80515c <RO_10+0x2>
    3eec:	80 91 5d 51 	lds	r24, 0x515D	; 0x80515d <RO_10+0x3>
    3ef0:	8a 83       	std	Y+2, r24	; 0x02
    3ef2:	80 91 5e 51 	lds	r24, 0x515E	; 0x80515e <RO_10+0x4>
    3ef6:	89 83       	std	Y+1, r24	; 0x01
    3ef8:	b0 91 5f 51 	lds	r27, 0x515F	; 0x80515f <RO_10+0x5>
    3efc:	f0 91 60 51 	lds	r31, 0x5160	; 0x805160 <RO_10+0x6>
    3f00:	e0 91 61 51 	lds	r30, 0x5161	; 0x805161 <RO_10+0x7>
    3f04:	2f 2d       	mov	r18, r15
    3f06:	30 2f       	mov	r19, r16
    3f08:	41 2f       	mov	r20, r17
    3f0a:	5a 81       	ldd	r21, Y+2	; 0x02
    3f0c:	68 2f       	mov	r22, r24
    3f0e:	7b 2f       	mov	r23, r27
    3f10:	8f 2f       	mov	r24, r31
    3f12:	9e 2f       	mov	r25, r30
    3f14:	a0 e0       	ldi	r26, 0x00	; 0
    3f16:	0e 94 f1 3c 	call	0x79e2	; 0x79e2 <__cmpdi2_s8>
    3f1a:	09 f4       	brne	.+2      	; 0x3f1e <RO_Set+0x63e>
    3f1c:	a7 c0       	rjmp	.+334    	; 0x406c <__DATA_REGION_LENGTH__+0x6c>
    3f1e:	af ef       	ldi	r26, 0xFF	; 255
    3f20:	0e 94 dc 3c 	call	0x79b8	; 0x79b8 <__adddi3_s8>
    3f24:	20 93 5a 51 	sts	0x515A, r18	; 0x80515a <RO_10>
    3f28:	30 93 5b 51 	sts	0x515B, r19	; 0x80515b <RO_10+0x1>
    3f2c:	40 93 5c 51 	sts	0x515C, r20	; 0x80515c <RO_10+0x2>
    3f30:	50 93 5d 51 	sts	0x515D, r21	; 0x80515d <RO_10+0x3>
    3f34:	60 93 5e 51 	sts	0x515E, r22	; 0x80515e <RO_10+0x4>
    3f38:	70 93 5f 51 	sts	0x515F, r23	; 0x80515f <RO_10+0x5>
    3f3c:	80 93 60 51 	sts	0x5160, r24	; 0x805160 <RO_10+0x6>
    3f40:	90 93 61 51 	sts	0x5161, r25	; 0x805161 <RO_10+0x7>
    3f44:	10 92 69 51 	sts	0x5169, r1	; 0x805169 <KEY+0x2>
    3f48:	91 c0       	rjmp	.+290    	; 0x406c <__DATA_REGION_LENGTH__+0x6c>
				}
			break;

			case 4:							// лЎңл“ңм…Җ RO 1мқҳ мһҗлҰ¬
				DIGIT[1][0] = fnd_tbl[RO_10];			// лЎңл“ңм…Җ RO 10мқҳ мһҗлҰ¬ н‘ңмӢң
    3f4a:	e0 91 5a 51 	lds	r30, 0x515A	; 0x80515a <RO_10>
    3f4e:	f0 91 5b 51 	lds	r31, 0x515B	; 0x80515b <RO_10+0x1>
    3f52:	e5 5a       	subi	r30, 0xA5	; 165
    3f54:	fe 4b       	sbci	r31, 0xBE	; 190
    3f56:	80 81       	ld	r24, Z
    3f58:	80 93 95 41 	sts	0x4195, r24	; 0x804195 <DIGIT+0x4>
				if(Blink) {DIGIT[2][3] = FND_OFF;}		// Blink = 1 мқҙл©ҙ лЎңл“ңм…Җ RO 1мқҳ мһҗлҰ¬ OFF
    3f5c:	80 91 93 51 	lds	r24, 0x5193	; 0x805193 <Blink>
    3f60:	88 23       	and	r24, r24
    3f62:	19 f0       	breq	.+6      	; 0x3f6a <RO_Set+0x68a>
    3f64:	10 92 9c 41 	sts	0x419C, r1	; 0x80419c <DIGIT+0xb>
    3f68:	09 c0       	rjmp	.+18     	; 0x3f7c <RO_Set+0x69c>
				else	  {DIGIT[2][3] = fnd_tbl[RO_1];}	// Blink = 0 мқҙл©ҙ лЎңл“ңм…Җ RO 1мқҳ мһҗлҰ¬ н‘ңмӢң
    3f6a:	e0 91 99 51 	lds	r30, 0x5199	; 0x805199 <RO_1>
    3f6e:	f0 91 9a 51 	lds	r31, 0x519A	; 0x80519a <RO_1+0x1>
    3f72:	e5 5a       	subi	r30, 0xA5	; 165
    3f74:	fe 4b       	sbci	r31, 0xBE	; 190
    3f76:	80 81       	ld	r24, Z
    3f78:	80 93 9c 41 	sts	0x419C, r24	; 0x80419c <DIGIT+0xb>

				if(KEY.Buff)					// Key мһ…л Ҙмқҙ мһҲмңјл©ҙ
    3f7c:	80 91 68 51 	lds	r24, 0x5168	; 0x805168 <KEY+0x1>
    3f80:	88 23       	and	r24, r24
    3f82:	09 f4       	brne	.+2      	; 0x3f86 <RO_Set+0x6a6>
    3f84:	73 c0       	rjmp	.+230    	; 0x406c <__DATA_REGION_LENGTH__+0x6c>
				{
					if     (KEY.Key == 1 && RO_1 < 9) {RO_1++; KEY.Key = 0;}		// м—…  лІ„нҠј мқҙл©ҙ ROк°’ 1мқҳ мһҗлҰ¬ мҰқк°Җ
    3f86:	80 91 69 51 	lds	r24, 0x5169	; 0x805169 <KEY+0x2>
    3f8a:	81 30       	cpi	r24, 0x01	; 1
    3f8c:	a9 f5       	brne	.+106    	; 0x3ff8 <RO_Set+0x718>
    3f8e:	f0 90 99 51 	lds	r15, 0x5199	; 0x805199 <RO_1>
    3f92:	00 91 9a 51 	lds	r16, 0x519A	; 0x80519a <RO_1+0x1>
    3f96:	10 91 9b 51 	lds	r17, 0x519B	; 0x80519b <RO_1+0x2>
    3f9a:	80 91 9c 51 	lds	r24, 0x519C	; 0x80519c <RO_1+0x3>
    3f9e:	8a 83       	std	Y+2, r24	; 0x02
    3fa0:	80 91 9d 51 	lds	r24, 0x519D	; 0x80519d <RO_1+0x4>
    3fa4:	89 83       	std	Y+1, r24	; 0x01
    3fa6:	b0 91 9e 51 	lds	r27, 0x519E	; 0x80519e <RO_1+0x5>
    3faa:	f0 91 9f 51 	lds	r31, 0x519F	; 0x80519f <RO_1+0x6>
    3fae:	e0 91 a0 51 	lds	r30, 0x51A0	; 0x8051a0 <RO_1+0x7>
    3fb2:	2f 2d       	mov	r18, r15
    3fb4:	30 2f       	mov	r19, r16
    3fb6:	41 2f       	mov	r20, r17
    3fb8:	5a 81       	ldd	r21, Y+2	; 0x02
    3fba:	68 2f       	mov	r22, r24
    3fbc:	7b 2f       	mov	r23, r27
    3fbe:	8f 2f       	mov	r24, r31
    3fc0:	9e 2f       	mov	r25, r30
    3fc2:	a8 e0       	ldi	r26, 0x08	; 8
    3fc4:	0e 94 f1 3c 	call	0x79e2	; 0x79e2 <__cmpdi2_s8>
    3fc8:	09 f0       	breq	.+2      	; 0x3fcc <RO_Set+0x6ec>
    3fca:	b0 f4       	brcc	.+44     	; 0x3ff8 <RO_Set+0x718>
    3fcc:	a1 e0       	ldi	r26, 0x01	; 1
    3fce:	0e 94 dc 3c 	call	0x79b8	; 0x79b8 <__adddi3_s8>
    3fd2:	20 93 99 51 	sts	0x5199, r18	; 0x805199 <RO_1>
    3fd6:	30 93 9a 51 	sts	0x519A, r19	; 0x80519a <RO_1+0x1>
    3fda:	40 93 9b 51 	sts	0x519B, r20	; 0x80519b <RO_1+0x2>
    3fde:	50 93 9c 51 	sts	0x519C, r21	; 0x80519c <RO_1+0x3>
    3fe2:	60 93 9d 51 	sts	0x519D, r22	; 0x80519d <RO_1+0x4>
    3fe6:	70 93 9e 51 	sts	0x519E, r23	; 0x80519e <RO_1+0x5>
    3fea:	80 93 9f 51 	sts	0x519F, r24	; 0x80519f <RO_1+0x6>
    3fee:	90 93 a0 51 	sts	0x51A0, r25	; 0x8051a0 <RO_1+0x7>
    3ff2:	10 92 69 51 	sts	0x5169, r1	; 0x805169 <KEY+0x2>
    3ff6:	3a c0       	rjmp	.+116    	; 0x406c <__DATA_REGION_LENGTH__+0x6c>
					else if(KEY.Key == 3 && RO_1 > 0) {RO_1--; KEY.Key = 0;}		// лӢӨмҡҙлІ„нҠј мқҙл©ҙ ROк°’ 1мқҳ мһҗлҰ¬ к°җмҶҢ
    3ff8:	80 91 69 51 	lds	r24, 0x5169	; 0x805169 <KEY+0x2>
    3ffc:	83 30       	cpi	r24, 0x03	; 3
    3ffe:	b1 f5       	brne	.+108    	; 0x406c <__DATA_REGION_LENGTH__+0x6c>
    4000:	f0 90 99 51 	lds	r15, 0x5199	; 0x805199 <RO_1>
    4004:	00 91 9a 51 	lds	r16, 0x519A	; 0x80519a <RO_1+0x1>
    4008:	10 91 9b 51 	lds	r17, 0x519B	; 0x80519b <RO_1+0x2>
    400c:	80 91 9c 51 	lds	r24, 0x519C	; 0x80519c <RO_1+0x3>
    4010:	8a 83       	std	Y+2, r24	; 0x02
    4012:	80 91 9d 51 	lds	r24, 0x519D	; 0x80519d <RO_1+0x4>
    4016:	89 83       	std	Y+1, r24	; 0x01
    4018:	b0 91 9e 51 	lds	r27, 0x519E	; 0x80519e <RO_1+0x5>
    401c:	f0 91 9f 51 	lds	r31, 0x519F	; 0x80519f <RO_1+0x6>
    4020:	e0 91 a0 51 	lds	r30, 0x51A0	; 0x8051a0 <RO_1+0x7>
    4024:	2f 2d       	mov	r18, r15
    4026:	30 2f       	mov	r19, r16
    4028:	41 2f       	mov	r20, r17
    402a:	5a 81       	ldd	r21, Y+2	; 0x02
    402c:	68 2f       	mov	r22, r24
    402e:	7b 2f       	mov	r23, r27
    4030:	8f 2f       	mov	r24, r31
    4032:	9e 2f       	mov	r25, r30
    4034:	a0 e0       	ldi	r26, 0x00	; 0
    4036:	0e 94 f1 3c 	call	0x79e2	; 0x79e2 <__cmpdi2_s8>
    403a:	c1 f0       	breq	.+48     	; 0x406c <__DATA_REGION_LENGTH__+0x6c>
    403c:	af ef       	ldi	r26, 0xFF	; 255
    403e:	0e 94 dc 3c 	call	0x79b8	; 0x79b8 <__adddi3_s8>
    4042:	20 93 99 51 	sts	0x5199, r18	; 0x805199 <RO_1>
    4046:	30 93 9a 51 	sts	0x519A, r19	; 0x80519a <RO_1+0x1>
    404a:	40 93 9b 51 	sts	0x519B, r20	; 0x80519b <RO_1+0x2>
    404e:	50 93 9c 51 	sts	0x519C, r21	; 0x80519c <RO_1+0x3>
    4052:	60 93 9d 51 	sts	0x519D, r22	; 0x80519d <RO_1+0x4>
    4056:	70 93 9e 51 	sts	0x519E, r23	; 0x80519e <RO_1+0x5>
    405a:	80 93 9f 51 	sts	0x519F, r24	; 0x80519f <RO_1+0x6>
    405e:	90 93 a0 51 	sts	0x51A0, r25	; 0x8051a0 <RO_1+0x7>
    4062:	10 92 69 51 	sts	0x5169, r1	; 0x805169 <KEY+0x2>
    4066:	02 c0       	rjmp	.+4      	; 0x406c <__DATA_REGION_LENGTH__+0x6c>
				}
			break;

			case 5:
				KEY.Count = 0;					// л°ҳліөмқ„ мң„н•ҙ KEY.Count лҘј мҙҲкё°нҷ” мӢңнӮҙ
    4068:	10 92 67 51 	sts	0x5167, r1	; 0x805167 <KEY>
			break;
		}
		wdt_reset();							// мӣҢм№ҳлҸ… лҰ¬м…Ӣ
    406c:	0e 94 8c 0e 	call	0x1d18	; 0x1d18 <wdt_reset>
	RO_1000  = RO % 10000 / 1000;						// лЎңл“ңм…Җ RO  1000мқҳ мһҗлҰ¬
	RO_100   = RO % 1000 / 100;						// лЎңл“ңм…Җ RO   100мқҳ мһҗлҰ¬
	RO_10    = RO % 100 / 10;						// лЎңл“ңм…Җ RO    10мқҳ мһҗлҰ¬
	RO_1     = RO % 10;							// лЎңл“ңм…Җ RO     1мқҳ мһҗлҰ¬
//-------------------------------------------------------------------------------------------------
	while(SET.Menu)								// л©”лүҙк°Җ 1 мқҙл©ҙ л°ҳліө
    4070:	80 91 28 51 	lds	r24, 0x5128	; 0x805128 <SET>
    4074:	81 11       	cpse	r24, r1
    4076:	0a cd       	rjmp	.-1516   	; 0x3a8c <RO_Set+0x1ac>
		}
		wdt_reset();							// мӣҢм№ҳлҸ… лҰ¬м…Ӣ
	}
//-------------------------------------------------------------------------------------------------
	RO = 0;
	RO += (RO_10000 * 10000);						// лЎңл“ңм…Җ RO 10000мқҳ мһҗлҰ¬
    4078:	68 94       	set
    407a:	aa 24       	eor	r10, r10
    407c:	a4 f8       	bld	r10, 4
    407e:	0f 2e       	mov	r0, r31
    4080:	f7 e2       	ldi	r31, 0x27	; 39
    4082:	bf 2e       	mov	r11, r31
    4084:	f0 2d       	mov	r31, r0
    4086:	c1 2c       	mov	r12, r1
    4088:	d1 2c       	mov	r13, r1
    408a:	e1 2c       	mov	r14, r1
    408c:	f1 2c       	mov	r15, r1
    408e:	00 e0       	ldi	r16, 0x00	; 0
    4090:	10 e0       	ldi	r17, 0x00	; 0
    4092:	20 91 73 51 	lds	r18, 0x5173	; 0x805173 <RO_10000>
    4096:	30 91 74 51 	lds	r19, 0x5174	; 0x805174 <RO_10000+0x1>
    409a:	40 91 75 51 	lds	r20, 0x5175	; 0x805175 <RO_10000+0x2>
    409e:	50 91 76 51 	lds	r21, 0x5176	; 0x805176 <RO_10000+0x3>
    40a2:	60 91 77 51 	lds	r22, 0x5177	; 0x805177 <RO_10000+0x4>
    40a6:	70 91 78 51 	lds	r23, 0x5178	; 0x805178 <RO_10000+0x5>
    40aa:	80 91 79 51 	lds	r24, 0x5179	; 0x805179 <RO_10000+0x6>
    40ae:	90 91 7a 51 	lds	r25, 0x517A	; 0x80517a <RO_10000+0x7>
    40b2:	0e 94 02 3c 	call	0x7804	; 0x7804 <__muldi3>
    40b6:	62 2e       	mov	r6, r18
    40b8:	73 2e       	mov	r7, r19
    40ba:	84 2e       	mov	r8, r20
    40bc:	95 2e       	mov	r9, r21
    40be:	6d 83       	std	Y+5, r22	; 0x05
    40c0:	79 83       	std	Y+1, r23	; 0x01
    40c2:	8a 83       	std	Y+2, r24	; 0x02
    40c4:	9b 83       	std	Y+3, r25	; 0x03
	RO += (RO_1000  * 1000);						// лЎңл“ңм…Җ RO  1000мқҳ мһҗлҰ¬
    40c6:	e0 91 9c 52 	lds	r30, 0x529C	; 0x80529c <RO_1000>
    40ca:	50 90 9d 52 	lds	r5, 0x529D	; 0x80529d <RO_1000+0x1>
    40ce:	40 90 9e 52 	lds	r4, 0x529E	; 0x80529e <RO_1000+0x2>
    40d2:	30 90 9f 52 	lds	r3, 0x529F	; 0x80529f <RO_1000+0x3>
    40d6:	20 90 a0 52 	lds	r2, 0x52A0	; 0x8052a0 <RO_1000+0x4>
    40da:	80 91 a1 52 	lds	r24, 0x52A1	; 0x8052a1 <RO_1000+0x5>
    40de:	8c 83       	std	Y+4, r24	; 0x04
    40e0:	b0 91 a2 52 	lds	r27, 0x52A2	; 0x8052a2 <RO_1000+0x6>
    40e4:	a0 91 a3 52 	lds	r26, 0x52A3	; 0x8052a3 <RO_1000+0x7>
    40e8:	2e 2f       	mov	r18, r30
    40ea:	35 2d       	mov	r19, r5
    40ec:	44 2d       	mov	r20, r4
    40ee:	53 2d       	mov	r21, r3
    40f0:	62 2d       	mov	r22, r2
    40f2:	78 2f       	mov	r23, r24
    40f4:	8b 2f       	mov	r24, r27
    40f6:	9a 2f       	mov	r25, r26
    40f8:	02 e0       	ldi	r16, 0x02	; 2
    40fa:	0e 94 ba 3c 	call	0x7974	; 0x7974 <__ashldi3>
    40fe:	a2 2e       	mov	r10, r18
    4100:	b3 2e       	mov	r11, r19
    4102:	c4 2e       	mov	r12, r20
    4104:	d5 2e       	mov	r13, r21
    4106:	e6 2e       	mov	r14, r22
    4108:	f7 2e       	mov	r15, r23
    410a:	f8 2f       	mov	r31, r24
    410c:	19 2f       	mov	r17, r25
    410e:	05 e0       	ldi	r16, 0x05	; 5
    4110:	0e 94 ba 3c 	call	0x7974	; 0x7974 <__ashldi3>
    4114:	0f 2f       	mov	r16, r31
    4116:	0e 94 e8 3c 	call	0x79d0	; 0x79d0 <__subdi3>
    411a:	ae 2e       	mov	r10, r30
    411c:	b5 2c       	mov	r11, r5
    411e:	c4 2c       	mov	r12, r4
    4120:	d3 2c       	mov	r13, r3
    4122:	e2 2c       	mov	r14, r2
    4124:	fc 80       	ldd	r15, Y+4	; 0x04
    4126:	0b 2f       	mov	r16, r27
    4128:	1a 2f       	mov	r17, r26
    412a:	0e 94 d3 3c 	call	0x79a6	; 0x79a6 <__adddi3>
    412e:	03 e0       	ldi	r16, 0x03	; 3
    4130:	0e 94 ba 3c 	call	0x7974	; 0x7974 <__ashldi3>
    4134:	a2 2e       	mov	r10, r18
    4136:	b3 2e       	mov	r11, r19
    4138:	c4 2e       	mov	r12, r20
    413a:	d5 2e       	mov	r13, r21
    413c:	e6 2e       	mov	r14, r22
    413e:	f7 2e       	mov	r15, r23
    4140:	08 2f       	mov	r16, r24
    4142:	19 2f       	mov	r17, r25
    4144:	26 2d       	mov	r18, r6
    4146:	37 2d       	mov	r19, r7
    4148:	48 2d       	mov	r20, r8
    414a:	59 2d       	mov	r21, r9
    414c:	6d 81       	ldd	r22, Y+5	; 0x05
    414e:	79 81       	ldd	r23, Y+1	; 0x01
    4150:	8a 81       	ldd	r24, Y+2	; 0x02
    4152:	9b 81       	ldd	r25, Y+3	; 0x03
    4154:	0e 94 d3 3c 	call	0x79a6	; 0x79a6 <__adddi3>
    4158:	22 2e       	mov	r2, r18
    415a:	33 2e       	mov	r3, r19
    415c:	44 2e       	mov	r4, r20
    415e:	55 2e       	mov	r5, r21
    4160:	66 2e       	mov	r6, r22
    4162:	77 2e       	mov	r7, r23
    4164:	89 83       	std	Y+1, r24	; 0x01
    4166:	9a 83       	std	Y+2, r25	; 0x02
	RO += (RO_100   * 100);							// лЎңл“ңм…Җ RO   100мқҳ мһҗлҰ¬
    4168:	20 91 8b 51 	lds	r18, 0x518B	; 0x80518b <RO_100>
    416c:	30 91 8c 51 	lds	r19, 0x518C	; 0x80518c <RO_100+0x1>
    4170:	40 91 8d 51 	lds	r20, 0x518D	; 0x80518d <RO_100+0x2>
    4174:	50 91 8e 51 	lds	r21, 0x518E	; 0x80518e <RO_100+0x3>
    4178:	60 91 8f 51 	lds	r22, 0x518F	; 0x80518f <RO_100+0x4>
    417c:	70 91 90 51 	lds	r23, 0x5190	; 0x805190 <RO_100+0x5>
    4180:	80 91 91 51 	lds	r24, 0x5191	; 0x805191 <RO_100+0x6>
    4184:	90 91 92 51 	lds	r25, 0x5192	; 0x805192 <RO_100+0x7>
    4188:	02 e0       	ldi	r16, 0x02	; 2
    418a:	0e 94 ba 3c 	call	0x7974	; 0x7974 <__ashldi3>
    418e:	82 2e       	mov	r8, r18
    4190:	93 2e       	mov	r9, r19
    4192:	4c 83       	std	Y+4, r20	; 0x04
    4194:	5b 83       	std	Y+3, r21	; 0x03
    4196:	b6 2f       	mov	r27, r22
    4198:	a7 2f       	mov	r26, r23
    419a:	f8 2f       	mov	r31, r24
    419c:	e9 2f       	mov	r30, r25
    419e:	0e 94 ba 3c 	call	0x7974	; 0x7974 <__ashldi3>
    41a2:	a2 2e       	mov	r10, r18
    41a4:	b3 2e       	mov	r11, r19
    41a6:	c4 2e       	mov	r12, r20
    41a8:	d5 2e       	mov	r13, r21
    41aa:	e6 2e       	mov	r14, r22
    41ac:	f7 2e       	mov	r15, r23
    41ae:	08 2f       	mov	r16, r24
    41b0:	19 2f       	mov	r17, r25
    41b2:	28 2d       	mov	r18, r8
    41b4:	39 2d       	mov	r19, r9
    41b6:	4c 81       	ldd	r20, Y+4	; 0x04
    41b8:	5b 81       	ldd	r21, Y+3	; 0x03
    41ba:	6b 2f       	mov	r22, r27
    41bc:	7a 2f       	mov	r23, r26
    41be:	8f 2f       	mov	r24, r31
    41c0:	9e 2f       	mov	r25, r30
    41c2:	0e 94 d3 3c 	call	0x79a6	; 0x79a6 <__adddi3>
    41c6:	82 2e       	mov	r8, r18
    41c8:	93 2e       	mov	r9, r19
    41ca:	4c 83       	std	Y+4, r20	; 0x04
    41cc:	5b 83       	std	Y+3, r21	; 0x03
    41ce:	b6 2f       	mov	r27, r22
    41d0:	a7 2f       	mov	r26, r23
    41d2:	f8 2f       	mov	r31, r24
    41d4:	e9 2f       	mov	r30, r25
    41d6:	02 e0       	ldi	r16, 0x02	; 2
    41d8:	0e 94 ba 3c 	call	0x7974	; 0x7974 <__ashldi3>
    41dc:	a2 2e       	mov	r10, r18
    41de:	b3 2e       	mov	r11, r19
    41e0:	c4 2e       	mov	r12, r20
    41e2:	d5 2e       	mov	r13, r21
    41e4:	e6 2e       	mov	r14, r22
    41e6:	f7 2e       	mov	r15, r23
    41e8:	08 2f       	mov	r16, r24
    41ea:	19 2f       	mov	r17, r25
    41ec:	28 2d       	mov	r18, r8
    41ee:	39 2d       	mov	r19, r9
    41f0:	4c 81       	ldd	r20, Y+4	; 0x04
    41f2:	5b 81       	ldd	r21, Y+3	; 0x03
    41f4:	6b 2f       	mov	r22, r27
    41f6:	7a 2f       	mov	r23, r26
    41f8:	8f 2f       	mov	r24, r31
    41fa:	9e 2f       	mov	r25, r30
    41fc:	0e 94 d3 3c 	call	0x79a6	; 0x79a6 <__adddi3>
    4200:	a2 2e       	mov	r10, r18
    4202:	b3 2e       	mov	r11, r19
    4204:	c4 2e       	mov	r12, r20
    4206:	d5 2e       	mov	r13, r21
    4208:	e6 2e       	mov	r14, r22
    420a:	f7 2e       	mov	r15, r23
    420c:	08 2f       	mov	r16, r24
    420e:	19 2f       	mov	r17, r25
    4210:	22 2d       	mov	r18, r2
    4212:	33 2d       	mov	r19, r3
    4214:	44 2d       	mov	r20, r4
    4216:	55 2d       	mov	r21, r5
    4218:	66 2d       	mov	r22, r6
    421a:	77 2d       	mov	r23, r7
    421c:	89 81       	ldd	r24, Y+1	; 0x01
    421e:	9a 81       	ldd	r25, Y+2	; 0x02
    4220:	0e 94 d3 3c 	call	0x79a6	; 0x79a6 <__adddi3>
    4224:	22 2e       	mov	r2, r18
    4226:	33 2e       	mov	r3, r19
    4228:	44 2e       	mov	r4, r20
    422a:	55 2e       	mov	r5, r21
    422c:	66 2e       	mov	r6, r22
    422e:	77 2e       	mov	r7, r23
    4230:	89 83       	std	Y+1, r24	; 0x01
    4232:	9a 83       	std	Y+2, r25	; 0x02
	RO += (RO_10    * 10);							// лЎңл“ңм…Җ RO    10мқҳ мһҗлҰ¬
    4234:	20 91 5a 51 	lds	r18, 0x515A	; 0x80515a <RO_10>
    4238:	30 91 5b 51 	lds	r19, 0x515B	; 0x80515b <RO_10+0x1>
    423c:	40 91 5c 51 	lds	r20, 0x515C	; 0x80515c <RO_10+0x2>
    4240:	50 91 5d 51 	lds	r21, 0x515D	; 0x80515d <RO_10+0x3>
    4244:	60 91 5e 51 	lds	r22, 0x515E	; 0x80515e <RO_10+0x4>
    4248:	70 91 5f 51 	lds	r23, 0x515F	; 0x80515f <RO_10+0x5>
    424c:	80 91 60 51 	lds	r24, 0x5160	; 0x805160 <RO_10+0x6>
    4250:	90 91 61 51 	lds	r25, 0x5161	; 0x805161 <RO_10+0x7>
    4254:	01 e0       	ldi	r16, 0x01	; 1
    4256:	0e 94 ba 3c 	call	0x7974	; 0x7974 <__ashldi3>
    425a:	82 2e       	mov	r8, r18
    425c:	93 2e       	mov	r9, r19
    425e:	4c 83       	std	Y+4, r20	; 0x04
    4260:	5b 83       	std	Y+3, r21	; 0x03
    4262:	b6 2f       	mov	r27, r22
    4264:	a7 2f       	mov	r26, r23
    4266:	f8 2f       	mov	r31, r24
    4268:	e9 2f       	mov	r30, r25
    426a:	02 e0       	ldi	r16, 0x02	; 2
    426c:	0e 94 ba 3c 	call	0x7974	; 0x7974 <__ashldi3>
    4270:	a2 2e       	mov	r10, r18
    4272:	b3 2e       	mov	r11, r19
    4274:	c4 2e       	mov	r12, r20
    4276:	d5 2e       	mov	r13, r21
    4278:	e6 2e       	mov	r14, r22
    427a:	f7 2e       	mov	r15, r23
    427c:	08 2f       	mov	r16, r24
    427e:	19 2f       	mov	r17, r25
    4280:	28 2d       	mov	r18, r8
    4282:	39 2d       	mov	r19, r9
    4284:	4c 81       	ldd	r20, Y+4	; 0x04
    4286:	5b 81       	ldd	r21, Y+3	; 0x03
    4288:	6b 2f       	mov	r22, r27
    428a:	7a 2f       	mov	r23, r26
    428c:	8f 2f       	mov	r24, r31
    428e:	9e 2f       	mov	r25, r30
    4290:	0e 94 d3 3c 	call	0x79a6	; 0x79a6 <__adddi3>
    4294:	a2 2e       	mov	r10, r18
    4296:	b3 2e       	mov	r11, r19
    4298:	c4 2e       	mov	r12, r20
    429a:	d5 2e       	mov	r13, r21
    429c:	e6 2e       	mov	r14, r22
    429e:	f7 2e       	mov	r15, r23
    42a0:	08 2f       	mov	r16, r24
    42a2:	19 2f       	mov	r17, r25
    42a4:	22 2d       	mov	r18, r2
    42a6:	33 2d       	mov	r19, r3
    42a8:	44 2d       	mov	r20, r4
    42aa:	55 2d       	mov	r21, r5
    42ac:	66 2d       	mov	r22, r6
    42ae:	77 2d       	mov	r23, r7
    42b0:	89 81       	ldd	r24, Y+1	; 0x01
    42b2:	9a 81       	ldd	r25, Y+2	; 0x02
    42b4:	0e 94 d3 3c 	call	0x79a6	; 0x79a6 <__adddi3>
	RO += (RO_1     * 1);							// лЎңл“ңм…Җ RO     1мқҳ мһҗлҰ¬
    42b8:	a0 90 99 51 	lds	r10, 0x5199	; 0x805199 <RO_1>
    42bc:	b0 90 9a 51 	lds	r11, 0x519A	; 0x80519a <RO_1+0x1>
    42c0:	c0 90 9b 51 	lds	r12, 0x519B	; 0x80519b <RO_1+0x2>
    42c4:	d0 90 9c 51 	lds	r13, 0x519C	; 0x80519c <RO_1+0x3>
    42c8:	e0 90 9d 51 	lds	r14, 0x519D	; 0x80519d <RO_1+0x4>
    42cc:	f0 90 9e 51 	lds	r15, 0x519E	; 0x80519e <RO_1+0x5>
    42d0:	00 91 9f 51 	lds	r16, 0x519F	; 0x80519f <RO_1+0x6>
    42d4:	10 91 a0 51 	lds	r17, 0x51A0	; 0x8051a0 <RO_1+0x7>
    42d8:	0e 94 d3 3c 	call	0x79a6	; 0x79a6 <__adddi3>
    42dc:	20 93 2d 51 	sts	0x512D, r18	; 0x80512d <RO>
    42e0:	30 93 2e 51 	sts	0x512E, r19	; 0x80512e <RO+0x1>
    42e4:	40 93 2f 51 	sts	0x512F, r20	; 0x80512f <RO+0x2>
    42e8:	50 93 30 51 	sts	0x5130, r21	; 0x805130 <RO+0x3>
    42ec:	60 93 31 51 	sts	0x5131, r22	; 0x805131 <RO+0x4>
    42f0:	70 93 32 51 	sts	0x5132, r23	; 0x805132 <RO+0x5>
    42f4:	80 93 33 51 	sts	0x5133, r24	; 0x805133 <RO+0x6>
    42f8:	90 93 34 51 	sts	0x5134, r25	; 0x805134 <RO+0x7>
//-------------------------------------------------------------------------------------------------
	ee_write_dword(Cell_RO_Addr, RO);					// лЎңл“ңм…Җ ROк°’ м ҖмһҘ
    42fc:	64 2f       	mov	r22, r20
    42fe:	75 2f       	mov	r23, r21
    4300:	42 2f       	mov	r20, r18
    4302:	53 2f       	mov	r21, r19
    4304:	8c e0       	ldi	r24, 0x0C	; 12
    4306:	90 e0       	ldi	r25, 0x00	; 0
    4308:	0e 94 69 13 	call	0x26d2	; 0x26d2 <ee_write_dword>

	SET.Menu = 1;								// Menu лӘЁл“ң мң м§Җ
    430c:	e8 e2       	ldi	r30, 0x28	; 40
    430e:	f1 e5       	ldi	r31, 0x51	; 81
    4310:	81 e0       	ldi	r24, 0x01	; 1
    4312:	80 83       	st	Z, r24
	SET.Select = 0;								// Select лІ„нҠј мҙҲкё°нҷ”
    4314:	11 82       	std	Z+1, r1	; 0x01
	SET.Blink = 0;								// мһҗлҰҝмҲҳ к№ңл°•мһ„ мҙҲкё°нҷ”
    4316:	13 82       	std	Z+3, r1	; 0x03
	KEY.Count = 0;								// м„ нғқ Key к°Җ лҲҢлҰ°нҡҹмҲҳ мҙҲкё°нҷ”
    4318:	10 92 67 51 	sts	0x5167, r1	; 0x805167 <KEY>
}
    431c:	25 96       	adiw	r28, 0x05	; 5
    431e:	cd bf       	out	0x3d, r28	; 61
    4320:	de bf       	out	0x3e, r29	; 62
    4322:	df 91       	pop	r29
    4324:	cf 91       	pop	r28
    4326:	1f 91       	pop	r17
    4328:	0f 91       	pop	r16
    432a:	ff 90       	pop	r15
    432c:	ef 90       	pop	r14
    432e:	df 90       	pop	r13
    4330:	cf 90       	pop	r12
    4332:	bf 90       	pop	r11
    4334:	af 90       	pop	r10
    4336:	9f 90       	pop	r9
    4338:	8f 90       	pop	r8
    433a:	7f 90       	pop	r7
    433c:	6f 90       	pop	r6
    433e:	5f 90       	pop	r5
    4340:	4f 90       	pop	r4
    4342:	3f 90       	pop	r3
    4344:	2f 90       	pop	r2
    4346:	08 95       	ret

00004348 <Interval_Set>:

//=================================================================================================
void Interval_Set(void)								// Interval м„Өм •
{
    4348:	2f 92       	push	r2
    434a:	3f 92       	push	r3
    434c:	4f 92       	push	r4
    434e:	5f 92       	push	r5
    4350:	6f 92       	push	r6
    4352:	7f 92       	push	r7
    4354:	8f 92       	push	r8
    4356:	9f 92       	push	r9
    4358:	af 92       	push	r10
    435a:	bf 92       	push	r11
    435c:	cf 92       	push	r12
    435e:	df 92       	push	r13
    4360:	ef 92       	push	r14
    4362:	ff 92       	push	r15
    4364:	0f 93       	push	r16
    4366:	1f 93       	push	r17
    4368:	cf 93       	push	r28
    436a:	df 93       	push	r29
    436c:	cd b7       	in	r28, 0x3d	; 61
    436e:	de b7       	in	r29, 0x3e	; 62
    4370:	60 97       	sbiw	r28, 0x10	; 16
    4372:	cd bf       	out	0x3d, r28	; 61
    4374:	de bf       	out	0x3e, r29	; 62
	uint32_t Value = 0;							// Value ліҖмҲҳ мҙҲкё°нҷ”
	uint32_t Old_Value;							// лЎңл“ңм…Җ Old_Value к°’

	RO = ee_read_dword(Cell_RO_Addr);					// лЎңл“ңм…Җ RO к°’ л¶Ҳлҹ¬мҳӨкё°
    4376:	8c e0       	ldi	r24, 0x0C	; 12
    4378:	90 e0       	ldi	r25, 0x00	; 0
    437a:	0e 94 1c 13 	call	0x2638	; 0x2638 <ee_read_dword>
    437e:	1b 01       	movw	r2, r22
    4380:	2c 01       	movw	r4, r24
    4382:	60 93 2d 51 	sts	0x512D, r22	; 0x80512d <RO>
    4386:	30 92 2e 51 	sts	0x512E, r3	; 0x80512e <RO+0x1>
    438a:	40 92 2f 51 	sts	0x512F, r4	; 0x80512f <RO+0x2>
    438e:	50 92 30 51 	sts	0x5130, r5	; 0x805130 <RO+0x3>
    4392:	10 92 31 51 	sts	0x5131, r1	; 0x805131 <RO+0x4>
    4396:	10 92 32 51 	sts	0x5132, r1	; 0x805132 <RO+0x5>
    439a:	10 92 33 51 	sts	0x5133, r1	; 0x805133 <RO+0x6>
    439e:	10 92 34 51 	sts	0x5134, r1	; 0x805134 <RO+0x7>
	RO_10000 = RO / 10000;							// лЎңл“ңм…Җ RO 10000мқҳ мһҗлҰ¬
    43a2:	68 94       	set
    43a4:	aa 24       	eor	r10, r10
    43a6:	a4 f8       	bld	r10, 4
    43a8:	0f 2e       	mov	r0, r31
    43aa:	f7 e2       	ldi	r31, 0x27	; 39
    43ac:	bf 2e       	mov	r11, r31
    43ae:	f0 2d       	mov	r31, r0
    43b0:	c1 2c       	mov	r12, r1
    43b2:	d1 2c       	mov	r13, r1
    43b4:	e1 2c       	mov	r14, r1
    43b6:	f1 2c       	mov	r15, r1
    43b8:	00 e0       	ldi	r16, 0x00	; 0
    43ba:	10 e0       	ldi	r17, 0x00	; 0
    43bc:	26 2f       	mov	r18, r22
    43be:	33 2d       	mov	r19, r3
    43c0:	44 2d       	mov	r20, r4
    43c2:	55 2d       	mov	r21, r5
    43c4:	60 e0       	ldi	r22, 0x00	; 0
    43c6:	70 e0       	ldi	r23, 0x00	; 0
    43c8:	80 e0       	ldi	r24, 0x00	; 0
    43ca:	90 e0       	ldi	r25, 0x00	; 0
    43cc:	0e 94 5d 3c 	call	0x78ba	; 0x78ba <__udivdi3>
    43d0:	20 93 73 51 	sts	0x5173, r18	; 0x805173 <RO_10000>
    43d4:	30 93 74 51 	sts	0x5174, r19	; 0x805174 <RO_10000+0x1>
    43d8:	40 93 75 51 	sts	0x5175, r20	; 0x805175 <RO_10000+0x2>
    43dc:	50 93 76 51 	sts	0x5176, r21	; 0x805176 <RO_10000+0x3>
    43e0:	60 93 77 51 	sts	0x5177, r22	; 0x805177 <RO_10000+0x4>
    43e4:	70 93 78 51 	sts	0x5178, r23	; 0x805178 <RO_10000+0x5>
    43e8:	80 93 79 51 	sts	0x5179, r24	; 0x805179 <RO_10000+0x6>
    43ec:	90 93 7a 51 	sts	0x517A, r25	; 0x80517a <RO_10000+0x7>
	RO_1000  = RO % 10000 / 1000;						// лЎңл“ңм…Җ RO  1000мқҳ мһҗлҰ¬
    43f0:	22 2d       	mov	r18, r2
    43f2:	33 2d       	mov	r19, r3
    43f4:	44 2d       	mov	r20, r4
    43f6:	55 2d       	mov	r21, r5
    43f8:	60 e0       	ldi	r22, 0x00	; 0
    43fa:	70 e0       	ldi	r23, 0x00	; 0
    43fc:	80 e0       	ldi	r24, 0x00	; 0
    43fe:	90 e0       	ldi	r25, 0x00	; 0
    4400:	0e 94 5b 3c 	call	0x78b6	; 0x78b6 <__umoddi3>
    4404:	0f 2e       	mov	r0, r31
    4406:	f8 ee       	ldi	r31, 0xE8	; 232
    4408:	af 2e       	mov	r10, r31
    440a:	f0 2d       	mov	r31, r0
    440c:	0f 2e       	mov	r0, r31
    440e:	f3 e0       	ldi	r31, 0x03	; 3
    4410:	bf 2e       	mov	r11, r31
    4412:	f0 2d       	mov	r31, r0
    4414:	0e 94 5d 3c 	call	0x78ba	; 0x78ba <__udivdi3>
    4418:	20 93 9c 52 	sts	0x529C, r18	; 0x80529c <RO_1000>
    441c:	30 93 9d 52 	sts	0x529D, r19	; 0x80529d <RO_1000+0x1>
    4420:	40 93 9e 52 	sts	0x529E, r20	; 0x80529e <RO_1000+0x2>
    4424:	50 93 9f 52 	sts	0x529F, r21	; 0x80529f <RO_1000+0x3>
    4428:	60 93 a0 52 	sts	0x52A0, r22	; 0x8052a0 <RO_1000+0x4>
    442c:	70 93 a1 52 	sts	0x52A1, r23	; 0x8052a1 <RO_1000+0x5>
    4430:	80 93 a2 52 	sts	0x52A2, r24	; 0x8052a2 <RO_1000+0x6>
    4434:	90 93 a3 52 	sts	0x52A3, r25	; 0x8052a3 <RO_1000+0x7>
	RO_100   = RO % 1000 / 100;						// лЎңл“ңм…Җ RO   100мқҳ мһҗлҰ¬
    4438:	22 2d       	mov	r18, r2
    443a:	33 2d       	mov	r19, r3
    443c:	44 2d       	mov	r20, r4
    443e:	55 2d       	mov	r21, r5
    4440:	60 e0       	ldi	r22, 0x00	; 0
    4442:	70 e0       	ldi	r23, 0x00	; 0
    4444:	80 e0       	ldi	r24, 0x00	; 0
    4446:	90 e0       	ldi	r25, 0x00	; 0
    4448:	0e 94 5b 3c 	call	0x78b6	; 0x78b6 <__umoddi3>
    444c:	0f 2e       	mov	r0, r31
    444e:	f4 e6       	ldi	r31, 0x64	; 100
    4450:	af 2e       	mov	r10, r31
    4452:	f0 2d       	mov	r31, r0
    4454:	b1 2c       	mov	r11, r1
    4456:	0e 94 5d 3c 	call	0x78ba	; 0x78ba <__udivdi3>
    445a:	20 93 8b 51 	sts	0x518B, r18	; 0x80518b <RO_100>
    445e:	30 93 8c 51 	sts	0x518C, r19	; 0x80518c <RO_100+0x1>
    4462:	40 93 8d 51 	sts	0x518D, r20	; 0x80518d <RO_100+0x2>
    4466:	50 93 8e 51 	sts	0x518E, r21	; 0x80518e <RO_100+0x3>
    446a:	60 93 8f 51 	sts	0x518F, r22	; 0x80518f <RO_100+0x4>
    446e:	70 93 90 51 	sts	0x5190, r23	; 0x805190 <RO_100+0x5>
    4472:	80 93 91 51 	sts	0x5191, r24	; 0x805191 <RO_100+0x6>
    4476:	90 93 92 51 	sts	0x5192, r25	; 0x805192 <RO_100+0x7>
	RO_10    = RO % 100 / 10;						// лЎңл“ңм…Җ RO    10мқҳ мһҗлҰ¬
    447a:	22 2d       	mov	r18, r2
    447c:	33 2d       	mov	r19, r3
    447e:	44 2d       	mov	r20, r4
    4480:	55 2d       	mov	r21, r5
    4482:	60 e0       	ldi	r22, 0x00	; 0
    4484:	70 e0       	ldi	r23, 0x00	; 0
    4486:	80 e0       	ldi	r24, 0x00	; 0
    4488:	90 e0       	ldi	r25, 0x00	; 0
    448a:	0e 94 5b 3c 	call	0x78b6	; 0x78b6 <__umoddi3>
    448e:	0f 2e       	mov	r0, r31
    4490:	fa e0       	ldi	r31, 0x0A	; 10
    4492:	af 2e       	mov	r10, r31
    4494:	f0 2d       	mov	r31, r0
    4496:	0e 94 5d 3c 	call	0x78ba	; 0x78ba <__udivdi3>
    449a:	20 93 5a 51 	sts	0x515A, r18	; 0x80515a <RO_10>
    449e:	30 93 5b 51 	sts	0x515B, r19	; 0x80515b <RO_10+0x1>
    44a2:	40 93 5c 51 	sts	0x515C, r20	; 0x80515c <RO_10+0x2>
    44a6:	50 93 5d 51 	sts	0x515D, r21	; 0x80515d <RO_10+0x3>
    44aa:	60 93 5e 51 	sts	0x515E, r22	; 0x80515e <RO_10+0x4>
    44ae:	70 93 5f 51 	sts	0x515F, r23	; 0x80515f <RO_10+0x5>
    44b2:	80 93 60 51 	sts	0x5160, r24	; 0x805160 <RO_10+0x6>
    44b6:	90 93 61 51 	sts	0x5161, r25	; 0x805161 <RO_10+0x7>
	RO_1     = RO % 10;							// лЎңл“ңм…Җ RO     1мқҳ мһҗлҰ¬
    44ba:	22 2d       	mov	r18, r2
    44bc:	33 2d       	mov	r19, r3
    44be:	44 2d       	mov	r20, r4
    44c0:	55 2d       	mov	r21, r5
    44c2:	60 e0       	ldi	r22, 0x00	; 0
    44c4:	70 e0       	ldi	r23, 0x00	; 0
    44c6:	80 e0       	ldi	r24, 0x00	; 0
    44c8:	90 e0       	ldi	r25, 0x00	; 0
    44ca:	0e 94 5b 3c 	call	0x78b6	; 0x78b6 <__umoddi3>
    44ce:	20 93 99 51 	sts	0x5199, r18	; 0x805199 <RO_1>
    44d2:	30 93 9a 51 	sts	0x519A, r19	; 0x80519a <RO_1+0x1>
    44d6:	40 93 9b 51 	sts	0x519B, r20	; 0x80519b <RO_1+0x2>
    44da:	50 93 9c 51 	sts	0x519C, r21	; 0x80519c <RO_1+0x3>
    44de:	60 93 9d 51 	sts	0x519D, r22	; 0x80519d <RO_1+0x4>
    44e2:	70 93 9e 51 	sts	0x519E, r23	; 0x80519e <RO_1+0x5>
    44e6:	80 93 9f 51 	sts	0x519F, r24	; 0x80519f <RO_1+0x6>
    44ea:	90 93 a0 51 	sts	0x51A0, r25	; 0x8051a0 <RO_1+0x7>

	while(SET.Menu && SET.Select)						// л©”лүҙк°Җ 1 мқҙл©ҙ л°ҳліө
    44ee:	ba c1       	rjmp	.+884    	; 0x4864 <Interval_Set+0x51c>
	{
		Timer.RegExitTimer = 0;						// л¬ҙкІҢмқҳ м—°мҶҚ мёЎм •мқ„ мң„н•ҙ RegExitTimer мҙҲкё°нҷ” 
    44f0:	10 92 4e 51 	sts	0x514E, r1	; 0x80514e <Timer+0x1>
    44f4:	10 92 4f 51 	sts	0x514F, r1	; 0x80514f <Timer+0x2>
		Value_Count = 0;
    44f8:	10 92 4c 51 	sts	0x514C, r1	; 0x80514c <Value_Count>
		Old_Value = CELL.Old_Value;
    44fc:	c0 90 3f 51 	lds	r12, 0x513F	; 0x80513f <CELL+0x9>
    4500:	d0 90 40 51 	lds	r13, 0x5140	; 0x805140 <CELL+0xa>
    4504:	e0 90 41 51 	lds	r14, 0x5141	; 0x805141 <CELL+0xb>
    4508:	f0 90 42 51 	lds	r15, 0x5142	; 0x805142 <CELL+0xc>
    450c:	cd 82       	std	Y+5, r12	; 0x05
    450e:	de 82       	std	Y+6, r13	; 0x06
    4510:	ef 82       	std	Y+7, r14	; 0x07
    4512:	f8 86       	std	Y+8, r15	; 0x08
    4514:	cb 86       	std	Y+11, r12	; 0x0b
    4516:	dc 86       	std	Y+12, r13	; 0x0c
    4518:	ed 86       	std	Y+13, r14	; 0x0d
    451a:	fe 86       	std	Y+14, r15	; 0x0e
		Cell_RO = RO;
    451c:	20 91 2d 51 	lds	r18, 0x512D	; 0x80512d <RO>
    4520:	30 91 2e 51 	lds	r19, 0x512E	; 0x80512e <RO+0x1>
    4524:	40 91 2f 51 	lds	r20, 0x512F	; 0x80512f <RO+0x2>
    4528:	50 91 30 51 	lds	r21, 0x5130	; 0x805130 <RO+0x3>
    452c:	60 91 31 51 	lds	r22, 0x5131	; 0x805131 <RO+0x4>
    4530:	70 91 32 51 	lds	r23, 0x5132	; 0x805132 <RO+0x5>
    4534:	80 91 33 51 	lds	r24, 0x5133	; 0x805133 <RO+0x6>
    4538:	90 91 34 51 	lds	r25, 0x5134	; 0x805134 <RO+0x7>
    453c:	0e 94 c5 36 	call	0x6d8a	; 0x6d8a <__floatundisf>
    4540:	60 93 6f 51 	sts	0x516F, r22	; 0x80516f <Cell_RO>
    4544:	70 93 70 51 	sts	0x5170, r23	; 0x805170 <Cell_RO+0x1>
    4548:	80 93 71 51 	sts	0x5171, r24	; 0x805171 <Cell_RO+0x2>
    454c:	90 93 72 51 	sts	0x5172, r25	; 0x805172 <Cell_RO+0x3>
	#else
		//round up by default
		__ticks_dc = (uint32_t)(ceil(fabs(__tmp)));
	#endif

	__builtin_avr_delay_cycles(__ticks_dc);
    4550:	21 e3       	ldi	r18, 0x31	; 49
    4552:	2a 95       	dec	r18
    4554:	f1 f7       	brne	.-4      	; 0x4552 <Interval_Set+0x20a>
    4556:	00 00       	nop
		_delay_us(10);
		Proportion_Set();						// л°°мңЁ кі„мӮ°
    4558:	0e 94 fe 0d 	call	0x1bfc	; 0x1bfc <Proportion_Set>
    455c:	31 e3       	ldi	r19, 0x31	; 49
    455e:	3a 95       	dec	r19
    4560:	f1 f7       	brne	.-4      	; 0x455e <Interval_Set+0x216>
    4562:	00 00       	nop
		_delay_us(10);
		Value = Read_Load_Cell();					// лЎңл“ңм…Җ мёЎм •к°’
    4564:	0e 94 ee 19 	call	0x33dc	; 0x33dc <Read_Load_Cell>
    4568:	89 87       	std	Y+9, r24	; 0x09
    456a:	9a 87       	std	Y+10, r25	; 0x0a
    456c:	2c 01       	movw	r4, r24
    456e:	61 2c       	mov	r6, r1
    4570:	71 2c       	mov	r7, r1

		if(KEY.Buff)							// Key мһ…л Ҙмқҙ мһҲмңјл©ҙ
    4572:	80 91 68 51 	lds	r24, 0x5168	; 0x805168 <KEY+0x1>
    4576:	88 23       	and	r24, r24
    4578:	09 f4       	brne	.+2      	; 0x457c <Interval_Set+0x234>
    457a:	00 c1       	rjmp	.+512    	; 0x477c <Interval_Set+0x434>
		{
			if     (KEY.Key == 1) {RO = RO + 5; KEY.Key = 0;}	// м—…  лІ„нҠј мқҙл©ҙ RO к°’ 1мқҳ мһҗлҰ¬ мҰқк°Җ
    457c:	80 91 69 51 	lds	r24, 0x5169	; 0x805169 <KEY+0x2>
    4580:	81 30       	cpi	r24, 0x01	; 1
    4582:	31 f5       	brne	.+76     	; 0x45d0 <Interval_Set+0x288>
    4584:	20 91 2d 51 	lds	r18, 0x512D	; 0x80512d <RO>
    4588:	30 91 2e 51 	lds	r19, 0x512E	; 0x80512e <RO+0x1>
    458c:	40 91 2f 51 	lds	r20, 0x512F	; 0x80512f <RO+0x2>
    4590:	50 91 30 51 	lds	r21, 0x5130	; 0x805130 <RO+0x3>
    4594:	60 91 31 51 	lds	r22, 0x5131	; 0x805131 <RO+0x4>
    4598:	70 91 32 51 	lds	r23, 0x5132	; 0x805132 <RO+0x5>
    459c:	80 91 33 51 	lds	r24, 0x5133	; 0x805133 <RO+0x6>
    45a0:	90 91 34 51 	lds	r25, 0x5134	; 0x805134 <RO+0x7>
    45a4:	a5 e0       	ldi	r26, 0x05	; 5
    45a6:	0e 94 dc 3c 	call	0x79b8	; 0x79b8 <__adddi3_s8>
    45aa:	20 93 2d 51 	sts	0x512D, r18	; 0x80512d <RO>
    45ae:	30 93 2e 51 	sts	0x512E, r19	; 0x80512e <RO+0x1>
    45b2:	40 93 2f 51 	sts	0x512F, r20	; 0x80512f <RO+0x2>
    45b6:	50 93 30 51 	sts	0x5130, r21	; 0x805130 <RO+0x3>
    45ba:	60 93 31 51 	sts	0x5131, r22	; 0x805131 <RO+0x4>
    45be:	70 93 32 51 	sts	0x5132, r23	; 0x805132 <RO+0x5>
    45c2:	80 93 33 51 	sts	0x5133, r24	; 0x805133 <RO+0x6>
    45c6:	90 93 34 51 	sts	0x5134, r25	; 0x805134 <RO+0x7>
    45ca:	10 92 69 51 	sts	0x5169, r1	; 0x805169 <KEY+0x2>
    45ce:	29 c0       	rjmp	.+82     	; 0x4622 <Interval_Set+0x2da>
			else if(KEY.Key == 3) {RO = RO - 5; KEY.Key = 0;}	// лӢӨмҡҙлІ„нҠј мқҙл©ҙ RO к°’ 1мқҳ мһҗлҰ¬ к°җмҶҢ
    45d0:	80 91 69 51 	lds	r24, 0x5169	; 0x805169 <KEY+0x2>
    45d4:	83 30       	cpi	r24, 0x03	; 3
    45d6:	29 f5       	brne	.+74     	; 0x4622 <Interval_Set+0x2da>
    45d8:	20 91 2d 51 	lds	r18, 0x512D	; 0x80512d <RO>
    45dc:	30 91 2e 51 	lds	r19, 0x512E	; 0x80512e <RO+0x1>
    45e0:	40 91 2f 51 	lds	r20, 0x512F	; 0x80512f <RO+0x2>
    45e4:	50 91 30 51 	lds	r21, 0x5130	; 0x805130 <RO+0x3>
    45e8:	60 91 31 51 	lds	r22, 0x5131	; 0x805131 <RO+0x4>
    45ec:	70 91 32 51 	lds	r23, 0x5132	; 0x805132 <RO+0x5>
    45f0:	80 91 33 51 	lds	r24, 0x5133	; 0x805133 <RO+0x6>
    45f4:	90 91 34 51 	lds	r25, 0x5134	; 0x805134 <RO+0x7>
    45f8:	ab ef       	ldi	r26, 0xFB	; 251
    45fa:	0e 94 dc 3c 	call	0x79b8	; 0x79b8 <__adddi3_s8>
    45fe:	20 93 2d 51 	sts	0x512D, r18	; 0x80512d <RO>
    4602:	30 93 2e 51 	sts	0x512E, r19	; 0x80512e <RO+0x1>
    4606:	40 93 2f 51 	sts	0x512F, r20	; 0x80512f <RO+0x2>
    460a:	50 93 30 51 	sts	0x5130, r21	; 0x805130 <RO+0x3>
    460e:	60 93 31 51 	sts	0x5131, r22	; 0x805131 <RO+0x4>
    4612:	70 93 32 51 	sts	0x5132, r23	; 0x805132 <RO+0x5>
    4616:	80 93 33 51 	sts	0x5133, r24	; 0x805133 <RO+0x6>
    461a:	90 93 34 51 	sts	0x5134, r25	; 0x805134 <RO+0x7>
    461e:	10 92 69 51 	sts	0x5169, r1	; 0x805169 <KEY+0x2>

			DIGIT[1][3] = fnd_tbl[RO / 10000];			// лЎңл“ңм…Җ RO 10000мқҳ мһҗлҰ¬
    4622:	40 91 2d 51 	lds	r20, 0x512D	; 0x80512d <RO>
    4626:	49 83       	std	Y+1, r20	; 0x01
    4628:	50 91 2e 51 	lds	r21, 0x512E	; 0x80512e <RO+0x1>
    462c:	5a 83       	std	Y+2, r21	; 0x02
    462e:	60 91 2f 51 	lds	r22, 0x512F	; 0x80512f <RO+0x2>
    4632:	6b 83       	std	Y+3, r22	; 0x03
    4634:	70 91 30 51 	lds	r23, 0x5130	; 0x805130 <RO+0x3>
    4638:	7c 83       	std	Y+4, r23	; 0x04
    463a:	80 90 31 51 	lds	r8, 0x5131	; 0x805131 <RO+0x4>
    463e:	90 90 32 51 	lds	r9, 0x5132	; 0x805132 <RO+0x5>
    4642:	80 91 33 51 	lds	r24, 0x5133	; 0x805133 <RO+0x6>
    4646:	88 8b       	std	Y+16, r24	; 0x10
    4648:	90 91 34 51 	lds	r25, 0x5134	; 0x805134 <RO+0x7>
    464c:	9f 87       	std	Y+15, r25	; 0x0f
    464e:	68 94       	set
    4650:	aa 24       	eor	r10, r10
    4652:	a4 f8       	bld	r10, 4
    4654:	0f 2e       	mov	r0, r31
    4656:	f7 e2       	ldi	r31, 0x27	; 39
    4658:	bf 2e       	mov	r11, r31
    465a:	f0 2d       	mov	r31, r0
    465c:	c1 2c       	mov	r12, r1
    465e:	d1 2c       	mov	r13, r1
    4660:	e1 2c       	mov	r14, r1
    4662:	f1 2c       	mov	r15, r1
    4664:	00 e0       	ldi	r16, 0x00	; 0
    4666:	10 e0       	ldi	r17, 0x00	; 0
    4668:	24 2f       	mov	r18, r20
    466a:	35 2f       	mov	r19, r21
    466c:	46 2f       	mov	r20, r22
    466e:	57 2f       	mov	r21, r23
    4670:	68 2d       	mov	r22, r8
    4672:	79 2d       	mov	r23, r9
    4674:	0e 94 5d 3c 	call	0x78ba	; 0x78ba <__udivdi3>
    4678:	02 2f       	mov	r16, r18
    467a:	13 2f       	mov	r17, r19
    467c:	f8 01       	movw	r30, r16
    467e:	e5 5a       	subi	r30, 0xA5	; 165
    4680:	fe 4b       	sbci	r31, 0xBE	; 190
    4682:	80 81       	ld	r24, Z
    4684:	0f 2e       	mov	r0, r31
    4686:	f1 e9       	ldi	r31, 0x91	; 145
    4688:	2f 2e       	mov	r2, r31
    468a:	f1 e4       	ldi	r31, 0x41	; 65
    468c:	3f 2e       	mov	r3, r31
    468e:	f0 2d       	mov	r31, r0
    4690:	d1 01       	movw	r26, r2
    4692:	17 96       	adiw	r26, 0x07	; 7
    4694:	8c 93       	st	X, r24
			DIGIT[1][2] = fnd_tbl[RO % 10000 / 1000];		// лЎңл“ңм…Җ RO  1000мқҳ мһҗлҰ¬
    4696:	e1 2c       	mov	r14, r1
    4698:	f1 2c       	mov	r15, r1
    469a:	00 e0       	ldi	r16, 0x00	; 0
    469c:	10 e0       	ldi	r17, 0x00	; 0
    469e:	29 81       	ldd	r18, Y+1	; 0x01
    46a0:	3a 81       	ldd	r19, Y+2	; 0x02
    46a2:	4b 81       	ldd	r20, Y+3	; 0x03
    46a4:	5c 81       	ldd	r21, Y+4	; 0x04
    46a6:	68 2d       	mov	r22, r8
    46a8:	79 2d       	mov	r23, r9
    46aa:	88 89       	ldd	r24, Y+16	; 0x10
    46ac:	9f 85       	ldd	r25, Y+15	; 0x0f
    46ae:	0e 94 5b 3c 	call	0x78b6	; 0x78b6 <__umoddi3>
    46b2:	0f 2e       	mov	r0, r31
    46b4:	f8 ee       	ldi	r31, 0xE8	; 232
    46b6:	af 2e       	mov	r10, r31
    46b8:	f0 2d       	mov	r31, r0
    46ba:	0f 2e       	mov	r0, r31
    46bc:	f3 e0       	ldi	r31, 0x03	; 3
    46be:	bf 2e       	mov	r11, r31
    46c0:	f0 2d       	mov	r31, r0
    46c2:	0e 94 5d 3c 	call	0x78ba	; 0x78ba <__udivdi3>
    46c6:	02 2f       	mov	r16, r18
    46c8:	13 2f       	mov	r17, r19
    46ca:	f8 01       	movw	r30, r16
    46cc:	e5 5a       	subi	r30, 0xA5	; 165
    46ce:	fe 4b       	sbci	r31, 0xBE	; 190
    46d0:	80 81       	ld	r24, Z
    46d2:	f1 01       	movw	r30, r2
    46d4:	86 83       	std	Z+6, r24	; 0x06
			DIGIT[1][1] = fnd_tbl[RO % 1000 / 100 ];		// лЎңл“ңм…Җ RO   100мқҳ мһҗлҰ¬
    46d6:	e1 2c       	mov	r14, r1
    46d8:	f1 2c       	mov	r15, r1
    46da:	00 e0       	ldi	r16, 0x00	; 0
    46dc:	10 e0       	ldi	r17, 0x00	; 0
    46de:	29 81       	ldd	r18, Y+1	; 0x01
    46e0:	3a 81       	ldd	r19, Y+2	; 0x02
    46e2:	4b 81       	ldd	r20, Y+3	; 0x03
    46e4:	5c 81       	ldd	r21, Y+4	; 0x04
    46e6:	68 2d       	mov	r22, r8
    46e8:	79 2d       	mov	r23, r9
    46ea:	88 89       	ldd	r24, Y+16	; 0x10
    46ec:	9f 85       	ldd	r25, Y+15	; 0x0f
    46ee:	0e 94 5b 3c 	call	0x78b6	; 0x78b6 <__umoddi3>
    46f2:	0f 2e       	mov	r0, r31
    46f4:	f4 e6       	ldi	r31, 0x64	; 100
    46f6:	af 2e       	mov	r10, r31
    46f8:	f0 2d       	mov	r31, r0
    46fa:	b1 2c       	mov	r11, r1
    46fc:	0e 94 5d 3c 	call	0x78ba	; 0x78ba <__udivdi3>
    4700:	02 2f       	mov	r16, r18
    4702:	13 2f       	mov	r17, r19
    4704:	f8 01       	movw	r30, r16
    4706:	e5 5a       	subi	r30, 0xA5	; 165
    4708:	fe 4b       	sbci	r31, 0xBE	; 190
    470a:	80 81       	ld	r24, Z
    470c:	d1 01       	movw	r26, r2
    470e:	15 96       	adiw	r26, 0x05	; 5
    4710:	8c 93       	st	X, r24
			DIGIT[1][0] = fnd_tbl[RO % 100 / 10];			// лЎңл“ңм…Җ RO    10мқҳ мһҗлҰ¬
    4712:	e1 2c       	mov	r14, r1
    4714:	f1 2c       	mov	r15, r1
    4716:	00 e0       	ldi	r16, 0x00	; 0
    4718:	10 e0       	ldi	r17, 0x00	; 0
    471a:	29 81       	ldd	r18, Y+1	; 0x01
    471c:	3a 81       	ldd	r19, Y+2	; 0x02
    471e:	4b 81       	ldd	r20, Y+3	; 0x03
    4720:	5c 81       	ldd	r21, Y+4	; 0x04
    4722:	68 2d       	mov	r22, r8
    4724:	79 2d       	mov	r23, r9
    4726:	88 89       	ldd	r24, Y+16	; 0x10
    4728:	9f 85       	ldd	r25, Y+15	; 0x0f
    472a:	0e 94 5b 3c 	call	0x78b6	; 0x78b6 <__umoddi3>
    472e:	0f 2e       	mov	r0, r31
    4730:	fa e0       	ldi	r31, 0x0A	; 10
    4732:	af 2e       	mov	r10, r31
    4734:	f0 2d       	mov	r31, r0
    4736:	0e 94 5d 3c 	call	0x78ba	; 0x78ba <__udivdi3>
    473a:	02 2f       	mov	r16, r18
    473c:	13 2f       	mov	r17, r19
    473e:	f8 01       	movw	r30, r16
    4740:	e5 5a       	subi	r30, 0xA5	; 165
    4742:	fe 4b       	sbci	r31, 0xBE	; 190
    4744:	80 81       	ld	r24, Z
    4746:	f1 01       	movw	r30, r2
    4748:	84 83       	std	Z+4, r24	; 0x04

			DIGIT[2][3] = fnd_tbl[RO % 10];				// лЎңл“ңм…Җ RO    1мқҳ мһҗлҰ¬
    474a:	e1 2c       	mov	r14, r1
    474c:	f1 2c       	mov	r15, r1
    474e:	00 e0       	ldi	r16, 0x00	; 0
    4750:	10 e0       	ldi	r17, 0x00	; 0
    4752:	29 81       	ldd	r18, Y+1	; 0x01
    4754:	3a 81       	ldd	r19, Y+2	; 0x02
    4756:	4b 81       	ldd	r20, Y+3	; 0x03
    4758:	5c 81       	ldd	r21, Y+4	; 0x04
    475a:	68 2d       	mov	r22, r8
    475c:	79 2d       	mov	r23, r9
    475e:	88 89       	ldd	r24, Y+16	; 0x10
    4760:	9f 85       	ldd	r25, Y+15	; 0x0f
    4762:	0e 94 5b 3c 	call	0x78b6	; 0x78b6 <__umoddi3>
    4766:	49 83       	std	Y+1, r20	; 0x01
    4768:	5a 83       	std	Y+2, r21	; 0x02
    476a:	02 2f       	mov	r16, r18
    476c:	13 2f       	mov	r17, r19
    476e:	f8 01       	movw	r30, r16
    4770:	e5 5a       	subi	r30, 0xA5	; 165
    4772:	fe 4b       	sbci	r31, 0xBE	; 190
    4774:	80 81       	ld	r24, Z
    4776:	d1 01       	movw	r26, r2
    4778:	1b 96       	adiw	r26, 0x0b	; 11
    477a:	8c 93       	st	X, r24
		}

//-------------------------------------------------------------------------------------------------
		if(Value)							// мёЎм •мІҙмӨ‘мқҙ мһҲмңјл©ҙ
    477c:	41 14       	cp	r4, r1
    477e:	51 04       	cpc	r5, r1
    4780:	61 04       	cpc	r6, r1
    4782:	71 04       	cpc	r7, r1
    4784:	09 f4       	brne	.+2      	; 0x4788 <Interval_Set+0x440>
    4786:	49 c0       	rjmp	.+146    	; 0x481a <Interval_Set+0x4d2>
		{
			if((Old_Value <= Value + Admit_Weight) & (Old_Value >= Value - Admit_Weight))
    4788:	93 01       	movw	r18, r6
    478a:	82 01       	movw	r16, r4
    478c:	05 50       	subi	r16, 0x05	; 5
    478e:	11 09       	sbc	r17, r1
    4790:	21 09       	sbc	r18, r1
    4792:	31 09       	sbc	r19, r1
    4794:	91 e0       	ldi	r25, 0x01	; 1
    4796:	b3 01       	movw	r22, r6
    4798:	a2 01       	movw	r20, r4
    479a:	4b 5f       	subi	r20, 0xFB	; 251
    479c:	5f 4f       	sbci	r21, 0xFF	; 255
    479e:	6f 4f       	sbci	r22, 0xFF	; 255
    47a0:	7f 4f       	sbci	r23, 0xFF	; 255
    47a2:	cb 84       	ldd	r12, Y+11	; 0x0b
    47a4:	dc 84       	ldd	r13, Y+12	; 0x0c
    47a6:	ed 84       	ldd	r14, Y+13	; 0x0d
    47a8:	fe 84       	ldd	r15, Y+14	; 0x0e
    47aa:	4c 15       	cp	r20, r12
    47ac:	5d 05       	cpc	r21, r13
    47ae:	6e 05       	cpc	r22, r14
    47b0:	7f 05       	cpc	r23, r15
    47b2:	08 f4       	brcc	.+2      	; 0x47b6 <Interval_Set+0x46e>
    47b4:	90 e0       	ldi	r25, 0x00	; 0
    47b6:	81 e0       	ldi	r24, 0x01	; 1
    47b8:	4b 85       	ldd	r20, Y+11	; 0x0b
    47ba:	5c 85       	ldd	r21, Y+12	; 0x0c
    47bc:	6d 85       	ldd	r22, Y+13	; 0x0d
    47be:	7e 85       	ldd	r23, Y+14	; 0x0e
    47c0:	40 17       	cp	r20, r16
    47c2:	51 07       	cpc	r21, r17
    47c4:	62 07       	cpc	r22, r18
    47c6:	73 07       	cpc	r23, r19
    47c8:	08 f4       	brcc	.+2      	; 0x47cc <Interval_Set+0x484>
    47ca:	80 e0       	ldi	r24, 0x00	; 0
    47cc:	89 23       	and	r24, r25
    47ce:	71 f0       	breq	.+28     	; 0x47ec <Interval_Set+0x4a4>
			{							// мқҙм „мІҙмӨ‘мқҙ мёЎм •мІҙмӨ‘кіј мқёмҰқмІҙмӨ‘(25x10g)мқ„ лҚ”н•ңк°’кіј к°ҷкұ°лӮҳ мһ‘кі  мқёмҰқмІҙмӨ‘(25x10g)мқ„ ләҖк°’кіј к°ҷкұ°лӮҳ нҒ¬л©ҙм„ң мқҙм „мІҙмӨ‘кіј к°ҷмңјл©ҙ
//-------------------------------------------------------------------------------------------------
				CELL.Value = Old_Value;
    47d0:	6d 81       	ldd	r22, Y+5	; 0x05
    47d2:	7e 81       	ldd	r23, Y+6	; 0x06
    47d4:	8f 81       	ldd	r24, Y+7	; 0x07
    47d6:	98 85       	ldd	r25, Y+8	; 0x08
    47d8:	60 93 37 51 	sts	0x5137, r22	; 0x805137 <CELL+0x1>
    47dc:	70 93 38 51 	sts	0x5138, r23	; 0x805138 <CELL+0x2>
    47e0:	80 93 39 51 	sts	0x5139, r24	; 0x805139 <CELL+0x3>
    47e4:	90 93 3a 51 	sts	0x513A, r25	; 0x80513a <CELL+0x4>
				Zero_Count = 0;
    47e8:	10 92 88 51 	sts	0x5188, r1	; 0x805188 <Zero_Count>
			}
			CELL.Old_Value = (Old_Value + Value)/2;			// мқҙм „мІҙмӨ‘м—җ мёЎм •мІҙмӨ‘ м ҖмһҘ
    47ec:	8d 81       	ldd	r24, Y+5	; 0x05
    47ee:	9e 81       	ldd	r25, Y+6	; 0x06
    47f0:	af 81       	ldd	r26, Y+7	; 0x07
    47f2:	b8 85       	ldd	r27, Y+8	; 0x08
    47f4:	84 0d       	add	r24, r4
    47f6:	95 1d       	adc	r25, r5
    47f8:	a6 1d       	adc	r26, r6
    47fa:	b7 1d       	adc	r27, r7
    47fc:	b6 95       	lsr	r27
    47fe:	a7 95       	ror	r26
    4800:	97 95       	ror	r25
    4802:	87 95       	ror	r24
    4804:	80 93 3f 51 	sts	0x513F, r24	; 0x80513f <CELL+0x9>
    4808:	90 93 40 51 	sts	0x5140, r25	; 0x805140 <CELL+0xa>
    480c:	a0 93 41 51 	sts	0x5141, r26	; 0x805141 <CELL+0xb>
    4810:	b0 93 42 51 	sts	0x5142, r27	; 0x805142 <CELL+0xc>
			Cell_Desplay();						// лЎңл“ңм…Җ л¬ҙкІҢ н‘ңмӢң
    4814:	0e 94 24 18 	call	0x3048	; 0x3048 <Cell_Desplay>
    4818:	1a c0       	rjmp	.+52     	; 0x484e <Interval_Set+0x506>
		}
		else								// мёЎм •мІҙмӨ‘мқҙ м—Ҷл©ҙ
		{
			Zero_Count++;						// Zero_Count мҰқк°Җ
    481a:	80 91 88 51 	lds	r24, 0x5188	; 0x805188 <Zero_Count>
    481e:	8f 5f       	subi	r24, 0xFF	; 255
    4820:	80 93 88 51 	sts	0x5188, r24	; 0x805188 <Zero_Count>
			if(Zero_Count > 5)					// Zero_Count мқҙ 2ліҙлӢӨ нҒ¬л©ҙ
    4824:	86 30       	cpi	r24, 0x06	; 6
    4826:	98 f0       	brcs	.+38     	; 0x484e <Interval_Set+0x506>
			{
				CELL.Old_Value = 0;				// мқҙм „мёЎм •мІҙмӨ‘ мҙҲкё°нҷ”
    4828:	e6 e3       	ldi	r30, 0x36	; 54
    482a:	f1 e5       	ldi	r31, 0x51	; 81
    482c:	11 86       	std	Z+9, r1	; 0x09
    482e:	12 86       	std	Z+10, r1	; 0x0a
    4830:	13 86       	std	Z+11, r1	; 0x0b
    4832:	14 86       	std	Z+12, r1	; 0x0c
				CELL.Value = Value;
    4834:	c9 84       	ldd	r12, Y+9	; 0x09
    4836:	da 84       	ldd	r13, Y+10	; 0x0a
    4838:	c6 01       	movw	r24, r12
    483a:	a0 e0       	ldi	r26, 0x00	; 0
    483c:	b0 e0       	ldi	r27, 0x00	; 0
    483e:	81 83       	std	Z+1, r24	; 0x01
    4840:	92 83       	std	Z+2, r25	; 0x02
    4842:	a3 83       	std	Z+3, r26	; 0x03
    4844:	b4 83       	std	Z+4, r27	; 0x04
				Zero_Count = 0;					// Zero_Count мҙҲкё°нҷ”
    4846:	10 92 88 51 	sts	0x5188, r1	; 0x805188 <Zero_Count>
				Cell_Desplay();					// лЎңл“ңм…Җ л¬ҙкІҢ н‘ңмӢң
    484a:	0e 94 24 18 	call	0x3048	; 0x3048 <Cell_Desplay>
	#else
		//round up by default
		__ticks_dc = (uint32_t)(ceil(fabs(__tmp)));
	#endif

	__builtin_avr_delay_cycles(__ticks_dc);
    484e:	2f ef       	ldi	r18, 0xFF	; 255
    4850:	3f e3       	ldi	r19, 0x3F	; 63
    4852:	42 e0       	ldi	r20, 0x02	; 2
    4854:	21 50       	subi	r18, 0x01	; 1
    4856:	30 40       	sbci	r19, 0x00	; 0
    4858:	40 40       	sbci	r20, 0x00	; 0
    485a:	e1 f7       	brne	.-8      	; 0x4854 <Interval_Set+0x50c>
    485c:	00 c0       	rjmp	.+0      	; 0x485e <Interval_Set+0x516>
    485e:	00 00       	nop
			}
		}
		_delay_ms(50);
		wdt_reset();							// мӣҢм№ҳлҸ… лҰ¬м…Ӣ
    4860:	0e 94 8c 0e 	call	0x1d18	; 0x1d18 <wdt_reset>
	RO_1000  = RO % 10000 / 1000;						// лЎңл“ңм…Җ RO  1000мқҳ мһҗлҰ¬
	RO_100   = RO % 1000 / 100;						// лЎңл“ңм…Җ RO   100мқҳ мһҗлҰ¬
	RO_10    = RO % 100 / 10;						// лЎңл“ңм…Җ RO    10мқҳ мһҗлҰ¬
	RO_1     = RO % 10;							// лЎңл“ңм…Җ RO     1мқҳ мһҗлҰ¬

	while(SET.Menu && SET.Select)						// л©”лүҙк°Җ 1 мқҙл©ҙ л°ҳліө
    4864:	80 91 28 51 	lds	r24, 0x5128	; 0x805128 <SET>
    4868:	88 23       	and	r24, r24
    486a:	21 f0       	breq	.+8      	; 0x4874 <Interval_Set+0x52c>
    486c:	80 91 29 51 	lds	r24, 0x5129	; 0x805129 <SET+0x1>
    4870:	81 11       	cpse	r24, r1
    4872:	3e ce       	rjmp	.-900    	; 0x44f0 <Interval_Set+0x1a8>
			}
		}
		_delay_ms(50);
		wdt_reset();							// мӣҢм№ҳлҸ… лҰ¬м…Ӣ
	}
	ee_write_dword(Cell_RO_Addr, RO);					// лЎңл“ңм…Җ ROк°’ м ҖмһҘ
    4874:	40 91 2d 51 	lds	r20, 0x512D	; 0x80512d <RO>
    4878:	50 91 2e 51 	lds	r21, 0x512E	; 0x80512e <RO+0x1>
    487c:	60 91 2f 51 	lds	r22, 0x512F	; 0x80512f <RO+0x2>
    4880:	70 91 30 51 	lds	r23, 0x5130	; 0x805130 <RO+0x3>
    4884:	8c e0       	ldi	r24, 0x0C	; 12
    4886:	90 e0       	ldi	r25, 0x00	; 0
    4888:	0e 94 69 13 	call	0x26d2	; 0x26d2 <ee_write_dword>
}
    488c:	60 96       	adiw	r28, 0x10	; 16
    488e:	cd bf       	out	0x3d, r28	; 61
    4890:	de bf       	out	0x3e, r29	; 62
    4892:	df 91       	pop	r29
    4894:	cf 91       	pop	r28
    4896:	1f 91       	pop	r17
    4898:	0f 91       	pop	r16
    489a:	ff 90       	pop	r15
    489c:	ef 90       	pop	r14
    489e:	df 90       	pop	r13
    48a0:	cf 90       	pop	r12
    48a2:	bf 90       	pop	r11
    48a4:	af 90       	pop	r10
    48a6:	9f 90       	pop	r9
    48a8:	8f 90       	pop	r8
    48aa:	7f 90       	pop	r7
    48ac:	6f 90       	pop	r6
    48ae:	5f 90       	pop	r5
    48b0:	4f 90       	pop	r4
    48b2:	3f 90       	pop	r3
    48b4:	2f 90       	pop	r2
    48b6:	08 95       	ret

000048b8 <CAPA_Set>:

//=================================================================================================
void CAPA_Set(void)								// CAPA м„Өм •
{
    48b8:	8f 92       	push	r8
    48ba:	9f 92       	push	r9
    48bc:	af 92       	push	r10
    48be:	bf 92       	push	r11
    48c0:	cf 92       	push	r12
    48c2:	df 92       	push	r13
    48c4:	ef 92       	push	r14
    48c6:	ff 92       	push	r15
	DIGIT[2][0] = FND_OFF;							// лЎңл“ңм…Җ RO, мһ…кө¬мІҙмӨ‘ 1мқҳ мһҗлҰ¬ м§Җмҡ°кё°
    48c8:	10 92 99 41 	sts	0x4199, r1	; 0x804199 <DIGIT+0x8>

	Cell_Capa = ee_read_word(Cell_Capa_Addr);				// 1лІҲ лЎңл“ңм…Җ мқҙл©ҙ мҡ©лҹүк°’ л¶Ҳлҹ¬мҳӨкё°
    48cc:	88 e0       	ldi	r24, 0x08	; 8
    48ce:	90 e0       	ldi	r25, 0x00	; 0
    48d0:	0e 94 11 13 	call	0x2622	; 0x2622 <ee_read_word>
    48d4:	6c 01       	movw	r12, r24
    48d6:	e1 2c       	mov	r14, r1
    48d8:	f1 2c       	mov	r15, r1
    48da:	c0 92 83 51 	sts	0x5183, r12	; 0x805183 <Cell_Capa>
    48de:	d0 92 84 51 	sts	0x5184, r13	; 0x805184 <Cell_Capa+0x1>
    48e2:	e0 92 85 51 	sts	0x5185, r14	; 0x805185 <Cell_Capa+0x2>
    48e6:	f0 92 86 51 	sts	0x5186, r15	; 0x805186 <Cell_Capa+0x3>
//-------------------------------------------------------------------------------------------------
	CAPA_1000 = Cell_Capa / 1000;						// лЎңл“ңм…Җ CAPA 1000мқҳ мһҗлҰ¬
    48ea:	c7 01       	movw	r24, r14
    48ec:	b6 01       	movw	r22, r12
    48ee:	28 ee       	ldi	r18, 0xE8	; 232
    48f0:	33 e0       	ldi	r19, 0x03	; 3
    48f2:	40 e0       	ldi	r20, 0x00	; 0
    48f4:	50 e0       	ldi	r21, 0x00	; 0
    48f6:	0e 94 9e 3b 	call	0x773c	; 0x773c <__udivmodsi4>
    48fa:	20 93 c1 41 	sts	0x41C1, r18	; 0x8041c1 <CAPA_1000>
	CAPA_100  = Cell_Capa % 1000 / 100;					// лЎңл“ңм…Җ CAPA 100мқҳ мһҗлҰ¬
    48fe:	0f 2e       	mov	r0, r31
    4900:	f4 e6       	ldi	r31, 0x64	; 100
    4902:	8f 2e       	mov	r8, r31
    4904:	91 2c       	mov	r9, r1
    4906:	a1 2c       	mov	r10, r1
    4908:	b1 2c       	mov	r11, r1
    490a:	f0 2d       	mov	r31, r0
    490c:	a5 01       	movw	r20, r10
    490e:	94 01       	movw	r18, r8
    4910:	0e 94 9e 3b 	call	0x773c	; 0x773c <__udivmodsi4>
    4914:	20 93 7c 51 	sts	0x517C, r18	; 0x80517c <CAPA_100>
	CAPA_10   = Cell_Capa % 100 / 10;					// лЎңл“ңм…Җ CAPA  10мқҳ мһҗлҰ¬
    4918:	c7 01       	movw	r24, r14
    491a:	b6 01       	movw	r22, r12
    491c:	a5 01       	movw	r20, r10
    491e:	94 01       	movw	r18, r8
    4920:	0e 94 9e 3b 	call	0x773c	; 0x773c <__udivmodsi4>
    4924:	0f 2e       	mov	r0, r31
    4926:	fa e0       	ldi	r31, 0x0A	; 10
    4928:	8f 2e       	mov	r8, r31
    492a:	91 2c       	mov	r9, r1
    492c:	a1 2c       	mov	r10, r1
    492e:	b1 2c       	mov	r11, r1
    4930:	f0 2d       	mov	r31, r0
    4932:	a5 01       	movw	r20, r10
    4934:	94 01       	movw	r18, r8
    4936:	0e 94 9e 3b 	call	0x773c	; 0x773c <__udivmodsi4>
    493a:	20 93 82 51 	sts	0x5182, r18	; 0x805182 <CAPA_10>
	CAPA_1    = Cell_Capa % 10;						// лЎңл“ңм…Җ CAPA   1мқҳ мһҗлҰ¬
    493e:	c7 01       	movw	r24, r14
    4940:	b6 01       	movw	r22, r12
    4942:	a5 01       	movw	r20, r10
    4944:	94 01       	movw	r18, r8
    4946:	0e 94 9e 3b 	call	0x773c	; 0x773c <__udivmodsi4>
    494a:	60 93 4b 51 	sts	0x514B, r22	; 0x80514b <CAPA_1>
//-------------------------------------------------------------------------------------------------
	while(SET.Menu)								// л©”лүҙк°Җ 1 мқҙл©ҙ л°ҳліө
    494e:	ff c0       	rjmp	.+510    	; 0x4b4e <CAPA_Set+0x296>
	{
		SET.Blink = 1;							// мһҗлҰҝмҲҳ к№ңл°•мһ„ м„Өм •
    4950:	81 e0       	ldi	r24, 0x01	; 1
    4952:	80 93 2b 51 	sts	0x512B, r24	; 0x80512b <SET+0x3>

		switch(KEY.Count)						// м„ нғқ Key к°Җ лҲҢлҰ°нҡҹмҲҳ
    4956:	80 91 67 51 	lds	r24, 0x5167	; 0x805167 <KEY>
    495a:	82 30       	cpi	r24, 0x02	; 2
    495c:	09 f4       	brne	.+2      	; 0x4960 <CAPA_Set+0xa8>
    495e:	82 c0       	rjmp	.+260    	; 0x4a64 <CAPA_Set+0x1ac>
    4960:	30 f4       	brcc	.+12     	; 0x496e <CAPA_Set+0xb6>
    4962:	88 23       	and	r24, r24
    4964:	59 f0       	breq	.+22     	; 0x497c <CAPA_Set+0xc4>
    4966:	81 30       	cpi	r24, 0x01	; 1
    4968:	09 f4       	brne	.+2      	; 0x496c <CAPA_Set+0xb4>
    496a:	42 c0       	rjmp	.+132    	; 0x49f0 <CAPA_Set+0x138>
    496c:	ee c0       	rjmp	.+476    	; 0x4b4a <CAPA_Set+0x292>
    496e:	83 30       	cpi	r24, 0x03	; 3
    4970:	09 f4       	brne	.+2      	; 0x4974 <CAPA_Set+0xbc>
    4972:	b2 c0       	rjmp	.+356    	; 0x4ad8 <CAPA_Set+0x220>
    4974:	84 30       	cpi	r24, 0x04	; 4
    4976:	09 f4       	brne	.+2      	; 0x497a <CAPA_Set+0xc2>
    4978:	e6 c0       	rjmp	.+460    	; 0x4b46 <CAPA_Set+0x28e>
    497a:	e7 c0       	rjmp	.+462    	; 0x4b4a <CAPA_Set+0x292>
		{
			case 0:							// лЎңл“ңм…Җ CAPA 1000мқҳ мһҗлҰ¬
				DIGIT[1][0] = fnd_tbl[CAPA_1];			// лЎңл“ңм…Җ CAPA    1мқҳ мһҗлҰ¬ н‘ңмӢң
    497c:	e0 91 4b 51 	lds	r30, 0x514B	; 0x80514b <CAPA_1>
    4980:	f0 e0       	ldi	r31, 0x00	; 0
    4982:	e5 5a       	subi	r30, 0xA5	; 165
    4984:	fe 4b       	sbci	r31, 0xBE	; 190
    4986:	80 81       	ld	r24, Z
    4988:	80 93 95 41 	sts	0x4195, r24	; 0x804195 <DIGIT+0x4>
				if(Blink) {DIGIT[1][3] = FND_OFF;}		// Blink = 1 мқҙл©ҙ лЎңл“ңм…Җ CAPA 100мқҳ мһҗлҰ¬ OFF
    498c:	80 91 93 51 	lds	r24, 0x5193	; 0x805193 <Blink>
    4990:	88 23       	and	r24, r24
    4992:	19 f0       	breq	.+6      	; 0x499a <CAPA_Set+0xe2>
    4994:	10 92 98 41 	sts	0x4198, r1	; 0x804198 <DIGIT+0x7>
    4998:	08 c0       	rjmp	.+16     	; 0x49aa <CAPA_Set+0xf2>
				else	  {DIGIT[1][3] = fnd_tbl[CAPA_1000];}	// Blink = 0 мқҙл©ҙ лЎңл“ңм…Җ CAPA 100мқҳ мһҗлҰ¬ н‘ңмӢң
    499a:	e0 91 c1 41 	lds	r30, 0x41C1	; 0x8041c1 <CAPA_1000>
    499e:	f0 e0       	ldi	r31, 0x00	; 0
    49a0:	e5 5a       	subi	r30, 0xA5	; 165
    49a2:	fe 4b       	sbci	r31, 0xBE	; 190
    49a4:	80 81       	ld	r24, Z
    49a6:	80 93 98 41 	sts	0x4198, r24	; 0x804198 <DIGIT+0x7>

				if(KEY.Buff)					// Key мһ…л Ҙмқҙ мһҲмңјл©ҙ
    49aa:	80 91 68 51 	lds	r24, 0x5168	; 0x805168 <KEY+0x1>
    49ae:	88 23       	and	r24, r24
    49b0:	09 f4       	brne	.+2      	; 0x49b4 <CAPA_Set+0xfc>
    49b2:	cb c0       	rjmp	.+406    	; 0x4b4a <CAPA_Set+0x292>
				{
					if     (KEY.Key == 1 && CAPA_1000 < 1) {CAPA_1000++; KEY.Key = 0;}	// м—…  лІ„нҠј мқҙл©ҙ CAPAк°’ 1000мқҳ мһҗлҰ¬ мҰқк°Җ
    49b4:	80 91 69 51 	lds	r24, 0x5169	; 0x805169 <KEY+0x2>
    49b8:	81 30       	cpi	r24, 0x01	; 1
    49ba:	51 f4       	brne	.+20     	; 0x49d0 <CAPA_Set+0x118>
    49bc:	80 91 c1 41 	lds	r24, 0x41C1	; 0x8041c1 <CAPA_1000>
    49c0:	81 11       	cpse	r24, r1
    49c2:	06 c0       	rjmp	.+12     	; 0x49d0 <CAPA_Set+0x118>
    49c4:	8f 5f       	subi	r24, 0xFF	; 255
    49c6:	80 93 c1 41 	sts	0x41C1, r24	; 0x8041c1 <CAPA_1000>
    49ca:	10 92 69 51 	sts	0x5169, r1	; 0x805169 <KEY+0x2>
    49ce:	bd c0       	rjmp	.+378    	; 0x4b4a <CAPA_Set+0x292>
					else if(KEY.Key == 3 && CAPA_1000 > 0) {CAPA_1000--; KEY.Key = 0;}	// лӢӨмҡҙлІ„нҠј мқҙл©ҙ CAPAк°’ 1000мқҳ мһҗлҰ¬ к°җмҶҢ
    49d0:	80 91 69 51 	lds	r24, 0x5169	; 0x805169 <KEY+0x2>
    49d4:	83 30       	cpi	r24, 0x03	; 3
    49d6:	09 f0       	breq	.+2      	; 0x49da <CAPA_Set+0x122>
    49d8:	b8 c0       	rjmp	.+368    	; 0x4b4a <CAPA_Set+0x292>
    49da:	80 91 c1 41 	lds	r24, 0x41C1	; 0x8041c1 <CAPA_1000>
    49de:	88 23       	and	r24, r24
    49e0:	09 f4       	brne	.+2      	; 0x49e4 <CAPA_Set+0x12c>
    49e2:	b3 c0       	rjmp	.+358    	; 0x4b4a <CAPA_Set+0x292>
    49e4:	81 50       	subi	r24, 0x01	; 1
    49e6:	80 93 c1 41 	sts	0x41C1, r24	; 0x8041c1 <CAPA_1000>
    49ea:	10 92 69 51 	sts	0x5169, r1	; 0x805169 <KEY+0x2>
    49ee:	ad c0       	rjmp	.+346    	; 0x4b4a <CAPA_Set+0x292>
				}
			break;

			case 1:							// лЎңл“ңм…Җ CAPA  100мқҳ мһҗлҰ¬
				DIGIT[1][3] = fnd_tbl[CAPA_1000];		// лЎңл“ңм…Җ CAPA 1000мқҳ мһҗлҰ¬ н‘ңмӢң
    49f0:	e0 91 c1 41 	lds	r30, 0x41C1	; 0x8041c1 <CAPA_1000>
    49f4:	f0 e0       	ldi	r31, 0x00	; 0
    49f6:	e5 5a       	subi	r30, 0xA5	; 165
    49f8:	fe 4b       	sbci	r31, 0xBE	; 190
    49fa:	80 81       	ld	r24, Z
    49fc:	80 93 98 41 	sts	0x4198, r24	; 0x804198 <DIGIT+0x7>
				if(Blink) {DIGIT[1][2] = FND_OFF;}		// Blink = 1 мқҙл©ҙ лЎңл“ңм…Җ CAPA 100мқҳ мһҗлҰ¬ OFF
    4a00:	80 91 93 51 	lds	r24, 0x5193	; 0x805193 <Blink>
    4a04:	88 23       	and	r24, r24
    4a06:	19 f0       	breq	.+6      	; 0x4a0e <CAPA_Set+0x156>
    4a08:	10 92 97 41 	sts	0x4197, r1	; 0x804197 <DIGIT+0x6>
    4a0c:	08 c0       	rjmp	.+16     	; 0x4a1e <CAPA_Set+0x166>
				else	  {DIGIT[1][2] = fnd_tbl[CAPA_100];}	// Blink = 0 мқҙл©ҙ лЎңл“ңм…Җ CAPA 100мқҳ мһҗлҰ¬ н‘ңмӢң
    4a0e:	e0 91 7c 51 	lds	r30, 0x517C	; 0x80517c <CAPA_100>
    4a12:	f0 e0       	ldi	r31, 0x00	; 0
    4a14:	e5 5a       	subi	r30, 0xA5	; 165
    4a16:	fe 4b       	sbci	r31, 0xBE	; 190
    4a18:	80 81       	ld	r24, Z
    4a1a:	80 93 97 41 	sts	0x4197, r24	; 0x804197 <DIGIT+0x6>

				if(KEY.Buff)					// Key мһ…л Ҙмқҙ мһҲмңјл©ҙ
    4a1e:	80 91 68 51 	lds	r24, 0x5168	; 0x805168 <KEY+0x1>
    4a22:	88 23       	and	r24, r24
    4a24:	09 f4       	brne	.+2      	; 0x4a28 <CAPA_Set+0x170>
    4a26:	91 c0       	rjmp	.+290    	; 0x4b4a <CAPA_Set+0x292>
				{
					if     (KEY.Key == 1 && CAPA_100 < 9) {CAPA_100++; KEY.Key = 0;}	// м—…  лІ„нҠј мқҙл©ҙ CAPAк°’ 100мқҳ мһҗлҰ¬ мҰқк°Җ
    4a28:	80 91 69 51 	lds	r24, 0x5169	; 0x805169 <KEY+0x2>
    4a2c:	81 30       	cpi	r24, 0x01	; 1
    4a2e:	51 f4       	brne	.+20     	; 0x4a44 <CAPA_Set+0x18c>
    4a30:	80 91 7c 51 	lds	r24, 0x517C	; 0x80517c <CAPA_100>
    4a34:	89 30       	cpi	r24, 0x09	; 9
    4a36:	30 f4       	brcc	.+12     	; 0x4a44 <CAPA_Set+0x18c>
    4a38:	8f 5f       	subi	r24, 0xFF	; 255
    4a3a:	80 93 7c 51 	sts	0x517C, r24	; 0x80517c <CAPA_100>
    4a3e:	10 92 69 51 	sts	0x5169, r1	; 0x805169 <KEY+0x2>
    4a42:	83 c0       	rjmp	.+262    	; 0x4b4a <CAPA_Set+0x292>
					else if(KEY.Key == 3 && CAPA_100 > 0) {CAPA_100--; KEY.Key = 0;}	// лӢӨмҡҙлІ„нҠј мқҙл©ҙ CAPAк°’ 100мқҳ мһҗлҰ¬ к°җмҶҢ
    4a44:	80 91 69 51 	lds	r24, 0x5169	; 0x805169 <KEY+0x2>
    4a48:	83 30       	cpi	r24, 0x03	; 3
    4a4a:	09 f0       	breq	.+2      	; 0x4a4e <CAPA_Set+0x196>
    4a4c:	7e c0       	rjmp	.+252    	; 0x4b4a <CAPA_Set+0x292>
    4a4e:	80 91 7c 51 	lds	r24, 0x517C	; 0x80517c <CAPA_100>
    4a52:	88 23       	and	r24, r24
    4a54:	09 f4       	brne	.+2      	; 0x4a58 <CAPA_Set+0x1a0>
    4a56:	79 c0       	rjmp	.+242    	; 0x4b4a <CAPA_Set+0x292>
    4a58:	81 50       	subi	r24, 0x01	; 1
    4a5a:	80 93 7c 51 	sts	0x517C, r24	; 0x80517c <CAPA_100>
    4a5e:	10 92 69 51 	sts	0x5169, r1	; 0x805169 <KEY+0x2>
    4a62:	73 c0       	rjmp	.+230    	; 0x4b4a <CAPA_Set+0x292>
				}
			break;

			case 2:							// лЎңл“ңм…Җ CAPA 10мқҳ мһҗлҰ¬
				DIGIT[1][2] = fnd_tbl[CAPA_100];		// лЎңл“ңм…Җ CAPA 100мқҳ мһҗлҰ¬ н‘ңмӢң
    4a64:	e0 91 7c 51 	lds	r30, 0x517C	; 0x80517c <CAPA_100>
    4a68:	f0 e0       	ldi	r31, 0x00	; 0
    4a6a:	e5 5a       	subi	r30, 0xA5	; 165
    4a6c:	fe 4b       	sbci	r31, 0xBE	; 190
    4a6e:	80 81       	ld	r24, Z
    4a70:	80 93 97 41 	sts	0x4197, r24	; 0x804197 <DIGIT+0x6>
				if(Blink) {DIGIT[1][1] = FND_OFF;}		// Blink = 1 мқҙл©ҙ лЎңл“ңм…Җ CAPA 10мқҳ мһҗлҰ¬ OFF
    4a74:	80 91 93 51 	lds	r24, 0x5193	; 0x805193 <Blink>
    4a78:	88 23       	and	r24, r24
    4a7a:	19 f0       	breq	.+6      	; 0x4a82 <CAPA_Set+0x1ca>
    4a7c:	10 92 96 41 	sts	0x4196, r1	; 0x804196 <DIGIT+0x5>
    4a80:	08 c0       	rjmp	.+16     	; 0x4a92 <CAPA_Set+0x1da>
				else	  {DIGIT[1][1] = fnd_tbl[CAPA_10];}	// Blink = 0 мқҙл©ҙ лЎңл“ңм…Җ CAPA 10мқҳ мһҗлҰ¬ н‘ңмӢң
    4a82:	e0 91 82 51 	lds	r30, 0x5182	; 0x805182 <CAPA_10>
    4a86:	f0 e0       	ldi	r31, 0x00	; 0
    4a88:	e5 5a       	subi	r30, 0xA5	; 165
    4a8a:	fe 4b       	sbci	r31, 0xBE	; 190
    4a8c:	80 81       	ld	r24, Z
    4a8e:	80 93 96 41 	sts	0x4196, r24	; 0x804196 <DIGIT+0x5>

				if(KEY.Buff)					// Key мһ…л Ҙмқҙ мһҲмңјл©ҙ
    4a92:	80 91 68 51 	lds	r24, 0x5168	; 0x805168 <KEY+0x1>
    4a96:	88 23       	and	r24, r24
    4a98:	09 f4       	brne	.+2      	; 0x4a9c <CAPA_Set+0x1e4>
    4a9a:	57 c0       	rjmp	.+174    	; 0x4b4a <CAPA_Set+0x292>
				{
					if     (KEY.Key == 1 && CAPA_10 < 9) {CAPA_10++; KEY.Key = 0;}		// м—…  лІ„нҠј мқҙл©ҙ CAPAк°’ 10мқҳ мһҗлҰ¬ мҰқк°Җ
    4a9c:	80 91 69 51 	lds	r24, 0x5169	; 0x805169 <KEY+0x2>
    4aa0:	81 30       	cpi	r24, 0x01	; 1
    4aa2:	51 f4       	brne	.+20     	; 0x4ab8 <CAPA_Set+0x200>
    4aa4:	80 91 82 51 	lds	r24, 0x5182	; 0x805182 <CAPA_10>
    4aa8:	89 30       	cpi	r24, 0x09	; 9
    4aaa:	30 f4       	brcc	.+12     	; 0x4ab8 <CAPA_Set+0x200>
    4aac:	8f 5f       	subi	r24, 0xFF	; 255
    4aae:	80 93 82 51 	sts	0x5182, r24	; 0x805182 <CAPA_10>
    4ab2:	10 92 69 51 	sts	0x5169, r1	; 0x805169 <KEY+0x2>
    4ab6:	49 c0       	rjmp	.+146    	; 0x4b4a <CAPA_Set+0x292>
					else if(KEY.Key == 3 && CAPA_10 > 0) {CAPA_10--; KEY.Key = 0;}		// лӢӨмҡҙлІ„нҠј мқҙл©ҙ CAPAк°’ 10мқҳ мһҗлҰ¬ к°җмҶҢ
    4ab8:	80 91 69 51 	lds	r24, 0x5169	; 0x805169 <KEY+0x2>
    4abc:	83 30       	cpi	r24, 0x03	; 3
    4abe:	09 f0       	breq	.+2      	; 0x4ac2 <CAPA_Set+0x20a>
    4ac0:	44 c0       	rjmp	.+136    	; 0x4b4a <CAPA_Set+0x292>
    4ac2:	80 91 82 51 	lds	r24, 0x5182	; 0x805182 <CAPA_10>
    4ac6:	88 23       	and	r24, r24
    4ac8:	09 f4       	brne	.+2      	; 0x4acc <CAPA_Set+0x214>
    4aca:	3f c0       	rjmp	.+126    	; 0x4b4a <CAPA_Set+0x292>
    4acc:	81 50       	subi	r24, 0x01	; 1
    4ace:	80 93 82 51 	sts	0x5182, r24	; 0x805182 <CAPA_10>
    4ad2:	10 92 69 51 	sts	0x5169, r1	; 0x805169 <KEY+0x2>
    4ad6:	39 c0       	rjmp	.+114    	; 0x4b4a <CAPA_Set+0x292>
				}
			break;

			case 3:							// лЎңл“ңм…Җ CAPA 1мқҳ мһҗлҰ¬
				DIGIT[1][1] = fnd_tbl[CAPA_10];			// лЎңл“ңм…Җ CAPA 10мқҳ мһҗлҰ¬ н‘ңмӢң
    4ad8:	e0 91 82 51 	lds	r30, 0x5182	; 0x805182 <CAPA_10>
    4adc:	f0 e0       	ldi	r31, 0x00	; 0
    4ade:	e5 5a       	subi	r30, 0xA5	; 165
    4ae0:	fe 4b       	sbci	r31, 0xBE	; 190
    4ae2:	80 81       	ld	r24, Z
    4ae4:	80 93 96 41 	sts	0x4196, r24	; 0x804196 <DIGIT+0x5>
				if(Blink) {DIGIT[1][0] = FND_OFF;}		// Blink = 1 мқҙл©ҙ лЎңл“ңм…Җ CAPA 1мқҳ мһҗлҰ¬ OFF
    4ae8:	80 91 93 51 	lds	r24, 0x5193	; 0x805193 <Blink>
    4aec:	88 23       	and	r24, r24
    4aee:	19 f0       	breq	.+6      	; 0x4af6 <CAPA_Set+0x23e>
    4af0:	10 92 95 41 	sts	0x4195, r1	; 0x804195 <DIGIT+0x4>
    4af4:	08 c0       	rjmp	.+16     	; 0x4b06 <CAPA_Set+0x24e>
				else	  {DIGIT[1][0] = fnd_tbl[CAPA_1];}	// Blink = 0 мқҙл©ҙ лЎңл“ңм…Җ CAPA 1мқҳ мһҗлҰ¬ н‘ңмӢң
    4af6:	e0 91 4b 51 	lds	r30, 0x514B	; 0x80514b <CAPA_1>
    4afa:	f0 e0       	ldi	r31, 0x00	; 0
    4afc:	e5 5a       	subi	r30, 0xA5	; 165
    4afe:	fe 4b       	sbci	r31, 0xBE	; 190
    4b00:	80 81       	ld	r24, Z
    4b02:	80 93 95 41 	sts	0x4195, r24	; 0x804195 <DIGIT+0x4>

				if(KEY.Buff)					// Key мһ…л Ҙмқҙ мһҲмңјл©ҙ
    4b06:	80 91 68 51 	lds	r24, 0x5168	; 0x805168 <KEY+0x1>
    4b0a:	88 23       	and	r24, r24
    4b0c:	f1 f0       	breq	.+60     	; 0x4b4a <CAPA_Set+0x292>
				{
					if     (KEY.Key == 1 && CAPA_1 < 9) {CAPA_1++; KEY.Key = 0;}		// м—…  лІ„нҠј мқҙл©ҙ CAPAк°’ 1мқҳ мһҗлҰ¬ мҰқк°Җ
    4b0e:	80 91 69 51 	lds	r24, 0x5169	; 0x805169 <KEY+0x2>
    4b12:	81 30       	cpi	r24, 0x01	; 1
    4b14:	51 f4       	brne	.+20     	; 0x4b2a <CAPA_Set+0x272>
    4b16:	80 91 4b 51 	lds	r24, 0x514B	; 0x80514b <CAPA_1>
    4b1a:	89 30       	cpi	r24, 0x09	; 9
    4b1c:	30 f4       	brcc	.+12     	; 0x4b2a <CAPA_Set+0x272>
    4b1e:	8f 5f       	subi	r24, 0xFF	; 255
    4b20:	80 93 4b 51 	sts	0x514B, r24	; 0x80514b <CAPA_1>
    4b24:	10 92 69 51 	sts	0x5169, r1	; 0x805169 <KEY+0x2>
    4b28:	10 c0       	rjmp	.+32     	; 0x4b4a <CAPA_Set+0x292>
					else if(KEY.Key == 3 && CAPA_1 > 0) {CAPA_1--; KEY.Key = 0;}		// лӢӨмҡҙлІ„нҠј мқҙл©ҙ CAPAк°’ 1мқҳ мһҗлҰ¬ к°җмҶҢ
    4b2a:	80 91 69 51 	lds	r24, 0x5169	; 0x805169 <KEY+0x2>
    4b2e:	83 30       	cpi	r24, 0x03	; 3
    4b30:	61 f4       	brne	.+24     	; 0x4b4a <CAPA_Set+0x292>
    4b32:	80 91 4b 51 	lds	r24, 0x514B	; 0x80514b <CAPA_1>
    4b36:	88 23       	and	r24, r24
    4b38:	41 f0       	breq	.+16     	; 0x4b4a <CAPA_Set+0x292>
    4b3a:	81 50       	subi	r24, 0x01	; 1
    4b3c:	80 93 4b 51 	sts	0x514B, r24	; 0x80514b <CAPA_1>
    4b40:	10 92 69 51 	sts	0x5169, r1	; 0x805169 <KEY+0x2>
    4b44:	02 c0       	rjmp	.+4      	; 0x4b4a <CAPA_Set+0x292>
				}
			break;

			case 4:
				KEY.Count = 0;					// л°ҳліөмқ„ мң„н•ҙ Count лҘј мөңм ҖлЎң к°җмҶҢ мӢңнӮҙ
    4b46:	10 92 67 51 	sts	0x5167, r1	; 0x805167 <KEY>
			break;
		}
		wdt_reset();							// мӣҢм№ҳлҸ… лҰ¬м…Ӣ
    4b4a:	0e 94 8c 0e 	call	0x1d18	; 0x1d18 <wdt_reset>
	CAPA_1000 = Cell_Capa / 1000;						// лЎңл“ңм…Җ CAPA 1000мқҳ мһҗлҰ¬
	CAPA_100  = Cell_Capa % 1000 / 100;					// лЎңл“ңм…Җ CAPA 100мқҳ мһҗлҰ¬
	CAPA_10   = Cell_Capa % 100 / 10;					// лЎңл“ңм…Җ CAPA  10мқҳ мһҗлҰ¬
	CAPA_1    = Cell_Capa % 10;						// лЎңл“ңм…Җ CAPA   1мқҳ мһҗлҰ¬
//-------------------------------------------------------------------------------------------------
	while(SET.Menu)								// л©”лүҙк°Җ 1 мқҙл©ҙ л°ҳліө
    4b4e:	80 91 28 51 	lds	r24, 0x5128	; 0x805128 <SET>
    4b52:	81 11       	cpse	r24, r1
    4b54:	fd ce       	rjmp	.-518    	; 0x4950 <CAPA_Set+0x98>
		}
		wdt_reset();							// мӣҢм№ҳлҸ… лҰ¬м…Ӣ
	}
//-------------------------------------------------------------------------------------------------
	Cell_Capa = 0;
	Cell_Capa += (CAPA_1000 * 1000);					// лЎңл“ңм…Җ CAPA 1000мқҳ мһҗлҰ¬
    4b56:	40 91 c1 41 	lds	r20, 0x41C1	; 0x8041c1 <CAPA_1000>
    4b5a:	28 ee       	ldi	r18, 0xE8	; 232
    4b5c:	33 e0       	ldi	r19, 0x03	; 3
    4b5e:	42 9f       	mul	r20, r18
    4b60:	c0 01       	movw	r24, r0
    4b62:	43 9f       	mul	r20, r19
    4b64:	90 0d       	add	r25, r0
    4b66:	11 24       	eor	r1, r1
    4b68:	ac 01       	movw	r20, r24
    4b6a:	99 0f       	add	r25, r25
    4b6c:	66 0b       	sbc	r22, r22
    4b6e:	77 0b       	sbc	r23, r23
	Cell_Capa += (CAPA_100  * 100);						// лЎңл“ңм…Җ CAPA  100мқҳ мһҗлҰ¬
    4b70:	80 91 7c 51 	lds	r24, 0x517C	; 0x80517c <CAPA_100>
    4b74:	24 e6       	ldi	r18, 0x64	; 100
    4b76:	82 9f       	mul	r24, r18
    4b78:	c0 01       	movw	r24, r0
    4b7a:	11 24       	eor	r1, r1
    4b7c:	09 2e       	mov	r0, r25
    4b7e:	00 0c       	add	r0, r0
    4b80:	aa 0b       	sbc	r26, r26
    4b82:	bb 0b       	sbc	r27, r27
    4b84:	84 0f       	add	r24, r20
    4b86:	95 1f       	adc	r25, r21
    4b88:	a6 1f       	adc	r26, r22
    4b8a:	b7 1f       	adc	r27, r23
	Cell_Capa += (CAPA_10   * 10);						// лЎңл“ңм…Җ CAPA   10мқҳ мһҗлҰ¬
    4b8c:	20 91 82 51 	lds	r18, 0x5182	; 0x805182 <CAPA_10>
    4b90:	30 e0       	ldi	r19, 0x00	; 0
    4b92:	b9 01       	movw	r22, r18
    4b94:	66 0f       	add	r22, r22
    4b96:	77 1f       	adc	r23, r23
    4b98:	22 0f       	add	r18, r18
    4b9a:	33 1f       	adc	r19, r19
    4b9c:	22 0f       	add	r18, r18
    4b9e:	33 1f       	adc	r19, r19
    4ba0:	22 0f       	add	r18, r18
    4ba2:	33 1f       	adc	r19, r19
    4ba4:	62 0f       	add	r22, r18
    4ba6:	73 1f       	adc	r23, r19
    4ba8:	ab 01       	movw	r20, r22
    4baa:	77 0f       	add	r23, r23
    4bac:	66 0b       	sbc	r22, r22
    4bae:	77 0b       	sbc	r23, r23
    4bb0:	84 0f       	add	r24, r20
    4bb2:	95 1f       	adc	r25, r21
    4bb4:	a6 1f       	adc	r26, r22
    4bb6:	b7 1f       	adc	r27, r23
	Cell_Capa += (CAPA_1    * 1);						// лЎңл“ңм…Җ CAPA    1мқҳ мһҗлҰ¬
    4bb8:	20 91 4b 51 	lds	r18, 0x514B	; 0x80514b <CAPA_1>
    4bbc:	bc 01       	movw	r22, r24
    4bbe:	cd 01       	movw	r24, r26
    4bc0:	62 0f       	add	r22, r18
    4bc2:	71 1d       	adc	r23, r1
    4bc4:	81 1d       	adc	r24, r1
    4bc6:	91 1d       	adc	r25, r1
    4bc8:	60 93 83 51 	sts	0x5183, r22	; 0x805183 <Cell_Capa>
    4bcc:	70 93 84 51 	sts	0x5184, r23	; 0x805184 <Cell_Capa+0x1>
    4bd0:	80 93 85 51 	sts	0x5185, r24	; 0x805185 <Cell_Capa+0x2>
    4bd4:	90 93 86 51 	sts	0x5186, r25	; 0x805186 <Cell_Capa+0x3>
//-------------------------------------------------------------------------------------------------
	ee_write_word(Cell_Capa_Addr, Cell_Capa);				// лЎңл“ңм…Җ мқҙл©ҙ мҡ©лҹүк°’ м ҖмһҘ
    4bd8:	88 e0       	ldi	r24, 0x08	; 8
    4bda:	90 e0       	ldi	r25, 0x00	; 0
    4bdc:	0e 94 4c 13 	call	0x2698	; 0x2698 <ee_write_word>

	SET.Menu = 1;								// Menu лӘЁл“ң мң м§Җ
    4be0:	e8 e2       	ldi	r30, 0x28	; 40
    4be2:	f1 e5       	ldi	r31, 0x51	; 81
    4be4:	81 e0       	ldi	r24, 0x01	; 1
    4be6:	80 83       	st	Z, r24
	SET.Select = 0;								// Select лІ„нҠј мҙҲкё°нҷ”
    4be8:	11 82       	std	Z+1, r1	; 0x01
	SET.Blink = 0;								// мһҗлҰҝмҲҳ к№ңл°•мһ„ мҙҲкё°нҷ”
    4bea:	13 82       	std	Z+3, r1	; 0x03
	KEY.Count = 0;								// м„ нғқ Key к°Җ лҲҢлҰ°нҡҹмҲҳ мҙҲкё°нҷ”
    4bec:	10 92 67 51 	sts	0x5167, r1	; 0x805167 <KEY>
}
    4bf0:	ff 90       	pop	r15
    4bf2:	ef 90       	pop	r14
    4bf4:	df 90       	pop	r13
    4bf6:	cf 90       	pop	r12
    4bf8:	bf 90       	pop	r11
    4bfa:	af 90       	pop	r10
    4bfc:	9f 90       	pop	r9
    4bfe:	8f 90       	pop	r8
    4c00:	08 95       	ret

00004c02 <CNT_Set>:

//=================================================================================================
void CNT_Set(void)								// лЎңл“ңм…Җ к°ҜмҲҳ м„Өм •
{
	FND_Value_Data(0, 2, 12);						// FND 0 ~ 2 FND_OFF
    4c02:	4c e0       	ldi	r20, 0x0C	; 12
    4c04:	62 e0       	ldi	r22, 0x02	; 2
    4c06:	80 e0       	ldi	r24, 0x00	; 0
    4c08:	0e 94 d2 05 	call	0xba4	; 0xba4 <FND_Value_Data>

	while(SET.Menu && SET.Select)						// л©”лүҙ мҷҖ м„ нғқ мқҙ лӘЁл‘җ 1 мқҙл©ҙ л°ҳліө
    4c0c:	43 c0       	rjmp	.+134    	; 0x4c94 <CNT_Set+0x92>
	{
		DIGIT[1][3] = FND_OFF;						// FND 0 м—җ cnt н‘ңмӢң
    4c0e:	e1 e9       	ldi	r30, 0x91	; 145
    4c10:	f1 e4       	ldi	r31, 0x41	; 65
    4c12:	17 82       	std	Z+7, r1	; 0x07
		DIGIT[0][2] = FND_c;
    4c14:	8a e1       	ldi	r24, 0x1A	; 26
    4c16:	82 83       	std	Z+2, r24	; 0x02
		DIGIT[0][1] = FND_n;
    4c18:	8a e2       	ldi	r24, 0x2A	; 42
    4c1a:	81 83       	std	Z+1, r24	; 0x01
		DIGIT[0][0] = FND_t;
    4c1c:	8e e1       	ldi	r24, 0x1E	; 30
    4c1e:	80 83       	st	Z, r24

		DIGIT[1][3] = FND_OFF;						// FND 1 OFF
		DIGIT[1][2] = FND_OFF;
    4c20:	16 82       	std	Z+6, r1	; 0x06
		DIGIT[1][1] = fnd_tbl[Cell_CNT / 10];				// FND 1 м—җ CNT лІҲнҳё н‘ңмӢң
    4c22:	20 91 96 51 	lds	r18, 0x5196	; 0x805196 <Cell_CNT>
    4c26:	8d ec       	ldi	r24, 0xCD	; 205
    4c28:	28 9f       	mul	r18, r24
    4c2a:	81 2d       	mov	r24, r1
    4c2c:	11 24       	eor	r1, r1
    4c2e:	86 95       	lsr	r24
    4c30:	86 95       	lsr	r24
    4c32:	86 95       	lsr	r24
    4c34:	a8 2f       	mov	r26, r24
    4c36:	b0 e0       	ldi	r27, 0x00	; 0
    4c38:	a5 5a       	subi	r26, 0xA5	; 165
    4c3a:	be 4b       	sbci	r27, 0xBE	; 190
    4c3c:	9c 91       	ld	r25, X
    4c3e:	95 83       	std	Z+5, r25	; 0x05
		DIGIT[1][0] = fnd_tbl[Cell_CNT % 10];
    4c40:	88 0f       	add	r24, r24
    4c42:	98 2f       	mov	r25, r24
    4c44:	99 0f       	add	r25, r25
    4c46:	99 0f       	add	r25, r25
    4c48:	89 0f       	add	r24, r25
    4c4a:	a2 2f       	mov	r26, r18
    4c4c:	a8 1b       	sub	r26, r24
    4c4e:	b0 e0       	ldi	r27, 0x00	; 0
    4c50:	a5 5a       	subi	r26, 0xA5	; 165
    4c52:	be 4b       	sbci	r27, 0xBE	; 190
    4c54:	8c 91       	ld	r24, X
    4c56:	84 83       	std	Z+4, r24	; 0x04

		DIGIT[2][0] = FND_OFF;						// лЎңл“ңм…Җ RO, мһ…кө¬мІҙмӨ‘ 1мқҳ мһҗлҰ¬ м§Җмҡ°кё°
    4c58:	10 86       	std	Z+8, r1	; 0x08

		if(KEY.Buff)							// Key мһ…л Ҙмқҙ мһҲмңјл©ҙ
    4c5a:	80 91 68 51 	lds	r24, 0x5168	; 0x805168 <KEY+0x1>
    4c5e:	88 23       	and	r24, r24
    4c60:	b9 f0       	breq	.+46     	; 0x4c90 <CNT_Set+0x8e>
		{
			if     (KEY.Key == 1 && Cell_CNT < 4) {Cell_CNT = Cell_CNT * 2; KEY.Key = 0;}		// м—…  лІ„нҠј мқҙл©ҙ к°ҜмҲҳ м„Өм •к°’ мҰқк°Җ
    4c62:	80 91 69 51 	lds	r24, 0x5169	; 0x805169 <KEY+0x2>
    4c66:	81 30       	cpi	r24, 0x01	; 1
    4c68:	41 f4       	brne	.+16     	; 0x4c7a <CNT_Set+0x78>
    4c6a:	24 30       	cpi	r18, 0x04	; 4
    4c6c:	30 f4       	brcc	.+12     	; 0x4c7a <CNT_Set+0x78>
    4c6e:	22 0f       	add	r18, r18
    4c70:	20 93 96 51 	sts	0x5196, r18	; 0x805196 <Cell_CNT>
    4c74:	10 92 69 51 	sts	0x5169, r1	; 0x805169 <KEY+0x2>
    4c78:	0b c0       	rjmp	.+22     	; 0x4c90 <CNT_Set+0x8e>
			else if(KEY.Key == 3 && Cell_CNT > 1) {Cell_CNT = Cell_CNT / 2; KEY.Key = 0;}		// лӢӨмҡҙлІ„нҠј мқҙл©ҙ к°ҜмҲҳ м„Өм •к°’ к°җмҶҢ
    4c7a:	80 91 69 51 	lds	r24, 0x5169	; 0x805169 <KEY+0x2>
    4c7e:	83 30       	cpi	r24, 0x03	; 3
    4c80:	39 f4       	brne	.+14     	; 0x4c90 <CNT_Set+0x8e>
    4c82:	22 30       	cpi	r18, 0x02	; 2
    4c84:	28 f0       	brcs	.+10     	; 0x4c90 <CNT_Set+0x8e>
    4c86:	26 95       	lsr	r18
    4c88:	20 93 96 51 	sts	0x5196, r18	; 0x805196 <Cell_CNT>
    4c8c:	10 92 69 51 	sts	0x5169, r1	; 0x805169 <KEY+0x2>
		}
		wdt_reset();							// мӣҢм№ҳлҸ… лҰ¬м…Ӣ
    4c90:	0e 94 8c 0e 	call	0x1d18	; 0x1d18 <wdt_reset>
//=================================================================================================
void CNT_Set(void)								// лЎңл“ңм…Җ к°ҜмҲҳ м„Өм •
{
	FND_Value_Data(0, 2, 12);						// FND 0 ~ 2 FND_OFF

	while(SET.Menu && SET.Select)						// л©”лүҙ мҷҖ м„ нғқ мқҙ лӘЁл‘җ 1 мқҙл©ҙ л°ҳліө
    4c94:	80 91 28 51 	lds	r24, 0x5128	; 0x805128 <SET>
    4c98:	88 23       	and	r24, r24
    4c9a:	21 f0       	breq	.+8      	; 0x4ca4 <CNT_Set+0xa2>
    4c9c:	80 91 29 51 	lds	r24, 0x5129	; 0x805129 <SET+0x1>
    4ca0:	81 11       	cpse	r24, r1
    4ca2:	b5 cf       	rjmp	.-150    	; 0x4c0e <CNT_Set+0xc>
			else if(KEY.Key == 3 && Cell_CNT > 1) {Cell_CNT = Cell_CNT / 2; KEY.Key = 0;}		// лӢӨмҡҙлІ„нҠј мқҙл©ҙ к°ҜмҲҳ м„Өм •к°’ к°җмҶҢ
		}
		wdt_reset();							// мӣҢм№ҳлҸ… лҰ¬м…Ӣ
	}
//-------------------------------------------------------------------------------------------------
	ee_write_byte(Cell_CNT_Addr, Cell_CNT);					// лЎңл“ңм…Җ мқҙл©ҙ к°ҜмҲҳ м„Өм •к°’мқ„ EEPROM м—җ м ҖмһҘ
    4ca4:	60 91 96 51 	lds	r22, 0x5196	; 0x805196 <Cell_CNT>
    4ca8:	84 e0       	ldi	r24, 0x04	; 4
    4caa:	90 e0       	ldi	r25, 0x00	; 0
    4cac:	0e 94 29 13 	call	0x2652	; 0x2652 <ee_write_byte>
    4cb0:	08 95       	ret

00004cb2 <ID_Set>:
}

//=================================================================================================
void ID_Set(void)								// ID м„Өм •
{
	FND_Value_Data(0, 2, 12);						// FND 0 ~ 2 FND_OFF
    4cb2:	4c e0       	ldi	r20, 0x0C	; 12
    4cb4:	62 e0       	ldi	r22, 0x02	; 2
    4cb6:	80 e0       	ldi	r24, 0x00	; 0
    4cb8:	0e 94 d2 05 	call	0xba4	; 0xba4 <FND_Value_Data>

	while(SET.Menu && SET.Select)						// л©”лүҙ мҷҖ м„ нғқ мқҙ лӘЁл‘җ 1 мқҙл©ҙ л°ҳліө
    4cbc:	43 c0       	rjmp	.+134    	; 0x4d44 <ID_Set+0x92>
	{
		DIGIT[0][3] = FND_OFF;						// FND 0 м—җ ID н‘ңмӢң
    4cbe:	e1 e9       	ldi	r30, 0x91	; 145
    4cc0:	f1 e4       	ldi	r31, 0x41	; 65
    4cc2:	13 82       	std	Z+3, r1	; 0x03
		DIGIT[0][2] = FND_I;
    4cc4:	80 e6       	ldi	r24, 0x60	; 96
    4cc6:	82 83       	std	Z+2, r24	; 0x02
		DIGIT[0][1] = FND_d;
    4cc8:	8a e7       	ldi	r24, 0x7A	; 122
    4cca:	81 83       	std	Z+1, r24	; 0x01
		DIGIT[0][0] = FND_OFF;
    4ccc:	10 82       	st	Z, r1

		DIGIT[1][3] = FND_OFF;						// FND 1 OFF
    4cce:	17 82       	std	Z+7, r1	; 0x07
		DIGIT[1][2] = FND_OFF;
    4cd0:	16 82       	std	Z+6, r1	; 0x06
		DIGIT[1][1] = fnd_tbl[Cell_ID / 10];				// FND 1 м—җ ID лІҲнҳё н‘ңмӢң
    4cd2:	20 91 02 51 	lds	r18, 0x5102	; 0x805102 <Cell_ID>
    4cd6:	8d ec       	ldi	r24, 0xCD	; 205
    4cd8:	28 9f       	mul	r18, r24
    4cda:	81 2d       	mov	r24, r1
    4cdc:	11 24       	eor	r1, r1
    4cde:	86 95       	lsr	r24
    4ce0:	86 95       	lsr	r24
    4ce2:	86 95       	lsr	r24
    4ce4:	a8 2f       	mov	r26, r24
    4ce6:	b0 e0       	ldi	r27, 0x00	; 0
    4ce8:	a5 5a       	subi	r26, 0xA5	; 165
    4cea:	be 4b       	sbci	r27, 0xBE	; 190
    4cec:	9c 91       	ld	r25, X
    4cee:	95 83       	std	Z+5, r25	; 0x05
		DIGIT[1][0] = fnd_tbl[Cell_ID % 10];
    4cf0:	88 0f       	add	r24, r24
    4cf2:	98 2f       	mov	r25, r24
    4cf4:	99 0f       	add	r25, r25
    4cf6:	99 0f       	add	r25, r25
    4cf8:	89 0f       	add	r24, r25
    4cfa:	a2 2f       	mov	r26, r18
    4cfc:	a8 1b       	sub	r26, r24
    4cfe:	b0 e0       	ldi	r27, 0x00	; 0
    4d00:	a5 5a       	subi	r26, 0xA5	; 165
    4d02:	be 4b       	sbci	r27, 0xBE	; 190
    4d04:	8c 91       	ld	r24, X
    4d06:	84 83       	std	Z+4, r24	; 0x04

		DIGIT[2][0] = FND_OFF;						// лЎңл“ңм…Җ RO, мһ…кө¬мІҙмӨ‘ 1мқҳ мһҗлҰ¬ м§Җмҡ°кё°
    4d08:	10 86       	std	Z+8, r1	; 0x08

		if(KEY.Buff)							// Key мһ…л Ҙмқҙ мһҲмңјл©ҙ
    4d0a:	80 91 68 51 	lds	r24, 0x5168	; 0x805168 <KEY+0x1>
    4d0e:	88 23       	and	r24, r24
    4d10:	b9 f0       	breq	.+46     	; 0x4d40 <ID_Set+0x8e>
		{
			if     (KEY.Key == 1 && Cell_ID < 60) {Cell_ID++; KEY.Key = 0;}				// м—…  лІ„нҠј мқҙл©ҙ IDк°’ мҰқк°Җ
    4d12:	80 91 69 51 	lds	r24, 0x5169	; 0x805169 <KEY+0x2>
    4d16:	81 30       	cpi	r24, 0x01	; 1
    4d18:	41 f4       	brne	.+16     	; 0x4d2a <ID_Set+0x78>
    4d1a:	2c 33       	cpi	r18, 0x3C	; 60
    4d1c:	30 f4       	brcc	.+12     	; 0x4d2a <ID_Set+0x78>
    4d1e:	2f 5f       	subi	r18, 0xFF	; 255
    4d20:	20 93 02 51 	sts	0x5102, r18	; 0x805102 <Cell_ID>
    4d24:	10 92 69 51 	sts	0x5169, r1	; 0x805169 <KEY+0x2>
    4d28:	0b c0       	rjmp	.+22     	; 0x4d40 <ID_Set+0x8e>
			else if(KEY.Key == 3 && Cell_ID > 0)  {Cell_ID--; KEY.Key = 0;}				// лӢӨмҡҙлІ„нҠј мқҙл©ҙ IDк°’ к°җмҶҢ
    4d2a:	80 91 69 51 	lds	r24, 0x5169	; 0x805169 <KEY+0x2>
    4d2e:	83 30       	cpi	r24, 0x03	; 3
    4d30:	39 f4       	brne	.+14     	; 0x4d40 <ID_Set+0x8e>
    4d32:	22 23       	and	r18, r18
    4d34:	29 f0       	breq	.+10     	; 0x4d40 <ID_Set+0x8e>
    4d36:	21 50       	subi	r18, 0x01	; 1
    4d38:	20 93 02 51 	sts	0x5102, r18	; 0x805102 <Cell_ID>
    4d3c:	10 92 69 51 	sts	0x5169, r1	; 0x805169 <KEY+0x2>
		}
		wdt_reset();							// мӣҢм№ҳлҸ… лҰ¬м…Ӣ
    4d40:	0e 94 8c 0e 	call	0x1d18	; 0x1d18 <wdt_reset>
//=================================================================================================
void ID_Set(void)								// ID м„Өм •
{
	FND_Value_Data(0, 2, 12);						// FND 0 ~ 2 FND_OFF

	while(SET.Menu && SET.Select)						// л©”лүҙ мҷҖ м„ нғқ мқҙ лӘЁл‘җ 1 мқҙл©ҙ л°ҳліө
    4d44:	80 91 28 51 	lds	r24, 0x5128	; 0x805128 <SET>
    4d48:	88 23       	and	r24, r24
    4d4a:	21 f0       	breq	.+8      	; 0x4d54 <ID_Set+0xa2>
    4d4c:	80 91 29 51 	lds	r24, 0x5129	; 0x805129 <SET+0x1>
    4d50:	81 11       	cpse	r24, r1
    4d52:	b5 cf       	rjmp	.-150    	; 0x4cbe <ID_Set+0xc>
			else if(KEY.Key == 3 && Cell_ID > 0)  {Cell_ID--; KEY.Key = 0;}				// лӢӨмҡҙлІ„нҠј мқҙл©ҙ IDк°’ к°җмҶҢ
		}
		wdt_reset();							// мӣҢм№ҳлҸ… лҰ¬м…Ӣ
	}
//-------------------------------------------------------------------------------------------------
	ee_write_byte(Cell_ID_Addr, Cell_ID);					// лЎңл“ңм…Җ мқҙл©ҙ ID лҘј EEPROM м—җ м ҖмһҘ
    4d54:	60 91 02 51 	lds	r22, 0x5102	; 0x805102 <Cell_ID>
    4d58:	83 e0       	ldi	r24, 0x03	; 3
    4d5a:	90 e0       	ldi	r25, 0x00	; 0
    4d5c:	0e 94 29 13 	call	0x2652	; 0x2652 <ee_write_byte>
    4d60:	08 95       	ret

00004d62 <Loadcell_Set>:
}

//=================================================================================================
void Loadcell_Set(void)								// лЎңл“ңм…Җ м„Өм •
{
    4d62:	2f 92       	push	r2
    4d64:	3f 92       	push	r3
    4d66:	4f 92       	push	r4
    4d68:	5f 92       	push	r5
    4d6a:	6f 92       	push	r6
    4d6c:	7f 92       	push	r7
    4d6e:	8f 92       	push	r8
    4d70:	9f 92       	push	r9
    4d72:	af 92       	push	r10
    4d74:	bf 92       	push	r11
    4d76:	cf 92       	push	r12
    4d78:	df 92       	push	r13
    4d7a:	ef 92       	push	r14
    4d7c:	ff 92       	push	r15
    4d7e:	0f 93       	push	r16
    4d80:	1f 93       	push	r17
    4d82:	cf 93       	push	r28
    4d84:	df 93       	push	r29
	uint8_t Count = 1;							// м№ҙмҡҙнҠё ліҖмҲҳ мҙҲкё°нҷ”

	SET.Select = 0;								// Select лІ„нҠј мҙҲкё°нҷ”
    4d86:	10 92 29 51 	sts	0x5129, r1	; 0x805129 <SET+0x1>
	FND_Value_Data(0, 2, 12);						// FND 0 ~ 2 FND_OFF
    4d8a:	4c e0       	ldi	r20, 0x0C	; 12
    4d8c:	62 e0       	ldi	r22, 0x02	; 2
    4d8e:	80 e0       	ldi	r24, 0x00	; 0
    4d90:	0e 94 d2 05 	call	0xba4	; 0xba4 <FND_Value_Data>
//-------------------------------------------------------------------------------------------------
	Cell_ID	  = ee_read_byte(Cell_ID_Addr);					// лЎңл“ңм…Җ ID к°’
    4d94:	83 e0       	ldi	r24, 0x03	; 3
    4d96:	90 e0       	ldi	r25, 0x00	; 0
    4d98:	0e 94 07 13 	call	0x260e	; 0x260e <ee_read_byte>
    4d9c:	80 93 02 51 	sts	0x5102, r24	; 0x805102 <Cell_ID>
	Cell_CNT  = ee_read_byte(Cell_CNT_Addr);				// лЎңл“ңм…Җ к°ҜмҲҳ м„Өм •к°’
    4da0:	84 e0       	ldi	r24, 0x04	; 4
    4da2:	90 e0       	ldi	r25, 0x00	; 0
    4da4:	0e 94 07 13 	call	0x260e	; 0x260e <ee_read_byte>
    4da8:	80 93 96 51 	sts	0x5196, r24	; 0x805196 <Cell_CNT>
	Cell_Capa = ee_read_word(Cell_Capa_Addr);				// лЎңл“ңм…Җ CAPA к°’
    4dac:	88 e0       	ldi	r24, 0x08	; 8
    4dae:	90 e0       	ldi	r25, 0x00	; 0
    4db0:	0e 94 11 13 	call	0x2622	; 0x2622 <ee_read_word>
    4db4:	a0 e0       	ldi	r26, 0x00	; 0
    4db6:	b0 e0       	ldi	r27, 0x00	; 0
    4db8:	80 93 83 51 	sts	0x5183, r24	; 0x805183 <Cell_Capa>
    4dbc:	90 93 84 51 	sts	0x5184, r25	; 0x805184 <Cell_Capa+0x1>
    4dc0:	a0 93 85 51 	sts	0x5185, r26	; 0x805185 <Cell_Capa+0x2>
    4dc4:	b0 93 86 51 	sts	0x5186, r27	; 0x805186 <Cell_Capa+0x3>
	RO	  = ee_read_dword(Cell_RO_Addr);				// лЎңл“ңм…Җ RO к°’
    4dc8:	8c e0       	ldi	r24, 0x0C	; 12
    4dca:	90 e0       	ldi	r25, 0x00	; 0
    4dcc:	0e 94 1c 13 	call	0x2638	; 0x2638 <ee_read_dword>
    4dd0:	dc 01       	movw	r26, r24
    4dd2:	cb 01       	movw	r24, r22
    4dd4:	80 93 2d 51 	sts	0x512D, r24	; 0x80512d <RO>
    4dd8:	90 93 2e 51 	sts	0x512E, r25	; 0x80512e <RO+0x1>
    4ddc:	a0 93 2f 51 	sts	0x512F, r26	; 0x80512f <RO+0x2>
    4de0:	b0 93 30 51 	sts	0x5130, r27	; 0x805130 <RO+0x3>
    4de4:	10 92 31 51 	sts	0x5131, r1	; 0x805131 <RO+0x4>
    4de8:	10 92 32 51 	sts	0x5132, r1	; 0x805132 <RO+0x5>
    4dec:	10 92 33 51 	sts	0x5133, r1	; 0x805133 <RO+0x6>
    4df0:	10 92 34 51 	sts	0x5134, r1	; 0x805134 <RO+0x7>
	IN_Scales = ee_read_word(Cell_IN_S_Addr);				// лЎңл“ңм…Җ мһ…кө¬мІҙмӨ‘ к°’
    4df4:	8a e0       	ldi	r24, 0x0A	; 10
    4df6:	90 e0       	ldi	r25, 0x00	; 0
    4df8:	0e 94 11 13 	call	0x2622	; 0x2622 <ee_read_word>
    4dfc:	ec 01       	movw	r28, r24
    4dfe:	80 93 21 51 	sts	0x5121, r24	; 0x805121 <IN_Scales>
    4e02:	90 93 22 51 	sts	0x5122, r25	; 0x805122 <IN_Scales+0x1>
//-------------------------------------------------------------------------------------------------
	CAPA_1000 = Cell_Capa / 1000;						// лЎңл“ңм…Җ CAPA 1000мқҳ мһҗлҰ¬
    4e06:	40 90 83 51 	lds	r4, 0x5183	; 0x805183 <Cell_Capa>
    4e0a:	50 90 84 51 	lds	r5, 0x5184	; 0x805184 <Cell_Capa+0x1>
    4e0e:	60 90 85 51 	lds	r6, 0x5185	; 0x805185 <Cell_Capa+0x2>
    4e12:	70 90 86 51 	lds	r7, 0x5186	; 0x805186 <Cell_Capa+0x3>
    4e16:	c3 01       	movw	r24, r6
    4e18:	b2 01       	movw	r22, r4
    4e1a:	28 ee       	ldi	r18, 0xE8	; 232
    4e1c:	33 e0       	ldi	r19, 0x03	; 3
    4e1e:	40 e0       	ldi	r20, 0x00	; 0
    4e20:	50 e0       	ldi	r21, 0x00	; 0
    4e22:	0e 94 9e 3b 	call	0x773c	; 0x773c <__udivmodsi4>
    4e26:	20 93 c1 41 	sts	0x41C1, r18	; 0x8041c1 <CAPA_1000>
	CAPA_100  = Cell_Capa % 1000 / 100;					// лЎңл“ңм…Җ CAPA  100мқҳ мһҗлҰ¬
    4e2a:	0f 2e       	mov	r0, r31
    4e2c:	f4 e6       	ldi	r31, 0x64	; 100
    4e2e:	8f 2e       	mov	r8, r31
    4e30:	91 2c       	mov	r9, r1
    4e32:	a1 2c       	mov	r10, r1
    4e34:	b1 2c       	mov	r11, r1
    4e36:	f0 2d       	mov	r31, r0
    4e38:	a5 01       	movw	r20, r10
    4e3a:	94 01       	movw	r18, r8
    4e3c:	0e 94 9e 3b 	call	0x773c	; 0x773c <__udivmodsi4>
    4e40:	20 93 7c 51 	sts	0x517C, r18	; 0x80517c <CAPA_100>
	CAPA_10   = Cell_Capa % 100 / 10;					// лЎңл“ңм…Җ CAPA   10мқҳ мһҗлҰ¬
    4e44:	c3 01       	movw	r24, r6
    4e46:	b2 01       	movw	r22, r4
    4e48:	a5 01       	movw	r20, r10
    4e4a:	94 01       	movw	r18, r8
    4e4c:	0e 94 9e 3b 	call	0x773c	; 0x773c <__udivmodsi4>
    4e50:	0f 2e       	mov	r0, r31
    4e52:	fa e0       	ldi	r31, 0x0A	; 10
    4e54:	8f 2e       	mov	r8, r31
    4e56:	91 2c       	mov	r9, r1
    4e58:	a1 2c       	mov	r10, r1
    4e5a:	b1 2c       	mov	r11, r1
    4e5c:	f0 2d       	mov	r31, r0
    4e5e:	a5 01       	movw	r20, r10
    4e60:	94 01       	movw	r18, r8
    4e62:	0e 94 9e 3b 	call	0x773c	; 0x773c <__udivmodsi4>
    4e66:	20 93 82 51 	sts	0x5182, r18	; 0x805182 <CAPA_10>
	CAPA_1    = Cell_Capa % 10;						// лЎңл“ңм…Җ CAPA    1мқҳ мһҗлҰ¬
    4e6a:	c3 01       	movw	r24, r6
    4e6c:	b2 01       	movw	r22, r4
    4e6e:	a5 01       	movw	r20, r10
    4e70:	94 01       	movw	r18, r8
    4e72:	0e 94 9e 3b 	call	0x773c	; 0x773c <__udivmodsi4>
    4e76:	60 93 4b 51 	sts	0x514B, r22	; 0x80514b <CAPA_1>
//-------------------------------------------------------------------------------------------------
	RO_10000 = RO / 10000;							// лЎңл“ңм…Җ RO 10000мқҳ мһҗлҰ¬
    4e7a:	20 90 2d 51 	lds	r2, 0x512D	; 0x80512d <RO>
    4e7e:	30 90 2e 51 	lds	r3, 0x512E	; 0x80512e <RO+0x1>
    4e82:	40 90 2f 51 	lds	r4, 0x512F	; 0x80512f <RO+0x2>
    4e86:	50 90 30 51 	lds	r5, 0x5130	; 0x805130 <RO+0x3>
    4e8a:	60 90 31 51 	lds	r6, 0x5131	; 0x805131 <RO+0x4>
    4e8e:	70 90 32 51 	lds	r7, 0x5132	; 0x805132 <RO+0x5>
    4e92:	80 90 33 51 	lds	r8, 0x5133	; 0x805133 <RO+0x6>
    4e96:	90 90 34 51 	lds	r9, 0x5134	; 0x805134 <RO+0x7>
    4e9a:	68 94       	set
    4e9c:	aa 24       	eor	r10, r10
    4e9e:	a4 f8       	bld	r10, 4
    4ea0:	0f 2e       	mov	r0, r31
    4ea2:	f7 e2       	ldi	r31, 0x27	; 39
    4ea4:	bf 2e       	mov	r11, r31
    4ea6:	f0 2d       	mov	r31, r0
    4ea8:	c1 2c       	mov	r12, r1
    4eaa:	d1 2c       	mov	r13, r1
    4eac:	e1 2c       	mov	r14, r1
    4eae:	f1 2c       	mov	r15, r1
    4eb0:	00 e0       	ldi	r16, 0x00	; 0
    4eb2:	10 e0       	ldi	r17, 0x00	; 0
    4eb4:	22 2d       	mov	r18, r2
    4eb6:	33 2d       	mov	r19, r3
    4eb8:	44 2d       	mov	r20, r4
    4eba:	55 2d       	mov	r21, r5
    4ebc:	66 2d       	mov	r22, r6
    4ebe:	77 2d       	mov	r23, r7
    4ec0:	88 2d       	mov	r24, r8
    4ec2:	99 2d       	mov	r25, r9
    4ec4:	0e 94 5d 3c 	call	0x78ba	; 0x78ba <__udivdi3>
    4ec8:	20 93 73 51 	sts	0x5173, r18	; 0x805173 <RO_10000>
    4ecc:	30 93 74 51 	sts	0x5174, r19	; 0x805174 <RO_10000+0x1>
    4ed0:	40 93 75 51 	sts	0x5175, r20	; 0x805175 <RO_10000+0x2>
    4ed4:	50 93 76 51 	sts	0x5176, r21	; 0x805176 <RO_10000+0x3>
    4ed8:	60 93 77 51 	sts	0x5177, r22	; 0x805177 <RO_10000+0x4>
    4edc:	70 93 78 51 	sts	0x5178, r23	; 0x805178 <RO_10000+0x5>
    4ee0:	80 93 79 51 	sts	0x5179, r24	; 0x805179 <RO_10000+0x6>
    4ee4:	90 93 7a 51 	sts	0x517A, r25	; 0x80517a <RO_10000+0x7>
	RO_1000  = RO % 10000 / 1000;						// лЎңл“ңм…Җ RO  1000мқҳ мһҗлҰ¬
    4ee8:	22 2d       	mov	r18, r2
    4eea:	33 2d       	mov	r19, r3
    4eec:	44 2d       	mov	r20, r4
    4eee:	55 2d       	mov	r21, r5
    4ef0:	66 2d       	mov	r22, r6
    4ef2:	77 2d       	mov	r23, r7
    4ef4:	88 2d       	mov	r24, r8
    4ef6:	99 2d       	mov	r25, r9
    4ef8:	0e 94 5b 3c 	call	0x78b6	; 0x78b6 <__umoddi3>
    4efc:	0f 2e       	mov	r0, r31
    4efe:	f8 ee       	ldi	r31, 0xE8	; 232
    4f00:	af 2e       	mov	r10, r31
    4f02:	f0 2d       	mov	r31, r0
    4f04:	0f 2e       	mov	r0, r31
    4f06:	f3 e0       	ldi	r31, 0x03	; 3
    4f08:	bf 2e       	mov	r11, r31
    4f0a:	f0 2d       	mov	r31, r0
    4f0c:	0e 94 5d 3c 	call	0x78ba	; 0x78ba <__udivdi3>
    4f10:	20 93 9c 52 	sts	0x529C, r18	; 0x80529c <RO_1000>
    4f14:	30 93 9d 52 	sts	0x529D, r19	; 0x80529d <RO_1000+0x1>
    4f18:	40 93 9e 52 	sts	0x529E, r20	; 0x80529e <RO_1000+0x2>
    4f1c:	50 93 9f 52 	sts	0x529F, r21	; 0x80529f <RO_1000+0x3>
    4f20:	60 93 a0 52 	sts	0x52A0, r22	; 0x8052a0 <RO_1000+0x4>
    4f24:	70 93 a1 52 	sts	0x52A1, r23	; 0x8052a1 <RO_1000+0x5>
    4f28:	80 93 a2 52 	sts	0x52A2, r24	; 0x8052a2 <RO_1000+0x6>
    4f2c:	90 93 a3 52 	sts	0x52A3, r25	; 0x8052a3 <RO_1000+0x7>
	RO_100   = RO % 1000 / 100;						// лЎңл“ңм…Җ RO   100мқҳ мһҗлҰ¬
    4f30:	22 2d       	mov	r18, r2
    4f32:	33 2d       	mov	r19, r3
    4f34:	44 2d       	mov	r20, r4
    4f36:	55 2d       	mov	r21, r5
    4f38:	66 2d       	mov	r22, r6
    4f3a:	77 2d       	mov	r23, r7
    4f3c:	88 2d       	mov	r24, r8
    4f3e:	99 2d       	mov	r25, r9
    4f40:	0e 94 5b 3c 	call	0x78b6	; 0x78b6 <__umoddi3>
    4f44:	0f 2e       	mov	r0, r31
    4f46:	f4 e6       	ldi	r31, 0x64	; 100
    4f48:	af 2e       	mov	r10, r31
    4f4a:	f0 2d       	mov	r31, r0
    4f4c:	b1 2c       	mov	r11, r1
    4f4e:	0e 94 5d 3c 	call	0x78ba	; 0x78ba <__udivdi3>
    4f52:	20 93 8b 51 	sts	0x518B, r18	; 0x80518b <RO_100>
    4f56:	30 93 8c 51 	sts	0x518C, r19	; 0x80518c <RO_100+0x1>
    4f5a:	40 93 8d 51 	sts	0x518D, r20	; 0x80518d <RO_100+0x2>
    4f5e:	50 93 8e 51 	sts	0x518E, r21	; 0x80518e <RO_100+0x3>
    4f62:	60 93 8f 51 	sts	0x518F, r22	; 0x80518f <RO_100+0x4>
    4f66:	70 93 90 51 	sts	0x5190, r23	; 0x805190 <RO_100+0x5>
    4f6a:	80 93 91 51 	sts	0x5191, r24	; 0x805191 <RO_100+0x6>
    4f6e:	90 93 92 51 	sts	0x5192, r25	; 0x805192 <RO_100+0x7>
	RO_10    = RO % 100 / 10;						// лЎңл“ңм…Җ RO    10мқҳ мһҗлҰ¬
    4f72:	22 2d       	mov	r18, r2
    4f74:	33 2d       	mov	r19, r3
    4f76:	44 2d       	mov	r20, r4
    4f78:	55 2d       	mov	r21, r5
    4f7a:	66 2d       	mov	r22, r6
    4f7c:	77 2d       	mov	r23, r7
    4f7e:	88 2d       	mov	r24, r8
    4f80:	99 2d       	mov	r25, r9
    4f82:	0e 94 5b 3c 	call	0x78b6	; 0x78b6 <__umoddi3>
    4f86:	0f 2e       	mov	r0, r31
    4f88:	fa e0       	ldi	r31, 0x0A	; 10
    4f8a:	af 2e       	mov	r10, r31
    4f8c:	f0 2d       	mov	r31, r0
    4f8e:	0e 94 5d 3c 	call	0x78ba	; 0x78ba <__udivdi3>
    4f92:	20 93 5a 51 	sts	0x515A, r18	; 0x80515a <RO_10>
    4f96:	30 93 5b 51 	sts	0x515B, r19	; 0x80515b <RO_10+0x1>
    4f9a:	40 93 5c 51 	sts	0x515C, r20	; 0x80515c <RO_10+0x2>
    4f9e:	50 93 5d 51 	sts	0x515D, r21	; 0x80515d <RO_10+0x3>
    4fa2:	60 93 5e 51 	sts	0x515E, r22	; 0x80515e <RO_10+0x4>
    4fa6:	70 93 5f 51 	sts	0x515F, r23	; 0x80515f <RO_10+0x5>
    4faa:	80 93 60 51 	sts	0x5160, r24	; 0x805160 <RO_10+0x6>
    4fae:	90 93 61 51 	sts	0x5161, r25	; 0x805161 <RO_10+0x7>
	RO_1     = RO % 10;							// лЎңл“ңм…Җ RO     1мқҳ мһҗлҰ¬
    4fb2:	22 2d       	mov	r18, r2
    4fb4:	33 2d       	mov	r19, r3
    4fb6:	44 2d       	mov	r20, r4
    4fb8:	55 2d       	mov	r21, r5
    4fba:	66 2d       	mov	r22, r6
    4fbc:	77 2d       	mov	r23, r7
    4fbe:	88 2d       	mov	r24, r8
    4fc0:	99 2d       	mov	r25, r9
    4fc2:	0e 94 5b 3c 	call	0x78b6	; 0x78b6 <__umoddi3>
    4fc6:	20 93 99 51 	sts	0x5199, r18	; 0x805199 <RO_1>
    4fca:	30 93 9a 51 	sts	0x519A, r19	; 0x80519a <RO_1+0x1>
    4fce:	40 93 9b 51 	sts	0x519B, r20	; 0x80519b <RO_1+0x2>
    4fd2:	50 93 9c 51 	sts	0x519C, r21	; 0x80519c <RO_1+0x3>
    4fd6:	60 93 9d 51 	sts	0x519D, r22	; 0x80519d <RO_1+0x4>
    4fda:	70 93 9e 51 	sts	0x519E, r23	; 0x80519e <RO_1+0x5>
    4fde:	80 93 9f 51 	sts	0x519F, r24	; 0x80519f <RO_1+0x6>
    4fe2:	90 93 a0 51 	sts	0x51A0, r25	; 0x8051a0 <RO_1+0x7>
//-------------------------------------------------------------------------------------------------
	IN_S_10000 = IN_Scales / 10000;						// мһ…кө¬ мІҙмӨ‘ 10.000kgмқҳ мһҗлҰ¬
    4fe6:	ce 01       	movw	r24, r28
    4fe8:	60 e1       	ldi	r22, 0x10	; 16
    4fea:	77 e2       	ldi	r23, 0x27	; 39
    4fec:	0e 94 8a 3b 	call	0x7714	; 0x7714 <__divmodhi4>
    4ff0:	60 93 23 51 	sts	0x5123, r22	; 0x805123 <IN_S_10000>
	IN_S_1000  = IN_Scales % 10000/ 1000;					// мһ…кө¬ мІҙмӨ‘  1.000kgмқҳ мһҗлҰ¬
    4ff4:	28 ee       	ldi	r18, 0xE8	; 232
    4ff6:	33 e0       	ldi	r19, 0x03	; 3
    4ff8:	b9 01       	movw	r22, r18
    4ffa:	0e 94 8a 3b 	call	0x7714	; 0x7714 <__divmodhi4>
    4ffe:	60 93 95 51 	sts	0x5195, r22	; 0x805195 <IN_S_1000>
	IN_S_100   = IN_Scales % 1000 / 100;					// мһ…кө¬ мІҙмӨ‘  0.100kgмқҳ мһҗлҰ¬
    5002:	ce 01       	movw	r24, r28
    5004:	b9 01       	movw	r22, r18
    5006:	0e 94 8a 3b 	call	0x7714	; 0x7714 <__divmodhi4>
    500a:	24 e6       	ldi	r18, 0x64	; 100
    500c:	30 e0       	ldi	r19, 0x00	; 0
    500e:	b9 01       	movw	r22, r18
    5010:	0e 94 8a 3b 	call	0x7714	; 0x7714 <__divmodhi4>
    5014:	60 93 25 51 	sts	0x5125, r22	; 0x805125 <IN_S_100>
	IN_S_10    = IN_Scales % 100 / 10;					// мһ…кө¬ мІҙмӨ‘  0.010kgмқҳ мһҗлҰ¬
    5018:	ce 01       	movw	r24, r28
    501a:	b9 01       	movw	r22, r18
    501c:	0e 94 8a 3b 	call	0x7714	; 0x7714 <__divmodhi4>
    5020:	2a e0       	ldi	r18, 0x0A	; 10
    5022:	30 e0       	ldi	r19, 0x00	; 0
    5024:	b9 01       	movw	r22, r18
    5026:	0e 94 8a 3b 	call	0x7714	; 0x7714 <__divmodhi4>
    502a:	60 93 07 51 	sts	0x5107, r22	; 0x805107 <IN_S_10>
	IN_S_1     = IN_Scales % 10;						// мһ…кө¬ мІҙмӨ‘  0.001kgмқҳ мһҗлҰ¬
    502e:	ce 01       	movw	r24, r28
    5030:	b9 01       	movw	r22, r18
    5032:	0e 94 8a 3b 	call	0x7714	; 0x7714 <__divmodhi4>
    5036:	80 93 80 51 	sts	0x5180, r24	; 0x805180 <IN_S_1>
}

//=================================================================================================
void Loadcell_Set(void)								// лЎңл“ңм…Җ м„Өм •
{
	uint8_t Count = 1;							// м№ҙмҡҙнҠё ліҖмҲҳ мҙҲкё°нҷ”
    503a:	c1 e0       	ldi	r28, 0x01	; 1
	IN_S_1000  = IN_Scales % 10000/ 1000;					// мһ…кө¬ мІҙмӨ‘  1.000kgмқҳ мһҗлҰ¬
	IN_S_100   = IN_Scales % 1000 / 100;					// мһ…кө¬ мІҙмӨ‘  0.100kgмқҳ мһҗлҰ¬
	IN_S_10    = IN_Scales % 100 / 10;					// мһ…кө¬ мІҙмӨ‘  0.010kgмқҳ мһҗлҰ¬
	IN_S_1     = IN_Scales % 10;						// мһ…кө¬ мІҙмӨ‘  0.001kgмқҳ мһҗлҰ¬
//-------------------------------------------------------------------------------------------------
	while(SET.Menu)								// л©”лүҙк°Җ 1 мқҙл©ҙ л°ҳліө
    503c:	64 c1       	rjmp	.+712    	; 0x5306 <Loadcell_Set+0x5a4>
	{
		if(KEY.Buff)							// Key мһ…л Ҙмқҙ мһҲмңјл©ҙ
    503e:	80 91 68 51 	lds	r24, 0x5168	; 0x805168 <KEY+0x1>
    5042:	88 23       	and	r24, r24
    5044:	99 f0       	breq	.+38     	; 0x506c <Loadcell_Set+0x30a>
		{
			if     (KEY.Key == 1 && Count < 7) {Count++; KEY.Key = 0;}				// м—…  лІ„нҠј мқҙл©ҙ Count мҰқк°Җ
    5046:	80 91 69 51 	lds	r24, 0x5169	; 0x805169 <KEY+0x2>
    504a:	81 30       	cpi	r24, 0x01	; 1
    504c:	31 f4       	brne	.+12     	; 0x505a <Loadcell_Set+0x2f8>
    504e:	c7 30       	cpi	r28, 0x07	; 7
    5050:	20 f4       	brcc	.+8      	; 0x505a <Loadcell_Set+0x2f8>
    5052:	cf 5f       	subi	r28, 0xFF	; 255
    5054:	10 92 69 51 	sts	0x5169, r1	; 0x805169 <KEY+0x2>
    5058:	09 c0       	rjmp	.+18     	; 0x506c <Loadcell_Set+0x30a>
			else if(KEY.Key == 3 && Count > 0) {Count--; KEY.Key = 0;}				// лӢӨмҡҙлІ„нҠј мқҙл©ҙ Count к°җмҶҢ
    505a:	80 91 69 51 	lds	r24, 0x5169	; 0x805169 <KEY+0x2>
    505e:	83 30       	cpi	r24, 0x03	; 3
    5060:	29 f4       	brne	.+10     	; 0x506c <Loadcell_Set+0x30a>
    5062:	cc 23       	and	r28, r28
    5064:	19 f0       	breq	.+6      	; 0x506c <Loadcell_Set+0x30a>
    5066:	c1 50       	subi	r28, 0x01	; 1
    5068:	10 92 69 51 	sts	0x5169, r1	; 0x805169 <KEY+0x2>
		}
		DIGIT[2][0] = fnd_tbl[Count];					// FND 2.0 м—җ Count н‘ңмӢң
    506c:	ec 2f       	mov	r30, r28
    506e:	f0 e0       	ldi	r31, 0x00	; 0
    5070:	e5 5a       	subi	r30, 0xA5	; 165
    5072:	fe 4b       	sbci	r31, 0xBE	; 190
    5074:	80 81       	ld	r24, Z
    5076:	80 93 99 41 	sts	0x4199, r24	; 0x804199 <DIGIT+0x8>

		switch(Count)							// Count
    507a:	8c 2f       	mov	r24, r28
    507c:	90 e0       	ldi	r25, 0x00	; 0
    507e:	88 30       	cpi	r24, 0x08	; 8
    5080:	91 05       	cpc	r25, r1
    5082:	08 f0       	brcs	.+2      	; 0x5086 <Loadcell_Set+0x324>
    5084:	3e c1       	rjmp	.+636    	; 0x5302 <Loadcell_Set+0x5a0>
    5086:	fc 01       	movw	r30, r24
    5088:	e9 57       	subi	r30, 0x79	; 121
    508a:	fc 4f       	sbci	r31, 0xFC	; 252
    508c:	0c 94 df 3b 	jmp	0x77be	; 0x77be <__tablejump2__>
			case 0:							// Count = 0 мқҙл©ҙ
				Count = 6;					// л°ҳліөмқ„ мң„н•ҙ Count лҘј мөңкі лЎң мҰқк°Җ мӢңнӮҙ
			break;

			case 1:							// Count = 1 мқҙл©ҙ
				DIGIT[0][3] = FND_OFF;				// FND 0 м—җ id н‘ңмӢң
    5090:	e1 e9       	ldi	r30, 0x91	; 145
    5092:	f1 e4       	ldi	r31, 0x41	; 65
    5094:	13 82       	std	Z+3, r1	; 0x03
				DIGIT[0][2] = FND_OFF;
    5096:	12 82       	std	Z+2, r1	; 0x02
				DIGIT[0][1] = FND_I;
    5098:	80 e6       	ldi	r24, 0x60	; 96
    509a:	81 83       	std	Z+1, r24	; 0x01
				DIGIT[0][0] = FND_d;
    509c:	8a e7       	ldi	r24, 0x7A	; 122
    509e:	80 83       	st	Z, r24

				DIGIT[1][3] = FND_OFF;				
    50a0:	17 82       	std	Z+7, r1	; 0x07
				DIGIT[1][2] = FND_OFF;
    50a2:	16 82       	std	Z+6, r1	; 0x06
				DIGIT[1][1] = fnd_tbl[Cell_ID / 10];		// FND 1 м—җ Cell_ID к°’ н‘ңмӢң
    50a4:	40 91 02 51 	lds	r20, 0x5102	; 0x805102 <Cell_ID>
    50a8:	8d ec       	ldi	r24, 0xCD	; 205
    50aa:	48 9f       	mul	r20, r24
    50ac:	81 2d       	mov	r24, r1
    50ae:	11 24       	eor	r1, r1
    50b0:	86 95       	lsr	r24
    50b2:	86 95       	lsr	r24
    50b4:	86 95       	lsr	r24
    50b6:	28 2f       	mov	r18, r24
    50b8:	30 e0       	ldi	r19, 0x00	; 0
    50ba:	25 5a       	subi	r18, 0xA5	; 165
    50bc:	3e 4b       	sbci	r19, 0xBE	; 190
    50be:	d9 01       	movw	r26, r18
    50c0:	9c 91       	ld	r25, X
    50c2:	95 83       	std	Z+5, r25	; 0x05
				DIGIT[1][0] = fnd_tbl[Cell_ID % 10];
    50c4:	88 0f       	add	r24, r24
    50c6:	98 2f       	mov	r25, r24
    50c8:	99 0f       	add	r25, r25
    50ca:	99 0f       	add	r25, r25
    50cc:	89 0f       	add	r24, r25
    50ce:	a4 2f       	mov	r26, r20
    50d0:	a8 1b       	sub	r26, r24
    50d2:	b0 e0       	ldi	r27, 0x00	; 0
    50d4:	a5 5a       	subi	r26, 0xA5	; 165
    50d6:	be 4b       	sbci	r27, 0xBE	; 190
    50d8:	8c 91       	ld	r24, X
    50da:	84 83       	std	Z+4, r24	; 0x04

				DIGIT[2][3] = FND_OFF;				// лЎңл“ңм…Җ RO, мһ…кө¬мІҙмӨ‘ 1мқҳ мһҗлҰ¬ м§Җмҡ°кё°
    50dc:	13 86       	std	Z+11, r1	; 0x0b

				if(SET.Select) {ID_Set();}			// Cell ID м„Өм •
    50de:	80 91 29 51 	lds	r24, 0x5129	; 0x805129 <SET+0x1>
    50e2:	88 23       	and	r24, r24
    50e4:	09 f4       	brne	.+2      	; 0x50e8 <Loadcell_Set+0x386>
    50e6:	0d c1       	rjmp	.+538    	; 0x5302 <Loadcell_Set+0x5a0>
    50e8:	0e 94 59 26 	call	0x4cb2	; 0x4cb2 <ID_Set>
    50ec:	0a c1       	rjmp	.+532    	; 0x5302 <Loadcell_Set+0x5a0>
			break;

			case 2:							// Count = 2 мқҙл©ҙ
				DIGIT[0][3] = FND_OFF;				// FND 0 м—җ cnt н‘ңмӢң
    50ee:	e1 e9       	ldi	r30, 0x91	; 145
    50f0:	f1 e4       	ldi	r31, 0x41	; 65
    50f2:	13 82       	std	Z+3, r1	; 0x03
				DIGIT[0][2] = FND_c;
    50f4:	8a e1       	ldi	r24, 0x1A	; 26
    50f6:	82 83       	std	Z+2, r24	; 0x02
				DIGIT[0][1] = FND_n;
    50f8:	8a e2       	ldi	r24, 0x2A	; 42
    50fa:	81 83       	std	Z+1, r24	; 0x01
				DIGIT[0][0] = FND_t;
    50fc:	8e e1       	ldi	r24, 0x1E	; 30
    50fe:	80 83       	st	Z, r24

				DIGIT[1][3] = FND_OFF;
    5100:	17 82       	std	Z+7, r1	; 0x07
				DIGIT[1][2] = FND_OFF;
    5102:	16 82       	std	Z+6, r1	; 0x06
				DIGIT[1][1] = fnd_tbl[Cell_CNT / 10];		// FND 1 м—җ к°ҜмҲҳ м„Өм •к°’ н‘ңмӢң
    5104:	40 91 96 51 	lds	r20, 0x5196	; 0x805196 <Cell_CNT>
    5108:	8d ec       	ldi	r24, 0xCD	; 205
    510a:	48 9f       	mul	r20, r24
    510c:	81 2d       	mov	r24, r1
    510e:	11 24       	eor	r1, r1
    5110:	86 95       	lsr	r24
    5112:	86 95       	lsr	r24
    5114:	86 95       	lsr	r24
    5116:	28 2f       	mov	r18, r24
    5118:	30 e0       	ldi	r19, 0x00	; 0
    511a:	25 5a       	subi	r18, 0xA5	; 165
    511c:	3e 4b       	sbci	r19, 0xBE	; 190
    511e:	d9 01       	movw	r26, r18
    5120:	9c 91       	ld	r25, X
    5122:	95 83       	std	Z+5, r25	; 0x05
				DIGIT[1][0] = fnd_tbl[Cell_CNT % 10];
    5124:	88 0f       	add	r24, r24
    5126:	98 2f       	mov	r25, r24
    5128:	99 0f       	add	r25, r25
    512a:	99 0f       	add	r25, r25
    512c:	89 0f       	add	r24, r25
    512e:	a4 2f       	mov	r26, r20
    5130:	a8 1b       	sub	r26, r24
    5132:	b0 e0       	ldi	r27, 0x00	; 0
    5134:	a5 5a       	subi	r26, 0xA5	; 165
    5136:	be 4b       	sbci	r27, 0xBE	; 190
    5138:	8c 91       	ld	r24, X
    513a:	84 83       	std	Z+4, r24	; 0x04

				DIGIT[2][3] = FND_OFF;				// лЎңл“ңм…Җ RO, мһ…кө¬мІҙмӨ‘ 1мқҳ мһҗлҰ¬ м§Җмҡ°кё°
    513c:	13 86       	std	Z+11, r1	; 0x0b

				if(SET.Select) {CNT_Set();}			// Cell к°ҜмҲҳ м„Өм •
    513e:	80 91 29 51 	lds	r24, 0x5129	; 0x805129 <SET+0x1>
    5142:	88 23       	and	r24, r24
    5144:	09 f4       	brne	.+2      	; 0x5148 <Loadcell_Set+0x3e6>
    5146:	dd c0       	rjmp	.+442    	; 0x5302 <Loadcell_Set+0x5a0>
    5148:	0e 94 01 26 	call	0x4c02	; 0x4c02 <CNT_Set>
    514c:	da c0       	rjmp	.+436    	; 0x5302 <Loadcell_Set+0x5a0>
			break;

			case 3:							// Count = 3 мқҙл©ҙ
				DIGIT[0][3] = FND_C;				// FND 0 м—җ Capa н‘ңмӢң
    514e:	e1 e9       	ldi	r30, 0x91	; 145
    5150:	f1 e4       	ldi	r31, 0x41	; 65
    5152:	8c e9       	ldi	r24, 0x9C	; 156
    5154:	83 83       	std	Z+3, r24	; 0x03
				DIGIT[0][2] = FND_a;
    5156:	8a ef       	ldi	r24, 0xFA	; 250
    5158:	82 83       	std	Z+2, r24	; 0x02
				DIGIT[0][1] = FND_P;
    515a:	9e ec       	ldi	r25, 0xCE	; 206
    515c:	91 83       	std	Z+1, r25	; 0x01
				DIGIT[0][0] = FND_a;
    515e:	80 83       	st	Z, r24

				DIGIT[1][3] = fnd_tbl[CAPA_1000];		// лЎңл“ңм…Җ CAPA 1000мқҳ мһҗлҰ¬
    5160:	a0 91 c1 41 	lds	r26, 0x41C1	; 0x8041c1 <CAPA_1000>
    5164:	b0 e0       	ldi	r27, 0x00	; 0
    5166:	a5 5a       	subi	r26, 0xA5	; 165
    5168:	be 4b       	sbci	r27, 0xBE	; 190
    516a:	8c 91       	ld	r24, X
    516c:	87 83       	std	Z+7, r24	; 0x07
				DIGIT[1][2] = fnd_tbl[CAPA_100 ];		// лЎңл“ңм…Җ CAPA  100мқҳ мһҗлҰ¬
    516e:	a0 91 7c 51 	lds	r26, 0x517C	; 0x80517c <CAPA_100>
    5172:	b0 e0       	ldi	r27, 0x00	; 0
    5174:	a5 5a       	subi	r26, 0xA5	; 165
    5176:	be 4b       	sbci	r27, 0xBE	; 190
    5178:	8c 91       	ld	r24, X
    517a:	86 83       	std	Z+6, r24	; 0x06
				DIGIT[1][1] = fnd_tbl[CAPA_10  ];		// лЎңл“ңм…Җ CAPA   10мқҳ мһҗлҰ¬
    517c:	a0 91 82 51 	lds	r26, 0x5182	; 0x805182 <CAPA_10>
    5180:	b0 e0       	ldi	r27, 0x00	; 0
    5182:	a5 5a       	subi	r26, 0xA5	; 165
    5184:	be 4b       	sbci	r27, 0xBE	; 190
    5186:	8c 91       	ld	r24, X
    5188:	85 83       	std	Z+5, r24	; 0x05
				DIGIT[1][0] = fnd_tbl[CAPA_1   ];		// лЎңл“ңм…Җ CAPA    1мқҳ мһҗлҰ¬
    518a:	a0 91 4b 51 	lds	r26, 0x514B	; 0x80514b <CAPA_1>
    518e:	b0 e0       	ldi	r27, 0x00	; 0
    5190:	a5 5a       	subi	r26, 0xA5	; 165
    5192:	be 4b       	sbci	r27, 0xBE	; 190
    5194:	8c 91       	ld	r24, X
    5196:	84 83       	std	Z+4, r24	; 0x04

				DIGIT[2][3] = FND_OFF;				// лЎңл“ңм…Җ RO, мһ…кө¬мІҙмӨ‘ 1мқҳ мһҗлҰ¬ м§Җмҡ°кё°
    5198:	13 86       	std	Z+11, r1	; 0x0b

				if(SET.Select) {CAPA_Set();}			// лЎңл“ңм…Җ CAPA м„Өм •
    519a:	80 91 29 51 	lds	r24, 0x5129	; 0x805129 <SET+0x1>
    519e:	88 23       	and	r24, r24
    51a0:	09 f4       	brne	.+2      	; 0x51a4 <Loadcell_Set+0x442>
    51a2:	af c0       	rjmp	.+350    	; 0x5302 <Loadcell_Set+0x5a0>
    51a4:	0e 94 5c 24 	call	0x48b8	; 0x48b8 <CAPA_Set>
    51a8:	ac c0       	rjmp	.+344    	; 0x5302 <Loadcell_Set+0x5a0>
			break;

			case 4:							// Count = 4 мқҙл©ҙ
				DIGIT[0][3] = FND_OFF;				// FND 0 м—җ ro н‘ңмӢң
    51aa:	e1 e9       	ldi	r30, 0x91	; 145
    51ac:	f1 e4       	ldi	r31, 0x41	; 65
    51ae:	13 82       	std	Z+3, r1	; 0x03
				DIGIT[0][2] = FND_OFF;
    51b0:	12 82       	std	Z+2, r1	; 0x02
				DIGIT[0][1] = FND_r;
    51b2:	8a e0       	ldi	r24, 0x0A	; 10
    51b4:	81 83       	std	Z+1, r24	; 0x01
				DIGIT[0][0] = FND_o;
    51b6:	8a e3       	ldi	r24, 0x3A	; 58
    51b8:	80 83       	st	Z, r24

				DIGIT[1][3] = fnd_tbl[RO_10000]+FND_Point;	// лЎңл“ңм…Җ RO 10000мқҳ мһҗлҰ¬ FND 1 м—җ RO к°’ н‘ңмӢң
    51ba:	a0 91 73 51 	lds	r26, 0x5173	; 0x805173 <RO_10000>
    51be:	b0 91 74 51 	lds	r27, 0x5174	; 0x805174 <RO_10000+0x1>
    51c2:	a5 5a       	subi	r26, 0xA5	; 165
    51c4:	be 4b       	sbci	r27, 0xBE	; 190
    51c6:	8c 91       	ld	r24, X
    51c8:	8f 5f       	subi	r24, 0xFF	; 255
    51ca:	87 83       	std	Z+7, r24	; 0x07
				DIGIT[1][2] = fnd_tbl[RO_1000 ];		// лЎңл“ңм…Җ RO  1000мқҳ мһҗлҰ¬
    51cc:	a0 91 9c 52 	lds	r26, 0x529C	; 0x80529c <RO_1000>
    51d0:	b0 91 9d 52 	lds	r27, 0x529D	; 0x80529d <RO_1000+0x1>
    51d4:	a5 5a       	subi	r26, 0xA5	; 165
    51d6:	be 4b       	sbci	r27, 0xBE	; 190
    51d8:	8c 91       	ld	r24, X
    51da:	86 83       	std	Z+6, r24	; 0x06
				DIGIT[1][1] = fnd_tbl[RO_100  ];		// лЎңл“ңм…Җ RO   100мқҳ мһҗлҰ¬
    51dc:	a0 91 8b 51 	lds	r26, 0x518B	; 0x80518b <RO_100>
    51e0:	b0 91 8c 51 	lds	r27, 0x518C	; 0x80518c <RO_100+0x1>
    51e4:	a5 5a       	subi	r26, 0xA5	; 165
    51e6:	be 4b       	sbci	r27, 0xBE	; 190
    51e8:	8c 91       	ld	r24, X
    51ea:	85 83       	std	Z+5, r24	; 0x05
				DIGIT[1][0] = fnd_tbl[RO_10   ];		// лЎңл“ңм…Җ RO    10мқҳ мһҗлҰ¬
    51ec:	a0 91 5a 51 	lds	r26, 0x515A	; 0x80515a <RO_10>
    51f0:	b0 91 5b 51 	lds	r27, 0x515B	; 0x80515b <RO_10+0x1>
    51f4:	a5 5a       	subi	r26, 0xA5	; 165
    51f6:	be 4b       	sbci	r27, 0xBE	; 190
    51f8:	8c 91       	ld	r24, X
    51fa:	84 83       	std	Z+4, r24	; 0x04

				DIGIT[2][3] = fnd_tbl[RO_1    ];		// лЎңл“ңм…Җ RO     1мқҳ мһҗлҰ¬ FND 2 м—җ ROк°’ н‘ңмӢң
    51fc:	a0 91 99 51 	lds	r26, 0x5199	; 0x805199 <RO_1>
    5200:	b0 91 9a 51 	lds	r27, 0x519A	; 0x80519a <RO_1+0x1>
    5204:	a5 5a       	subi	r26, 0xA5	; 165
    5206:	be 4b       	sbci	r27, 0xBE	; 190
    5208:	8c 91       	ld	r24, X
    520a:	83 87       	std	Z+11, r24	; 0x0b

				if(SET.Select) {RO_Set();}			// лЎңл“ңм…Җ RO м„Өм •
    520c:	80 91 29 51 	lds	r24, 0x5129	; 0x805129 <SET+0x1>
    5210:	88 23       	and	r24, r24
    5212:	09 f4       	brne	.+2      	; 0x5216 <Loadcell_Set+0x4b4>
    5214:	76 c0       	rjmp	.+236    	; 0x5302 <Loadcell_Set+0x5a0>
    5216:	0e 94 70 1c 	call	0x38e0	; 0x38e0 <RO_Set>
    521a:	73 c0       	rjmp	.+230    	; 0x5302 <Loadcell_Set+0x5a0>
			break;

			case 5:							// Count = 5 мқҙл©ҙ
				DIGIT[0][3] = FND_I;				// FND 0 м—җ IN-S н‘ңмӢң
    521c:	e1 e9       	ldi	r30, 0x91	; 145
    521e:	f1 e4       	ldi	r31, 0x41	; 65
    5220:	80 e6       	ldi	r24, 0x60	; 96
    5222:	83 83       	std	Z+3, r24	; 0x03
				DIGIT[0][2] = FND_N;
    5224:	8c ee       	ldi	r24, 0xEC	; 236
    5226:	82 83       	std	Z+2, r24	; 0x02
				DIGIT[0][1] = FND_MINUS;
    5228:	82 e0       	ldi	r24, 0x02	; 2
    522a:	81 83       	std	Z+1, r24	; 0x01
				DIGIT[0][0] = FND_S;
    522c:	86 eb       	ldi	r24, 0xB6	; 182
    522e:	80 83       	st	Z, r24

				DIGIT[1][3] = fnd_tbl[IN_S_10000];		// мһ…кө¬ мІҙмӨ‘ 10.000kgмқҳ мһҗлҰ¬ FND 1 м—җ мһ…кө¬мІҙмӨ‘к°’ н‘ңмӢң
    5230:	a0 91 23 51 	lds	r26, 0x5123	; 0x805123 <IN_S_10000>
    5234:	b0 e0       	ldi	r27, 0x00	; 0
    5236:	a5 5a       	subi	r26, 0xA5	; 165
    5238:	be 4b       	sbci	r27, 0xBE	; 190
    523a:	8c 91       	ld	r24, X
    523c:	87 83       	std	Z+7, r24	; 0x07
				DIGIT[1][2] = fnd_tbl[IN_S_1000]+FND_Point;	// мһ…кө¬ мІҙмӨ‘  1.000kgмқҳ мһҗлҰ¬
    523e:	a0 91 95 51 	lds	r26, 0x5195	; 0x805195 <IN_S_1000>
    5242:	b0 e0       	ldi	r27, 0x00	; 0
    5244:	a5 5a       	subi	r26, 0xA5	; 165
    5246:	be 4b       	sbci	r27, 0xBE	; 190
    5248:	8c 91       	ld	r24, X
    524a:	8f 5f       	subi	r24, 0xFF	; 255
    524c:	86 83       	std	Z+6, r24	; 0x06
				DIGIT[1][1] = fnd_tbl[IN_S_100];		// мһ…кө¬ мІҙмӨ‘  0.100kgмқҳ мһҗлҰ¬
    524e:	a0 91 25 51 	lds	r26, 0x5125	; 0x805125 <IN_S_100>
    5252:	b0 e0       	ldi	r27, 0x00	; 0
    5254:	a5 5a       	subi	r26, 0xA5	; 165
    5256:	be 4b       	sbci	r27, 0xBE	; 190
    5258:	8c 91       	ld	r24, X
    525a:	85 83       	std	Z+5, r24	; 0x05
				DIGIT[1][0] = fnd_tbl[IN_S_10];			// мһ…кө¬ мІҙмӨ‘  0.010kgмқҳ мһҗлҰ¬
    525c:	a0 91 07 51 	lds	r26, 0x5107	; 0x805107 <IN_S_10>
    5260:	b0 e0       	ldi	r27, 0x00	; 0
    5262:	a5 5a       	subi	r26, 0xA5	; 165
    5264:	be 4b       	sbci	r27, 0xBE	; 190
    5266:	8c 91       	ld	r24, X
    5268:	84 83       	std	Z+4, r24	; 0x04
				DIGIT[2][3] = fnd_tbl[IN_S_1];			// мһ…кө¬ мІҙмӨ‘  0.001kgмқҳ мһҗлҰ¬ FND 2 м—җ мһ…кө¬мІҙмӨ‘к°’ н‘ңмӢң
    526a:	a0 91 80 51 	lds	r26, 0x5180	; 0x805180 <IN_S_1>
    526e:	b0 e0       	ldi	r27, 0x00	; 0
    5270:	a5 5a       	subi	r26, 0xA5	; 165
    5272:	be 4b       	sbci	r27, 0xBE	; 190
    5274:	8c 91       	ld	r24, X
    5276:	83 87       	std	Z+11, r24	; 0x0b

				if(SET.Select) {IN_Scales_Set();}		// лЎңл“ңм…Җ мһ…кө¬мІҙмӨ‘ м„Өм •
    5278:	80 91 29 51 	lds	r24, 0x5129	; 0x805129 <SET+0x1>
    527c:	88 23       	and	r24, r24
    527e:	09 f4       	brne	.+2      	; 0x5282 <Loadcell_Set+0x520>
    5280:	40 c0       	rjmp	.+128    	; 0x5302 <Loadcell_Set+0x5a0>
    5282:	0e 94 ba 1a 	call	0x3574	; 0x3574 <IN_Scales_Set>
    5286:	3d c0       	rjmp	.+122    	; 0x5302 <Loadcell_Set+0x5a0>
			break;

			case 6:							// Count = 6 мқҙл©ҙ
				DIGIT[0][3] = FND_S;				// FND 0 м—җ Scal н‘ңмӢң
    5288:	e1 e9       	ldi	r30, 0x91	; 145
    528a:	f1 e4       	ldi	r31, 0x41	; 65
    528c:	86 eb       	ldi	r24, 0xB6	; 182
    528e:	83 83       	std	Z+3, r24	; 0x03
				DIGIT[0][2] = FND_c;
    5290:	8a e1       	ldi	r24, 0x1A	; 26
    5292:	82 83       	std	Z+2, r24	; 0x02
				DIGIT[0][1] = FND_a;
    5294:	8a ef       	ldi	r24, 0xFA	; 250
    5296:	81 83       	std	Z+1, r24	; 0x01
				DIGIT[0][0] = FND_l;
    5298:	80 e6       	ldi	r24, 0x60	; 96
    529a:	80 83       	st	Z, r24

				DIGIT[1][3] = fnd_tbl[RO_10000]+FND_Point;	// лЎңл“ңм…Җ RO 10000мқҳ мһҗлҰ¬ FND 1 м—җ RO к°’ н‘ңмӢң
    529c:	a0 91 73 51 	lds	r26, 0x5173	; 0x805173 <RO_10000>
    52a0:	b0 91 74 51 	lds	r27, 0x5174	; 0x805174 <RO_10000+0x1>
    52a4:	a5 5a       	subi	r26, 0xA5	; 165
    52a6:	be 4b       	sbci	r27, 0xBE	; 190
    52a8:	8c 91       	ld	r24, X
    52aa:	8f 5f       	subi	r24, 0xFF	; 255
    52ac:	87 83       	std	Z+7, r24	; 0x07
				DIGIT[1][2] = fnd_tbl[RO_1000 ];		// лЎңл“ңм…Җ RO  1000мқҳ мһҗлҰ¬
    52ae:	a0 91 9c 52 	lds	r26, 0x529C	; 0x80529c <RO_1000>
    52b2:	b0 91 9d 52 	lds	r27, 0x529D	; 0x80529d <RO_1000+0x1>
    52b6:	a5 5a       	subi	r26, 0xA5	; 165
    52b8:	be 4b       	sbci	r27, 0xBE	; 190
    52ba:	8c 91       	ld	r24, X
    52bc:	86 83       	std	Z+6, r24	; 0x06
				DIGIT[1][1] = fnd_tbl[RO_100  ];		// лЎңл“ңм…Җ RO   100мқҳ мһҗлҰ¬
    52be:	a0 91 8b 51 	lds	r26, 0x518B	; 0x80518b <RO_100>
    52c2:	b0 91 8c 51 	lds	r27, 0x518C	; 0x80518c <RO_100+0x1>
    52c6:	a5 5a       	subi	r26, 0xA5	; 165
    52c8:	be 4b       	sbci	r27, 0xBE	; 190
    52ca:	8c 91       	ld	r24, X
    52cc:	85 83       	std	Z+5, r24	; 0x05
				DIGIT[1][0] = fnd_tbl[RO_10   ];		// лЎңл“ңм…Җ RO    10мқҳ мһҗлҰ¬
    52ce:	a0 91 5a 51 	lds	r26, 0x515A	; 0x80515a <RO_10>
    52d2:	b0 91 5b 51 	lds	r27, 0x515B	; 0x80515b <RO_10+0x1>
    52d6:	a5 5a       	subi	r26, 0xA5	; 165
    52d8:	be 4b       	sbci	r27, 0xBE	; 190
    52da:	8c 91       	ld	r24, X
    52dc:	84 83       	std	Z+4, r24	; 0x04

				DIGIT[2][3] = fnd_tbl[RO_1    ];		// лЎңл“ңм…Җ RO     1мқҳ мһҗлҰ¬ FND 2 м—җ ROк°’ н‘ңмӢң
    52de:	a0 91 99 51 	lds	r26, 0x5199	; 0x805199 <RO_1>
    52e2:	b0 91 9a 51 	lds	r27, 0x519A	; 0x80519a <RO_1+0x1>
    52e6:	a5 5a       	subi	r26, 0xA5	; 165
    52e8:	be 4b       	sbci	r27, 0xBE	; 190
    52ea:	8c 91       	ld	r24, X
    52ec:	83 87       	std	Z+11, r24	; 0x0b

				if(SET.Select) {Interval_Set();}		// лЎңл“ңм…Җ RO м„Өм •
    52ee:	80 91 29 51 	lds	r24, 0x5129	; 0x805129 <SET+0x1>
    52f2:	88 23       	and	r24, r24
    52f4:	31 f0       	breq	.+12     	; 0x5302 <Loadcell_Set+0x5a0>
    52f6:	0e 94 a4 21 	call	0x4348	; 0x4348 <Interval_Set>
    52fa:	03 c0       	rjmp	.+6      	; 0x5302 <Loadcell_Set+0x5a0>
			break;

			case 7:							// Count = 7 мқҙл©ҙ
				Count = 1;					// л°ҳліөмқ„ мң„н•ҙ Count лҘј мөңм ҖлЎң к°җмҶҢ мӢңнӮҙ
    52fc:	c1 e0       	ldi	r28, 0x01	; 1
			break;
    52fe:	01 c0       	rjmp	.+2      	; 0x5302 <Loadcell_Set+0x5a0>
		DIGIT[2][0] = fnd_tbl[Count];					// FND 2.0 м—җ Count н‘ңмӢң

		switch(Count)							// Count
		{
			case 0:							// Count = 0 мқҙл©ҙ
				Count = 6;					// л°ҳліөмқ„ мң„н•ҙ Count лҘј мөңкі лЎң мҰқк°Җ мӢңнӮҙ
    5300:	c6 e0       	ldi	r28, 0x06	; 6

			case 7:							// Count = 7 мқҙл©ҙ
				Count = 1;					// л°ҳліөмқ„ мң„н•ҙ Count лҘј мөңм ҖлЎң к°җмҶҢ мӢңнӮҙ
			break;
		}
		wdt_reset();							// мӣҢм№ҳлҸ… лҰ¬м…Ӣ
    5302:	0e 94 8c 0e 	call	0x1d18	; 0x1d18 <wdt_reset>
	IN_S_1000  = IN_Scales % 10000/ 1000;					// мһ…кө¬ мІҙмӨ‘  1.000kgмқҳ мһҗлҰ¬
	IN_S_100   = IN_Scales % 1000 / 100;					// мһ…кө¬ мІҙмӨ‘  0.100kgмқҳ мһҗлҰ¬
	IN_S_10    = IN_Scales % 100 / 10;					// мһ…кө¬ мІҙмӨ‘  0.010kgмқҳ мһҗлҰ¬
	IN_S_1     = IN_Scales % 10;						// мһ…кө¬ мІҙмӨ‘  0.001kgмқҳ мһҗлҰ¬
//-------------------------------------------------------------------------------------------------
	while(SET.Menu)								// л©”лүҙк°Җ 1 мқҙл©ҙ л°ҳліө
    5306:	80 91 28 51 	lds	r24, 0x5128	; 0x805128 <SET>
    530a:	81 11       	cpse	r24, r1
    530c:	98 ce       	rjmp	.-720    	; 0x503e <Loadcell_Set+0x2dc>
				Count = 1;					// л°ҳліөмқ„ мң„н•ҙ Count лҘј мөңм ҖлЎң к°җмҶҢ мӢңнӮҙ
			break;
		}
		wdt_reset();							// мӣҢм№ҳлҸ… лҰ¬м…Ӣ
	}
}
    530e:	df 91       	pop	r29
    5310:	cf 91       	pop	r28
    5312:	1f 91       	pop	r17
    5314:	0f 91       	pop	r16
    5316:	ff 90       	pop	r15
    5318:	ef 90       	pop	r14
    531a:	df 90       	pop	r13
    531c:	cf 90       	pop	r12
    531e:	bf 90       	pop	r11
    5320:	af 90       	pop	r10
    5322:	9f 90       	pop	r9
    5324:	8f 90       	pop	r8
    5326:	7f 90       	pop	r7
    5328:	6f 90       	pop	r6
    532a:	5f 90       	pop	r5
    532c:	4f 90       	pop	r4
    532e:	3f 90       	pop	r3
    5330:	2f 90       	pop	r2
    5332:	08 95       	ret

00005334 <protected_write_io>:
    5334:	1b be       	out	0x3b, r1	; 59
    5336:	fc 01       	movw	r30, r24
    5338:	64 bf       	out	0x34, r22	; 52
    533a:	40 83       	st	Z, r20
    533c:	08 95       	ret

0000533e <RTC_Single_Read>:
uint8_t RTC_Single_Read(uint8_t reg)						// RTC 1Byte Data АРұв
{
	uint8_t data	= 0;							// data әҜјц ГКұвИӯ
	uint8_t retData = 0;							// retData әҜјц ГКұвИӯ

	data = I2C_0_read1ByteRegister(RTC_ADDRESS, reg);			// 1Byte Data АРұв
    533e:	68 2f       	mov	r22, r24
    5340:	88 e6       	ldi	r24, 0x68	; 104
    5342:	0e 94 e2 17 	call	0x2fc4	; 0x2fc4 <I2C_0_read1ByteRegister>
	retData = ((data >> 4) * 10) + (data & 0x0F);				// 1010АЗ АЪё®, 1АЗ АЪё® әҜИҜ
    5346:	98 2f       	mov	r25, r24
    5348:	92 95       	swap	r25
    534a:	9f 70       	andi	r25, 0x0F	; 15
    534c:	99 0f       	add	r25, r25
    534e:	29 2f       	mov	r18, r25
    5350:	22 0f       	add	r18, r18
    5352:	22 0f       	add	r18, r18
    5354:	92 0f       	add	r25, r18
    5356:	8f 70       	andi	r24, 0x0F	; 15

	return retData;								// ё®ЕП retData
}
    5358:	89 0f       	add	r24, r25
    535a:	08 95       	ret

0000535c <RTC_Time_Read>:

//=================================================================================================
void RTC_Time_Read(void)							// RTC Data АРұв
{
    535c:	cf 93       	push	r28
    535e:	df 93       	push	r29
	RTC_T.Year  = RTC_Single_Read(RTC_YEAR);				// YEAR
    5360:	86 e0       	ldi	r24, 0x06	; 6
    5362:	0e 94 9f 29 	call	0x533e	; 0x533e <RTC_Single_Read>
    5366:	c2 e5       	ldi	r28, 0x52	; 82
    5368:	d1 e5       	ldi	r29, 0x51	; 81
    536a:	8e 83       	std	Y+6, r24	; 0x06
	RTC_T.Month = RTC_Single_Read(RTC_MONTH);				// MONTH
    536c:	85 e0       	ldi	r24, 0x05	; 5
    536e:	0e 94 9f 29 	call	0x533e	; 0x533e <RTC_Single_Read>
    5372:	8d 83       	std	Y+5, r24	; 0x05
	RTC_T.Date  = RTC_Single_Read(RTC_DATE);				// DATE
    5374:	84 e0       	ldi	r24, 0x04	; 4
    5376:	0e 94 9f 29 	call	0x533e	; 0x533e <RTC_Single_Read>
    537a:	8c 83       	std	Y+4, r24	; 0x04
	RTC_T.Day   = RTC_Single_Read(RTC_DAYOFWEEK);				// DAYOFWEEK ҝдАП
    537c:	83 e0       	ldi	r24, 0x03	; 3
    537e:	0e 94 9f 29 	call	0x533e	; 0x533e <RTC_Single_Read>
    5382:	8b 83       	std	Y+3, r24	; 0x03
	RTC_T.Hour  = RTC_Single_Read(RTC_HOUR);				// HOUR
    5384:	82 e0       	ldi	r24, 0x02	; 2
    5386:	0e 94 9f 29 	call	0x533e	; 0x533e <RTC_Single_Read>
    538a:	8a 83       	std	Y+2, r24	; 0x02
	RTC_T.Min   = RTC_Single_Read(RTC_MINUTE);				// MINUTE
    538c:	81 e0       	ldi	r24, 0x01	; 1
    538e:	0e 94 9f 29 	call	0x533e	; 0x533e <RTC_Single_Read>
    5392:	89 83       	std	Y+1, r24	; 0x01
	RTC_T.Sec   = RTC_Single_Read(RTC_SECOND);				// SECOND
    5394:	80 e0       	ldi	r24, 0x00	; 0
    5396:	0e 94 9f 29 	call	0x533e	; 0x533e <RTC_Single_Read>
    539a:	88 83       	st	Y, r24
}
    539c:	df 91       	pop	r29
    539e:	cf 91       	pop	r28
    53a0:	08 95       	ret

000053a2 <RTC_Single_Write>:

//=================================================================================================
void RTC_Single_Write(uint8_t reg, uint8_t wData)				// RTC 1Byte Data ҫІұв
{
	uint8_t bcdData = ((wData / 10) << 4) | ((wData % 10) & 0x0F);		// 1010АЗ АЪё®, 1АЗ АЪё® әҙГd
    53a2:	9d ec       	ldi	r25, 0xCD	; 205
    53a4:	69 9f       	mul	r22, r25
    53a6:	91 2d       	mov	r25, r1
    53a8:	11 24       	eor	r1, r1
    53aa:	96 95       	lsr	r25
    53ac:	96 95       	lsr	r25
    53ae:	96 95       	lsr	r25
    53b0:	20 e1       	ldi	r18, 0x10	; 16
    53b2:	92 9f       	mul	r25, r18
    53b4:	a0 01       	movw	r20, r0
    53b6:	11 24       	eor	r1, r1
    53b8:	99 0f       	add	r25, r25
    53ba:	29 2f       	mov	r18, r25
    53bc:	22 0f       	add	r18, r18
    53be:	22 0f       	add	r18, r18
    53c0:	92 0f       	add	r25, r18
    53c2:	69 1b       	sub	r22, r25
    53c4:	6f 70       	andi	r22, 0x0F	; 15
    53c6:	46 2b       	or	r20, r22
	I2C_0_write1ByteRegister(RTC_ADDRESS, (uint8_t)reg, bcdData);		// 1Byte Data ҫІұв
    53c8:	68 2f       	mov	r22, r24
    53ca:	88 e6       	ldi	r24, 0x68	; 104
    53cc:	0e 94 9e 17 	call	0x2f3c	; 0x2f3c <I2C_0_write1ByteRegister>
    53d0:	08 95       	ret

000053d2 <RTC_Time_Write>:
}

//=================================================================================================
void RTC_Time_Write(uint8_t item, uint8_t value)				// RTC Data ҫІұв
{
    53d2:	96 2f       	mov	r25, r22
	uint8_t data = 0;							// data әҜјц ГКұвИӯ

	switch(item)								// item
    53d4:	48 2f       	mov	r20, r24
    53d6:	50 e0       	ldi	r21, 0x00	; 0
    53d8:	47 30       	cpi	r20, 0x07	; 7
    53da:	51 05       	cpc	r21, r1
    53dc:	18 f5       	brcc	.+70     	; 0x5424 <RTC_Time_Write+0x52>
    53de:	fa 01       	movw	r30, r20
    53e0:	e1 57       	subi	r30, 0x71	; 113
    53e2:	fc 4f       	sbci	r31, 0xFC	; 252
    53e4:	0c 94 df 3b 	jmp	0x77be	; 0x77be <__tablejump2__>
	{
		case RTC_SECOND:						// ГК
			if(value > 59) {data = 0;}				// 59ГК АМ»уАМёй 0ГК·О ГКұвИӯ
    53e8:	9c 33       	cpi	r25, 0x3C	; 60
    53ea:	e8 f0       	brcs	.+58     	; 0x5426 <RTC_Time_Write+0x54>
    53ec:	90 e0       	ldi	r25, 0x00	; 0
    53ee:	1b c0       	rjmp	.+54     	; 0x5426 <RTC_Time_Write+0x54>
			else	       {data = value;}				// ҫЖҙПёй value АъАе
		break;

		case RTC_MINUTE:						// әР
			if(value > 59) {data = 0;}				// 59әР АМ»уАМёй 0әРАё·О ГКұвИӯ
    53f0:	9c 33       	cpi	r25, 0x3C	; 60
    53f2:	c8 f0       	brcs	.+50     	; 0x5426 <RTC_Time_Write+0x54>
    53f4:	90 e0       	ldi	r25, 0x00	; 0
    53f6:	17 c0       	rjmp	.+46     	; 0x5426 <RTC_Time_Write+0x54>
			else	       {data = value;}				// ҫЖҙПёй value АъАе
		break;

		case RTC_HOUR:							// ҪГ
			if(value > 23) {data = 0;}				// 23ҪГ АМ»уАМёй 0ҪГ·О ГКұвИӯ
    53f8:	98 31       	cpi	r25, 0x18	; 24
    53fa:	a8 f0       	brcs	.+42     	; 0x5426 <RTC_Time_Write+0x54>
    53fc:	90 e0       	ldi	r25, 0x00	; 0
    53fe:	13 c0       	rjmp	.+38     	; 0x5426 <RTC_Time_Write+0x54>
			else	       {data = value;}				// ҫЖҙПёй value АъАе
		break;

		case RTC_DAYOFWEEK:						// ҝдАП 1(АПҝдАП) ~ 7(ЕдҝдАП) »зҝл
			if(value > 7 || value == 0) {data = 1;}			// 7 АМ»у АМ°ЕіӘ 0 АМёй 1(АП)·О ГКұвИӯ
    5400:	2f ef       	ldi	r18, 0xFF	; 255
    5402:	29 0f       	add	r18, r25
    5404:	27 30       	cpi	r18, 0x07	; 7
    5406:	78 f0       	brcs	.+30     	; 0x5426 <RTC_Time_Write+0x54>
    5408:	91 e0       	ldi	r25, 0x01	; 1
    540a:	0d c0       	rjmp	.+26     	; 0x5426 <RTC_Time_Write+0x54>
			else			    {data = value;}		// ҫЖҙПёй value АъАе
		break;

		case RTC_DATE:							// АП
			if(value > 31) {data = 1;}				// 31АП АМ»уАМёй 1АП·О ГКұвИӯ
    540c:	90 32       	cpi	r25, 0x20	; 32
    540e:	58 f0       	brcs	.+22     	; 0x5426 <RTC_Time_Write+0x54>
    5410:	91 e0       	ldi	r25, 0x01	; 1
    5412:	09 c0       	rjmp	.+18     	; 0x5426 <RTC_Time_Write+0x54>
			else	       {data = value;}				// ҫЖҙПёй value АъАе
		break;

		case RTC_MONTH:							// ҝщ
			if(value > 12) {data = 1;}				// 12ҝщ АМ»уАМёй 1ҝщ·О ГКұвИӯ
    5414:	9d 30       	cpi	r25, 0x0D	; 13
    5416:	38 f0       	brcs	.+14     	; 0x5426 <RTC_Time_Write+0x54>
    5418:	91 e0       	ldi	r25, 0x01	; 1
    541a:	05 c0       	rjmp	.+10     	; 0x5426 <RTC_Time_Write+0x54>
			else	       {data = value;}				// ҫЖҙПёй value АъАе
		break;

		case RTC_YEAR:							// ів
			if(value == 0) {data = 21;}				// 00ів АМёй 21ів Аё·О ГКұвИӯ
    541c:	91 11       	cpse	r25, r1
    541e:	03 c0       	rjmp	.+6      	; 0x5426 <RTC_Time_Write+0x54>
    5420:	95 e1       	ldi	r25, 0x15	; 21
    5422:	01 c0       	rjmp	.+2      	; 0x5426 <RTC_Time_Write+0x54>
}

//=================================================================================================
void RTC_Time_Write(uint8_t item, uint8_t value)				// RTC Data ҫІұв
{
	uint8_t data = 0;							// data әҜјц ГКұвИӯ
    5424:	90 e0       	ldi	r25, 0x00	; 0
		case RTC_YEAR:							// ів
			if(value == 0) {data = 21;}				// 00ів АМёй 21ів Аё·О ГКұвИӯ
			else	       {data = value;}				// ҫЖҙПёй value АъАе
		break;
	}
	RTC_Single_Write(item, data);						// RTC 1Byte Data ҫІұв
    5426:	69 2f       	mov	r22, r25
    5428:	0e 94 d1 29 	call	0x53a2	; 0x53a2 <RTC_Single_Write>
    542c:	08 95       	ret

0000542e <RTC_Set>:
//=================================================================================================
#include <rtc.h>

//=================================================================================================
void RTC_Set(void)								// RTC јіБӨ ёрөе
{
    542e:	cf 93       	push	r28
    5430:	df 93       	push	r29
	SET.Select = 0;								// Select №цЖ° ГКұвИӯ
    5432:	10 92 29 51 	sts	0x5129, r1	; 0x805129 <SET+0x1>

	FND_Value_Data(0, 2, 12);						// FND 0 ~ 2 FND_OFF
    5436:	4c e0       	ldi	r20, 0x0C	; 12
    5438:	62 e0       	ldi	r22, 0x02	; 2
    543a:	80 e0       	ldi	r24, 0x00	; 0
    543c:	0e 94 d2 05 	call	0xba4	; 0xba4 <FND_Value_Data>

	RTC_Time_Read();							// RTC Data АРұв
    5440:	0e 94 ae 29 	call	0x535c	; 0x535c <RTC_Time_Read>

	DIGIT[0][3] = fnd_tbl[RTC_T.Year / 10];					// ів ЗҘҪГ
    5444:	c2 e5       	ldi	r28, 0x52	; 82
    5446:	d1 e5       	ldi	r29, 0x51	; 81
    5448:	ae 81       	ldd	r26, Y+6	; 0x06
    544a:	8d ec       	ldi	r24, 0xCD	; 205
    544c:	a8 9f       	mul	r26, r24
    544e:	91 2d       	mov	r25, r1
    5450:	11 24       	eor	r1, r1
    5452:	96 95       	lsr	r25
    5454:	96 95       	lsr	r25
    5456:	96 95       	lsr	r25
    5458:	e9 2f       	mov	r30, r25
    545a:	f0 e0       	ldi	r31, 0x00	; 0
    545c:	e5 5a       	subi	r30, 0xA5	; 165
    545e:	fe 4b       	sbci	r31, 0xBE	; 190
    5460:	20 81       	ld	r18, Z
    5462:	e1 e9       	ldi	r30, 0x91	; 145
    5464:	f1 e4       	ldi	r31, 0x41	; 65
    5466:	23 83       	std	Z+3, r18	; 0x03
	DIGIT[0][2] = fnd_tbl[RTC_T.Year % 10];
    5468:	99 0f       	add	r25, r25
    546a:	29 2f       	mov	r18, r25
    546c:	22 0f       	add	r18, r18
    546e:	22 0f       	add	r18, r18
    5470:	92 0f       	add	r25, r18
    5472:	a9 1b       	sub	r26, r25
    5474:	b0 e0       	ldi	r27, 0x00	; 0
    5476:	a5 5a       	subi	r26, 0xA5	; 165
    5478:	be 4b       	sbci	r27, 0xBE	; 190
    547a:	9c 91       	ld	r25, X
    547c:	92 83       	std	Z+2, r25	; 0x02

	DIGIT[0][1] = fnd_tbl[RTC_T.Month / 10];				// ҝщ ЗҘҪГ
    547e:	4d 81       	ldd	r20, Y+5	; 0x05
    5480:	48 9f       	mul	r20, r24
    5482:	91 2d       	mov	r25, r1
    5484:	11 24       	eor	r1, r1
    5486:	96 95       	lsr	r25
    5488:	96 95       	lsr	r25
    548a:	96 95       	lsr	r25
    548c:	29 2f       	mov	r18, r25
    548e:	30 e0       	ldi	r19, 0x00	; 0
    5490:	25 5a       	subi	r18, 0xA5	; 165
    5492:	3e 4b       	sbci	r19, 0xBE	; 190
    5494:	d9 01       	movw	r26, r18
    5496:	2c 91       	ld	r18, X
    5498:	21 83       	std	Z+1, r18	; 0x01
	DIGIT[0][0] = fnd_tbl[RTC_T.Month % 10];
    549a:	99 0f       	add	r25, r25
    549c:	29 2f       	mov	r18, r25
    549e:	22 0f       	add	r18, r18
    54a0:	22 0f       	add	r18, r18
    54a2:	92 0f       	add	r25, r18
    54a4:	a4 2f       	mov	r26, r20
    54a6:	a9 1b       	sub	r26, r25
    54a8:	b0 e0       	ldi	r27, 0x00	; 0
    54aa:	a5 5a       	subi	r26, 0xA5	; 165
    54ac:	be 4b       	sbci	r27, 0xBE	; 190
    54ae:	9c 91       	ld	r25, X
    54b0:	90 83       	st	Z, r25

	DIGIT[1][3] = fnd_tbl[RTC_T.Date / 10];					// АП ЗҘҪГ
    54b2:	4c 81       	ldd	r20, Y+4	; 0x04
    54b4:	48 9f       	mul	r20, r24
    54b6:	91 2d       	mov	r25, r1
    54b8:	11 24       	eor	r1, r1
    54ba:	96 95       	lsr	r25
    54bc:	96 95       	lsr	r25
    54be:	96 95       	lsr	r25
    54c0:	29 2f       	mov	r18, r25
    54c2:	30 e0       	ldi	r19, 0x00	; 0
    54c4:	25 5a       	subi	r18, 0xA5	; 165
    54c6:	3e 4b       	sbci	r19, 0xBE	; 190
    54c8:	d9 01       	movw	r26, r18
    54ca:	2c 91       	ld	r18, X
    54cc:	27 83       	std	Z+7, r18	; 0x07
	DIGIT[1][2] = fnd_tbl[RTC_T.Date % 10];
    54ce:	99 0f       	add	r25, r25
    54d0:	29 2f       	mov	r18, r25
    54d2:	22 0f       	add	r18, r18
    54d4:	22 0f       	add	r18, r18
    54d6:	92 0f       	add	r25, r18
    54d8:	a4 2f       	mov	r26, r20
    54da:	a9 1b       	sub	r26, r25
    54dc:	b0 e0       	ldi	r27, 0x00	; 0
    54de:	a5 5a       	subi	r26, 0xA5	; 165
    54e0:	be 4b       	sbci	r27, 0xBE	; 190
    54e2:	9c 91       	ld	r25, X
    54e4:	96 83       	std	Z+6, r25	; 0x06

	DIGIT[1][1] = fnd_tbl[RTC_T.Hour / 10];					// ҪГ ЗҘҪГ
    54e6:	4a 81       	ldd	r20, Y+2	; 0x02
    54e8:	48 9f       	mul	r20, r24
    54ea:	91 2d       	mov	r25, r1
    54ec:	11 24       	eor	r1, r1
    54ee:	96 95       	lsr	r25
    54f0:	96 95       	lsr	r25
    54f2:	96 95       	lsr	r25
    54f4:	29 2f       	mov	r18, r25
    54f6:	30 e0       	ldi	r19, 0x00	; 0
    54f8:	25 5a       	subi	r18, 0xA5	; 165
    54fa:	3e 4b       	sbci	r19, 0xBE	; 190
    54fc:	d9 01       	movw	r26, r18
    54fe:	2c 91       	ld	r18, X
    5500:	25 83       	std	Z+5, r18	; 0x05
	DIGIT[1][0] = fnd_tbl[RTC_T.Hour % 10];
    5502:	99 0f       	add	r25, r25
    5504:	29 2f       	mov	r18, r25
    5506:	22 0f       	add	r18, r18
    5508:	22 0f       	add	r18, r18
    550a:	92 0f       	add	r25, r18
    550c:	a4 2f       	mov	r26, r20
    550e:	a9 1b       	sub	r26, r25
    5510:	b0 e0       	ldi	r27, 0x00	; 0
    5512:	a5 5a       	subi	r26, 0xA5	; 165
    5514:	be 4b       	sbci	r27, 0xBE	; 190
    5516:	9c 91       	ld	r25, X
    5518:	94 83       	std	Z+4, r25	; 0x04

	DIGIT[2][3] = fnd_tbl[RTC_T.Min / 10];					// әР ЗҘҪГ
    551a:	49 81       	ldd	r20, Y+1	; 0x01
    551c:	48 9f       	mul	r20, r24
    551e:	91 2d       	mov	r25, r1
    5520:	11 24       	eor	r1, r1
    5522:	96 95       	lsr	r25
    5524:	96 95       	lsr	r25
    5526:	96 95       	lsr	r25
    5528:	29 2f       	mov	r18, r25
    552a:	30 e0       	ldi	r19, 0x00	; 0
    552c:	25 5a       	subi	r18, 0xA5	; 165
    552e:	3e 4b       	sbci	r19, 0xBE	; 190
    5530:	d9 01       	movw	r26, r18
    5532:	2c 91       	ld	r18, X
    5534:	23 87       	std	Z+11, r18	; 0x0b
	DIGIT[2][2] = fnd_tbl[RTC_T.Min % 10];
    5536:	99 0f       	add	r25, r25
    5538:	29 2f       	mov	r18, r25
    553a:	22 0f       	add	r18, r18
    553c:	22 0f       	add	r18, r18
    553e:	92 0f       	add	r25, r18
    5540:	a4 2f       	mov	r26, r20
    5542:	a9 1b       	sub	r26, r25
    5544:	b0 e0       	ldi	r27, 0x00	; 0
    5546:	a5 5a       	subi	r26, 0xA5	; 165
    5548:	be 4b       	sbci	r27, 0xBE	; 190
    554a:	9c 91       	ld	r25, X
    554c:	92 87       	std	Z+10, r25	; 0x0a

	DIGIT[2][1] = fnd_tbl[RTC_T.Sec / 10];					// ГК ЗҘҪГ
    554e:	a8 81       	ld	r26, Y
    5550:	a8 9f       	mul	r26, r24
    5552:	81 2d       	mov	r24, r1
    5554:	11 24       	eor	r1, r1
    5556:	86 95       	lsr	r24
    5558:	86 95       	lsr	r24
    555a:	86 95       	lsr	r24
    555c:	c8 2f       	mov	r28, r24
    555e:	d0 e0       	ldi	r29, 0x00	; 0
    5560:	c5 5a       	subi	r28, 0xA5	; 165
    5562:	de 4b       	sbci	r29, 0xBE	; 190
    5564:	98 81       	ld	r25, Y
    5566:	91 87       	std	Z+9, r25	; 0x09
	DIGIT[2][0] = fnd_tbl[RTC_T.Sec % 10];
    5568:	88 0f       	add	r24, r24
    556a:	98 2f       	mov	r25, r24
    556c:	99 0f       	add	r25, r25
    556e:	99 0f       	add	r25, r25
    5570:	89 0f       	add	r24, r25
    5572:	a8 1b       	sub	r26, r24
    5574:	b0 e0       	ldi	r27, 0x00	; 0
    5576:	a5 5a       	subi	r26, 0xA5	; 165
    5578:	be 4b       	sbci	r27, 0xBE	; 190
    557a:	8c 91       	ld	r24, X
    557c:	80 87       	std	Z+8, r24	; 0x08

	while(SET.Menu)								// ёЮҙәёрөе АМёй №Эә№
    557e:	8a c2       	rjmp	.+1300   	; 0x5a94 <RTC_Set+0x666>
	{
		SET.Blink = 1;							// АЪёҙјц ұф№ЪАУ јіБӨ
    5580:	81 e0       	ldi	r24, 0x01	; 1
    5582:	80 93 2b 51 	sts	0x512B, r24	; 0x80512b <SET+0x3>

		switch(KEY.Count)						// јұЕГ Key °Ў ҙӯё°ИҪјц
    5586:	e0 91 67 51 	lds	r30, 0x5167	; 0x805167 <KEY>
    558a:	8e 2f       	mov	r24, r30
    558c:	90 e0       	ldi	r25, 0x00	; 0
    558e:	87 30       	cpi	r24, 0x07	; 7
    5590:	91 05       	cpc	r25, r1
    5592:	08 f0       	brcs	.+2      	; 0x5596 <RTC_Set+0x168>
    5594:	7d c2       	rjmp	.+1274   	; 0x5a90 <RTC_Set+0x662>
    5596:	fc 01       	movw	r30, r24
    5598:	ea 56       	subi	r30, 0x6A	; 106
    559a:	fc 4f       	sbci	r31, 0xFC	; 252
    559c:	0c 94 df 3b 	jmp	0x77be	; 0x77be <__tablejump2__>
		{
			case 0:							// ів ЗҘҪГ №Ч јіБӨ
				DIGIT[2][1] = fnd_tbl[RTC_T.Sec / 10];		// ГК ЗҘҪГ
    55a0:	e0 91 52 51 	lds	r30, 0x5152	; 0x805152 <RTC_T>
    55a4:	8d ec       	ldi	r24, 0xCD	; 205
    55a6:	e8 9f       	mul	r30, r24
    55a8:	81 2d       	mov	r24, r1
    55aa:	11 24       	eor	r1, r1
    55ac:	86 95       	lsr	r24
    55ae:	86 95       	lsr	r24
    55b0:	86 95       	lsr	r24
    55b2:	a8 2f       	mov	r26, r24
    55b4:	b0 e0       	ldi	r27, 0x00	; 0
    55b6:	a5 5a       	subi	r26, 0xA5	; 165
    55b8:	be 4b       	sbci	r27, 0xBE	; 190
    55ba:	9c 91       	ld	r25, X
    55bc:	a1 e9       	ldi	r26, 0x91	; 145
    55be:	b1 e4       	ldi	r27, 0x41	; 65
    55c0:	19 96       	adiw	r26, 0x09	; 9
    55c2:	9c 93       	st	X, r25
    55c4:	19 97       	sbiw	r26, 0x09	; 9
				DIGIT[2][0] = fnd_tbl[RTC_T.Sec % 10];
    55c6:	88 0f       	add	r24, r24
    55c8:	98 2f       	mov	r25, r24
    55ca:	99 0f       	add	r25, r25
    55cc:	99 0f       	add	r25, r25
    55ce:	89 0f       	add	r24, r25
    55d0:	e8 1b       	sub	r30, r24
    55d2:	f0 e0       	ldi	r31, 0x00	; 0
    55d4:	e5 5a       	subi	r30, 0xA5	; 165
    55d6:	fe 4b       	sbci	r31, 0xBE	; 190
    55d8:	80 81       	ld	r24, Z
    55da:	18 96       	adiw	r26, 0x08	; 8
    55dc:	8c 93       	st	X, r24
    55de:	18 97       	sbiw	r26, 0x08	; 8
				if(Blink)					// Blink = 1 АМёй 
    55e0:	80 91 93 51 	lds	r24, 0x5193	; 0x805193 <Blink>
    55e4:	88 23       	and	r24, r24
    55e6:	21 f0       	breq	.+8      	; 0x55f0 <RTC_Set+0x1c2>
				{
					DIGIT[0][3] = FND_OFF;			// ·Оөејҝ Year АЪё® OFF
    55e8:	fd 01       	movw	r30, r26
    55ea:	13 82       	std	Z+3, r1	; 0x03
					DIGIT[0][2] = FND_OFF;
    55ec:	12 82       	std	Z+2, r1	; 0x02
    55ee:	1f c0       	rjmp	.+62     	; 0x562e <RTC_Set+0x200>
				}
				else						// Blink = 0 АМёй
				{
					DIGIT[0][3] = fnd_tbl[RTC_T.Year / 10];	// ·Оөејҝ Year АЪё® ЗҘҪГ
    55f0:	e0 91 58 51 	lds	r30, 0x5158	; 0x805158 <RTC_T+0x6>
    55f4:	8d ec       	ldi	r24, 0xCD	; 205
    55f6:	e8 9f       	mul	r30, r24
    55f8:	81 2d       	mov	r24, r1
    55fa:	11 24       	eor	r1, r1
    55fc:	86 95       	lsr	r24
    55fe:	86 95       	lsr	r24
    5600:	86 95       	lsr	r24
    5602:	a8 2f       	mov	r26, r24
    5604:	b0 e0       	ldi	r27, 0x00	; 0
    5606:	a5 5a       	subi	r26, 0xA5	; 165
    5608:	be 4b       	sbci	r27, 0xBE	; 190
    560a:	9c 91       	ld	r25, X
    560c:	a1 e9       	ldi	r26, 0x91	; 145
    560e:	b1 e4       	ldi	r27, 0x41	; 65
    5610:	13 96       	adiw	r26, 0x03	; 3
    5612:	9c 93       	st	X, r25
    5614:	13 97       	sbiw	r26, 0x03	; 3
					DIGIT[0][2] = fnd_tbl[RTC_T.Year % 10];
    5616:	88 0f       	add	r24, r24
    5618:	98 2f       	mov	r25, r24
    561a:	99 0f       	add	r25, r25
    561c:	99 0f       	add	r25, r25
    561e:	89 0f       	add	r24, r25
    5620:	e8 1b       	sub	r30, r24
    5622:	f0 e0       	ldi	r31, 0x00	; 0
    5624:	e5 5a       	subi	r30, 0xA5	; 165
    5626:	fe 4b       	sbci	r31, 0xBE	; 190
    5628:	80 81       	ld	r24, Z
    562a:	12 96       	adiw	r26, 0x02	; 2
    562c:	8c 93       	st	X, r24
				}

				if(KEY.Buff)					// Key АФ·ВАМ АЦАёёй
    562e:	80 91 68 51 	lds	r24, 0x5168	; 0x805168 <KEY+0x1>
    5632:	88 23       	and	r24, r24
    5634:	09 f4       	brne	.+2      	; 0x5638 <RTC_Set+0x20a>
    5636:	2c c2       	rjmp	.+1112   	; 0x5a90 <RTC_Set+0x662>
				{
					if     (KEY.Key == 1 && RTC_T.Year < 99) {RTC_T.Year ++; KEY.Key = 0;}	// ҫч  №цЖ° АМёй Year Бх°Ў
    5638:	80 91 69 51 	lds	r24, 0x5169	; 0x805169 <KEY+0x2>
    563c:	81 30       	cpi	r24, 0x01	; 1
    563e:	51 f4       	brne	.+20     	; 0x5654 <RTC_Set+0x226>
    5640:	80 91 58 51 	lds	r24, 0x5158	; 0x805158 <RTC_T+0x6>
    5644:	83 36       	cpi	r24, 0x63	; 99
    5646:	30 f4       	brcc	.+12     	; 0x5654 <RTC_Set+0x226>
    5648:	8f 5f       	subi	r24, 0xFF	; 255
    564a:	80 93 58 51 	sts	0x5158, r24	; 0x805158 <RTC_T+0x6>
    564e:	10 92 69 51 	sts	0x5169, r1	; 0x805169 <KEY+0x2>
    5652:	1e c2       	rjmp	.+1084   	; 0x5a90 <RTC_Set+0x662>
					else if(KEY.Key == 3 && RTC_T.Year >  0) {RTC_T.Year --; KEY.Key = 0;}	// ҙЩҝо№цЖ° АМёй Year °ЁјТ
    5654:	80 91 69 51 	lds	r24, 0x5169	; 0x805169 <KEY+0x2>
    5658:	83 30       	cpi	r24, 0x03	; 3
    565a:	09 f0       	breq	.+2      	; 0x565e <RTC_Set+0x230>
    565c:	19 c2       	rjmp	.+1074   	; 0x5a90 <RTC_Set+0x662>
    565e:	80 91 58 51 	lds	r24, 0x5158	; 0x805158 <RTC_T+0x6>
    5662:	88 23       	and	r24, r24
    5664:	09 f4       	brne	.+2      	; 0x5668 <RTC_Set+0x23a>
    5666:	14 c2       	rjmp	.+1064   	; 0x5a90 <RTC_Set+0x662>
    5668:	81 50       	subi	r24, 0x01	; 1
    566a:	80 93 58 51 	sts	0x5158, r24	; 0x805158 <RTC_T+0x6>
    566e:	10 92 69 51 	sts	0x5169, r1	; 0x805169 <KEY+0x2>
    5672:	0e c2       	rjmp	.+1052   	; 0x5a90 <RTC_Set+0x662>
				}
			break;

			case 1:							// ҝщ ЗҘҪГ №Ч јіБӨ
				DIGIT[0][3] = fnd_tbl[RTC_T.Year / 10];		// ів ЗҘҪГ
    5674:	e0 91 58 51 	lds	r30, 0x5158	; 0x805158 <RTC_T+0x6>
    5678:	8d ec       	ldi	r24, 0xCD	; 205
    567a:	e8 9f       	mul	r30, r24
    567c:	81 2d       	mov	r24, r1
    567e:	11 24       	eor	r1, r1
    5680:	86 95       	lsr	r24
    5682:	86 95       	lsr	r24
    5684:	86 95       	lsr	r24
    5686:	a8 2f       	mov	r26, r24
    5688:	b0 e0       	ldi	r27, 0x00	; 0
    568a:	a5 5a       	subi	r26, 0xA5	; 165
    568c:	be 4b       	sbci	r27, 0xBE	; 190
    568e:	9c 91       	ld	r25, X
    5690:	a1 e9       	ldi	r26, 0x91	; 145
    5692:	b1 e4       	ldi	r27, 0x41	; 65
    5694:	13 96       	adiw	r26, 0x03	; 3
    5696:	9c 93       	st	X, r25
    5698:	13 97       	sbiw	r26, 0x03	; 3
				DIGIT[0][2] = fnd_tbl[RTC_T.Year % 10];
    569a:	88 0f       	add	r24, r24
    569c:	98 2f       	mov	r25, r24
    569e:	99 0f       	add	r25, r25
    56a0:	99 0f       	add	r25, r25
    56a2:	89 0f       	add	r24, r25
    56a4:	e8 1b       	sub	r30, r24
    56a6:	f0 e0       	ldi	r31, 0x00	; 0
    56a8:	e5 5a       	subi	r30, 0xA5	; 165
    56aa:	fe 4b       	sbci	r31, 0xBE	; 190
    56ac:	80 81       	ld	r24, Z
    56ae:	12 96       	adiw	r26, 0x02	; 2
    56b0:	8c 93       	st	X, r24
    56b2:	12 97       	sbiw	r26, 0x02	; 2
				if(Blink)					// Blink = 1 АМёй
    56b4:	80 91 93 51 	lds	r24, 0x5193	; 0x805193 <Blink>
    56b8:	88 23       	and	r24, r24
    56ba:	21 f0       	breq	.+8      	; 0x56c4 <RTC_Set+0x296>
				{
					DIGIT[0][1] = FND_OFF;			// ·Оөејҝ Month АЪё® OFF
    56bc:	fd 01       	movw	r30, r26
    56be:	11 82       	std	Z+1, r1	; 0x01
					DIGIT[0][0] = FND_OFF;
    56c0:	10 82       	st	Z, r1
    56c2:	1e c0       	rjmp	.+60     	; 0x5700 <RTC_Set+0x2d2>
				}
				else						// Blink = 0 АМёй
				{
					DIGIT[0][1] = fnd_tbl[RTC_T.Month / 10];// ·Оөејҝ Month АЪё® ЗҘҪГ
    56c4:	e0 91 57 51 	lds	r30, 0x5157	; 0x805157 <RTC_T+0x5>
    56c8:	8d ec       	ldi	r24, 0xCD	; 205
    56ca:	e8 9f       	mul	r30, r24
    56cc:	81 2d       	mov	r24, r1
    56ce:	11 24       	eor	r1, r1
    56d0:	86 95       	lsr	r24
    56d2:	86 95       	lsr	r24
    56d4:	86 95       	lsr	r24
    56d6:	a8 2f       	mov	r26, r24
    56d8:	b0 e0       	ldi	r27, 0x00	; 0
    56da:	a5 5a       	subi	r26, 0xA5	; 165
    56dc:	be 4b       	sbci	r27, 0xBE	; 190
    56de:	9c 91       	ld	r25, X
    56e0:	a1 e9       	ldi	r26, 0x91	; 145
    56e2:	b1 e4       	ldi	r27, 0x41	; 65
    56e4:	11 96       	adiw	r26, 0x01	; 1
    56e6:	9c 93       	st	X, r25
    56e8:	11 97       	sbiw	r26, 0x01	; 1
					DIGIT[0][0] = fnd_tbl[RTC_T.Month % 10];
    56ea:	88 0f       	add	r24, r24
    56ec:	98 2f       	mov	r25, r24
    56ee:	99 0f       	add	r25, r25
    56f0:	99 0f       	add	r25, r25
    56f2:	89 0f       	add	r24, r25
    56f4:	e8 1b       	sub	r30, r24
    56f6:	f0 e0       	ldi	r31, 0x00	; 0
    56f8:	e5 5a       	subi	r30, 0xA5	; 165
    56fa:	fe 4b       	sbci	r31, 0xBE	; 190
    56fc:	80 81       	ld	r24, Z
    56fe:	8c 93       	st	X, r24
				}

				if(KEY.Buff)					// Key АФ·ВАМ АЦАёёй
    5700:	80 91 68 51 	lds	r24, 0x5168	; 0x805168 <KEY+0x1>
    5704:	88 23       	and	r24, r24
    5706:	09 f4       	brne	.+2      	; 0x570a <RTC_Set+0x2dc>
    5708:	c3 c1       	rjmp	.+902    	; 0x5a90 <RTC_Set+0x662>
				{
					if     (KEY.Key == 1 && RTC_T.Month < 12) {RTC_T.Month ++; KEY.Key = 0;}// ҫч  №цЖ° АМёй Month Бх°Ў
    570a:	80 91 69 51 	lds	r24, 0x5169	; 0x805169 <KEY+0x2>
    570e:	81 30       	cpi	r24, 0x01	; 1
    5710:	51 f4       	brne	.+20     	; 0x5726 <RTC_Set+0x2f8>
    5712:	80 91 57 51 	lds	r24, 0x5157	; 0x805157 <RTC_T+0x5>
    5716:	8c 30       	cpi	r24, 0x0C	; 12
    5718:	30 f4       	brcc	.+12     	; 0x5726 <RTC_Set+0x2f8>
    571a:	8f 5f       	subi	r24, 0xFF	; 255
    571c:	80 93 57 51 	sts	0x5157, r24	; 0x805157 <RTC_T+0x5>
    5720:	10 92 69 51 	sts	0x5169, r1	; 0x805169 <KEY+0x2>
    5724:	b5 c1       	rjmp	.+874    	; 0x5a90 <RTC_Set+0x662>
					else if(KEY.Key == 3 && RTC_T.Month >  1) {RTC_T.Month --; KEY.Key = 0;}// ҙЩҝо№цЖ° АМёй Month °ЁјТ
    5726:	80 91 69 51 	lds	r24, 0x5169	; 0x805169 <KEY+0x2>
    572a:	83 30       	cpi	r24, 0x03	; 3
    572c:	09 f0       	breq	.+2      	; 0x5730 <RTC_Set+0x302>
    572e:	b0 c1       	rjmp	.+864    	; 0x5a90 <RTC_Set+0x662>
    5730:	80 91 57 51 	lds	r24, 0x5157	; 0x805157 <RTC_T+0x5>
    5734:	82 30       	cpi	r24, 0x02	; 2
    5736:	08 f4       	brcc	.+2      	; 0x573a <RTC_Set+0x30c>
    5738:	ab c1       	rjmp	.+854    	; 0x5a90 <RTC_Set+0x662>
    573a:	81 50       	subi	r24, 0x01	; 1
    573c:	80 93 57 51 	sts	0x5157, r24	; 0x805157 <RTC_T+0x5>
    5740:	10 92 69 51 	sts	0x5169, r1	; 0x805169 <KEY+0x2>
    5744:	a5 c1       	rjmp	.+842    	; 0x5a90 <RTC_Set+0x662>
				}
			break;

			case 2:							// АП ЗҘҪГ №Ч јіБӨ
				DIGIT[0][1] = fnd_tbl[RTC_T.Month / 10];	// ҝщ ЗҘҪГ
    5746:	e0 91 57 51 	lds	r30, 0x5157	; 0x805157 <RTC_T+0x5>
    574a:	8d ec       	ldi	r24, 0xCD	; 205
    574c:	e8 9f       	mul	r30, r24
    574e:	81 2d       	mov	r24, r1
    5750:	11 24       	eor	r1, r1
    5752:	86 95       	lsr	r24
    5754:	86 95       	lsr	r24
    5756:	86 95       	lsr	r24
    5758:	a8 2f       	mov	r26, r24
    575a:	b0 e0       	ldi	r27, 0x00	; 0
    575c:	a5 5a       	subi	r26, 0xA5	; 165
    575e:	be 4b       	sbci	r27, 0xBE	; 190
    5760:	9c 91       	ld	r25, X
    5762:	a1 e9       	ldi	r26, 0x91	; 145
    5764:	b1 e4       	ldi	r27, 0x41	; 65
    5766:	11 96       	adiw	r26, 0x01	; 1
    5768:	9c 93       	st	X, r25
    576a:	11 97       	sbiw	r26, 0x01	; 1
				DIGIT[0][0] = fnd_tbl[RTC_T.Month % 10];	
    576c:	88 0f       	add	r24, r24
    576e:	98 2f       	mov	r25, r24
    5770:	99 0f       	add	r25, r25
    5772:	99 0f       	add	r25, r25
    5774:	89 0f       	add	r24, r25
    5776:	e8 1b       	sub	r30, r24
    5778:	f0 e0       	ldi	r31, 0x00	; 0
    577a:	e5 5a       	subi	r30, 0xA5	; 165
    577c:	fe 4b       	sbci	r31, 0xBE	; 190
    577e:	80 81       	ld	r24, Z
    5780:	8c 93       	st	X, r24
				if(Blink)					// Blink = 1 АМёй
    5782:	80 91 93 51 	lds	r24, 0x5193	; 0x805193 <Blink>
    5786:	88 23       	and	r24, r24
    5788:	21 f0       	breq	.+8      	; 0x5792 <RTC_Set+0x364>
				{
					DIGIT[1][3] = FND_OFF;			// ·Оөејҝ Date АЪё® OFF
    578a:	fd 01       	movw	r30, r26
    578c:	17 82       	std	Z+7, r1	; 0x07
					DIGIT[1][2] = FND_OFF;
    578e:	16 82       	std	Z+6, r1	; 0x06
    5790:	1f c0       	rjmp	.+62     	; 0x57d0 <RTC_Set+0x3a2>
				}
				else						// Blink = 0 АМёй
				{
					DIGIT[1][3] = fnd_tbl[RTC_T.Date / 10];	// ·Оөејҝ Date АЪё® ЗҘҪГ
    5792:	e0 91 56 51 	lds	r30, 0x5156	; 0x805156 <RTC_T+0x4>
    5796:	8d ec       	ldi	r24, 0xCD	; 205
    5798:	e8 9f       	mul	r30, r24
    579a:	81 2d       	mov	r24, r1
    579c:	11 24       	eor	r1, r1
    579e:	86 95       	lsr	r24
    57a0:	86 95       	lsr	r24
    57a2:	86 95       	lsr	r24
    57a4:	a8 2f       	mov	r26, r24
    57a6:	b0 e0       	ldi	r27, 0x00	; 0
    57a8:	a5 5a       	subi	r26, 0xA5	; 165
    57aa:	be 4b       	sbci	r27, 0xBE	; 190
    57ac:	9c 91       	ld	r25, X
    57ae:	a1 e9       	ldi	r26, 0x91	; 145
    57b0:	b1 e4       	ldi	r27, 0x41	; 65
    57b2:	17 96       	adiw	r26, 0x07	; 7
    57b4:	9c 93       	st	X, r25
    57b6:	17 97       	sbiw	r26, 0x07	; 7
					DIGIT[1][2] = fnd_tbl[RTC_T.Date % 10];
    57b8:	88 0f       	add	r24, r24
    57ba:	98 2f       	mov	r25, r24
    57bc:	99 0f       	add	r25, r25
    57be:	99 0f       	add	r25, r25
    57c0:	89 0f       	add	r24, r25
    57c2:	e8 1b       	sub	r30, r24
    57c4:	f0 e0       	ldi	r31, 0x00	; 0
    57c6:	e5 5a       	subi	r30, 0xA5	; 165
    57c8:	fe 4b       	sbci	r31, 0xBE	; 190
    57ca:	80 81       	ld	r24, Z
    57cc:	16 96       	adiw	r26, 0x06	; 6
    57ce:	8c 93       	st	X, r24
				}

				if(KEY.Buff)					// Key АФ·ВАМ АЦАёёй
    57d0:	80 91 68 51 	lds	r24, 0x5168	; 0x805168 <KEY+0x1>
    57d4:	88 23       	and	r24, r24
    57d6:	09 f4       	brne	.+2      	; 0x57da <RTC_Set+0x3ac>
    57d8:	5b c1       	rjmp	.+694    	; 0x5a90 <RTC_Set+0x662>
				{
					if     (KEY.Key == 1 && RTC_T.Date < 31) {RTC_T.Date ++; KEY.Key = 0;}	// ҫч  №цЖ° АМёй Date Бх°Ў
    57da:	80 91 69 51 	lds	r24, 0x5169	; 0x805169 <KEY+0x2>
    57de:	81 30       	cpi	r24, 0x01	; 1
    57e0:	51 f4       	brne	.+20     	; 0x57f6 <RTC_Set+0x3c8>
    57e2:	80 91 56 51 	lds	r24, 0x5156	; 0x805156 <RTC_T+0x4>
    57e6:	8f 31       	cpi	r24, 0x1F	; 31
    57e8:	30 f4       	brcc	.+12     	; 0x57f6 <RTC_Set+0x3c8>
    57ea:	8f 5f       	subi	r24, 0xFF	; 255
    57ec:	80 93 56 51 	sts	0x5156, r24	; 0x805156 <RTC_T+0x4>
    57f0:	10 92 69 51 	sts	0x5169, r1	; 0x805169 <KEY+0x2>
    57f4:	4d c1       	rjmp	.+666    	; 0x5a90 <RTC_Set+0x662>
					else if(KEY.Key == 3 && RTC_T.Date >  1) {RTC_T.Date --; KEY.Key = 0;}	// ҙЩҝо№цЖ° АМёй Date °ЁјТ
    57f6:	80 91 69 51 	lds	r24, 0x5169	; 0x805169 <KEY+0x2>
    57fa:	83 30       	cpi	r24, 0x03	; 3
    57fc:	09 f0       	breq	.+2      	; 0x5800 <RTC_Set+0x3d2>
    57fe:	48 c1       	rjmp	.+656    	; 0x5a90 <RTC_Set+0x662>
    5800:	80 91 56 51 	lds	r24, 0x5156	; 0x805156 <RTC_T+0x4>
    5804:	82 30       	cpi	r24, 0x02	; 2
    5806:	08 f4       	brcc	.+2      	; 0x580a <RTC_Set+0x3dc>
    5808:	43 c1       	rjmp	.+646    	; 0x5a90 <RTC_Set+0x662>
    580a:	81 50       	subi	r24, 0x01	; 1
    580c:	80 93 56 51 	sts	0x5156, r24	; 0x805156 <RTC_T+0x4>
    5810:	10 92 69 51 	sts	0x5169, r1	; 0x805169 <KEY+0x2>
    5814:	3d c1       	rjmp	.+634    	; 0x5a90 <RTC_Set+0x662>
				}
			break;

			case 3:							// ҪГ ЗҘҪГ №Ч јіБӨ
				DIGIT[1][3] = fnd_tbl[RTC_T.Date / 10];		// АП ЗҘҪГ
    5816:	e0 91 56 51 	lds	r30, 0x5156	; 0x805156 <RTC_T+0x4>
    581a:	8d ec       	ldi	r24, 0xCD	; 205
    581c:	e8 9f       	mul	r30, r24
    581e:	81 2d       	mov	r24, r1
    5820:	11 24       	eor	r1, r1
    5822:	86 95       	lsr	r24
    5824:	86 95       	lsr	r24
    5826:	86 95       	lsr	r24
    5828:	a8 2f       	mov	r26, r24
    582a:	b0 e0       	ldi	r27, 0x00	; 0
    582c:	a5 5a       	subi	r26, 0xA5	; 165
    582e:	be 4b       	sbci	r27, 0xBE	; 190
    5830:	9c 91       	ld	r25, X
    5832:	a1 e9       	ldi	r26, 0x91	; 145
    5834:	b1 e4       	ldi	r27, 0x41	; 65
    5836:	17 96       	adiw	r26, 0x07	; 7
    5838:	9c 93       	st	X, r25
    583a:	17 97       	sbiw	r26, 0x07	; 7
				DIGIT[1][2] = fnd_tbl[RTC_T.Date % 10];
    583c:	88 0f       	add	r24, r24
    583e:	98 2f       	mov	r25, r24
    5840:	99 0f       	add	r25, r25
    5842:	99 0f       	add	r25, r25
    5844:	89 0f       	add	r24, r25
    5846:	e8 1b       	sub	r30, r24
    5848:	f0 e0       	ldi	r31, 0x00	; 0
    584a:	e5 5a       	subi	r30, 0xA5	; 165
    584c:	fe 4b       	sbci	r31, 0xBE	; 190
    584e:	80 81       	ld	r24, Z
    5850:	16 96       	adiw	r26, 0x06	; 6
    5852:	8c 93       	st	X, r24
    5854:	16 97       	sbiw	r26, 0x06	; 6
				if(Blink)					// Blink = 1 АМёй
    5856:	80 91 93 51 	lds	r24, 0x5193	; 0x805193 <Blink>
    585a:	88 23       	and	r24, r24
    585c:	21 f0       	breq	.+8      	; 0x5866 <RTC_Set+0x438>
				{
					DIGIT[1][1] = FND_OFF;			// ·Оөејҝ Hour АЪё® OFF
    585e:	fd 01       	movw	r30, r26
    5860:	15 82       	std	Z+5, r1	; 0x05
					DIGIT[1][0] = FND_OFF;
    5862:	14 82       	std	Z+4, r1	; 0x04
    5864:	1f c0       	rjmp	.+62     	; 0x58a4 <RTC_Set+0x476>
				}
				else						// Blink = 0 АМёй
				{
					DIGIT[1][1] = fnd_tbl[RTC_T.Hour / 10];	// ·Оөејҝ Hour АЪё® ЗҘҪГ
    5866:	e0 91 54 51 	lds	r30, 0x5154	; 0x805154 <RTC_T+0x2>
    586a:	8d ec       	ldi	r24, 0xCD	; 205
    586c:	e8 9f       	mul	r30, r24
    586e:	81 2d       	mov	r24, r1
    5870:	11 24       	eor	r1, r1
    5872:	86 95       	lsr	r24
    5874:	86 95       	lsr	r24
    5876:	86 95       	lsr	r24
    5878:	a8 2f       	mov	r26, r24
    587a:	b0 e0       	ldi	r27, 0x00	; 0
    587c:	a5 5a       	subi	r26, 0xA5	; 165
    587e:	be 4b       	sbci	r27, 0xBE	; 190
    5880:	9c 91       	ld	r25, X
    5882:	a1 e9       	ldi	r26, 0x91	; 145
    5884:	b1 e4       	ldi	r27, 0x41	; 65
    5886:	15 96       	adiw	r26, 0x05	; 5
    5888:	9c 93       	st	X, r25
    588a:	15 97       	sbiw	r26, 0x05	; 5
					DIGIT[1][0] = fnd_tbl[RTC_T.Hour % 10];
    588c:	88 0f       	add	r24, r24
    588e:	98 2f       	mov	r25, r24
    5890:	99 0f       	add	r25, r25
    5892:	99 0f       	add	r25, r25
    5894:	89 0f       	add	r24, r25
    5896:	e8 1b       	sub	r30, r24
    5898:	f0 e0       	ldi	r31, 0x00	; 0
    589a:	e5 5a       	subi	r30, 0xA5	; 165
    589c:	fe 4b       	sbci	r31, 0xBE	; 190
    589e:	80 81       	ld	r24, Z
    58a0:	14 96       	adiw	r26, 0x04	; 4
    58a2:	8c 93       	st	X, r24
				}

				if(KEY.Buff)					// Key АФ·ВАМ АЦАёёй
    58a4:	80 91 68 51 	lds	r24, 0x5168	; 0x805168 <KEY+0x1>
    58a8:	88 23       	and	r24, r24
    58aa:	09 f4       	brne	.+2      	; 0x58ae <RTC_Set+0x480>
    58ac:	f1 c0       	rjmp	.+482    	; 0x5a90 <RTC_Set+0x662>
				{
					if     (KEY.Key == 1 && RTC_T.Hour < 23) {RTC_T.Hour ++; KEY.Key = 0;}	// ҫч  №цЖ° АМёй Hour Бх°Ў
    58ae:	80 91 69 51 	lds	r24, 0x5169	; 0x805169 <KEY+0x2>
    58b2:	81 30       	cpi	r24, 0x01	; 1
    58b4:	51 f4       	brne	.+20     	; 0x58ca <RTC_Set+0x49c>
    58b6:	80 91 54 51 	lds	r24, 0x5154	; 0x805154 <RTC_T+0x2>
    58ba:	87 31       	cpi	r24, 0x17	; 23
    58bc:	30 f4       	brcc	.+12     	; 0x58ca <RTC_Set+0x49c>
    58be:	8f 5f       	subi	r24, 0xFF	; 255
    58c0:	80 93 54 51 	sts	0x5154, r24	; 0x805154 <RTC_T+0x2>
    58c4:	10 92 69 51 	sts	0x5169, r1	; 0x805169 <KEY+0x2>
    58c8:	e3 c0       	rjmp	.+454    	; 0x5a90 <RTC_Set+0x662>
					else if(KEY.Key == 3 && RTC_T.Hour >  0) {RTC_T.Hour --; KEY.Key = 0;}	// ҙЩҝо№цЖ° АМёй Hour °ЁјТ
    58ca:	80 91 69 51 	lds	r24, 0x5169	; 0x805169 <KEY+0x2>
    58ce:	83 30       	cpi	r24, 0x03	; 3
    58d0:	09 f0       	breq	.+2      	; 0x58d4 <RTC_Set+0x4a6>
    58d2:	de c0       	rjmp	.+444    	; 0x5a90 <RTC_Set+0x662>
    58d4:	80 91 54 51 	lds	r24, 0x5154	; 0x805154 <RTC_T+0x2>
    58d8:	88 23       	and	r24, r24
    58da:	09 f4       	brne	.+2      	; 0x58de <RTC_Set+0x4b0>
    58dc:	d9 c0       	rjmp	.+434    	; 0x5a90 <RTC_Set+0x662>
    58de:	81 50       	subi	r24, 0x01	; 1
    58e0:	80 93 54 51 	sts	0x5154, r24	; 0x805154 <RTC_T+0x2>
    58e4:	10 92 69 51 	sts	0x5169, r1	; 0x805169 <KEY+0x2>
    58e8:	d3 c0       	rjmp	.+422    	; 0x5a90 <RTC_Set+0x662>
				}
			break;

			case 4:							// әР ЗҘҪГ №Ч јіБӨ
				DIGIT[1][1] = fnd_tbl[RTC_T.Hour / 10];		// ҪГ ЗҘҪГ
    58ea:	e0 91 54 51 	lds	r30, 0x5154	; 0x805154 <RTC_T+0x2>
    58ee:	8d ec       	ldi	r24, 0xCD	; 205
    58f0:	e8 9f       	mul	r30, r24
    58f2:	81 2d       	mov	r24, r1
    58f4:	11 24       	eor	r1, r1
    58f6:	86 95       	lsr	r24
    58f8:	86 95       	lsr	r24
    58fa:	86 95       	lsr	r24
    58fc:	a8 2f       	mov	r26, r24
    58fe:	b0 e0       	ldi	r27, 0x00	; 0
    5900:	a5 5a       	subi	r26, 0xA5	; 165
    5902:	be 4b       	sbci	r27, 0xBE	; 190
    5904:	9c 91       	ld	r25, X
    5906:	a1 e9       	ldi	r26, 0x91	; 145
    5908:	b1 e4       	ldi	r27, 0x41	; 65
    590a:	15 96       	adiw	r26, 0x05	; 5
    590c:	9c 93       	st	X, r25
    590e:	15 97       	sbiw	r26, 0x05	; 5
				DIGIT[1][0] = fnd_tbl[RTC_T.Hour % 10];
    5910:	88 0f       	add	r24, r24
    5912:	98 2f       	mov	r25, r24
    5914:	99 0f       	add	r25, r25
    5916:	99 0f       	add	r25, r25
    5918:	89 0f       	add	r24, r25
    591a:	e8 1b       	sub	r30, r24
    591c:	f0 e0       	ldi	r31, 0x00	; 0
    591e:	e5 5a       	subi	r30, 0xA5	; 165
    5920:	fe 4b       	sbci	r31, 0xBE	; 190
    5922:	80 81       	ld	r24, Z
    5924:	14 96       	adiw	r26, 0x04	; 4
    5926:	8c 93       	st	X, r24
    5928:	14 97       	sbiw	r26, 0x04	; 4
				if(Blink)					// Blink = 1 АМёй
    592a:	80 91 93 51 	lds	r24, 0x5193	; 0x805193 <Blink>
    592e:	88 23       	and	r24, r24
    5930:	21 f0       	breq	.+8      	; 0x593a <RTC_Set+0x50c>
				{
					DIGIT[2][3] = FND_OFF;			// ·Оөејҝ Min АЪё® OFF
    5932:	fd 01       	movw	r30, r26
    5934:	13 86       	std	Z+11, r1	; 0x0b
					DIGIT[2][2] = FND_OFF;
    5936:	12 86       	std	Z+10, r1	; 0x0a
    5938:	1f c0       	rjmp	.+62     	; 0x5978 <RTC_Set+0x54a>
				}
				else						// Blink = 0 АМёй
				{
					DIGIT[2][3] = fnd_tbl[RTC_T.Min / 10];	// ·Оөејҝ Min АЪё® ЗҘҪГ
    593a:	e0 91 53 51 	lds	r30, 0x5153	; 0x805153 <RTC_T+0x1>
    593e:	8d ec       	ldi	r24, 0xCD	; 205
    5940:	e8 9f       	mul	r30, r24
    5942:	81 2d       	mov	r24, r1
    5944:	11 24       	eor	r1, r1
    5946:	86 95       	lsr	r24
    5948:	86 95       	lsr	r24
    594a:	86 95       	lsr	r24
    594c:	a8 2f       	mov	r26, r24
    594e:	b0 e0       	ldi	r27, 0x00	; 0
    5950:	a5 5a       	subi	r26, 0xA5	; 165
    5952:	be 4b       	sbci	r27, 0xBE	; 190
    5954:	9c 91       	ld	r25, X
    5956:	a1 e9       	ldi	r26, 0x91	; 145
    5958:	b1 e4       	ldi	r27, 0x41	; 65
    595a:	1b 96       	adiw	r26, 0x0b	; 11
    595c:	9c 93       	st	X, r25
    595e:	1b 97       	sbiw	r26, 0x0b	; 11
					DIGIT[2][2] = fnd_tbl[RTC_T.Min % 10];
    5960:	88 0f       	add	r24, r24
    5962:	98 2f       	mov	r25, r24
    5964:	99 0f       	add	r25, r25
    5966:	99 0f       	add	r25, r25
    5968:	89 0f       	add	r24, r25
    596a:	e8 1b       	sub	r30, r24
    596c:	f0 e0       	ldi	r31, 0x00	; 0
    596e:	e5 5a       	subi	r30, 0xA5	; 165
    5970:	fe 4b       	sbci	r31, 0xBE	; 190
    5972:	80 81       	ld	r24, Z
    5974:	1a 96       	adiw	r26, 0x0a	; 10
    5976:	8c 93       	st	X, r24
				}

				if(KEY.Buff)					// Key АФ·ВАМ АЦАёёй
    5978:	80 91 68 51 	lds	r24, 0x5168	; 0x805168 <KEY+0x1>
    597c:	88 23       	and	r24, r24
    597e:	09 f4       	brne	.+2      	; 0x5982 <RTC_Set+0x554>
    5980:	87 c0       	rjmp	.+270    	; 0x5a90 <RTC_Set+0x662>
				{
					if     (KEY.Key == 1 && RTC_T.Min < 59) {RTC_T.Min ++; KEY.Key = 0;}	// ҫч  №цЖ° АМёй Min Бх°Ў
    5982:	80 91 69 51 	lds	r24, 0x5169	; 0x805169 <KEY+0x2>
    5986:	81 30       	cpi	r24, 0x01	; 1
    5988:	51 f4       	brne	.+20     	; 0x599e <RTC_Set+0x570>
    598a:	80 91 53 51 	lds	r24, 0x5153	; 0x805153 <RTC_T+0x1>
    598e:	8b 33       	cpi	r24, 0x3B	; 59
    5990:	30 f4       	brcc	.+12     	; 0x599e <RTC_Set+0x570>
    5992:	8f 5f       	subi	r24, 0xFF	; 255
    5994:	80 93 53 51 	sts	0x5153, r24	; 0x805153 <RTC_T+0x1>
    5998:	10 92 69 51 	sts	0x5169, r1	; 0x805169 <KEY+0x2>
    599c:	79 c0       	rjmp	.+242    	; 0x5a90 <RTC_Set+0x662>
					else if(KEY.Key == 3 && RTC_T.Min >  0) {RTC_T.Min --; KEY.Key = 0;}	// ҙЩҝо№цЖ° АМёй Min °ЁјТ
    599e:	80 91 69 51 	lds	r24, 0x5169	; 0x805169 <KEY+0x2>
    59a2:	83 30       	cpi	r24, 0x03	; 3
    59a4:	09 f0       	breq	.+2      	; 0x59a8 <RTC_Set+0x57a>
    59a6:	74 c0       	rjmp	.+232    	; 0x5a90 <RTC_Set+0x662>
    59a8:	80 91 53 51 	lds	r24, 0x5153	; 0x805153 <RTC_T+0x1>
    59ac:	88 23       	and	r24, r24
    59ae:	09 f4       	brne	.+2      	; 0x59b2 <RTC_Set+0x584>
    59b0:	6f c0       	rjmp	.+222    	; 0x5a90 <RTC_Set+0x662>
    59b2:	81 50       	subi	r24, 0x01	; 1
    59b4:	80 93 53 51 	sts	0x5153, r24	; 0x805153 <RTC_T+0x1>
    59b8:	10 92 69 51 	sts	0x5169, r1	; 0x805169 <KEY+0x2>
    59bc:	69 c0       	rjmp	.+210    	; 0x5a90 <RTC_Set+0x662>
				}
			break;

			case 5:							// ·Оөејҝ RO 10АЗ АЪё®
				DIGIT[2][3] = fnd_tbl[RTC_T.Min / 10];		// әР ЗҘҪГ
    59be:	e0 91 53 51 	lds	r30, 0x5153	; 0x805153 <RTC_T+0x1>
    59c2:	8d ec       	ldi	r24, 0xCD	; 205
    59c4:	e8 9f       	mul	r30, r24
    59c6:	81 2d       	mov	r24, r1
    59c8:	11 24       	eor	r1, r1
    59ca:	86 95       	lsr	r24
    59cc:	86 95       	lsr	r24
    59ce:	86 95       	lsr	r24
    59d0:	a8 2f       	mov	r26, r24
    59d2:	b0 e0       	ldi	r27, 0x00	; 0
    59d4:	a5 5a       	subi	r26, 0xA5	; 165
    59d6:	be 4b       	sbci	r27, 0xBE	; 190
    59d8:	9c 91       	ld	r25, X
    59da:	a1 e9       	ldi	r26, 0x91	; 145
    59dc:	b1 e4       	ldi	r27, 0x41	; 65
    59de:	1b 96       	adiw	r26, 0x0b	; 11
    59e0:	9c 93       	st	X, r25
    59e2:	1b 97       	sbiw	r26, 0x0b	; 11
				DIGIT[2][2] = fnd_tbl[RTC_T.Min % 10];
    59e4:	88 0f       	add	r24, r24
    59e6:	98 2f       	mov	r25, r24
    59e8:	99 0f       	add	r25, r25
    59ea:	99 0f       	add	r25, r25
    59ec:	89 0f       	add	r24, r25
    59ee:	e8 1b       	sub	r30, r24
    59f0:	f0 e0       	ldi	r31, 0x00	; 0
    59f2:	e5 5a       	subi	r30, 0xA5	; 165
    59f4:	fe 4b       	sbci	r31, 0xBE	; 190
    59f6:	80 81       	ld	r24, Z
    59f8:	1a 96       	adiw	r26, 0x0a	; 10
    59fa:	8c 93       	st	X, r24
    59fc:	1a 97       	sbiw	r26, 0x0a	; 10
				if(Blink)					// Blink = 1 АМёй
    59fe:	80 91 93 51 	lds	r24, 0x5193	; 0x805193 <Blink>
    5a02:	88 23       	and	r24, r24
    5a04:	21 f0       	breq	.+8      	; 0x5a0e <RTC_Set+0x5e0>
				{
					DIGIT[2][1] = FND_OFF;			// ·Оөејҝ Sec АЪё® OFF
    5a06:	fd 01       	movw	r30, r26
    5a08:	11 86       	std	Z+9, r1	; 0x09
					DIGIT[2][0] = FND_OFF;
    5a0a:	10 86       	std	Z+8, r1	; 0x08
    5a0c:	1f c0       	rjmp	.+62     	; 0x5a4c <RTC_Set+0x61e>
				}
				else						// Blink = 0 АМёй
				{
					DIGIT[2][1] = fnd_tbl[RTC_T.Sec / 10];	// ·Оөејҝ Sec АЪё® ЗҘҪГ
    5a0e:	e0 91 52 51 	lds	r30, 0x5152	; 0x805152 <RTC_T>
    5a12:	8d ec       	ldi	r24, 0xCD	; 205
    5a14:	e8 9f       	mul	r30, r24
    5a16:	81 2d       	mov	r24, r1
    5a18:	11 24       	eor	r1, r1
    5a1a:	86 95       	lsr	r24
    5a1c:	86 95       	lsr	r24
    5a1e:	86 95       	lsr	r24
    5a20:	a8 2f       	mov	r26, r24
    5a22:	b0 e0       	ldi	r27, 0x00	; 0
    5a24:	a5 5a       	subi	r26, 0xA5	; 165
    5a26:	be 4b       	sbci	r27, 0xBE	; 190
    5a28:	9c 91       	ld	r25, X
    5a2a:	a1 e9       	ldi	r26, 0x91	; 145
    5a2c:	b1 e4       	ldi	r27, 0x41	; 65
    5a2e:	19 96       	adiw	r26, 0x09	; 9
    5a30:	9c 93       	st	X, r25
    5a32:	19 97       	sbiw	r26, 0x09	; 9
					DIGIT[2][0] = fnd_tbl[RTC_T.Sec % 10];
    5a34:	88 0f       	add	r24, r24
    5a36:	98 2f       	mov	r25, r24
    5a38:	99 0f       	add	r25, r25
    5a3a:	99 0f       	add	r25, r25
    5a3c:	89 0f       	add	r24, r25
    5a3e:	e8 1b       	sub	r30, r24
    5a40:	f0 e0       	ldi	r31, 0x00	; 0
    5a42:	e5 5a       	subi	r30, 0xA5	; 165
    5a44:	fe 4b       	sbci	r31, 0xBE	; 190
    5a46:	80 81       	ld	r24, Z
    5a48:	18 96       	adiw	r26, 0x08	; 8
    5a4a:	8c 93       	st	X, r24
				}

				if(KEY.Buff)					// Key АФ·ВАМ АЦАёёй
    5a4c:	80 91 68 51 	lds	r24, 0x5168	; 0x805168 <KEY+0x1>
    5a50:	88 23       	and	r24, r24
    5a52:	f1 f0       	breq	.+60     	; 0x5a90 <RTC_Set+0x662>
				{
					if     (KEY.Key == 1 && RTC_T.Sec < 59) {RTC_T.Sec++; KEY.Key = 0;}	// ҫч  №цЖ° АМёй Sec Бх°Ў
    5a54:	80 91 69 51 	lds	r24, 0x5169	; 0x805169 <KEY+0x2>
    5a58:	81 30       	cpi	r24, 0x01	; 1
    5a5a:	51 f4       	brne	.+20     	; 0x5a70 <RTC_Set+0x642>
    5a5c:	80 91 52 51 	lds	r24, 0x5152	; 0x805152 <RTC_T>
    5a60:	8b 33       	cpi	r24, 0x3B	; 59
    5a62:	30 f4       	brcc	.+12     	; 0x5a70 <RTC_Set+0x642>
    5a64:	8f 5f       	subi	r24, 0xFF	; 255
    5a66:	80 93 52 51 	sts	0x5152, r24	; 0x805152 <RTC_T>
    5a6a:	10 92 69 51 	sts	0x5169, r1	; 0x805169 <KEY+0x2>
    5a6e:	10 c0       	rjmp	.+32     	; 0x5a90 <RTC_Set+0x662>
					else if(KEY.Key == 3 && RTC_T.Sec >  0) {RTC_T.Sec--; KEY.Key = 0;}	// ҙЩҝо№цЖ° АМёй Sec °ЁјТ
    5a70:	80 91 69 51 	lds	r24, 0x5169	; 0x805169 <KEY+0x2>
    5a74:	83 30       	cpi	r24, 0x03	; 3
    5a76:	61 f4       	brne	.+24     	; 0x5a90 <RTC_Set+0x662>
    5a78:	80 91 52 51 	lds	r24, 0x5152	; 0x805152 <RTC_T>
    5a7c:	88 23       	and	r24, r24
    5a7e:	41 f0       	breq	.+16     	; 0x5a90 <RTC_Set+0x662>
    5a80:	81 50       	subi	r24, 0x01	; 1
    5a82:	80 93 52 51 	sts	0x5152, r24	; 0x805152 <RTC_T>
    5a86:	10 92 69 51 	sts	0x5169, r1	; 0x805169 <KEY+0x2>
    5a8a:	02 c0       	rjmp	.+4      	; 0x5a90 <RTC_Set+0x662>
				}
			break;

			case 6:
				KEY.Count = 0;					// №Эә№А» А§ЗШ CountёҰ ГЦАъ·О °ЁјТ ҪГЕҙ
    5a8c:	10 92 67 51 	sts	0x5167, r1	; 0x805167 <KEY>
			break;
		}
		wdt_reset();							// ҝцДЎө¶ ё®јВ
    5a90:	0e 94 8c 0e 	call	0x1d18	; 0x1d18 <wdt_reset>
	DIGIT[2][2] = fnd_tbl[RTC_T.Min % 10];

	DIGIT[2][1] = fnd_tbl[RTC_T.Sec / 10];					// ГК ЗҘҪГ
	DIGIT[2][0] = fnd_tbl[RTC_T.Sec % 10];

	while(SET.Menu)								// ёЮҙәёрөе АМёй №Эә№
    5a94:	80 91 28 51 	lds	r24, 0x5128	; 0x805128 <SET>
    5a98:	81 11       	cpse	r24, r1
    5a9a:	72 cd       	rjmp	.-1308   	; 0x5580 <RTC_Set+0x152>
				KEY.Count = 0;					// №Эә№А» А§ЗШ CountёҰ ГЦАъ·О °ЁјТ ҪГЕҙ
			break;
		}
		wdt_reset();							// ҝцДЎө¶ ё®јВ
	}
	RTC_Time_Write(RTC_YEAR,   RTC_T.Year);					// RTC ҝЎ ів АъАе
    5a9c:	c2 e5       	ldi	r28, 0x52	; 82
    5a9e:	d1 e5       	ldi	r29, 0x51	; 81
    5aa0:	6e 81       	ldd	r22, Y+6	; 0x06
    5aa2:	86 e0       	ldi	r24, 0x06	; 6
    5aa4:	0e 94 e9 29 	call	0x53d2	; 0x53d2 <RTC_Time_Write>
	RTC_Time_Write(RTC_MONTH,  RTC_T.Month);				// RTC ҝЎ ҝщ АъАе
    5aa8:	6d 81       	ldd	r22, Y+5	; 0x05
    5aaa:	85 e0       	ldi	r24, 0x05	; 5
    5aac:	0e 94 e9 29 	call	0x53d2	; 0x53d2 <RTC_Time_Write>
	RTC_Time_Write(RTC_DATE,   RTC_T.Date);					// RTC ҝЎ АП АъАе
    5ab0:	6c 81       	ldd	r22, Y+4	; 0x04
    5ab2:	84 e0       	ldi	r24, 0x04	; 4
    5ab4:	0e 94 e9 29 	call	0x53d2	; 0x53d2 <RTC_Time_Write>
	RTC_Time_Write(RTC_HOUR,   RTC_T.Hour);					// RTC ҝЎ ҪГ АъАе
    5ab8:	6a 81       	ldd	r22, Y+2	; 0x02
    5aba:	82 e0       	ldi	r24, 0x02	; 2
    5abc:	0e 94 e9 29 	call	0x53d2	; 0x53d2 <RTC_Time_Write>
	RTC_Time_Write(RTC_MINUTE, RTC_T.Min);					// RTC ҝЎ әР АъАе
    5ac0:	69 81       	ldd	r22, Y+1	; 0x01
    5ac2:	81 e0       	ldi	r24, 0x01	; 1
    5ac4:	0e 94 e9 29 	call	0x53d2	; 0x53d2 <RTC_Time_Write>
	RTC_Time_Write(RTC_SECOND, RTC_T.Sec);					// RTC ҝЎ ГК АъАе
    5ac8:	68 81       	ld	r22, Y
    5aca:	80 e0       	ldi	r24, 0x00	; 0
    5acc:	0e 94 e9 29 	call	0x53d2	; 0x53d2 <RTC_Time_Write>
}
    5ad0:	df 91       	pop	r29
    5ad2:	cf 91       	pop	r28
    5ad4:	08 95       	ret

00005ad6 <SLPCTRL_init>:
    5ad6:	80 e0       	ldi	r24, 0x00	; 0
    5ad8:	08 95       	ret

00005ada <TIMER_1_init>:
	//		 | 0 << TCA_SINGLE_CNTBEI_bp /* Count on Event Input B: disabled */
	//		 | TCA_SINGLE_EVACTA_CNT_POSEDGE_gc /* Count on positive edge event */
	//		 | TCA_SINGLE_EVACTB_UPDOWN_gc; /* Count on prescaled clock. Event controls count direction. Up-count when
	//event line is 0, down-count when event line is 1. */

	TCA1.SINGLE.INTCTRL = 0 << TCA_SINGLE_CMP0_bp   /* Compare 0 Interrupt: disabled */
    5ada:	e0 e4       	ldi	r30, 0x40	; 64
    5adc:	fa e0       	ldi	r31, 0x0A	; 10
    5ade:	81 e0       	ldi	r24, 0x01	; 1
    5ae0:	82 87       	std	Z+10, r24	; 0x0a
			      | 0 << TCA_SINGLE_CMP1_bp /* Compare 1 Interrupt: disabled */
			      | 0 << TCA_SINGLE_CMP2_bp /* Compare 2 Interrupt: disabled */
			      | 1 << TCA_SINGLE_OVF_bp; /* Overflow Interrupt: enabled */

	TCA1.SINGLE.PER = 0x0047;	//   5mSec
    5ae2:	87 e4       	ldi	r24, 0x47	; 71
    5ae4:	90 e0       	ldi	r25, 0x00	; 0
    5ae6:	86 a3       	std	Z+38, r24	; 0x26
    5ae8:	97 a3       	std	Z+39, r25	; 0x27
	// TCA1.SINGLE.PER = 0x008F;	//  10mSec
	// TCA1.SINGLE.PER = 0x02CF;	//  50mSec
	// TCA1.SINGLE.PER = 0x1C20;	// 500mSec
	// TCA1.SINGLE.PER = 0x38B0;	//    1Sec

	TCA1.SINGLE.CTRLA = TCA_SINGLE_CLKSEL_DIV1024_gc      /* System Clock / 1024 */
    5aea:	8f e0       	ldi	r24, 0x0F	; 15
    5aec:	80 83       	st	Z, r24
			    | 1 << TCA_SINGLE_ENABLE_bp    /* Module Enable: enabled */
			    | 0 << TCA_SINGLE_RUNSTDBY_bp; /* RUN STANDBY: disabled */
	return 0;
}
    5aee:	80 e0       	ldi	r24, 0x00	; 0
    5af0:	08 95       	ret

00005af2 <USART_1_init>:

//-------------------------------------------------------------------------------------------------
void Rx1_Buff_Clear(void)						// Rx1 Buffer Clear
{
	memset(Rx1_Buff, 0, RX1_SIZE);					// Rx1_Buff ёҰ Rx1_SIZE(250)ёёЕӯ 0Аё·О ГКұвИӯ
	Rx1_Cnt = 0;							// Rx1 Data Count ГКұвИӯ
    5af2:	e0 e2       	ldi	r30, 0x20	; 32
    5af4:	f8 e0       	ldi	r31, 0x08	; 8
    5af6:	80 e0       	ldi	r24, 0x00	; 0
    5af8:	98 e1       	ldi	r25, 0x18	; 24
    5afa:	80 87       	std	Z+8, r24	; 0x08
    5afc:	91 87       	std	Z+9, r25	; 0x09
    5afe:	84 e9       	ldi	r24, 0x94	; 148
    5b00:	85 83       	std	Z+5, r24	; 0x05
    5b02:	80 ec       	ldi	r24, 0xC0	; 192
    5b04:	86 83       	std	Z+6, r24	; 0x06
    5b06:	80 e0       	ldi	r24, 0x00	; 0
    5b08:	08 95       	ret

00005b0a <USART1_Write>:
    5b0a:	90 91 24 08 	lds	r25, 0x0824	; 0x800824 <__TEXT_REGION_LENGTH__+0x7e0824>
    5b0e:	95 ff       	sbrs	r25, 5
    5b10:	fc cf       	rjmp	.-8      	; 0x5b0a <USART1_Write>
    5b12:	80 93 22 08 	sts	0x0822, r24	; 0x800822 <__TEXT_REGION_LENGTH__+0x7e0822>
    5b16:	81 e0       	ldi	r24, 0x01	; 1
    5b18:	90 e0       	ldi	r25, 0x00	; 0
    5b1a:	08 95       	ret

00005b1c <USART_3_init>:

//=================================================================================================
#ifdef Usart_3
int8_t USART_3_init()
{
	USART3.BAUD = (uint16_t)USART3_BAUD_RATE(Usart3_BAUD);		/* set baud rate register */
    5b1c:	e0 e6       	ldi	r30, 0x60	; 96
    5b1e:	f8 e0       	ldi	r31, 0x08	; 8
    5b20:	80 e0       	ldi	r24, 0x00	; 0
    5b22:	98 e1       	ldi	r25, 0x18	; 24
    5b24:	80 87       	std	Z+8, r24	; 0x08
    5b26:	91 87       	std	Z+9, r25	; 0x09

	USART3.CTRLA = 1 << USART_ABEIE_bp				/* Auto-baud Error Interrupt Enable: disabled */
    5b28:	84 e9       	ldi	r24, 0x94	; 148
    5b2a:	85 83       	std	Z+5, r24	; 0x05
			| USART_RS485_DISABLE_gc			/* RS485 Mode disabled */
			| 1 << USART_RXCIE_bp				/* Receive Complete Interrupt Enable: enabled */
			| 1 << USART_RXSIE_bp				/* Receiver Start Frame Interrupt Enable: enabled */
			| 0 << USART_TXCIE_bp;				/* Transmit Complete Interrupt Enable: disabled */

	USART3.CTRLB = 0 << USART_MPCM_bp				/* Multi-processor Communication Mode: disabled */
    5b2c:	80 ec       	ldi	r24, 0xC0	; 192
    5b2e:	86 83       	std	Z+6, r24	; 0x06
//	USART3.EVCTRL = 0 << USART_IREI_bp;				/* IrDA Event Input Enable: disabled */
//	USART3.RXPLCTRL = 0x0 << USART_RXPL_gp;				/* Receiver Pulse Lenght: 0x0 */
//	USART3.TXPLCTRL = 0x0 << USART_TXPL_gp;				/* Transmit pulse length: 0x0 */

	return 0;
}
    5b30:	80 e0       	ldi	r24, 0x00	; 0
    5b32:	08 95       	ret

00005b34 <USART3_Write>:

//-------------------------------------------------------------------------------------------------
int USART3_Write(char data)
{
	while(!(USART3.STATUS & USART_DREIF_bm)) ;
    5b34:	90 91 64 08 	lds	r25, 0x0864	; 0x800864 <__TEXT_REGION_LENGTH__+0x7e0864>
    5b38:	95 ff       	sbrs	r25, 5
    5b3a:	fc cf       	rjmp	.-8      	; 0x5b34 <USART3_Write>
	USART3.TXDATAL = data;
    5b3c:	80 93 62 08 	sts	0x0862, r24	; 0x800862 <__TEXT_REGION_LENGTH__+0x7e0862>
	return 1;
}
    5b40:	81 e0       	ldi	r24, 0x01	; 1
    5b42:	90 e0       	ldi	r25, 0x00	; 0
    5b44:	08 95       	ret

00005b46 <USART3_SendString>:

//-------------------------------------------------------------------------------------------------
void USART3_SendString(const char *str)
{
    5b46:	0f 93       	push	r16
    5b48:	1f 93       	push	r17
    5b4a:	cf 93       	push	r28
    5b4c:	df 93       	push	r29
    5b4e:	8c 01       	movw	r16, r24
	for(size_t i = 0; i < strlen(str); i++) {USART3_Write(str[i]);}
    5b50:	c0 e0       	ldi	r28, 0x00	; 0
    5b52:	d0 e0       	ldi	r29, 0x00	; 0
    5b54:	07 c0       	rjmp	.+14     	; 0x5b64 <USART3_SendString+0x1e>
    5b56:	f8 01       	movw	r30, r16
    5b58:	ec 0f       	add	r30, r28
    5b5a:	fd 1f       	adc	r31, r29
    5b5c:	80 81       	ld	r24, Z
    5b5e:	0e 94 9a 2d 	call	0x5b34	; 0x5b34 <USART3_Write>
    5b62:	21 96       	adiw	r28, 0x01	; 1
    5b64:	f8 01       	movw	r30, r16
    5b66:	01 90       	ld	r0, Z+
    5b68:	00 20       	and	r0, r0
    5b6a:	e9 f7       	brne	.-6      	; 0x5b66 <USART3_SendString+0x20>
    5b6c:	31 97       	sbiw	r30, 0x01	; 1
    5b6e:	e0 1b       	sub	r30, r16
    5b70:	f1 0b       	sbc	r31, r17
    5b72:	ce 17       	cp	r28, r30
    5b74:	df 07       	cpc	r29, r31
    5b76:	78 f3       	brcs	.-34     	; 0x5b56 <USART3_SendString+0x10>
}
    5b78:	df 91       	pop	r29
    5b7a:	cf 91       	pop	r28
    5b7c:	1f 91       	pop	r17
    5b7e:	0f 91       	pop	r16
    5b80:	08 95       	ret

00005b82 <Rx3_Buff_Clear>:

//-------------------------------------------------------------------------------------------------
void Rx3_Buff_Clear(void)						// Rx3 Buffer Clear
{
	memset(Rx3_Buff, 0, RX3_SIZE);					// Rx3_Buff ёҰ Rx3_SIZE(250)ёёЕӯ 0Аё·О ГКұвИӯ
    5b82:	8a ef       	ldi	r24, 0xFA	; 250
    5b84:	e2 ea       	ldi	r30, 0xA2	; 162
    5b86:	f1 e5       	ldi	r31, 0x51	; 81
    5b88:	df 01       	movw	r26, r30
    5b8a:	1d 92       	st	X+, r1
    5b8c:	8a 95       	dec	r24
    5b8e:	e9 f7       	brne	.-6      	; 0x5b8a <Rx3_Buff_Clear+0x8>
	Rx3_Cnt = 0;							// Rx3 Data Count ГКұвИӯ
    5b90:	10 92 8a 51 	sts	0x518A, r1	; 0x80518a <Rx3_Cnt>
    5b94:	08 95       	ret

00005b96 <WDT_init>:
    5b96:	4a e0       	ldi	r20, 0x0A	; 10
    5b98:	68 ed       	ldi	r22, 0xD8	; 216
    5b9a:	80 e0       	ldi	r24, 0x00	; 0
    5b9c:	91 e0       	ldi	r25, 0x01	; 1
    5b9e:	0e 94 9a 29 	call	0x5334	; 0x5334 <protected_write_io>
    5ba2:	80 e0       	ldi	r24, 0x00	; 0
    5ba4:	08 95       	ret

00005ba6 <ZigBee_Write_id>:
int CH[15] = {0x3043, 0x3044, 0x3045, 0x3046, 0x3130, 0x3131, 0x3132, 0x3133, 0x3134, 0x3135, 0x3136, 0x3137, 0x3138, 0x3139, 0x3140};
//БцұЧәс ГӨіО{    0C,     0D,     0E,     0F,     10,     11,     12,     13,     14,     15,     16,     17,     18,     19,     1A}

//=================================================================================================
void ZigBee_Write_id(void)							// ZigBee PanID АъАе
{
    5ba6:	cf 93       	push	r28
	uint8_t zbid_write = 0;							// zbid_write әҜјц ГКұвИӯ
    5ba8:	c0 e0       	ldi	r28, 0x00	; 0

	do{
		switch(zbid_write)						// zbid_write
    5baa:	c1 30       	cpi	r28, 0x01	; 1
    5bac:	a1 f0       	breq	.+40     	; 0x5bd6 <ZigBee_Write_id+0x30>
    5bae:	28 f0       	brcs	.+10     	; 0x5bba <ZigBee_Write_id+0x14>
    5bb0:	c2 30       	cpi	r28, 0x02	; 2
    5bb2:	69 f1       	breq	.+90     	; 0x5c0e <ZigBee_Write_id+0x68>
    5bb4:	c3 30       	cpi	r28, 0x03	; 3
    5bb6:	81 f1       	breq	.+96     	; 0x5c18 <ZigBee_Write_id+0x72>
    5bb8:	33 c0       	rjmp	.+102    	; 0x5c20 <ZigBee_Write_id+0x7a>
		{
			case 0:							// zbch_wite = 0 АМёй
				USART3_SendString("+++");			// USART3 ҝЎ +++ АьјЫ
    5bba:	88 e6       	ldi	r24, 0x68	; 104
    5bbc:	91 e4       	ldi	r25, 0x41	; 65
    5bbe:	0e 94 a3 2d 	call	0x5b46	; 0x5b46 <USART3_SendString>
    5bc2:	2f ef       	ldi	r18, 0xFF	; 255
    5bc4:	8f ef       	ldi	r24, 0xFF	; 255
    5bc6:	9c e2       	ldi	r25, 0x2C	; 44
    5bc8:	21 50       	subi	r18, 0x01	; 1
    5bca:	80 40       	sbci	r24, 0x00	; 0
    5bcc:	90 40       	sbci	r25, 0x00	; 0
    5bce:	e1 f7       	brne	.-8      	; 0x5bc8 <ZigBee_Write_id+0x22>
    5bd0:	00 c0       	rjmp	.+0      	; 0x5bd2 <ZigBee_Write_id+0x2c>
    5bd2:	00 00       	nop
    5bd4:	25 c0       	rjmp	.+74     	; 0x5c20 <ZigBee_Write_id+0x7a>
				_delay_ms(1000);				// ZigBee ГЦГК ҙдәҜ ҪГ°Ј 1ГК Delay
			break;

			case 1:							// zbch_wite = 1 АМёй
				USART3_SendString("ATID");			// USART3 ҝЎ ATCH АьјЫ
    5bd6:	8c e6       	ldi	r24, 0x6C	; 108
    5bd8:	91 e4       	ldi	r25, 0x41	; 65
    5bda:	0e 94 a3 2d 	call	0x5b46	; 0x5b46 <USART3_SendString>
				USART3_Write(Pan_id_1000 + 0x30);		// USART3 ҝЎ Pan ID 2Byte »уА§ АьјЫ
    5bde:	80 91 64 51 	lds	r24, 0x5164	; 0x805164 <Pan_id_1000>
    5be2:	80 5d       	subi	r24, 0xD0	; 208
    5be4:	0e 94 9a 2d 	call	0x5b34	; 0x5b34 <USART3_Write>
				USART3_Write(Pan_id_100 + 0x30);		// USART3 ҝЎ Pan ID 2Byte ЗПА§ АьјЫ
    5be8:	80 91 c3 41 	lds	r24, 0x41C3	; 0x8041c3 <Pan_id_100>
    5bec:	80 5d       	subi	r24, 0xD0	; 208
    5bee:	0e 94 9a 2d 	call	0x5b34	; 0x5b34 <USART3_Write>
				USART3_Write(Pan_id_10 + 0x30);			// USART3 ҝЎ Pan ID 1Byte »уА§ АьјЫ
    5bf2:	80 91 26 51 	lds	r24, 0x5126	; 0x805126 <Pan_id_10>
    5bf6:	80 5d       	subi	r24, 0xD0	; 208
    5bf8:	0e 94 9a 2d 	call	0x5b34	; 0x5b34 <USART3_Write>
				USART3_Write(Pan_id_1 + 0x30);			// USART3 ҝЎ Pan ID 1Byte ЗПА§ АьјЫ
    5bfc:	80 91 05 51 	lds	r24, 0x5105	; 0x805105 <Pan_id_1>
    5c00:	80 5d       	subi	r24, 0xD0	; 208
    5c02:	0e 94 9a 2d 	call	0x5b34	; 0x5b34 <USART3_Write>
				USART3_Write('\r');				// USART3 ҝЎ \r
    5c06:	8d e0       	ldi	r24, 0x0D	; 13
    5c08:	0e 94 9a 2d 	call	0x5b34	; 0x5b34 <USART3_Write>
			break;
    5c0c:	09 c0       	rjmp	.+18     	; 0x5c20 <ZigBee_Write_id+0x7a>

			case 2:							// zbch_wite = 2 АМёй
				USART3_SendString("ATWR\r");			// USART3 ҝЎ ATWR\r АьјЫ
    5c0e:	81 e7       	ldi	r24, 0x71	; 113
    5c10:	91 e4       	ldi	r25, 0x41	; 65
    5c12:	0e 94 a3 2d 	call	0x5b46	; 0x5b46 <USART3_SendString>
			break;
    5c16:	04 c0       	rjmp	.+8      	; 0x5c20 <ZigBee_Write_id+0x7a>

			case 3:							// zbch_wite = 3 АМёй
				USART3_SendString("ATCN\r");			// USART3 ҝЎ ATCN\r АьјЫ
    5c18:	87 e7       	ldi	r24, 0x77	; 119
    5c1a:	91 e4       	ldi	r25, 0x41	; 65
    5c1c:	0e 94 a3 2d 	call	0x5b46	; 0x5b46 <USART3_SendString>
			break;
		}
//-------------------------------------------------------------------------------------------------
		for(uint8_t cnt = 0; cnt < RX3_SIZE; cnt++)			// RX3_SIZE ёёЕӯ №Эә№
    5c20:	80 e0       	ldi	r24, 0x00	; 0
    5c22:	9d c0       	rjmp	.+314    	; 0x5d5e <ZigBee_Write_id+0x1b8>
		{
			if(zbid_write == 0 && Rx3_Buff[cnt] == 'O' && Rx3_Buff[cnt + 1] == 'K' && Rx3_Buff[cnt + 2] == 0x0d)
    5c24:	c1 11       	cpse	r28, r1
    5c26:	25 c0       	rjmp	.+74     	; 0x5c72 <ZigBee_Write_id+0xcc>
    5c28:	28 2f       	mov	r18, r24
    5c2a:	30 e0       	ldi	r19, 0x00	; 0
    5c2c:	f9 01       	movw	r30, r18
    5c2e:	ee 55       	subi	r30, 0x5E	; 94
    5c30:	fe 4a       	sbci	r31, 0xAE	; 174
    5c32:	90 81       	ld	r25, Z
    5c34:	9f 34       	cpi	r25, 0x4F	; 79
    5c36:	e9 f4       	brne	.+58     	; 0x5c72 <ZigBee_Write_id+0xcc>
    5c38:	f9 01       	movw	r30, r18
    5c3a:	ed 55       	subi	r30, 0x5D	; 93
    5c3c:	fe 4a       	sbci	r31, 0xAE	; 174
    5c3e:	90 81       	ld	r25, Z
    5c40:	9b 34       	cpi	r25, 0x4B	; 75
    5c42:	b9 f4       	brne	.+46     	; 0x5c72 <ZigBee_Write_id+0xcc>
    5c44:	f9 01       	movw	r30, r18
    5c46:	ec 55       	subi	r30, 0x5C	; 92
    5c48:	fe 4a       	sbci	r31, 0xAE	; 174
    5c4a:	90 81       	ld	r25, Z
    5c4c:	9d 30       	cpi	r25, 0x0D	; 13
    5c4e:	89 f4       	brne	.+34     	; 0x5c72 <ZigBee_Write_id+0xcc>
			{							// 0+OK+CR
				zbid_write = 1;					// ҙдәҜ И®АО ИД ҙЩАҪАё·О Бх°Ў
				Beep(3);
    5c50:	83 e0       	ldi	r24, 0x03	; 3
    5c52:	90 e0       	ldi	r25, 0x00	; 0
    5c54:	0e 94 42 04 	call	0x884	; 0x884 <Beep>
    5c58:	2f ef       	ldi	r18, 0xFF	; 255
    5c5a:	8f e3       	ldi	r24, 0x3F	; 63
    5c5c:	92 e0       	ldi	r25, 0x02	; 2
    5c5e:	21 50       	subi	r18, 0x01	; 1
    5c60:	80 40       	sbci	r24, 0x00	; 0
    5c62:	90 40       	sbci	r25, 0x00	; 0
    5c64:	e1 f7       	brne	.-8      	; 0x5c5e <ZigBee_Write_id+0xb8>
    5c66:	00 c0       	rjmp	.+0      	; 0x5c68 <ZigBee_Write_id+0xc2>
    5c68:	00 00       	nop
				_delay_ms(50);					// ZigBee Гіё® ҪГ°Ј ИД
				Rx3_Buff_Clear();				// Rx3 Buff Clear
    5c6a:	0e 94 c1 2d 	call	0x5b82	; 0x5b82 <Rx3_Buff_Clear>
//-------------------------------------------------------------------------------------------------
		for(uint8_t cnt = 0; cnt < RX3_SIZE; cnt++)			// RX3_SIZE ёёЕӯ №Эә№
		{
			if(zbid_write == 0 && Rx3_Buff[cnt] == 'O' && Rx3_Buff[cnt + 1] == 'K' && Rx3_Buff[cnt + 2] == 0x0d)
			{							// 0+OK+CR
				zbid_write = 1;					// ҙдәҜ И®АО ИД ҙЩАҪАё·О Бх°Ў
    5c6e:	c1 e0       	ldi	r28, 0x01	; 1
				Beep(3);
				_delay_ms(50);					// ZigBee Гіё® ҪГ°Ј ИД
				Rx3_Buff_Clear();				// Rx3 Buff Clear
				break;
    5c70:	79 c0       	rjmp	.+242    	; 0x5d64 <ZigBee_Write_id+0x1be>
			}

			if(zbid_write == 1 && Rx3_Buff[cnt] == 'O' && Rx3_Buff[cnt + 1] == 'K' && Rx3_Buff[cnt + 2] == 0x0d)
    5c72:	c1 30       	cpi	r28, 0x01	; 1
    5c74:	29 f5       	brne	.+74     	; 0x5cc0 <ZigBee_Write_id+0x11a>
    5c76:	28 2f       	mov	r18, r24
    5c78:	30 e0       	ldi	r19, 0x00	; 0
    5c7a:	f9 01       	movw	r30, r18
    5c7c:	ee 55       	subi	r30, 0x5E	; 94
    5c7e:	fe 4a       	sbci	r31, 0xAE	; 174
    5c80:	90 81       	ld	r25, Z
    5c82:	9f 34       	cpi	r25, 0x4F	; 79
    5c84:	e9 f4       	brne	.+58     	; 0x5cc0 <ZigBee_Write_id+0x11a>
    5c86:	f9 01       	movw	r30, r18
    5c88:	ed 55       	subi	r30, 0x5D	; 93
    5c8a:	fe 4a       	sbci	r31, 0xAE	; 174
    5c8c:	90 81       	ld	r25, Z
    5c8e:	9b 34       	cpi	r25, 0x4B	; 75
    5c90:	b9 f4       	brne	.+46     	; 0x5cc0 <ZigBee_Write_id+0x11a>
    5c92:	f9 01       	movw	r30, r18
    5c94:	ec 55       	subi	r30, 0x5C	; 92
    5c96:	fe 4a       	sbci	r31, 0xAE	; 174
    5c98:	90 81       	ld	r25, Z
    5c9a:	9d 30       	cpi	r25, 0x0D	; 13
    5c9c:	89 f4       	brne	.+34     	; 0x5cc0 <ZigBee_Write_id+0x11a>
			{							// 1+OK+CR
				zbid_write = 2;					// ҙдәҜ И®АО ИД ҙЩАҪАё·О Бх°Ў
				Beep(3);
    5c9e:	83 e0       	ldi	r24, 0x03	; 3
    5ca0:	90 e0       	ldi	r25, 0x00	; 0
    5ca2:	0e 94 42 04 	call	0x884	; 0x884 <Beep>
    5ca6:	2f ef       	ldi	r18, 0xFF	; 255
    5ca8:	8f e3       	ldi	r24, 0x3F	; 63
    5caa:	92 e0       	ldi	r25, 0x02	; 2
    5cac:	21 50       	subi	r18, 0x01	; 1
    5cae:	80 40       	sbci	r24, 0x00	; 0
    5cb0:	90 40       	sbci	r25, 0x00	; 0
    5cb2:	e1 f7       	brne	.-8      	; 0x5cac <ZigBee_Write_id+0x106>
    5cb4:	00 c0       	rjmp	.+0      	; 0x5cb6 <ZigBee_Write_id+0x110>
    5cb6:	00 00       	nop
				_delay_ms(50);					// ZigBee Гіё® ҪГ°Ј ИД
				Rx3_Buff_Clear();				// Rx3 Buff Clear
    5cb8:	0e 94 c1 2d 	call	0x5b82	; 0x5b82 <Rx3_Buff_Clear>
				break;
			}

			if(zbid_write == 1 && Rx3_Buff[cnt] == 'O' && Rx3_Buff[cnt + 1] == 'K' && Rx3_Buff[cnt + 2] == 0x0d)
			{							// 1+OK+CR
				zbid_write = 2;					// ҙдәҜ И®АО ИД ҙЩАҪАё·О Бх°Ў
    5cbc:	c2 e0       	ldi	r28, 0x02	; 2
				Beep(3);
				_delay_ms(50);					// ZigBee Гіё® ҪГ°Ј ИД
				Rx3_Buff_Clear();				// Rx3 Buff Clear
				break;
    5cbe:	52 c0       	rjmp	.+164    	; 0x5d64 <ZigBee_Write_id+0x1be>
			}

			if(zbid_write == 2 && Rx3_Buff[cnt] == 'O' && Rx3_Buff[cnt + 1] == 'K' && Rx3_Buff[cnt + 2] == 0x0d)
    5cc0:	c2 30       	cpi	r28, 0x02	; 2
    5cc2:	29 f5       	brne	.+74     	; 0x5d0e <ZigBee_Write_id+0x168>
    5cc4:	28 2f       	mov	r18, r24
    5cc6:	30 e0       	ldi	r19, 0x00	; 0
    5cc8:	f9 01       	movw	r30, r18
    5cca:	ee 55       	subi	r30, 0x5E	; 94
    5ccc:	fe 4a       	sbci	r31, 0xAE	; 174
    5cce:	90 81       	ld	r25, Z
    5cd0:	9f 34       	cpi	r25, 0x4F	; 79
    5cd2:	e9 f4       	brne	.+58     	; 0x5d0e <ZigBee_Write_id+0x168>
    5cd4:	f9 01       	movw	r30, r18
    5cd6:	ed 55       	subi	r30, 0x5D	; 93
    5cd8:	fe 4a       	sbci	r31, 0xAE	; 174
    5cda:	90 81       	ld	r25, Z
    5cdc:	9b 34       	cpi	r25, 0x4B	; 75
    5cde:	b9 f4       	brne	.+46     	; 0x5d0e <ZigBee_Write_id+0x168>
    5ce0:	f9 01       	movw	r30, r18
    5ce2:	ec 55       	subi	r30, 0x5C	; 92
    5ce4:	fe 4a       	sbci	r31, 0xAE	; 174
    5ce6:	90 81       	ld	r25, Z
    5ce8:	9d 30       	cpi	r25, 0x0D	; 13
    5cea:	89 f4       	brne	.+34     	; 0x5d0e <ZigBee_Write_id+0x168>
			{							// 2+OK+CR
				zbid_write = 3;					// ҙдәҜ И®АО ИД ҙЩАҪАё·О Бх°Ў
				Beep(3);
    5cec:	83 e0       	ldi	r24, 0x03	; 3
    5cee:	90 e0       	ldi	r25, 0x00	; 0
    5cf0:	0e 94 42 04 	call	0x884	; 0x884 <Beep>
    5cf4:	2f ef       	ldi	r18, 0xFF	; 255
    5cf6:	8f e3       	ldi	r24, 0x3F	; 63
    5cf8:	92 e0       	ldi	r25, 0x02	; 2
    5cfa:	21 50       	subi	r18, 0x01	; 1
    5cfc:	80 40       	sbci	r24, 0x00	; 0
    5cfe:	90 40       	sbci	r25, 0x00	; 0
    5d00:	e1 f7       	brne	.-8      	; 0x5cfa <ZigBee_Write_id+0x154>
    5d02:	00 c0       	rjmp	.+0      	; 0x5d04 <ZigBee_Write_id+0x15e>
    5d04:	00 00       	nop
				_delay_ms(50);					// ZigBee Гіё® ҪГ°Ј ИД
				Rx3_Buff_Clear();				// Rx3 Buff Clear
    5d06:	0e 94 c1 2d 	call	0x5b82	; 0x5b82 <Rx3_Buff_Clear>
				break;
			}

			if(zbid_write == 2 && Rx3_Buff[cnt] == 'O' && Rx3_Buff[cnt + 1] == 'K' && Rx3_Buff[cnt + 2] == 0x0d)
			{							// 2+OK+CR
				zbid_write = 3;					// ҙдәҜ И®АО ИД ҙЩАҪАё·О Бх°Ў
    5d0a:	c3 e0       	ldi	r28, 0x03	; 3
				Beep(3);
				_delay_ms(50);					// ZigBee Гіё® ҪГ°Ј ИД
				Rx3_Buff_Clear();				// Rx3 Buff Clear
				break;
    5d0c:	2b c0       	rjmp	.+86     	; 0x5d64 <ZigBee_Write_id+0x1be>
			}

			if(zbid_write == 3 && Rx3_Buff[cnt] == 'O' && Rx3_Buff[cnt + 1] == 'K' && Rx3_Buff[cnt + 2] == 0x0d)
    5d0e:	c3 30       	cpi	r28, 0x03	; 3
    5d10:	29 f5       	brne	.+74     	; 0x5d5c <ZigBee_Write_id+0x1b6>
    5d12:	28 2f       	mov	r18, r24
    5d14:	30 e0       	ldi	r19, 0x00	; 0
    5d16:	f9 01       	movw	r30, r18
    5d18:	ee 55       	subi	r30, 0x5E	; 94
    5d1a:	fe 4a       	sbci	r31, 0xAE	; 174
    5d1c:	90 81       	ld	r25, Z
    5d1e:	9f 34       	cpi	r25, 0x4F	; 79
    5d20:	e9 f4       	brne	.+58     	; 0x5d5c <ZigBee_Write_id+0x1b6>
    5d22:	f9 01       	movw	r30, r18
    5d24:	ed 55       	subi	r30, 0x5D	; 93
    5d26:	fe 4a       	sbci	r31, 0xAE	; 174
    5d28:	90 81       	ld	r25, Z
    5d2a:	9b 34       	cpi	r25, 0x4B	; 75
    5d2c:	b9 f4       	brne	.+46     	; 0x5d5c <ZigBee_Write_id+0x1b6>
    5d2e:	f9 01       	movw	r30, r18
    5d30:	ec 55       	subi	r30, 0x5C	; 92
    5d32:	fe 4a       	sbci	r31, 0xAE	; 174
    5d34:	90 81       	ld	r25, Z
    5d36:	9d 30       	cpi	r25, 0x0D	; 13
    5d38:	89 f4       	brne	.+34     	; 0x5d5c <ZigBee_Write_id+0x1b6>
			{							// 3+OK+CR
				zbid_write = 5;					// ҙдәҜ И®АО ИД While()№® Бҫ·б
				Beep(3);
    5d3a:	83 e0       	ldi	r24, 0x03	; 3
    5d3c:	90 e0       	ldi	r25, 0x00	; 0
    5d3e:	0e 94 42 04 	call	0x884	; 0x884 <Beep>
    5d42:	2f ef       	ldi	r18, 0xFF	; 255
    5d44:	8f e3       	ldi	r24, 0x3F	; 63
    5d46:	92 e0       	ldi	r25, 0x02	; 2
    5d48:	21 50       	subi	r18, 0x01	; 1
    5d4a:	80 40       	sbci	r24, 0x00	; 0
    5d4c:	90 40       	sbci	r25, 0x00	; 0
    5d4e:	e1 f7       	brne	.-8      	; 0x5d48 <ZigBee_Write_id+0x1a2>
    5d50:	00 c0       	rjmp	.+0      	; 0x5d52 <ZigBee_Write_id+0x1ac>
    5d52:	00 00       	nop
				_delay_ms(50);					// ZigBee Гіё® ҪГ°Ј ИД
				Rx3_Buff_Clear();				// Rx3 Buff Clear
    5d54:	0e 94 c1 2d 	call	0x5b82	; 0x5b82 <Rx3_Buff_Clear>
				break;
			}

			if(zbid_write == 3 && Rx3_Buff[cnt] == 'O' && Rx3_Buff[cnt + 1] == 'K' && Rx3_Buff[cnt + 2] == 0x0d)
			{							// 3+OK+CR
				zbid_write = 5;					// ҙдәҜ И®АО ИД While()№® Бҫ·б
    5d58:	c5 e0       	ldi	r28, 0x05	; 5
				Beep(3);
				_delay_ms(50);					// ZigBee Гіё® ҪГ°Ј ИД
				Rx3_Buff_Clear();				// Rx3 Buff Clear
				break;
    5d5a:	04 c0       	rjmp	.+8      	; 0x5d64 <ZigBee_Write_id+0x1be>
			case 3:							// zbch_wite = 3 АМёй
				USART3_SendString("ATCN\r");			// USART3 ҝЎ ATCN\r АьјЫ
			break;
		}
//-------------------------------------------------------------------------------------------------
		for(uint8_t cnt = 0; cnt < RX3_SIZE; cnt++)			// RX3_SIZE ёёЕӯ №Эә№
    5d5c:	8f 5f       	subi	r24, 0xFF	; 255
    5d5e:	8a 3f       	cpi	r24, 0xFA	; 250
    5d60:	08 f4       	brcc	.+2      	; 0x5d64 <ZigBee_Write_id+0x1be>
    5d62:	60 cf       	rjmp	.-320    	; 0x5c24 <ZigBee_Write_id+0x7e>
				_delay_ms(50);					// ZigBee Гіё® ҪГ°Ј ИД
				Rx3_Buff_Clear();				// Rx3 Buff Clear
				break;
			}
		}
		wdt_reset();							// ҝцДЎө¶ ё®јВ
    5d64:	0e 94 8c 0e 	call	0x1d18	; 0x1d18 <wdt_reset>
	}while(zbid_write != 5);						// zbid_write °Ў 5 АП¶§ ұоБц №Эә№
    5d68:	c5 30       	cpi	r28, 0x05	; 5
    5d6a:	09 f0       	breq	.+2      	; 0x5d6e <ZigBee_Write_id+0x1c8>
    5d6c:	1e cf       	rjmp	.-452    	; 0x5baa <ZigBee_Write_id+0x4>
}
    5d6e:	cf 91       	pop	r28
    5d70:	08 95       	ret

00005d72 <ZigBee_PanID_Write>:

//=================================================================================================
void ZigBee_PanID_Write(void)							// ZigBee PanID јіБӨ
{
    5d72:	6f 92       	push	r6
    5d74:	7f 92       	push	r7
    5d76:	8f 92       	push	r8
    5d78:	9f 92       	push	r9
    5d7a:	bf 92       	push	r11
    5d7c:	cf 92       	push	r12
    5d7e:	df 92       	push	r13
    5d80:	ef 92       	push	r14
    5d82:	ff 92       	push	r15
    5d84:	0f 93       	push	r16
    5d86:	1f 93       	push	r17
    5d88:	cf 93       	push	r28
    5d8a:	df 93       	push	r29
	uint8_t digit_5, digit_4, digit_3, digit_2, digit_1;			// digit әҜјц ГКұвИӯ

	FND_Value_Data(1, 2, 12);						// FND 0 ~ 2 FND_OFF
    5d8c:	4c e0       	ldi	r20, 0x0C	; 12
    5d8e:	62 e0       	ldi	r22, 0x02	; 2
    5d90:	81 e0       	ldi	r24, 0x01	; 1
    5d92:	0e 94 d2 05 	call	0xba4	; 0xba4 <FND_Value_Data>

	digit_5 = ZB_id / 10000;						// ZigBee PanID 10000АЗ АЪё®
    5d96:	80 90 7d 51 	lds	r8, 0x517D	; 0x80517d <ZB_id>
    5d9a:	90 90 7e 51 	lds	r9, 0x517E	; 0x80517e <ZB_id+0x1>
    5d9e:	94 01       	movw	r18, r8
    5da0:	32 95       	swap	r19
    5da2:	22 95       	swap	r18
    5da4:	2f 70       	andi	r18, 0x0F	; 15
    5da6:	23 27       	eor	r18, r19
    5da8:	3f 70       	andi	r19, 0x0F	; 15
    5daa:	23 27       	eor	r18, r19
    5dac:	a7 e4       	ldi	r26, 0x47	; 71
    5dae:	b3 e0       	ldi	r27, 0x03	; 3
    5db0:	0e 94 e8 3b 	call	0x77d0	; 0x77d0 <__umulhisi3>
    5db4:	6c 01       	movw	r12, r24
    5db6:	d6 94       	lsr	r13
    5db8:	c7 94       	ror	r12
    5dba:	d6 94       	lsr	r13
    5dbc:	c7 94       	ror	r12
    5dbe:	d6 94       	lsr	r13
    5dc0:	c7 94       	ror	r12
    5dc2:	dc 2d       	mov	r29, r12
	digit_4 = ZB_id % 10000 / 1000;						// ZigBee PanID  1000АЗ АЪё®
    5dc4:	20 e1       	ldi	r18, 0x10	; 16
    5dc6:	37 e2       	ldi	r19, 0x27	; 39
    5dc8:	c2 9e       	mul	r12, r18
    5dca:	c0 01       	movw	r24, r0
    5dcc:	c3 9e       	mul	r12, r19
    5dce:	90 0d       	add	r25, r0
    5dd0:	d2 9e       	mul	r13, r18
    5dd2:	90 0d       	add	r25, r0
    5dd4:	11 24       	eor	r1, r1
    5dd6:	94 01       	movw	r18, r8
    5dd8:	28 1b       	sub	r18, r24
    5dda:	39 0b       	sbc	r19, r25
    5ddc:	36 95       	lsr	r19
    5dde:	27 95       	ror	r18
    5de0:	36 95       	lsr	r19
    5de2:	27 95       	ror	r18
    5de4:	36 95       	lsr	r19
    5de6:	27 95       	ror	r18
    5de8:	a5 ec       	ldi	r26, 0xC5	; 197
    5dea:	b0 e2       	ldi	r27, 0x20	; 32
    5dec:	0e 94 e8 3b 	call	0x77d0	; 0x77d0 <__umulhisi3>
    5df0:	7c 01       	movw	r14, r24
    5df2:	f6 94       	lsr	r15
    5df4:	e7 94       	ror	r14
    5df6:	f6 94       	lsr	r15
    5df8:	e7 94       	ror	r14
    5dfa:	f6 94       	lsr	r15
    5dfc:	e7 94       	ror	r14
    5dfe:	f6 94       	lsr	r15
    5e00:	e7 94       	ror	r14
    5e02:	be 2c       	mov	r11, r14
	digit_3 = ZB_id % 1000 / 100;						// ZigBee PanID   100АЗ АЪё®
    5e04:	94 01       	movw	r18, r8
    5e06:	36 95       	lsr	r19
    5e08:	27 95       	ror	r18
    5e0a:	36 95       	lsr	r19
    5e0c:	27 95       	ror	r18
    5e0e:	36 95       	lsr	r19
    5e10:	27 95       	ror	r18
    5e12:	0e 94 e8 3b 	call	0x77d0	; 0x77d0 <__umulhisi3>
    5e16:	92 95       	swap	r25
    5e18:	82 95       	swap	r24
    5e1a:	8f 70       	andi	r24, 0x0F	; 15
    5e1c:	89 27       	eor	r24, r25
    5e1e:	9f 70       	andi	r25, 0x0F	; 15
    5e20:	89 27       	eor	r24, r25
    5e22:	48 ee       	ldi	r20, 0xE8	; 232
    5e24:	53 e0       	ldi	r21, 0x03	; 3
    5e26:	84 9f       	mul	r24, r20
    5e28:	90 01       	movw	r18, r0
    5e2a:	85 9f       	mul	r24, r21
    5e2c:	30 0d       	add	r19, r0
    5e2e:	94 9f       	mul	r25, r20
    5e30:	30 0d       	add	r19, r0
    5e32:	11 24       	eor	r1, r1
    5e34:	c4 01       	movw	r24, r8
    5e36:	82 1b       	sub	r24, r18
    5e38:	93 0b       	sbc	r25, r19
    5e3a:	9c 01       	movw	r18, r24
    5e3c:	36 95       	lsr	r19
    5e3e:	27 95       	ror	r18
    5e40:	36 95       	lsr	r19
    5e42:	27 95       	ror	r18
    5e44:	ab e7       	ldi	r26, 0x7B	; 123
    5e46:	b4 e1       	ldi	r27, 0x14	; 20
    5e48:	0e 94 e8 3b 	call	0x77d0	; 0x77d0 <__umulhisi3>
    5e4c:	3c 01       	movw	r6, r24
    5e4e:	76 94       	lsr	r7
    5e50:	67 94       	ror	r6
    5e52:	06 2d       	mov	r16, r6
	digit_2 = ZB_id % 100 / 10;						// ZigBee PanID    10АЗ АЪё®
    5e54:	94 01       	movw	r18, r8
    5e56:	36 95       	lsr	r19
    5e58:	27 95       	ror	r18
    5e5a:	36 95       	lsr	r19
    5e5c:	27 95       	ror	r18
    5e5e:	0e 94 e8 3b 	call	0x77d0	; 0x77d0 <__umulhisi3>
    5e62:	9c 01       	movw	r18, r24
    5e64:	36 95       	lsr	r19
    5e66:	27 95       	ror	r18
    5e68:	44 e6       	ldi	r20, 0x64	; 100
    5e6a:	42 9f       	mul	r20, r18
    5e6c:	c0 01       	movw	r24, r0
    5e6e:	43 9f       	mul	r20, r19
    5e70:	90 0d       	add	r25, r0
    5e72:	11 24       	eor	r1, r1
    5e74:	94 01       	movw	r18, r8
    5e76:	28 1b       	sub	r18, r24
    5e78:	39 0b       	sbc	r19, r25
    5e7a:	ad ec       	ldi	r26, 0xCD	; 205
    5e7c:	bc ec       	ldi	r27, 0xCC	; 204
    5e7e:	0e 94 e8 3b 	call	0x77d0	; 0x77d0 <__umulhisi3>
    5e82:	ac 01       	movw	r20, r24
    5e84:	56 95       	lsr	r21
    5e86:	47 95       	ror	r20
    5e88:	56 95       	lsr	r21
    5e8a:	47 95       	ror	r20
    5e8c:	56 95       	lsr	r21
    5e8e:	47 95       	ror	r20
    5e90:	c4 2f       	mov	r28, r20
	digit_1 = ZB_id % 10;							// ZigBee PanID     1АЗ АЪё®
    5e92:	94 01       	movw	r18, r8
    5e94:	0e 94 e8 3b 	call	0x77d0	; 0x77d0 <__umulhisi3>
    5e98:	96 95       	lsr	r25
    5e9a:	87 95       	ror	r24
    5e9c:	96 95       	lsr	r25
    5e9e:	87 95       	ror	r24
    5ea0:	96 95       	lsr	r25
    5ea2:	87 95       	ror	r24
    5ea4:	9c 01       	movw	r18, r24
    5ea6:	22 0f       	add	r18, r18
    5ea8:	33 1f       	adc	r19, r19
    5eaa:	88 0f       	add	r24, r24
    5eac:	99 1f       	adc	r25, r25
    5eae:	88 0f       	add	r24, r24
    5eb0:	99 1f       	adc	r25, r25
    5eb2:	88 0f       	add	r24, r24
    5eb4:	99 1f       	adc	r25, r25
    5eb6:	82 0f       	add	r24, r18
    5eb8:	93 1f       	adc	r25, r19
    5eba:	94 01       	movw	r18, r8
    5ebc:	28 1b       	sub	r18, r24
    5ebe:	39 0b       	sbc	r19, r25
    5ec0:	c9 01       	movw	r24, r18
    5ec2:	12 2f       	mov	r17, r18

	DIGIT[1][3] = fnd_tbl[digit_5];						// ZigBee PanID 10000АЗ АЪё® ЗҘҪГ
    5ec4:	d6 01       	movw	r26, r12
    5ec6:	a5 5a       	subi	r26, 0xA5	; 165
    5ec8:	be 4b       	sbci	r27, 0xBE	; 190
    5eca:	2c 91       	ld	r18, X
    5ecc:	a1 e9       	ldi	r26, 0x91	; 145
    5ece:	b1 e4       	ldi	r27, 0x41	; 65
    5ed0:	17 96       	adiw	r26, 0x07	; 7
    5ed2:	2c 93       	st	X, r18
    5ed4:	17 97       	sbiw	r26, 0x07	; 7
	DIGIT[1][2] = fnd_tbl[digit_4];						// ZigBee PanID  1000АЗ АЪё® ЗҘҪГ
    5ed6:	97 01       	movw	r18, r14
    5ed8:	33 27       	eor	r19, r19
    5eda:	25 5a       	subi	r18, 0xA5	; 165
    5edc:	3e 4b       	sbci	r19, 0xBE	; 190
    5ede:	f9 01       	movw	r30, r18
    5ee0:	20 81       	ld	r18, Z
    5ee2:	16 96       	adiw	r26, 0x06	; 6
    5ee4:	2c 93       	st	X, r18
    5ee6:	16 97       	sbiw	r26, 0x06	; 6
	DIGIT[1][1] = fnd_tbl[digit_3];						// ZigBee PanID   100АЗ АЪё® ЗҘҪГ
    5ee8:	f3 01       	movw	r30, r6
    5eea:	ff 27       	eor	r31, r31
    5eec:	e5 5a       	subi	r30, 0xA5	; 165
    5eee:	fe 4b       	sbci	r31, 0xBE	; 190
    5ef0:	20 81       	ld	r18, Z
    5ef2:	15 96       	adiw	r26, 0x05	; 5
    5ef4:	2c 93       	st	X, r18
    5ef6:	15 97       	sbiw	r26, 0x05	; 5
	DIGIT[1][0] = fnd_tbl[digit_2];						// ZigBee PanID    10АЗ АЪё® ЗҘҪГ
    5ef8:	55 27       	eor	r21, r21
    5efa:	fa 01       	movw	r30, r20
    5efc:	e5 5a       	subi	r30, 0xA5	; 165
    5efe:	fe 4b       	sbci	r31, 0xBE	; 190
    5f00:	20 81       	ld	r18, Z
    5f02:	14 96       	adiw	r26, 0x04	; 4
    5f04:	2c 93       	st	X, r18
    5f06:	14 97       	sbiw	r26, 0x04	; 4

	DIGIT[2][3] = fnd_tbl[digit_1];						// ZigBee PanID     1АЗ АЪё® ЗҘҪГ
    5f08:	99 27       	eor	r25, r25
    5f0a:	fc 01       	movw	r30, r24
    5f0c:	e5 5a       	subi	r30, 0xA5	; 165
    5f0e:	fe 4b       	sbci	r31, 0xBE	; 190
    5f10:	80 81       	ld	r24, Z
    5f12:	1b 96       	adiw	r26, 0x0b	; 11
    5f14:	8c 93       	st	X, r24

	while(SET.Menu)								// ёЮҙәёрөе АМёй №Эә№
    5f16:	77 c1       	rjmp	.+750    	; 0x6206 <ZigBee_PanID_Write+0x494>
	{
		SET.Blink = 1;							// АЪёҙјц ұф№ЪАУ јіБӨ
    5f18:	81 e0       	ldi	r24, 0x01	; 1
    5f1a:	80 93 2b 51 	sts	0x512B, r24	; 0x80512b <SET+0x3>

		switch(KEY.Count)						// јұЕГ Key °Ў ҙӯё°ИҪјц
    5f1e:	80 91 67 51 	lds	r24, 0x5167	; 0x805167 <KEY>
    5f22:	82 30       	cpi	r24, 0x02	; 2
    5f24:	09 f4       	brne	.+2      	; 0x5f28 <ZigBee_PanID_Write+0x1b6>
    5f26:	89 c0       	rjmp	.+274    	; 0x603a <ZigBee_PanID_Write+0x2c8>
    5f28:	28 f4       	brcc	.+10     	; 0x5f34 <ZigBee_PanID_Write+0x1c2>
    5f2a:	88 23       	and	r24, r24
    5f2c:	61 f0       	breq	.+24     	; 0x5f46 <ZigBee_PanID_Write+0x1d4>
    5f2e:	81 30       	cpi	r24, 0x01	; 1
    5f30:	d1 f1       	breq	.+116    	; 0x5fa6 <ZigBee_PanID_Write+0x234>
    5f32:	67 c1       	rjmp	.+718    	; 0x6202 <ZigBee_PanID_Write+0x490>
    5f34:	84 30       	cpi	r24, 0x04	; 4
    5f36:	09 f4       	brne	.+2      	; 0x5f3a <ZigBee_PanID_Write+0x1c8>
    5f38:	18 c1       	rjmp	.+560    	; 0x616a <ZigBee_PanID_Write+0x3f8>
    5f3a:	08 f4       	brcc	.+2      	; 0x5f3e <ZigBee_PanID_Write+0x1cc>
    5f3c:	c9 c0       	rjmp	.+402    	; 0x60d0 <ZigBee_PanID_Write+0x35e>
    5f3e:	85 30       	cpi	r24, 0x05	; 5
    5f40:	09 f4       	brne	.+2      	; 0x5f44 <ZigBee_PanID_Write+0x1d2>
    5f42:	5d c1       	rjmp	.+698    	; 0x61fe <ZigBee_PanID_Write+0x48c>
    5f44:	5e c1       	rjmp	.+700    	; 0x6202 <ZigBee_PanID_Write+0x490>
		{
//-------------------------------------------------------------------------------------------------
			case 0:							// ZigBee PanID 10000АЗ АЪё®
				DIGIT[2][3] = fnd_tbl[digit_1];			// ZigBee PanID     1АЗ АЪё® ЗҘҪГ
    5f46:	e1 2f       	mov	r30, r17
    5f48:	f0 e0       	ldi	r31, 0x00	; 0
    5f4a:	e5 5a       	subi	r30, 0xA5	; 165
    5f4c:	fe 4b       	sbci	r31, 0xBE	; 190
    5f4e:	80 81       	ld	r24, Z
    5f50:	80 93 9c 41 	sts	0x419C, r24	; 0x80419c <DIGIT+0xb>
				if(Blink) {DIGIT[1][3] = FND_OFF;}		// Blink = 1 АМёй ZigBee PanID 10000АЗ АЪё® OFF
    5f54:	80 91 93 51 	lds	r24, 0x5193	; 0x805193 <Blink>
    5f58:	88 23       	and	r24, r24
    5f5a:	19 f0       	breq	.+6      	; 0x5f62 <ZigBee_PanID_Write+0x1f0>
    5f5c:	10 92 98 41 	sts	0x4198, r1	; 0x804198 <DIGIT+0x7>
    5f60:	07 c0       	rjmp	.+14     	; 0x5f70 <ZigBee_PanID_Write+0x1fe>
				else	  {DIGIT[1][3] = fnd_tbl[digit_5];}	// Blink = 0 АМёй ZigBee PanID 10000АЗ АЪё® ЗҘҪГ
    5f62:	ed 2f       	mov	r30, r29
    5f64:	f0 e0       	ldi	r31, 0x00	; 0
    5f66:	e5 5a       	subi	r30, 0xA5	; 165
    5f68:	fe 4b       	sbci	r31, 0xBE	; 190
    5f6a:	80 81       	ld	r24, Z
    5f6c:	80 93 98 41 	sts	0x4198, r24	; 0x804198 <DIGIT+0x7>

				if(KEY.Buff)					// Key АФ·ВАМ АЦАёёй
    5f70:	80 91 68 51 	lds	r24, 0x5168	; 0x805168 <KEY+0x1>
    5f74:	88 23       	and	r24, r24
    5f76:	09 f4       	brne	.+2      	; 0x5f7a <ZigBee_PanID_Write+0x208>
    5f78:	44 c1       	rjmp	.+648    	; 0x6202 <ZigBee_PanID_Write+0x490>
				{
					if     (KEY.Key == 1 && digit_5 < 6) {digit_5++; KEY.Key = 0;}		// ҫч  №цЖ° АМёй ZigBee PanID 10000АЗ АЪё® Бх°Ў
    5f7a:	80 91 69 51 	lds	r24, 0x5169	; 0x805169 <KEY+0x2>
    5f7e:	81 30       	cpi	r24, 0x01	; 1
    5f80:	31 f4       	brne	.+12     	; 0x5f8e <ZigBee_PanID_Write+0x21c>
    5f82:	d6 30       	cpi	r29, 0x06	; 6
    5f84:	20 f4       	brcc	.+8      	; 0x5f8e <ZigBee_PanID_Write+0x21c>
    5f86:	df 5f       	subi	r29, 0xFF	; 255
    5f88:	10 92 69 51 	sts	0x5169, r1	; 0x805169 <KEY+0x2>
    5f8c:	3a c1       	rjmp	.+628    	; 0x6202 <ZigBee_PanID_Write+0x490>
					else if(KEY.Key == 3 && digit_5 > 0) {digit_5--; KEY.Key = 0;}		// ҙЩҝо№цЖ° АМёй ZigBee PanID 10000АЗ АЪё® °ЁјТ
    5f8e:	80 91 69 51 	lds	r24, 0x5169	; 0x805169 <KEY+0x2>
    5f92:	83 30       	cpi	r24, 0x03	; 3
    5f94:	09 f0       	breq	.+2      	; 0x5f98 <ZigBee_PanID_Write+0x226>
    5f96:	35 c1       	rjmp	.+618    	; 0x6202 <ZigBee_PanID_Write+0x490>
    5f98:	dd 23       	and	r29, r29
    5f9a:	09 f4       	brne	.+2      	; 0x5f9e <ZigBee_PanID_Write+0x22c>
    5f9c:	32 c1       	rjmp	.+612    	; 0x6202 <ZigBee_PanID_Write+0x490>
    5f9e:	d1 50       	subi	r29, 0x01	; 1
    5fa0:	10 92 69 51 	sts	0x5169, r1	; 0x805169 <KEY+0x2>
    5fa4:	2e c1       	rjmp	.+604    	; 0x6202 <ZigBee_PanID_Write+0x490>
				}
			break;
//-------------------------------------------------------------------------------------------------
			case 1:							// ZigBee PanID 1000АЗ АЪё®
				DIGIT[1][3] = fnd_tbl[digit_5];			// ZigBee PanID 10000АЗ АЪё® ЗҘҪГ
    5fa6:	ed 2f       	mov	r30, r29
    5fa8:	f0 e0       	ldi	r31, 0x00	; 0
    5faa:	e5 5a       	subi	r30, 0xA5	; 165
    5fac:	fe 4b       	sbci	r31, 0xBE	; 190
    5fae:	80 81       	ld	r24, Z
    5fb0:	80 93 98 41 	sts	0x4198, r24	; 0x804198 <DIGIT+0x7>
				if(Blink) {DIGIT[1][2] = FND_OFF;}		// Blink = 1 АМёй ZigBee PanID 1000АЗ АЪё® OFF
    5fb4:	80 91 93 51 	lds	r24, 0x5193	; 0x805193 <Blink>
    5fb8:	88 23       	and	r24, r24
    5fba:	19 f0       	breq	.+6      	; 0x5fc2 <ZigBee_PanID_Write+0x250>
    5fbc:	10 92 97 41 	sts	0x4197, r1	; 0x804197 <DIGIT+0x6>
    5fc0:	07 c0       	rjmp	.+14     	; 0x5fd0 <ZigBee_PanID_Write+0x25e>
				else	  {DIGIT[1][2] = fnd_tbl[digit_4];}	// Blink = 0 АМёй ZigBee PanID 1000АЗ АЪё® ЗҘҪГ
    5fc2:	eb 2d       	mov	r30, r11
    5fc4:	f0 e0       	ldi	r31, 0x00	; 0
    5fc6:	e5 5a       	subi	r30, 0xA5	; 165
    5fc8:	fe 4b       	sbci	r31, 0xBE	; 190
    5fca:	80 81       	ld	r24, Z
    5fcc:	80 93 97 41 	sts	0x4197, r24	; 0x804197 <DIGIT+0x6>

				if(KEY.Buff)					// Key АФ·ВАМ АЦАёёй
    5fd0:	80 91 68 51 	lds	r24, 0x5168	; 0x805168 <KEY+0x1>
    5fd4:	88 23       	and	r24, r24
    5fd6:	09 f4       	brne	.+2      	; 0x5fda <ZigBee_PanID_Write+0x268>
    5fd8:	14 c1       	rjmp	.+552    	; 0x6202 <ZigBee_PanID_Write+0x490>
				{
					if(digit_5 >= 6)							// ZigBee PanID °Ў 60000 °ъ °°°ЕіӘ Е©ёй
    5fda:	d6 30       	cpi	r29, 0x06	; 6
    5fdc:	b8 f0       	brcs	.+46     	; 0x600c <ZigBee_PanID_Write+0x29a>
					{
						if     (KEY.Key == 1 && digit_4 < 5) {digit_4++; KEY.Key = 0;}	// ҫч  №цЖ° АМёй ZigBee PanID 1000АЗ АЪё® 5ұоБц Бх°Ў
    5fde:	80 91 69 51 	lds	r24, 0x5169	; 0x805169 <KEY+0x2>
    5fe2:	81 30       	cpi	r24, 0x01	; 1
    5fe4:	39 f4       	brne	.+14     	; 0x5ff4 <ZigBee_PanID_Write+0x282>
    5fe6:	f4 e0       	ldi	r31, 0x04	; 4
    5fe8:	fb 15       	cp	r31, r11
    5fea:	20 f0       	brcs	.+8      	; 0x5ff4 <ZigBee_PanID_Write+0x282>
    5fec:	b3 94       	inc	r11
    5fee:	10 92 69 51 	sts	0x5169, r1	; 0x805169 <KEY+0x2>
    5ff2:	07 c1       	rjmp	.+526    	; 0x6202 <ZigBee_PanID_Write+0x490>
						else if(KEY.Key == 3 && digit_4 > 0) {digit_4--; KEY.Key = 0;}	// ҙЩҝо№цЖ° АМёй ZigBee PanID 1000АЗ АЪё® °ЁјТ
    5ff4:	80 91 69 51 	lds	r24, 0x5169	; 0x805169 <KEY+0x2>
    5ff8:	83 30       	cpi	r24, 0x03	; 3
    5ffa:	09 f0       	breq	.+2      	; 0x5ffe <ZigBee_PanID_Write+0x28c>
    5ffc:	02 c1       	rjmp	.+516    	; 0x6202 <ZigBee_PanID_Write+0x490>
    5ffe:	bb 20       	and	r11, r11
    6000:	09 f4       	brne	.+2      	; 0x6004 <ZigBee_PanID_Write+0x292>
    6002:	ff c0       	rjmp	.+510    	; 0x6202 <ZigBee_PanID_Write+0x490>
    6004:	ba 94       	dec	r11
    6006:	10 92 69 51 	sts	0x5169, r1	; 0x805169 <KEY+0x2>
    600a:	fb c0       	rjmp	.+502    	; 0x6202 <ZigBee_PanID_Write+0x490>
					}
					else									// ZigBee PanID °Ў 60000 °ъ °°°ЕіӘ Е©Бц ҫКАёёй
					{
						if     (KEY.Key == 1 && digit_4 < 9) {digit_4++; KEY.Key = 0;}	// ҫч  №цЖ° АМёй ZigBee PanID 1000АЗ АЪё® 9ұоБц Бх°Ў
    600c:	80 91 69 51 	lds	r24, 0x5169	; 0x805169 <KEY+0x2>
    6010:	81 30       	cpi	r24, 0x01	; 1
    6012:	39 f4       	brne	.+14     	; 0x6022 <ZigBee_PanID_Write+0x2b0>
    6014:	28 e0       	ldi	r18, 0x08	; 8
    6016:	2b 15       	cp	r18, r11
    6018:	20 f0       	brcs	.+8      	; 0x6022 <ZigBee_PanID_Write+0x2b0>
    601a:	b3 94       	inc	r11
    601c:	10 92 69 51 	sts	0x5169, r1	; 0x805169 <KEY+0x2>
    6020:	f0 c0       	rjmp	.+480    	; 0x6202 <ZigBee_PanID_Write+0x490>
						else if(KEY.Key == 3 && digit_4 > 0) {digit_4--; KEY.Key = 0;}	// ҙЩҝо№цЖ° АМёй ZigBee PanID 1000АЗ АЪё® 0ұоБц °ЁјТ
    6022:	80 91 69 51 	lds	r24, 0x5169	; 0x805169 <KEY+0x2>
    6026:	83 30       	cpi	r24, 0x03	; 3
    6028:	09 f0       	breq	.+2      	; 0x602c <ZigBee_PanID_Write+0x2ba>
    602a:	eb c0       	rjmp	.+470    	; 0x6202 <ZigBee_PanID_Write+0x490>
    602c:	bb 20       	and	r11, r11
    602e:	09 f4       	brne	.+2      	; 0x6032 <ZigBee_PanID_Write+0x2c0>
    6030:	e8 c0       	rjmp	.+464    	; 0x6202 <ZigBee_PanID_Write+0x490>
    6032:	ba 94       	dec	r11
    6034:	10 92 69 51 	sts	0x5169, r1	; 0x805169 <KEY+0x2>
    6038:	e4 c0       	rjmp	.+456    	; 0x6202 <ZigBee_PanID_Write+0x490>
					}
				}
			break;
//-------------------------------------------------------------------------------------------------
			case 2:							// ZigBee PanID 100АЗ АЪё®
				DIGIT[1][2] = fnd_tbl[digit_4];			// ZigBee PanID 1000АЗ АЪё® ЗҘҪГ
    603a:	eb 2d       	mov	r30, r11
    603c:	f0 e0       	ldi	r31, 0x00	; 0
    603e:	e5 5a       	subi	r30, 0xA5	; 165
    6040:	fe 4b       	sbci	r31, 0xBE	; 190
    6042:	80 81       	ld	r24, Z
    6044:	80 93 97 41 	sts	0x4197, r24	; 0x804197 <DIGIT+0x6>
				if(Blink) {DIGIT[1][1] = FND_OFF;}		// Blink = 1 АМёй ZigBee PanID 100АЗ АЪё® OFF
    6048:	80 91 93 51 	lds	r24, 0x5193	; 0x805193 <Blink>
    604c:	88 23       	and	r24, r24
    604e:	19 f0       	breq	.+6      	; 0x6056 <ZigBee_PanID_Write+0x2e4>
    6050:	10 92 96 41 	sts	0x4196, r1	; 0x804196 <DIGIT+0x5>
    6054:	07 c0       	rjmp	.+14     	; 0x6064 <ZigBee_PanID_Write+0x2f2>
				else	  {DIGIT[1][1] = fnd_tbl[digit_3];}	// Blink = 0 АМёй ZigBee PanID 100АЗ АЪё® ЗҘҪГ
    6056:	e0 2f       	mov	r30, r16
    6058:	f0 e0       	ldi	r31, 0x00	; 0
    605a:	e5 5a       	subi	r30, 0xA5	; 165
    605c:	fe 4b       	sbci	r31, 0xBE	; 190
    605e:	80 81       	ld	r24, Z
    6060:	80 93 96 41 	sts	0x4196, r24	; 0x804196 <DIGIT+0x5>

				if(KEY.Buff)					// Key АФ·ВАМ АЦАёёй
    6064:	80 91 68 51 	lds	r24, 0x5168	; 0x805168 <KEY+0x1>
    6068:	88 23       	and	r24, r24
    606a:	09 f4       	brne	.+2      	; 0x606e <ZigBee_PanID_Write+0x2fc>
    606c:	ca c0       	rjmp	.+404    	; 0x6202 <ZigBee_PanID_Write+0x490>
				{
					if(digit_5 >= 6 && digit_4 >= 5)					// ZigBee PanID °Ў 65000 °ъ °°°ЕіӘ Е©ёй
    606e:	d6 30       	cpi	r29, 0x06	; 6
    6070:	c8 f0       	brcs	.+50     	; 0x60a4 <ZigBee_PanID_Write+0x332>
    6072:	34 e0       	ldi	r19, 0x04	; 4
    6074:	3b 15       	cp	r19, r11
    6076:	b0 f4       	brcc	.+44     	; 0x60a4 <ZigBee_PanID_Write+0x332>
					{
						if     (KEY.Key == 1 && digit_3 < 5) {digit_3++; KEY.Key = 0;}	// ҫч  №цЖ° АМёй ZigBee PanID 100АЗ АЪё® 5ұоБц Бх°Ў
    6078:	80 91 69 51 	lds	r24, 0x5169	; 0x805169 <KEY+0x2>
    607c:	81 30       	cpi	r24, 0x01	; 1
    607e:	31 f4       	brne	.+12     	; 0x608c <ZigBee_PanID_Write+0x31a>
    6080:	05 30       	cpi	r16, 0x05	; 5
    6082:	20 f4       	brcc	.+8      	; 0x608c <ZigBee_PanID_Write+0x31a>
    6084:	0f 5f       	subi	r16, 0xFF	; 255
    6086:	10 92 69 51 	sts	0x5169, r1	; 0x805169 <KEY+0x2>
    608a:	bb c0       	rjmp	.+374    	; 0x6202 <ZigBee_PanID_Write+0x490>
						else if(KEY.Key == 3 && digit_3 > 0) {digit_3--; KEY.Key = 0;}	// ҙЩҝо№цЖ° АМёй ZigBee PanID 100АЗ АЪё® °ЁјТ
    608c:	80 91 69 51 	lds	r24, 0x5169	; 0x805169 <KEY+0x2>
    6090:	83 30       	cpi	r24, 0x03	; 3
    6092:	09 f0       	breq	.+2      	; 0x6096 <ZigBee_PanID_Write+0x324>
    6094:	b6 c0       	rjmp	.+364    	; 0x6202 <ZigBee_PanID_Write+0x490>
    6096:	00 23       	and	r16, r16
    6098:	09 f4       	brne	.+2      	; 0x609c <ZigBee_PanID_Write+0x32a>
    609a:	b3 c0       	rjmp	.+358    	; 0x6202 <ZigBee_PanID_Write+0x490>
    609c:	01 50       	subi	r16, 0x01	; 1
    609e:	10 92 69 51 	sts	0x5169, r1	; 0x805169 <KEY+0x2>
    60a2:	af c0       	rjmp	.+350    	; 0x6202 <ZigBee_PanID_Write+0x490>
					}
					else									// ZigBee PanID °Ў 65000 °ъ °°°ЕіӘ Е©Бц ҫКАёёй
					{
						if     (KEY.Key == 1 && digit_3 < 9) {digit_3++; KEY.Key = 0;}	// ҫч  №цЖ° АМёй ZigBee PanID 100АЗ АЪё® 9ұоБц Бх°Ў
    60a4:	80 91 69 51 	lds	r24, 0x5169	; 0x805169 <KEY+0x2>
    60a8:	81 30       	cpi	r24, 0x01	; 1
    60aa:	31 f4       	brne	.+12     	; 0x60b8 <ZigBee_PanID_Write+0x346>
    60ac:	09 30       	cpi	r16, 0x09	; 9
    60ae:	20 f4       	brcc	.+8      	; 0x60b8 <ZigBee_PanID_Write+0x346>
    60b0:	0f 5f       	subi	r16, 0xFF	; 255
    60b2:	10 92 69 51 	sts	0x5169, r1	; 0x805169 <KEY+0x2>
    60b6:	a5 c0       	rjmp	.+330    	; 0x6202 <ZigBee_PanID_Write+0x490>
						else if(KEY.Key == 3 && digit_3 > 0) {digit_3--; KEY.Key = 0;}	// ҙЩҝо№цЖ° АМёй ZigBee PanID 100АЗ АЪё® 0ұоБц °ЁјТ
    60b8:	80 91 69 51 	lds	r24, 0x5169	; 0x805169 <KEY+0x2>
    60bc:	83 30       	cpi	r24, 0x03	; 3
    60be:	09 f0       	breq	.+2      	; 0x60c2 <ZigBee_PanID_Write+0x350>
    60c0:	a0 c0       	rjmp	.+320    	; 0x6202 <ZigBee_PanID_Write+0x490>
    60c2:	00 23       	and	r16, r16
    60c4:	09 f4       	brne	.+2      	; 0x60c8 <ZigBee_PanID_Write+0x356>
    60c6:	9d c0       	rjmp	.+314    	; 0x6202 <ZigBee_PanID_Write+0x490>
    60c8:	01 50       	subi	r16, 0x01	; 1
    60ca:	10 92 69 51 	sts	0x5169, r1	; 0x805169 <KEY+0x2>
    60ce:	99 c0       	rjmp	.+306    	; 0x6202 <ZigBee_PanID_Write+0x490>
					}
				}
			break;
//-------------------------------------------------------------------------------------------------
			case 3:							// ZigBee PanID 10АЗ АЪё®
				DIGIT[1][1] = fnd_tbl[digit_3];			// ZigBee PanID 100АЗ АЪё® ЗҘҪГ
    60d0:	e0 2f       	mov	r30, r16
    60d2:	f0 e0       	ldi	r31, 0x00	; 0
    60d4:	e5 5a       	subi	r30, 0xA5	; 165
    60d6:	fe 4b       	sbci	r31, 0xBE	; 190
    60d8:	80 81       	ld	r24, Z
    60da:	80 93 96 41 	sts	0x4196, r24	; 0x804196 <DIGIT+0x5>
				if(Blink) {DIGIT[1][0] = FND_OFF;}		// Blink = 1 АМёй ZigBee PanID 10АЗ АЪё® OFF
    60de:	80 91 93 51 	lds	r24, 0x5193	; 0x805193 <Blink>
    60e2:	88 23       	and	r24, r24
    60e4:	19 f0       	breq	.+6      	; 0x60ec <ZigBee_PanID_Write+0x37a>
    60e6:	10 92 95 41 	sts	0x4195, r1	; 0x804195 <DIGIT+0x4>
    60ea:	07 c0       	rjmp	.+14     	; 0x60fa <ZigBee_PanID_Write+0x388>
				else	  {DIGIT[1][0] = fnd_tbl[digit_2];}	// Blink = 0 АМёй ZigBee PanID 10АЗ АЪё® ЗҘҪГ
    60ec:	ec 2f       	mov	r30, r28
    60ee:	f0 e0       	ldi	r31, 0x00	; 0
    60f0:	e5 5a       	subi	r30, 0xA5	; 165
    60f2:	fe 4b       	sbci	r31, 0xBE	; 190
    60f4:	80 81       	ld	r24, Z
    60f6:	80 93 95 41 	sts	0x4195, r24	; 0x804195 <DIGIT+0x4>

				if(KEY.Buff)					// Key АФ·ВАМ АЦАёёй
    60fa:	80 91 68 51 	lds	r24, 0x5168	; 0x805168 <KEY+0x1>
    60fe:	88 23       	and	r24, r24
    6100:	09 f4       	brne	.+2      	; 0x6104 <ZigBee_PanID_Write+0x392>
    6102:	7f c0       	rjmp	.+254    	; 0x6202 <ZigBee_PanID_Write+0x490>
				{
					if(digit_5 >= 6 && digit_4 >= 5 && digit_3 >= 5)			// ZigBee PanID °Ў 65500 °ъ °°°ЕіӘ Е©ёй
    6104:	d6 30       	cpi	r29, 0x06	; 6
    6106:	d8 f0       	brcs	.+54     	; 0x613e <ZigBee_PanID_Write+0x3cc>
    6108:	44 e0       	ldi	r20, 0x04	; 4
    610a:	4b 15       	cp	r20, r11
    610c:	c0 f4       	brcc	.+48     	; 0x613e <ZigBee_PanID_Write+0x3cc>
    610e:	05 30       	cpi	r16, 0x05	; 5
    6110:	b0 f0       	brcs	.+44     	; 0x613e <ZigBee_PanID_Write+0x3cc>
					{
						if     (KEY.Key == 1 && digit_2 < 3) {digit_2++; KEY.Key = 0;}	// ҫч  №цЖ° АМёй ZigBee PanID 10АЗ АЪё® 3ұоБц Бх°Ў
    6112:	80 91 69 51 	lds	r24, 0x5169	; 0x805169 <KEY+0x2>
    6116:	81 30       	cpi	r24, 0x01	; 1
    6118:	31 f4       	brne	.+12     	; 0x6126 <ZigBee_PanID_Write+0x3b4>
    611a:	c3 30       	cpi	r28, 0x03	; 3
    611c:	20 f4       	brcc	.+8      	; 0x6126 <ZigBee_PanID_Write+0x3b4>
    611e:	cf 5f       	subi	r28, 0xFF	; 255
    6120:	10 92 69 51 	sts	0x5169, r1	; 0x805169 <KEY+0x2>
    6124:	6e c0       	rjmp	.+220    	; 0x6202 <ZigBee_PanID_Write+0x490>
						else if(KEY.Key == 3 && digit_2 > 0) {digit_2--; KEY.Key = 0;}	// ҙЩҝо№цЖ° АМёй ZigBee PanID 10АЗ АЪё® °ЁјТ
    6126:	80 91 69 51 	lds	r24, 0x5169	; 0x805169 <KEY+0x2>
    612a:	83 30       	cpi	r24, 0x03	; 3
    612c:	09 f0       	breq	.+2      	; 0x6130 <ZigBee_PanID_Write+0x3be>
    612e:	69 c0       	rjmp	.+210    	; 0x6202 <ZigBee_PanID_Write+0x490>
    6130:	cc 23       	and	r28, r28
    6132:	09 f4       	brne	.+2      	; 0x6136 <ZigBee_PanID_Write+0x3c4>
    6134:	66 c0       	rjmp	.+204    	; 0x6202 <ZigBee_PanID_Write+0x490>
    6136:	c1 50       	subi	r28, 0x01	; 1
    6138:	10 92 69 51 	sts	0x5169, r1	; 0x805169 <KEY+0x2>
    613c:	62 c0       	rjmp	.+196    	; 0x6202 <ZigBee_PanID_Write+0x490>
					}
					else									// ZigBee PanID °Ў 65500 °ъ °°°ЕіӘ Е©Бц ҫКАёёй
					{
						if     (KEY.Key == 1 && digit_2 < 9) {digit_2++; KEY.Key = 0;}	// ҫч  №цЖ° АМёй ZigBee PanID 10АЗ АЪё® 9ұоБц Бх°Ў
    613e:	80 91 69 51 	lds	r24, 0x5169	; 0x805169 <KEY+0x2>
    6142:	81 30       	cpi	r24, 0x01	; 1
    6144:	31 f4       	brne	.+12     	; 0x6152 <ZigBee_PanID_Write+0x3e0>
    6146:	c9 30       	cpi	r28, 0x09	; 9
    6148:	20 f4       	brcc	.+8      	; 0x6152 <ZigBee_PanID_Write+0x3e0>
    614a:	cf 5f       	subi	r28, 0xFF	; 255
    614c:	10 92 69 51 	sts	0x5169, r1	; 0x805169 <KEY+0x2>
    6150:	58 c0       	rjmp	.+176    	; 0x6202 <ZigBee_PanID_Write+0x490>
						else if(KEY.Key == 3 && digit_2 > 0) {digit_2--; KEY.Key = 0;}	// ҙЩҝо№цЖ° АМёй ZigBee PanID 10АЗ АЪё® 0ұоБц °ЁјТ
    6152:	80 91 69 51 	lds	r24, 0x5169	; 0x805169 <KEY+0x2>
    6156:	83 30       	cpi	r24, 0x03	; 3
    6158:	09 f0       	breq	.+2      	; 0x615c <ZigBee_PanID_Write+0x3ea>
    615a:	53 c0       	rjmp	.+166    	; 0x6202 <ZigBee_PanID_Write+0x490>
    615c:	cc 23       	and	r28, r28
    615e:	09 f4       	brne	.+2      	; 0x6162 <ZigBee_PanID_Write+0x3f0>
    6160:	50 c0       	rjmp	.+160    	; 0x6202 <ZigBee_PanID_Write+0x490>
    6162:	c1 50       	subi	r28, 0x01	; 1
    6164:	10 92 69 51 	sts	0x5169, r1	; 0x805169 <KEY+0x2>
    6168:	4c c0       	rjmp	.+152    	; 0x6202 <ZigBee_PanID_Write+0x490>
					}
				}
			break;
//-------------------------------------------------------------------------------------------------
			case 4:							// ZigBee PanID 1АЗ АЪё®
				DIGIT[1][0] = fnd_tbl[digit_2];			// ZigBee PanID 10АЗ АЪё® ЗҘҪГ
    616a:	ec 2f       	mov	r30, r28
    616c:	f0 e0       	ldi	r31, 0x00	; 0
    616e:	e5 5a       	subi	r30, 0xA5	; 165
    6170:	fe 4b       	sbci	r31, 0xBE	; 190
    6172:	80 81       	ld	r24, Z
    6174:	80 93 95 41 	sts	0x4195, r24	; 0x804195 <DIGIT+0x4>
				if(Blink) {DIGIT[2][3] = FND_OFF;}		// Blink = 1 АМёй ZigBee PanID 1АЗ АЪё® OFF
    6178:	80 91 93 51 	lds	r24, 0x5193	; 0x805193 <Blink>
    617c:	88 23       	and	r24, r24
    617e:	19 f0       	breq	.+6      	; 0x6186 <ZigBee_PanID_Write+0x414>
    6180:	10 92 9c 41 	sts	0x419C, r1	; 0x80419c <DIGIT+0xb>
    6184:	07 c0       	rjmp	.+14     	; 0x6194 <ZigBee_PanID_Write+0x422>
				else	  {DIGIT[2][3] = fnd_tbl[digit_1];}	// Blink = 0 АМёй ZigBee PanID 1АЗ АЪё® ЗҘҪГ
    6186:	e1 2f       	mov	r30, r17
    6188:	f0 e0       	ldi	r31, 0x00	; 0
    618a:	e5 5a       	subi	r30, 0xA5	; 165
    618c:	fe 4b       	sbci	r31, 0xBE	; 190
    618e:	80 81       	ld	r24, Z
    6190:	80 93 9c 41 	sts	0x419C, r24	; 0x80419c <DIGIT+0xb>

				if(KEY.Buff)					// Key АФ·ВАМ АЦАёёй
    6194:	80 91 68 51 	lds	r24, 0x5168	; 0x805168 <KEY+0x1>
    6198:	88 23       	and	r24, r24
    619a:	99 f1       	breq	.+102    	; 0x6202 <ZigBee_PanID_Write+0x490>
				{
					if(digit_5 >= 6 && digit_4 >= 5 && digit_3 >= 5 && digit_2 >= 3)	// ZigBee PanID °Ў 65530 °ъ °°°ЕіӘ Е©ёй
    619c:	d6 30       	cpi	r29, 0x06	; 6
    619e:	d8 f0       	brcs	.+54     	; 0x61d6 <ZigBee_PanID_Write+0x464>
    61a0:	84 e0       	ldi	r24, 0x04	; 4
    61a2:	8b 15       	cp	r24, r11
    61a4:	c0 f4       	brcc	.+48     	; 0x61d6 <ZigBee_PanID_Write+0x464>
    61a6:	05 30       	cpi	r16, 0x05	; 5
    61a8:	b0 f0       	brcs	.+44     	; 0x61d6 <ZigBee_PanID_Write+0x464>
    61aa:	c3 30       	cpi	r28, 0x03	; 3
    61ac:	a0 f0       	brcs	.+40     	; 0x61d6 <ZigBee_PanID_Write+0x464>
					{
						if     (KEY.Key == 1 && digit_1 < 5) {digit_1++; KEY.Key = 0;}	// ҫч  №цЖ° АМёй ZigBee PanID 1АЗ АЪё® 6ұоБц Бх°Ў
    61ae:	80 91 69 51 	lds	r24, 0x5169	; 0x805169 <KEY+0x2>
    61b2:	81 30       	cpi	r24, 0x01	; 1
    61b4:	31 f4       	brne	.+12     	; 0x61c2 <ZigBee_PanID_Write+0x450>
    61b6:	15 30       	cpi	r17, 0x05	; 5
    61b8:	20 f4       	brcc	.+8      	; 0x61c2 <ZigBee_PanID_Write+0x450>
    61ba:	1f 5f       	subi	r17, 0xFF	; 255
    61bc:	10 92 69 51 	sts	0x5169, r1	; 0x805169 <KEY+0x2>
    61c0:	20 c0       	rjmp	.+64     	; 0x6202 <ZigBee_PanID_Write+0x490>
						else if(KEY.Key == 3 && digit_1 > 0) {digit_1--; KEY.Key = 0;}	// ҙЩҝо№цЖ° АМёй ZigBee PanID 1АЗ АЪё® °ЁјТ
    61c2:	80 91 69 51 	lds	r24, 0x5169	; 0x805169 <KEY+0x2>
    61c6:	83 30       	cpi	r24, 0x03	; 3
    61c8:	e1 f4       	brne	.+56     	; 0x6202 <ZigBee_PanID_Write+0x490>
    61ca:	11 23       	and	r17, r17
    61cc:	d1 f0       	breq	.+52     	; 0x6202 <ZigBee_PanID_Write+0x490>
    61ce:	11 50       	subi	r17, 0x01	; 1
    61d0:	10 92 69 51 	sts	0x5169, r1	; 0x805169 <KEY+0x2>
    61d4:	16 c0       	rjmp	.+44     	; 0x6202 <ZigBee_PanID_Write+0x490>
					}
					else									// ZigBee PanID °Ў 65530 °ъ °°°ЕіӘ Е©Бц ҫКАёёй
					{
						if     (KEY.Key == 1 && digit_1 < 9) {digit_1++; KEY.Key = 0;}	// ҫч  №цЖ° АМёй ZigBee PanID 1АЗ АЪё® 9ұоБц Бх°Ў
    61d6:	80 91 69 51 	lds	r24, 0x5169	; 0x805169 <KEY+0x2>
    61da:	81 30       	cpi	r24, 0x01	; 1
    61dc:	31 f4       	brne	.+12     	; 0x61ea <ZigBee_PanID_Write+0x478>
    61de:	19 30       	cpi	r17, 0x09	; 9
    61e0:	20 f4       	brcc	.+8      	; 0x61ea <ZigBee_PanID_Write+0x478>
    61e2:	1f 5f       	subi	r17, 0xFF	; 255
    61e4:	10 92 69 51 	sts	0x5169, r1	; 0x805169 <KEY+0x2>
    61e8:	0c c0       	rjmp	.+24     	; 0x6202 <ZigBee_PanID_Write+0x490>
						else if(KEY.Key == 3 && digit_1 > 0) {digit_1--; KEY.Key = 0;}	// ҙЩҝо№цЖ° АМёй ZigBee PanID 1АЗ АЪё® 0ұоБц °ЁјТ
    61ea:	80 91 69 51 	lds	r24, 0x5169	; 0x805169 <KEY+0x2>
    61ee:	83 30       	cpi	r24, 0x03	; 3
    61f0:	41 f4       	brne	.+16     	; 0x6202 <ZigBee_PanID_Write+0x490>
    61f2:	11 23       	and	r17, r17
    61f4:	31 f0       	breq	.+12     	; 0x6202 <ZigBee_PanID_Write+0x490>
    61f6:	11 50       	subi	r17, 0x01	; 1
    61f8:	10 92 69 51 	sts	0x5169, r1	; 0x805169 <KEY+0x2>
    61fc:	02 c0       	rjmp	.+4      	; 0x6202 <ZigBee_PanID_Write+0x490>
					}
				}
			break;
//-------------------------------------------------------------------------------------------------
			case 5:
				KEY.Count = 0;					// №Эә№А» А§ЗШ CountёҰ ГЦАъ·О °ЁјТ ҪГЕҙ
    61fe:	10 92 67 51 	sts	0x5167, r1	; 0x805167 <KEY>
			break;
		}
		wdt_reset();							// ҝцДЎө¶ ё®јВ
    6202:	0e 94 8c 0e 	call	0x1d18	; 0x1d18 <wdt_reset>
	DIGIT[1][1] = fnd_tbl[digit_3];						// ZigBee PanID   100АЗ АЪё® ЗҘҪГ
	DIGIT[1][0] = fnd_tbl[digit_2];						// ZigBee PanID    10АЗ АЪё® ЗҘҪГ

	DIGIT[2][3] = fnd_tbl[digit_1];						// ZigBee PanID     1АЗ АЪё® ЗҘҪГ

	while(SET.Menu)								// ёЮҙәёрөе АМёй №Эә№
    6206:	80 91 28 51 	lds	r24, 0x5128	; 0x805128 <SET>
    620a:	81 11       	cpse	r24, r1
    620c:	85 ce       	rjmp	.-758    	; 0x5f18 <ZigBee_PanID_Write+0x1a6>
		}
		wdt_reset();							// ҝцДЎө¶ ё®јВ
	}
//-------------------------------------------------------------------------------------------------
	ZB_id = 0;								// ZigBee Pan_id ГКұвИӯ
	ZB_id += (digit_5 * 10000);						// ZigBee Pan_id 10000АЗ АЪё®
    620e:	20 e1       	ldi	r18, 0x10	; 16
    6210:	37 e2       	ldi	r19, 0x27	; 39
    6212:	d2 9f       	mul	r29, r18
    6214:	c0 01       	movw	r24, r0
    6216:	d3 9f       	mul	r29, r19
    6218:	90 0d       	add	r25, r0
    621a:	11 24       	eor	r1, r1
	ZB_id += (digit_4 * 1000);						// ZigBee Pan_id  1000АЗ АЪё®
    621c:	48 ee       	ldi	r20, 0xE8	; 232
    621e:	53 e0       	ldi	r21, 0x03	; 3
    6220:	b4 9e       	mul	r11, r20
    6222:	90 01       	movw	r18, r0
    6224:	b5 9e       	mul	r11, r21
    6226:	30 0d       	add	r19, r0
    6228:	11 24       	eor	r1, r1
    622a:	82 0f       	add	r24, r18
    622c:	93 1f       	adc	r25, r19
	ZB_id += (digit_3 * 100);						// ZigBee Pan_id   100АЗ АЪё®
    622e:	9c 01       	movw	r18, r24
    6230:	e4 e6       	ldi	r30, 0x64	; 100
    6232:	0e 9f       	mul	r16, r30
    6234:	20 0d       	add	r18, r0
    6236:	31 1d       	adc	r19, r1
    6238:	11 24       	eor	r1, r1
	ZB_id += (digit_2 * 10);						// ZigBee Pan_id    10АЗ АЪё®
    623a:	d0 e0       	ldi	r29, 0x00	; 0
    623c:	ce 01       	movw	r24, r28
    623e:	88 0f       	add	r24, r24
    6240:	99 1f       	adc	r25, r25
    6242:	cc 0f       	add	r28, r28
    6244:	dd 1f       	adc	r29, r29
    6246:	cc 0f       	add	r28, r28
    6248:	dd 1f       	adc	r29, r29
    624a:	cc 0f       	add	r28, r28
    624c:	dd 1f       	adc	r29, r29
    624e:	8c 0f       	add	r24, r28
    6250:	9d 1f       	adc	r25, r29
    6252:	82 0f       	add	r24, r18
    6254:	93 1f       	adc	r25, r19
	ZB_id += (digit_1 * 1);							// ZigBee Pan_id     1АЗ АЪё®
    6256:	81 0f       	add	r24, r17
    6258:	91 1d       	adc	r25, r1
    625a:	80 93 7d 51 	sts	0x517D, r24	; 0x80517d <ZB_id>
    625e:	90 93 7e 51 	sts	0x517E, r25	; 0x80517e <ZB_id+0x1>

	Pan_id_1000 = (ZB_id / 4096);						// ZigBee Pan_id HEX Code 2Byte »уА§
    6262:	29 2f       	mov	r18, r25
    6264:	22 95       	swap	r18
    6266:	2f 70       	andi	r18, 0x0F	; 15
    6268:	20 93 64 51 	sts	0x5164, r18	; 0x805164 <Pan_id_1000>
    626c:	10 92 65 51 	sts	0x5165, r1	; 0x805165 <Pan_id_1000+0x1>
	Pan_id_100  = (ZB_id % 4096 / 256);					// ZigBee Pan_id HEX Code 2Byte ЗПА§
    6270:	9c 01       	movw	r18, r24
    6272:	3f 70       	andi	r19, 0x0F	; 15
    6274:	30 93 c3 41 	sts	0x41C3, r19	; 0x8041c3 <Pan_id_100>
    6278:	10 92 c4 41 	sts	0x41C4, r1	; 0x8041c4 <Pan_id_100+0x1>
	Pan_id_10   = (ZB_id % 4096 % 256 / 16);				// ZigBee Pan_id HEX Code 1Byte »уА§
    627c:	9c 01       	movw	r18, r24
    627e:	33 27       	eor	r19, r19
    6280:	32 95       	swap	r19
    6282:	22 95       	swap	r18
    6284:	2f 70       	andi	r18, 0x0F	; 15
    6286:	23 27       	eor	r18, r19
    6288:	3f 70       	andi	r19, 0x0F	; 15
    628a:	23 27       	eor	r18, r19
    628c:	20 93 26 51 	sts	0x5126, r18	; 0x805126 <Pan_id_10>
    6290:	30 93 27 51 	sts	0x5127, r19	; 0x805127 <Pan_id_10+0x1>
	Pan_id_1    = (ZB_id % 4096 % 256 % 16);				// ZigBee Pan_id HEX Code 1Byte ЗПА§
    6294:	8f 70       	andi	r24, 0x0F	; 15
    6296:	99 27       	eor	r25, r25
    6298:	80 93 05 51 	sts	0x5105, r24	; 0x805105 <Pan_id_1>
    629c:	90 93 06 51 	sts	0x5106, r25	; 0x805106 <Pan_id_1+0x1>

	ZigBee_Write_id();							// ZigBee PanID АъАе
    62a0:	0e 94 d3 2d 	call	0x5ba6	; 0x5ba6 <ZigBee_Write_id>

	SET.Menu = 1;								// Menu ёрөе АҜБц
    62a4:	e8 e2       	ldi	r30, 0x28	; 40
    62a6:	f1 e5       	ldi	r31, 0x51	; 81
    62a8:	81 e0       	ldi	r24, 0x01	; 1
    62aa:	80 83       	st	Z, r24
	SET.Select = 0;								// Select №цЖ° ГКұвИӯ
    62ac:	11 82       	std	Z+1, r1	; 0x01
	SET.Blink = 0;								// АЪёҙјц ұф№ЪАУ ГКұвИӯ
    62ae:	13 82       	std	Z+3, r1	; 0x03
	KEY.Count = 0;								// јұЕГ Key °Ў ҙӯё°ИҪјц ГКұвИӯ
    62b0:	10 92 67 51 	sts	0x5167, r1	; 0x805167 <KEY>
}
    62b4:	df 91       	pop	r29
    62b6:	cf 91       	pop	r28
    62b8:	1f 91       	pop	r17
    62ba:	0f 91       	pop	r16
    62bc:	ff 90       	pop	r15
    62be:	ef 90       	pop	r14
    62c0:	df 90       	pop	r13
    62c2:	cf 90       	pop	r12
    62c4:	bf 90       	pop	r11
    62c6:	9f 90       	pop	r9
    62c8:	8f 90       	pop	r8
    62ca:	7f 90       	pop	r7
    62cc:	6f 90       	pop	r6
    62ce:	08 95       	ret

000062d0 <ZigBee_Write_ch>:

//=================================================================================================
void ZigBee_Write_ch(void)							// ZigBee ГӨіО АъАе
{
    62d0:	cf 93       	push	r28
	uint8_t zbch_wite = 0;							// zbch_wite әҜјц ГКұвИӯ
    62d2:	c0 e0       	ldi	r28, 0x00	; 0

	do{
		switch(zbch_wite)						// zbch_wite
    62d4:	c1 30       	cpi	r28, 0x01	; 1
    62d6:	a1 f0       	breq	.+40     	; 0x6300 <ZigBee_Write_ch+0x30>
    62d8:	28 f0       	brcs	.+10     	; 0x62e4 <ZigBee_Write_ch+0x14>
    62da:	c2 30       	cpi	r28, 0x02	; 2
    62dc:	d1 f1       	breq	.+116    	; 0x6352 <ZigBee_Write_ch+0x82>
    62de:	c3 30       	cpi	r28, 0x03	; 3
    62e0:	e9 f1       	breq	.+122    	; 0x635c <ZigBee_Write_ch+0x8c>
    62e2:	40 c0       	rjmp	.+128    	; 0x6364 <ZigBee_Write_ch+0x94>
		{
			case 0:							// zbch_wite = 0 АМёй
				USART3_SendString("+++");			// USART3 ҝЎ +++ АьјЫ
    62e4:	88 e6       	ldi	r24, 0x68	; 104
    62e6:	91 e4       	ldi	r25, 0x41	; 65
    62e8:	0e 94 a3 2d 	call	0x5b46	; 0x5b46 <USART3_SendString>
    62ec:	2f ef       	ldi	r18, 0xFF	; 255
    62ee:	8f ef       	ldi	r24, 0xFF	; 255
    62f0:	9c e2       	ldi	r25, 0x2C	; 44
    62f2:	21 50       	subi	r18, 0x01	; 1
    62f4:	80 40       	sbci	r24, 0x00	; 0
    62f6:	90 40       	sbci	r25, 0x00	; 0
    62f8:	e1 f7       	brne	.-8      	; 0x62f2 <ZigBee_Write_ch+0x22>
    62fa:	00 c0       	rjmp	.+0      	; 0x62fc <ZigBee_Write_ch+0x2c>
    62fc:	00 00       	nop
    62fe:	32 c0       	rjmp	.+100    	; 0x6364 <ZigBee_Write_ch+0x94>
				_delay_ms(1000);				// ZigBee ГЦГК ҙдәҜ ҪГ°Ј 1ГК Delay
			break;

			case 1:							// zbch_wite = 1 АМёй
				USART3_SendString("ATCH");			// USART3 ҝЎ ATCH АьјЫ
    6300:	8d e7       	ldi	r24, 0x7D	; 125
    6302:	91 e4       	ldi	r25, 0x41	; 65
    6304:	0e 94 a3 2d 	call	0x5b46	; 0x5b46 <USART3_SendString>
				USART3_Write(CH[ZB_ch] / 256);			// USART3 ҝЎ ГӨіО 1Byte »уА§ АьјЫ
    6308:	e0 91 04 51 	lds	r30, 0x5104	; 0x805104 <ZB_ch>
    630c:	f0 e0       	ldi	r31, 0x00	; 0
    630e:	ee 0f       	add	r30, r30
    6310:	ff 1f       	adc	r31, r31
    6312:	e6 5d       	subi	r30, 0xD6	; 214
    6314:	ff 4b       	sbci	r31, 0xBF	; 191
    6316:	80 81       	ld	r24, Z
    6318:	91 81       	ldd	r25, Z+1	; 0x01
    631a:	99 23       	and	r25, r25
    631c:	14 f4       	brge	.+4      	; 0x6322 <ZigBee_Write_ch+0x52>
    631e:	81 50       	subi	r24, 0x01	; 1
    6320:	9f 4f       	sbci	r25, 0xFF	; 255
    6322:	89 2f       	mov	r24, r25
    6324:	0e 94 9a 2d 	call	0x5b34	; 0x5b34 <USART3_Write>
				USART3_Write(CH[ZB_ch] % 256);			// USART3 ҝЎ ГӨіО 1Byte ЗПА§ АьјЫ
    6328:	e0 91 04 51 	lds	r30, 0x5104	; 0x805104 <ZB_ch>
    632c:	f0 e0       	ldi	r31, 0x00	; 0
    632e:	ee 0f       	add	r30, r30
    6330:	ff 1f       	adc	r31, r31
    6332:	e6 5d       	subi	r30, 0xD6	; 214
    6334:	ff 4b       	sbci	r31, 0xBF	; 191
    6336:	80 81       	ld	r24, Z
    6338:	91 81       	ldd	r25, Z+1	; 0x01
    633a:	90 78       	andi	r25, 0x80	; 128
    633c:	99 23       	and	r25, r25
    633e:	1c f4       	brge	.+6      	; 0x6346 <ZigBee_Write_ch+0x76>
    6340:	01 97       	sbiw	r24, 0x01	; 1
    6342:	9f 6f       	ori	r25, 0xFF	; 255
    6344:	01 96       	adiw	r24, 0x01	; 1
    6346:	0e 94 9a 2d 	call	0x5b34	; 0x5b34 <USART3_Write>
				USART3_Write('\r');				// USART3 ҝЎ \r
    634a:	8d e0       	ldi	r24, 0x0D	; 13
    634c:	0e 94 9a 2d 	call	0x5b34	; 0x5b34 <USART3_Write>
			break;
    6350:	09 c0       	rjmp	.+18     	; 0x6364 <ZigBee_Write_ch+0x94>

			case 2:							// zbch_wite = 2 АМёй
				USART3_SendString("ATWR\r");			// USART3 ҝЎ ATWR\r АьјЫ
    6352:	81 e7       	ldi	r24, 0x71	; 113
    6354:	91 e4       	ldi	r25, 0x41	; 65
    6356:	0e 94 a3 2d 	call	0x5b46	; 0x5b46 <USART3_SendString>
			break;
    635a:	04 c0       	rjmp	.+8      	; 0x6364 <ZigBee_Write_ch+0x94>

			case 3:							// zbch_wite = 3 АМёй
				USART3_SendString("ATCN\r");			// USART3 ҝЎ ATCN\r АьјЫ
    635c:	87 e7       	ldi	r24, 0x77	; 119
    635e:	91 e4       	ldi	r25, 0x41	; 65
    6360:	0e 94 a3 2d 	call	0x5b46	; 0x5b46 <USART3_SendString>
			break;
		}
//-------------------------------------------------------------------------------------------------
		for(uint8_t cnt = 0; cnt < RX3_SIZE; cnt++)			// RX3_SIZE ёёЕӯ №Эә№
    6364:	80 e0       	ldi	r24, 0x00	; 0
    6366:	9d c0       	rjmp	.+314    	; 0x64a2 <ZigBee_Write_ch+0x1d2>
		{
			if(zbch_wite == 0 && Rx3_Buff[cnt] == 'O' && Rx3_Buff[cnt + 1] == 'K' && Rx3_Buff[cnt + 2] == 0x0d)
    6368:	c1 11       	cpse	r28, r1
    636a:	25 c0       	rjmp	.+74     	; 0x63b6 <ZigBee_Write_ch+0xe6>
    636c:	28 2f       	mov	r18, r24
    636e:	30 e0       	ldi	r19, 0x00	; 0
    6370:	f9 01       	movw	r30, r18
    6372:	ee 55       	subi	r30, 0x5E	; 94
    6374:	fe 4a       	sbci	r31, 0xAE	; 174
    6376:	90 81       	ld	r25, Z
    6378:	9f 34       	cpi	r25, 0x4F	; 79
    637a:	e9 f4       	brne	.+58     	; 0x63b6 <ZigBee_Write_ch+0xe6>
    637c:	f9 01       	movw	r30, r18
    637e:	ed 55       	subi	r30, 0x5D	; 93
    6380:	fe 4a       	sbci	r31, 0xAE	; 174
    6382:	90 81       	ld	r25, Z
    6384:	9b 34       	cpi	r25, 0x4B	; 75
    6386:	b9 f4       	brne	.+46     	; 0x63b6 <ZigBee_Write_ch+0xe6>
    6388:	f9 01       	movw	r30, r18
    638a:	ec 55       	subi	r30, 0x5C	; 92
    638c:	fe 4a       	sbci	r31, 0xAE	; 174
    638e:	90 81       	ld	r25, Z
    6390:	9d 30       	cpi	r25, 0x0D	; 13
    6392:	89 f4       	brne	.+34     	; 0x63b6 <ZigBee_Write_ch+0xe6>
			{							// 0+OK+CR
				zbch_wite = 1;					// ҙдәҜ И®АО ИД ҙЩАҪАё·О Бх°Ў
				Beep(3);
    6394:	83 e0       	ldi	r24, 0x03	; 3
    6396:	90 e0       	ldi	r25, 0x00	; 0
    6398:	0e 94 42 04 	call	0x884	; 0x884 <Beep>
    639c:	2f ef       	ldi	r18, 0xFF	; 255
    639e:	8f e3       	ldi	r24, 0x3F	; 63
    63a0:	92 e0       	ldi	r25, 0x02	; 2
    63a2:	21 50       	subi	r18, 0x01	; 1
    63a4:	80 40       	sbci	r24, 0x00	; 0
    63a6:	90 40       	sbci	r25, 0x00	; 0
    63a8:	e1 f7       	brne	.-8      	; 0x63a2 <ZigBee_Write_ch+0xd2>
    63aa:	00 c0       	rjmp	.+0      	; 0x63ac <ZigBee_Write_ch+0xdc>
    63ac:	00 00       	nop
				_delay_ms(50);					// ZigBee Гіё® ҪГ°Ј ИД
				Rx3_Buff_Clear();				// Rx3 Buff Clear
    63ae:	0e 94 c1 2d 	call	0x5b82	; 0x5b82 <Rx3_Buff_Clear>
//-------------------------------------------------------------------------------------------------
		for(uint8_t cnt = 0; cnt < RX3_SIZE; cnt++)			// RX3_SIZE ёёЕӯ №Эә№
		{
			if(zbch_wite == 0 && Rx3_Buff[cnt] == 'O' && Rx3_Buff[cnt + 1] == 'K' && Rx3_Buff[cnt + 2] == 0x0d)
			{							// 0+OK+CR
				zbch_wite = 1;					// ҙдәҜ И®АО ИД ҙЩАҪАё·О Бх°Ў
    63b2:	c1 e0       	ldi	r28, 0x01	; 1
				Beep(3);
				_delay_ms(50);					// ZigBee Гіё® ҪГ°Ј ИД
				Rx3_Buff_Clear();				// Rx3 Buff Clear
				break;
    63b4:	79 c0       	rjmp	.+242    	; 0x64a8 <ZigBee_Write_ch+0x1d8>
			}

			if(zbch_wite == 1 && Rx3_Buff[cnt] == 'O' && Rx3_Buff[cnt + 1] == 'K' && Rx3_Buff[cnt + 2] == 0x0d)
    63b6:	c1 30       	cpi	r28, 0x01	; 1
    63b8:	29 f5       	brne	.+74     	; 0x6404 <ZigBee_Write_ch+0x134>
    63ba:	28 2f       	mov	r18, r24
    63bc:	30 e0       	ldi	r19, 0x00	; 0
    63be:	f9 01       	movw	r30, r18
    63c0:	ee 55       	subi	r30, 0x5E	; 94
    63c2:	fe 4a       	sbci	r31, 0xAE	; 174
    63c4:	90 81       	ld	r25, Z
    63c6:	9f 34       	cpi	r25, 0x4F	; 79
    63c8:	e9 f4       	brne	.+58     	; 0x6404 <ZigBee_Write_ch+0x134>
    63ca:	f9 01       	movw	r30, r18
    63cc:	ed 55       	subi	r30, 0x5D	; 93
    63ce:	fe 4a       	sbci	r31, 0xAE	; 174
    63d0:	90 81       	ld	r25, Z
    63d2:	9b 34       	cpi	r25, 0x4B	; 75
    63d4:	b9 f4       	brne	.+46     	; 0x6404 <ZigBee_Write_ch+0x134>
    63d6:	f9 01       	movw	r30, r18
    63d8:	ec 55       	subi	r30, 0x5C	; 92
    63da:	fe 4a       	sbci	r31, 0xAE	; 174
    63dc:	90 81       	ld	r25, Z
    63de:	9d 30       	cpi	r25, 0x0D	; 13
    63e0:	89 f4       	brne	.+34     	; 0x6404 <ZigBee_Write_ch+0x134>
			{							// 1+OK+CR
				zbch_wite = 2;					// ҙдәҜ И®АО ИД ҙЩАҪАё·О Бх°Ў
				Beep(3);
    63e2:	83 e0       	ldi	r24, 0x03	; 3
    63e4:	90 e0       	ldi	r25, 0x00	; 0
    63e6:	0e 94 42 04 	call	0x884	; 0x884 <Beep>
    63ea:	2f ef       	ldi	r18, 0xFF	; 255
    63ec:	8f e3       	ldi	r24, 0x3F	; 63
    63ee:	92 e0       	ldi	r25, 0x02	; 2
    63f0:	21 50       	subi	r18, 0x01	; 1
    63f2:	80 40       	sbci	r24, 0x00	; 0
    63f4:	90 40       	sbci	r25, 0x00	; 0
    63f6:	e1 f7       	brne	.-8      	; 0x63f0 <ZigBee_Write_ch+0x120>
    63f8:	00 c0       	rjmp	.+0      	; 0x63fa <ZigBee_Write_ch+0x12a>
    63fa:	00 00       	nop
				_delay_ms(50);					// ZigBee Гіё® ҪГ°Ј ИД
				Rx3_Buff_Clear();				// Rx3 Buff Clear
    63fc:	0e 94 c1 2d 	call	0x5b82	; 0x5b82 <Rx3_Buff_Clear>
				break;
			}

			if(zbch_wite == 1 && Rx3_Buff[cnt] == 'O' && Rx3_Buff[cnt + 1] == 'K' && Rx3_Buff[cnt + 2] == 0x0d)
			{							// 1+OK+CR
				zbch_wite = 2;					// ҙдәҜ И®АО ИД ҙЩАҪАё·О Бх°Ў
    6400:	c2 e0       	ldi	r28, 0x02	; 2
				Beep(3);
				_delay_ms(50);					// ZigBee Гіё® ҪГ°Ј ИД
				Rx3_Buff_Clear();				// Rx3 Buff Clear
				break;
    6402:	52 c0       	rjmp	.+164    	; 0x64a8 <ZigBee_Write_ch+0x1d8>
			}

			if(zbch_wite == 2 && Rx3_Buff[cnt] == 'O' && Rx3_Buff[cnt + 1] == 'K' && Rx3_Buff[cnt + 2] == 0x0d)
    6404:	c2 30       	cpi	r28, 0x02	; 2
    6406:	29 f5       	brne	.+74     	; 0x6452 <ZigBee_Write_ch+0x182>
    6408:	28 2f       	mov	r18, r24
    640a:	30 e0       	ldi	r19, 0x00	; 0
    640c:	f9 01       	movw	r30, r18
    640e:	ee 55       	subi	r30, 0x5E	; 94
    6410:	fe 4a       	sbci	r31, 0xAE	; 174
    6412:	90 81       	ld	r25, Z
    6414:	9f 34       	cpi	r25, 0x4F	; 79
    6416:	e9 f4       	brne	.+58     	; 0x6452 <ZigBee_Write_ch+0x182>
    6418:	f9 01       	movw	r30, r18
    641a:	ed 55       	subi	r30, 0x5D	; 93
    641c:	fe 4a       	sbci	r31, 0xAE	; 174
    641e:	90 81       	ld	r25, Z
    6420:	9b 34       	cpi	r25, 0x4B	; 75
    6422:	b9 f4       	brne	.+46     	; 0x6452 <ZigBee_Write_ch+0x182>
    6424:	f9 01       	movw	r30, r18
    6426:	ec 55       	subi	r30, 0x5C	; 92
    6428:	fe 4a       	sbci	r31, 0xAE	; 174
    642a:	90 81       	ld	r25, Z
    642c:	9d 30       	cpi	r25, 0x0D	; 13
    642e:	89 f4       	brne	.+34     	; 0x6452 <ZigBee_Write_ch+0x182>
			{							// 2+OK+CR
				zbch_wite = 3;					// ҙдәҜ И®АО ИД ҙЩАҪАё·О Бх°Ў
				Beep(3);
    6430:	83 e0       	ldi	r24, 0x03	; 3
    6432:	90 e0       	ldi	r25, 0x00	; 0
    6434:	0e 94 42 04 	call	0x884	; 0x884 <Beep>
    6438:	2f ef       	ldi	r18, 0xFF	; 255
    643a:	8f e3       	ldi	r24, 0x3F	; 63
    643c:	92 e0       	ldi	r25, 0x02	; 2
    643e:	21 50       	subi	r18, 0x01	; 1
    6440:	80 40       	sbci	r24, 0x00	; 0
    6442:	90 40       	sbci	r25, 0x00	; 0
    6444:	e1 f7       	brne	.-8      	; 0x643e <ZigBee_Write_ch+0x16e>
    6446:	00 c0       	rjmp	.+0      	; 0x6448 <ZigBee_Write_ch+0x178>
    6448:	00 00       	nop
				_delay_ms(50);					// ZigBee Гіё® ҪГ°Ј ИД
				Rx3_Buff_Clear();				// Rx3 Buff Clear
    644a:	0e 94 c1 2d 	call	0x5b82	; 0x5b82 <Rx3_Buff_Clear>
				break;
			}

			if(zbch_wite == 2 && Rx3_Buff[cnt] == 'O' && Rx3_Buff[cnt + 1] == 'K' && Rx3_Buff[cnt + 2] == 0x0d)
			{							// 2+OK+CR
				zbch_wite = 3;					// ҙдәҜ И®АО ИД ҙЩАҪАё·О Бх°Ў
    644e:	c3 e0       	ldi	r28, 0x03	; 3
				Beep(3);
				_delay_ms(50);					// ZigBee Гіё® ҪГ°Ј ИД
				Rx3_Buff_Clear();				// Rx3 Buff Clear
				break;
    6450:	2b c0       	rjmp	.+86     	; 0x64a8 <ZigBee_Write_ch+0x1d8>
			}

			if(zbch_wite == 3 && Rx3_Buff[cnt] == 'O' && Rx3_Buff[cnt + 1] == 'K' && Rx3_Buff[cnt + 2] == 0x0d)
    6452:	c3 30       	cpi	r28, 0x03	; 3
    6454:	29 f5       	brne	.+74     	; 0x64a0 <ZigBee_Write_ch+0x1d0>
    6456:	28 2f       	mov	r18, r24
    6458:	30 e0       	ldi	r19, 0x00	; 0
    645a:	f9 01       	movw	r30, r18
    645c:	ee 55       	subi	r30, 0x5E	; 94
    645e:	fe 4a       	sbci	r31, 0xAE	; 174
    6460:	90 81       	ld	r25, Z
    6462:	9f 34       	cpi	r25, 0x4F	; 79
    6464:	e9 f4       	brne	.+58     	; 0x64a0 <ZigBee_Write_ch+0x1d0>
    6466:	f9 01       	movw	r30, r18
    6468:	ed 55       	subi	r30, 0x5D	; 93
    646a:	fe 4a       	sbci	r31, 0xAE	; 174
    646c:	90 81       	ld	r25, Z
    646e:	9b 34       	cpi	r25, 0x4B	; 75
    6470:	b9 f4       	brne	.+46     	; 0x64a0 <ZigBee_Write_ch+0x1d0>
    6472:	f9 01       	movw	r30, r18
    6474:	ec 55       	subi	r30, 0x5C	; 92
    6476:	fe 4a       	sbci	r31, 0xAE	; 174
    6478:	90 81       	ld	r25, Z
    647a:	9d 30       	cpi	r25, 0x0D	; 13
    647c:	89 f4       	brne	.+34     	; 0x64a0 <ZigBee_Write_ch+0x1d0>
			{							// 3+OK+CR
				zbch_wite = 5;					// ҙдәҜ И®АО ИД While()№® Бҫ·б
				Beep(3);
    647e:	83 e0       	ldi	r24, 0x03	; 3
    6480:	90 e0       	ldi	r25, 0x00	; 0
    6482:	0e 94 42 04 	call	0x884	; 0x884 <Beep>
    6486:	2f ef       	ldi	r18, 0xFF	; 255
    6488:	8f e3       	ldi	r24, 0x3F	; 63
    648a:	92 e0       	ldi	r25, 0x02	; 2
    648c:	21 50       	subi	r18, 0x01	; 1
    648e:	80 40       	sbci	r24, 0x00	; 0
    6490:	90 40       	sbci	r25, 0x00	; 0
    6492:	e1 f7       	brne	.-8      	; 0x648c <ZigBee_Write_ch+0x1bc>
    6494:	00 c0       	rjmp	.+0      	; 0x6496 <ZigBee_Write_ch+0x1c6>
    6496:	00 00       	nop
				_delay_ms(50);					// ZigBee Гіё® ҪГ°Ј ИД
				Rx3_Buff_Clear();				// Rx3 Buff Clear
    6498:	0e 94 c1 2d 	call	0x5b82	; 0x5b82 <Rx3_Buff_Clear>
				break;
			}

			if(zbch_wite == 3 && Rx3_Buff[cnt] == 'O' && Rx3_Buff[cnt + 1] == 'K' && Rx3_Buff[cnt + 2] == 0x0d)
			{							// 3+OK+CR
				zbch_wite = 5;					// ҙдәҜ И®АО ИД While()№® Бҫ·б
    649c:	c5 e0       	ldi	r28, 0x05	; 5
				Beep(3);
				_delay_ms(50);					// ZigBee Гіё® ҪГ°Ј ИД
				Rx3_Buff_Clear();				// Rx3 Buff Clear
				break;
    649e:	04 c0       	rjmp	.+8      	; 0x64a8 <ZigBee_Write_ch+0x1d8>
			case 3:							// zbch_wite = 3 АМёй
				USART3_SendString("ATCN\r");			// USART3 ҝЎ ATCN\r АьјЫ
			break;
		}
//-------------------------------------------------------------------------------------------------
		for(uint8_t cnt = 0; cnt < RX3_SIZE; cnt++)			// RX3_SIZE ёёЕӯ №Эә№
    64a0:	8f 5f       	subi	r24, 0xFF	; 255
    64a2:	8a 3f       	cpi	r24, 0xFA	; 250
    64a4:	08 f4       	brcc	.+2      	; 0x64a8 <ZigBee_Write_ch+0x1d8>
    64a6:	60 cf       	rjmp	.-320    	; 0x6368 <ZigBee_Write_ch+0x98>
				_delay_ms(50);					// ZigBee Гіё® ҪГ°Ј ИД
				Rx3_Buff_Clear();				// Rx3 Buff Clear
				break;
			}
		}
		wdt_reset();							// ҝцДЎө¶ ё®јВ
    64a8:	0e 94 8c 0e 	call	0x1d18	; 0x1d18 <wdt_reset>
	}while(zbch_wite != 5);							// zbch_wite °Ў 5 АП¶§ ұоБц №Эә№
    64ac:	c5 30       	cpi	r28, 0x05	; 5
    64ae:	09 f0       	breq	.+2      	; 0x64b2 <ZigBee_Write_ch+0x1e2>
    64b0:	11 cf       	rjmp	.-478    	; 0x62d4 <ZigBee_Write_ch+0x4>
}
    64b2:	cf 91       	pop	r28
    64b4:	08 95       	ret

000064b6 <ZigBee_Channel_Write>:

//=================================================================================================
void ZigBee_Channel_Write(void)							// ZigBee ГӨіО јіБӨ
{
	FND_Value_Data(2, 2, 12);						// FND 0 ~ 2 FND_OFF
    64b6:	4c e0       	ldi	r20, 0x0C	; 12
    64b8:	62 e0       	ldi	r22, 0x02	; 2
    64ba:	82 e0       	ldi	r24, 0x02	; 2
    64bc:	0e 94 d2 05 	call	0xba4	; 0xba4 <FND_Value_Data>

	while(SET.Select && SET.Menu)						// ёЮҙә ҝН јұЕГ АМ ёрөО 1 АМёй №Эә№
    64c0:	3d c0       	rjmp	.+122    	; 0x653c <ZigBee_Channel_Write+0x86>
	{
		DIGIT[1][1] = fnd_tbl[ZB_ch / 10];				// FND 2 ҝЎ БцұЧәс ГјіО ЗҘҪГ
    64c2:	20 91 04 51 	lds	r18, 0x5104	; 0x805104 <ZB_ch>
    64c6:	8d ec       	ldi	r24, 0xCD	; 205
    64c8:	28 9f       	mul	r18, r24
    64ca:	81 2d       	mov	r24, r1
    64cc:	11 24       	eor	r1, r1
    64ce:	86 95       	lsr	r24
    64d0:	86 95       	lsr	r24
    64d2:	86 95       	lsr	r24
    64d4:	e8 2f       	mov	r30, r24
    64d6:	f0 e0       	ldi	r31, 0x00	; 0
    64d8:	e5 5a       	subi	r30, 0xA5	; 165
    64da:	fe 4b       	sbci	r31, 0xBE	; 190
    64dc:	90 81       	ld	r25, Z
    64de:	a1 e9       	ldi	r26, 0x91	; 145
    64e0:	b1 e4       	ldi	r27, 0x41	; 65
    64e2:	15 96       	adiw	r26, 0x05	; 5
    64e4:	9c 93       	st	X, r25
    64e6:	15 97       	sbiw	r26, 0x05	; 5
		DIGIT[1][0] = fnd_tbl[ZB_ch % 10];
    64e8:	88 0f       	add	r24, r24
    64ea:	98 2f       	mov	r25, r24
    64ec:	99 0f       	add	r25, r25
    64ee:	99 0f       	add	r25, r25
    64f0:	89 0f       	add	r24, r25
    64f2:	e2 2f       	mov	r30, r18
    64f4:	e8 1b       	sub	r30, r24
    64f6:	f0 e0       	ldi	r31, 0x00	; 0
    64f8:	e5 5a       	subi	r30, 0xA5	; 165
    64fa:	fe 4b       	sbci	r31, 0xBE	; 190
    64fc:	80 81       	ld	r24, Z
    64fe:	14 96       	adiw	r26, 0x04	; 4
    6500:	8c 93       	st	X, r24

		if(KEY.Buff)							// Key АФ·ВАМ АЦАёёй
    6502:	80 91 68 51 	lds	r24, 0x5168	; 0x805168 <KEY+0x1>
    6506:	88 23       	and	r24, r24
    6508:	b9 f0       	breq	.+46     	; 0x6538 <ZigBee_Channel_Write+0x82>
		{
			if     (KEY.Key == 1 && ZB_ch < 14) {ZB_ch++; KEY.Key = 0;}				// ҫч  №цЖ° АМёй ZigBee ГӨіО 14ұоБц Бх°Ў
    650a:	80 91 69 51 	lds	r24, 0x5169	; 0x805169 <KEY+0x2>
    650e:	81 30       	cpi	r24, 0x01	; 1
    6510:	41 f4       	brne	.+16     	; 0x6522 <ZigBee_Channel_Write+0x6c>
    6512:	2e 30       	cpi	r18, 0x0E	; 14
    6514:	30 f4       	brcc	.+12     	; 0x6522 <ZigBee_Channel_Write+0x6c>
    6516:	2f 5f       	subi	r18, 0xFF	; 255
    6518:	20 93 04 51 	sts	0x5104, r18	; 0x805104 <ZB_ch>
    651c:	10 92 69 51 	sts	0x5169, r1	; 0x805169 <KEY+0x2>
    6520:	0b c0       	rjmp	.+22     	; 0x6538 <ZigBee_Channel_Write+0x82>
			else if(KEY.Key == 3 && ZB_ch > 0)  {ZB_ch--; KEY.Key = 0;}				// ҙЩҝо№цЖ° АМёй ZigBee ГӨіО  0ұоБц °ЁјТ
    6522:	80 91 69 51 	lds	r24, 0x5169	; 0x805169 <KEY+0x2>
    6526:	83 30       	cpi	r24, 0x03	; 3
    6528:	39 f4       	brne	.+14     	; 0x6538 <ZigBee_Channel_Write+0x82>
    652a:	22 23       	and	r18, r18
    652c:	29 f0       	breq	.+10     	; 0x6538 <ZigBee_Channel_Write+0x82>
    652e:	21 50       	subi	r18, 0x01	; 1
    6530:	20 93 04 51 	sts	0x5104, r18	; 0x805104 <ZB_ch>
    6534:	10 92 69 51 	sts	0x5169, r1	; 0x805169 <KEY+0x2>
		}
		wdt_reset();							// ҝцДЎө¶ ё®јВ
    6538:	0e 94 8c 0e 	call	0x1d18	; 0x1d18 <wdt_reset>
//=================================================================================================
void ZigBee_Channel_Write(void)							// ZigBee ГӨіО јіБӨ
{
	FND_Value_Data(2, 2, 12);						// FND 0 ~ 2 FND_OFF

	while(SET.Select && SET.Menu)						// ёЮҙә ҝН јұЕГ АМ ёрөО 1 АМёй №Эә№
    653c:	80 91 29 51 	lds	r24, 0x5129	; 0x805129 <SET+0x1>
    6540:	88 23       	and	r24, r24
    6542:	21 f0       	breq	.+8      	; 0x654c <ZigBee_Channel_Write+0x96>
    6544:	80 91 28 51 	lds	r24, 0x5128	; 0x805128 <SET>
    6548:	81 11       	cpse	r24, r1
    654a:	bb cf       	rjmp	.-138    	; 0x64c2 <ZigBee_Channel_Write+0xc>
			if     (KEY.Key == 1 && ZB_ch < 14) {ZB_ch++; KEY.Key = 0;}				// ҫч  №цЖ° АМёй ZigBee ГӨіО 14ұоБц Бх°Ў
			else if(KEY.Key == 3 && ZB_ch > 0)  {ZB_ch--; KEY.Key = 0;}				// ҙЩҝо№цЖ° АМёй ZigBee ГӨіО  0ұоБц °ЁјТ
		}
		wdt_reset();							// ҝцДЎө¶ ё®јВ
	}
	ZigBee_Write_ch();							// ZigBee ҝЎ ГӨіО АъАе
    654c:	0e 94 68 31 	call	0x62d0	; 0x62d0 <ZigBee_Write_ch>
    6550:	08 95       	ret

00006552 <ZigBee_Read>:
}

//=================================================================================================
void ZigBee_Read(void)								// ZigBee јіБӨ°Ә АРұв
{
    6552:	cf 93       	push	r28
	uint8_t zbch_read = 0;							// zbch_read әҜјц ГКұвИӯ
    6554:	c0 e0       	ldi	r28, 0x00	; 0

	do{
		switch(zbch_read)						// zbch_read
    6556:	c1 30       	cpi	r28, 0x01	; 1
    6558:	a1 f0       	breq	.+40     	; 0x6582 <ZigBee_Read+0x30>
    655a:	28 f0       	brcs	.+10     	; 0x6566 <ZigBee_Read+0x14>
    655c:	c2 30       	cpi	r28, 0x02	; 2
    655e:	b1 f0       	breq	.+44     	; 0x658c <ZigBee_Read+0x3a>
    6560:	c3 30       	cpi	r28, 0x03	; 3
    6562:	c9 f0       	breq	.+50     	; 0x6596 <ZigBee_Read+0x44>
    6564:	1c c0       	rjmp	.+56     	; 0x659e <ZigBee_Read+0x4c>
		{
			case 0:							// zbch_read = 0 АМёй
				USART3_SendString("+++");			// USART3 ҝЎ +++ АьјЫ
    6566:	88 e6       	ldi	r24, 0x68	; 104
    6568:	91 e4       	ldi	r25, 0x41	; 65
    656a:	0e 94 a3 2d 	call	0x5b46	; 0x5b46 <USART3_SendString>
    656e:	2f ef       	ldi	r18, 0xFF	; 255
    6570:	8f ef       	ldi	r24, 0xFF	; 255
    6572:	9c e2       	ldi	r25, 0x2C	; 44
    6574:	21 50       	subi	r18, 0x01	; 1
    6576:	80 40       	sbci	r24, 0x00	; 0
    6578:	90 40       	sbci	r25, 0x00	; 0
    657a:	e1 f7       	brne	.-8      	; 0x6574 <ZigBee_Read+0x22>
    657c:	00 c0       	rjmp	.+0      	; 0x657e <ZigBee_Read+0x2c>
    657e:	00 00       	nop
    6580:	0e c0       	rjmp	.+28     	; 0x659e <ZigBee_Read+0x4c>
				_delay_ms(1000);				// ZigBee ГЦГК ҙдәҜ ҪГ°Ј 1ГК Delay
			break;

			case 1:							// zbch_read = 1 АМёй
				USART3_SendString("ATCH\r");			// USART3 ҝЎ ATCH АьјЫ
    6582:	82 e8       	ldi	r24, 0x82	; 130
    6584:	91 e4       	ldi	r25, 0x41	; 65
    6586:	0e 94 a3 2d 	call	0x5b46	; 0x5b46 <USART3_SendString>
			break;
    658a:	09 c0       	rjmp	.+18     	; 0x659e <ZigBee_Read+0x4c>

			case 2:							// zbch_read = 2 АМёй
				USART3_SendString("ATID\r");			// USART3 ҝЎ ATWR АьјЫ
    658c:	88 e8       	ldi	r24, 0x88	; 136
    658e:	91 e4       	ldi	r25, 0x41	; 65
    6590:	0e 94 a3 2d 	call	0x5b46	; 0x5b46 <USART3_SendString>
			break;
    6594:	04 c0       	rjmp	.+8      	; 0x659e <ZigBee_Read+0x4c>

			case 3:							// zbch_read = 3 АМёй
				USART3_SendString("ATCN\r");			// USART3 ҝЎ ATCN АьјЫ
    6596:	87 e7       	ldi	r24, 0x77	; 119
    6598:	91 e4       	ldi	r25, 0x41	; 65
    659a:	0e 94 a3 2d 	call	0x5b46	; 0x5b46 <USART3_SendString>
			break;
		}
//-------------------------------------------------------------------------------------------------
		for(uint8_t cnt = 0; cnt < RX3_SIZE; cnt++)			// RX3_SIZE ёёЕӯ №Эә№
    659e:	80 e0       	ldi	r24, 0x00	; 0
    65a0:	30 c1       	rjmp	.+608    	; 0x6802 <ZigBee_Read+0x2b0>
		{
			if(zbch_read == 0 && Rx3_Buff[cnt] == 'O' && Rx3_Buff[cnt + 1] == 'K' && Rx3_Buff[cnt + 2] == 0x0d)
    65a2:	c1 11       	cpse	r28, r1
    65a4:	25 c0       	rjmp	.+74     	; 0x65f0 <ZigBee_Read+0x9e>
    65a6:	28 2f       	mov	r18, r24
    65a8:	30 e0       	ldi	r19, 0x00	; 0
    65aa:	f9 01       	movw	r30, r18
    65ac:	ee 55       	subi	r30, 0x5E	; 94
    65ae:	fe 4a       	sbci	r31, 0xAE	; 174
    65b0:	90 81       	ld	r25, Z
    65b2:	9f 34       	cpi	r25, 0x4F	; 79
    65b4:	e9 f4       	brne	.+58     	; 0x65f0 <ZigBee_Read+0x9e>
    65b6:	f9 01       	movw	r30, r18
    65b8:	ed 55       	subi	r30, 0x5D	; 93
    65ba:	fe 4a       	sbci	r31, 0xAE	; 174
    65bc:	90 81       	ld	r25, Z
    65be:	9b 34       	cpi	r25, 0x4B	; 75
    65c0:	b9 f4       	brne	.+46     	; 0x65f0 <ZigBee_Read+0x9e>
    65c2:	f9 01       	movw	r30, r18
    65c4:	ec 55       	subi	r30, 0x5C	; 92
    65c6:	fe 4a       	sbci	r31, 0xAE	; 174
    65c8:	90 81       	ld	r25, Z
    65ca:	9d 30       	cpi	r25, 0x0D	; 13
    65cc:	89 f4       	brne	.+34     	; 0x65f0 <ZigBee_Read+0x9e>
			{							// 0+OK+CR
				zbch_read = 1;					// ҙдәҜ И®АО ИД ҙЩАҪАё·О Бх°Ў
				Beep(3);
    65ce:	83 e0       	ldi	r24, 0x03	; 3
    65d0:	90 e0       	ldi	r25, 0x00	; 0
    65d2:	0e 94 42 04 	call	0x884	; 0x884 <Beep>
    65d6:	2f ef       	ldi	r18, 0xFF	; 255
    65d8:	8f e3       	ldi	r24, 0x3F	; 63
    65da:	92 e0       	ldi	r25, 0x02	; 2
    65dc:	21 50       	subi	r18, 0x01	; 1
    65de:	80 40       	sbci	r24, 0x00	; 0
    65e0:	90 40       	sbci	r25, 0x00	; 0
    65e2:	e1 f7       	brne	.-8      	; 0x65dc <ZigBee_Read+0x8a>
    65e4:	00 c0       	rjmp	.+0      	; 0x65e6 <ZigBee_Read+0x94>
    65e6:	00 00       	nop
				_delay_ms(50);					// ZigBee Гіё® ҪГ°Ј ИД
				Rx3_Buff_Clear();				// Rx3 Buff Clear
    65e8:	0e 94 c1 2d 	call	0x5b82	; 0x5b82 <Rx3_Buff_Clear>
//-------------------------------------------------------------------------------------------------
		for(uint8_t cnt = 0; cnt < RX3_SIZE; cnt++)			// RX3_SIZE ёёЕӯ №Эә№
		{
			if(zbch_read == 0 && Rx3_Buff[cnt] == 'O' && Rx3_Buff[cnt + 1] == 'K' && Rx3_Buff[cnt + 2] == 0x0d)
			{							// 0+OK+CR
				zbch_read = 1;					// ҙдәҜ И®АО ИД ҙЩАҪАё·О Бх°Ў
    65ec:	c1 e0       	ldi	r28, 0x01	; 1
				Beep(3);
				_delay_ms(50);					// ZigBee Гіё® ҪГ°Ј ИД
				Rx3_Buff_Clear();				// Rx3 Buff Clear
				break;
    65ee:	0c c1       	rjmp	.+536    	; 0x6808 <ZigBee_Read+0x2b6>
			}
//-------------------------------------------------------------------------------------------------
			if(zbch_read == 1 && Rx3_Buff[cnt] == 0x0d)
    65f0:	c1 30       	cpi	r28, 0x01	; 1
    65f2:	09 f0       	breq	.+2      	; 0x65f6 <ZigBee_Read+0xa4>
    65f4:	4e c0       	rjmp	.+156    	; 0x6692 <ZigBee_Read+0x140>
    65f6:	28 2f       	mov	r18, r24
    65f8:	30 e0       	ldi	r19, 0x00	; 0
    65fa:	f9 01       	movw	r30, r18
    65fc:	ee 55       	subi	r30, 0x5E	; 94
    65fe:	fe 4a       	sbci	r31, 0xAE	; 174
    6600:	90 81       	ld	r25, Z
    6602:	9d 30       	cpi	r25, 0x0D	; 13
    6604:	09 f0       	breq	.+2      	; 0x6608 <ZigBee_Read+0xb6>
    6606:	45 c0       	rjmp	.+138    	; 0x6692 <ZigBee_Read+0x140>
			{							// 1+CR
				switch(cnt)					// cnt
    6608:	81 30       	cpi	r24, 0x01	; 1
    660a:	19 f0       	breq	.+6      	; 0x6612 <ZigBee_Read+0xc0>
    660c:	82 30       	cpi	r24, 0x02	; 2
    660e:	49 f0       	breq	.+18     	; 0x6622 <ZigBee_Read+0xd0>
    6610:	2f c0       	rjmp	.+94     	; 0x6670 <ZigBee_Read+0x11e>
				{
					case 1:					// ZigBee channel АРҫоҝАұв. ЗСАЪё®
						ZB_ch = Rx3_Buff[cnt-1] - 0x43;	// ZigBee channel 1АЗ АЪё®
    6612:	f9 01       	movw	r30, r18
    6614:	ef 55       	subi	r30, 0x5F	; 95
    6616:	fe 4a       	sbci	r31, 0xAE	; 174
    6618:	80 81       	ld	r24, Z
    661a:	83 54       	subi	r24, 0x43	; 67
    661c:	80 93 04 51 	sts	0x5104, r24	; 0x805104 <ZB_ch>
					break;
    6620:	27 c0       	rjmp	.+78     	; 0x6670 <ZigBee_Read+0x11e>

					case 2:					// ZigBee channel АРҫоҝАұв. өОАЪё®
						if(Rx3_Buff[cnt-1] <= 0x39) {ZB_ch = (Rx3_Buff[cnt-2] - 0x30) * 10 + (Rx3_Buff[cnt -1] - 0x30) - 6;}	// HEX To DEC
    6622:	f9 01       	movw	r30, r18
    6624:	ef 55       	subi	r30, 0x5F	; 95
    6626:	fe 4a       	sbci	r31, 0xAE	; 174
    6628:	80 81       	ld	r24, Z
    662a:	8a 33       	cpi	r24, 0x3A	; 58
    662c:	88 f4       	brcc	.+34     	; 0x6650 <ZigBee_Read+0xfe>
    662e:	f9 01       	movw	r30, r18
    6630:	e0 56       	subi	r30, 0x60	; 96
    6632:	fe 4a       	sbci	r31, 0xAE	; 174
    6634:	20 81       	ld	r18, Z
    6636:	30 e0       	ldi	r19, 0x00	; 0
    6638:	20 53       	subi	r18, 0x30	; 48
    663a:	31 09       	sbc	r19, r1
    663c:	22 0f       	add	r18, r18
    663e:	92 2f       	mov	r25, r18
    6640:	99 0f       	add	r25, r25
    6642:	99 0f       	add	r25, r25
    6644:	29 0f       	add	r18, r25
    6646:	82 0f       	add	r24, r18
    6648:	86 53       	subi	r24, 0x36	; 54
    664a:	80 93 04 51 	sts	0x5104, r24	; 0x805104 <ZB_ch>
    664e:	10 c0       	rjmp	.+32     	; 0x6670 <ZigBee_Read+0x11e>
						else			    {ZB_ch = (Rx3_Buff[cnt-2] - 0x30) * 10 + (Rx3_Buff[cnt -1] - 0x37) - 6;}	// HEX To DEC
    6650:	f9 01       	movw	r30, r18
    6652:	e0 56       	subi	r30, 0x60	; 96
    6654:	fe 4a       	sbci	r31, 0xAE	; 174
    6656:	20 81       	ld	r18, Z
    6658:	30 e0       	ldi	r19, 0x00	; 0
    665a:	20 53       	subi	r18, 0x30	; 48
    665c:	31 09       	sbc	r19, r1
    665e:	22 0f       	add	r18, r18
    6660:	92 2f       	mov	r25, r18
    6662:	99 0f       	add	r25, r25
    6664:	99 0f       	add	r25, r25
    6666:	29 0f       	add	r18, r25
    6668:	82 0f       	add	r24, r18
    666a:	8d 53       	subi	r24, 0x3D	; 61
    666c:	80 93 04 51 	sts	0x5104, r24	; 0x805104 <ZB_ch>
					break;
				}
				zbch_read = 2;					// ҙдәҜ И®АО ИД ҙЩАҪАё·О Бх°Ў
				Beep(3);
    6670:	83 e0       	ldi	r24, 0x03	; 3
    6672:	90 e0       	ldi	r25, 0x00	; 0
    6674:	0e 94 42 04 	call	0x884	; 0x884 <Beep>
    6678:	2f ef       	ldi	r18, 0xFF	; 255
    667a:	8f e3       	ldi	r24, 0x3F	; 63
    667c:	92 e0       	ldi	r25, 0x02	; 2
    667e:	21 50       	subi	r18, 0x01	; 1
    6680:	80 40       	sbci	r24, 0x00	; 0
    6682:	90 40       	sbci	r25, 0x00	; 0
    6684:	e1 f7       	brne	.-8      	; 0x667e <ZigBee_Read+0x12c>
    6686:	00 c0       	rjmp	.+0      	; 0x6688 <ZigBee_Read+0x136>
    6688:	00 00       	nop
				_delay_ms(50);					// ZigBee Гіё® ҪГ°Ј ИД
				Rx3_Buff_Clear();				// Rx3 Buff Clear
    668a:	0e 94 c1 2d 	call	0x5b82	; 0x5b82 <Rx3_Buff_Clear>
					case 2:					// ZigBee channel АРҫоҝАұв. өОАЪё®
						if(Rx3_Buff[cnt-1] <= 0x39) {ZB_ch = (Rx3_Buff[cnt-2] - 0x30) * 10 + (Rx3_Buff[cnt -1] - 0x30) - 6;}	// HEX To DEC
						else			    {ZB_ch = (Rx3_Buff[cnt-2] - 0x30) * 10 + (Rx3_Buff[cnt -1] - 0x37) - 6;}	// HEX To DEC
					break;
				}
				zbch_read = 2;					// ҙдәҜ И®АО ИД ҙЩАҪАё·О Бх°Ў
    668e:	c2 e0       	ldi	r28, 0x02	; 2
				Beep(3);
				_delay_ms(50);					// ZigBee Гіё® ҪГ°Ј ИД
				Rx3_Buff_Clear();				// Rx3 Buff Clear
				break;
    6690:	bb c0       	rjmp	.+374    	; 0x6808 <ZigBee_Read+0x2b6>
			}
//-------------------------------------------------------------------------------------------------
			if(zbch_read == 2 && Rx3_Buff[cnt] == 0x0d)
    6692:	c2 30       	cpi	r28, 0x02	; 2
    6694:	09 f0       	breq	.+2      	; 0x6698 <ZigBee_Read+0x146>
    6696:	8d c0       	rjmp	.+282    	; 0x67b2 <ZigBee_Read+0x260>
    6698:	28 2f       	mov	r18, r24
    669a:	30 e0       	ldi	r19, 0x00	; 0
    669c:	f9 01       	movw	r30, r18
    669e:	ee 55       	subi	r30, 0x5E	; 94
    66a0:	fe 4a       	sbci	r31, 0xAE	; 174
    66a2:	90 81       	ld	r25, Z
    66a4:	9d 30       	cpi	r25, 0x0D	; 13
    66a6:	09 f0       	breq	.+2      	; 0x66aa <ZigBee_Read+0x158>
    66a8:	84 c0       	rjmp	.+264    	; 0x67b2 <ZigBee_Read+0x260>
			{							// 2+CR
				switch(cnt)					// cnt
    66aa:	82 30       	cpi	r24, 0x02	; 2
    66ac:	a9 f0       	breq	.+42     	; 0x66d8 <ZigBee_Read+0x186>
    66ae:	18 f4       	brcc	.+6      	; 0x66b6 <ZigBee_Read+0x164>
    66b0:	81 30       	cpi	r24, 0x01	; 1
    66b2:	39 f0       	breq	.+14     	; 0x66c2 <ZigBee_Read+0x170>
    66b4:	6d c0       	rjmp	.+218    	; 0x6790 <ZigBee_Read+0x23e>
    66b6:	83 30       	cpi	r24, 0x03	; 3
    66b8:	21 f1       	breq	.+72     	; 0x6702 <ZigBee_Read+0x1b0>
    66ba:	84 30       	cpi	r24, 0x04	; 4
    66bc:	09 f4       	brne	.+2      	; 0x66c0 <ZigBee_Read+0x16e>
    66be:	40 c0       	rjmp	.+128    	; 0x6740 <ZigBee_Read+0x1ee>
    66c0:	67 c0       	rjmp	.+206    	; 0x6790 <ZigBee_Read+0x23e>
				{
					case 1:						// ZigBee Pan ID АРҫоҝАұв. 1 АЪё®
						Pan_id_1   = Rx3_Buff[cnt-1] - 0x30;	// ZigBee Pan_id 1АЗ АЪё®
    66c2:	f9 01       	movw	r30, r18
    66c4:	ef 55       	subi	r30, 0x5F	; 95
    66c6:	fe 4a       	sbci	r31, 0xAE	; 174
    66c8:	80 81       	ld	r24, Z
    66ca:	90 e0       	ldi	r25, 0x00	; 0
    66cc:	c0 97       	sbiw	r24, 0x30	; 48
    66ce:	80 93 05 51 	sts	0x5105, r24	; 0x805105 <Pan_id_1>
    66d2:	90 93 06 51 	sts	0x5106, r25	; 0x805106 <Pan_id_1+0x1>
					break;
    66d6:	5c c0       	rjmp	.+184    	; 0x6790 <ZigBee_Read+0x23e>

					case 2:						// ZigBee Pan ID АРҫоҝАұв. 2 АЪё®
						Pan_id_10  = Rx3_Buff[cnt-2] - 0x30;	// ZigBee Pan_id 10АЗ АЪё®
    66d8:	f9 01       	movw	r30, r18
    66da:	e0 56       	subi	r30, 0x60	; 96
    66dc:	fe 4a       	sbci	r31, 0xAE	; 174
    66de:	80 81       	ld	r24, Z
    66e0:	90 e0       	ldi	r25, 0x00	; 0
    66e2:	c0 97       	sbiw	r24, 0x30	; 48
    66e4:	80 93 26 51 	sts	0x5126, r24	; 0x805126 <Pan_id_10>
    66e8:	90 93 27 51 	sts	0x5127, r25	; 0x805127 <Pan_id_10+0x1>
						Pan_id_1   = Rx3_Buff[cnt-1] - 0x30;	// ZigBee Pan_id  1АЗ АЪё®
    66ec:	f9 01       	movw	r30, r18
    66ee:	ef 55       	subi	r30, 0x5F	; 95
    66f0:	fe 4a       	sbci	r31, 0xAE	; 174
    66f2:	80 81       	ld	r24, Z
    66f4:	90 e0       	ldi	r25, 0x00	; 0
    66f6:	c0 97       	sbiw	r24, 0x30	; 48
    66f8:	80 93 05 51 	sts	0x5105, r24	; 0x805105 <Pan_id_1>
    66fc:	90 93 06 51 	sts	0x5106, r25	; 0x805106 <Pan_id_1+0x1>
					break;
    6700:	47 c0       	rjmp	.+142    	; 0x6790 <ZigBee_Read+0x23e>

					case 3:						// ZigBee Pan ID АРҫоҝАұв. 3 АЪё®
						Pan_id_100 = Rx3_Buff[cnt-3] - 0x30;	// ZigBee Pan_id 100АЗ АЪё®
    6702:	f9 01       	movw	r30, r18
    6704:	e1 56       	subi	r30, 0x61	; 97
    6706:	fe 4a       	sbci	r31, 0xAE	; 174
    6708:	80 81       	ld	r24, Z
    670a:	90 e0       	ldi	r25, 0x00	; 0
    670c:	c0 97       	sbiw	r24, 0x30	; 48
    670e:	80 93 c3 41 	sts	0x41C3, r24	; 0x8041c3 <Pan_id_100>
    6712:	90 93 c4 41 	sts	0x41C4, r25	; 0x8041c4 <Pan_id_100+0x1>
						Pan_id_10  = Rx3_Buff[cnt-2] - 0x30;	// ZigBee Pan_id  10АЗ АЪё®
    6716:	f9 01       	movw	r30, r18
    6718:	e0 56       	subi	r30, 0x60	; 96
    671a:	fe 4a       	sbci	r31, 0xAE	; 174
    671c:	80 81       	ld	r24, Z
    671e:	90 e0       	ldi	r25, 0x00	; 0
    6720:	c0 97       	sbiw	r24, 0x30	; 48
    6722:	80 93 26 51 	sts	0x5126, r24	; 0x805126 <Pan_id_10>
    6726:	90 93 27 51 	sts	0x5127, r25	; 0x805127 <Pan_id_10+0x1>
						Pan_id_1   = Rx3_Buff[cnt-1] - 0x30;	// ZigBee Pan_id   1АЗ АЪё®
    672a:	f9 01       	movw	r30, r18
    672c:	ef 55       	subi	r30, 0x5F	; 95
    672e:	fe 4a       	sbci	r31, 0xAE	; 174
    6730:	80 81       	ld	r24, Z
    6732:	90 e0       	ldi	r25, 0x00	; 0
    6734:	c0 97       	sbiw	r24, 0x30	; 48
    6736:	80 93 05 51 	sts	0x5105, r24	; 0x805105 <Pan_id_1>
    673a:	90 93 06 51 	sts	0x5106, r25	; 0x805106 <Pan_id_1+0x1>
					break;
    673e:	28 c0       	rjmp	.+80     	; 0x6790 <ZigBee_Read+0x23e>

					case 4:						// ZigBee Pan ID АРҫоҝАұв. 4 АЪё®
						Pan_id_1000 = Rx3_Buff[cnt-4] - 0x30;	// ZigBee Pan_id 1000АЗ АЪё®
    6740:	f9 01       	movw	r30, r18
    6742:	e2 56       	subi	r30, 0x62	; 98
    6744:	fe 4a       	sbci	r31, 0xAE	; 174
    6746:	80 81       	ld	r24, Z
    6748:	90 e0       	ldi	r25, 0x00	; 0
    674a:	c0 97       	sbiw	r24, 0x30	; 48
    674c:	80 93 64 51 	sts	0x5164, r24	; 0x805164 <Pan_id_1000>
    6750:	90 93 65 51 	sts	0x5165, r25	; 0x805165 <Pan_id_1000+0x1>
						Pan_id_100  = Rx3_Buff[cnt-3] - 0x30;	// ZigBee Pan_id  100АЗ АЪё®
    6754:	f9 01       	movw	r30, r18
    6756:	e1 56       	subi	r30, 0x61	; 97
    6758:	fe 4a       	sbci	r31, 0xAE	; 174
    675a:	80 81       	ld	r24, Z
    675c:	90 e0       	ldi	r25, 0x00	; 0
    675e:	c0 97       	sbiw	r24, 0x30	; 48
    6760:	80 93 c3 41 	sts	0x41C3, r24	; 0x8041c3 <Pan_id_100>
    6764:	90 93 c4 41 	sts	0x41C4, r25	; 0x8041c4 <Pan_id_100+0x1>
						Pan_id_10   = Rx3_Buff[cnt-2] - 0x30;	// ZigBee Pan_id   10АЗ АЪё®
    6768:	f9 01       	movw	r30, r18
    676a:	e0 56       	subi	r30, 0x60	; 96
    676c:	fe 4a       	sbci	r31, 0xAE	; 174
    676e:	80 81       	ld	r24, Z
    6770:	90 e0       	ldi	r25, 0x00	; 0
    6772:	c0 97       	sbiw	r24, 0x30	; 48
    6774:	80 93 26 51 	sts	0x5126, r24	; 0x805126 <Pan_id_10>
    6778:	90 93 27 51 	sts	0x5127, r25	; 0x805127 <Pan_id_10+0x1>
						Pan_id_1    = Rx3_Buff[cnt-1] - 0x30;	// ZigBee Pan_id    1АЗ АЪё®
    677c:	f9 01       	movw	r30, r18
    677e:	ef 55       	subi	r30, 0x5F	; 95
    6780:	fe 4a       	sbci	r31, 0xAE	; 174
    6782:	80 81       	ld	r24, Z
    6784:	90 e0       	ldi	r25, 0x00	; 0
    6786:	c0 97       	sbiw	r24, 0x30	; 48
    6788:	80 93 05 51 	sts	0x5105, r24	; 0x805105 <Pan_id_1>
    678c:	90 93 06 51 	sts	0x5106, r25	; 0x805106 <Pan_id_1+0x1>
					break;
				}
				zbch_read = 3;					// ҙдәҜ И®АО ИД ҙЩАҪАё·О Бх°Ў
				Beep(3);
    6790:	83 e0       	ldi	r24, 0x03	; 3
    6792:	90 e0       	ldi	r25, 0x00	; 0
    6794:	0e 94 42 04 	call	0x884	; 0x884 <Beep>
    6798:	2f ef       	ldi	r18, 0xFF	; 255
    679a:	8f e3       	ldi	r24, 0x3F	; 63
    679c:	92 e0       	ldi	r25, 0x02	; 2
    679e:	21 50       	subi	r18, 0x01	; 1
    67a0:	80 40       	sbci	r24, 0x00	; 0
    67a2:	90 40       	sbci	r25, 0x00	; 0
    67a4:	e1 f7       	brne	.-8      	; 0x679e <ZigBee_Read+0x24c>
    67a6:	00 c0       	rjmp	.+0      	; 0x67a8 <ZigBee_Read+0x256>
    67a8:	00 00       	nop
				_delay_ms(50);					// ZigBee Гіё® ҪГ°Ј ИД
				Rx3_Buff_Clear();				// Rx3 Buff Clear
    67aa:	0e 94 c1 2d 	call	0x5b82	; 0x5b82 <Rx3_Buff_Clear>
						Pan_id_100  = Rx3_Buff[cnt-3] - 0x30;	// ZigBee Pan_id  100АЗ АЪё®
						Pan_id_10   = Rx3_Buff[cnt-2] - 0x30;	// ZigBee Pan_id   10АЗ АЪё®
						Pan_id_1    = Rx3_Buff[cnt-1] - 0x30;	// ZigBee Pan_id    1АЗ АЪё®
					break;
				}
				zbch_read = 3;					// ҙдәҜ И®АО ИД ҙЩАҪАё·О Бх°Ў
    67ae:	c3 e0       	ldi	r28, 0x03	; 3
				Beep(3);
				_delay_ms(50);					// ZigBee Гіё® ҪГ°Ј ИД
				Rx3_Buff_Clear();				// Rx3 Buff Clear
				break;
    67b0:	2b c0       	rjmp	.+86     	; 0x6808 <ZigBee_Read+0x2b6>
			}
//-------------------------------------------------------------------------------------------------
			if(zbch_read == 3 && Rx3_Buff[cnt] == 'O' && Rx3_Buff[cnt + 1] == 'K' && Rx3_Buff[cnt + 2] == 0x0d)
    67b2:	c3 30       	cpi	r28, 0x03	; 3
    67b4:	29 f5       	brne	.+74     	; 0x6800 <ZigBee_Read+0x2ae>
    67b6:	28 2f       	mov	r18, r24
    67b8:	30 e0       	ldi	r19, 0x00	; 0
    67ba:	f9 01       	movw	r30, r18
    67bc:	ee 55       	subi	r30, 0x5E	; 94
    67be:	fe 4a       	sbci	r31, 0xAE	; 174
    67c0:	90 81       	ld	r25, Z
    67c2:	9f 34       	cpi	r25, 0x4F	; 79
    67c4:	e9 f4       	brne	.+58     	; 0x6800 <ZigBee_Read+0x2ae>
    67c6:	f9 01       	movw	r30, r18
    67c8:	ed 55       	subi	r30, 0x5D	; 93
    67ca:	fe 4a       	sbci	r31, 0xAE	; 174
    67cc:	90 81       	ld	r25, Z
    67ce:	9b 34       	cpi	r25, 0x4B	; 75
    67d0:	b9 f4       	brne	.+46     	; 0x6800 <ZigBee_Read+0x2ae>
    67d2:	f9 01       	movw	r30, r18
    67d4:	ec 55       	subi	r30, 0x5C	; 92
    67d6:	fe 4a       	sbci	r31, 0xAE	; 174
    67d8:	90 81       	ld	r25, Z
    67da:	9d 30       	cpi	r25, 0x0D	; 13
    67dc:	89 f4       	brne	.+34     	; 0x6800 <ZigBee_Read+0x2ae>
			{							// 3+OK+CR
				zbch_read = 5;					// ҙдәҜ И®АО ИД While()№® Бҫ·б
				Beep(3);
    67de:	83 e0       	ldi	r24, 0x03	; 3
    67e0:	90 e0       	ldi	r25, 0x00	; 0
    67e2:	0e 94 42 04 	call	0x884	; 0x884 <Beep>
    67e6:	2f ef       	ldi	r18, 0xFF	; 255
    67e8:	8f e3       	ldi	r24, 0x3F	; 63
    67ea:	92 e0       	ldi	r25, 0x02	; 2
    67ec:	21 50       	subi	r18, 0x01	; 1
    67ee:	80 40       	sbci	r24, 0x00	; 0
    67f0:	90 40       	sbci	r25, 0x00	; 0
    67f2:	e1 f7       	brne	.-8      	; 0x67ec <ZigBee_Read+0x29a>
    67f4:	00 c0       	rjmp	.+0      	; 0x67f6 <ZigBee_Read+0x2a4>
    67f6:	00 00       	nop
				_delay_ms(50);					// ZigBee Гіё® ҪГ°Ј ИД
				Rx3_Buff_Clear();				// Rx3 Buff Clear
    67f8:	0e 94 c1 2d 	call	0x5b82	; 0x5b82 <Rx3_Buff_Clear>
				break;
			}
//-------------------------------------------------------------------------------------------------
			if(zbch_read == 3 && Rx3_Buff[cnt] == 'O' && Rx3_Buff[cnt + 1] == 'K' && Rx3_Buff[cnt + 2] == 0x0d)
			{							// 3+OK+CR
				zbch_read = 5;					// ҙдәҜ И®АО ИД While()№® Бҫ·б
    67fc:	c5 e0       	ldi	r28, 0x05	; 5
				Beep(3);
				_delay_ms(50);					// ZigBee Гіё® ҪГ°Ј ИД
				Rx3_Buff_Clear();				// Rx3 Buff Clear
				break;
    67fe:	04 c0       	rjmp	.+8      	; 0x6808 <ZigBee_Read+0x2b6>
			case 3:							// zbch_read = 3 АМёй
				USART3_SendString("ATCN\r");			// USART3 ҝЎ ATCN АьјЫ
			break;
		}
//-------------------------------------------------------------------------------------------------
		for(uint8_t cnt = 0; cnt < RX3_SIZE; cnt++)			// RX3_SIZE ёёЕӯ №Эә№
    6800:	8f 5f       	subi	r24, 0xFF	; 255
    6802:	8a 3f       	cpi	r24, 0xFA	; 250
    6804:	08 f4       	brcc	.+2      	; 0x6808 <ZigBee_Read+0x2b6>
    6806:	cd ce       	rjmp	.-614    	; 0x65a2 <ZigBee_Read+0x50>
				_delay_ms(50);					// ZigBee Гіё® ҪГ°Ј ИД
				Rx3_Buff_Clear();				// Rx3 Buff Clear
				break;
			}
		}
		wdt_reset();							// ҝцДЎө¶ ё®јВ
    6808:	0e 94 8c 0e 	call	0x1d18	; 0x1d18 <wdt_reset>
	}while(zbch_read != 5);							// zbch_read °Ў 5 АП¶§ ұоБц №Эә№
    680c:	c5 30       	cpi	r28, 0x05	; 5
    680e:	09 f0       	breq	.+2      	; 0x6812 <ZigBee_Read+0x2c0>
    6810:	a2 ce       	rjmp	.-700    	; 0x6556 <ZigBee_Read+0x4>
}
    6812:	cf 91       	pop	r28
    6814:	08 95       	ret

00006816 <ZigBee_Set>:

//=================================================================================================
void ZigBee_Set(void)								// ZigBee ГӨіО №Ч PanID јіБӨ ёрөе
{
    6816:	ef 92       	push	r14
    6818:	ff 92       	push	r15
    681a:	0f 93       	push	r16
    681c:	1f 93       	push	r17
    681e:	cf 93       	push	r28
	uint8_t Count = 1;							// Д«ҝоЖ® әҜјц ГКұвИӯ
	SET.Select = 0;								// Select №цЖ° ГКұвИӯ
    6820:	10 92 29 51 	sts	0x5129, r1	; 0x805129 <SET+0x1>
	FND_Value_Data(0, 2, 12);						// FND 0 ~ 2 FND_OFF
    6824:	4c e0       	ldi	r20, 0x0C	; 12
    6826:	62 e0       	ldi	r22, 0x02	; 2
    6828:	80 e0       	ldi	r24, 0x00	; 0
    682a:	0e 94 d2 05 	call	0xba4	; 0xba4 <FND_Value_Data>
	ZigBee_Read();								// ZigBee јіБӨ°Ә АРұв
    682e:	0e 94 a9 32 	call	0x6552	; 0x6552 <ZigBee_Read>
}

//=================================================================================================
void ZigBee_Set(void)								// ZigBee ГӨіО №Ч PanID јіБӨ ёрөе
{
	uint8_t Count = 1;							// Д«ҝоЖ® әҜјц ГКұвИӯ
    6832:	c1 e0       	ldi	r28, 0x01	; 1
	SET.Select = 0;								// Select №цЖ° ГКұвИӯ
	FND_Value_Data(0, 2, 12);						// FND 0 ~ 2 FND_OFF
	ZigBee_Read();								// ZigBee јіБӨ°Ә АРұв
//-------------------------------------------------------------------------------------------------
	while(SET.Menu)								// ёЮҙә°Ў 1 АМёй №Эә№
    6834:	49 c1       	rjmp	.+658    	; 0x6ac8 <ZigBee_Set+0x2b2>
	{
		if(KEY.Buff)							// Key АФ·ВАМ АЦАёёй
    6836:	80 91 68 51 	lds	r24, 0x5168	; 0x805168 <KEY+0x1>
    683a:	88 23       	and	r24, r24
    683c:	99 f0       	breq	.+38     	; 0x6864 <ZigBee_Set+0x4e>
		{
			if     (KEY.Key == 1 && Count < 3) {Count++; KEY.Key = 0;}	// ҫч  №цЖ° АМёй Count Бх°Ў
    683e:	80 91 69 51 	lds	r24, 0x5169	; 0x805169 <KEY+0x2>
    6842:	81 30       	cpi	r24, 0x01	; 1
    6844:	31 f4       	brne	.+12     	; 0x6852 <ZigBee_Set+0x3c>
    6846:	c3 30       	cpi	r28, 0x03	; 3
    6848:	20 f4       	brcc	.+8      	; 0x6852 <ZigBee_Set+0x3c>
    684a:	cf 5f       	subi	r28, 0xFF	; 255
    684c:	10 92 69 51 	sts	0x5169, r1	; 0x805169 <KEY+0x2>
    6850:	09 c0       	rjmp	.+18     	; 0x6864 <ZigBee_Set+0x4e>
			else if(KEY.Key == 3 && Count > 0) {Count--; KEY.Key = 0;}	// ҙЩҝо№цЖ° АМёй Count °ЁјТ
    6852:	80 91 69 51 	lds	r24, 0x5169	; 0x805169 <KEY+0x2>
    6856:	83 30       	cpi	r24, 0x03	; 3
    6858:	29 f4       	brne	.+10     	; 0x6864 <ZigBee_Set+0x4e>
    685a:	cc 23       	and	r28, r28
    685c:	19 f0       	breq	.+6      	; 0x6864 <ZigBee_Set+0x4e>
    685e:	c1 50       	subi	r28, 0x01	; 1
    6860:	10 92 69 51 	sts	0x5169, r1	; 0x805169 <KEY+0x2>
		}
		DIGIT[2][0] = fnd_tbl[Count];					// FND 2.0 ҝЎ Count ЗҘҪГ
    6864:	ec 2f       	mov	r30, r28
    6866:	f0 e0       	ldi	r31, 0x00	; 0
    6868:	e5 5a       	subi	r30, 0xA5	; 165
    686a:	fe 4b       	sbci	r31, 0xBE	; 190
    686c:	80 81       	ld	r24, Z
    686e:	80 93 99 41 	sts	0x4199, r24	; 0x804199 <DIGIT+0x8>

		switch(Count)							// Count
    6872:	c1 30       	cpi	r28, 0x01	; 1
    6874:	41 f0       	breq	.+16     	; 0x6886 <ZigBee_Set+0x70>
    6876:	08 f4       	brcc	.+2      	; 0x687a <ZigBee_Set+0x64>
    6878:	24 c1       	rjmp	.+584    	; 0x6ac2 <ZigBee_Set+0x2ac>
    687a:	c2 30       	cpi	r28, 0x02	; 2
    687c:	b9 f1       	breq	.+110    	; 0x68ec <ZigBee_Set+0xd6>
    687e:	c3 30       	cpi	r28, 0x03	; 3
    6880:	09 f4       	brne	.+2      	; 0x6884 <ZigBee_Set+0x6e>
    6882:	1d c1       	rjmp	.+570    	; 0x6abe <ZigBee_Set+0x2a8>
    6884:	1f c1       	rjmp	.+574    	; 0x6ac4 <ZigBee_Set+0x2ae>
			case 0:							// Count = 0 АМёй
				Count = 2;					// №Эә№А» А§ЗШ CountёҰ ГЦ°н·О Бх°Ў ҪГЕҙ
			break;

			case 1:							// Count = 1 АМёй
				DIGIT[0][3] = FND_Z;				// FND 0 ҝЎ Z-ch ЗҘҪГ
    6886:	e1 e9       	ldi	r30, 0x91	; 145
    6888:	f1 e4       	ldi	r31, 0x41	; 65
    688a:	8a ed       	ldi	r24, 0xDA	; 218
    688c:	83 83       	std	Z+3, r24	; 0x03
				DIGIT[0][2] = FND_MINUS;
    688e:	82 e0       	ldi	r24, 0x02	; 2
    6890:	82 83       	std	Z+2, r24	; 0x02
				DIGIT[0][1] = FND_c;
    6892:	8a e1       	ldi	r24, 0x1A	; 26
    6894:	81 83       	std	Z+1, r24	; 0x01
				DIGIT[0][0] = FND_h;
    6896:	8e e2       	ldi	r24, 0x2E	; 46
    6898:	80 83       	st	Z, r24

				DIGIT[1][3] = FND_OFF;				// FND 2 ҝЎ ZigBee ГӨіО ЗҘҪГ
    689a:	17 82       	std	Z+7, r1	; 0x07
				DIGIT[1][2] = FND_OFF;
    689c:	16 82       	std	Z+6, r1	; 0x06
				DIGIT[1][1] = fnd_tbl[ZB_ch / 10];
    689e:	40 91 04 51 	lds	r20, 0x5104	; 0x805104 <ZB_ch>
    68a2:	8d ec       	ldi	r24, 0xCD	; 205
    68a4:	48 9f       	mul	r20, r24
    68a6:	81 2d       	mov	r24, r1
    68a8:	11 24       	eor	r1, r1
    68aa:	86 95       	lsr	r24
    68ac:	86 95       	lsr	r24
    68ae:	86 95       	lsr	r24
    68b0:	28 2f       	mov	r18, r24
    68b2:	30 e0       	ldi	r19, 0x00	; 0
    68b4:	25 5a       	subi	r18, 0xA5	; 165
    68b6:	3e 4b       	sbci	r19, 0xBE	; 190
    68b8:	d9 01       	movw	r26, r18
    68ba:	9c 91       	ld	r25, X
    68bc:	95 83       	std	Z+5, r25	; 0x05
				DIGIT[1][0] = fnd_tbl[ZB_ch % 10];
    68be:	88 0f       	add	r24, r24
    68c0:	98 2f       	mov	r25, r24
    68c2:	99 0f       	add	r25, r25
    68c4:	99 0f       	add	r25, r25
    68c6:	89 0f       	add	r24, r25
    68c8:	a4 2f       	mov	r26, r20
    68ca:	a8 1b       	sub	r26, r24
    68cc:	b0 e0       	ldi	r27, 0x00	; 0
    68ce:	a5 5a       	subi	r26, 0xA5	; 165
    68d0:	be 4b       	sbci	r27, 0xBE	; 190
    68d2:	8c 91       	ld	r24, X
    68d4:	84 83       	std	Z+4, r24	; 0x04

				DIGIT[2][3] = FND_OFF;				// FND 2 1~3 OFF
    68d6:	13 86       	std	Z+11, r1	; 0x0b
				DIGIT[2][2] = FND_OFF;
    68d8:	12 86       	std	Z+10, r1	; 0x0a
				DIGIT[2][1] = FND_OFF;
    68da:	11 86       	std	Z+9, r1	; 0x09

				if(SET.Select) {ZigBee_Channel_Write();}	// ZigBee ГӨіО јіБӨ
    68dc:	80 91 29 51 	lds	r24, 0x5129	; 0x805129 <SET+0x1>
    68e0:	88 23       	and	r24, r24
    68e2:	09 f4       	brne	.+2      	; 0x68e6 <ZigBee_Set+0xd0>
    68e4:	ef c0       	rjmp	.+478    	; 0x6ac4 <ZigBee_Set+0x2ae>
    68e6:	0e 94 5b 32 	call	0x64b6	; 0x64b6 <ZigBee_Channel_Write>
    68ea:	ec c0       	rjmp	.+472    	; 0x6ac4 <ZigBee_Set+0x2ae>
			break;

			case 2:							// Count = 2 АМёй
				DIGIT[0][3] = FND_Z;				// FND 0 ҝЎ Z-Id ЗҘҪГ
    68ec:	e1 e9       	ldi	r30, 0x91	; 145
    68ee:	f1 e4       	ldi	r31, 0x41	; 65
    68f0:	8a ed       	ldi	r24, 0xDA	; 218
    68f2:	83 83       	std	Z+3, r24	; 0x03
				DIGIT[0][2] = FND_MINUS;
    68f4:	82 e0       	ldi	r24, 0x02	; 2
    68f6:	82 83       	std	Z+2, r24	; 0x02
				DIGIT[0][1] = FND_I;
    68f8:	80 e6       	ldi	r24, 0x60	; 96
    68fa:	81 83       	std	Z+1, r24	; 0x01
				DIGIT[0][0] = FND_d;
    68fc:	8a e7       	ldi	r24, 0x7A	; 122
    68fe:	80 83       	st	Z, r24

				ZB_id = (Pan_id_1000 * 4096) + (Pan_id_100 * 256) + (Pan_id_10 * 16) + Pan_id_1;	// ZigBee PanID °и»к
    6900:	40 91 64 51 	lds	r20, 0x5164	; 0x805164 <Pan_id_1000>
    6904:	50 91 65 51 	lds	r21, 0x5165	; 0x805165 <Pan_id_1000+0x1>
    6908:	42 95       	swap	r20
    690a:	52 95       	swap	r21
    690c:	50 7f       	andi	r21, 0xF0	; 240
    690e:	54 27       	eor	r21, r20
    6910:	40 7f       	andi	r20, 0xF0	; 240
    6912:	54 27       	eor	r21, r20
    6914:	80 91 c3 41 	lds	r24, 0x41C3	; 0x8041c3 <Pan_id_100>
    6918:	90 91 c4 41 	lds	r25, 0x41C4	; 0x8041c4 <Pan_id_100+0x1>
    691c:	48 0f       	add	r20, r24
    691e:	59 1f       	adc	r21, r25
    6920:	42 95       	swap	r20
    6922:	52 95       	swap	r21
    6924:	50 7f       	andi	r21, 0xF0	; 240
    6926:	54 27       	eor	r21, r20
    6928:	40 7f       	andi	r20, 0xF0	; 240
    692a:	54 27       	eor	r21, r20
    692c:	80 91 26 51 	lds	r24, 0x5126	; 0x805126 <Pan_id_10>
    6930:	90 91 27 51 	lds	r25, 0x5127	; 0x805127 <Pan_id_10+0x1>
    6934:	48 0f       	add	r20, r24
    6936:	59 1f       	adc	r21, r25
    6938:	42 95       	swap	r20
    693a:	52 95       	swap	r21
    693c:	50 7f       	andi	r21, 0xF0	; 240
    693e:	54 27       	eor	r21, r20
    6940:	40 7f       	andi	r20, 0xF0	; 240
    6942:	54 27       	eor	r21, r20
    6944:	80 91 05 51 	lds	r24, 0x5105	; 0x805105 <Pan_id_1>
    6948:	90 91 06 51 	lds	r25, 0x5106	; 0x805106 <Pan_id_1+0x1>
    694c:	48 0f       	add	r20, r24
    694e:	59 1f       	adc	r21, r25
    6950:	40 93 7d 51 	sts	0x517D, r20	; 0x80517d <ZB_id>
    6954:	50 93 7e 51 	sts	0x517E, r21	; 0x80517e <ZB_id+0x1>
				DIGIT[1][3] = fnd_tbl[ZB_id / 10000];		// FND 1 ҝЎ ZigBee PanID 1000~10АЗ АЪё® ЗҘҪГ
    6958:	7a 01       	movw	r14, r20
    695a:	f6 94       	lsr	r15
    695c:	e7 94       	ror	r14
    695e:	f6 94       	lsr	r15
    6960:	e7 94       	ror	r14
    6962:	f6 94       	lsr	r15
    6964:	e7 94       	ror	r14
    6966:	f6 94       	lsr	r15
    6968:	e7 94       	ror	r14
    696a:	97 01       	movw	r18, r14
    696c:	a7 e4       	ldi	r26, 0x47	; 71
    696e:	b3 e0       	ldi	r27, 0x03	; 3
    6970:	0e 94 e8 3b 	call	0x77d0	; 0x77d0 <__umulhisi3>
    6974:	8c 01       	movw	r16, r24
    6976:	16 95       	lsr	r17
    6978:	07 95       	ror	r16
    697a:	16 95       	lsr	r17
    697c:	07 95       	ror	r16
    697e:	16 95       	lsr	r17
    6980:	07 95       	ror	r16
    6982:	d8 01       	movw	r26, r16
    6984:	a5 5a       	subi	r26, 0xA5	; 165
    6986:	be 4b       	sbci	r27, 0xBE	; 190
    6988:	8c 91       	ld	r24, X
    698a:	87 83       	std	Z+7, r24	; 0x07
				DIGIT[1][2] = fnd_tbl[ZB_id % 10000 / 1000];
    698c:	20 e1       	ldi	r18, 0x10	; 16
    698e:	37 e2       	ldi	r19, 0x27	; 39
    6990:	02 9f       	mul	r16, r18
    6992:	c0 01       	movw	r24, r0
    6994:	03 9f       	mul	r16, r19
    6996:	90 0d       	add	r25, r0
    6998:	12 9f       	mul	r17, r18
    699a:	90 0d       	add	r25, r0
    699c:	11 24       	eor	r1, r1
    699e:	9a 01       	movw	r18, r20
    69a0:	28 1b       	sub	r18, r24
    69a2:	39 0b       	sbc	r19, r25
    69a4:	36 95       	lsr	r19
    69a6:	27 95       	ror	r18
    69a8:	36 95       	lsr	r19
    69aa:	27 95       	ror	r18
    69ac:	36 95       	lsr	r19
    69ae:	27 95       	ror	r18
    69b0:	a5 ec       	ldi	r26, 0xC5	; 197
    69b2:	b0 e2       	ldi	r27, 0x20	; 32
    69b4:	0e 94 e8 3b 	call	0x77d0	; 0x77d0 <__umulhisi3>
    69b8:	92 95       	swap	r25
    69ba:	82 95       	swap	r24
    69bc:	8f 70       	andi	r24, 0x0F	; 15
    69be:	89 27       	eor	r24, r25
    69c0:	9f 70       	andi	r25, 0x0F	; 15
    69c2:	89 27       	eor	r24, r25
    69c4:	dc 01       	movw	r26, r24
    69c6:	a5 5a       	subi	r26, 0xA5	; 165
    69c8:	be 4b       	sbci	r27, 0xBE	; 190
    69ca:	8c 91       	ld	r24, X
    69cc:	86 83       	std	Z+6, r24	; 0x06
				DIGIT[1][1] = fnd_tbl[ZB_id % 1000 / 100];
    69ce:	9a 01       	movw	r18, r20
    69d0:	36 95       	lsr	r19
    69d2:	27 95       	ror	r18
    69d4:	36 95       	lsr	r19
    69d6:	27 95       	ror	r18
    69d8:	36 95       	lsr	r19
    69da:	27 95       	ror	r18
    69dc:	a5 ec       	ldi	r26, 0xC5	; 197
    69de:	b0 e2       	ldi	r27, 0x20	; 32
    69e0:	0e 94 e8 3b 	call	0x77d0	; 0x77d0 <__umulhisi3>
    69e4:	92 95       	swap	r25
    69e6:	82 95       	swap	r24
    69e8:	8f 70       	andi	r24, 0x0F	; 15
    69ea:	89 27       	eor	r24, r25
    69ec:	9f 70       	andi	r25, 0x0F	; 15
    69ee:	89 27       	eor	r24, r25
    69f0:	68 ee       	ldi	r22, 0xE8	; 232
    69f2:	73 e0       	ldi	r23, 0x03	; 3
    69f4:	86 9f       	mul	r24, r22
    69f6:	90 01       	movw	r18, r0
    69f8:	87 9f       	mul	r24, r23
    69fa:	30 0d       	add	r19, r0
    69fc:	96 9f       	mul	r25, r22
    69fe:	30 0d       	add	r19, r0
    6a00:	11 24       	eor	r1, r1
    6a02:	ca 01       	movw	r24, r20
    6a04:	82 1b       	sub	r24, r18
    6a06:	93 0b       	sbc	r25, r19
    6a08:	9c 01       	movw	r18, r24
    6a0a:	36 95       	lsr	r19
    6a0c:	27 95       	ror	r18
    6a0e:	36 95       	lsr	r19
    6a10:	27 95       	ror	r18
    6a12:	ab e7       	ldi	r26, 0x7B	; 123
    6a14:	b4 e1       	ldi	r27, 0x14	; 20
    6a16:	0e 94 e8 3b 	call	0x77d0	; 0x77d0 <__umulhisi3>
    6a1a:	96 95       	lsr	r25
    6a1c:	87 95       	ror	r24
    6a1e:	dc 01       	movw	r26, r24
    6a20:	a5 5a       	subi	r26, 0xA5	; 165
    6a22:	be 4b       	sbci	r27, 0xBE	; 190
    6a24:	8c 91       	ld	r24, X
    6a26:	85 83       	std	Z+5, r24	; 0x05
				DIGIT[1][0] = fnd_tbl[ZB_id % 100 / 10];
    6a28:	9a 01       	movw	r18, r20
    6a2a:	36 95       	lsr	r19
    6a2c:	27 95       	ror	r18
    6a2e:	36 95       	lsr	r19
    6a30:	27 95       	ror	r18
    6a32:	ab e7       	ldi	r26, 0x7B	; 123
    6a34:	b4 e1       	ldi	r27, 0x14	; 20
    6a36:	0e 94 e8 3b 	call	0x77d0	; 0x77d0 <__umulhisi3>
    6a3a:	9c 01       	movw	r18, r24
    6a3c:	36 95       	lsr	r19
    6a3e:	27 95       	ror	r18
    6a40:	64 e6       	ldi	r22, 0x64	; 100
    6a42:	62 9f       	mul	r22, r18
    6a44:	c0 01       	movw	r24, r0
    6a46:	63 9f       	mul	r22, r19
    6a48:	90 0d       	add	r25, r0
    6a4a:	11 24       	eor	r1, r1
    6a4c:	9a 01       	movw	r18, r20
    6a4e:	28 1b       	sub	r18, r24
    6a50:	39 0b       	sbc	r19, r25
    6a52:	ad ec       	ldi	r26, 0xCD	; 205
    6a54:	bc ec       	ldi	r27, 0xCC	; 204
    6a56:	0e 94 e8 3b 	call	0x77d0	; 0x77d0 <__umulhisi3>
    6a5a:	96 95       	lsr	r25
    6a5c:	87 95       	ror	r24
    6a5e:	96 95       	lsr	r25
    6a60:	87 95       	ror	r24
    6a62:	96 95       	lsr	r25
    6a64:	87 95       	ror	r24
    6a66:	dc 01       	movw	r26, r24
    6a68:	a5 5a       	subi	r26, 0xA5	; 165
    6a6a:	be 4b       	sbci	r27, 0xBE	; 190
    6a6c:	8c 91       	ld	r24, X
    6a6e:	84 83       	std	Z+4, r24	; 0x04

				DIGIT[2][3] = fnd_tbl[ZB_id % 10];		// FND 1 ҝЎ ZigBee PanID 1АЗ АЪё® ЗҘҪГ
    6a70:	9a 01       	movw	r18, r20
    6a72:	ad ec       	ldi	r26, 0xCD	; 205
    6a74:	bc ec       	ldi	r27, 0xCC	; 204
    6a76:	0e 94 e8 3b 	call	0x77d0	; 0x77d0 <__umulhisi3>
    6a7a:	96 95       	lsr	r25
    6a7c:	87 95       	ror	r24
    6a7e:	96 95       	lsr	r25
    6a80:	87 95       	ror	r24
    6a82:	96 95       	lsr	r25
    6a84:	87 95       	ror	r24
    6a86:	9c 01       	movw	r18, r24
    6a88:	22 0f       	add	r18, r18
    6a8a:	33 1f       	adc	r19, r19
    6a8c:	88 0f       	add	r24, r24
    6a8e:	99 1f       	adc	r25, r25
    6a90:	88 0f       	add	r24, r24
    6a92:	99 1f       	adc	r25, r25
    6a94:	88 0f       	add	r24, r24
    6a96:	99 1f       	adc	r25, r25
    6a98:	82 0f       	add	r24, r18
    6a9a:	93 1f       	adc	r25, r19
    6a9c:	9a 01       	movw	r18, r20
    6a9e:	28 1b       	sub	r18, r24
    6aa0:	39 0b       	sbc	r19, r25
    6aa2:	d9 01       	movw	r26, r18
    6aa4:	a5 5a       	subi	r26, 0xA5	; 165
    6aa6:	be 4b       	sbci	r27, 0xBE	; 190
    6aa8:	8c 91       	ld	r24, X
    6aaa:	83 87       	std	Z+11, r24	; 0x0b
				DIGIT[2][2] = FND_OFF;
    6aac:	12 86       	std	Z+10, r1	; 0x0a
				DIGIT[2][1] = FND_OFF;
    6aae:	11 86       	std	Z+9, r1	; 0x09

				if(SET.Select) {ZigBee_PanID_Write();}		// ZigBee PanID јіБӨ
    6ab0:	80 91 29 51 	lds	r24, 0x5129	; 0x805129 <SET+0x1>
    6ab4:	88 23       	and	r24, r24
    6ab6:	31 f0       	breq	.+12     	; 0x6ac4 <ZigBee_Set+0x2ae>
    6ab8:	0e 94 b9 2e 	call	0x5d72	; 0x5d72 <ZigBee_PanID_Write>
    6abc:	03 c0       	rjmp	.+6      	; 0x6ac4 <ZigBee_Set+0x2ae>
			break;

			case 3:							// Count = 3 АМёй
				Count = 1;					// №Эә№А» А§ЗШ CountёҰ ГЦАъ·О °ЁјТ ҪГЕҙ
    6abe:	c1 e0       	ldi	r28, 0x01	; 1
			break;
    6ac0:	01 c0       	rjmp	.+2      	; 0x6ac4 <ZigBee_Set+0x2ae>
		DIGIT[2][0] = fnd_tbl[Count];					// FND 2.0 ҝЎ Count ЗҘҪГ

		switch(Count)							// Count
		{
			case 0:							// Count = 0 АМёй
				Count = 2;					// №Эә№А» А§ЗШ CountёҰ ГЦ°н·О Бх°Ў ҪГЕҙ
    6ac2:	c2 e0       	ldi	r28, 0x02	; 2

			case 3:							// Count = 3 АМёй
				Count = 1;					// №Эә№А» А§ЗШ CountёҰ ГЦАъ·О °ЁјТ ҪГЕҙ
			break;
		}
		wdt_reset();							// ҝцДЎө¶ ё®јВ
    6ac4:	0e 94 8c 0e 	call	0x1d18	; 0x1d18 <wdt_reset>
	uint8_t Count = 1;							// Д«ҝоЖ® әҜјц ГКұвИӯ
	SET.Select = 0;								// Select №цЖ° ГКұвИӯ
	FND_Value_Data(0, 2, 12);						// FND 0 ~ 2 FND_OFF
	ZigBee_Read();								// ZigBee јіБӨ°Ә АРұв
//-------------------------------------------------------------------------------------------------
	while(SET.Menu)								// ёЮҙә°Ў 1 АМёй №Эә№
    6ac8:	80 91 28 51 	lds	r24, 0x5128	; 0x805128 <SET>
    6acc:	81 11       	cpse	r24, r1
    6ace:	b3 ce       	rjmp	.-666    	; 0x6836 <ZigBee_Set+0x20>
				Count = 1;					// №Эә№А» А§ЗШ CountёҰ ГЦАъ·О °ЁјТ ҪГЕҙ
			break;
		}
		wdt_reset();							// ҝцДЎө¶ ё®јВ
	}
}
    6ad0:	cf 91       	pop	r28
    6ad2:	1f 91       	pop	r17
    6ad4:	0f 91       	pop	r16
    6ad6:	ff 90       	pop	r15
    6ad8:	ef 90       	pop	r14
    6ada:	08 95       	ret

00006adc <__subsf3>:
    6adc:	50 58       	subi	r21, 0x80	; 128

00006ade <__addsf3>:
    6ade:	bb 27       	eor	r27, r27
    6ae0:	aa 27       	eor	r26, r26
    6ae2:	0e 94 86 35 	call	0x6b0c	; 0x6b0c <__addsf3x>
    6ae6:	0c 94 3e 37 	jmp	0x6e7c	; 0x6e7c <__fp_round>
    6aea:	0e 94 30 37 	call	0x6e60	; 0x6e60 <__fp_pscA>
    6aee:	38 f0       	brcs	.+14     	; 0x6afe <__addsf3+0x20>
    6af0:	0e 94 37 37 	call	0x6e6e	; 0x6e6e <__fp_pscB>
    6af4:	20 f0       	brcs	.+8      	; 0x6afe <__addsf3+0x20>
    6af6:	39 f4       	brne	.+14     	; 0x6b06 <__addsf3+0x28>
    6af8:	9f 3f       	cpi	r25, 0xFF	; 255
    6afa:	19 f4       	brne	.+6      	; 0x6b02 <__addsf3+0x24>
    6afc:	26 f4       	brtc	.+8      	; 0x6b06 <__addsf3+0x28>
    6afe:	0c 94 2d 37 	jmp	0x6e5a	; 0x6e5a <__fp_nan>
    6b02:	0e f4       	brtc	.+2      	; 0x6b06 <__addsf3+0x28>
    6b04:	e0 95       	com	r30
    6b06:	e7 fb       	bst	r30, 7
    6b08:	0c 94 27 37 	jmp	0x6e4e	; 0x6e4e <__fp_inf>

00006b0c <__addsf3x>:
    6b0c:	e9 2f       	mov	r30, r25
    6b0e:	0e 94 4f 37 	call	0x6e9e	; 0x6e9e <__fp_split3>
    6b12:	58 f3       	brcs	.-42     	; 0x6aea <__addsf3+0xc>
    6b14:	ba 17       	cp	r27, r26
    6b16:	62 07       	cpc	r22, r18
    6b18:	73 07       	cpc	r23, r19
    6b1a:	84 07       	cpc	r24, r20
    6b1c:	95 07       	cpc	r25, r21
    6b1e:	20 f0       	brcs	.+8      	; 0x6b28 <__addsf3x+0x1c>
    6b20:	79 f4       	brne	.+30     	; 0x6b40 <__addsf3x+0x34>
    6b22:	a6 f5       	brtc	.+104    	; 0x6b8c <__addsf3x+0x80>
    6b24:	0c 94 71 37 	jmp	0x6ee2	; 0x6ee2 <__fp_zero>
    6b28:	0e f4       	brtc	.+2      	; 0x6b2c <__addsf3x+0x20>
    6b2a:	e0 95       	com	r30
    6b2c:	0b 2e       	mov	r0, r27
    6b2e:	ba 2f       	mov	r27, r26
    6b30:	a0 2d       	mov	r26, r0
    6b32:	0b 01       	movw	r0, r22
    6b34:	b9 01       	movw	r22, r18
    6b36:	90 01       	movw	r18, r0
    6b38:	0c 01       	movw	r0, r24
    6b3a:	ca 01       	movw	r24, r20
    6b3c:	a0 01       	movw	r20, r0
    6b3e:	11 24       	eor	r1, r1
    6b40:	ff 27       	eor	r31, r31
    6b42:	59 1b       	sub	r21, r25
    6b44:	99 f0       	breq	.+38     	; 0x6b6c <__addsf3x+0x60>
    6b46:	59 3f       	cpi	r21, 0xF9	; 249
    6b48:	50 f4       	brcc	.+20     	; 0x6b5e <__addsf3x+0x52>
    6b4a:	50 3e       	cpi	r21, 0xE0	; 224
    6b4c:	68 f1       	brcs	.+90     	; 0x6ba8 <__addsf3x+0x9c>
    6b4e:	1a 16       	cp	r1, r26
    6b50:	f0 40       	sbci	r31, 0x00	; 0
    6b52:	a2 2f       	mov	r26, r18
    6b54:	23 2f       	mov	r18, r19
    6b56:	34 2f       	mov	r19, r20
    6b58:	44 27       	eor	r20, r20
    6b5a:	58 5f       	subi	r21, 0xF8	; 248
    6b5c:	f3 cf       	rjmp	.-26     	; 0x6b44 <__addsf3x+0x38>
    6b5e:	46 95       	lsr	r20
    6b60:	37 95       	ror	r19
    6b62:	27 95       	ror	r18
    6b64:	a7 95       	ror	r26
    6b66:	f0 40       	sbci	r31, 0x00	; 0
    6b68:	53 95       	inc	r21
    6b6a:	c9 f7       	brne	.-14     	; 0x6b5e <__addsf3x+0x52>
    6b6c:	7e f4       	brtc	.+30     	; 0x6b8c <__addsf3x+0x80>
    6b6e:	1f 16       	cp	r1, r31
    6b70:	ba 0b       	sbc	r27, r26
    6b72:	62 0b       	sbc	r22, r18
    6b74:	73 0b       	sbc	r23, r19
    6b76:	84 0b       	sbc	r24, r20
    6b78:	ba f0       	brmi	.+46     	; 0x6ba8 <__addsf3x+0x9c>
    6b7a:	91 50       	subi	r25, 0x01	; 1
    6b7c:	a1 f0       	breq	.+40     	; 0x6ba6 <__addsf3x+0x9a>
    6b7e:	ff 0f       	add	r31, r31
    6b80:	bb 1f       	adc	r27, r27
    6b82:	66 1f       	adc	r22, r22
    6b84:	77 1f       	adc	r23, r23
    6b86:	88 1f       	adc	r24, r24
    6b88:	c2 f7       	brpl	.-16     	; 0x6b7a <__addsf3x+0x6e>
    6b8a:	0e c0       	rjmp	.+28     	; 0x6ba8 <__addsf3x+0x9c>
    6b8c:	ba 0f       	add	r27, r26
    6b8e:	62 1f       	adc	r22, r18
    6b90:	73 1f       	adc	r23, r19
    6b92:	84 1f       	adc	r24, r20
    6b94:	48 f4       	brcc	.+18     	; 0x6ba8 <__addsf3x+0x9c>
    6b96:	87 95       	ror	r24
    6b98:	77 95       	ror	r23
    6b9a:	67 95       	ror	r22
    6b9c:	b7 95       	ror	r27
    6b9e:	f7 95       	ror	r31
    6ba0:	9e 3f       	cpi	r25, 0xFE	; 254
    6ba2:	08 f0       	brcs	.+2      	; 0x6ba6 <__addsf3x+0x9a>
    6ba4:	b0 cf       	rjmp	.-160    	; 0x6b06 <__addsf3+0x28>
    6ba6:	93 95       	inc	r25
    6ba8:	88 0f       	add	r24, r24
    6baa:	08 f0       	brcs	.+2      	; 0x6bae <__addsf3x+0xa2>
    6bac:	99 27       	eor	r25, r25
    6bae:	ee 0f       	add	r30, r30
    6bb0:	97 95       	ror	r25
    6bb2:	87 95       	ror	r24
    6bb4:	08 95       	ret

00006bb6 <__cmpsf2>:
    6bb6:	0e 94 03 37 	call	0x6e06	; 0x6e06 <__fp_cmp>
    6bba:	08 f4       	brcc	.+2      	; 0x6bbe <__cmpsf2+0x8>
    6bbc:	81 e0       	ldi	r24, 0x01	; 1
    6bbe:	08 95       	ret

00006bc0 <__divsf3>:
    6bc0:	0e 94 f4 35 	call	0x6be8	; 0x6be8 <__divsf3x>
    6bc4:	0c 94 3e 37 	jmp	0x6e7c	; 0x6e7c <__fp_round>
    6bc8:	0e 94 37 37 	call	0x6e6e	; 0x6e6e <__fp_pscB>
    6bcc:	58 f0       	brcs	.+22     	; 0x6be4 <__divsf3+0x24>
    6bce:	0e 94 30 37 	call	0x6e60	; 0x6e60 <__fp_pscA>
    6bd2:	40 f0       	brcs	.+16     	; 0x6be4 <__divsf3+0x24>
    6bd4:	29 f4       	brne	.+10     	; 0x6be0 <__divsf3+0x20>
    6bd6:	5f 3f       	cpi	r21, 0xFF	; 255
    6bd8:	29 f0       	breq	.+10     	; 0x6be4 <__divsf3+0x24>
    6bda:	0c 94 27 37 	jmp	0x6e4e	; 0x6e4e <__fp_inf>
    6bde:	51 11       	cpse	r21, r1
    6be0:	0c 94 72 37 	jmp	0x6ee4	; 0x6ee4 <__fp_szero>
    6be4:	0c 94 2d 37 	jmp	0x6e5a	; 0x6e5a <__fp_nan>

00006be8 <__divsf3x>:
    6be8:	0e 94 4f 37 	call	0x6e9e	; 0x6e9e <__fp_split3>
    6bec:	68 f3       	brcs	.-38     	; 0x6bc8 <__divsf3+0x8>

00006bee <__divsf3_pse>:
    6bee:	99 23       	and	r25, r25
    6bf0:	b1 f3       	breq	.-20     	; 0x6bde <__divsf3+0x1e>
    6bf2:	55 23       	and	r21, r21
    6bf4:	91 f3       	breq	.-28     	; 0x6bda <__divsf3+0x1a>
    6bf6:	95 1b       	sub	r25, r21
    6bf8:	55 0b       	sbc	r21, r21
    6bfa:	bb 27       	eor	r27, r27
    6bfc:	aa 27       	eor	r26, r26
    6bfe:	62 17       	cp	r22, r18
    6c00:	73 07       	cpc	r23, r19
    6c02:	84 07       	cpc	r24, r20
    6c04:	38 f0       	brcs	.+14     	; 0x6c14 <__divsf3_pse+0x26>
    6c06:	9f 5f       	subi	r25, 0xFF	; 255
    6c08:	5f 4f       	sbci	r21, 0xFF	; 255
    6c0a:	22 0f       	add	r18, r18
    6c0c:	33 1f       	adc	r19, r19
    6c0e:	44 1f       	adc	r20, r20
    6c10:	aa 1f       	adc	r26, r26
    6c12:	a9 f3       	breq	.-22     	; 0x6bfe <__divsf3_pse+0x10>
    6c14:	35 d0       	rcall	.+106    	; 0x6c80 <__divsf3_pse+0x92>
    6c16:	0e 2e       	mov	r0, r30
    6c18:	3a f0       	brmi	.+14     	; 0x6c28 <__divsf3_pse+0x3a>
    6c1a:	e0 e8       	ldi	r30, 0x80	; 128
    6c1c:	32 d0       	rcall	.+100    	; 0x6c82 <__divsf3_pse+0x94>
    6c1e:	91 50       	subi	r25, 0x01	; 1
    6c20:	50 40       	sbci	r21, 0x00	; 0
    6c22:	e6 95       	lsr	r30
    6c24:	00 1c       	adc	r0, r0
    6c26:	ca f7       	brpl	.-14     	; 0x6c1a <__divsf3_pse+0x2c>
    6c28:	2b d0       	rcall	.+86     	; 0x6c80 <__divsf3_pse+0x92>
    6c2a:	fe 2f       	mov	r31, r30
    6c2c:	29 d0       	rcall	.+82     	; 0x6c80 <__divsf3_pse+0x92>
    6c2e:	66 0f       	add	r22, r22
    6c30:	77 1f       	adc	r23, r23
    6c32:	88 1f       	adc	r24, r24
    6c34:	bb 1f       	adc	r27, r27
    6c36:	26 17       	cp	r18, r22
    6c38:	37 07       	cpc	r19, r23
    6c3a:	48 07       	cpc	r20, r24
    6c3c:	ab 07       	cpc	r26, r27
    6c3e:	b0 e8       	ldi	r27, 0x80	; 128
    6c40:	09 f0       	breq	.+2      	; 0x6c44 <__divsf3_pse+0x56>
    6c42:	bb 0b       	sbc	r27, r27
    6c44:	80 2d       	mov	r24, r0
    6c46:	bf 01       	movw	r22, r30
    6c48:	ff 27       	eor	r31, r31
    6c4a:	93 58       	subi	r25, 0x83	; 131
    6c4c:	5f 4f       	sbci	r21, 0xFF	; 255
    6c4e:	3a f0       	brmi	.+14     	; 0x6c5e <__divsf3_pse+0x70>
    6c50:	9e 3f       	cpi	r25, 0xFE	; 254
    6c52:	51 05       	cpc	r21, r1
    6c54:	78 f0       	brcs	.+30     	; 0x6c74 <__divsf3_pse+0x86>
    6c56:	0c 94 27 37 	jmp	0x6e4e	; 0x6e4e <__fp_inf>
    6c5a:	0c 94 72 37 	jmp	0x6ee4	; 0x6ee4 <__fp_szero>
    6c5e:	5f 3f       	cpi	r21, 0xFF	; 255
    6c60:	e4 f3       	brlt	.-8      	; 0x6c5a <__divsf3_pse+0x6c>
    6c62:	98 3e       	cpi	r25, 0xE8	; 232
    6c64:	d4 f3       	brlt	.-12     	; 0x6c5a <__divsf3_pse+0x6c>
    6c66:	86 95       	lsr	r24
    6c68:	77 95       	ror	r23
    6c6a:	67 95       	ror	r22
    6c6c:	b7 95       	ror	r27
    6c6e:	f7 95       	ror	r31
    6c70:	9f 5f       	subi	r25, 0xFF	; 255
    6c72:	c9 f7       	brne	.-14     	; 0x6c66 <__divsf3_pse+0x78>
    6c74:	88 0f       	add	r24, r24
    6c76:	91 1d       	adc	r25, r1
    6c78:	96 95       	lsr	r25
    6c7a:	87 95       	ror	r24
    6c7c:	97 f9       	bld	r25, 7
    6c7e:	08 95       	ret
    6c80:	e1 e0       	ldi	r30, 0x01	; 1
    6c82:	66 0f       	add	r22, r22
    6c84:	77 1f       	adc	r23, r23
    6c86:	88 1f       	adc	r24, r24
    6c88:	bb 1f       	adc	r27, r27
    6c8a:	62 17       	cp	r22, r18
    6c8c:	73 07       	cpc	r23, r19
    6c8e:	84 07       	cpc	r24, r20
    6c90:	ba 07       	cpc	r27, r26
    6c92:	20 f0       	brcs	.+8      	; 0x6c9c <__divsf3_pse+0xae>
    6c94:	62 1b       	sub	r22, r18
    6c96:	73 0b       	sbc	r23, r19
    6c98:	84 0b       	sbc	r24, r20
    6c9a:	ba 0b       	sbc	r27, r26
    6c9c:	ee 1f       	adc	r30, r30
    6c9e:	88 f7       	brcc	.-30     	; 0x6c82 <__divsf3_pse+0x94>
    6ca0:	e0 95       	com	r30
    6ca2:	08 95       	ret

00006ca4 <__fixsfsi>:
    6ca4:	0e 94 59 36 	call	0x6cb2	; 0x6cb2 <__fixunssfsi>
    6ca8:	68 94       	set
    6caa:	b1 11       	cpse	r27, r1
    6cac:	0c 94 72 37 	jmp	0x6ee4	; 0x6ee4 <__fp_szero>
    6cb0:	08 95       	ret

00006cb2 <__fixunssfsi>:
    6cb2:	0e 94 57 37 	call	0x6eae	; 0x6eae <__fp_splitA>
    6cb6:	88 f0       	brcs	.+34     	; 0x6cda <__fixunssfsi+0x28>
    6cb8:	9f 57       	subi	r25, 0x7F	; 127
    6cba:	98 f0       	brcs	.+38     	; 0x6ce2 <__fixunssfsi+0x30>
    6cbc:	b9 2f       	mov	r27, r25
    6cbe:	99 27       	eor	r25, r25
    6cc0:	b7 51       	subi	r27, 0x17	; 23
    6cc2:	b0 f0       	brcs	.+44     	; 0x6cf0 <__fixunssfsi+0x3e>
    6cc4:	e1 f0       	breq	.+56     	; 0x6cfe <__fixunssfsi+0x4c>
    6cc6:	66 0f       	add	r22, r22
    6cc8:	77 1f       	adc	r23, r23
    6cca:	88 1f       	adc	r24, r24
    6ccc:	99 1f       	adc	r25, r25
    6cce:	1a f0       	brmi	.+6      	; 0x6cd6 <__fixunssfsi+0x24>
    6cd0:	ba 95       	dec	r27
    6cd2:	c9 f7       	brne	.-14     	; 0x6cc6 <__fixunssfsi+0x14>
    6cd4:	14 c0       	rjmp	.+40     	; 0x6cfe <__fixunssfsi+0x4c>
    6cd6:	b1 30       	cpi	r27, 0x01	; 1
    6cd8:	91 f0       	breq	.+36     	; 0x6cfe <__fixunssfsi+0x4c>
    6cda:	0e 94 71 37 	call	0x6ee2	; 0x6ee2 <__fp_zero>
    6cde:	b1 e0       	ldi	r27, 0x01	; 1
    6ce0:	08 95       	ret
    6ce2:	0c 94 71 37 	jmp	0x6ee2	; 0x6ee2 <__fp_zero>
    6ce6:	67 2f       	mov	r22, r23
    6ce8:	78 2f       	mov	r23, r24
    6cea:	88 27       	eor	r24, r24
    6cec:	b8 5f       	subi	r27, 0xF8	; 248
    6cee:	39 f0       	breq	.+14     	; 0x6cfe <__fixunssfsi+0x4c>
    6cf0:	b9 3f       	cpi	r27, 0xF9	; 249
    6cf2:	cc f3       	brlt	.-14     	; 0x6ce6 <__fixunssfsi+0x34>
    6cf4:	86 95       	lsr	r24
    6cf6:	77 95       	ror	r23
    6cf8:	67 95       	ror	r22
    6cfa:	b3 95       	inc	r27
    6cfc:	d9 f7       	brne	.-10     	; 0x6cf4 <__fixunssfsi+0x42>
    6cfe:	3e f4       	brtc	.+14     	; 0x6d0e <__fixunssfsi+0x5c>
    6d00:	90 95       	com	r25
    6d02:	80 95       	com	r24
    6d04:	70 95       	com	r23
    6d06:	61 95       	neg	r22
    6d08:	7f 4f       	sbci	r23, 0xFF	; 255
    6d0a:	8f 4f       	sbci	r24, 0xFF	; 255
    6d0c:	9f 4f       	sbci	r25, 0xFF	; 255
    6d0e:	08 95       	ret

00006d10 <__floatunsisf>:
    6d10:	e8 94       	clt
    6d12:	09 c0       	rjmp	.+18     	; 0x6d26 <__floatsisf+0x12>

00006d14 <__floatsisf>:
    6d14:	97 fb       	bst	r25, 7
    6d16:	3e f4       	brtc	.+14     	; 0x6d26 <__floatsisf+0x12>
    6d18:	90 95       	com	r25
    6d1a:	80 95       	com	r24
    6d1c:	70 95       	com	r23
    6d1e:	61 95       	neg	r22
    6d20:	7f 4f       	sbci	r23, 0xFF	; 255
    6d22:	8f 4f       	sbci	r24, 0xFF	; 255
    6d24:	9f 4f       	sbci	r25, 0xFF	; 255
    6d26:	99 23       	and	r25, r25
    6d28:	a9 f0       	breq	.+42     	; 0x6d54 <__floatsisf+0x40>
    6d2a:	f9 2f       	mov	r31, r25
    6d2c:	96 e9       	ldi	r25, 0x96	; 150
    6d2e:	bb 27       	eor	r27, r27
    6d30:	93 95       	inc	r25
    6d32:	f6 95       	lsr	r31
    6d34:	87 95       	ror	r24
    6d36:	77 95       	ror	r23
    6d38:	67 95       	ror	r22
    6d3a:	b7 95       	ror	r27
    6d3c:	f1 11       	cpse	r31, r1
    6d3e:	f8 cf       	rjmp	.-16     	; 0x6d30 <__floatsisf+0x1c>
    6d40:	fa f4       	brpl	.+62     	; 0x6d80 <__floatsisf+0x6c>
    6d42:	bb 0f       	add	r27, r27
    6d44:	11 f4       	brne	.+4      	; 0x6d4a <__floatsisf+0x36>
    6d46:	60 ff       	sbrs	r22, 0
    6d48:	1b c0       	rjmp	.+54     	; 0x6d80 <__floatsisf+0x6c>
    6d4a:	6f 5f       	subi	r22, 0xFF	; 255
    6d4c:	7f 4f       	sbci	r23, 0xFF	; 255
    6d4e:	8f 4f       	sbci	r24, 0xFF	; 255
    6d50:	9f 4f       	sbci	r25, 0xFF	; 255
    6d52:	16 c0       	rjmp	.+44     	; 0x6d80 <__floatsisf+0x6c>
    6d54:	88 23       	and	r24, r24
    6d56:	11 f0       	breq	.+4      	; 0x6d5c <__floatsisf+0x48>
    6d58:	96 e9       	ldi	r25, 0x96	; 150
    6d5a:	11 c0       	rjmp	.+34     	; 0x6d7e <__floatsisf+0x6a>
    6d5c:	77 23       	and	r23, r23
    6d5e:	21 f0       	breq	.+8      	; 0x6d68 <__floatsisf+0x54>
    6d60:	9e e8       	ldi	r25, 0x8E	; 142
    6d62:	87 2f       	mov	r24, r23
    6d64:	76 2f       	mov	r23, r22
    6d66:	05 c0       	rjmp	.+10     	; 0x6d72 <__floatsisf+0x5e>
    6d68:	66 23       	and	r22, r22
    6d6a:	71 f0       	breq	.+28     	; 0x6d88 <__floatsisf+0x74>
    6d6c:	96 e8       	ldi	r25, 0x86	; 134
    6d6e:	86 2f       	mov	r24, r22
    6d70:	70 e0       	ldi	r23, 0x00	; 0
    6d72:	60 e0       	ldi	r22, 0x00	; 0
    6d74:	2a f0       	brmi	.+10     	; 0x6d80 <__floatsisf+0x6c>
    6d76:	9a 95       	dec	r25
    6d78:	66 0f       	add	r22, r22
    6d7a:	77 1f       	adc	r23, r23
    6d7c:	88 1f       	adc	r24, r24
    6d7e:	da f7       	brpl	.-10     	; 0x6d76 <__floatsisf+0x62>
    6d80:	88 0f       	add	r24, r24
    6d82:	96 95       	lsr	r25
    6d84:	87 95       	ror	r24
    6d86:	97 f9       	bld	r25, 7
    6d88:	08 95       	ret

00006d8a <__floatundisf>:
    6d8a:	e8 94       	clt

00006d8c <__fp_di2sf>:
    6d8c:	f9 2f       	mov	r31, r25
    6d8e:	96 eb       	ldi	r25, 0xB6	; 182
    6d90:	ff 23       	and	r31, r31
    6d92:	81 f0       	breq	.+32     	; 0x6db4 <__fp_di2sf+0x28>
    6d94:	12 16       	cp	r1, r18
    6d96:	13 06       	cpc	r1, r19
    6d98:	14 06       	cpc	r1, r20
    6d9a:	44 0b       	sbc	r20, r20
    6d9c:	93 95       	inc	r25
    6d9e:	f6 95       	lsr	r31
    6da0:	87 95       	ror	r24
    6da2:	77 95       	ror	r23
    6da4:	67 95       	ror	r22
    6da6:	57 95       	ror	r21
    6da8:	40 40       	sbci	r20, 0x00	; 0
    6daa:	ff 23       	and	r31, r31
    6dac:	b9 f7       	brne	.-18     	; 0x6d9c <__fp_di2sf+0x10>
    6dae:	1b c0       	rjmp	.+54     	; 0x6de6 <__fp_di2sf+0x5a>
    6db0:	99 27       	eor	r25, r25
    6db2:	08 95       	ret
    6db4:	88 23       	and	r24, r24
    6db6:	51 f4       	brne	.+20     	; 0x6dcc <__fp_di2sf+0x40>
    6db8:	98 50       	subi	r25, 0x08	; 8
    6dba:	d2 f7       	brpl	.-12     	; 0x6db0 <__fp_di2sf+0x24>
    6dbc:	87 2b       	or	r24, r23
    6dbe:	76 2f       	mov	r23, r22
    6dc0:	65 2f       	mov	r22, r21
    6dc2:	54 2f       	mov	r21, r20
    6dc4:	43 2f       	mov	r20, r19
    6dc6:	32 2f       	mov	r19, r18
    6dc8:	20 e0       	ldi	r18, 0x00	; 0
    6dca:	b1 f3       	breq	.-20     	; 0x6db8 <__fp_di2sf+0x2c>
    6dcc:	12 16       	cp	r1, r18
    6dce:	13 06       	cpc	r1, r19
    6dd0:	14 06       	cpc	r1, r20
    6dd2:	44 0b       	sbc	r20, r20
    6dd4:	88 23       	and	r24, r24
    6dd6:	3a f0       	brmi	.+14     	; 0x6de6 <__fp_di2sf+0x5a>
    6dd8:	9a 95       	dec	r25
    6dda:	44 0f       	add	r20, r20
    6ddc:	55 1f       	adc	r21, r21
    6dde:	66 1f       	adc	r22, r22
    6de0:	77 1f       	adc	r23, r23
    6de2:	88 1f       	adc	r24, r24
    6de4:	ca f7       	brpl	.-14     	; 0x6dd8 <__fp_di2sf+0x4c>
    6de6:	55 23       	and	r21, r21
    6de8:	4a f4       	brpl	.+18     	; 0x6dfc <__fp_di2sf+0x70>
    6dea:	44 0f       	add	r20, r20
    6dec:	55 1f       	adc	r21, r21
    6dee:	11 f4       	brne	.+4      	; 0x6df4 <__fp_di2sf+0x68>
    6df0:	60 ff       	sbrs	r22, 0
    6df2:	04 c0       	rjmp	.+8      	; 0x6dfc <__fp_di2sf+0x70>
    6df4:	6f 5f       	subi	r22, 0xFF	; 255
    6df6:	7f 4f       	sbci	r23, 0xFF	; 255
    6df8:	8f 4f       	sbci	r24, 0xFF	; 255
    6dfa:	9f 4f       	sbci	r25, 0xFF	; 255
    6dfc:	88 0f       	add	r24, r24
    6dfe:	96 95       	lsr	r25
    6e00:	87 95       	ror	r24
    6e02:	97 f9       	bld	r25, 7
    6e04:	08 95       	ret

00006e06 <__fp_cmp>:
    6e06:	99 0f       	add	r25, r25
    6e08:	00 08       	sbc	r0, r0
    6e0a:	55 0f       	add	r21, r21
    6e0c:	aa 0b       	sbc	r26, r26
    6e0e:	e0 e8       	ldi	r30, 0x80	; 128
    6e10:	fe ef       	ldi	r31, 0xFE	; 254
    6e12:	16 16       	cp	r1, r22
    6e14:	17 06       	cpc	r1, r23
    6e16:	e8 07       	cpc	r30, r24
    6e18:	f9 07       	cpc	r31, r25
    6e1a:	c0 f0       	brcs	.+48     	; 0x6e4c <__fp_cmp+0x46>
    6e1c:	12 16       	cp	r1, r18
    6e1e:	13 06       	cpc	r1, r19
    6e20:	e4 07       	cpc	r30, r20
    6e22:	f5 07       	cpc	r31, r21
    6e24:	98 f0       	brcs	.+38     	; 0x6e4c <__fp_cmp+0x46>
    6e26:	62 1b       	sub	r22, r18
    6e28:	73 0b       	sbc	r23, r19
    6e2a:	84 0b       	sbc	r24, r20
    6e2c:	95 0b       	sbc	r25, r21
    6e2e:	39 f4       	brne	.+14     	; 0x6e3e <__fp_cmp+0x38>
    6e30:	0a 26       	eor	r0, r26
    6e32:	61 f0       	breq	.+24     	; 0x6e4c <__fp_cmp+0x46>
    6e34:	23 2b       	or	r18, r19
    6e36:	24 2b       	or	r18, r20
    6e38:	25 2b       	or	r18, r21
    6e3a:	21 f4       	brne	.+8      	; 0x6e44 <__fp_cmp+0x3e>
    6e3c:	08 95       	ret
    6e3e:	0a 26       	eor	r0, r26
    6e40:	09 f4       	brne	.+2      	; 0x6e44 <__fp_cmp+0x3e>
    6e42:	a1 40       	sbci	r26, 0x01	; 1
    6e44:	a6 95       	lsr	r26
    6e46:	8f ef       	ldi	r24, 0xFF	; 255
    6e48:	81 1d       	adc	r24, r1
    6e4a:	81 1d       	adc	r24, r1
    6e4c:	08 95       	ret

00006e4e <__fp_inf>:
    6e4e:	97 f9       	bld	r25, 7
    6e50:	9f 67       	ori	r25, 0x7F	; 127
    6e52:	80 e8       	ldi	r24, 0x80	; 128
    6e54:	70 e0       	ldi	r23, 0x00	; 0
    6e56:	60 e0       	ldi	r22, 0x00	; 0
    6e58:	08 95       	ret

00006e5a <__fp_nan>:
    6e5a:	9f ef       	ldi	r25, 0xFF	; 255
    6e5c:	80 ec       	ldi	r24, 0xC0	; 192
    6e5e:	08 95       	ret

00006e60 <__fp_pscA>:
    6e60:	00 24       	eor	r0, r0
    6e62:	0a 94       	dec	r0
    6e64:	16 16       	cp	r1, r22
    6e66:	17 06       	cpc	r1, r23
    6e68:	18 06       	cpc	r1, r24
    6e6a:	09 06       	cpc	r0, r25
    6e6c:	08 95       	ret

00006e6e <__fp_pscB>:
    6e6e:	00 24       	eor	r0, r0
    6e70:	0a 94       	dec	r0
    6e72:	12 16       	cp	r1, r18
    6e74:	13 06       	cpc	r1, r19
    6e76:	14 06       	cpc	r1, r20
    6e78:	05 06       	cpc	r0, r21
    6e7a:	08 95       	ret

00006e7c <__fp_round>:
    6e7c:	09 2e       	mov	r0, r25
    6e7e:	03 94       	inc	r0
    6e80:	00 0c       	add	r0, r0
    6e82:	11 f4       	brne	.+4      	; 0x6e88 <__fp_round+0xc>
    6e84:	88 23       	and	r24, r24
    6e86:	52 f0       	brmi	.+20     	; 0x6e9c <__fp_round+0x20>
    6e88:	bb 0f       	add	r27, r27
    6e8a:	40 f4       	brcc	.+16     	; 0x6e9c <__fp_round+0x20>
    6e8c:	bf 2b       	or	r27, r31
    6e8e:	11 f4       	brne	.+4      	; 0x6e94 <__fp_round+0x18>
    6e90:	60 ff       	sbrs	r22, 0
    6e92:	04 c0       	rjmp	.+8      	; 0x6e9c <__fp_round+0x20>
    6e94:	6f 5f       	subi	r22, 0xFF	; 255
    6e96:	7f 4f       	sbci	r23, 0xFF	; 255
    6e98:	8f 4f       	sbci	r24, 0xFF	; 255
    6e9a:	9f 4f       	sbci	r25, 0xFF	; 255
    6e9c:	08 95       	ret

00006e9e <__fp_split3>:
    6e9e:	57 fd       	sbrc	r21, 7
    6ea0:	90 58       	subi	r25, 0x80	; 128
    6ea2:	44 0f       	add	r20, r20
    6ea4:	55 1f       	adc	r21, r21
    6ea6:	59 f0       	breq	.+22     	; 0x6ebe <__fp_splitA+0x10>
    6ea8:	5f 3f       	cpi	r21, 0xFF	; 255
    6eaa:	71 f0       	breq	.+28     	; 0x6ec8 <__fp_splitA+0x1a>
    6eac:	47 95       	ror	r20

00006eae <__fp_splitA>:
    6eae:	88 0f       	add	r24, r24
    6eb0:	97 fb       	bst	r25, 7
    6eb2:	99 1f       	adc	r25, r25
    6eb4:	61 f0       	breq	.+24     	; 0x6ece <__fp_splitA+0x20>
    6eb6:	9f 3f       	cpi	r25, 0xFF	; 255
    6eb8:	79 f0       	breq	.+30     	; 0x6ed8 <__fp_splitA+0x2a>
    6eba:	87 95       	ror	r24
    6ebc:	08 95       	ret
    6ebe:	12 16       	cp	r1, r18
    6ec0:	13 06       	cpc	r1, r19
    6ec2:	14 06       	cpc	r1, r20
    6ec4:	55 1f       	adc	r21, r21
    6ec6:	f2 cf       	rjmp	.-28     	; 0x6eac <__fp_split3+0xe>
    6ec8:	46 95       	lsr	r20
    6eca:	f1 df       	rcall	.-30     	; 0x6eae <__fp_splitA>
    6ecc:	08 c0       	rjmp	.+16     	; 0x6ede <__fp_splitA+0x30>
    6ece:	16 16       	cp	r1, r22
    6ed0:	17 06       	cpc	r1, r23
    6ed2:	18 06       	cpc	r1, r24
    6ed4:	99 1f       	adc	r25, r25
    6ed6:	f1 cf       	rjmp	.-30     	; 0x6eba <__fp_splitA+0xc>
    6ed8:	86 95       	lsr	r24
    6eda:	71 05       	cpc	r23, r1
    6edc:	61 05       	cpc	r22, r1
    6ede:	08 94       	sec
    6ee0:	08 95       	ret

00006ee2 <__fp_zero>:
    6ee2:	e8 94       	clt

00006ee4 <__fp_szero>:
    6ee4:	bb 27       	eor	r27, r27
    6ee6:	66 27       	eor	r22, r22
    6ee8:	77 27       	eor	r23, r23
    6eea:	cb 01       	movw	r24, r22
    6eec:	97 f9       	bld	r25, 7
    6eee:	08 95       	ret

00006ef0 <__gesf2>:
    6ef0:	0e 94 03 37 	call	0x6e06	; 0x6e06 <__fp_cmp>
    6ef4:	08 f4       	brcc	.+2      	; 0x6ef8 <__gesf2+0x8>
    6ef6:	8f ef       	ldi	r24, 0xFF	; 255
    6ef8:	08 95       	ret

00006efa <__mulsf3>:
    6efa:	0e 94 90 37 	call	0x6f20	; 0x6f20 <__mulsf3x>
    6efe:	0c 94 3e 37 	jmp	0x6e7c	; 0x6e7c <__fp_round>
    6f02:	0e 94 30 37 	call	0x6e60	; 0x6e60 <__fp_pscA>
    6f06:	38 f0       	brcs	.+14     	; 0x6f16 <__mulsf3+0x1c>
    6f08:	0e 94 37 37 	call	0x6e6e	; 0x6e6e <__fp_pscB>
    6f0c:	20 f0       	brcs	.+8      	; 0x6f16 <__mulsf3+0x1c>
    6f0e:	95 23       	and	r25, r21
    6f10:	11 f0       	breq	.+4      	; 0x6f16 <__mulsf3+0x1c>
    6f12:	0c 94 27 37 	jmp	0x6e4e	; 0x6e4e <__fp_inf>
    6f16:	0c 94 2d 37 	jmp	0x6e5a	; 0x6e5a <__fp_nan>
    6f1a:	11 24       	eor	r1, r1
    6f1c:	0c 94 72 37 	jmp	0x6ee4	; 0x6ee4 <__fp_szero>

00006f20 <__mulsf3x>:
    6f20:	0e 94 4f 37 	call	0x6e9e	; 0x6e9e <__fp_split3>
    6f24:	70 f3       	brcs	.-36     	; 0x6f02 <__mulsf3+0x8>

00006f26 <__mulsf3_pse>:
    6f26:	95 9f       	mul	r25, r21
    6f28:	c1 f3       	breq	.-16     	; 0x6f1a <__mulsf3+0x20>
    6f2a:	95 0f       	add	r25, r21
    6f2c:	50 e0       	ldi	r21, 0x00	; 0
    6f2e:	55 1f       	adc	r21, r21
    6f30:	62 9f       	mul	r22, r18
    6f32:	f0 01       	movw	r30, r0
    6f34:	72 9f       	mul	r23, r18
    6f36:	bb 27       	eor	r27, r27
    6f38:	f0 0d       	add	r31, r0
    6f3a:	b1 1d       	adc	r27, r1
    6f3c:	63 9f       	mul	r22, r19
    6f3e:	aa 27       	eor	r26, r26
    6f40:	f0 0d       	add	r31, r0
    6f42:	b1 1d       	adc	r27, r1
    6f44:	aa 1f       	adc	r26, r26
    6f46:	64 9f       	mul	r22, r20
    6f48:	66 27       	eor	r22, r22
    6f4a:	b0 0d       	add	r27, r0
    6f4c:	a1 1d       	adc	r26, r1
    6f4e:	66 1f       	adc	r22, r22
    6f50:	82 9f       	mul	r24, r18
    6f52:	22 27       	eor	r18, r18
    6f54:	b0 0d       	add	r27, r0
    6f56:	a1 1d       	adc	r26, r1
    6f58:	62 1f       	adc	r22, r18
    6f5a:	73 9f       	mul	r23, r19
    6f5c:	b0 0d       	add	r27, r0
    6f5e:	a1 1d       	adc	r26, r1
    6f60:	62 1f       	adc	r22, r18
    6f62:	83 9f       	mul	r24, r19
    6f64:	a0 0d       	add	r26, r0
    6f66:	61 1d       	adc	r22, r1
    6f68:	22 1f       	adc	r18, r18
    6f6a:	74 9f       	mul	r23, r20
    6f6c:	33 27       	eor	r19, r19
    6f6e:	a0 0d       	add	r26, r0
    6f70:	61 1d       	adc	r22, r1
    6f72:	23 1f       	adc	r18, r19
    6f74:	84 9f       	mul	r24, r20
    6f76:	60 0d       	add	r22, r0
    6f78:	21 1d       	adc	r18, r1
    6f7a:	82 2f       	mov	r24, r18
    6f7c:	76 2f       	mov	r23, r22
    6f7e:	6a 2f       	mov	r22, r26
    6f80:	11 24       	eor	r1, r1
    6f82:	9f 57       	subi	r25, 0x7F	; 127
    6f84:	50 40       	sbci	r21, 0x00	; 0
    6f86:	9a f0       	brmi	.+38     	; 0x6fae <__mulsf3_pse+0x88>
    6f88:	f1 f0       	breq	.+60     	; 0x6fc6 <__mulsf3_pse+0xa0>
    6f8a:	88 23       	and	r24, r24
    6f8c:	4a f0       	brmi	.+18     	; 0x6fa0 <__mulsf3_pse+0x7a>
    6f8e:	ee 0f       	add	r30, r30
    6f90:	ff 1f       	adc	r31, r31
    6f92:	bb 1f       	adc	r27, r27
    6f94:	66 1f       	adc	r22, r22
    6f96:	77 1f       	adc	r23, r23
    6f98:	88 1f       	adc	r24, r24
    6f9a:	91 50       	subi	r25, 0x01	; 1
    6f9c:	50 40       	sbci	r21, 0x00	; 0
    6f9e:	a9 f7       	brne	.-22     	; 0x6f8a <__mulsf3_pse+0x64>
    6fa0:	9e 3f       	cpi	r25, 0xFE	; 254
    6fa2:	51 05       	cpc	r21, r1
    6fa4:	80 f0       	brcs	.+32     	; 0x6fc6 <__mulsf3_pse+0xa0>
    6fa6:	0c 94 27 37 	jmp	0x6e4e	; 0x6e4e <__fp_inf>
    6faa:	0c 94 72 37 	jmp	0x6ee4	; 0x6ee4 <__fp_szero>
    6fae:	5f 3f       	cpi	r21, 0xFF	; 255
    6fb0:	e4 f3       	brlt	.-8      	; 0x6faa <__mulsf3_pse+0x84>
    6fb2:	98 3e       	cpi	r25, 0xE8	; 232
    6fb4:	d4 f3       	brlt	.-12     	; 0x6faa <__mulsf3_pse+0x84>
    6fb6:	86 95       	lsr	r24
    6fb8:	77 95       	ror	r23
    6fba:	67 95       	ror	r22
    6fbc:	b7 95       	ror	r27
    6fbe:	f7 95       	ror	r31
    6fc0:	e7 95       	ror	r30
    6fc2:	9f 5f       	subi	r25, 0xFF	; 255
    6fc4:	c1 f7       	brne	.-16     	; 0x6fb6 <__mulsf3_pse+0x90>
    6fc6:	fe 2b       	or	r31, r30
    6fc8:	88 0f       	add	r24, r24
    6fca:	91 1d       	adc	r25, r1
    6fcc:	96 95       	lsr	r25
    6fce:	87 95       	ror	r24
    6fd0:	97 f9       	bld	r25, 7
    6fd2:	08 95       	ret

00006fd4 <vfprintf>:
    6fd4:	2f 92       	push	r2
    6fd6:	3f 92       	push	r3
    6fd8:	4f 92       	push	r4
    6fda:	5f 92       	push	r5
    6fdc:	6f 92       	push	r6
    6fde:	7f 92       	push	r7
    6fe0:	8f 92       	push	r8
    6fe2:	9f 92       	push	r9
    6fe4:	af 92       	push	r10
    6fe6:	bf 92       	push	r11
    6fe8:	cf 92       	push	r12
    6fea:	df 92       	push	r13
    6fec:	ef 92       	push	r14
    6fee:	ff 92       	push	r15
    6ff0:	0f 93       	push	r16
    6ff2:	1f 93       	push	r17
    6ff4:	cf 93       	push	r28
    6ff6:	df 93       	push	r29
    6ff8:	cd b7       	in	r28, 0x3d	; 61
    6ffa:	de b7       	in	r29, 0x3e	; 62
    6ffc:	60 97       	sbiw	r28, 0x10	; 16
    6ffe:	cd bf       	out	0x3d, r28	; 61
    7000:	de bf       	out	0x3e, r29	; 62
    7002:	7c 01       	movw	r14, r24
    7004:	1b 01       	movw	r2, r22
    7006:	6a 01       	movw	r12, r20
    7008:	fc 01       	movw	r30, r24
    700a:	16 82       	std	Z+6, r1	; 0x06
    700c:	17 82       	std	Z+7, r1	; 0x07
    700e:	83 81       	ldd	r24, Z+3	; 0x03
    7010:	81 ff       	sbrs	r24, 1
    7012:	44 c3       	rjmp	.+1672   	; 0x769c <vfprintf+0x6c8>
    7014:	9e 01       	movw	r18, r28
    7016:	2f 5f       	subi	r18, 0xFF	; 255
    7018:	3f 4f       	sbci	r19, 0xFF	; 255
    701a:	39 01       	movw	r6, r18
    701c:	f7 01       	movw	r30, r14
    701e:	93 81       	ldd	r25, Z+3	; 0x03
    7020:	f1 01       	movw	r30, r2
    7022:	93 fd       	sbrc	r25, 3
    7024:	85 91       	lpm	r24, Z+
    7026:	93 ff       	sbrs	r25, 3
    7028:	81 91       	ld	r24, Z+
    702a:	1f 01       	movw	r2, r30
    702c:	88 23       	and	r24, r24
    702e:	09 f4       	brne	.+2      	; 0x7032 <vfprintf+0x5e>
    7030:	31 c3       	rjmp	.+1634   	; 0x7694 <vfprintf+0x6c0>
    7032:	85 32       	cpi	r24, 0x25	; 37
    7034:	39 f4       	brne	.+14     	; 0x7044 <vfprintf+0x70>
    7036:	93 fd       	sbrc	r25, 3
    7038:	85 91       	lpm	r24, Z+
    703a:	93 ff       	sbrs	r25, 3
    703c:	81 91       	ld	r24, Z+
    703e:	1f 01       	movw	r2, r30
    7040:	85 32       	cpi	r24, 0x25	; 37
    7042:	39 f4       	brne	.+14     	; 0x7052 <vfprintf+0x7e>
    7044:	b7 01       	movw	r22, r14
    7046:	90 e0       	ldi	r25, 0x00	; 0
    7048:	0e 94 4a 3e 	call	0x7c94	; 0x7c94 <fputc>
    704c:	56 01       	movw	r10, r12
    704e:	65 01       	movw	r12, r10
    7050:	e5 cf       	rjmp	.-54     	; 0x701c <vfprintf+0x48>
    7052:	10 e0       	ldi	r17, 0x00	; 0
    7054:	51 2c       	mov	r5, r1
    7056:	91 2c       	mov	r9, r1
    7058:	ff e1       	ldi	r31, 0x1F	; 31
    705a:	f9 15       	cp	r31, r9
    705c:	d8 f0       	brcs	.+54     	; 0x7094 <vfprintf+0xc0>
    705e:	8b 32       	cpi	r24, 0x2B	; 43
    7060:	79 f0       	breq	.+30     	; 0x7080 <vfprintf+0xac>
    7062:	38 f4       	brcc	.+14     	; 0x7072 <vfprintf+0x9e>
    7064:	80 32       	cpi	r24, 0x20	; 32
    7066:	79 f0       	breq	.+30     	; 0x7086 <vfprintf+0xb2>
    7068:	83 32       	cpi	r24, 0x23	; 35
    706a:	a1 f4       	brne	.+40     	; 0x7094 <vfprintf+0xc0>
    706c:	f9 2d       	mov	r31, r9
    706e:	f0 61       	ori	r31, 0x10	; 16
    7070:	2e c0       	rjmp	.+92     	; 0x70ce <vfprintf+0xfa>
    7072:	8d 32       	cpi	r24, 0x2D	; 45
    7074:	61 f0       	breq	.+24     	; 0x708e <vfprintf+0xba>
    7076:	80 33       	cpi	r24, 0x30	; 48
    7078:	69 f4       	brne	.+26     	; 0x7094 <vfprintf+0xc0>
    707a:	29 2d       	mov	r18, r9
    707c:	21 60       	ori	r18, 0x01	; 1
    707e:	2d c0       	rjmp	.+90     	; 0x70da <vfprintf+0x106>
    7080:	39 2d       	mov	r19, r9
    7082:	32 60       	ori	r19, 0x02	; 2
    7084:	93 2e       	mov	r9, r19
    7086:	89 2d       	mov	r24, r9
    7088:	84 60       	ori	r24, 0x04	; 4
    708a:	98 2e       	mov	r9, r24
    708c:	2a c0       	rjmp	.+84     	; 0x70e2 <vfprintf+0x10e>
    708e:	e9 2d       	mov	r30, r9
    7090:	e8 60       	ori	r30, 0x08	; 8
    7092:	15 c0       	rjmp	.+42     	; 0x70be <vfprintf+0xea>
    7094:	97 fc       	sbrc	r9, 7
    7096:	2d c0       	rjmp	.+90     	; 0x70f2 <vfprintf+0x11e>
    7098:	20 ed       	ldi	r18, 0xD0	; 208
    709a:	28 0f       	add	r18, r24
    709c:	2a 30       	cpi	r18, 0x0A	; 10
    709e:	88 f4       	brcc	.+34     	; 0x70c2 <vfprintf+0xee>
    70a0:	96 fe       	sbrs	r9, 6
    70a2:	06 c0       	rjmp	.+12     	; 0x70b0 <vfprintf+0xdc>
    70a4:	3a e0       	ldi	r19, 0x0A	; 10
    70a6:	13 9f       	mul	r17, r19
    70a8:	20 0d       	add	r18, r0
    70aa:	11 24       	eor	r1, r1
    70ac:	12 2f       	mov	r17, r18
    70ae:	19 c0       	rjmp	.+50     	; 0x70e2 <vfprintf+0x10e>
    70b0:	8a e0       	ldi	r24, 0x0A	; 10
    70b2:	58 9e       	mul	r5, r24
    70b4:	20 0d       	add	r18, r0
    70b6:	11 24       	eor	r1, r1
    70b8:	52 2e       	mov	r5, r18
    70ba:	e9 2d       	mov	r30, r9
    70bc:	e0 62       	ori	r30, 0x20	; 32
    70be:	9e 2e       	mov	r9, r30
    70c0:	10 c0       	rjmp	.+32     	; 0x70e2 <vfprintf+0x10e>
    70c2:	8e 32       	cpi	r24, 0x2E	; 46
    70c4:	31 f4       	brne	.+12     	; 0x70d2 <vfprintf+0xfe>
    70c6:	96 fc       	sbrc	r9, 6
    70c8:	e5 c2       	rjmp	.+1482   	; 0x7694 <vfprintf+0x6c0>
    70ca:	f9 2d       	mov	r31, r9
    70cc:	f0 64       	ori	r31, 0x40	; 64
    70ce:	9f 2e       	mov	r9, r31
    70d0:	08 c0       	rjmp	.+16     	; 0x70e2 <vfprintf+0x10e>
    70d2:	8c 36       	cpi	r24, 0x6C	; 108
    70d4:	21 f4       	brne	.+8      	; 0x70de <vfprintf+0x10a>
    70d6:	29 2d       	mov	r18, r9
    70d8:	20 68       	ori	r18, 0x80	; 128
    70da:	92 2e       	mov	r9, r18
    70dc:	02 c0       	rjmp	.+4      	; 0x70e2 <vfprintf+0x10e>
    70de:	88 36       	cpi	r24, 0x68	; 104
    70e0:	41 f4       	brne	.+16     	; 0x70f2 <vfprintf+0x11e>
    70e2:	f1 01       	movw	r30, r2
    70e4:	93 fd       	sbrc	r25, 3
    70e6:	85 91       	lpm	r24, Z+
    70e8:	93 ff       	sbrs	r25, 3
    70ea:	81 91       	ld	r24, Z+
    70ec:	1f 01       	movw	r2, r30
    70ee:	81 11       	cpse	r24, r1
    70f0:	b3 cf       	rjmp	.-154    	; 0x7058 <vfprintf+0x84>
    70f2:	9b eb       	ldi	r25, 0xBB	; 187
    70f4:	98 0f       	add	r25, r24
    70f6:	93 30       	cpi	r25, 0x03	; 3
    70f8:	20 f4       	brcc	.+8      	; 0x7102 <vfprintf+0x12e>
    70fa:	99 2d       	mov	r25, r9
    70fc:	90 61       	ori	r25, 0x10	; 16
    70fe:	80 5e       	subi	r24, 0xE0	; 224
    7100:	07 c0       	rjmp	.+14     	; 0x7110 <vfprintf+0x13c>
    7102:	9b e9       	ldi	r25, 0x9B	; 155
    7104:	98 0f       	add	r25, r24
    7106:	93 30       	cpi	r25, 0x03	; 3
    7108:	08 f0       	brcs	.+2      	; 0x710c <vfprintf+0x138>
    710a:	66 c1       	rjmp	.+716    	; 0x73d8 <vfprintf+0x404>
    710c:	99 2d       	mov	r25, r9
    710e:	9f 7e       	andi	r25, 0xEF	; 239
    7110:	96 ff       	sbrs	r25, 6
    7112:	16 e0       	ldi	r17, 0x06	; 6
    7114:	9f 73       	andi	r25, 0x3F	; 63
    7116:	99 2e       	mov	r9, r25
    7118:	85 36       	cpi	r24, 0x65	; 101
    711a:	19 f4       	brne	.+6      	; 0x7122 <vfprintf+0x14e>
    711c:	90 64       	ori	r25, 0x40	; 64
    711e:	99 2e       	mov	r9, r25
    7120:	08 c0       	rjmp	.+16     	; 0x7132 <vfprintf+0x15e>
    7122:	86 36       	cpi	r24, 0x66	; 102
    7124:	21 f4       	brne	.+8      	; 0x712e <vfprintf+0x15a>
    7126:	39 2f       	mov	r19, r25
    7128:	30 68       	ori	r19, 0x80	; 128
    712a:	93 2e       	mov	r9, r19
    712c:	02 c0       	rjmp	.+4      	; 0x7132 <vfprintf+0x15e>
    712e:	11 11       	cpse	r17, r1
    7130:	11 50       	subi	r17, 0x01	; 1
    7132:	97 fe       	sbrs	r9, 7
    7134:	07 c0       	rjmp	.+14     	; 0x7144 <vfprintf+0x170>
    7136:	1c 33       	cpi	r17, 0x3C	; 60
    7138:	50 f4       	brcc	.+20     	; 0x714e <vfprintf+0x17a>
    713a:	44 24       	eor	r4, r4
    713c:	43 94       	inc	r4
    713e:	41 0e       	add	r4, r17
    7140:	27 e0       	ldi	r18, 0x07	; 7
    7142:	0b c0       	rjmp	.+22     	; 0x715a <vfprintf+0x186>
    7144:	18 30       	cpi	r17, 0x08	; 8
    7146:	38 f0       	brcs	.+14     	; 0x7156 <vfprintf+0x182>
    7148:	27 e0       	ldi	r18, 0x07	; 7
    714a:	17 e0       	ldi	r17, 0x07	; 7
    714c:	05 c0       	rjmp	.+10     	; 0x7158 <vfprintf+0x184>
    714e:	27 e0       	ldi	r18, 0x07	; 7
    7150:	9c e3       	ldi	r25, 0x3C	; 60
    7152:	49 2e       	mov	r4, r25
    7154:	02 c0       	rjmp	.+4      	; 0x715a <vfprintf+0x186>
    7156:	21 2f       	mov	r18, r17
    7158:	41 2c       	mov	r4, r1
    715a:	56 01       	movw	r10, r12
    715c:	84 e0       	ldi	r24, 0x04	; 4
    715e:	a8 0e       	add	r10, r24
    7160:	b1 1c       	adc	r11, r1
    7162:	f6 01       	movw	r30, r12
    7164:	60 81       	ld	r22, Z
    7166:	71 81       	ldd	r23, Z+1	; 0x01
    7168:	82 81       	ldd	r24, Z+2	; 0x02
    716a:	93 81       	ldd	r25, Z+3	; 0x03
    716c:	04 2d       	mov	r16, r4
    716e:	a3 01       	movw	r20, r6
    7170:	0e 94 11 3d 	call	0x7a22	; 0x7a22 <__ftoa_engine>
    7174:	6c 01       	movw	r12, r24
    7176:	f9 81       	ldd	r31, Y+1	; 0x01
    7178:	fc 87       	std	Y+12, r31	; 0x0c
    717a:	f0 ff       	sbrs	r31, 0
    717c:	02 c0       	rjmp	.+4      	; 0x7182 <vfprintf+0x1ae>
    717e:	f3 ff       	sbrs	r31, 3
    7180:	06 c0       	rjmp	.+12     	; 0x718e <vfprintf+0x1ba>
    7182:	91 fc       	sbrc	r9, 1
    7184:	06 c0       	rjmp	.+12     	; 0x7192 <vfprintf+0x1be>
    7186:	92 fe       	sbrs	r9, 2
    7188:	06 c0       	rjmp	.+12     	; 0x7196 <vfprintf+0x1c2>
    718a:	00 e2       	ldi	r16, 0x20	; 32
    718c:	05 c0       	rjmp	.+10     	; 0x7198 <vfprintf+0x1c4>
    718e:	0d e2       	ldi	r16, 0x2D	; 45
    7190:	03 c0       	rjmp	.+6      	; 0x7198 <vfprintf+0x1c4>
    7192:	0b e2       	ldi	r16, 0x2B	; 43
    7194:	01 c0       	rjmp	.+2      	; 0x7198 <vfprintf+0x1c4>
    7196:	00 e0       	ldi	r16, 0x00	; 0
    7198:	8c 85       	ldd	r24, Y+12	; 0x0c
    719a:	8c 70       	andi	r24, 0x0C	; 12
    719c:	19 f0       	breq	.+6      	; 0x71a4 <vfprintf+0x1d0>
    719e:	01 11       	cpse	r16, r1
    71a0:	5a c2       	rjmp	.+1204   	; 0x7656 <vfprintf+0x682>
    71a2:	9b c2       	rjmp	.+1334   	; 0x76da <vfprintf+0x706>
    71a4:	97 fe       	sbrs	r9, 7
    71a6:	10 c0       	rjmp	.+32     	; 0x71c8 <vfprintf+0x1f4>
    71a8:	4c 0c       	add	r4, r12
    71aa:	fc 85       	ldd	r31, Y+12	; 0x0c
    71ac:	f4 ff       	sbrs	r31, 4
    71ae:	04 c0       	rjmp	.+8      	; 0x71b8 <vfprintf+0x1e4>
    71b0:	8a 81       	ldd	r24, Y+2	; 0x02
    71b2:	81 33       	cpi	r24, 0x31	; 49
    71b4:	09 f4       	brne	.+2      	; 0x71b8 <vfprintf+0x1e4>
    71b6:	4a 94       	dec	r4
    71b8:	14 14       	cp	r1, r4
    71ba:	74 f5       	brge	.+92     	; 0x7218 <vfprintf+0x244>
    71bc:	28 e0       	ldi	r18, 0x08	; 8
    71be:	24 15       	cp	r18, r4
    71c0:	78 f5       	brcc	.+94     	; 0x7220 <vfprintf+0x24c>
    71c2:	88 e0       	ldi	r24, 0x08	; 8
    71c4:	48 2e       	mov	r4, r24
    71c6:	2c c0       	rjmp	.+88     	; 0x7220 <vfprintf+0x24c>
    71c8:	96 fc       	sbrc	r9, 6
    71ca:	2a c0       	rjmp	.+84     	; 0x7220 <vfprintf+0x24c>
    71cc:	81 2f       	mov	r24, r17
    71ce:	90 e0       	ldi	r25, 0x00	; 0
    71d0:	8c 15       	cp	r24, r12
    71d2:	9d 05       	cpc	r25, r13
    71d4:	9c f0       	brlt	.+38     	; 0x71fc <vfprintf+0x228>
    71d6:	3c ef       	ldi	r19, 0xFC	; 252
    71d8:	c3 16       	cp	r12, r19
    71da:	3f ef       	ldi	r19, 0xFF	; 255
    71dc:	d3 06       	cpc	r13, r19
    71de:	74 f0       	brlt	.+28     	; 0x71fc <vfprintf+0x228>
    71e0:	89 2d       	mov	r24, r9
    71e2:	80 68       	ori	r24, 0x80	; 128
    71e4:	98 2e       	mov	r9, r24
    71e6:	0a c0       	rjmp	.+20     	; 0x71fc <vfprintf+0x228>
    71e8:	e2 e0       	ldi	r30, 0x02	; 2
    71ea:	f0 e0       	ldi	r31, 0x00	; 0
    71ec:	ec 0f       	add	r30, r28
    71ee:	fd 1f       	adc	r31, r29
    71f0:	e1 0f       	add	r30, r17
    71f2:	f1 1d       	adc	r31, r1
    71f4:	80 81       	ld	r24, Z
    71f6:	80 33       	cpi	r24, 0x30	; 48
    71f8:	19 f4       	brne	.+6      	; 0x7200 <vfprintf+0x22c>
    71fa:	11 50       	subi	r17, 0x01	; 1
    71fc:	11 11       	cpse	r17, r1
    71fe:	f4 cf       	rjmp	.-24     	; 0x71e8 <vfprintf+0x214>
    7200:	97 fe       	sbrs	r9, 7
    7202:	0e c0       	rjmp	.+28     	; 0x7220 <vfprintf+0x24c>
    7204:	44 24       	eor	r4, r4
    7206:	43 94       	inc	r4
    7208:	41 0e       	add	r4, r17
    720a:	81 2f       	mov	r24, r17
    720c:	90 e0       	ldi	r25, 0x00	; 0
    720e:	c8 16       	cp	r12, r24
    7210:	d9 06       	cpc	r13, r25
    7212:	2c f4       	brge	.+10     	; 0x721e <vfprintf+0x24a>
    7214:	1c 19       	sub	r17, r12
    7216:	04 c0       	rjmp	.+8      	; 0x7220 <vfprintf+0x24c>
    7218:	44 24       	eor	r4, r4
    721a:	43 94       	inc	r4
    721c:	01 c0       	rjmp	.+2      	; 0x7220 <vfprintf+0x24c>
    721e:	10 e0       	ldi	r17, 0x00	; 0
    7220:	97 fe       	sbrs	r9, 7
    7222:	06 c0       	rjmp	.+12     	; 0x7230 <vfprintf+0x25c>
    7224:	1c 14       	cp	r1, r12
    7226:	1d 04       	cpc	r1, r13
    7228:	34 f4       	brge	.+12     	; 0x7236 <vfprintf+0x262>
    722a:	c6 01       	movw	r24, r12
    722c:	01 96       	adiw	r24, 0x01	; 1
    722e:	05 c0       	rjmp	.+10     	; 0x723a <vfprintf+0x266>
    7230:	85 e0       	ldi	r24, 0x05	; 5
    7232:	90 e0       	ldi	r25, 0x00	; 0
    7234:	02 c0       	rjmp	.+4      	; 0x723a <vfprintf+0x266>
    7236:	81 e0       	ldi	r24, 0x01	; 1
    7238:	90 e0       	ldi	r25, 0x00	; 0
    723a:	01 11       	cpse	r16, r1
    723c:	01 96       	adiw	r24, 0x01	; 1
    723e:	11 23       	and	r17, r17
    7240:	31 f0       	breq	.+12     	; 0x724e <vfprintf+0x27a>
    7242:	21 2f       	mov	r18, r17
    7244:	30 e0       	ldi	r19, 0x00	; 0
    7246:	2f 5f       	subi	r18, 0xFF	; 255
    7248:	3f 4f       	sbci	r19, 0xFF	; 255
    724a:	82 0f       	add	r24, r18
    724c:	93 1f       	adc	r25, r19
    724e:	25 2d       	mov	r18, r5
    7250:	30 e0       	ldi	r19, 0x00	; 0
    7252:	82 17       	cp	r24, r18
    7254:	93 07       	cpc	r25, r19
    7256:	14 f4       	brge	.+4      	; 0x725c <vfprintf+0x288>
    7258:	58 1a       	sub	r5, r24
    725a:	01 c0       	rjmp	.+2      	; 0x725e <vfprintf+0x28a>
    725c:	51 2c       	mov	r5, r1
    725e:	89 2d       	mov	r24, r9
    7260:	89 70       	andi	r24, 0x09	; 9
    7262:	49 f4       	brne	.+18     	; 0x7276 <vfprintf+0x2a2>
    7264:	55 20       	and	r5, r5
    7266:	39 f0       	breq	.+14     	; 0x7276 <vfprintf+0x2a2>
    7268:	b7 01       	movw	r22, r14
    726a:	80 e2       	ldi	r24, 0x20	; 32
    726c:	90 e0       	ldi	r25, 0x00	; 0
    726e:	0e 94 4a 3e 	call	0x7c94	; 0x7c94 <fputc>
    7272:	5a 94       	dec	r5
    7274:	f7 cf       	rjmp	.-18     	; 0x7264 <vfprintf+0x290>
    7276:	00 23       	and	r16, r16
    7278:	29 f0       	breq	.+10     	; 0x7284 <vfprintf+0x2b0>
    727a:	b7 01       	movw	r22, r14
    727c:	80 2f       	mov	r24, r16
    727e:	90 e0       	ldi	r25, 0x00	; 0
    7280:	0e 94 4a 3e 	call	0x7c94	; 0x7c94 <fputc>
    7284:	93 fc       	sbrc	r9, 3
    7286:	09 c0       	rjmp	.+18     	; 0x729a <vfprintf+0x2c6>
    7288:	55 20       	and	r5, r5
    728a:	39 f0       	breq	.+14     	; 0x729a <vfprintf+0x2c6>
    728c:	b7 01       	movw	r22, r14
    728e:	80 e3       	ldi	r24, 0x30	; 48
    7290:	90 e0       	ldi	r25, 0x00	; 0
    7292:	0e 94 4a 3e 	call	0x7c94	; 0x7c94 <fputc>
    7296:	5a 94       	dec	r5
    7298:	f7 cf       	rjmp	.-18     	; 0x7288 <vfprintf+0x2b4>
    729a:	97 fe       	sbrs	r9, 7
    729c:	4c c0       	rjmp	.+152    	; 0x7336 <vfprintf+0x362>
    729e:	46 01       	movw	r8, r12
    72a0:	d7 fe       	sbrs	r13, 7
    72a2:	02 c0       	rjmp	.+4      	; 0x72a8 <vfprintf+0x2d4>
    72a4:	81 2c       	mov	r8, r1
    72a6:	91 2c       	mov	r9, r1
    72a8:	c6 01       	movw	r24, r12
    72aa:	88 19       	sub	r24, r8
    72ac:	99 09       	sbc	r25, r9
    72ae:	f3 01       	movw	r30, r6
    72b0:	e8 0f       	add	r30, r24
    72b2:	f9 1f       	adc	r31, r25
    72b4:	ed 87       	std	Y+13, r30	; 0x0d
    72b6:	fe 87       	std	Y+14, r31	; 0x0e
    72b8:	96 01       	movw	r18, r12
    72ba:	24 19       	sub	r18, r4
    72bc:	31 09       	sbc	r19, r1
    72be:	2f 87       	std	Y+15, r18	; 0x0f
    72c0:	38 8b       	std	Y+16, r19	; 0x10
    72c2:	01 2f       	mov	r16, r17
    72c4:	10 e0       	ldi	r17, 0x00	; 0
    72c6:	11 95       	neg	r17
    72c8:	01 95       	neg	r16
    72ca:	11 09       	sbc	r17, r1
    72cc:	3f ef       	ldi	r19, 0xFF	; 255
    72ce:	83 16       	cp	r8, r19
    72d0:	93 06       	cpc	r9, r19
    72d2:	29 f4       	brne	.+10     	; 0x72de <vfprintf+0x30a>
    72d4:	b7 01       	movw	r22, r14
    72d6:	8e e2       	ldi	r24, 0x2E	; 46
    72d8:	90 e0       	ldi	r25, 0x00	; 0
    72da:	0e 94 4a 3e 	call	0x7c94	; 0x7c94 <fputc>
    72de:	c8 14       	cp	r12, r8
    72e0:	d9 04       	cpc	r13, r9
    72e2:	4c f0       	brlt	.+18     	; 0x72f6 <vfprintf+0x322>
    72e4:	8f 85       	ldd	r24, Y+15	; 0x0f
    72e6:	98 89       	ldd	r25, Y+16	; 0x10
    72e8:	88 15       	cp	r24, r8
    72ea:	99 05       	cpc	r25, r9
    72ec:	24 f4       	brge	.+8      	; 0x72f6 <vfprintf+0x322>
    72ee:	ed 85       	ldd	r30, Y+13	; 0x0d
    72f0:	fe 85       	ldd	r31, Y+14	; 0x0e
    72f2:	81 81       	ldd	r24, Z+1	; 0x01
    72f4:	01 c0       	rjmp	.+2      	; 0x72f8 <vfprintf+0x324>
    72f6:	80 e3       	ldi	r24, 0x30	; 48
    72f8:	f1 e0       	ldi	r31, 0x01	; 1
    72fa:	8f 1a       	sub	r8, r31
    72fc:	91 08       	sbc	r9, r1
    72fe:	2d 85       	ldd	r18, Y+13	; 0x0d
    7300:	3e 85       	ldd	r19, Y+14	; 0x0e
    7302:	2f 5f       	subi	r18, 0xFF	; 255
    7304:	3f 4f       	sbci	r19, 0xFF	; 255
    7306:	2d 87       	std	Y+13, r18	; 0x0d
    7308:	3e 87       	std	Y+14, r19	; 0x0e
    730a:	80 16       	cp	r8, r16
    730c:	91 06       	cpc	r9, r17
    730e:	2c f0       	brlt	.+10     	; 0x731a <vfprintf+0x346>
    7310:	b7 01       	movw	r22, r14
    7312:	90 e0       	ldi	r25, 0x00	; 0
    7314:	0e 94 4a 3e 	call	0x7c94	; 0x7c94 <fputc>
    7318:	d9 cf       	rjmp	.-78     	; 0x72cc <vfprintf+0x2f8>
    731a:	c8 14       	cp	r12, r8
    731c:	d9 04       	cpc	r13, r9
    731e:	41 f4       	brne	.+16     	; 0x7330 <vfprintf+0x35c>
    7320:	9a 81       	ldd	r25, Y+2	; 0x02
    7322:	96 33       	cpi	r25, 0x36	; 54
    7324:	20 f4       	brcc	.+8      	; 0x732e <vfprintf+0x35a>
    7326:	95 33       	cpi	r25, 0x35	; 53
    7328:	19 f4       	brne	.+6      	; 0x7330 <vfprintf+0x35c>
    732a:	3c 85       	ldd	r19, Y+12	; 0x0c
    732c:	34 ff       	sbrs	r19, 4
    732e:	81 e3       	ldi	r24, 0x31	; 49
    7330:	b7 01       	movw	r22, r14
    7332:	90 e0       	ldi	r25, 0x00	; 0
    7334:	4e c0       	rjmp	.+156    	; 0x73d2 <vfprintf+0x3fe>
    7336:	8a 81       	ldd	r24, Y+2	; 0x02
    7338:	81 33       	cpi	r24, 0x31	; 49
    733a:	19 f0       	breq	.+6      	; 0x7342 <vfprintf+0x36e>
    733c:	9c 85       	ldd	r25, Y+12	; 0x0c
    733e:	9f 7e       	andi	r25, 0xEF	; 239
    7340:	9c 87       	std	Y+12, r25	; 0x0c
    7342:	b7 01       	movw	r22, r14
    7344:	90 e0       	ldi	r25, 0x00	; 0
    7346:	0e 94 4a 3e 	call	0x7c94	; 0x7c94 <fputc>
    734a:	11 11       	cpse	r17, r1
    734c:	05 c0       	rjmp	.+10     	; 0x7358 <vfprintf+0x384>
    734e:	94 fc       	sbrc	r9, 4
    7350:	18 c0       	rjmp	.+48     	; 0x7382 <vfprintf+0x3ae>
    7352:	85 e6       	ldi	r24, 0x65	; 101
    7354:	90 e0       	ldi	r25, 0x00	; 0
    7356:	17 c0       	rjmp	.+46     	; 0x7386 <vfprintf+0x3b2>
    7358:	b7 01       	movw	r22, r14
    735a:	8e e2       	ldi	r24, 0x2E	; 46
    735c:	90 e0       	ldi	r25, 0x00	; 0
    735e:	0e 94 4a 3e 	call	0x7c94	; 0x7c94 <fputc>
    7362:	1e 5f       	subi	r17, 0xFE	; 254
    7364:	82 e0       	ldi	r24, 0x02	; 2
    7366:	01 e0       	ldi	r16, 0x01	; 1
    7368:	08 0f       	add	r16, r24
    736a:	f3 01       	movw	r30, r6
    736c:	e8 0f       	add	r30, r24
    736e:	f1 1d       	adc	r31, r1
    7370:	80 81       	ld	r24, Z
    7372:	b7 01       	movw	r22, r14
    7374:	90 e0       	ldi	r25, 0x00	; 0
    7376:	0e 94 4a 3e 	call	0x7c94	; 0x7c94 <fputc>
    737a:	80 2f       	mov	r24, r16
    737c:	01 13       	cpse	r16, r17
    737e:	f3 cf       	rjmp	.-26     	; 0x7366 <vfprintf+0x392>
    7380:	e6 cf       	rjmp	.-52     	; 0x734e <vfprintf+0x37a>
    7382:	85 e4       	ldi	r24, 0x45	; 69
    7384:	90 e0       	ldi	r25, 0x00	; 0
    7386:	b7 01       	movw	r22, r14
    7388:	0e 94 4a 3e 	call	0x7c94	; 0x7c94 <fputc>
    738c:	d7 fc       	sbrc	r13, 7
    738e:	06 c0       	rjmp	.+12     	; 0x739c <vfprintf+0x3c8>
    7390:	c1 14       	cp	r12, r1
    7392:	d1 04       	cpc	r13, r1
    7394:	41 f4       	brne	.+16     	; 0x73a6 <vfprintf+0x3d2>
    7396:	ec 85       	ldd	r30, Y+12	; 0x0c
    7398:	e4 ff       	sbrs	r30, 4
    739a:	05 c0       	rjmp	.+10     	; 0x73a6 <vfprintf+0x3d2>
    739c:	d1 94       	neg	r13
    739e:	c1 94       	neg	r12
    73a0:	d1 08       	sbc	r13, r1
    73a2:	8d e2       	ldi	r24, 0x2D	; 45
    73a4:	01 c0       	rjmp	.+2      	; 0x73a8 <vfprintf+0x3d4>
    73a6:	8b e2       	ldi	r24, 0x2B	; 43
    73a8:	b7 01       	movw	r22, r14
    73aa:	90 e0       	ldi	r25, 0x00	; 0
    73ac:	0e 94 4a 3e 	call	0x7c94	; 0x7c94 <fputc>
    73b0:	80 e3       	ldi	r24, 0x30	; 48
    73b2:	2a e0       	ldi	r18, 0x0A	; 10
    73b4:	c2 16       	cp	r12, r18
    73b6:	d1 04       	cpc	r13, r1
    73b8:	2c f0       	brlt	.+10     	; 0x73c4 <vfprintf+0x3f0>
    73ba:	8f 5f       	subi	r24, 0xFF	; 255
    73bc:	fa e0       	ldi	r31, 0x0A	; 10
    73be:	cf 1a       	sub	r12, r31
    73c0:	d1 08       	sbc	r13, r1
    73c2:	f7 cf       	rjmp	.-18     	; 0x73b2 <vfprintf+0x3de>
    73c4:	b7 01       	movw	r22, r14
    73c6:	90 e0       	ldi	r25, 0x00	; 0
    73c8:	0e 94 4a 3e 	call	0x7c94	; 0x7c94 <fputc>
    73cc:	b7 01       	movw	r22, r14
    73ce:	c6 01       	movw	r24, r12
    73d0:	c0 96       	adiw	r24, 0x30	; 48
    73d2:	0e 94 4a 3e 	call	0x7c94	; 0x7c94 <fputc>
    73d6:	54 c1       	rjmp	.+680    	; 0x7680 <vfprintf+0x6ac>
    73d8:	83 36       	cpi	r24, 0x63	; 99
    73da:	31 f0       	breq	.+12     	; 0x73e8 <vfprintf+0x414>
    73dc:	83 37       	cpi	r24, 0x73	; 115
    73de:	79 f0       	breq	.+30     	; 0x73fe <vfprintf+0x42a>
    73e0:	83 35       	cpi	r24, 0x53	; 83
    73e2:	09 f0       	breq	.+2      	; 0x73e6 <vfprintf+0x412>
    73e4:	56 c0       	rjmp	.+172    	; 0x7492 <vfprintf+0x4be>
    73e6:	20 c0       	rjmp	.+64     	; 0x7428 <vfprintf+0x454>
    73e8:	56 01       	movw	r10, r12
    73ea:	32 e0       	ldi	r19, 0x02	; 2
    73ec:	a3 0e       	add	r10, r19
    73ee:	b1 1c       	adc	r11, r1
    73f0:	f6 01       	movw	r30, r12
    73f2:	80 81       	ld	r24, Z
    73f4:	89 83       	std	Y+1, r24	; 0x01
    73f6:	01 e0       	ldi	r16, 0x01	; 1
    73f8:	10 e0       	ldi	r17, 0x00	; 0
    73fa:	63 01       	movw	r12, r6
    73fc:	12 c0       	rjmp	.+36     	; 0x7422 <vfprintf+0x44e>
    73fe:	56 01       	movw	r10, r12
    7400:	f2 e0       	ldi	r31, 0x02	; 2
    7402:	af 0e       	add	r10, r31
    7404:	b1 1c       	adc	r11, r1
    7406:	f6 01       	movw	r30, r12
    7408:	c0 80       	ld	r12, Z
    740a:	d1 80       	ldd	r13, Z+1	; 0x01
    740c:	96 fe       	sbrs	r9, 6
    740e:	03 c0       	rjmp	.+6      	; 0x7416 <vfprintf+0x442>
    7410:	61 2f       	mov	r22, r17
    7412:	70 e0       	ldi	r23, 0x00	; 0
    7414:	02 c0       	rjmp	.+4      	; 0x741a <vfprintf+0x446>
    7416:	6f ef       	ldi	r22, 0xFF	; 255
    7418:	7f ef       	ldi	r23, 0xFF	; 255
    741a:	c6 01       	movw	r24, r12
    741c:	0e 94 f4 3d 	call	0x7be8	; 0x7be8 <strnlen>
    7420:	8c 01       	movw	r16, r24
    7422:	f9 2d       	mov	r31, r9
    7424:	ff 77       	andi	r31, 0x7F	; 127
    7426:	14 c0       	rjmp	.+40     	; 0x7450 <vfprintf+0x47c>
    7428:	56 01       	movw	r10, r12
    742a:	22 e0       	ldi	r18, 0x02	; 2
    742c:	a2 0e       	add	r10, r18
    742e:	b1 1c       	adc	r11, r1
    7430:	f6 01       	movw	r30, r12
    7432:	c0 80       	ld	r12, Z
    7434:	d1 80       	ldd	r13, Z+1	; 0x01
    7436:	96 fe       	sbrs	r9, 6
    7438:	03 c0       	rjmp	.+6      	; 0x7440 <vfprintf+0x46c>
    743a:	61 2f       	mov	r22, r17
    743c:	70 e0       	ldi	r23, 0x00	; 0
    743e:	02 c0       	rjmp	.+4      	; 0x7444 <vfprintf+0x470>
    7440:	6f ef       	ldi	r22, 0xFF	; 255
    7442:	7f ef       	ldi	r23, 0xFF	; 255
    7444:	c6 01       	movw	r24, r12
    7446:	0e 94 e9 3d 	call	0x7bd2	; 0x7bd2 <strnlen_P>
    744a:	8c 01       	movw	r16, r24
    744c:	f9 2d       	mov	r31, r9
    744e:	f0 68       	ori	r31, 0x80	; 128
    7450:	9f 2e       	mov	r9, r31
    7452:	f3 fd       	sbrc	r31, 3
    7454:	1a c0       	rjmp	.+52     	; 0x748a <vfprintf+0x4b6>
    7456:	85 2d       	mov	r24, r5
    7458:	90 e0       	ldi	r25, 0x00	; 0
    745a:	08 17       	cp	r16, r24
    745c:	19 07       	cpc	r17, r25
    745e:	a8 f4       	brcc	.+42     	; 0x748a <vfprintf+0x4b6>
    7460:	b7 01       	movw	r22, r14
    7462:	80 e2       	ldi	r24, 0x20	; 32
    7464:	90 e0       	ldi	r25, 0x00	; 0
    7466:	0e 94 4a 3e 	call	0x7c94	; 0x7c94 <fputc>
    746a:	5a 94       	dec	r5
    746c:	f4 cf       	rjmp	.-24     	; 0x7456 <vfprintf+0x482>
    746e:	f6 01       	movw	r30, r12
    7470:	97 fc       	sbrc	r9, 7
    7472:	85 91       	lpm	r24, Z+
    7474:	97 fe       	sbrs	r9, 7
    7476:	81 91       	ld	r24, Z+
    7478:	6f 01       	movw	r12, r30
    747a:	b7 01       	movw	r22, r14
    747c:	90 e0       	ldi	r25, 0x00	; 0
    747e:	0e 94 4a 3e 	call	0x7c94	; 0x7c94 <fputc>
    7482:	51 10       	cpse	r5, r1
    7484:	5a 94       	dec	r5
    7486:	01 50       	subi	r16, 0x01	; 1
    7488:	11 09       	sbc	r17, r1
    748a:	01 15       	cp	r16, r1
    748c:	11 05       	cpc	r17, r1
    748e:	79 f7       	brne	.-34     	; 0x746e <vfprintf+0x49a>
    7490:	f7 c0       	rjmp	.+494    	; 0x7680 <vfprintf+0x6ac>
    7492:	84 36       	cpi	r24, 0x64	; 100
    7494:	11 f0       	breq	.+4      	; 0x749a <vfprintf+0x4c6>
    7496:	89 36       	cpi	r24, 0x69	; 105
    7498:	61 f5       	brne	.+88     	; 0x74f2 <vfprintf+0x51e>
    749a:	56 01       	movw	r10, r12
    749c:	97 fe       	sbrs	r9, 7
    749e:	09 c0       	rjmp	.+18     	; 0x74b2 <vfprintf+0x4de>
    74a0:	24 e0       	ldi	r18, 0x04	; 4
    74a2:	a2 0e       	add	r10, r18
    74a4:	b1 1c       	adc	r11, r1
    74a6:	f6 01       	movw	r30, r12
    74a8:	60 81       	ld	r22, Z
    74aa:	71 81       	ldd	r23, Z+1	; 0x01
    74ac:	82 81       	ldd	r24, Z+2	; 0x02
    74ae:	93 81       	ldd	r25, Z+3	; 0x03
    74b0:	0a c0       	rjmp	.+20     	; 0x74c6 <vfprintf+0x4f2>
    74b2:	f2 e0       	ldi	r31, 0x02	; 2
    74b4:	af 0e       	add	r10, r31
    74b6:	b1 1c       	adc	r11, r1
    74b8:	f6 01       	movw	r30, r12
    74ba:	60 81       	ld	r22, Z
    74bc:	71 81       	ldd	r23, Z+1	; 0x01
    74be:	07 2e       	mov	r0, r23
    74c0:	00 0c       	add	r0, r0
    74c2:	88 0b       	sbc	r24, r24
    74c4:	99 0b       	sbc	r25, r25
    74c6:	f9 2d       	mov	r31, r9
    74c8:	ff 76       	andi	r31, 0x6F	; 111
    74ca:	9f 2e       	mov	r9, r31
    74cc:	97 ff       	sbrs	r25, 7
    74ce:	09 c0       	rjmp	.+18     	; 0x74e2 <vfprintf+0x50e>
    74d0:	90 95       	com	r25
    74d2:	80 95       	com	r24
    74d4:	70 95       	com	r23
    74d6:	61 95       	neg	r22
    74d8:	7f 4f       	sbci	r23, 0xFF	; 255
    74da:	8f 4f       	sbci	r24, 0xFF	; 255
    74dc:	9f 4f       	sbci	r25, 0xFF	; 255
    74de:	f0 68       	ori	r31, 0x80	; 128
    74e0:	9f 2e       	mov	r9, r31
    74e2:	2a e0       	ldi	r18, 0x0A	; 10
    74e4:	30 e0       	ldi	r19, 0x00	; 0
    74e6:	a3 01       	movw	r20, r6
    74e8:	0e 94 ca 3e 	call	0x7d94	; 0x7d94 <__ultoa_invert>
    74ec:	c8 2e       	mov	r12, r24
    74ee:	c6 18       	sub	r12, r6
    74f0:	3f c0       	rjmp	.+126    	; 0x7570 <vfprintf+0x59c>
    74f2:	09 2d       	mov	r16, r9
    74f4:	85 37       	cpi	r24, 0x75	; 117
    74f6:	21 f4       	brne	.+8      	; 0x7500 <vfprintf+0x52c>
    74f8:	0f 7e       	andi	r16, 0xEF	; 239
    74fa:	2a e0       	ldi	r18, 0x0A	; 10
    74fc:	30 e0       	ldi	r19, 0x00	; 0
    74fe:	1d c0       	rjmp	.+58     	; 0x753a <vfprintf+0x566>
    7500:	09 7f       	andi	r16, 0xF9	; 249
    7502:	8f 36       	cpi	r24, 0x6F	; 111
    7504:	91 f0       	breq	.+36     	; 0x752a <vfprintf+0x556>
    7506:	18 f4       	brcc	.+6      	; 0x750e <vfprintf+0x53a>
    7508:	88 35       	cpi	r24, 0x58	; 88
    750a:	59 f0       	breq	.+22     	; 0x7522 <vfprintf+0x54e>
    750c:	c3 c0       	rjmp	.+390    	; 0x7694 <vfprintf+0x6c0>
    750e:	80 37       	cpi	r24, 0x70	; 112
    7510:	19 f0       	breq	.+6      	; 0x7518 <vfprintf+0x544>
    7512:	88 37       	cpi	r24, 0x78	; 120
    7514:	11 f0       	breq	.+4      	; 0x751a <vfprintf+0x546>
    7516:	be c0       	rjmp	.+380    	; 0x7694 <vfprintf+0x6c0>
    7518:	00 61       	ori	r16, 0x10	; 16
    751a:	04 ff       	sbrs	r16, 4
    751c:	09 c0       	rjmp	.+18     	; 0x7530 <vfprintf+0x55c>
    751e:	04 60       	ori	r16, 0x04	; 4
    7520:	07 c0       	rjmp	.+14     	; 0x7530 <vfprintf+0x55c>
    7522:	94 fe       	sbrs	r9, 4
    7524:	08 c0       	rjmp	.+16     	; 0x7536 <vfprintf+0x562>
    7526:	06 60       	ori	r16, 0x06	; 6
    7528:	06 c0       	rjmp	.+12     	; 0x7536 <vfprintf+0x562>
    752a:	28 e0       	ldi	r18, 0x08	; 8
    752c:	30 e0       	ldi	r19, 0x00	; 0
    752e:	05 c0       	rjmp	.+10     	; 0x753a <vfprintf+0x566>
    7530:	20 e1       	ldi	r18, 0x10	; 16
    7532:	30 e0       	ldi	r19, 0x00	; 0
    7534:	02 c0       	rjmp	.+4      	; 0x753a <vfprintf+0x566>
    7536:	20 e1       	ldi	r18, 0x10	; 16
    7538:	32 e0       	ldi	r19, 0x02	; 2
    753a:	56 01       	movw	r10, r12
    753c:	07 ff       	sbrs	r16, 7
    753e:	09 c0       	rjmp	.+18     	; 0x7552 <vfprintf+0x57e>
    7540:	84 e0       	ldi	r24, 0x04	; 4
    7542:	a8 0e       	add	r10, r24
    7544:	b1 1c       	adc	r11, r1
    7546:	f6 01       	movw	r30, r12
    7548:	60 81       	ld	r22, Z
    754a:	71 81       	ldd	r23, Z+1	; 0x01
    754c:	82 81       	ldd	r24, Z+2	; 0x02
    754e:	93 81       	ldd	r25, Z+3	; 0x03
    7550:	08 c0       	rjmp	.+16     	; 0x7562 <vfprintf+0x58e>
    7552:	f2 e0       	ldi	r31, 0x02	; 2
    7554:	af 0e       	add	r10, r31
    7556:	b1 1c       	adc	r11, r1
    7558:	f6 01       	movw	r30, r12
    755a:	60 81       	ld	r22, Z
    755c:	71 81       	ldd	r23, Z+1	; 0x01
    755e:	80 e0       	ldi	r24, 0x00	; 0
    7560:	90 e0       	ldi	r25, 0x00	; 0
    7562:	a3 01       	movw	r20, r6
    7564:	0e 94 ca 3e 	call	0x7d94	; 0x7d94 <__ultoa_invert>
    7568:	c8 2e       	mov	r12, r24
    756a:	c6 18       	sub	r12, r6
    756c:	0f 77       	andi	r16, 0x7F	; 127
    756e:	90 2e       	mov	r9, r16
    7570:	96 fe       	sbrs	r9, 6
    7572:	0b c0       	rjmp	.+22     	; 0x758a <vfprintf+0x5b6>
    7574:	09 2d       	mov	r16, r9
    7576:	0e 7f       	andi	r16, 0xFE	; 254
    7578:	c1 16       	cp	r12, r17
    757a:	50 f4       	brcc	.+20     	; 0x7590 <vfprintf+0x5bc>
    757c:	94 fe       	sbrs	r9, 4
    757e:	0a c0       	rjmp	.+20     	; 0x7594 <vfprintf+0x5c0>
    7580:	92 fc       	sbrc	r9, 2
    7582:	08 c0       	rjmp	.+16     	; 0x7594 <vfprintf+0x5c0>
    7584:	09 2d       	mov	r16, r9
    7586:	0e 7e       	andi	r16, 0xEE	; 238
    7588:	05 c0       	rjmp	.+10     	; 0x7594 <vfprintf+0x5c0>
    758a:	dc 2c       	mov	r13, r12
    758c:	09 2d       	mov	r16, r9
    758e:	03 c0       	rjmp	.+6      	; 0x7596 <vfprintf+0x5c2>
    7590:	dc 2c       	mov	r13, r12
    7592:	01 c0       	rjmp	.+2      	; 0x7596 <vfprintf+0x5c2>
    7594:	d1 2e       	mov	r13, r17
    7596:	04 ff       	sbrs	r16, 4
    7598:	0d c0       	rjmp	.+26     	; 0x75b4 <vfprintf+0x5e0>
    759a:	fe 01       	movw	r30, r28
    759c:	ec 0d       	add	r30, r12
    759e:	f1 1d       	adc	r31, r1
    75a0:	80 81       	ld	r24, Z
    75a2:	80 33       	cpi	r24, 0x30	; 48
    75a4:	11 f4       	brne	.+4      	; 0x75aa <vfprintf+0x5d6>
    75a6:	09 7e       	andi	r16, 0xE9	; 233
    75a8:	09 c0       	rjmp	.+18     	; 0x75bc <vfprintf+0x5e8>
    75aa:	02 ff       	sbrs	r16, 2
    75ac:	06 c0       	rjmp	.+12     	; 0x75ba <vfprintf+0x5e6>
    75ae:	d3 94       	inc	r13
    75b0:	d3 94       	inc	r13
    75b2:	04 c0       	rjmp	.+8      	; 0x75bc <vfprintf+0x5e8>
    75b4:	80 2f       	mov	r24, r16
    75b6:	86 78       	andi	r24, 0x86	; 134
    75b8:	09 f0       	breq	.+2      	; 0x75bc <vfprintf+0x5e8>
    75ba:	d3 94       	inc	r13
    75bc:	03 fd       	sbrc	r16, 3
    75be:	11 c0       	rjmp	.+34     	; 0x75e2 <vfprintf+0x60e>
    75c0:	00 ff       	sbrs	r16, 0
    75c2:	06 c0       	rjmp	.+12     	; 0x75d0 <vfprintf+0x5fc>
    75c4:	1c 2d       	mov	r17, r12
    75c6:	d5 14       	cp	r13, r5
    75c8:	80 f4       	brcc	.+32     	; 0x75ea <vfprintf+0x616>
    75ca:	15 0d       	add	r17, r5
    75cc:	1d 19       	sub	r17, r13
    75ce:	0d c0       	rjmp	.+26     	; 0x75ea <vfprintf+0x616>
    75d0:	d5 14       	cp	r13, r5
    75d2:	58 f4       	brcc	.+22     	; 0x75ea <vfprintf+0x616>
    75d4:	b7 01       	movw	r22, r14
    75d6:	80 e2       	ldi	r24, 0x20	; 32
    75d8:	90 e0       	ldi	r25, 0x00	; 0
    75da:	0e 94 4a 3e 	call	0x7c94	; 0x7c94 <fputc>
    75de:	d3 94       	inc	r13
    75e0:	f7 cf       	rjmp	.-18     	; 0x75d0 <vfprintf+0x5fc>
    75e2:	d5 14       	cp	r13, r5
    75e4:	10 f4       	brcc	.+4      	; 0x75ea <vfprintf+0x616>
    75e6:	5d 18       	sub	r5, r13
    75e8:	01 c0       	rjmp	.+2      	; 0x75ec <vfprintf+0x618>
    75ea:	51 2c       	mov	r5, r1
    75ec:	04 ff       	sbrs	r16, 4
    75ee:	10 c0       	rjmp	.+32     	; 0x7610 <vfprintf+0x63c>
    75f0:	b7 01       	movw	r22, r14
    75f2:	80 e3       	ldi	r24, 0x30	; 48
    75f4:	90 e0       	ldi	r25, 0x00	; 0
    75f6:	0e 94 4a 3e 	call	0x7c94	; 0x7c94 <fputc>
    75fa:	02 ff       	sbrs	r16, 2
    75fc:	17 c0       	rjmp	.+46     	; 0x762c <vfprintf+0x658>
    75fe:	01 fd       	sbrc	r16, 1
    7600:	03 c0       	rjmp	.+6      	; 0x7608 <vfprintf+0x634>
    7602:	88 e7       	ldi	r24, 0x78	; 120
    7604:	90 e0       	ldi	r25, 0x00	; 0
    7606:	02 c0       	rjmp	.+4      	; 0x760c <vfprintf+0x638>
    7608:	88 e5       	ldi	r24, 0x58	; 88
    760a:	90 e0       	ldi	r25, 0x00	; 0
    760c:	b7 01       	movw	r22, r14
    760e:	0c c0       	rjmp	.+24     	; 0x7628 <vfprintf+0x654>
    7610:	80 2f       	mov	r24, r16
    7612:	86 78       	andi	r24, 0x86	; 134
    7614:	59 f0       	breq	.+22     	; 0x762c <vfprintf+0x658>
    7616:	01 ff       	sbrs	r16, 1
    7618:	02 c0       	rjmp	.+4      	; 0x761e <vfprintf+0x64a>
    761a:	8b e2       	ldi	r24, 0x2B	; 43
    761c:	01 c0       	rjmp	.+2      	; 0x7620 <vfprintf+0x64c>
    761e:	80 e2       	ldi	r24, 0x20	; 32
    7620:	07 fd       	sbrc	r16, 7
    7622:	8d e2       	ldi	r24, 0x2D	; 45
    7624:	b7 01       	movw	r22, r14
    7626:	90 e0       	ldi	r25, 0x00	; 0
    7628:	0e 94 4a 3e 	call	0x7c94	; 0x7c94 <fputc>
    762c:	c1 16       	cp	r12, r17
    762e:	38 f4       	brcc	.+14     	; 0x763e <vfprintf+0x66a>
    7630:	b7 01       	movw	r22, r14
    7632:	80 e3       	ldi	r24, 0x30	; 48
    7634:	90 e0       	ldi	r25, 0x00	; 0
    7636:	0e 94 4a 3e 	call	0x7c94	; 0x7c94 <fputc>
    763a:	11 50       	subi	r17, 0x01	; 1
    763c:	f7 cf       	rjmp	.-18     	; 0x762c <vfprintf+0x658>
    763e:	ca 94       	dec	r12
    7640:	f3 01       	movw	r30, r6
    7642:	ec 0d       	add	r30, r12
    7644:	f1 1d       	adc	r31, r1
    7646:	80 81       	ld	r24, Z
    7648:	b7 01       	movw	r22, r14
    764a:	90 e0       	ldi	r25, 0x00	; 0
    764c:	0e 94 4a 3e 	call	0x7c94	; 0x7c94 <fputc>
    7650:	c1 10       	cpse	r12, r1
    7652:	f5 cf       	rjmp	.-22     	; 0x763e <vfprintf+0x66a>
    7654:	15 c0       	rjmp	.+42     	; 0x7680 <vfprintf+0x6ac>
    7656:	f4 e0       	ldi	r31, 0x04	; 4
    7658:	f5 15       	cp	r31, r5
    765a:	60 f5       	brcc	.+88     	; 0x76b4 <vfprintf+0x6e0>
    765c:	84 e0       	ldi	r24, 0x04	; 4
    765e:	58 1a       	sub	r5, r24
    7660:	93 fe       	sbrs	r9, 3
    7662:	1f c0       	rjmp	.+62     	; 0x76a2 <vfprintf+0x6ce>
    7664:	01 11       	cpse	r16, r1
    7666:	27 c0       	rjmp	.+78     	; 0x76b6 <vfprintf+0x6e2>
    7668:	2c 85       	ldd	r18, Y+12	; 0x0c
    766a:	23 ff       	sbrs	r18, 3
    766c:	2a c0       	rjmp	.+84     	; 0x76c2 <vfprintf+0x6ee>
    766e:	0a e3       	ldi	r16, 0x3A	; 58
    7670:	17 e0       	ldi	r17, 0x07	; 7
    7672:	39 2d       	mov	r19, r9
    7674:	30 71       	andi	r19, 0x10	; 16
    7676:	93 2e       	mov	r9, r19
    7678:	f8 01       	movw	r30, r16
    767a:	84 91       	lpm	r24, Z
    767c:	81 11       	cpse	r24, r1
    767e:	24 c0       	rjmp	.+72     	; 0x76c8 <vfprintf+0x6f4>
    7680:	55 20       	and	r5, r5
    7682:	09 f4       	brne	.+2      	; 0x7686 <vfprintf+0x6b2>
    7684:	e4 cc       	rjmp	.-1592   	; 0x704e <vfprintf+0x7a>
    7686:	b7 01       	movw	r22, r14
    7688:	80 e2       	ldi	r24, 0x20	; 32
    768a:	90 e0       	ldi	r25, 0x00	; 0
    768c:	0e 94 4a 3e 	call	0x7c94	; 0x7c94 <fputc>
    7690:	5a 94       	dec	r5
    7692:	f6 cf       	rjmp	.-20     	; 0x7680 <vfprintf+0x6ac>
    7694:	f7 01       	movw	r30, r14
    7696:	86 81       	ldd	r24, Z+6	; 0x06
    7698:	97 81       	ldd	r25, Z+7	; 0x07
    769a:	26 c0       	rjmp	.+76     	; 0x76e8 <vfprintf+0x714>
    769c:	8f ef       	ldi	r24, 0xFF	; 255
    769e:	9f ef       	ldi	r25, 0xFF	; 255
    76a0:	23 c0       	rjmp	.+70     	; 0x76e8 <vfprintf+0x714>
    76a2:	b7 01       	movw	r22, r14
    76a4:	80 e2       	ldi	r24, 0x20	; 32
    76a6:	90 e0       	ldi	r25, 0x00	; 0
    76a8:	0e 94 4a 3e 	call	0x7c94	; 0x7c94 <fputc>
    76ac:	5a 94       	dec	r5
    76ae:	51 10       	cpse	r5, r1
    76b0:	f8 cf       	rjmp	.-16     	; 0x76a2 <vfprintf+0x6ce>
    76b2:	d8 cf       	rjmp	.-80     	; 0x7664 <vfprintf+0x690>
    76b4:	51 2c       	mov	r5, r1
    76b6:	b7 01       	movw	r22, r14
    76b8:	80 2f       	mov	r24, r16
    76ba:	90 e0       	ldi	r25, 0x00	; 0
    76bc:	0e 94 4a 3e 	call	0x7c94	; 0x7c94 <fputc>
    76c0:	d3 cf       	rjmp	.-90     	; 0x7668 <vfprintf+0x694>
    76c2:	0e e3       	ldi	r16, 0x3E	; 62
    76c4:	17 e0       	ldi	r17, 0x07	; 7
    76c6:	d5 cf       	rjmp	.-86     	; 0x7672 <vfprintf+0x69e>
    76c8:	91 10       	cpse	r9, r1
    76ca:	80 52       	subi	r24, 0x20	; 32
    76cc:	b7 01       	movw	r22, r14
    76ce:	90 e0       	ldi	r25, 0x00	; 0
    76d0:	0e 94 4a 3e 	call	0x7c94	; 0x7c94 <fputc>
    76d4:	0f 5f       	subi	r16, 0xFF	; 255
    76d6:	1f 4f       	sbci	r17, 0xFF	; 255
    76d8:	cf cf       	rjmp	.-98     	; 0x7678 <vfprintf+0x6a4>
    76da:	23 e0       	ldi	r18, 0x03	; 3
    76dc:	25 15       	cp	r18, r5
    76de:	10 f4       	brcc	.+4      	; 0x76e4 <vfprintf+0x710>
    76e0:	83 e0       	ldi	r24, 0x03	; 3
    76e2:	bd cf       	rjmp	.-134    	; 0x765e <vfprintf+0x68a>
    76e4:	51 2c       	mov	r5, r1
    76e6:	c0 cf       	rjmp	.-128    	; 0x7668 <vfprintf+0x694>
    76e8:	60 96       	adiw	r28, 0x10	; 16
    76ea:	cd bf       	out	0x3d, r28	; 61
    76ec:	de bf       	out	0x3e, r29	; 62
    76ee:	df 91       	pop	r29
    76f0:	cf 91       	pop	r28
    76f2:	1f 91       	pop	r17
    76f4:	0f 91       	pop	r16
    76f6:	ff 90       	pop	r15
    76f8:	ef 90       	pop	r14
    76fa:	df 90       	pop	r13
    76fc:	cf 90       	pop	r12
    76fe:	bf 90       	pop	r11
    7700:	af 90       	pop	r10
    7702:	9f 90       	pop	r9
    7704:	8f 90       	pop	r8
    7706:	7f 90       	pop	r7
    7708:	6f 90       	pop	r6
    770a:	5f 90       	pop	r5
    770c:	4f 90       	pop	r4
    770e:	3f 90       	pop	r3
    7710:	2f 90       	pop	r2
    7712:	08 95       	ret

00007714 <__divmodhi4>:
    7714:	97 fb       	bst	r25, 7
    7716:	07 2e       	mov	r0, r23
    7718:	16 f4       	brtc	.+4      	; 0x771e <__divmodhi4+0xa>
    771a:	00 94       	com	r0
    771c:	07 d0       	rcall	.+14     	; 0x772c <__divmodhi4_neg1>
    771e:	77 fd       	sbrc	r23, 7
    7720:	09 d0       	rcall	.+18     	; 0x7734 <__divmodhi4_neg2>
    7722:	0e 94 fd 3c 	call	0x79fa	; 0x79fa <__udivmodhi4>
    7726:	07 fc       	sbrc	r0, 7
    7728:	05 d0       	rcall	.+10     	; 0x7734 <__divmodhi4_neg2>
    772a:	3e f4       	brtc	.+14     	; 0x773a <__divmodhi4_exit>

0000772c <__divmodhi4_neg1>:
    772c:	90 95       	com	r25
    772e:	81 95       	neg	r24
    7730:	9f 4f       	sbci	r25, 0xFF	; 255
    7732:	08 95       	ret

00007734 <__divmodhi4_neg2>:
    7734:	70 95       	com	r23
    7736:	61 95       	neg	r22
    7738:	7f 4f       	sbci	r23, 0xFF	; 255

0000773a <__divmodhi4_exit>:
    773a:	08 95       	ret

0000773c <__udivmodsi4>:
    773c:	a1 e2       	ldi	r26, 0x21	; 33
    773e:	1a 2e       	mov	r1, r26
    7740:	aa 1b       	sub	r26, r26
    7742:	bb 1b       	sub	r27, r27
    7744:	fd 01       	movw	r30, r26
    7746:	0d c0       	rjmp	.+26     	; 0x7762 <__udivmodsi4_ep>

00007748 <__udivmodsi4_loop>:
    7748:	aa 1f       	adc	r26, r26
    774a:	bb 1f       	adc	r27, r27
    774c:	ee 1f       	adc	r30, r30
    774e:	ff 1f       	adc	r31, r31
    7750:	a2 17       	cp	r26, r18
    7752:	b3 07       	cpc	r27, r19
    7754:	e4 07       	cpc	r30, r20
    7756:	f5 07       	cpc	r31, r21
    7758:	20 f0       	brcs	.+8      	; 0x7762 <__udivmodsi4_ep>
    775a:	a2 1b       	sub	r26, r18
    775c:	b3 0b       	sbc	r27, r19
    775e:	e4 0b       	sbc	r30, r20
    7760:	f5 0b       	sbc	r31, r21

00007762 <__udivmodsi4_ep>:
    7762:	66 1f       	adc	r22, r22
    7764:	77 1f       	adc	r23, r23
    7766:	88 1f       	adc	r24, r24
    7768:	99 1f       	adc	r25, r25
    776a:	1a 94       	dec	r1
    776c:	69 f7       	brne	.-38     	; 0x7748 <__udivmodsi4_loop>
    776e:	60 95       	com	r22
    7770:	70 95       	com	r23
    7772:	80 95       	com	r24
    7774:	90 95       	com	r25
    7776:	9b 01       	movw	r18, r22
    7778:	ac 01       	movw	r20, r24
    777a:	bd 01       	movw	r22, r26
    777c:	cf 01       	movw	r24, r30
    777e:	08 95       	ret

00007780 <__divmodsi4>:
    7780:	05 2e       	mov	r0, r21
    7782:	97 fb       	bst	r25, 7
    7784:	1e f4       	brtc	.+6      	; 0x778c <__divmodsi4+0xc>
    7786:	00 94       	com	r0
    7788:	0e 94 d7 3b 	call	0x77ae	; 0x77ae <__negsi2>
    778c:	57 fd       	sbrc	r21, 7
    778e:	07 d0       	rcall	.+14     	; 0x779e <__divmodsi4_neg2>
    7790:	0e 94 9e 3b 	call	0x773c	; 0x773c <__udivmodsi4>
    7794:	07 fc       	sbrc	r0, 7
    7796:	03 d0       	rcall	.+6      	; 0x779e <__divmodsi4_neg2>
    7798:	4e f4       	brtc	.+18     	; 0x77ac <__divmodsi4_exit>
    779a:	0c 94 d7 3b 	jmp	0x77ae	; 0x77ae <__negsi2>

0000779e <__divmodsi4_neg2>:
    779e:	50 95       	com	r21
    77a0:	40 95       	com	r20
    77a2:	30 95       	com	r19
    77a4:	21 95       	neg	r18
    77a6:	3f 4f       	sbci	r19, 0xFF	; 255
    77a8:	4f 4f       	sbci	r20, 0xFF	; 255
    77aa:	5f 4f       	sbci	r21, 0xFF	; 255

000077ac <__divmodsi4_exit>:
    77ac:	08 95       	ret

000077ae <__negsi2>:
    77ae:	90 95       	com	r25
    77b0:	80 95       	com	r24
    77b2:	70 95       	com	r23
    77b4:	61 95       	neg	r22
    77b6:	7f 4f       	sbci	r23, 0xFF	; 255
    77b8:	8f 4f       	sbci	r24, 0xFF	; 255
    77ba:	9f 4f       	sbci	r25, 0xFF	; 255
    77bc:	08 95       	ret

000077be <__tablejump2__>:
    77be:	ee 0f       	add	r30, r30
    77c0:	ff 1f       	adc	r31, r31
    77c2:	00 24       	eor	r0, r0
    77c4:	00 1c       	adc	r0, r0
    77c6:	0b be       	out	0x3b, r0	; 59
    77c8:	07 90       	elpm	r0, Z+
    77ca:	f6 91       	elpm	r31, Z
    77cc:	e0 2d       	mov	r30, r0
    77ce:	09 94       	ijmp

000077d0 <__umulhisi3>:
    77d0:	a2 9f       	mul	r26, r18
    77d2:	b0 01       	movw	r22, r0
    77d4:	b3 9f       	mul	r27, r19
    77d6:	c0 01       	movw	r24, r0
    77d8:	a3 9f       	mul	r26, r19
    77da:	70 0d       	add	r23, r0
    77dc:	81 1d       	adc	r24, r1
    77de:	11 24       	eor	r1, r1
    77e0:	91 1d       	adc	r25, r1
    77e2:	b2 9f       	mul	r27, r18
    77e4:	70 0d       	add	r23, r0
    77e6:	81 1d       	adc	r24, r1
    77e8:	11 24       	eor	r1, r1
    77ea:	91 1d       	adc	r25, r1
    77ec:	08 95       	ret

000077ee <__muluhisi3>:
    77ee:	0e 94 e8 3b 	call	0x77d0	; 0x77d0 <__umulhisi3>
    77f2:	a5 9f       	mul	r26, r21
    77f4:	90 0d       	add	r25, r0
    77f6:	b4 9f       	mul	r27, r20
    77f8:	90 0d       	add	r25, r0
    77fa:	a4 9f       	mul	r26, r20
    77fc:	80 0d       	add	r24, r0
    77fe:	91 1d       	adc	r25, r1
    7800:	11 24       	eor	r1, r1
    7802:	08 95       	ret

00007804 <__muldi3>:
    7804:	df 93       	push	r29
    7806:	cf 93       	push	r28
    7808:	1f 93       	push	r17
    780a:	0f 93       	push	r16
    780c:	9a 9d       	mul	r25, r10
    780e:	f0 2d       	mov	r31, r0
    7810:	21 9f       	mul	r18, r17
    7812:	f0 0d       	add	r31, r0
    7814:	8b 9d       	mul	r24, r11
    7816:	f0 0d       	add	r31, r0
    7818:	8a 9d       	mul	r24, r10
    781a:	e0 2d       	mov	r30, r0
    781c:	f1 0d       	add	r31, r1
    781e:	03 9f       	mul	r16, r19
    7820:	f0 0d       	add	r31, r0
    7822:	02 9f       	mul	r16, r18
    7824:	e0 0d       	add	r30, r0
    7826:	f1 1d       	adc	r31, r1
    7828:	4e 9d       	mul	r20, r14
    782a:	e0 0d       	add	r30, r0
    782c:	f1 1d       	adc	r31, r1
    782e:	5e 9d       	mul	r21, r14
    7830:	f0 0d       	add	r31, r0
    7832:	4f 9d       	mul	r20, r15
    7834:	f0 0d       	add	r31, r0
    7836:	7f 93       	push	r23
    7838:	6f 93       	push	r22
    783a:	bf 92       	push	r11
    783c:	af 92       	push	r10
    783e:	5f 93       	push	r21
    7840:	4f 93       	push	r20
    7842:	d5 01       	movw	r26, r10
    7844:	0e 94 e8 3b 	call	0x77d0	; 0x77d0 <__umulhisi3>
    7848:	8b 01       	movw	r16, r22
    784a:	ac 01       	movw	r20, r24
    784c:	d7 01       	movw	r26, r14
    784e:	0e 94 e8 3b 	call	0x77d0	; 0x77d0 <__umulhisi3>
    7852:	eb 01       	movw	r28, r22
    7854:	e8 0f       	add	r30, r24
    7856:	f9 1f       	adc	r31, r25
    7858:	d6 01       	movw	r26, r12
    785a:	0e 94 52 3c 	call	0x78a4	; 0x78a4 <__muldi3_6>
    785e:	2f 91       	pop	r18
    7860:	3f 91       	pop	r19
    7862:	d6 01       	movw	r26, r12
    7864:	0e 94 e8 3b 	call	0x77d0	; 0x77d0 <__umulhisi3>
    7868:	c6 0f       	add	r28, r22
    786a:	d7 1f       	adc	r29, r23
    786c:	e8 1f       	adc	r30, r24
    786e:	f9 1f       	adc	r31, r25
    7870:	af 91       	pop	r26
    7872:	bf 91       	pop	r27
    7874:	0e 94 52 3c 	call	0x78a4	; 0x78a4 <__muldi3_6>
    7878:	2f 91       	pop	r18
    787a:	3f 91       	pop	r19
    787c:	0e 94 e8 3b 	call	0x77d0	; 0x77d0 <__umulhisi3>
    7880:	c6 0f       	add	r28, r22
    7882:	d7 1f       	adc	r29, r23
    7884:	e8 1f       	adc	r30, r24
    7886:	f9 1f       	adc	r31, r25
    7888:	d6 01       	movw	r26, r12
    788a:	0e 94 e8 3b 	call	0x77d0	; 0x77d0 <__umulhisi3>
    788e:	e6 0f       	add	r30, r22
    7890:	f7 1f       	adc	r31, r23
    7892:	98 01       	movw	r18, r16
    7894:	be 01       	movw	r22, r28
    7896:	cf 01       	movw	r24, r30
    7898:	11 24       	eor	r1, r1
    789a:	0f 91       	pop	r16
    789c:	1f 91       	pop	r17
    789e:	cf 91       	pop	r28
    78a0:	df 91       	pop	r29
    78a2:	08 95       	ret

000078a4 <__muldi3_6>:
    78a4:	0e 94 e8 3b 	call	0x77d0	; 0x77d0 <__umulhisi3>
    78a8:	46 0f       	add	r20, r22
    78aa:	57 1f       	adc	r21, r23
    78ac:	c8 1f       	adc	r28, r24
    78ae:	d9 1f       	adc	r29, r25
    78b0:	08 f4       	brcc	.+2      	; 0x78b4 <__muldi3_6+0x10>
    78b2:	31 96       	adiw	r30, 0x01	; 1
    78b4:	08 95       	ret

000078b6 <__umoddi3>:
    78b6:	68 94       	set
    78b8:	01 c0       	rjmp	.+2      	; 0x78bc <__udivdi3_umoddi3>

000078ba <__udivdi3>:
    78ba:	e8 94       	clt

000078bc <__udivdi3_umoddi3>:
    78bc:	8f 92       	push	r8
    78be:	9f 92       	push	r9
    78c0:	cf 93       	push	r28
    78c2:	df 93       	push	r29
    78c4:	0e 94 69 3c 	call	0x78d2	; 0x78d2 <__udivmod64>
    78c8:	df 91       	pop	r29
    78ca:	cf 91       	pop	r28
    78cc:	9f 90       	pop	r9
    78ce:	8f 90       	pop	r8
    78d0:	08 95       	ret

000078d2 <__udivmod64>:
    78d2:	88 24       	eor	r8, r8
    78d4:	99 24       	eor	r9, r9
    78d6:	f4 01       	movw	r30, r8
    78d8:	e4 01       	movw	r28, r8
    78da:	b0 e4       	ldi	r27, 0x40	; 64
    78dc:	9f 93       	push	r25
    78de:	aa 27       	eor	r26, r26
    78e0:	9a 15       	cp	r25, r10
    78e2:	8b 04       	cpc	r8, r11
    78e4:	9c 04       	cpc	r9, r12
    78e6:	ed 05       	cpc	r30, r13
    78e8:	fe 05       	cpc	r31, r14
    78ea:	cf 05       	cpc	r28, r15
    78ec:	d0 07       	cpc	r29, r16
    78ee:	a1 07       	cpc	r26, r17
    78f0:	98 f4       	brcc	.+38     	; 0x7918 <__udivmod64+0x46>
    78f2:	ad 2f       	mov	r26, r29
    78f4:	dc 2f       	mov	r29, r28
    78f6:	cf 2f       	mov	r28, r31
    78f8:	fe 2f       	mov	r31, r30
    78fa:	e9 2d       	mov	r30, r9
    78fc:	98 2c       	mov	r9, r8
    78fe:	89 2e       	mov	r8, r25
    7900:	98 2f       	mov	r25, r24
    7902:	87 2f       	mov	r24, r23
    7904:	76 2f       	mov	r23, r22
    7906:	65 2f       	mov	r22, r21
    7908:	54 2f       	mov	r21, r20
    790a:	43 2f       	mov	r20, r19
    790c:	32 2f       	mov	r19, r18
    790e:	22 27       	eor	r18, r18
    7910:	b8 50       	subi	r27, 0x08	; 8
    7912:	31 f7       	brne	.-52     	; 0x78e0 <__udivmod64+0xe>
    7914:	bf 91       	pop	r27
    7916:	27 c0       	rjmp	.+78     	; 0x7966 <__udivmod64+0x94>
    7918:	1b 2e       	mov	r1, r27
    791a:	bf 91       	pop	r27
    791c:	bb 27       	eor	r27, r27
    791e:	22 0f       	add	r18, r18
    7920:	33 1f       	adc	r19, r19
    7922:	44 1f       	adc	r20, r20
    7924:	55 1f       	adc	r21, r21
    7926:	66 1f       	adc	r22, r22
    7928:	77 1f       	adc	r23, r23
    792a:	88 1f       	adc	r24, r24
    792c:	99 1f       	adc	r25, r25
    792e:	88 1c       	adc	r8, r8
    7930:	99 1c       	adc	r9, r9
    7932:	ee 1f       	adc	r30, r30
    7934:	ff 1f       	adc	r31, r31
    7936:	cc 1f       	adc	r28, r28
    7938:	dd 1f       	adc	r29, r29
    793a:	aa 1f       	adc	r26, r26
    793c:	bb 1f       	adc	r27, r27
    793e:	8a 14       	cp	r8, r10
    7940:	9b 04       	cpc	r9, r11
    7942:	ec 05       	cpc	r30, r12
    7944:	fd 05       	cpc	r31, r13
    7946:	ce 05       	cpc	r28, r14
    7948:	df 05       	cpc	r29, r15
    794a:	a0 07       	cpc	r26, r16
    794c:	b1 07       	cpc	r27, r17
    794e:	48 f0       	brcs	.+18     	; 0x7962 <__udivmod64+0x90>
    7950:	8a 18       	sub	r8, r10
    7952:	9b 08       	sbc	r9, r11
    7954:	ec 09       	sbc	r30, r12
    7956:	fd 09       	sbc	r31, r13
    7958:	ce 09       	sbc	r28, r14
    795a:	df 09       	sbc	r29, r15
    795c:	a0 0b       	sbc	r26, r16
    795e:	b1 0b       	sbc	r27, r17
    7960:	21 60       	ori	r18, 0x01	; 1
    7962:	1a 94       	dec	r1
    7964:	e1 f6       	brne	.-72     	; 0x791e <__udivmod64+0x4c>
    7966:	2e f4       	brtc	.+10     	; 0x7972 <__udivmod64+0xa0>
    7968:	94 01       	movw	r18, r8
    796a:	af 01       	movw	r20, r30
    796c:	be 01       	movw	r22, r28
    796e:	cd 01       	movw	r24, r26
    7970:	00 0c       	add	r0, r0
    7972:	08 95       	ret

00007974 <__ashldi3>:
    7974:	0f 93       	push	r16
    7976:	08 30       	cpi	r16, 0x08	; 8
    7978:	90 f0       	brcs	.+36     	; 0x799e <__ashldi3+0x2a>
    797a:	98 2f       	mov	r25, r24
    797c:	87 2f       	mov	r24, r23
    797e:	76 2f       	mov	r23, r22
    7980:	65 2f       	mov	r22, r21
    7982:	54 2f       	mov	r21, r20
    7984:	43 2f       	mov	r20, r19
    7986:	32 2f       	mov	r19, r18
    7988:	22 27       	eor	r18, r18
    798a:	08 50       	subi	r16, 0x08	; 8
    798c:	f4 cf       	rjmp	.-24     	; 0x7976 <__ashldi3+0x2>
    798e:	22 0f       	add	r18, r18
    7990:	33 1f       	adc	r19, r19
    7992:	44 1f       	adc	r20, r20
    7994:	55 1f       	adc	r21, r21
    7996:	66 1f       	adc	r22, r22
    7998:	77 1f       	adc	r23, r23
    799a:	88 1f       	adc	r24, r24
    799c:	99 1f       	adc	r25, r25
    799e:	0a 95       	dec	r16
    79a0:	b2 f7       	brpl	.-20     	; 0x798e <__ashldi3+0x1a>
    79a2:	0f 91       	pop	r16
    79a4:	08 95       	ret

000079a6 <__adddi3>:
    79a6:	2a 0d       	add	r18, r10
    79a8:	3b 1d       	adc	r19, r11
    79aa:	4c 1d       	adc	r20, r12
    79ac:	5d 1d       	adc	r21, r13
    79ae:	6e 1d       	adc	r22, r14
    79b0:	7f 1d       	adc	r23, r15
    79b2:	80 1f       	adc	r24, r16
    79b4:	91 1f       	adc	r25, r17
    79b6:	08 95       	ret

000079b8 <__adddi3_s8>:
    79b8:	00 24       	eor	r0, r0
    79ba:	a7 fd       	sbrc	r26, 7
    79bc:	00 94       	com	r0
    79be:	2a 0f       	add	r18, r26
    79c0:	30 1d       	adc	r19, r0
    79c2:	40 1d       	adc	r20, r0
    79c4:	50 1d       	adc	r21, r0
    79c6:	60 1d       	adc	r22, r0
    79c8:	70 1d       	adc	r23, r0
    79ca:	80 1d       	adc	r24, r0
    79cc:	90 1d       	adc	r25, r0
    79ce:	08 95       	ret

000079d0 <__subdi3>:
    79d0:	2a 19       	sub	r18, r10
    79d2:	3b 09       	sbc	r19, r11
    79d4:	4c 09       	sbc	r20, r12
    79d6:	5d 09       	sbc	r21, r13
    79d8:	6e 09       	sbc	r22, r14
    79da:	7f 09       	sbc	r23, r15
    79dc:	80 0b       	sbc	r24, r16
    79de:	91 0b       	sbc	r25, r17
    79e0:	08 95       	ret

000079e2 <__cmpdi2_s8>:
    79e2:	00 24       	eor	r0, r0
    79e4:	a7 fd       	sbrc	r26, 7
    79e6:	00 94       	com	r0
    79e8:	2a 17       	cp	r18, r26
    79ea:	30 05       	cpc	r19, r0
    79ec:	40 05       	cpc	r20, r0
    79ee:	50 05       	cpc	r21, r0
    79f0:	60 05       	cpc	r22, r0
    79f2:	70 05       	cpc	r23, r0
    79f4:	80 05       	cpc	r24, r0
    79f6:	90 05       	cpc	r25, r0
    79f8:	08 95       	ret

000079fa <__udivmodhi4>:
    79fa:	aa 1b       	sub	r26, r26
    79fc:	bb 1b       	sub	r27, r27
    79fe:	51 e1       	ldi	r21, 0x11	; 17
    7a00:	07 c0       	rjmp	.+14     	; 0x7a10 <__udivmodhi4_ep>

00007a02 <__udivmodhi4_loop>:
    7a02:	aa 1f       	adc	r26, r26
    7a04:	bb 1f       	adc	r27, r27
    7a06:	a6 17       	cp	r26, r22
    7a08:	b7 07       	cpc	r27, r23
    7a0a:	10 f0       	brcs	.+4      	; 0x7a10 <__udivmodhi4_ep>
    7a0c:	a6 1b       	sub	r26, r22
    7a0e:	b7 0b       	sbc	r27, r23

00007a10 <__udivmodhi4_ep>:
    7a10:	88 1f       	adc	r24, r24
    7a12:	99 1f       	adc	r25, r25
    7a14:	5a 95       	dec	r21
    7a16:	a9 f7       	brne	.-22     	; 0x7a02 <__udivmodhi4_loop>
    7a18:	80 95       	com	r24
    7a1a:	90 95       	com	r25
    7a1c:	bc 01       	movw	r22, r24
    7a1e:	cd 01       	movw	r24, r26
    7a20:	08 95       	ret

00007a22 <__ftoa_engine>:
    7a22:	28 30       	cpi	r18, 0x08	; 8
    7a24:	08 f0       	brcs	.+2      	; 0x7a28 <__ftoa_engine+0x6>
    7a26:	27 e0       	ldi	r18, 0x07	; 7
    7a28:	33 27       	eor	r19, r19
    7a2a:	da 01       	movw	r26, r20
    7a2c:	99 0f       	add	r25, r25
    7a2e:	31 1d       	adc	r19, r1
    7a30:	87 fd       	sbrc	r24, 7
    7a32:	91 60       	ori	r25, 0x01	; 1
    7a34:	00 96       	adiw	r24, 0x00	; 0
    7a36:	61 05       	cpc	r22, r1
    7a38:	71 05       	cpc	r23, r1
    7a3a:	39 f4       	brne	.+14     	; 0x7a4a <__ftoa_engine+0x28>
    7a3c:	32 60       	ori	r19, 0x02	; 2
    7a3e:	2e 5f       	subi	r18, 0xFE	; 254
    7a40:	3d 93       	st	X+, r19
    7a42:	30 e3       	ldi	r19, 0x30	; 48
    7a44:	2a 95       	dec	r18
    7a46:	e1 f7       	brne	.-8      	; 0x7a40 <__ftoa_engine+0x1e>
    7a48:	08 95       	ret
    7a4a:	9f 3f       	cpi	r25, 0xFF	; 255
    7a4c:	30 f0       	brcs	.+12     	; 0x7a5a <__ftoa_engine+0x38>
    7a4e:	80 38       	cpi	r24, 0x80	; 128
    7a50:	71 05       	cpc	r23, r1
    7a52:	61 05       	cpc	r22, r1
    7a54:	09 f0       	breq	.+2      	; 0x7a58 <__ftoa_engine+0x36>
    7a56:	3c 5f       	subi	r19, 0xFC	; 252
    7a58:	3c 5f       	subi	r19, 0xFC	; 252
    7a5a:	3d 93       	st	X+, r19
    7a5c:	91 30       	cpi	r25, 0x01	; 1
    7a5e:	08 f0       	brcs	.+2      	; 0x7a62 <__ftoa_engine+0x40>
    7a60:	80 68       	ori	r24, 0x80	; 128
    7a62:	91 1d       	adc	r25, r1
    7a64:	df 93       	push	r29
    7a66:	cf 93       	push	r28
    7a68:	1f 93       	push	r17
    7a6a:	0f 93       	push	r16
    7a6c:	ff 92       	push	r15
    7a6e:	ef 92       	push	r14
    7a70:	19 2f       	mov	r17, r25
    7a72:	98 7f       	andi	r25, 0xF8	; 248
    7a74:	96 95       	lsr	r25
    7a76:	e9 2f       	mov	r30, r25
    7a78:	96 95       	lsr	r25
    7a7a:	96 95       	lsr	r25
    7a7c:	e9 0f       	add	r30, r25
    7a7e:	ff 27       	eor	r31, r31
    7a80:	e4 56       	subi	r30, 0x64	; 100
    7a82:	f8 4f       	sbci	r31, 0xF8	; 248
    7a84:	99 27       	eor	r25, r25
    7a86:	33 27       	eor	r19, r19
    7a88:	ee 24       	eor	r14, r14
    7a8a:	ff 24       	eor	r15, r15
    7a8c:	a7 01       	movw	r20, r14
    7a8e:	e7 01       	movw	r28, r14
    7a90:	05 90       	lpm	r0, Z+
    7a92:	08 94       	sec
    7a94:	07 94       	ror	r0
    7a96:	28 f4       	brcc	.+10     	; 0x7aa2 <__ftoa_engine+0x80>
    7a98:	36 0f       	add	r19, r22
    7a9a:	e7 1e       	adc	r14, r23
    7a9c:	f8 1e       	adc	r15, r24
    7a9e:	49 1f       	adc	r20, r25
    7aa0:	51 1d       	adc	r21, r1
    7aa2:	66 0f       	add	r22, r22
    7aa4:	77 1f       	adc	r23, r23
    7aa6:	88 1f       	adc	r24, r24
    7aa8:	99 1f       	adc	r25, r25
    7aaa:	06 94       	lsr	r0
    7aac:	a1 f7       	brne	.-24     	; 0x7a96 <__ftoa_engine+0x74>
    7aae:	05 90       	lpm	r0, Z+
    7ab0:	07 94       	ror	r0
    7ab2:	28 f4       	brcc	.+10     	; 0x7abe <__ftoa_engine+0x9c>
    7ab4:	e7 0e       	add	r14, r23
    7ab6:	f8 1e       	adc	r15, r24
    7ab8:	49 1f       	adc	r20, r25
    7aba:	56 1f       	adc	r21, r22
    7abc:	c1 1d       	adc	r28, r1
    7abe:	77 0f       	add	r23, r23
    7ac0:	88 1f       	adc	r24, r24
    7ac2:	99 1f       	adc	r25, r25
    7ac4:	66 1f       	adc	r22, r22
    7ac6:	06 94       	lsr	r0
    7ac8:	a1 f7       	brne	.-24     	; 0x7ab2 <__ftoa_engine+0x90>
    7aca:	05 90       	lpm	r0, Z+
    7acc:	07 94       	ror	r0
    7ace:	28 f4       	brcc	.+10     	; 0x7ada <__ftoa_engine+0xb8>
    7ad0:	f8 0e       	add	r15, r24
    7ad2:	49 1f       	adc	r20, r25
    7ad4:	56 1f       	adc	r21, r22
    7ad6:	c7 1f       	adc	r28, r23
    7ad8:	d1 1d       	adc	r29, r1
    7ada:	88 0f       	add	r24, r24
    7adc:	99 1f       	adc	r25, r25
    7ade:	66 1f       	adc	r22, r22
    7ae0:	77 1f       	adc	r23, r23
    7ae2:	06 94       	lsr	r0
    7ae4:	a1 f7       	brne	.-24     	; 0x7ace <__ftoa_engine+0xac>
    7ae6:	05 90       	lpm	r0, Z+
    7ae8:	07 94       	ror	r0
    7aea:	20 f4       	brcc	.+8      	; 0x7af4 <__ftoa_engine+0xd2>
    7aec:	49 0f       	add	r20, r25
    7aee:	56 1f       	adc	r21, r22
    7af0:	c7 1f       	adc	r28, r23
    7af2:	d8 1f       	adc	r29, r24
    7af4:	99 0f       	add	r25, r25
    7af6:	66 1f       	adc	r22, r22
    7af8:	77 1f       	adc	r23, r23
    7afa:	88 1f       	adc	r24, r24
    7afc:	06 94       	lsr	r0
    7afe:	a9 f7       	brne	.-22     	; 0x7aea <__ftoa_engine+0xc8>
    7b00:	84 91       	lpm	r24, Z
    7b02:	10 95       	com	r17
    7b04:	17 70       	andi	r17, 0x07	; 7
    7b06:	41 f0       	breq	.+16     	; 0x7b18 <__ftoa_engine+0xf6>
    7b08:	d6 95       	lsr	r29
    7b0a:	c7 95       	ror	r28
    7b0c:	57 95       	ror	r21
    7b0e:	47 95       	ror	r20
    7b10:	f7 94       	ror	r15
    7b12:	e7 94       	ror	r14
    7b14:	1a 95       	dec	r17
    7b16:	c1 f7       	brne	.-16     	; 0x7b08 <__ftoa_engine+0xe6>
    7b18:	e2 e4       	ldi	r30, 0x42	; 66
    7b1a:	f7 e0       	ldi	r31, 0x07	; 7
    7b1c:	68 94       	set
    7b1e:	15 90       	lpm	r1, Z+
    7b20:	15 91       	lpm	r17, Z+
    7b22:	35 91       	lpm	r19, Z+
    7b24:	65 91       	lpm	r22, Z+
    7b26:	95 91       	lpm	r25, Z+
    7b28:	05 90       	lpm	r0, Z+
    7b2a:	7f e2       	ldi	r23, 0x2F	; 47
    7b2c:	73 95       	inc	r23
    7b2e:	e1 18       	sub	r14, r1
    7b30:	f1 0a       	sbc	r15, r17
    7b32:	43 0b       	sbc	r20, r19
    7b34:	56 0b       	sbc	r21, r22
    7b36:	c9 0b       	sbc	r28, r25
    7b38:	d0 09       	sbc	r29, r0
    7b3a:	c0 f7       	brcc	.-16     	; 0x7b2c <__ftoa_engine+0x10a>
    7b3c:	e1 0c       	add	r14, r1
    7b3e:	f1 1e       	adc	r15, r17
    7b40:	43 1f       	adc	r20, r19
    7b42:	56 1f       	adc	r21, r22
    7b44:	c9 1f       	adc	r28, r25
    7b46:	d0 1d       	adc	r29, r0
    7b48:	7e f4       	brtc	.+30     	; 0x7b68 <__ftoa_engine+0x146>
    7b4a:	70 33       	cpi	r23, 0x30	; 48
    7b4c:	11 f4       	brne	.+4      	; 0x7b52 <__ftoa_engine+0x130>
    7b4e:	8a 95       	dec	r24
    7b50:	e6 cf       	rjmp	.-52     	; 0x7b1e <__ftoa_engine+0xfc>
    7b52:	e8 94       	clt
    7b54:	01 50       	subi	r16, 0x01	; 1
    7b56:	30 f0       	brcs	.+12     	; 0x7b64 <__ftoa_engine+0x142>
    7b58:	08 0f       	add	r16, r24
    7b5a:	0a f4       	brpl	.+2      	; 0x7b5e <__ftoa_engine+0x13c>
    7b5c:	00 27       	eor	r16, r16
    7b5e:	02 17       	cp	r16, r18
    7b60:	08 f4       	brcc	.+2      	; 0x7b64 <__ftoa_engine+0x142>
    7b62:	20 2f       	mov	r18, r16
    7b64:	23 95       	inc	r18
    7b66:	02 2f       	mov	r16, r18
    7b68:	7a 33       	cpi	r23, 0x3A	; 58
    7b6a:	28 f0       	brcs	.+10     	; 0x7b76 <__ftoa_engine+0x154>
    7b6c:	79 e3       	ldi	r23, 0x39	; 57
    7b6e:	7d 93       	st	X+, r23
    7b70:	2a 95       	dec	r18
    7b72:	e9 f7       	brne	.-6      	; 0x7b6e <__ftoa_engine+0x14c>
    7b74:	10 c0       	rjmp	.+32     	; 0x7b96 <__ftoa_engine+0x174>
    7b76:	7d 93       	st	X+, r23
    7b78:	2a 95       	dec	r18
    7b7a:	89 f6       	brne	.-94     	; 0x7b1e <__ftoa_engine+0xfc>
    7b7c:	06 94       	lsr	r0
    7b7e:	97 95       	ror	r25
    7b80:	67 95       	ror	r22
    7b82:	37 95       	ror	r19
    7b84:	17 95       	ror	r17
    7b86:	17 94       	ror	r1
    7b88:	e1 18       	sub	r14, r1
    7b8a:	f1 0a       	sbc	r15, r17
    7b8c:	43 0b       	sbc	r20, r19
    7b8e:	56 0b       	sbc	r21, r22
    7b90:	c9 0b       	sbc	r28, r25
    7b92:	d0 09       	sbc	r29, r0
    7b94:	98 f0       	brcs	.+38     	; 0x7bbc <__ftoa_engine+0x19a>
    7b96:	23 95       	inc	r18
    7b98:	7e 91       	ld	r23, -X
    7b9a:	73 95       	inc	r23
    7b9c:	7a 33       	cpi	r23, 0x3A	; 58
    7b9e:	08 f0       	brcs	.+2      	; 0x7ba2 <__ftoa_engine+0x180>
    7ba0:	70 e3       	ldi	r23, 0x30	; 48
    7ba2:	7c 93       	st	X, r23
    7ba4:	20 13       	cpse	r18, r16
    7ba6:	b8 f7       	brcc	.-18     	; 0x7b96 <__ftoa_engine+0x174>
    7ba8:	7e 91       	ld	r23, -X
    7baa:	70 61       	ori	r23, 0x10	; 16
    7bac:	7d 93       	st	X+, r23
    7bae:	30 f0       	brcs	.+12     	; 0x7bbc <__ftoa_engine+0x19a>
    7bb0:	83 95       	inc	r24
    7bb2:	71 e3       	ldi	r23, 0x31	; 49
    7bb4:	7d 93       	st	X+, r23
    7bb6:	70 e3       	ldi	r23, 0x30	; 48
    7bb8:	2a 95       	dec	r18
    7bba:	e1 f7       	brne	.-8      	; 0x7bb4 <__ftoa_engine+0x192>
    7bbc:	11 24       	eor	r1, r1
    7bbe:	ef 90       	pop	r14
    7bc0:	ff 90       	pop	r15
    7bc2:	0f 91       	pop	r16
    7bc4:	1f 91       	pop	r17
    7bc6:	cf 91       	pop	r28
    7bc8:	df 91       	pop	r29
    7bca:	99 27       	eor	r25, r25
    7bcc:	87 fd       	sbrc	r24, 7
    7bce:	90 95       	com	r25
    7bd0:	08 95       	ret

00007bd2 <strnlen_P>:
    7bd2:	fc 01       	movw	r30, r24
    7bd4:	05 90       	lpm	r0, Z+
    7bd6:	61 50       	subi	r22, 0x01	; 1
    7bd8:	70 40       	sbci	r23, 0x00	; 0
    7bda:	01 10       	cpse	r0, r1
    7bdc:	d8 f7       	brcc	.-10     	; 0x7bd4 <strnlen_P+0x2>
    7bde:	80 95       	com	r24
    7be0:	90 95       	com	r25
    7be2:	8e 0f       	add	r24, r30
    7be4:	9f 1f       	adc	r25, r31
    7be6:	08 95       	ret

00007be8 <strnlen>:
    7be8:	fc 01       	movw	r30, r24
    7bea:	61 50       	subi	r22, 0x01	; 1
    7bec:	70 40       	sbci	r23, 0x00	; 0
    7bee:	01 90       	ld	r0, Z+
    7bf0:	01 10       	cpse	r0, r1
    7bf2:	d8 f7       	brcc	.-10     	; 0x7bea <strnlen+0x2>
    7bf4:	80 95       	com	r24
    7bf6:	90 95       	com	r25
    7bf8:	8e 0f       	add	r24, r30
    7bfa:	9f 1f       	adc	r25, r31
    7bfc:	08 95       	ret

00007bfe <fdevopen>:
    7bfe:	0f 93       	push	r16
    7c00:	1f 93       	push	r17
    7c02:	cf 93       	push	r28
    7c04:	df 93       	push	r29
    7c06:	00 97       	sbiw	r24, 0x00	; 0
    7c08:	31 f4       	brne	.+12     	; 0x7c16 <fdevopen+0x18>
    7c0a:	61 15       	cp	r22, r1
    7c0c:	71 05       	cpc	r23, r1
    7c0e:	19 f4       	brne	.+6      	; 0x7c16 <fdevopen+0x18>
    7c10:	80 e0       	ldi	r24, 0x00	; 0
    7c12:	90 e0       	ldi	r25, 0x00	; 0
    7c14:	3a c0       	rjmp	.+116    	; 0x7c8a <fdevopen+0x8c>
    7c16:	8b 01       	movw	r16, r22
    7c18:	ec 01       	movw	r28, r24
    7c1a:	6e e0       	ldi	r22, 0x0E	; 14
    7c1c:	70 e0       	ldi	r23, 0x00	; 0
    7c1e:	81 e0       	ldi	r24, 0x01	; 1
    7c20:	90 e0       	ldi	r25, 0x00	; 0
    7c22:	0e 94 28 3f 	call	0x7e50	; 0x7e50 <calloc>
    7c26:	fc 01       	movw	r30, r24
    7c28:	89 2b       	or	r24, r25
    7c2a:	91 f3       	breq	.-28     	; 0x7c10 <fdevopen+0x12>
    7c2c:	80 e8       	ldi	r24, 0x80	; 128
    7c2e:	83 83       	std	Z+3, r24	; 0x03
    7c30:	01 15       	cp	r16, r1
    7c32:	11 05       	cpc	r17, r1
    7c34:	71 f0       	breq	.+28     	; 0x7c52 <fdevopen+0x54>
    7c36:	02 87       	std	Z+10, r16	; 0x0a
    7c38:	13 87       	std	Z+11, r17	; 0x0b
    7c3a:	81 e8       	ldi	r24, 0x81	; 129
    7c3c:	83 83       	std	Z+3, r24	; 0x03
    7c3e:	80 91 a5 52 	lds	r24, 0x52A5	; 0x8052a5 <__iob>
    7c42:	90 91 a6 52 	lds	r25, 0x52A6	; 0x8052a6 <__iob+0x1>
    7c46:	89 2b       	or	r24, r25
    7c48:	21 f4       	brne	.+8      	; 0x7c52 <fdevopen+0x54>
    7c4a:	e0 93 a5 52 	sts	0x52A5, r30	; 0x8052a5 <__iob>
    7c4e:	f0 93 a6 52 	sts	0x52A6, r31	; 0x8052a6 <__iob+0x1>
    7c52:	20 97       	sbiw	r28, 0x00	; 0
    7c54:	c9 f0       	breq	.+50     	; 0x7c88 <fdevopen+0x8a>
    7c56:	c0 87       	std	Z+8, r28	; 0x08
    7c58:	d1 87       	std	Z+9, r29	; 0x09
    7c5a:	83 81       	ldd	r24, Z+3	; 0x03
    7c5c:	82 60       	ori	r24, 0x02	; 2
    7c5e:	83 83       	std	Z+3, r24	; 0x03
    7c60:	80 91 a7 52 	lds	r24, 0x52A7	; 0x8052a7 <__iob+0x2>
    7c64:	90 91 a8 52 	lds	r25, 0x52A8	; 0x8052a8 <__iob+0x3>
    7c68:	89 2b       	or	r24, r25
    7c6a:	71 f4       	brne	.+28     	; 0x7c88 <fdevopen+0x8a>
    7c6c:	e0 93 a7 52 	sts	0x52A7, r30	; 0x8052a7 <__iob+0x2>
    7c70:	f0 93 a8 52 	sts	0x52A8, r31	; 0x8052a8 <__iob+0x3>
    7c74:	80 91 a9 52 	lds	r24, 0x52A9	; 0x8052a9 <__iob+0x4>
    7c78:	90 91 aa 52 	lds	r25, 0x52AA	; 0x8052aa <__iob+0x5>
    7c7c:	89 2b       	or	r24, r25
    7c7e:	21 f4       	brne	.+8      	; 0x7c88 <fdevopen+0x8a>
    7c80:	e0 93 a9 52 	sts	0x52A9, r30	; 0x8052a9 <__iob+0x4>
    7c84:	f0 93 aa 52 	sts	0x52AA, r31	; 0x8052aa <__iob+0x5>
    7c88:	cf 01       	movw	r24, r30
    7c8a:	df 91       	pop	r29
    7c8c:	cf 91       	pop	r28
    7c8e:	1f 91       	pop	r17
    7c90:	0f 91       	pop	r16
    7c92:	08 95       	ret

00007c94 <fputc>:
    7c94:	0f 93       	push	r16
    7c96:	1f 93       	push	r17
    7c98:	cf 93       	push	r28
    7c9a:	df 93       	push	r29
    7c9c:	fb 01       	movw	r30, r22
    7c9e:	23 81       	ldd	r18, Z+3	; 0x03
    7ca0:	21 fd       	sbrc	r18, 1
    7ca2:	03 c0       	rjmp	.+6      	; 0x7caa <fputc+0x16>
    7ca4:	8f ef       	ldi	r24, 0xFF	; 255
    7ca6:	9f ef       	ldi	r25, 0xFF	; 255
    7ca8:	2c c0       	rjmp	.+88     	; 0x7d02 <fputc+0x6e>
    7caa:	22 ff       	sbrs	r18, 2
    7cac:	16 c0       	rjmp	.+44     	; 0x7cda <fputc+0x46>
    7cae:	46 81       	ldd	r20, Z+6	; 0x06
    7cb0:	57 81       	ldd	r21, Z+7	; 0x07
    7cb2:	24 81       	ldd	r18, Z+4	; 0x04
    7cb4:	35 81       	ldd	r19, Z+5	; 0x05
    7cb6:	42 17       	cp	r20, r18
    7cb8:	53 07       	cpc	r21, r19
    7cba:	44 f4       	brge	.+16     	; 0x7ccc <fputc+0x38>
    7cbc:	a0 81       	ld	r26, Z
    7cbe:	b1 81       	ldd	r27, Z+1	; 0x01
    7cc0:	9d 01       	movw	r18, r26
    7cc2:	2f 5f       	subi	r18, 0xFF	; 255
    7cc4:	3f 4f       	sbci	r19, 0xFF	; 255
    7cc6:	20 83       	st	Z, r18
    7cc8:	31 83       	std	Z+1, r19	; 0x01
    7cca:	8c 93       	st	X, r24
    7ccc:	26 81       	ldd	r18, Z+6	; 0x06
    7cce:	37 81       	ldd	r19, Z+7	; 0x07
    7cd0:	2f 5f       	subi	r18, 0xFF	; 255
    7cd2:	3f 4f       	sbci	r19, 0xFF	; 255
    7cd4:	26 83       	std	Z+6, r18	; 0x06
    7cd6:	37 83       	std	Z+7, r19	; 0x07
    7cd8:	14 c0       	rjmp	.+40     	; 0x7d02 <fputc+0x6e>
    7cda:	8b 01       	movw	r16, r22
    7cdc:	ec 01       	movw	r28, r24
    7cde:	fb 01       	movw	r30, r22
    7ce0:	00 84       	ldd	r0, Z+8	; 0x08
    7ce2:	f1 85       	ldd	r31, Z+9	; 0x09
    7ce4:	e0 2d       	mov	r30, r0
    7ce6:	09 95       	icall
    7ce8:	89 2b       	or	r24, r25
    7cea:	e1 f6       	brne	.-72     	; 0x7ca4 <fputc+0x10>
    7cec:	d8 01       	movw	r26, r16
    7cee:	16 96       	adiw	r26, 0x06	; 6
    7cf0:	8d 91       	ld	r24, X+
    7cf2:	9c 91       	ld	r25, X
    7cf4:	17 97       	sbiw	r26, 0x07	; 7
    7cf6:	01 96       	adiw	r24, 0x01	; 1
    7cf8:	16 96       	adiw	r26, 0x06	; 6
    7cfa:	8d 93       	st	X+, r24
    7cfc:	9c 93       	st	X, r25
    7cfe:	17 97       	sbiw	r26, 0x07	; 7
    7d00:	ce 01       	movw	r24, r28
    7d02:	df 91       	pop	r29
    7d04:	cf 91       	pop	r28
    7d06:	1f 91       	pop	r17
    7d08:	0f 91       	pop	r16
    7d0a:	08 95       	ret

00007d0c <printf>:
    7d0c:	cf 93       	push	r28
    7d0e:	df 93       	push	r29
    7d10:	cd b7       	in	r28, 0x3d	; 61
    7d12:	de b7       	in	r29, 0x3e	; 62
    7d14:	ae 01       	movw	r20, r28
    7d16:	4b 5f       	subi	r20, 0xFB	; 251
    7d18:	5f 4f       	sbci	r21, 0xFF	; 255
    7d1a:	fa 01       	movw	r30, r20
    7d1c:	61 91       	ld	r22, Z+
    7d1e:	71 91       	ld	r23, Z+
    7d20:	af 01       	movw	r20, r30
    7d22:	80 91 a7 52 	lds	r24, 0x52A7	; 0x8052a7 <__iob+0x2>
    7d26:	90 91 a8 52 	lds	r25, 0x52A8	; 0x8052a8 <__iob+0x3>
    7d2a:	0e 94 ea 37 	call	0x6fd4	; 0x6fd4 <vfprintf>
    7d2e:	df 91       	pop	r29
    7d30:	cf 91       	pop	r28
    7d32:	08 95       	ret

00007d34 <puts>:
    7d34:	0f 93       	push	r16
    7d36:	1f 93       	push	r17
    7d38:	cf 93       	push	r28
    7d3a:	df 93       	push	r29
    7d3c:	e0 91 a7 52 	lds	r30, 0x52A7	; 0x8052a7 <__iob+0x2>
    7d40:	f0 91 a8 52 	lds	r31, 0x52A8	; 0x8052a8 <__iob+0x3>
    7d44:	23 81       	ldd	r18, Z+3	; 0x03
    7d46:	21 ff       	sbrs	r18, 1
    7d48:	1b c0       	rjmp	.+54     	; 0x7d80 <puts+0x4c>
    7d4a:	8c 01       	movw	r16, r24
    7d4c:	d0 e0       	ldi	r29, 0x00	; 0
    7d4e:	c0 e0       	ldi	r28, 0x00	; 0
    7d50:	f8 01       	movw	r30, r16
    7d52:	81 91       	ld	r24, Z+
    7d54:	8f 01       	movw	r16, r30
    7d56:	60 91 a7 52 	lds	r22, 0x52A7	; 0x8052a7 <__iob+0x2>
    7d5a:	70 91 a8 52 	lds	r23, 0x52A8	; 0x8052a8 <__iob+0x3>
    7d5e:	db 01       	movw	r26, r22
    7d60:	18 96       	adiw	r26, 0x08	; 8
    7d62:	ed 91       	ld	r30, X+
    7d64:	fc 91       	ld	r31, X
    7d66:	19 97       	sbiw	r26, 0x09	; 9
    7d68:	88 23       	and	r24, r24
    7d6a:	31 f0       	breq	.+12     	; 0x7d78 <puts+0x44>
    7d6c:	09 95       	icall
    7d6e:	89 2b       	or	r24, r25
    7d70:	79 f3       	breq	.-34     	; 0x7d50 <puts+0x1c>
    7d72:	df ef       	ldi	r29, 0xFF	; 255
    7d74:	cf ef       	ldi	r28, 0xFF	; 255
    7d76:	ec cf       	rjmp	.-40     	; 0x7d50 <puts+0x1c>
    7d78:	8a e0       	ldi	r24, 0x0A	; 10
    7d7a:	09 95       	icall
    7d7c:	89 2b       	or	r24, r25
    7d7e:	19 f0       	breq	.+6      	; 0x7d86 <puts+0x52>
    7d80:	8f ef       	ldi	r24, 0xFF	; 255
    7d82:	9f ef       	ldi	r25, 0xFF	; 255
    7d84:	02 c0       	rjmp	.+4      	; 0x7d8a <puts+0x56>
    7d86:	8d 2f       	mov	r24, r29
    7d88:	9c 2f       	mov	r25, r28
    7d8a:	df 91       	pop	r29
    7d8c:	cf 91       	pop	r28
    7d8e:	1f 91       	pop	r17
    7d90:	0f 91       	pop	r16
    7d92:	08 95       	ret

00007d94 <__ultoa_invert>:
    7d94:	fa 01       	movw	r30, r20
    7d96:	aa 27       	eor	r26, r26
    7d98:	28 30       	cpi	r18, 0x08	; 8
    7d9a:	51 f1       	breq	.+84     	; 0x7df0 <__ultoa_invert+0x5c>
    7d9c:	20 31       	cpi	r18, 0x10	; 16
    7d9e:	81 f1       	breq	.+96     	; 0x7e00 <__ultoa_invert+0x6c>
    7da0:	e8 94       	clt
    7da2:	6f 93       	push	r22
    7da4:	6e 7f       	andi	r22, 0xFE	; 254
    7da6:	6e 5f       	subi	r22, 0xFE	; 254
    7da8:	7f 4f       	sbci	r23, 0xFF	; 255
    7daa:	8f 4f       	sbci	r24, 0xFF	; 255
    7dac:	9f 4f       	sbci	r25, 0xFF	; 255
    7dae:	af 4f       	sbci	r26, 0xFF	; 255
    7db0:	b1 e0       	ldi	r27, 0x01	; 1
    7db2:	3e d0       	rcall	.+124    	; 0x7e30 <__ultoa_invert+0x9c>
    7db4:	b4 e0       	ldi	r27, 0x04	; 4
    7db6:	3c d0       	rcall	.+120    	; 0x7e30 <__ultoa_invert+0x9c>
    7db8:	67 0f       	add	r22, r23
    7dba:	78 1f       	adc	r23, r24
    7dbc:	89 1f       	adc	r24, r25
    7dbe:	9a 1f       	adc	r25, r26
    7dc0:	a1 1d       	adc	r26, r1
    7dc2:	68 0f       	add	r22, r24
    7dc4:	79 1f       	adc	r23, r25
    7dc6:	8a 1f       	adc	r24, r26
    7dc8:	91 1d       	adc	r25, r1
    7dca:	a1 1d       	adc	r26, r1
    7dcc:	6a 0f       	add	r22, r26
    7dce:	71 1d       	adc	r23, r1
    7dd0:	81 1d       	adc	r24, r1
    7dd2:	91 1d       	adc	r25, r1
    7dd4:	a1 1d       	adc	r26, r1
    7dd6:	20 d0       	rcall	.+64     	; 0x7e18 <__ultoa_invert+0x84>
    7dd8:	09 f4       	brne	.+2      	; 0x7ddc <__ultoa_invert+0x48>
    7dda:	68 94       	set
    7ddc:	3f 91       	pop	r19
    7dde:	2a e0       	ldi	r18, 0x0A	; 10
    7de0:	26 9f       	mul	r18, r22
    7de2:	11 24       	eor	r1, r1
    7de4:	30 19       	sub	r19, r0
    7de6:	30 5d       	subi	r19, 0xD0	; 208
    7de8:	31 93       	st	Z+, r19
    7dea:	de f6       	brtc	.-74     	; 0x7da2 <__ultoa_invert+0xe>
    7dec:	cf 01       	movw	r24, r30
    7dee:	08 95       	ret
    7df0:	46 2f       	mov	r20, r22
    7df2:	47 70       	andi	r20, 0x07	; 7
    7df4:	40 5d       	subi	r20, 0xD0	; 208
    7df6:	41 93       	st	Z+, r20
    7df8:	b3 e0       	ldi	r27, 0x03	; 3
    7dfa:	0f d0       	rcall	.+30     	; 0x7e1a <__ultoa_invert+0x86>
    7dfc:	c9 f7       	brne	.-14     	; 0x7df0 <__ultoa_invert+0x5c>
    7dfe:	f6 cf       	rjmp	.-20     	; 0x7dec <__ultoa_invert+0x58>
    7e00:	46 2f       	mov	r20, r22
    7e02:	4f 70       	andi	r20, 0x0F	; 15
    7e04:	40 5d       	subi	r20, 0xD0	; 208
    7e06:	4a 33       	cpi	r20, 0x3A	; 58
    7e08:	18 f0       	brcs	.+6      	; 0x7e10 <__ultoa_invert+0x7c>
    7e0a:	49 5d       	subi	r20, 0xD9	; 217
    7e0c:	31 fd       	sbrc	r19, 1
    7e0e:	40 52       	subi	r20, 0x20	; 32
    7e10:	41 93       	st	Z+, r20
    7e12:	02 d0       	rcall	.+4      	; 0x7e18 <__ultoa_invert+0x84>
    7e14:	a9 f7       	brne	.-22     	; 0x7e00 <__ultoa_invert+0x6c>
    7e16:	ea cf       	rjmp	.-44     	; 0x7dec <__ultoa_invert+0x58>
    7e18:	b4 e0       	ldi	r27, 0x04	; 4
    7e1a:	a6 95       	lsr	r26
    7e1c:	97 95       	ror	r25
    7e1e:	87 95       	ror	r24
    7e20:	77 95       	ror	r23
    7e22:	67 95       	ror	r22
    7e24:	ba 95       	dec	r27
    7e26:	c9 f7       	brne	.-14     	; 0x7e1a <__ultoa_invert+0x86>
    7e28:	00 97       	sbiw	r24, 0x00	; 0
    7e2a:	61 05       	cpc	r22, r1
    7e2c:	71 05       	cpc	r23, r1
    7e2e:	08 95       	ret
    7e30:	9b 01       	movw	r18, r22
    7e32:	ac 01       	movw	r20, r24
    7e34:	0a 2e       	mov	r0, r26
    7e36:	06 94       	lsr	r0
    7e38:	57 95       	ror	r21
    7e3a:	47 95       	ror	r20
    7e3c:	37 95       	ror	r19
    7e3e:	27 95       	ror	r18
    7e40:	ba 95       	dec	r27
    7e42:	c9 f7       	brne	.-14     	; 0x7e36 <__ultoa_invert+0xa2>
    7e44:	62 0f       	add	r22, r18
    7e46:	73 1f       	adc	r23, r19
    7e48:	84 1f       	adc	r24, r20
    7e4a:	95 1f       	adc	r25, r21
    7e4c:	a0 1d       	adc	r26, r0
    7e4e:	08 95       	ret

00007e50 <calloc>:
    7e50:	0f 93       	push	r16
    7e52:	1f 93       	push	r17
    7e54:	cf 93       	push	r28
    7e56:	df 93       	push	r29
    7e58:	86 9f       	mul	r24, r22
    7e5a:	80 01       	movw	r16, r0
    7e5c:	87 9f       	mul	r24, r23
    7e5e:	10 0d       	add	r17, r0
    7e60:	96 9f       	mul	r25, r22
    7e62:	10 0d       	add	r17, r0
    7e64:	11 24       	eor	r1, r1
    7e66:	c8 01       	movw	r24, r16
    7e68:	0e 94 44 3f 	call	0x7e88	; 0x7e88 <malloc>
    7e6c:	ec 01       	movw	r28, r24
    7e6e:	00 97       	sbiw	r24, 0x00	; 0
    7e70:	29 f0       	breq	.+10     	; 0x7e7c <calloc+0x2c>
    7e72:	a8 01       	movw	r20, r16
    7e74:	60 e0       	ldi	r22, 0x00	; 0
    7e76:	70 e0       	ldi	r23, 0x00	; 0
    7e78:	0e 94 65 40 	call	0x80ca	; 0x80ca <memset>
    7e7c:	ce 01       	movw	r24, r28
    7e7e:	df 91       	pop	r29
    7e80:	cf 91       	pop	r28
    7e82:	1f 91       	pop	r17
    7e84:	0f 91       	pop	r16
    7e86:	08 95       	ret

00007e88 <malloc>:
    7e88:	0f 93       	push	r16
    7e8a:	1f 93       	push	r17
    7e8c:	cf 93       	push	r28
    7e8e:	df 93       	push	r29
    7e90:	82 30       	cpi	r24, 0x02	; 2
    7e92:	91 05       	cpc	r25, r1
    7e94:	10 f4       	brcc	.+4      	; 0x7e9a <malloc+0x12>
    7e96:	82 e0       	ldi	r24, 0x02	; 2
    7e98:	90 e0       	ldi	r25, 0x00	; 0
    7e9a:	e0 91 ad 52 	lds	r30, 0x52AD	; 0x8052ad <__flp>
    7e9e:	f0 91 ae 52 	lds	r31, 0x52AE	; 0x8052ae <__flp+0x1>
    7ea2:	20 e0       	ldi	r18, 0x00	; 0
    7ea4:	30 e0       	ldi	r19, 0x00	; 0
    7ea6:	a0 e0       	ldi	r26, 0x00	; 0
    7ea8:	b0 e0       	ldi	r27, 0x00	; 0
    7eaa:	30 97       	sbiw	r30, 0x00	; 0
    7eac:	19 f1       	breq	.+70     	; 0x7ef4 <malloc+0x6c>
    7eae:	40 81       	ld	r20, Z
    7eb0:	51 81       	ldd	r21, Z+1	; 0x01
    7eb2:	02 81       	ldd	r16, Z+2	; 0x02
    7eb4:	13 81       	ldd	r17, Z+3	; 0x03
    7eb6:	48 17       	cp	r20, r24
    7eb8:	59 07       	cpc	r21, r25
    7eba:	c8 f0       	brcs	.+50     	; 0x7eee <malloc+0x66>
    7ebc:	84 17       	cp	r24, r20
    7ebe:	95 07       	cpc	r25, r21
    7ec0:	69 f4       	brne	.+26     	; 0x7edc <malloc+0x54>
    7ec2:	10 97       	sbiw	r26, 0x00	; 0
    7ec4:	31 f0       	breq	.+12     	; 0x7ed2 <malloc+0x4a>
    7ec6:	12 96       	adiw	r26, 0x02	; 2
    7ec8:	0c 93       	st	X, r16
    7eca:	12 97       	sbiw	r26, 0x02	; 2
    7ecc:	13 96       	adiw	r26, 0x03	; 3
    7ece:	1c 93       	st	X, r17
    7ed0:	27 c0       	rjmp	.+78     	; 0x7f20 <malloc+0x98>
    7ed2:	00 93 ad 52 	sts	0x52AD, r16	; 0x8052ad <__flp>
    7ed6:	10 93 ae 52 	sts	0x52AE, r17	; 0x8052ae <__flp+0x1>
    7eda:	22 c0       	rjmp	.+68     	; 0x7f20 <malloc+0x98>
    7edc:	21 15       	cp	r18, r1
    7ede:	31 05       	cpc	r19, r1
    7ee0:	19 f0       	breq	.+6      	; 0x7ee8 <malloc+0x60>
    7ee2:	42 17       	cp	r20, r18
    7ee4:	53 07       	cpc	r21, r19
    7ee6:	18 f4       	brcc	.+6      	; 0x7eee <malloc+0x66>
    7ee8:	9a 01       	movw	r18, r20
    7eea:	bd 01       	movw	r22, r26
    7eec:	ef 01       	movw	r28, r30
    7eee:	df 01       	movw	r26, r30
    7ef0:	f8 01       	movw	r30, r16
    7ef2:	db cf       	rjmp	.-74     	; 0x7eaa <malloc+0x22>
    7ef4:	21 15       	cp	r18, r1
    7ef6:	31 05       	cpc	r19, r1
    7ef8:	f9 f0       	breq	.+62     	; 0x7f38 <malloc+0xb0>
    7efa:	28 1b       	sub	r18, r24
    7efc:	39 0b       	sbc	r19, r25
    7efe:	24 30       	cpi	r18, 0x04	; 4
    7f00:	31 05       	cpc	r19, r1
    7f02:	80 f4       	brcc	.+32     	; 0x7f24 <malloc+0x9c>
    7f04:	8a 81       	ldd	r24, Y+2	; 0x02
    7f06:	9b 81       	ldd	r25, Y+3	; 0x03
    7f08:	61 15       	cp	r22, r1
    7f0a:	71 05       	cpc	r23, r1
    7f0c:	21 f0       	breq	.+8      	; 0x7f16 <malloc+0x8e>
    7f0e:	fb 01       	movw	r30, r22
    7f10:	82 83       	std	Z+2, r24	; 0x02
    7f12:	93 83       	std	Z+3, r25	; 0x03
    7f14:	04 c0       	rjmp	.+8      	; 0x7f1e <malloc+0x96>
    7f16:	80 93 ad 52 	sts	0x52AD, r24	; 0x8052ad <__flp>
    7f1a:	90 93 ae 52 	sts	0x52AE, r25	; 0x8052ae <__flp+0x1>
    7f1e:	fe 01       	movw	r30, r28
    7f20:	32 96       	adiw	r30, 0x02	; 2
    7f22:	44 c0       	rjmp	.+136    	; 0x7fac <malloc+0x124>
    7f24:	fe 01       	movw	r30, r28
    7f26:	e2 0f       	add	r30, r18
    7f28:	f3 1f       	adc	r31, r19
    7f2a:	81 93       	st	Z+, r24
    7f2c:	91 93       	st	Z+, r25
    7f2e:	22 50       	subi	r18, 0x02	; 2
    7f30:	31 09       	sbc	r19, r1
    7f32:	28 83       	st	Y, r18
    7f34:	39 83       	std	Y+1, r19	; 0x01
    7f36:	3a c0       	rjmp	.+116    	; 0x7fac <malloc+0x124>
    7f38:	20 91 ab 52 	lds	r18, 0x52AB	; 0x8052ab <__brkval>
    7f3c:	30 91 ac 52 	lds	r19, 0x52AC	; 0x8052ac <__brkval+0x1>
    7f40:	23 2b       	or	r18, r19
    7f42:	41 f4       	brne	.+16     	; 0x7f54 <malloc+0xcc>
    7f44:	20 91 02 40 	lds	r18, 0x4002	; 0x804002 <__malloc_heap_start>
    7f48:	30 91 03 40 	lds	r19, 0x4003	; 0x804003 <__malloc_heap_start+0x1>
    7f4c:	20 93 ab 52 	sts	0x52AB, r18	; 0x8052ab <__brkval>
    7f50:	30 93 ac 52 	sts	0x52AC, r19	; 0x8052ac <__brkval+0x1>
    7f54:	20 91 00 40 	lds	r18, 0x4000	; 0x804000 <__DATA_REGION_ORIGIN__>
    7f58:	30 91 01 40 	lds	r19, 0x4001	; 0x804001 <__DATA_REGION_ORIGIN__+0x1>
    7f5c:	21 15       	cp	r18, r1
    7f5e:	31 05       	cpc	r19, r1
    7f60:	41 f4       	brne	.+16     	; 0x7f72 <malloc+0xea>
    7f62:	2d b7       	in	r18, 0x3d	; 61
    7f64:	3e b7       	in	r19, 0x3e	; 62
    7f66:	40 91 04 40 	lds	r20, 0x4004	; 0x804004 <__malloc_margin>
    7f6a:	50 91 05 40 	lds	r21, 0x4005	; 0x804005 <__malloc_margin+0x1>
    7f6e:	24 1b       	sub	r18, r20
    7f70:	35 0b       	sbc	r19, r21
    7f72:	e0 91 ab 52 	lds	r30, 0x52AB	; 0x8052ab <__brkval>
    7f76:	f0 91 ac 52 	lds	r31, 0x52AC	; 0x8052ac <__brkval+0x1>
    7f7a:	e2 17       	cp	r30, r18
    7f7c:	f3 07       	cpc	r31, r19
    7f7e:	a0 f4       	brcc	.+40     	; 0x7fa8 <malloc+0x120>
    7f80:	2e 1b       	sub	r18, r30
    7f82:	3f 0b       	sbc	r19, r31
    7f84:	28 17       	cp	r18, r24
    7f86:	39 07       	cpc	r19, r25
    7f88:	78 f0       	brcs	.+30     	; 0x7fa8 <malloc+0x120>
    7f8a:	ac 01       	movw	r20, r24
    7f8c:	4e 5f       	subi	r20, 0xFE	; 254
    7f8e:	5f 4f       	sbci	r21, 0xFF	; 255
    7f90:	24 17       	cp	r18, r20
    7f92:	35 07       	cpc	r19, r21
    7f94:	48 f0       	brcs	.+18     	; 0x7fa8 <malloc+0x120>
    7f96:	4e 0f       	add	r20, r30
    7f98:	5f 1f       	adc	r21, r31
    7f9a:	40 93 ab 52 	sts	0x52AB, r20	; 0x8052ab <__brkval>
    7f9e:	50 93 ac 52 	sts	0x52AC, r21	; 0x8052ac <__brkval+0x1>
    7fa2:	81 93       	st	Z+, r24
    7fa4:	91 93       	st	Z+, r25
    7fa6:	02 c0       	rjmp	.+4      	; 0x7fac <malloc+0x124>
    7fa8:	e0 e0       	ldi	r30, 0x00	; 0
    7faa:	f0 e0       	ldi	r31, 0x00	; 0
    7fac:	cf 01       	movw	r24, r30
    7fae:	df 91       	pop	r29
    7fb0:	cf 91       	pop	r28
    7fb2:	1f 91       	pop	r17
    7fb4:	0f 91       	pop	r16
    7fb6:	08 95       	ret

00007fb8 <free>:
    7fb8:	cf 93       	push	r28
    7fba:	df 93       	push	r29
    7fbc:	00 97       	sbiw	r24, 0x00	; 0
    7fbe:	09 f4       	brne	.+2      	; 0x7fc2 <free+0xa>
    7fc0:	81 c0       	rjmp	.+258    	; 0x80c4 <__RODATA_PM_OFFSET__+0xc4>
    7fc2:	fc 01       	movw	r30, r24
    7fc4:	32 97       	sbiw	r30, 0x02	; 2
    7fc6:	12 82       	std	Z+2, r1	; 0x02
    7fc8:	13 82       	std	Z+3, r1	; 0x03
    7fca:	a0 91 ad 52 	lds	r26, 0x52AD	; 0x8052ad <__flp>
    7fce:	b0 91 ae 52 	lds	r27, 0x52AE	; 0x8052ae <__flp+0x1>
    7fd2:	10 97       	sbiw	r26, 0x00	; 0
    7fd4:	81 f4       	brne	.+32     	; 0x7ff6 <free+0x3e>
    7fd6:	20 81       	ld	r18, Z
    7fd8:	31 81       	ldd	r19, Z+1	; 0x01
    7fda:	82 0f       	add	r24, r18
    7fdc:	93 1f       	adc	r25, r19
    7fde:	20 91 ab 52 	lds	r18, 0x52AB	; 0x8052ab <__brkval>
    7fe2:	30 91 ac 52 	lds	r19, 0x52AC	; 0x8052ac <__brkval+0x1>
    7fe6:	28 17       	cp	r18, r24
    7fe8:	39 07       	cpc	r19, r25
    7fea:	51 f5       	brne	.+84     	; 0x8040 <__RODATA_PM_OFFSET__+0x40>
    7fec:	e0 93 ab 52 	sts	0x52AB, r30	; 0x8052ab <__brkval>
    7ff0:	f0 93 ac 52 	sts	0x52AC, r31	; 0x8052ac <__brkval+0x1>
    7ff4:	67 c0       	rjmp	.+206    	; 0x80c4 <__RODATA_PM_OFFSET__+0xc4>
    7ff6:	ed 01       	movw	r28, r26
    7ff8:	20 e0       	ldi	r18, 0x00	; 0
    7ffa:	30 e0       	ldi	r19, 0x00	; 0
    7ffc:	ce 17       	cp	r28, r30
    7ffe:	df 07       	cpc	r29, r31
    8000:	40 f4       	brcc	.+16     	; 0x8012 <__RODATA_PM_OFFSET__+0x12>
    8002:	4a 81       	ldd	r20, Y+2	; 0x02
    8004:	5b 81       	ldd	r21, Y+3	; 0x03
    8006:	9e 01       	movw	r18, r28
    8008:	41 15       	cp	r20, r1
    800a:	51 05       	cpc	r21, r1
    800c:	f1 f0       	breq	.+60     	; 0x804a <__RODATA_PM_OFFSET__+0x4a>
    800e:	ea 01       	movw	r28, r20
    8010:	f5 cf       	rjmp	.-22     	; 0x7ffc <free+0x44>
    8012:	c2 83       	std	Z+2, r28	; 0x02
    8014:	d3 83       	std	Z+3, r29	; 0x03
    8016:	40 81       	ld	r20, Z
    8018:	51 81       	ldd	r21, Z+1	; 0x01
    801a:	84 0f       	add	r24, r20
    801c:	95 1f       	adc	r25, r21
    801e:	c8 17       	cp	r28, r24
    8020:	d9 07       	cpc	r29, r25
    8022:	59 f4       	brne	.+22     	; 0x803a <__RODATA_PM_OFFSET__+0x3a>
    8024:	88 81       	ld	r24, Y
    8026:	99 81       	ldd	r25, Y+1	; 0x01
    8028:	84 0f       	add	r24, r20
    802a:	95 1f       	adc	r25, r21
    802c:	02 96       	adiw	r24, 0x02	; 2
    802e:	80 83       	st	Z, r24
    8030:	91 83       	std	Z+1, r25	; 0x01
    8032:	8a 81       	ldd	r24, Y+2	; 0x02
    8034:	9b 81       	ldd	r25, Y+3	; 0x03
    8036:	82 83       	std	Z+2, r24	; 0x02
    8038:	93 83       	std	Z+3, r25	; 0x03
    803a:	21 15       	cp	r18, r1
    803c:	31 05       	cpc	r19, r1
    803e:	29 f4       	brne	.+10     	; 0x804a <__RODATA_PM_OFFSET__+0x4a>
    8040:	e0 93 ad 52 	sts	0x52AD, r30	; 0x8052ad <__flp>
    8044:	f0 93 ae 52 	sts	0x52AE, r31	; 0x8052ae <__flp+0x1>
    8048:	3d c0       	rjmp	.+122    	; 0x80c4 <__RODATA_PM_OFFSET__+0xc4>
    804a:	e9 01       	movw	r28, r18
    804c:	ea 83       	std	Y+2, r30	; 0x02
    804e:	fb 83       	std	Y+3, r31	; 0x03
    8050:	49 91       	ld	r20, Y+
    8052:	59 91       	ld	r21, Y+
    8054:	c4 0f       	add	r28, r20
    8056:	d5 1f       	adc	r29, r21
    8058:	ec 17       	cp	r30, r28
    805a:	fd 07       	cpc	r31, r29
    805c:	61 f4       	brne	.+24     	; 0x8076 <__RODATA_PM_OFFSET__+0x76>
    805e:	80 81       	ld	r24, Z
    8060:	91 81       	ldd	r25, Z+1	; 0x01
    8062:	84 0f       	add	r24, r20
    8064:	95 1f       	adc	r25, r21
    8066:	02 96       	adiw	r24, 0x02	; 2
    8068:	e9 01       	movw	r28, r18
    806a:	88 83       	st	Y, r24
    806c:	99 83       	std	Y+1, r25	; 0x01
    806e:	82 81       	ldd	r24, Z+2	; 0x02
    8070:	93 81       	ldd	r25, Z+3	; 0x03
    8072:	8a 83       	std	Y+2, r24	; 0x02
    8074:	9b 83       	std	Y+3, r25	; 0x03
    8076:	e0 e0       	ldi	r30, 0x00	; 0
    8078:	f0 e0       	ldi	r31, 0x00	; 0
    807a:	12 96       	adiw	r26, 0x02	; 2
    807c:	8d 91       	ld	r24, X+
    807e:	9c 91       	ld	r25, X
    8080:	13 97       	sbiw	r26, 0x03	; 3
    8082:	00 97       	sbiw	r24, 0x00	; 0
    8084:	19 f0       	breq	.+6      	; 0x808c <__RODATA_PM_OFFSET__+0x8c>
    8086:	fd 01       	movw	r30, r26
    8088:	dc 01       	movw	r26, r24
    808a:	f7 cf       	rjmp	.-18     	; 0x807a <__RODATA_PM_OFFSET__+0x7a>
    808c:	8d 91       	ld	r24, X+
    808e:	9c 91       	ld	r25, X
    8090:	11 97       	sbiw	r26, 0x01	; 1
    8092:	9d 01       	movw	r18, r26
    8094:	2e 5f       	subi	r18, 0xFE	; 254
    8096:	3f 4f       	sbci	r19, 0xFF	; 255
    8098:	82 0f       	add	r24, r18
    809a:	93 1f       	adc	r25, r19
    809c:	20 91 ab 52 	lds	r18, 0x52AB	; 0x8052ab <__brkval>
    80a0:	30 91 ac 52 	lds	r19, 0x52AC	; 0x8052ac <__brkval+0x1>
    80a4:	28 17       	cp	r18, r24
    80a6:	39 07       	cpc	r19, r25
    80a8:	69 f4       	brne	.+26     	; 0x80c4 <__RODATA_PM_OFFSET__+0xc4>
    80aa:	30 97       	sbiw	r30, 0x00	; 0
    80ac:	29 f4       	brne	.+10     	; 0x80b8 <__RODATA_PM_OFFSET__+0xb8>
    80ae:	10 92 ad 52 	sts	0x52AD, r1	; 0x8052ad <__flp>
    80b2:	10 92 ae 52 	sts	0x52AE, r1	; 0x8052ae <__flp+0x1>
    80b6:	02 c0       	rjmp	.+4      	; 0x80bc <__RODATA_PM_OFFSET__+0xbc>
    80b8:	12 82       	std	Z+2, r1	; 0x02
    80ba:	13 82       	std	Z+3, r1	; 0x03
    80bc:	a0 93 ab 52 	sts	0x52AB, r26	; 0x8052ab <__brkval>
    80c0:	b0 93 ac 52 	sts	0x52AC, r27	; 0x8052ac <__brkval+0x1>
    80c4:	df 91       	pop	r29
    80c6:	cf 91       	pop	r28
    80c8:	08 95       	ret

000080ca <memset>:
    80ca:	dc 01       	movw	r26, r24
    80cc:	01 c0       	rjmp	.+2      	; 0x80d0 <memset+0x6>
    80ce:	6d 93       	st	X+, r22
    80d0:	41 50       	subi	r20, 0x01	; 1
    80d2:	50 40       	sbci	r21, 0x00	; 0
    80d4:	e0 f7       	brcc	.-8      	; 0x80ce <memset+0x4>
    80d6:	08 95       	ret

000080d8 <_exit>:
    80d8:	f8 94       	cli

000080da <__stop_program>:
    80da:	ff cf       	rjmp	.-2      	; 0x80da <__stop_program>
