
Pig_Scales.elf:     file format elf32-avr

Sections:
Idx Name          Size      VMA       LMA       File off  Algn
  0 .data         000000c0  00804000  00007548  00006ffc  2**0
                  CONTENTS, ALLOC, LOAD, DATA
  1 .text         00006f48  00000600  00000600  000000b4  2**1
                  CONTENTS, ALLOC, LOAD, READONLY, CODE
  2 .bss          00000b5e  008040c0  008040c0  000070bc  2**0
                  ALLOC
  3 .fuse         00000009  00820000  00820000  000070bc  2**0
                  CONTENTS, ALLOC, LOAD, DATA
  4 .comment      0000005c  00000000  00000000  000070c5  2**0
                  CONTENTS, READONLY
  5 .note.gnu.avr.deviceinfo 00000040  00000000  00000000  00007124  2**2
                  CONTENTS, READONLY
  6 .debug_aranges 00000668  00000000  00000000  00007168  2**3
                  CONTENTS, READONLY, DEBUGGING
  7 .debug_info   0001087c  00000000  00000000  000077d0  2**0
                  CONTENTS, READONLY, DEBUGGING
  8 .debug_abbrev 000050d8  00000000  00000000  0001804c  2**0
                  CONTENTS, READONLY, DEBUGGING
  9 .debug_line   00005ae7  00000000  00000000  0001d124  2**0
                  CONTENTS, READONLY, DEBUGGING
 10 .debug_frame  00000ff4  00000000  00000000  00022c0c  2**2
                  CONTENTS, READONLY, DEBUGGING
 11 .debug_str    00003db7  00000000  00000000  00023c00  2**0
                  CONTENTS, READONLY, DEBUGGING
 12 .debug_loc    00003d49  00000000  00000000  000279b7  2**0
                  CONTENTS, READONLY, DEBUGGING
 13 .debug_ranges 00000550  00000000  00000000  0002b700  2**0
                  CONTENTS, READONLY, DEBUGGING

Disassembly of section .text:

00000600 <__vectors>:
     600:	0c 94 17 04 	jmp	0x82e	; 0x82e <__ctors_end>
     604:	0c 94 36 04 	jmp	0x86c	; 0x86c <__bad_interrupt>
     608:	0c 94 36 04 	jmp	0x86c	; 0x86c <__bad_interrupt>
     60c:	0c 94 36 04 	jmp	0x86c	; 0x86c <__bad_interrupt>
     610:	0c 94 36 04 	jmp	0x86c	; 0x86c <__bad_interrupt>
     614:	0c 94 36 04 	jmp	0x86c	; 0x86c <__bad_interrupt>
     618:	0c 94 36 04 	jmp	0x86c	; 0x86c <__bad_interrupt>
     61c:	0c 94 36 04 	jmp	0x86c	; 0x86c <__bad_interrupt>
     620:	0c 94 36 04 	jmp	0x86c	; 0x86c <__bad_interrupt>
     624:	0c 94 36 04 	jmp	0x86c	; 0x86c <__bad_interrupt>
     628:	0c 94 36 04 	jmp	0x86c	; 0x86c <__bad_interrupt>
     62c:	0c 94 36 04 	jmp	0x86c	; 0x86c <__bad_interrupt>
     630:	0c 94 36 04 	jmp	0x86c	; 0x86c <__bad_interrupt>
     634:	0c 94 36 04 	jmp	0x86c	; 0x86c <__bad_interrupt>
     638:	0c 94 36 04 	jmp	0x86c	; 0x86c <__bad_interrupt>
     63c:	0c 94 36 04 	jmp	0x86c	; 0x86c <__bad_interrupt>
     640:	0c 94 36 04 	jmp	0x86c	; 0x86c <__bad_interrupt>
     644:	0c 94 36 04 	jmp	0x86c	; 0x86c <__bad_interrupt>
     648:	0c 94 36 04 	jmp	0x86c	; 0x86c <__bad_interrupt>
     64c:	0c 94 36 04 	jmp	0x86c	; 0x86c <__bad_interrupt>
     650:	0c 94 36 04 	jmp	0x86c	; 0x86c <__bad_interrupt>
     654:	0c 94 36 04 	jmp	0x86c	; 0x86c <__bad_interrupt>
     658:	0c 94 36 04 	jmp	0x86c	; 0x86c <__bad_interrupt>
     65c:	0c 94 36 04 	jmp	0x86c	; 0x86c <__bad_interrupt>
     660:	0c 94 36 04 	jmp	0x86c	; 0x86c <__bad_interrupt>
     664:	0c 94 36 04 	jmp	0x86c	; 0x86c <__bad_interrupt>
     668:	0c 94 36 04 	jmp	0x86c	; 0x86c <__bad_interrupt>
     66c:	0c 94 36 04 	jmp	0x86c	; 0x86c <__bad_interrupt>
     670:	0c 94 36 04 	jmp	0x86c	; 0x86c <__bad_interrupt>
     674:	0c 94 36 04 	jmp	0x86c	; 0x86c <__bad_interrupt>
     678:	0c 94 36 04 	jmp	0x86c	; 0x86c <__bad_interrupt>
     67c:	0c 94 43 04 	jmp	0x886	; 0x886 <__vector_31>
     680:	0c 94 36 04 	jmp	0x86c	; 0x86c <__bad_interrupt>
     684:	0c 94 36 04 	jmp	0x86c	; 0x86c <__bad_interrupt>
     688:	0c 94 36 04 	jmp	0x86c	; 0x86c <__bad_interrupt>
     68c:	0c 94 36 04 	jmp	0x86c	; 0x86c <__bad_interrupt>
     690:	0c 94 36 04 	jmp	0x86c	; 0x86c <__bad_interrupt>
     694:	0c 94 36 04 	jmp	0x86c	; 0x86c <__bad_interrupt>
     698:	0c 94 36 04 	jmp	0x86c	; 0x86c <__bad_interrupt>
     69c:	0c 94 36 04 	jmp	0x86c	; 0x86c <__bad_interrupt>
     6a0:	0c 94 36 04 	jmp	0x86c	; 0x86c <__bad_interrupt>
     6a4:	0c 94 36 04 	jmp	0x86c	; 0x86c <__bad_interrupt>
     6a8:	0c 94 36 04 	jmp	0x86c	; 0x86c <__bad_interrupt>
     6ac:	0c 94 94 13 	jmp	0x2728	; 0x2728 <__vector_43>
     6b0:	0c 94 36 04 	jmp	0x86c	; 0x86c <__bad_interrupt>
     6b4:	0c 94 36 04 	jmp	0x86c	; 0x86c <__bad_interrupt>
     6b8:	0c 94 9b 04 	jmp	0x936	; 0x936 <__vector_46>
     6bc:	0c 94 36 04 	jmp	0x86c	; 0x86c <__bad_interrupt>
     6c0:	0c 94 36 04 	jmp	0x86c	; 0x86c <__bad_interrupt>
     6c4:	0c 94 36 04 	jmp	0x86c	; 0x86c <__bad_interrupt>
     6c8:	0c 94 36 04 	jmp	0x86c	; 0x86c <__bad_interrupt>
     6cc:	0c 94 36 04 	jmp	0x86c	; 0x86c <__bad_interrupt>
     6d0:	0c 94 6f 04 	jmp	0x8de	; 0x8de <__vector_52>
     6d4:	0c 94 36 04 	jmp	0x86c	; 0x86c <__bad_interrupt>
     6d8:	0c 94 36 04 	jmp	0x86c	; 0x86c <__bad_interrupt>
     6dc:	0c 94 36 04 	jmp	0x86c	; 0x86c <__bad_interrupt>
     6e0:	0c 94 36 04 	jmp	0x86c	; 0x86c <__bad_interrupt>
     6e4:	0c 94 36 04 	jmp	0x86c	; 0x86c <__bad_interrupt>
     6e8:	0c 94 36 04 	jmp	0x86c	; 0x86c <__bad_interrupt>
     6ec:	0c 94 36 04 	jmp	0x86c	; 0x86c <__bad_interrupt>
     6f0:	0c 94 36 04 	jmp	0x86c	; 0x86c <__bad_interrupt>
     6f4:	0c 94 36 04 	jmp	0x86c	; 0x86c <__bad_interrupt>
     6f8:	0c 94 36 04 	jmp	0x86c	; 0x86c <__bad_interrupt>
     6fc:	0c 94 36 04 	jmp	0x86c	; 0x86c <__bad_interrupt>
     700:	f6 23       	and	r31, r22
     702:	85 22       	and	r8, r21
     704:	b4 22       	and	r11, r20
     706:	e4 22       	and	r14, r20
     708:	12 23       	and	r17, r18
     70a:	4b 23       	and	r20, r27
     70c:	81 23       	and	r24, r17
     70e:	f4 23       	and	r31, r20
     710:	68 24       	eor	r6, r8
     712:	6c 24       	eor	r6, r12
     714:	70 24       	eor	r7, r0
     716:	74 24       	eor	r7, r4
     718:	7a 24       	eor	r7, r10
     71a:	7e 24       	eor	r7, r14
     71c:	82 24       	eor	r8, r2
     71e:	44 25       	eor	r20, r4
     720:	ae 25       	eor	r26, r14
     722:	17 26       	eor	r1, r23
     724:	7f 26       	eor	r7, r31
     726:	e9 26       	eor	r14, r25
     728:	53 27       	eor	r21, r19
     72a:	ba 27       	eor	r27, r26

0000072c <__trampolines_end>:
     72c:	6e 61       	ori	r22, 0x1E	; 30
     72e:	6e 00       	.word	0x006e	; ????

00000730 <__c.2332>:
     730:	69 6e 66 00 00 40 7a 10 f3 5a 00 a0 72 4e 18 09     inf..@z..Z..rN..
     740:	00 10 a5 d4 e8 00 00 e8 76 48 17 00 00 e4 0b 54     ........vH.....T
     750:	02 00 00 ca 9a 3b 00 00 00 e1 f5 05 00 00 80 96     .....;..........
     760:	98 00 00 00 40 42 0f 00 00 00 a0 86 01 00 00 00     ....@B..........
     770:	10 27 00 00 00 00 e8 03 00 00 00 00 64 00 00 00     .'..........d...
     780:	00 00 0a 00 00 00 00 00 01 00 00 00 00 00 2c 76     ..............,v
     790:	d8 88 dc 67 4f 08 23 df c1 df ae 59 e1 b1 b7 96     ...gO.#....Y....
     7a0:	e5 e3 e4 53 c6 3a e6 51 99 76 96 e8 e6 c2 84 26     ...S.:.Q.v.....&
     7b0:	eb 89 8c 9b 62 ed 40 7c 6f fc ef bc 9c 9f 40 f2     ....b.@|o.....@.
     7c0:	ba a5 6f a5 f4 90 05 5a 2a f7 5c 93 6b 6c f9 67     ..o....Z*.\.kl.g
     7d0:	6d c1 1b fc e0 e4 0d 47 fe f5 20 e6 b5 00 d0 ed     m......G.. .....
     7e0:	90 2e 03 00 94 35 77 05 00 80 84 1e 08 00 00 20     .....5w........ 
     7f0:	4e 0a 00 00 00 c8 0c 33 33 33 33 0f 98 6e 12 83     N......3333..n..
     800:	11 41 ef 8d 21 14 89 3b e6 55 16 cf fe e6 db 18     .A..!..;.U......
     810:	d1 84 4b 38 1b f7 7c 1d 90 1d a4 bb e4 24 20 32     ..K8..|......$ 2
     820:	84 72 5e 22 81 00 c9 f1 24 ec a1 e5 3d 27           .r^"....$...='

0000082e <__ctors_end>:
     82e:	11 24       	eor	r1, r1
     830:	1f be       	out	0x3f, r1	; 63
     832:	cf ef       	ldi	r28, 0xFF	; 255
     834:	cd bf       	out	0x3d, r28	; 61
     836:	df e7       	ldi	r29, 0x7F	; 127
     838:	de bf       	out	0x3e, r29	; 62

0000083a <__do_copy_data>:
     83a:	10 e4       	ldi	r17, 0x40	; 64
     83c:	a0 e0       	ldi	r26, 0x00	; 0
     83e:	b0 e4       	ldi	r27, 0x40	; 64
     840:	e8 e4       	ldi	r30, 0x48	; 72
     842:	f5 e7       	ldi	r31, 0x75	; 117
     844:	00 e0       	ldi	r16, 0x00	; 0
     846:	0b bf       	out	0x3b, r16	; 59
     848:	02 c0       	rjmp	.+4      	; 0x84e <__do_copy_data+0x14>
     84a:	07 90       	elpm	r0, Z+
     84c:	0d 92       	st	X+, r0
     84e:	a0 3c       	cpi	r26, 0xC0	; 192
     850:	b1 07       	cpc	r27, r17
     852:	d9 f7       	brne	.-10     	; 0x84a <__do_copy_data+0x10>

00000854 <__do_clear_bss>:
     854:	2c e4       	ldi	r18, 0x4C	; 76
     856:	a0 ec       	ldi	r26, 0xC0	; 192
     858:	b0 e4       	ldi	r27, 0x40	; 64
     85a:	01 c0       	rjmp	.+2      	; 0x85e <.do_clear_bss_start>

0000085c <.do_clear_bss_loop>:
     85c:	1d 92       	st	X+, r1

0000085e <.do_clear_bss_start>:
     85e:	ae 31       	cpi	r26, 0x1E	; 30
     860:	b2 07       	cpc	r27, r18
     862:	e1 f7       	brne	.-8      	; 0x85c <.do_clear_bss_loop>
     864:	0e 94 1d 0d 	call	0x1a3a	; 0x1a3a <main>
     868:	0c 94 a2 3a 	jmp	0x7544	; 0x7544 <_exit>

0000086c <__bad_interrupt>:
     86c:	0c 94 00 03 	jmp	0x600	; 0x600 <__vectors>

00000870 <atmel_start_init>:
/**
 * Initializes MCU, drivers and middleware in the project
 **/
void atmel_start_init(void)
{
	system_init();
     870:	0e 94 26 0f 	call	0x1e4c	; 0x1e4c <system_init>
     874:	08 95       	ret

00000876 <Beep>:
#include <compiler.h>

//=================================================================================================
void Beep(uint16_t BeepTimer_1ms)
{
	Buzzer_ON;								// Buzzer on
     876:	e4 e0       	ldi	r30, 0x04	; 4
     878:	f4 e0       	ldi	r31, 0x04	; 4
     87a:	90 81       	ld	r25, Z
     87c:	92 60       	ori	r25, 0x02	; 2
     87e:	90 83       	st	Z, r25
	Beep_Timer = BeepTimer_1ms;
     880:	80 93 f1 4a 	sts	0x4AF1, r24	; 0x804af1 <Beep_Timer>
     884:	08 95       	ret

00000886 <__vector_31>:
#endif

//=================================================================================================
#ifdef Usart_1
ISR(USART1_RXC_vect)
{
     886:	1f 92       	push	r1
     888:	0f 92       	push	r0
     88a:	0f b6       	in	r0, 0x3f	; 63
     88c:	0f 92       	push	r0
     88e:	11 24       	eor	r1, r1
     890:	0b b6       	in	r0, 0x3b	; 59
     892:	0f 92       	push	r0
     894:	8f 93       	push	r24
     896:	9f 93       	push	r25
     898:	ef 93       	push	r30
     89a:	ff 93       	push	r31
	while(!(USART1.STATUS & USART_RXCIF_bm)) ;
     89c:	80 91 24 08 	lds	r24, 0x0824	; 0x800824 <__TEXT_REGION_LENGTH__+0x7e0824>
     8a0:	88 23       	and	r24, r24
     8a2:	e4 f7       	brge	.-8      	; 0x89c <__vector_31+0x16>
	Rx1_Buff[Rx1_Cnt] = USART1.RXDATAL;
     8a4:	80 91 65 4a 	lds	r24, 0x4A65	; 0x804a65 <Rx1_Cnt>
     8a8:	e8 2f       	mov	r30, r24
     8aa:	f0 e0       	ldi	r31, 0x00	; 0
     8ac:	90 91 20 08 	lds	r25, 0x0820	; 0x800820 <__TEXT_REGION_LENGTH__+0x7e0820>
     8b0:	e1 59       	subi	r30, 0x91	; 145
     8b2:	f5 4b       	sbci	r31, 0xB5	; 181
     8b4:	90 83       	st	Z, r25
	if(Rx1_Cnt >= RX1_SIZE) {Rx1_Cnt = 0;}					// RX1_SIZE : 250
     8b6:	89 31       	cpi	r24, 0x19	; 25
     8b8:	10 f0       	brcs	.+4      	; 0x8be <__vector_31+0x38>
     8ba:	10 92 65 4a 	sts	0x4A65, r1	; 0x804a65 <Rx1_Cnt>
	Rx1_Cnt++;
     8be:	80 91 65 4a 	lds	r24, 0x4A65	; 0x804a65 <Rx1_Cnt>
     8c2:	8f 5f       	subi	r24, 0xFF	; 255
     8c4:	80 93 65 4a 	sts	0x4A65, r24	; 0x804a65 <Rx1_Cnt>
}
     8c8:	ff 91       	pop	r31
     8ca:	ef 91       	pop	r30
     8cc:	9f 91       	pop	r25
     8ce:	8f 91       	pop	r24
     8d0:	0f 90       	pop	r0
     8d2:	0b be       	out	0x3b, r0	; 59
     8d4:	0f 90       	pop	r0
     8d6:	0f be       	out	0x3f, r0	; 63
     8d8:	0f 90       	pop	r0
     8da:	1f 90       	pop	r1
     8dc:	18 95       	reti

000008de <__vector_52>:
#endif

//=================================================================================================
#ifdef Usart_3
ISR(USART3_RXC_vect)
{
     8de:	1f 92       	push	r1
     8e0:	0f 92       	push	r0
     8e2:	0f b6       	in	r0, 0x3f	; 63
     8e4:	0f 92       	push	r0
     8e6:	11 24       	eor	r1, r1
     8e8:	0b b6       	in	r0, 0x3b	; 59
     8ea:	0f 92       	push	r0
     8ec:	8f 93       	push	r24
     8ee:	9f 93       	push	r25
     8f0:	ef 93       	push	r30
     8f2:	ff 93       	push	r31
	while(!(USART3.STATUS & USART_RXCIF_bm)) ;
     8f4:	80 91 64 08 	lds	r24, 0x0864	; 0x800864 <__TEXT_REGION_LENGTH__+0x7e0864>
     8f8:	88 23       	and	r24, r24
     8fa:	e4 f7       	brge	.-8      	; 0x8f4 <__vector_52+0x16>
	Rx3_Buff[Rx3_Cnt] = USART3.RXDATAL;
     8fc:	80 91 f9 4a 	lds	r24, 0x4AF9	; 0x804af9 <Rx3_Cnt>
     900:	e8 2f       	mov	r30, r24
     902:	f0 e0       	ldi	r31, 0x00	; 0
     904:	90 91 60 08 	lds	r25, 0x0860	; 0x800860 <__TEXT_REGION_LENGTH__+0x7e0860>
     908:	e0 5f       	subi	r30, 0xF0	; 240
     90a:	f4 4b       	sbci	r31, 0xB4	; 180
     90c:	90 83       	st	Z, r25
	if(Rx3_Cnt >= RX3_SIZE) {Rx3_Cnt = 0;}					// RX3_SIZE : 250
     90e:	8a 3f       	cpi	r24, 0xFA	; 250
     910:	10 f0       	brcs	.+4      	; 0x916 <__vector_52+0x38>
     912:	10 92 f9 4a 	sts	0x4AF9, r1	; 0x804af9 <Rx3_Cnt>
	Rx3_Cnt++;
     916:	80 91 f9 4a 	lds	r24, 0x4AF9	; 0x804af9 <Rx3_Cnt>
     91a:	8f 5f       	subi	r24, 0xFF	; 255
     91c:	80 93 f9 4a 	sts	0x4AF9, r24	; 0x804af9 <Rx3_Cnt>
}
     920:	ff 91       	pop	r31
     922:	ef 91       	pop	r30
     924:	9f 91       	pop	r25
     926:	8f 91       	pop	r24
     928:	0f 90       	pop	r0
     92a:	0b be       	out	0x3b, r0	; 59
     92c:	0f 90       	pop	r0
     92e:	0f be       	out	0x3f, r0	; 63
     930:	0f 90       	pop	r0
     932:	1f 90       	pop	r1
     934:	18 95       	reti

00000936 <__vector_46>:
#endif

//=================================================================================================
#ifdef Timer_1
ISR(TCA1_OVF_vect)								// 5mSec Timer
{
     936:	1f 92       	push	r1
     938:	0f 92       	push	r0
     93a:	0f b6       	in	r0, 0x3f	; 63
     93c:	0f 92       	push	r0
     93e:	11 24       	eor	r1, r1
     940:	0b b6       	in	r0, 0x3b	; 59
     942:	0f 92       	push	r0
     944:	2f 93       	push	r18
     946:	3f 93       	push	r19
     948:	4f 93       	push	r20
     94a:	5f 93       	push	r21
     94c:	6f 93       	push	r22
     94e:	7f 93       	push	r23
     950:	8f 93       	push	r24
     952:	9f 93       	push	r25
     954:	af 93       	push	r26
     956:	bf 93       	push	r27
     958:	ef 93       	push	r30
     95a:	ff 93       	push	r31
	TCA1.SINGLE.INTFLAGS = TCA_SINGLE_OVF_bm;				// TCA1 ┐└╣÷╟├╖╬┐÷ SET
     95c:	81 e0       	ldi	r24, 0x01	; 1
     95e:	80 93 4b 0a 	sts	0x0A4B, r24	; 0x800a4b <__TEXT_REGION_LENGTH__+0x7e0a4b>

	Fnd_Display();								// FND Display
     962:	0e 94 40 05 	call	0xa80	; 0xa80 <Fnd_Display>
	Key_Scan();								// key └╘╖┬ ├╝┼σ
     966:	0e 94 e0 05 	call	0xbc0	; 0xbc0 <Key_Scan>

	if(Timer.Input_Key == 0) {KEY.Buff = 0; KEY.Key = 0;}			// Timer.Input_Key ░κ 0 └╠╕ώ Key ░ς ╣╫ Key └╘╖┬ ├╩▒έ╚φ
     96a:	80 91 b7 4a 	lds	r24, 0x4AB7	; 0x804ab7 <Timer>
     96e:	81 11       	cpse	r24, r1
     970:	05 c0       	rjmp	.+10     	; 0x97c <__vector_46+0x46>
     972:	e5 ed       	ldi	r30, 0xD5	; 213
     974:	fa e4       	ldi	r31, 0x4A	; 74
     976:	11 82       	std	Z+1, r1	; 0x01
     978:	12 82       	std	Z+2, r1	; 0x02
     97a:	05 c0       	rjmp	.+10     	; 0x986 <__vector_46+0x50>
	else			 {Timer.Input_Key--;}				// Timer.Input_Key ░κ 0 └╠ ╛╞┤╧╕ώ Timer.Input_Key ░ρ╝╥
     97c:	e7 eb       	ldi	r30, 0xB7	; 183
     97e:	fa e4       	ldi	r31, 0x4A	; 74
     980:	80 81       	ld	r24, Z
     982:	81 50       	subi	r24, 0x01	; 1
     984:	80 83       	st	Z, r24
//-------------------------------------------------------------------------------------------------
	if(Beep_Timer == 0) {Buzzer_OFF;}					// Beep_Timer ░κ 0 └╠╕ώ Buzzer OFF
     986:	80 91 f1 4a 	lds	r24, 0x4AF1	; 0x804af1 <Beep_Timer>
     98a:	81 11       	cpse	r24, r1
     98c:	06 c0       	rjmp	.+12     	; 0x99a <__vector_46+0x64>
     98e:	e4 e0       	ldi	r30, 0x04	; 4
     990:	f4 e0       	ldi	r31, 0x04	; 4
     992:	80 81       	ld	r24, Z
     994:	8d 7f       	andi	r24, 0xFD	; 253
     996:	80 83       	st	Z, r24
     998:	03 c0       	rjmp	.+6      	; 0x9a0 <__vector_46+0x6a>
	else		    {Beep_Timer--;}					// Beep_Timer ░κ 0 └╠ ╛╞┤╧╕ώ Beep_Timer ░ρ╝╥
     99a:	81 50       	subi	r24, 0x01	; 1
     99c:	80 93 f1 4a 	sts	0x4AF1, r24	; 0x804af1 <Beep_Timer>
//-------------------------------------------------------------------------------------------------
	Timer.RegExitTimer++;							// Timer.RegExitTimer ┴Ϋ░κ (5mSec ╕╢┤┘)
     9a0:	e7 eb       	ldi	r30, 0xB7	; 183
     9a2:	fa e4       	ldi	r31, 0x4A	; 74
     9a4:	81 81       	ldd	r24, Z+1	; 0x01
     9a6:	92 81       	ldd	r25, Z+2	; 0x02
     9a8:	01 96       	adiw	r24, 0x01	; 1
     9aa:	81 83       	std	Z+1, r24	; 0x01
     9ac:	92 83       	std	Z+2, r25	; 0x02
	if(Timer.RegExitTimer >= REG_EXIT_TIME)					// Timer.RegExitTimer ░κ REG_EXIT_TIME ░· ░░░┼│ς ┼σ╕ώ
     9ae:	81 81       	ldd	r24, Z+1	; 0x01
     9b0:	92 81       	ldd	r25, Z+2	; 0x02
     9b2:	80 3d       	cpi	r24, 0xD0	; 208
     9b4:	97 40       	sbci	r25, 0x07	; 7
     9b6:	20 f0       	brcs	.+8      	; 0x9c0 <__vector_46+0x8a>
	{									// ╝│┴ν ╕Ώ╡ί╚─ └╧┴ν╜├░μ(10├╩) ╣÷╞░ └╘╖┬ ╛°└╕╕ώ ┼╗├έ
		SET.Menu = 0;							// Menu ╕Ώ╡ί ├╩▒έ╚φ
     9b8:	ef e8       	ldi	r30, 0x8F	; 143
     9ba:	fa e4       	ldi	r31, 0x4A	; 74
     9bc:	10 82       	st	Z, r1
		SET.Select = 0;							// Select ╕Ώ╡ί ├╩▒έ╚φ
     9be:	11 82       	std	Z+1, r1	; 0x01
	}
//-------------------------------------------------------------------------------------------------
	Timer.RTC_Timer++;							// Timer.RTC_Timer ┴Ϋ░κ (5mSec ╕╢┤┘)
     9c0:	e7 eb       	ldi	r30, 0xB7	; 183
     9c2:	fa e4       	ldi	r31, 0x4A	; 74
     9c4:	83 81       	ldd	r24, Z+3	; 0x03
     9c6:	94 81       	ldd	r25, Z+4	; 0x04
     9c8:	01 96       	adiw	r24, 0x01	; 1
     9ca:	83 83       	std	Z+3, r24	; 0x03
     9cc:	94 83       	std	Z+4, r25	; 0x04
//  	Timer.Limit_Timer++;							// ╣τ░╘├°┴ν ┴ο╟╤ ╜├░μ ┴Ϋ░κ (5mSec ╕╢┤┘)
//-------------------------------------------------------------------------------------------------
	Blink_Timer++;								// Blink_Timer ┴Ϋ░κ (5mSec ╕╢┤┘)
     9ce:	80 91 9b 4a 	lds	r24, 0x4A9B	; 0x804a9b <Blink_Timer>
     9d2:	8f 5f       	subi	r24, 0xFF	; 255
     9d4:	80 93 9b 4a 	sts	0x4A9B, r24	; 0x804a9b <Blink_Timer>
	if(Blink_Timer > 50)							// Blink_Timer └╠ 50(0.25├╩)║╕┤┘ ┼σ╕ώ
     9d8:	83 33       	cpi	r24, 0x33	; 51
     9da:	48 f0       	brcs	.+18     	; 0x9ee <__vector_46+0xb8>
	{
		Blink = Blink ? 0 : 1;						// Blink └╠ 1└╠╕ώ 0└╕╖╬ 0└╠╕ώ 1╖╬ ║ψ░ό
     9dc:	81 e0       	ldi	r24, 0x01	; 1
     9de:	90 91 02 4b 	lds	r25, 0x4B02	; 0x804b02 <Blink>
     9e2:	91 11       	cpse	r25, r1
     9e4:	80 e0       	ldi	r24, 0x00	; 0
     9e6:	80 93 02 4b 	sts	0x4B02, r24	; 0x804b02 <Blink>
		Blink_Timer = 0;						// Blink_Timer ├╩▒έ╚φ
     9ea:	10 92 9b 4a 	sts	0x4A9B, r1	; 0x804a9b <Blink_Timer>
	}
//-------------------------------------------------------------------------------------------------
}
     9ee:	ff 91       	pop	r31
     9f0:	ef 91       	pop	r30
     9f2:	bf 91       	pop	r27
     9f4:	af 91       	pop	r26
     9f6:	9f 91       	pop	r25
     9f8:	8f 91       	pop	r24
     9fa:	7f 91       	pop	r23
     9fc:	6f 91       	pop	r22
     9fe:	5f 91       	pop	r21
     a00:	4f 91       	pop	r20
     a02:	3f 91       	pop	r19
     a04:	2f 91       	pop	r18
     a06:	0f 90       	pop	r0
     a08:	0b be       	out	0x3b, r0	; 59
     a0a:	0f 90       	pop	r0
     a0c:	0f be       	out	0x3f, r0	; 63
     a0e:	0f 90       	pop	r0
     a10:	1f 90       	pop	r1
     a12:	18 95       	reti

00000a14 <std_putchar>:
		DIGIT[i][3] = FND_OFF;						// DIGIT[3] OFF
		DIGIT[i][2] = FND_OFF;						// DIGIT[2] OFF
		DIGIT[i][1] = FND_OFF;						// DIGIT[1] OFF
		DIGIT[i][0] = FND_OFF;						// DIGIT[0] OFF
	}
}
     a14:	cf 93       	push	r28
     a16:	c8 2f       	mov	r28, r24
     a18:	80 91 d4 4a 	lds	r24, 0x4AD4	; 0x804ad4 <printf_port>
     a1c:	81 30       	cpi	r24, 0x01	; 1
     a1e:	19 f4       	brne	.+6      	; 0xa26 <std_putchar+0x12>
     a20:	8c 2f       	mov	r24, r28
     a22:	0e 94 f9 27 	call	0x4ff2	; 0x4ff2 <USART1_Write>
     a26:	80 91 d4 4a 	lds	r24, 0x4AD4	; 0x804ad4 <printf_port>
     a2a:	83 30       	cpi	r24, 0x03	; 3
     a2c:	19 f4       	brne	.+6      	; 0xa34 <std_putchar+0x20>
     a2e:	8c 2f       	mov	r24, r28
     a30:	0e 94 0e 28 	call	0x501c	; 0x501c <USART3_Write>
     a34:	80 e0       	ldi	r24, 0x00	; 0
     a36:	90 e0       	ldi	r25, 0x00	; 0
     a38:	cf 91       	pop	r28
     a3a:	08 95       	ret

00000a3c <MCU_Init>:
     a3c:	8e e0       	ldi	r24, 0x0E	; 14
     a3e:	80 93 00 04 	sts	0x0400, r24	; 0x800400 <__TEXT_REGION_LENGTH__+0x7e0400>
     a42:	8d e0       	ldi	r24, 0x0D	; 13
     a44:	80 93 20 04 	sts	0x0420, r24	; 0x800420 <__TEXT_REGION_LENGTH__+0x7e0420>
     a48:	85 e5       	ldi	r24, 0x55	; 85
     a4a:	80 93 40 04 	sts	0x0440, r24	; 0x800440 <__TEXT_REGION_LENGTH__+0x7e0440>
     a4e:	10 92 60 04 	sts	0x0460, r1	; 0x800460 <__TEXT_REGION_LENGTH__+0x7e0460>
     a52:	10 92 80 04 	sts	0x0480, r1	; 0x800480 <__TEXT_REGION_LENGTH__+0x7e0480>
     a56:	8c e0       	ldi	r24, 0x0C	; 12
     a58:	80 93 a0 04 	sts	0x04A0, r24	; 0x8004a0 <__TEXT_REGION_LENGTH__+0x7e04a0>
     a5c:	87 ef       	ldi	r24, 0xF7	; 247
     a5e:	80 93 c0 04 	sts	0x04C0, r24	; 0x8004c0 <__TEXT_REGION_LENGTH__+0x7e04c0>
     a62:	10 92 04 04 	sts	0x0404, r1	; 0x800404 <__TEXT_REGION_LENGTH__+0x7e0404>
     a66:	10 92 24 04 	sts	0x0424, r1	; 0x800424 <__TEXT_REGION_LENGTH__+0x7e0424>
     a6a:	10 92 44 04 	sts	0x0444, r1	; 0x800444 <__TEXT_REGION_LENGTH__+0x7e0444>
     a6e:	10 92 64 04 	sts	0x0464, r1	; 0x800464 <__TEXT_REGION_LENGTH__+0x7e0464>
     a72:	10 92 84 04 	sts	0x0484, r1	; 0x800484 <__TEXT_REGION_LENGTH__+0x7e0484>
     a76:	10 92 a4 04 	sts	0x04A4, r1	; 0x8004a4 <__TEXT_REGION_LENGTH__+0x7e04a4>
     a7a:	10 92 c4 04 	sts	0x04C4, r1	; 0x8004c4 <__TEXT_REGION_LENGTH__+0x7e04c4>
     a7e:	08 95       	ret

00000a80 <Fnd_Display>:
     a80:	32 e0       	ldi	r19, 0x02	; 2
     a82:	2f c0       	rjmp	.+94     	; 0xae2 <Fnd_Display+0x62>
     a84:	e4 ec       	ldi	r30, 0xC4	; 196
     a86:	f4 e0       	ldi	r31, 0x04	; 4
     a88:	80 81       	ld	r24, Z
     a8a:	8d 7f       	andi	r24, 0xFD	; 253
     a8c:	80 83       	st	Z, r24
     a8e:	80 91 c2 40 	lds	r24, 0x40C2	; 0x8040c2 <cnt.6429>
     a92:	94 e0       	ldi	r25, 0x04	; 4
     a94:	39 02       	muls	r19, r25
     a96:	f0 01       	movw	r30, r0
     a98:	11 24       	eor	r1, r1
     a9a:	ed 53       	subi	r30, 0x3D	; 61
     a9c:	ff 4b       	sbci	r31, 0xBF	; 191
     a9e:	e8 0f       	add	r30, r24
     aa0:	f1 1d       	adc	r31, r1
     aa2:	80 81       	ld	r24, Z
     aa4:	90 e0       	ldi	r25, 0x00	; 0
     aa6:	02 2e       	mov	r0, r18
     aa8:	02 c0       	rjmp	.+4      	; 0xaae <Fnd_Display+0x2e>
     aaa:	95 95       	asr	r25
     aac:	87 95       	ror	r24
     aae:	0a 94       	dec	r0
     ab0:	e2 f7       	brpl	.-8      	; 0xaaa <Fnd_Display+0x2a>
     ab2:	80 ff       	sbrs	r24, 0
     ab4:	06 c0       	rjmp	.+12     	; 0xac2 <Fnd_Display+0x42>
     ab6:	e4 ec       	ldi	r30, 0xC4	; 196
     ab8:	f4 e0       	ldi	r31, 0x04	; 4
     aba:	80 81       	ld	r24, Z
     abc:	84 60       	ori	r24, 0x04	; 4
     abe:	80 83       	st	Z, r24
     ac0:	05 c0       	rjmp	.+10     	; 0xacc <Fnd_Display+0x4c>
     ac2:	e4 ec       	ldi	r30, 0xC4	; 196
     ac4:	f4 e0       	ldi	r31, 0x04	; 4
     ac6:	80 81       	ld	r24, Z
     ac8:	8b 7f       	andi	r24, 0xFB	; 251
     aca:	80 83       	st	Z, r24
     acc:	e4 ec       	ldi	r30, 0xC4	; 196
     ace:	f4 e0       	ldi	r31, 0x04	; 4
     ad0:	80 81       	ld	r24, Z
     ad2:	82 60       	ori	r24, 0x02	; 2
     ad4:	80 83       	st	Z, r24
     ad6:	2f 5f       	subi	r18, 0xFF	; 255
     ad8:	01 c0       	rjmp	.+2      	; 0xadc <Fnd_Display+0x5c>
     ada:	20 e0       	ldi	r18, 0x00	; 0
     adc:	28 30       	cpi	r18, 0x08	; 8
     ade:	90 f2       	brcs	.-92     	; 0xa84 <Fnd_Display+0x4>
     ae0:	31 50       	subi	r19, 0x01	; 1
     ae2:	33 23       	and	r19, r19
     ae4:	d4 f7       	brge	.-12     	; 0xada <Fnd_Display+0x5a>
     ae6:	e4 ec       	ldi	r30, 0xC4	; 196
     ae8:	f4 e0       	ldi	r31, 0x04	; 4
     aea:	80 81       	ld	r24, Z
     aec:	81 60       	ori	r24, 0x01	; 1
     aee:	80 83       	st	Z, r24
     af0:	80 81       	ld	r24, Z
     af2:	8e 7f       	andi	r24, 0xFE	; 254
     af4:	80 83       	st	Z, r24
     af6:	80 91 c2 40 	lds	r24, 0x40C2	; 0x8040c2 <cnt.6429>
     afa:	81 30       	cpi	r24, 0x01	; 1
     afc:	a9 f0       	breq	.+42     	; 0xb28 <Fnd_Display+0xa8>
     afe:	28 f0       	brcs	.+10     	; 0xb0a <Fnd_Display+0x8a>
     b00:	82 30       	cpi	r24, 0x02	; 2
     b02:	09 f1       	breq	.+66     	; 0xb46 <Fnd_Display+0xc6>
     b04:	83 30       	cpi	r24, 0x03	; 3
     b06:	71 f1       	breq	.+92     	; 0xb64 <Fnd_Display+0xe4>
     b08:	3b c0       	rjmp	.+118    	; 0xb80 <Fnd_Display+0x100>
     b0a:	e4 ec       	ldi	r30, 0xC4	; 196
     b0c:	f4 e0       	ldi	r31, 0x04	; 4
     b0e:	80 81       	ld	r24, Z
     b10:	8f 7e       	andi	r24, 0xEF	; 239
     b12:	80 83       	st	Z, r24
     b14:	80 81       	ld	r24, Z
     b16:	8f 7d       	andi	r24, 0xDF	; 223
     b18:	80 83       	st	Z, r24
     b1a:	80 81       	ld	r24, Z
     b1c:	8f 7b       	andi	r24, 0xBF	; 191
     b1e:	80 83       	st	Z, r24
     b20:	80 81       	ld	r24, Z
     b22:	80 68       	ori	r24, 0x80	; 128
     b24:	80 83       	st	Z, r24
     b26:	2c c0       	rjmp	.+88     	; 0xb80 <Fnd_Display+0x100>
     b28:	e4 ec       	ldi	r30, 0xC4	; 196
     b2a:	f4 e0       	ldi	r31, 0x04	; 4
     b2c:	80 81       	ld	r24, Z
     b2e:	8f 7e       	andi	r24, 0xEF	; 239
     b30:	80 83       	st	Z, r24
     b32:	80 81       	ld	r24, Z
     b34:	8f 7d       	andi	r24, 0xDF	; 223
     b36:	80 83       	st	Z, r24
     b38:	80 81       	ld	r24, Z
     b3a:	80 64       	ori	r24, 0x40	; 64
     b3c:	80 83       	st	Z, r24
     b3e:	80 81       	ld	r24, Z
     b40:	8f 77       	andi	r24, 0x7F	; 127
     b42:	80 83       	st	Z, r24
     b44:	1d c0       	rjmp	.+58     	; 0xb80 <Fnd_Display+0x100>
     b46:	e4 ec       	ldi	r30, 0xC4	; 196
     b48:	f4 e0       	ldi	r31, 0x04	; 4
     b4a:	80 81       	ld	r24, Z
     b4c:	8f 7e       	andi	r24, 0xEF	; 239
     b4e:	80 83       	st	Z, r24
     b50:	80 81       	ld	r24, Z
     b52:	80 62       	ori	r24, 0x20	; 32
     b54:	80 83       	st	Z, r24
     b56:	80 81       	ld	r24, Z
     b58:	8f 7b       	andi	r24, 0xBF	; 191
     b5a:	80 83       	st	Z, r24
     b5c:	80 81       	ld	r24, Z
     b5e:	8f 77       	andi	r24, 0x7F	; 127
     b60:	80 83       	st	Z, r24
     b62:	0e c0       	rjmp	.+28     	; 0xb80 <Fnd_Display+0x100>
     b64:	e4 ec       	ldi	r30, 0xC4	; 196
     b66:	f4 e0       	ldi	r31, 0x04	; 4
     b68:	80 81       	ld	r24, Z
     b6a:	80 61       	ori	r24, 0x10	; 16
     b6c:	80 83       	st	Z, r24
     b6e:	80 81       	ld	r24, Z
     b70:	8f 7d       	andi	r24, 0xDF	; 223
     b72:	80 83       	st	Z, r24
     b74:	80 81       	ld	r24, Z
     b76:	8f 7b       	andi	r24, 0xBF	; 191
     b78:	80 83       	st	Z, r24
     b7a:	80 81       	ld	r24, Z
     b7c:	8f 77       	andi	r24, 0x7F	; 127
     b7e:	80 83       	st	Z, r24
     b80:	80 91 c2 40 	lds	r24, 0x40C2	; 0x8040c2 <cnt.6429>
     b84:	8f 5f       	subi	r24, 0xFF	; 255
     b86:	80 93 c2 40 	sts	0x40C2, r24	; 0x8040c2 <cnt.6429>
     b8a:	84 30       	cpi	r24, 0x04	; 4
     b8c:	10 f0       	brcs	.+4      	; 0xb92 <Fnd_Display+0x112>
     b8e:	10 92 c2 40 	sts	0x40C2, r1	; 0x8040c2 <cnt.6429>
     b92:	08 95       	ret

00000b94 <FND_Value_Data>:
     b94:	12 c0       	rjmp	.+36     	; 0xbba <FND_Value_Data+0x26>
     b96:	e8 2f       	mov	r30, r24
     b98:	f0 e0       	ldi	r31, 0x00	; 0
     b9a:	a4 2f       	mov	r26, r20
     b9c:	b0 e0       	ldi	r27, 0x00	; 0
     b9e:	a4 57       	subi	r26, 0x74	; 116
     ba0:	bf 4b       	sbci	r27, 0xBF	; 191
     ba2:	9c 91       	ld	r25, X
     ba4:	ee 0f       	add	r30, r30
     ba6:	ff 1f       	adc	r31, r31
     ba8:	ee 0f       	add	r30, r30
     baa:	ff 1f       	adc	r31, r31
     bac:	ed 53       	subi	r30, 0x3D	; 61
     bae:	ff 4b       	sbci	r31, 0xBF	; 191
     bb0:	93 83       	std	Z+3, r25	; 0x03
     bb2:	92 83       	std	Z+2, r25	; 0x02
     bb4:	91 83       	std	Z+1, r25	; 0x01
     bb6:	90 83       	st	Z, r25
     bb8:	8f 5f       	subi	r24, 0xFF	; 255
     bba:	68 17       	cp	r22, r24
     bbc:	60 f7       	brcc	.-40     	; 0xb96 <FND_Value_Data+0x2>
     bbe:	08 95       	ret

00000bc0 <Key_Scan>:
//=================================================================================================
//		key ░ς scan
//=================================================================================================
void Key_Scan(void)								// key └╘╖┬ ├╝┼σ
{
	if(!KEY.Buff)								// Key └╘╖┬└╠ ╛°╛·└╕╕ώ
     bc0:	80 91 d6 4a 	lds	r24, 0x4AD6	; 0x804ad6 <KEY+0x1>
     bc4:	81 11       	cpse	r24, r1
     bc6:	b9 c0       	rjmp	.+370    	; 0xd3a <Key_Scan+0x17a>
	{
		if(keytemp & 0x10) {Beep(10); KEY.Key = 1; KEY.Buff = 1; Timer.RegExitTimer = 0;}	// +(UP)  key └╘╖┬└╠ └╓└╕╕ώ 
     bc8:	80 91 08 04 	lds	r24, 0x0408	; 0x800408 <__TEXT_REGION_LENGTH__+0x7e0408>
     bcc:	84 fd       	sbrc	r24, 4
     bce:	0d c0       	rjmp	.+26     	; 0xbea <Key_Scan+0x2a>
     bd0:	8a e0       	ldi	r24, 0x0A	; 10
     bd2:	90 e0       	ldi	r25, 0x00	; 0
     bd4:	0e 94 3b 04 	call	0x876	; 0x876 <Beep>
     bd8:	e5 ed       	ldi	r30, 0xD5	; 213
     bda:	fa e4       	ldi	r31, 0x4A	; 74
     bdc:	81 e0       	ldi	r24, 0x01	; 1
     bde:	82 83       	std	Z+2, r24	; 0x02
     be0:	81 83       	std	Z+1, r24	; 0x01
     be2:	10 92 b8 4a 	sts	0x4AB8, r1	; 0x804ab8 <Timer+0x1>
     be6:	10 92 b9 4a 	sts	0x4AB9, r1	; 0x804ab9 <Timer+0x2>
		if(keytemp & 0x20) {Beep(10); KEY.Key = 2; KEY.Buff = 1; Timer.RegExitTimer = 0;}	// Select key └╘╖┬└╠ └╓└╕╕ώ
     bea:	80 91 08 04 	lds	r24, 0x0408	; 0x800408 <__TEXT_REGION_LENGTH__+0x7e0408>
     bee:	85 fd       	sbrc	r24, 5
     bf0:	0e c0       	rjmp	.+28     	; 0xc0e <Key_Scan+0x4e>
     bf2:	8a e0       	ldi	r24, 0x0A	; 10
     bf4:	90 e0       	ldi	r25, 0x00	; 0
     bf6:	0e 94 3b 04 	call	0x876	; 0x876 <Beep>
     bfa:	e5 ed       	ldi	r30, 0xD5	; 213
     bfc:	fa e4       	ldi	r31, 0x4A	; 74
     bfe:	82 e0       	ldi	r24, 0x02	; 2
     c00:	82 83       	std	Z+2, r24	; 0x02
     c02:	81 e0       	ldi	r24, 0x01	; 1
     c04:	81 83       	std	Z+1, r24	; 0x01
     c06:	10 92 b8 4a 	sts	0x4AB8, r1	; 0x804ab8 <Timer+0x1>
     c0a:	10 92 b9 4a 	sts	0x4AB9, r1	; 0x804ab9 <Timer+0x2>
		if(keytemp & 0x40) {Beep(10); KEY.Key = 3; KEY.Buff = 1; Timer.RegExitTimer = 0;}	// -(Down)key └╘╖┬└╠ └╓└╕╕ώ
     c0e:	80 91 08 04 	lds	r24, 0x0408	; 0x800408 <__TEXT_REGION_LENGTH__+0x7e0408>
     c12:	86 fd       	sbrc	r24, 6
     c14:	0e c0       	rjmp	.+28     	; 0xc32 <Key_Scan+0x72>
     c16:	8a e0       	ldi	r24, 0x0A	; 10
     c18:	90 e0       	ldi	r25, 0x00	; 0
     c1a:	0e 94 3b 04 	call	0x876	; 0x876 <Beep>
     c1e:	e5 ed       	ldi	r30, 0xD5	; 213
     c20:	fa e4       	ldi	r31, 0x4A	; 74
     c22:	83 e0       	ldi	r24, 0x03	; 3
     c24:	82 83       	std	Z+2, r24	; 0x02
     c26:	81 e0       	ldi	r24, 0x01	; 1
     c28:	81 83       	std	Z+1, r24	; 0x01
     c2a:	10 92 b8 4a 	sts	0x4AB8, r1	; 0x804ab8 <Timer+0x1>
     c2e:	10 92 b9 4a 	sts	0x4AB9, r1	; 0x804ab9 <Timer+0x2>
		if(keytemp & 0x80) {Beep(10); KEY.Key = 4; KEY.Buff = 1; Timer.RegExitTimer = 0;}	// Menu   key └╘╖┬└╠ └╓└╕╕ώ
     c32:	80 91 08 04 	lds	r24, 0x0408	; 0x800408 <__TEXT_REGION_LENGTH__+0x7e0408>
     c36:	88 23       	and	r24, r24
     c38:	74 f0       	brlt	.+28     	; 0xc56 <Key_Scan+0x96>
     c3a:	8a e0       	ldi	r24, 0x0A	; 10
     c3c:	90 e0       	ldi	r25, 0x00	; 0
     c3e:	0e 94 3b 04 	call	0x876	; 0x876 <Beep>
     c42:	e5 ed       	ldi	r30, 0xD5	; 213
     c44:	fa e4       	ldi	r31, 0x4A	; 74
     c46:	84 e0       	ldi	r24, 0x04	; 4
     c48:	82 83       	std	Z+2, r24	; 0x02
     c4a:	81 e0       	ldi	r24, 0x01	; 1
     c4c:	81 83       	std	Z+1, r24	; 0x01
     c4e:	10 92 b8 4a 	sts	0x4AB8, r1	; 0x804ab8 <Timer+0x1>
     c52:	10 92 b9 4a 	sts	0x4AB9, r1	; 0x804ab9 <Timer+0x2>

		if(KEY.Key == 4)						// Menu key └╘╖┬└╠ └╓└╕╕ώ
     c56:	80 91 d7 4a 	lds	r24, 0x4AD7	; 0x804ad7 <KEY+0x2>
     c5a:	84 30       	cpi	r24, 0x04	; 4
     c5c:	51 f4       	brne	.+20     	; 0xc72 <Key_Scan+0xb2>
		{
			if(SET.Menu) {SET.Menu = 0;}				// ╕▐┤║╕Ώ╡ί = 1 └╠╕ώ ╕▐┤║╕Ώ╡ί ╟╪┴ο
     c5e:	80 91 8f 4a 	lds	r24, 0x4A8F	; 0x804a8f <SET>
     c62:	88 23       	and	r24, r24
     c64:	19 f0       	breq	.+6      	; 0xc6c <Key_Scan+0xac>
     c66:	10 92 8f 4a 	sts	0x4A8F, r1	; 0x804a8f <SET>
     c6a:	03 c0       	rjmp	.+6      	; 0xc72 <Key_Scan+0xb2>
			else	     {SET.Menu = 1;}				// ╕▐┤║╕Ώ╡ί = 0 └╠╕ώ ╕▐┤║╕Ώ╡ί ╝│┴ν 
     c6c:	81 e0       	ldi	r24, 0x01	; 1
     c6e:	80 93 8f 4a 	sts	0x4A8F, r24	; 0x804a8f <SET>
		}

		if(!SET.Menu && KEY.Key == 2)					// ╕▐┤║╕Ώ╡ί░κ ╛╞┤╧░Ί ╝▒┼├ Key └╘╖┬└╠ └╓└╕╕ώ
     c72:	80 91 8f 4a 	lds	r24, 0x4A8F	; 0x804a8f <SET>
     c76:	81 11       	cpse	r24, r1
     c78:	15 c0       	rjmp	.+42     	; 0xca4 <Key_Scan+0xe4>
     c7a:	80 91 d7 4a 	lds	r24, 0x4AD7	; 0x804ad7 <KEY+0x2>
     c7e:	82 30       	cpi	r24, 0x02	; 2
     c80:	89 f4       	brne	.+34     	; 0xca4 <Key_Scan+0xe4>
		{
			if(SET.Save) {SET.Save = 0;}				// └·└ί╕Ώ╡ί = 1 └╠╕ώ └·└ί╕Ώ╡ί ╟╪┴ο
     c82:	80 91 92 4a 	lds	r24, 0x4A92	; 0x804a92 <SET+0x3>
     c86:	88 23       	and	r24, r24
     c88:	19 f0       	breq	.+6      	; 0xc90 <Key_Scan+0xd0>
     c8a:	10 92 92 4a 	sts	0x4A92, r1	; 0x804a92 <SET+0x3>
     c8e:	0a c0       	rjmp	.+20     	; 0xca4 <Key_Scan+0xe4>
			else                                                    // └·└ί╕Ώ╡ί = 0 └╠╕ώ └·└ί╕Ώ╡ί ╝│┴ν
			{
				SET.Save = 1;					
     c90:	81 e0       	ldi	r24, 0x01	; 1
     c92:	80 93 92 4a 	sts	0x4A92, r24	; 0x804a92 <SET+0x3>
				DIGIT[2][3] = FND_MINUS;				// - ╟ξ╜├
     c96:	e3 ec       	ldi	r30, 0xC3	; 195
     c98:	f0 e4       	ldi	r31, 0x40	; 64
     c9a:	82 e0       	ldi	r24, 0x02	; 2
     c9c:	83 87       	std	Z+11, r24	; 0x0b
				DIGIT[2][2] = FND_MINUS;
     c9e:	82 87       	std	Z+10, r24	; 0x0a
				DIGIT[2][1] = FND_MINUS;
     ca0:	81 87       	std	Z+9, r24	; 0x09
				DIGIT[2][0] = FND_MINUS;
     ca2:	80 87       	std	Z+8, r24	; 0x08
			}				
		}

		if(SET.Menu && KEY.Key == 2 && !SET.Blink)			// ╕▐┤║╕Ώ╡ί └╠░Ί Blink = 0 └╠░Ί ╝▒┼├ Key └╘╖┬└╠ └╓└╕╕ώ
     ca4:	80 91 8f 4a 	lds	r24, 0x4A8F	; 0x804a8f <SET>
     ca8:	88 23       	and	r24, r24
     caa:	91 f0       	breq	.+36     	; 0xcd0 <Key_Scan+0x110>
     cac:	80 91 d7 4a 	lds	r24, 0x4AD7	; 0x804ad7 <KEY+0x2>
     cb0:	82 30       	cpi	r24, 0x02	; 2
     cb2:	71 f4       	brne	.+28     	; 0xcd0 <Key_Scan+0x110>
     cb4:	80 91 91 4a 	lds	r24, 0x4A91	; 0x804a91 <SET+0x2>
     cb8:	81 11       	cpse	r24, r1
     cba:	0a c0       	rjmp	.+20     	; 0xcd0 <Key_Scan+0x110>
		{
			if(SET.Select) {SET.Select = 0;}			// ╝▒┼├╕Ώ╡ί = 1 └╠╕ώ ╝▒┼├╕Ώ╡ί ╟╪┴ο
     cbc:	80 91 90 4a 	lds	r24, 0x4A90	; 0x804a90 <SET+0x1>
     cc0:	88 23       	and	r24, r24
     cc2:	19 f0       	breq	.+6      	; 0xcca <Key_Scan+0x10a>
     cc4:	10 92 90 4a 	sts	0x4A90, r1	; 0x804a90 <SET+0x1>
     cc8:	03 c0       	rjmp	.+6      	; 0xcd0 <Key_Scan+0x110>
			else	       {SET.Select = 1;}			// ╝▒┼├╕Ώ╡ί = 0 └╠╕ώ ╝▒┼├╕Ώ╡ί ╝│┴ν
     cca:	81 e0       	ldi	r24, 0x01	; 1
     ccc:	80 93 90 4a 	sts	0x4A90, r24	; 0x804a90 <SET+0x1>
		}

		if(SET.Menu && KEY.Key == 2 && SET.Blink)			// ╕▐┤║╕Ώ╡ί └╠░Ί Blink = 1 └╠░Ί ╝▒┼├ Key └╘╖┬└╠ └╓└╕╕ώ
     cd0:	80 91 8f 4a 	lds	r24, 0x4A8F	; 0x804a8f <SET>
     cd4:	88 23       	and	r24, r24
     cd6:	91 f0       	breq	.+36     	; 0xcfc <Key_Scan+0x13c>
     cd8:	80 91 d7 4a 	lds	r24, 0x4AD7	; 0x804ad7 <KEY+0x2>
     cdc:	82 30       	cpi	r24, 0x02	; 2
     cde:	71 f4       	brne	.+28     	; 0xcfc <Key_Scan+0x13c>
     ce0:	80 91 91 4a 	lds	r24, 0x4A91	; 0x804a91 <SET+0x2>
     ce4:	88 23       	and	r24, r24
     ce6:	51 f0       	breq	.+20     	; 0xcfc <Key_Scan+0x13c>
		{
			KEY.Count++;						// Key ░κ ┤φ╕░╚╜╝÷ ┴Ϋ░κ
     ce8:	e5 ed       	ldi	r30, 0xD5	; 213
     cea:	fa e4       	ldi	r31, 0x4A	; 74
     cec:	80 81       	ld	r24, Z
     cee:	8f 5f       	subi	r24, 0xFF	; 255
     cf0:	80 83       	st	Z, r24
			if(KEY.Count > 5) {KEY.Count = 0;}			// Key ░κ ┤φ╕░╚╜╝÷░κ 5║╕┤┘ ┼σ╕ώ 0└╕╖╬ ├╩▒έ╚φ
     cf2:	80 81       	ld	r24, Z
     cf4:	86 30       	cpi	r24, 0x06	; 6
     cf6:	10 f0       	brcs	.+4      	; 0xcfc <Key_Scan+0x13c>
     cf8:	10 92 d5 4a 	sts	0x4AD5, r1	; 0x804ad5 <KEY>
		}

		if(KEY.Old == KEY.Key)						// Old Key ░ς└╠ New Key ░ς└╠ ░░└╕╕ώ
     cfc:	e5 ed       	ldi	r30, 0xD5	; 213
     cfe:	fa e4       	ldi	r31, 0x4A	; 74
     d00:	93 81       	ldd	r25, Z+3	; 0x03
     d02:	82 81       	ldd	r24, Z+2	; 0x02
     d04:	98 13       	cpse	r25, r24
     d06:	11 c0       	rjmp	.+34     	; 0xd2a <Key_Scan+0x16a>
		{
			if(KEY.In_Count >= 2) {Timer.Input_Key = 20;}		// ┐υ╝╙└╘╖┬└╠ 2║╕┤┘ ╕╣└╕╕ώ ┐υ╝╙└╘╖┬╜├░μ = 20
     d08:	80 91 d9 4a 	lds	r24, 0x4AD9	; 0x804ad9 <KEY+0x4>
     d0c:	82 30       	cpi	r24, 0x02	; 2
     d0e:	20 f0       	brcs	.+8      	; 0xd18 <Key_Scan+0x158>
     d10:	84 e1       	ldi	r24, 0x14	; 20
     d12:	80 93 b7 4a 	sts	0x4AB7, r24	; 0x804ab7 <Timer>
     d16:	08 95       	ret
			else {Timer.Input_Key = 50; KEY.In_Count++;}		// ┐υ╝╙└╘╖┬└╠ 2║╕┤┘ └█└╕╕ώ ┐υ╝╙└╘╖┬╜├░μ = 50, ┐υ╝╙└╘╖┬ ┴Ϋ░κ
     d18:	82 e3       	ldi	r24, 0x32	; 50
     d1a:	80 93 b7 4a 	sts	0x4AB7, r24	; 0x804ab7 <Timer>
     d1e:	e5 ed       	ldi	r30, 0xD5	; 213
     d20:	fa e4       	ldi	r31, 0x4A	; 74
     d22:	84 81       	ldd	r24, Z+4	; 0x04
     d24:	8f 5f       	subi	r24, 0xFF	; 255
     d26:	84 83       	std	Z+4, r24	; 0x04
     d28:	08 95       	ret
		}
		else								// Old Key ░ς└╠ New Key ░ς└╠ ░░┴÷ ╛╩└╕╕ώ
		{
			Timer.Input_Key = 50;					// ┐υ╝╙└╘╖┬ = 50
     d2a:	82 e3       	ldi	r24, 0x32	; 50
     d2c:	80 93 b7 4a 	sts	0x4AB7, r24	; 0x804ab7 <Timer>
			KEY.Old = KEY.Key;					// Old Key ┐κ New Key └·└ί
     d30:	e5 ed       	ldi	r30, 0xD5	; 213
     d32:	fa e4       	ldi	r31, 0x4A	; 74
     d34:	82 81       	ldd	r24, Z+2	; 0x02
     d36:	83 83       	std	Z+3, r24	; 0x03
			KEY.In_Count = 0;					// ┐υ╝╙└╘╖┬ ├╩▒έ╚φ
     d38:	14 82       	std	Z+4, r1	; 0x04
     d3a:	08 95       	ret

00000d3c <Read_eeprom>:
	}
}

//=================================================================================================
void Read_eeprom(void)								// EEPROM Data └╨▒έ
{
     d3c:	cf 92       	push	r12
     d3e:	df 92       	push	r13
     d40:	ef 92       	push	r14
     d42:	ff 92       	push	r15
//-------------------------------------------------------------------------------------------------
//		░╘└╠╞χ┐■└╠ ▒╣╣°
//-------------------------------------------------------------------------------------------------
	Gukbun = ee_read_byte(Gateway_Gukbun_Addr);				// ░╘└╠╞χ┐■└╠ ▒╣╣° ╝│┴ν░ς ║╥╖ψ┐└▒έ
     d44:	81 e0       	ldi	r24, 0x01	; 1
     d46:	90 e0       	ldi	r25, 0x00	; 0
     d48:	0e 94 3d 0f 	call	0x1e7a	; 0x1e7a <ee_read_byte>
     d4c:	80 93 d1 4a 	sts	0x4AD1, r24	; 0x804ad1 <Gukbun>
	if(Gukbun > 60 || Gukbun == 0)						// ░╘└╠╞χ┐■└╠ ▒╣╣° ╝│┴ν░ς└╠ 60║╕┤┘ ┼σ░┼│ς 0░· ░░└╕╕ώ
     d50:	81 50       	subi	r24, 0x01	; 1
     d52:	8c 33       	cpi	r24, 0x3C	; 60
     d54:	40 f0       	brcs	.+16     	; 0xd66 <Read_eeprom+0x2a>
	{
		Gukbun = 1;							// ░╘└╠╞χ┐■└╠ ▒╣╣° ░ς└╗ 1╖╬ ├╩▒έ╚φ
     d56:	81 e0       	ldi	r24, 0x01	; 1
     d58:	80 93 d1 4a 	sts	0x4AD1, r24	; 0x804ad1 <Gukbun>
		ee_write_byte(Gateway_Gukbun_Addr, Gukbun);			// ░╘└╠╞χ┐■└╠ ▒╣╣° ░ς└╗ EEPROM ┐κ └·└ί
     d5c:	61 e0       	ldi	r22, 0x01	; 1
     d5e:	81 e0       	ldi	r24, 0x01	; 1
     d60:	90 e0       	ldi	r25, 0x00	; 0
     d62:	0e 94 5f 0f 	call	0x1ebe	; 0x1ebe <ee_write_byte>
	}
//-------------------------------------------------------------------------------------------------
//		░╘└╠╞χ┐■└╠ ID
//-------------------------------------------------------------------------------------------------
	Gwid = ee_read_byte(Gateway_GWID_Addr);					// ░╘└╠╞χ┐■└╠ ID ╝│┴ν░ς ║╥╖ψ┐└▒έ
     d66:	82 e0       	ldi	r24, 0x02	; 2
     d68:	90 e0       	ldi	r25, 0x00	; 0
     d6a:	0e 94 3d 0f 	call	0x1e7a	; 0x1e7a <ee_read_byte>
     d6e:	80 93 db 4a 	sts	0x4ADB, r24	; 0x804adb <Gwid>
	if(Gwid > 60 || Gwid == 0)						// ░╘└╠╞χ┐■└╠ ID ╝│┴ν░ς└╠ 60║╕┤┘ ┼σ░┼│ς 0░· ░░└╕╕ώ
     d72:	81 50       	subi	r24, 0x01	; 1
     d74:	8c 33       	cpi	r24, 0x3C	; 60
     d76:	40 f0       	brcs	.+16     	; 0xd88 <Read_eeprom+0x4c>
	{
		Gwid = 1;							// ░╘└╠╞χ┐■└╠ ID ░ς└╗ 1╖╬ ├╩▒έ╚φ
     d78:	81 e0       	ldi	r24, 0x01	; 1
     d7a:	80 93 db 4a 	sts	0x4ADB, r24	; 0x804adb <Gwid>
		ee_write_byte(Gateway_GWID_Addr, Gwid);				// ░╘└╠╞χ┐■└╠ ID ░ς└╗ EEPROM ┐κ └·└ί
     d7e:	61 e0       	ldi	r22, 0x01	; 1
     d80:	82 e0       	ldi	r24, 0x02	; 2
     d82:	90 e0       	ldi	r25, 0x00	; 0
     d84:	0e 94 5f 0f 	call	0x1ebe	; 0x1ebe <ee_write_byte>
	}
//-------------------------------------------------------------------------------------------------
//		└·└ί╡╚ │ψ┬ξ Date
//-------------------------------------------------------------------------------------------------
	RTC_T.OLD_D = ee_read_byte(OLD_Date_Addr);				// │ψ┬ξ ║╥╖ψ┐└▒έ
     d88:	83 e0       	ldi	r24, 0x03	; 3
     d8a:	90 e0       	ldi	r25, 0x00	; 0
     d8c:	0e 94 3d 0f 	call	0x1e7a	; 0x1e7a <ee_read_byte>
     d90:	80 93 c7 4a 	sts	0x4AC7, r24	; 0x804ac7 <RTC_T+0x7>
	if(RTC_T.OLD_D > 31 || RTC_T.OLD_D < 0)					// │ψ┬ξ░κ 31└╧║╕┤┘ ┼σ░┼│ς 0║╕┤┘ └█└╕╕ώ
     d94:	80 32       	cpi	r24, 0x20	; 32
     d96:	40 f0       	brcs	.+16     	; 0xda8 <Read_eeprom+0x6c>
	{
		RTC_T.OLD_D = 1;						// │ψ┬ξ╕ο 1╖╬ ├╩▒έ╚φ
     d98:	81 e0       	ldi	r24, 0x01	; 1
     d9a:	80 93 c7 4a 	sts	0x4AC7, r24	; 0x804ac7 <RTC_T+0x7>
		ee_write_byte(OLD_Date_Addr, RTC_T.OLD_D);			// │ψ┬ξ╕ο EEPROM ┐κ └·└ί
     d9e:	61 e0       	ldi	r22, 0x01	; 1
     da0:	83 e0       	ldi	r24, 0x03	; 3
     da2:	90 e0       	ldi	r25, 0x00	; 0
     da4:	0e 94 5f 0f 	call	0x1ebe	; 0x1ebe <ee_write_byte>
	}
//-------------------------------------------------------------------------------------------------
//		╖╬╡ί╝┐ ID
//-------------------------------------------------------------------------------------------------
	Cell_ID = ee_read_byte(Cell_ID_Addr);					// ╖╬╡ί╝┐ ID ╝│┴ν░ς ║╥╖ψ┐└▒έ
     da8:	84 e0       	ldi	r24, 0x04	; 4
     daa:	90 e0       	ldi	r25, 0x00	; 0
     dac:	0e 94 3d 0f 	call	0x1e7a	; 0x1e7a <ee_read_byte>
     db0:	80 93 60 4a 	sts	0x4A60, r24	; 0x804a60 <Cell_ID>
	if(Cell_ID > 60 || Cell_ID < 0)						// ╖╬╡ί╝┐ ID ╝│┴ν░ς└╠ 60║╕┤┘ ┼σ░┼│ς 0║╕┤┘ └█└╕╕ώ
     db4:	8d 33       	cpi	r24, 0x3D	; 61
     db6:	40 f0       	brcs	.+16     	; 0xdc8 <Read_eeprom+0x8c>
	{
		Cell_ID = 1;							// ╖╬╡ί╝┐ ID ░ς└╗ 1╖╬ ├╩▒έ╚φ
     db8:	81 e0       	ldi	r24, 0x01	; 1
     dba:	80 93 60 4a 	sts	0x4A60, r24	; 0x804a60 <Cell_ID>
		ee_write_byte(Cell_ID_Addr, Cell_ID);				// ╖╬╡ί╝┐ ID ░ς└╗ EEPROM ┐κ └·└ί
     dbe:	61 e0       	ldi	r22, 0x01	; 1
     dc0:	84 e0       	ldi	r24, 0x04	; 4
     dc2:	90 e0       	ldi	r25, 0x00	; 0
     dc4:	0e 94 5f 0f 	call	0x1ebe	; 0x1ebe <ee_write_byte>
	}
//-------------------------------------------------------------------------------------------------
//		╖╬╡ί╝┐ ID
//-------------------------------------------------------------------------------------------------
	Cell_CNT = ee_read_byte(Cell_CNT_Addr);					// ╖╬╡ί╝┐ ░╣╝÷ ╝│┴ν░ς ║╥╖ψ┐└▒έ
     dc8:	85 e0       	ldi	r24, 0x05	; 5
     dca:	90 e0       	ldi	r25, 0x00	; 0
     dcc:	0e 94 3d 0f 	call	0x1e7a	; 0x1e7a <ee_read_byte>
     dd0:	80 93 04 4b 	sts	0x4B04, r24	; 0x804b04 <Cell_CNT>
	if(Cell_CNT > 4 || Cell_CNT < 1)					// ╖╬╡ί╝┐ ░╣╝÷ ╝│┴ν░ς└╠ 8║╕┤┘ ┼σ░┼│ς 2║╕┤┘ └█└╕╕ώ
     dd4:	81 50       	subi	r24, 0x01	; 1
     dd6:	84 30       	cpi	r24, 0x04	; 4
     dd8:	40 f0       	brcs	.+16     	; 0xdea <Read_eeprom+0xae>
	{
		Cell_CNT = 2;							// ╖╬╡ί╝┐ ░╣╝÷ ╝│┴ν░ς└╗ 2╖╬ ├╩▒έ╚φ
     dda:	82 e0       	ldi	r24, 0x02	; 2
     ddc:	80 93 04 4b 	sts	0x4B04, r24	; 0x804b04 <Cell_CNT>
		ee_write_byte(Cell_CNT_Addr, Cell_CNT);				// ╖╬╡ί╝┐ ░╣╝÷ ╝│┴ν░ς└╗ EEPROM ┐κ └·└ί
     de0:	62 e0       	ldi	r22, 0x02	; 2
     de2:	85 e0       	ldi	r24, 0x05	; 5
     de4:	90 e0       	ldi	r25, 0x00	; 0
     de6:	0e 94 5f 0f 	call	0x1ebe	; 0x1ebe <ee_write_byte>
	}
//-------------------------------------------------------------------------------------------------
//		╖╬╡ί╝┐ CAPA (┐Έ╖χ)
//-------------------------------------------------------------------------------------------------
	Cell_Capa = ee_read_word(Cell_Capa_Addr);				// ╖╬╡ί╝┐ CAPA ╝│┴ν░ς ║╥╖ψ┐└▒έ
     dea:	86 e0       	ldi	r24, 0x06	; 6
     dec:	90 e0       	ldi	r25, 0x00	; 0
     dee:	0e 94 47 0f 	call	0x1e8e	; 0x1e8e <ee_read_word>
     df2:	a0 e0       	ldi	r26, 0x00	; 0
     df4:	b0 e0       	ldi	r27, 0x00	; 0
     df6:	80 93 f3 4a 	sts	0x4AF3, r24	; 0x804af3 <Cell_Capa>
     dfa:	90 93 f4 4a 	sts	0x4AF4, r25	; 0x804af4 <Cell_Capa+0x1>
     dfe:	a0 93 f5 4a 	sts	0x4AF5, r26	; 0x804af5 <Cell_Capa+0x2>
     e02:	b0 93 f6 4a 	sts	0x4AF6, r27	; 0x804af6 <Cell_Capa+0x3>
	if(Cell_Capa > 1000 || Cell_Capa < 100)					// ╖╬╡ί╝┐ CAPA ╝│┴ν░ς└╠ 1000║╕┤┘ ┼σ░┼│ς 100║╕┤┘ └█└╕╕ώ
     e06:	84 56       	subi	r24, 0x64	; 100
     e08:	91 09       	sbc	r25, r1
     e0a:	a1 09       	sbc	r26, r1
     e0c:	b1 09       	sbc	r27, r1
     e0e:	85 38       	cpi	r24, 0x85	; 133
     e10:	93 40       	sbci	r25, 0x03	; 3
     e12:	a1 05       	cpc	r26, r1
     e14:	b1 05       	cpc	r27, r1
     e16:	90 f0       	brcs	.+36     	; 0xe3c <Read_eeprom+0x100>
	{
		Cell_Capa = 100;						// ╖╬╡ί╝┐ CAPA ░ς└╗ 100kg╖╬ ├╩▒έ╚φ, ░÷╟╧▒έ 1,000└╕╖╬ ░ϋ╗Ά 100kg = 100000g
     e18:	84 e6       	ldi	r24, 0x64	; 100
     e1a:	90 e0       	ldi	r25, 0x00	; 0
     e1c:	a0 e0       	ldi	r26, 0x00	; 0
     e1e:	b0 e0       	ldi	r27, 0x00	; 0
     e20:	80 93 f3 4a 	sts	0x4AF3, r24	; 0x804af3 <Cell_Capa>
     e24:	90 93 f4 4a 	sts	0x4AF4, r25	; 0x804af4 <Cell_Capa+0x1>
     e28:	a0 93 f5 4a 	sts	0x4AF5, r26	; 0x804af5 <Cell_Capa+0x2>
     e2c:	b0 93 f6 4a 	sts	0x4AF6, r27	; 0x804af6 <Cell_Capa+0x3>
		ee_write_word(Cell_Capa_Addr, Cell_Capa);			// ╖╬╡ί╝┐ CAPA ░ς└╗ EEPROM ┐κ └·└ί
     e30:	64 e6       	ldi	r22, 0x64	; 100
     e32:	70 e0       	ldi	r23, 0x00	; 0
     e34:	86 e0       	ldi	r24, 0x06	; 6
     e36:	90 e0       	ldi	r25, 0x00	; 0
     e38:	0e 94 82 0f 	call	0x1f04	; 0x1f04 <ee_write_word>
	}
//-------------------------------------------------------------------------------------------------
//		╖╬╡ί╝┐ RO (┴ν░▌├έ╖┬)
//-------------------------------------------------------------------------------------------------
	Cell_RO = ee_read_dword(Cell_RO_Addr);					// ╖╬╡ί╝┐ RO ╝│┴ν░ς ║╥╖ψ┐└▒έ
     e3c:	8c e0       	ldi	r24, 0x0C	; 12
     e3e:	90 e0       	ldi	r25, 0x00	; 0
     e40:	0e 94 52 0f 	call	0x1ea4	; 0x1ea4 <ee_read_dword>
     e44:	0e 94 fc 30 	call	0x61f8	; 0x61f8 <__floatunsisf>
     e48:	6b 01       	movw	r12, r22
     e4a:	7c 01       	movw	r14, r24
     e4c:	60 93 dc 4a 	sts	0x4ADC, r22	; 0x804adc <Cell_RO>
     e50:	70 93 dd 4a 	sts	0x4ADD, r23	; 0x804add <Cell_RO+0x1>
     e54:	80 93 de 4a 	sts	0x4ADE, r24	; 0x804ade <Cell_RO+0x2>
     e58:	90 93 df 4a 	sts	0x4ADF, r25	; 0x804adf <Cell_RO+0x3>
	if(Cell_RO > 90000 || Cell_RO < 10000)					// ╖╬╡ί╝┐ RO ╝│┴ν░ς└╠ 9.000mV║╕┤┘ ┼σ░┼│ς 3.000mV║╕┤┘ └█└╕╕ώ
     e5c:	20 e0       	ldi	r18, 0x00	; 0
     e5e:	38 ec       	ldi	r19, 0xC8	; 200
     e60:	4f ea       	ldi	r20, 0xAF	; 175
     e62:	57 e4       	ldi	r21, 0x47	; 71
     e64:	0e 94 ae 31 	call	0x635c	; 0x635c <__gesf2>
     e68:	18 16       	cp	r1, r24
     e6a:	54 f0       	brlt	.+20     	; 0xe80 <Read_eeprom+0x144>
     e6c:	20 e0       	ldi	r18, 0x00	; 0
     e6e:	30 e4       	ldi	r19, 0x40	; 64
     e70:	4c e1       	ldi	r20, 0x1C	; 28
     e72:	56 e4       	ldi	r21, 0x46	; 70
     e74:	c7 01       	movw	r24, r14
     e76:	b6 01       	movw	r22, r12
     e78:	0e 94 4f 30 	call	0x609e	; 0x609e <__cmpsf2>
     e7c:	88 23       	and	r24, r24
     e7e:	a4 f4       	brge	.+40     	; 0xea8 <Read_eeprom+0x16c>
	{
		Cell_RO = 40000;						// ╖╬╡ί╝┐ RO ░ς└╗ 4.000mV╖╬ ├╩▒έ╚φ, │ς┤σ▒έ 10,000└╕╖╬ ░ϋ╗Ά
     e80:	80 e0       	ldi	r24, 0x00	; 0
     e82:	90 e4       	ldi	r25, 0x40	; 64
     e84:	ac e1       	ldi	r26, 0x1C	; 28
     e86:	b7 e4       	ldi	r27, 0x47	; 71
     e88:	80 93 dc 4a 	sts	0x4ADC, r24	; 0x804adc <Cell_RO>
     e8c:	90 93 dd 4a 	sts	0x4ADD, r25	; 0x804add <Cell_RO+0x1>
     e90:	a0 93 de 4a 	sts	0x4ADE, r26	; 0x804ade <Cell_RO+0x2>
     e94:	b0 93 df 4a 	sts	0x4ADF, r27	; 0x804adf <Cell_RO+0x3>
		ee_write_dword(Cell_RO_Addr, Cell_RO);				// ╖╬╡ί╝┐ RO ░ς└╗ EEPROM ┐κ └·└ί
     e98:	40 e4       	ldi	r20, 0x40	; 64
     e9a:	5c e9       	ldi	r21, 0x9C	; 156
     e9c:	60 e0       	ldi	r22, 0x00	; 0
     e9e:	70 e0       	ldi	r23, 0x00	; 0
     ea0:	8c e0       	ldi	r24, 0x0C	; 12
     ea2:	90 e0       	ldi	r25, 0x00	; 0
     ea4:	0e 94 9f 0f 	call	0x1f3e	; 0x1f3e <ee_write_dword>
	}
//-------------------------------------------------------------------------------------------------
//		└╘▒╕ ├╝┴▀
//-------------------------------------------------------------------------------------------------
	IN_Scales = ee_read_word(Cell_IN_S_Addr);				// └╘▒╕ ├╝┴▀ ╝│┴ν░ς ║╥╖ψ┐└▒έ
     ea8:	88 e0       	ldi	r24, 0x08	; 8
     eaa:	90 e0       	ldi	r25, 0x00	; 0
     eac:	0e 94 47 0f 	call	0x1e8e	; 0x1e8e <ee_read_word>
     eb0:	80 93 88 4a 	sts	0x4A88, r24	; 0x804a88 <IN_Scales>
     eb4:	90 93 89 4a 	sts	0x4A89, r25	; 0x804a89 <IN_Scales+0x1>
	if(IN_Scales > 10000 || IN_Scales < 10)					// └╘▒╕ ├╝┴▀ ╝│┴ν░ς└╠ 10000g(10Kg)║╕┤┘ ┼σ░┼│ς 10g║╕┤┘ └█└╕╕ώ
     eb8:	0a 97       	sbiw	r24, 0x0a	; 10
     eba:	87 30       	cpi	r24, 0x07	; 7
     ebc:	97 42       	sbci	r25, 0x27	; 39
     ebe:	60 f0       	brcs	.+24     	; 0xed8 <Read_eeprom+0x19c>
	{
		IN_Scales = 500;						// └╘▒╕ ├╝┴▀ ░ς└╗ 500└╕╖╬ ├╩▒έ╚φ (500g)
     ec0:	84 ef       	ldi	r24, 0xF4	; 244
     ec2:	91 e0       	ldi	r25, 0x01	; 1
     ec4:	80 93 88 4a 	sts	0x4A88, r24	; 0x804a88 <IN_Scales>
     ec8:	90 93 89 4a 	sts	0x4A89, r25	; 0x804a89 <IN_Scales+0x1>
		ee_write_word(Cell_IN_S_Addr, IN_Scales);			// └╘▒╕ ├╝┴▀ ░ς└╗ EEPROM ┐κ └·└ί
     ecc:	64 ef       	ldi	r22, 0xF4	; 244
     ece:	71 e0       	ldi	r23, 0x01	; 1
     ed0:	88 e0       	ldi	r24, 0x08	; 8
     ed2:	90 e0       	ldi	r25, 0x00	; 0
     ed4:	0e 94 82 0f 	call	0x1f04	; 0x1f04 <ee_write_word>
	}
//-------------------------------------------------------------------------------------------------
//		╖╬╡ί╝┐ ║╕┴ν ░ς
//-------------------------------------------------------------------------------------------------
	Interval = ee_read_word(Cell_Interval_Addr);				// ╖╬╡ί╝┐ ║╕┴ν ░ς ║╥╖ψ┐└▒έ
     ed8:	8a e0       	ldi	r24, 0x0A	; 10
     eda:	90 e0       	ldi	r25, 0x00	; 0
     edc:	0e 94 47 0f 	call	0x1e8e	; 0x1e8e <ee_read_word>
     ee0:	80 93 e9 4a 	sts	0x4AE9, r24	; 0x804ae9 <Interval>
     ee4:	90 93 ea 4a 	sts	0x4AEA, r25	; 0x804aea <Interval+0x1>
	if((Interval > 99) || (Interval < -99))					// ╖╬╡ί╝┐ ║╕┴ν ░ς└╠ 99║╕┤┘ ┼σ░┼│ς -99║╕┤┘ └█└╕╕ώ
     ee8:	8d 59       	subi	r24, 0x9D	; 157
     eea:	9f 4f       	sbci	r25, 0xFF	; 255
     eec:	87 3c       	cpi	r24, 0xC7	; 199
     eee:	91 05       	cpc	r25, r1
     ef0:	50 f0       	brcs	.+20     	; 0xf06 <Read_eeprom+0x1ca>
	{
		Interval = 0;							// ╖╬╡ί╝┐ ║╕┴ν ░ς└╗ 0 └╕╖╬ ├╩▒έ╚φ
     ef2:	10 92 e9 4a 	sts	0x4AE9, r1	; 0x804ae9 <Interval>
     ef6:	10 92 ea 4a 	sts	0x4AEA, r1	; 0x804aea <Interval+0x1>
		ee_write_word(Cell_Interval_Addr, Interval);			// ╖╬╡ί╝┐ ║╕┴ν ░ς└╗ EEPROM ┐κ └·└ί
     efa:	60 e0       	ldi	r22, 0x00	; 0
     efc:	70 e0       	ldi	r23, 0x00	; 0
     efe:	8a e0       	ldi	r24, 0x0A	; 10
     f00:	90 e0       	ldi	r25, 0x00	; 0
     f02:	0e 94 82 0f 	call	0x1f04	; 0x1f04 <ee_write_word>
	}
//-------------------------------------------------------------------------------------------------
//		RTC ├╩▒έ╚φ
//-------------------------------------------------------------------------------------------------
	RTC_Time_Read();
     f06:	0e 94 22 24 	call	0x4844	; 0x4844 <RTC_Time_Read>
	if(RTC_T.Sec > 59)							// ├╩ ░ς└╠ 59 ║╕┤┘ ┼σ╕ώ
     f0a:	80 91 c0 4a 	lds	r24, 0x4AC0	; 0x804ac0 <RTC_T>
     f0e:	8c 33       	cpi	r24, 0x3C	; 60
     f10:	28 f0       	brcs	.+10     	; 0xf1c <Read_eeprom+0x1e0>
	{
		RTC_Time_Write(RTC_SECOND, 0);					// RTC ┐κ 00├╩ └·└ί
     f12:	60 e0       	ldi	r22, 0x00	; 0
     f14:	80 e0       	ldi	r24, 0x00	; 0
     f16:	0e 94 5d 24 	call	0x48ba	; 0x48ba <RTC_Time_Write>
     f1a:	ff cf       	rjmp	.-2      	; 0xf1a <Read_eeprom+0x1de>
		while(1);							// RTC ░κ ├╩▒έ╚φ ╡╟┴÷ ╛╩╛╞ └╓└╕╕ώ CPU ReSet
	}
//-------------------------------------------------------------------------------------------------
	if(RTC_T.Year == 0)							// │έ ░ς└╠ 00 └╠╕ώ
     f1c:	80 91 c6 4a 	lds	r24, 0x4AC6	; 0x804ac6 <RTC_T+0x6>
     f20:	81 11       	cpse	r24, r1
     f22:	1c c0       	rjmp	.+56     	; 0xf5c <Read_eeprom+0x220>
	{
		RTC_Time_Write(RTC_YEAR,      22);				// RTC ┐κ 22│έ   └·└ί
     f24:	66 e1       	ldi	r22, 0x16	; 22
     f26:	86 e0       	ldi	r24, 0x06	; 6
     f28:	0e 94 5d 24 	call	0x48ba	; 0x48ba <RTC_Time_Write>
		RTC_Time_Write(RTC_MONTH,      9);				// RTC ┐κ 09┐∙   └·└ί
     f2c:	69 e0       	ldi	r22, 0x09	; 9
     f2e:	85 e0       	ldi	r24, 0x05	; 5
     f30:	0e 94 5d 24 	call	0x48ba	; 0x48ba <RTC_Time_Write>
		RTC_Time_Write(RTC_DATE,      20);				// RTC ┐κ 20└╧   └·└ί
     f34:	64 e1       	ldi	r22, 0x14	; 20
     f36:	84 e0       	ldi	r24, 0x04	; 4
     f38:	0e 94 5d 24 	call	0x48ba	; 0x48ba <RTC_Time_Write>
		RTC_Time_Write(RTC_DAYOFWEEK,  3);				// RTC ┐κ 03┐ϊ└╧ └·└ί
     f3c:	63 e0       	ldi	r22, 0x03	; 3
     f3e:	83 e0       	ldi	r24, 0x03	; 3
     f40:	0e 94 5d 24 	call	0x48ba	; 0x48ba <RTC_Time_Write>
		RTC_Time_Write(RTC_HOUR,      12);				// RTC ┐κ 12╜├   └·└ί
     f44:	6c e0       	ldi	r22, 0x0C	; 12
     f46:	82 e0       	ldi	r24, 0x02	; 2
     f48:	0e 94 5d 24 	call	0x48ba	; 0x48ba <RTC_Time_Write>
		RTC_Time_Write(RTC_MINUTE,     0);				// RTC ┐κ 00║╨   └·└ί
     f4c:	60 e0       	ldi	r22, 0x00	; 0
     f4e:	81 e0       	ldi	r24, 0x01	; 1
     f50:	0e 94 5d 24 	call	0x48ba	; 0x48ba <RTC_Time_Write>
		RTC_Time_Write(RTC_SECOND,     0);				// RTC ┐κ 00├╩   └·└ί
     f54:	60 e0       	ldi	r22, 0x00	; 0
     f56:	80 e0       	ldi	r24, 0x00	; 0
     f58:	0e 94 5d 24 	call	0x48ba	; 0x48ba <RTC_Time_Write>
	}
}
     f5c:	ff 90       	pop	r15
     f5e:	ef 90       	pop	r14
     f60:	df 90       	pop	r13
     f62:	cf 90       	pop	r12
     f64:	08 95       	ret

00000f66 <Alarm>:

//=================================================================================================
void Alarm(void)								// ╛╦╢≈(║±╟┴ 3╣°) 
{
	Beep(15);								// 1mSec X 15 = 15mSec
     f66:	8f e0       	ldi	r24, 0x0F	; 15
     f68:	90 e0       	ldi	r25, 0x00	; 0
     f6a:	0e 94 3b 04 	call	0x876	; 0x876 <Beep>
	#else
		//round up by default
		__ticks_dc = (uint32_t)(ceil(fabs(__tmp)));
	#endif

	__builtin_avr_delay_cycles(__ticks_dc);
     f6e:	26 e6       	ldi	r18, 0x66	; 102
     f70:	86 e6       	ldi	r24, 0x66	; 102
     f72:	95 e0       	ldi	r25, 0x05	; 5
     f74:	21 50       	subi	r18, 0x01	; 1
     f76:	80 40       	sbci	r24, 0x00	; 0
     f78:	90 40       	sbci	r25, 0x00	; 0
     f7a:	e1 f7       	brne	.-8      	; 0xf74 <Alarm+0xe>
	_delay_ms(120);								// Time Delay  120mSec
	Beep(15);								// 1mSec X 15 = 15mSec
     f7c:	8f e0       	ldi	r24, 0x0F	; 15
     f7e:	90 e0       	ldi	r25, 0x00	; 0
     f80:	0e 94 3b 04 	call	0x876	; 0x876 <Beep>
     f84:	26 e6       	ldi	r18, 0x66	; 102
     f86:	86 e6       	ldi	r24, 0x66	; 102
     f88:	95 e0       	ldi	r25, 0x05	; 5
     f8a:	21 50       	subi	r18, 0x01	; 1
     f8c:	80 40       	sbci	r24, 0x00	; 0
     f8e:	90 40       	sbci	r25, 0x00	; 0
     f90:	e1 f7       	brne	.-8      	; 0xf8a <Alarm+0x24>
	_delay_ms(120);								// Time Delay  120mSec
	Beep(15);								// 1mSec X 15 = 15mSec
     f92:	8f e0       	ldi	r24, 0x0F	; 15
     f94:	90 e0       	ldi	r25, 0x00	; 0
     f96:	0e 94 3b 04 	call	0x876	; 0x876 <Beep>
     f9a:	08 95       	ret

00000f9c <Check_Value>:
	Var_Init();								// ║ψ╝÷ ├╩▒έ╚φ
}

//=================================================================================================
void Check_Value(void)								// ╖╬╡ί╝┐ ├╝┴▀├°┴ν
{
     f9c:	8f 92       	push	r8
     f9e:	9f 92       	push	r9
     fa0:	af 92       	push	r10
     fa2:	bf 92       	push	r11
     fa4:	cf 92       	push	r12
     fa6:	df 92       	push	r13
     fa8:	ef 92       	push	r14
     faa:	ff 92       	push	r15
     fac:	0f 93       	push	r16
     fae:	1f 93       	push	r17
     fb0:	cf 93       	push	r28
     fb2:	df 93       	push	r29
	uint32_t Value = Read_Load_Cell();					// ╖╬╡ί╝┐ ├°┴ν░ς └╨▒έ
     fb4:	0e 94 11 16 	call	0x2c22	; 0x2c22 <Read_Load_Cell>
     fb8:	ec 01       	movw	r28, r24
     fba:	6c 01       	movw	r12, r24
     fbc:	e1 2c       	mov	r14, r1
     fbe:	f1 2c       	mov	r15, r1
	uint32_t Old_Value = CELL.Old_Value;					// ╖╬╡ί╝┐ Old_Value ░ς
     fc0:	80 91 a5 4a 	lds	r24, 0x4AA5	; 0x804aa5 <CELL+0x5>
     fc4:	90 91 a6 4a 	lds	r25, 0x4AA6	; 0x804aa6 <CELL+0x6>
     fc8:	a0 91 a7 4a 	lds	r26, 0x4AA7	; 0x804aa7 <CELL+0x7>
     fcc:	b0 91 a8 4a 	lds	r27, 0x4AA8	; 0x804aa8 <CELL+0x8>
//-------------------------------------------------------------------------------------------------
	if(Value)								// ├°┴ν├╝┴▀└╠ └╓└╕╕ώ
     fd0:	c1 14       	cp	r12, r1
     fd2:	d1 04       	cpc	r13, r1
     fd4:	e1 04       	cpc	r14, r1
     fd6:	f1 04       	cpc	r15, r1
     fd8:	09 f4       	brne	.+2      	; 0xfdc <Check_Value+0x40>
     fda:	09 c1       	rjmp	.+530    	; 0x11ee <Check_Value+0x252>
	{
//  		if((Timer.Limit_Timer >= 500) & ((Value <= Old_Value + Admit_Weight) & (Value >= Old_Value - Admit_Weight)))
 		if((Value <= Old_Value + Admit_Weight) & (Value >= Old_Value - Admit_Weight))
     fdc:	ac 01       	movw	r20, r24
     fde:	bd 01       	movw	r22, r26
     fe0:	4e 5c       	subi	r20, 0xCE	; 206
     fe2:	5f 4f       	sbci	r21, 0xFF	; 255
     fe4:	6f 4f       	sbci	r22, 0xFF	; 255
     fe6:	7f 4f       	sbci	r23, 0xFF	; 255
     fe8:	c2 97       	sbiw	r24, 0x32	; 50
     fea:	a1 09       	sbc	r26, r1
     fec:	b1 09       	sbc	r27, r1
     fee:	31 e0       	ldi	r19, 0x01	; 1
     ff0:	4c 15       	cp	r20, r12
     ff2:	5d 05       	cpc	r21, r13
     ff4:	6e 05       	cpc	r22, r14
     ff6:	7f 05       	cpc	r23, r15
     ff8:	08 f4       	brcc	.+2      	; 0xffc <Check_Value+0x60>
     ffa:	30 e0       	ldi	r19, 0x00	; 0
     ffc:	21 e0       	ldi	r18, 0x01	; 1
     ffe:	c8 16       	cp	r12, r24
    1000:	d9 06       	cpc	r13, r25
    1002:	ea 06       	cpc	r14, r26
    1004:	fb 06       	cpc	r15, r27
    1006:	08 f4       	brcc	.+2      	; 0x100a <Check_Value+0x6e>
    1008:	20 e0       	ldi	r18, 0x00	; 0
    100a:	23 23       	and	r18, r19
    100c:	09 f4       	brne	.+2      	; 0x1010 <Check_Value+0x74>
    100e:	ca c0       	rjmp	.+404    	; 0x11a4 <Check_Value+0x208>
		{								// └╠└ⁿ├╝┴▀└╠ ├°┴ν├╝┴▀░· └╬┴Ϋ├╝┴▀(500g)└╗ ┤Ϋ╟╤░ς░· ░░░┼│ς └█░Ί └╬┴Ϋ├╝┴▀(500g)└╗ ╗τ░ς░· ░░░┼│ς ┼σ╕ώ╝φ └╠└ⁿ├╝┴▀░· ░░└╕╕ώ
			OK_Count++;						// ├°┴ν├╝┴▀ OK Count ┴Ϋ░κ
    1010:	80 91 da 4a 	lds	r24, 0x4ADA	; 0x804ada <OK_Count>
    1014:	8f 5f       	subi	r24, 0xFF	; 255
    1016:	80 93 da 4a 	sts	0x4ADA, r24	; 0x804ada <OK_Count>
			if(OK_Count > 3)					// ├°┴ν├╝┴▀ OK Count ░κ 3║╕┤┘ ┼σ╕ώ
    101a:	84 30       	cpi	r24, 0x04	; 4
    101c:	08 f4       	brcc	.+2      	; 0x1020 <Check_Value+0x84>
    101e:	a6 c0       	rjmp	.+332    	; 0x116c <Check_Value+0x1d0>
			{
				FND_Value_Data(1, 1, 10);			// FND 1 FND_MINUS
    1020:	4a e0       	ldi	r20, 0x0A	; 10
    1022:	61 e0       	ldi	r22, 0x01	; 1
    1024:	81 e0       	ldi	r24, 0x01	; 1
    1026:	0e 94 ca 05 	call	0xb94	; 0xb94 <FND_Value_Data>

 				if(SET.Save)					// └·└ί Key ░κ ┤φ╖╚└╕╕ώ
    102a:	80 91 92 4a 	lds	r24, 0x4A92	; 0x804a92 <SET+0x3>
    102e:	88 23       	and	r24, r24
    1030:	09 f4       	brne	.+2      	; 0x1034 <Check_Value+0x98>
    1032:	79 c0       	rjmp	.+242    	; 0x1126 <Check_Value+0x18a>
 				{
					if(SAVE.Count < 299) {SAVE.Count++;}	// └·└ί╚╜╝÷ ░κ 0 ~ 299(300░│)║╕┤┘ └█└╕╕ώ └·└ί╚╜╝÷ ┴Ϋ░κ
    1034:	80 91 fb 40 	lds	r24, 0x40FB	; 0x8040fb <SAVE>
    1038:	90 91 fc 40 	lds	r25, 0x40FC	; 0x8040fc <SAVE+0x1>
    103c:	8b 32       	cpi	r24, 0x2B	; 43
    103e:	91 40       	sbci	r25, 0x01	; 1
    1040:	40 f4       	brcc	.+16     	; 0x1052 <Check_Value+0xb6>
    1042:	eb ef       	ldi	r30, 0xFB	; 251
    1044:	f0 e4       	ldi	r31, 0x40	; 64
    1046:	80 81       	ld	r24, Z
    1048:	91 81       	ldd	r25, Z+1	; 0x01
    104a:	01 96       	adiw	r24, 0x01	; 1
    104c:	80 83       	st	Z, r24
    104e:	91 83       	std	Z+1, r25	; 0x01
    1050:	04 c0       	rjmp	.+8      	; 0x105a <Check_Value+0xbe>
					else                 {SAVE.Count = 0;}	// ╛╞┤╧╕ώ └·└ί╚╜╝÷ ┴Ϋ░κ
    1052:	10 92 fb 40 	sts	0x40FB, r1	; 0x8040fb <SAVE>
    1056:	10 92 fc 40 	sts	0x40FC, r1	; 0x8040fc <SAVE+0x1>

 	 				SAVE.Data [SAVE.Count] = CELL.Value = Value + Interval;
    105a:	0b ef       	ldi	r16, 0xFB	; 251
    105c:	10 e4       	ldi	r17, 0x40	; 64
    105e:	d8 01       	movw	r26, r16
    1060:	2d 91       	ld	r18, X+
    1062:	3c 91       	ld	r19, X
    1064:	80 91 e9 4a 	lds	r24, 0x4AE9	; 0x804ae9 <Interval>
    1068:	90 91 ea 4a 	lds	r25, 0x4AEA	; 0x804aea <Interval+0x1>
    106c:	09 2e       	mov	r0, r25
    106e:	00 0c       	add	r0, r0
    1070:	aa 0b       	sbc	r26, r26
    1072:	bb 0b       	sbc	r27, r27
    1074:	8c 0d       	add	r24, r12
    1076:	9d 1d       	adc	r25, r13
    1078:	ae 1d       	adc	r26, r14
    107a:	bf 1d       	adc	r27, r15
    107c:	0f 2e       	mov	r0, r31
    107e:	f0 ea       	ldi	r31, 0xA0	; 160
    1080:	8f 2e       	mov	r8, r31
    1082:	fa e4       	ldi	r31, 0x4A	; 74
    1084:	9f 2e       	mov	r9, r31
    1086:	f0 2d       	mov	r31, r0
    1088:	f4 01       	movw	r30, r8
    108a:	81 83       	std	Z+1, r24	; 0x01
    108c:	92 83       	std	Z+2, r25	; 0x02
    108e:	a3 83       	std	Z+3, r26	; 0x03
    1090:	b4 83       	std	Z+4, r27	; 0x04
    1092:	f9 01       	movw	r30, r18
    1094:	31 96       	adiw	r30, 0x01	; 1
    1096:	ee 0f       	add	r30, r30
    1098:	ff 1f       	adc	r31, r31
    109a:	e5 50       	subi	r30, 0x05	; 5
    109c:	ff 4b       	sbci	r31, 0xBF	; 191
    109e:	80 83       	st	Z, r24
    10a0:	91 83       	std	Z+1, r25	; 0x01
 	 				SAVE.Year [SAVE.Count] = RTC_Single_Read(RTC_YEAR);	// YEAR
    10a2:	d8 01       	movw	r26, r16
    10a4:	ad 90       	ld	r10, X+
    10a6:	bc 90       	ld	r11, X
    10a8:	86 e0       	ldi	r24, 0x06	; 6
    10aa:	0e 94 13 24 	call	0x4826	; 0x4826 <RTC_Single_Read>
    10ae:	f5 01       	movw	r30, r10
    10b0:	e9 5a       	subi	r30, 0xA9	; 169
    10b2:	fc 4b       	sbci	r31, 0xBC	; 188
    10b4:	80 83       	st	Z, r24
 	 				SAVE.Month[SAVE.Count] = RTC_Single_Read(RTC_MONTH);	// MONTH
    10b6:	f8 01       	movw	r30, r16
    10b8:	a0 80       	ld	r10, Z
    10ba:	b1 80       	ldd	r11, Z+1	; 0x01
    10bc:	85 e0       	ldi	r24, 0x05	; 5
    10be:	0e 94 13 24 	call	0x4826	; 0x4826 <RTC_Single_Read>
    10c2:	f5 01       	movw	r30, r10
    10c4:	ed 57       	subi	r30, 0x7D	; 125
    10c6:	fb 4b       	sbci	r31, 0xBB	; 187
    10c8:	80 83       	st	Z, r24
 	 				SAVE.Date [SAVE.Count] = RTC_Single_Read(RTC_DATE);	// DATE
    10ca:	d8 01       	movw	r26, r16
    10cc:	ad 90       	ld	r10, X+
    10ce:	bc 90       	ld	r11, X
    10d0:	84 e0       	ldi	r24, 0x04	; 4
    10d2:	0e 94 13 24 	call	0x4826	; 0x4826 <RTC_Single_Read>
    10d6:	f5 01       	movw	r30, r10
    10d8:	e1 55       	subi	r30, 0x51	; 81
    10da:	fa 4b       	sbci	r31, 0xBA	; 186
    10dc:	80 83       	st	Z, r24
 	 				SAVE.Hour [SAVE.Count] = RTC_Single_Read(RTC_HOUR);	// HOUR
    10de:	f8 01       	movw	r30, r16
    10e0:	a0 80       	ld	r10, Z
    10e2:	b1 80       	ldd	r11, Z+1	; 0x01
    10e4:	82 e0       	ldi	r24, 0x02	; 2
    10e6:	0e 94 13 24 	call	0x4826	; 0x4826 <RTC_Single_Read>
    10ea:	f5 01       	movw	r30, r10
    10ec:	e5 52       	subi	r30, 0x25	; 37
    10ee:	f9 4b       	sbci	r31, 0xB9	; 185
    10f0:	80 83       	st	Z, r24
 	 				SAVE.Min  [SAVE.Count] = RTC_Single_Read(RTC_MINUTE);	// MINUTE
    10f2:	d8 01       	movw	r26, r16
    10f4:	ad 90       	ld	r10, X+
    10f6:	bc 90       	ld	r11, X
    10f8:	81 e0       	ldi	r24, 0x01	; 1
    10fa:	0e 94 13 24 	call	0x4826	; 0x4826 <RTC_Single_Read>
    10fe:	f5 01       	movw	r30, r10
    1100:	e9 5f       	subi	r30, 0xF9	; 249
    1102:	f7 4b       	sbci	r31, 0xB7	; 183
    1104:	80 83       	st	Z, r24
 	 				SAVE.Sec  [SAVE.Count] = RTC_Single_Read(RTC_SECOND);	// SECOND
    1106:	f8 01       	movw	r30, r16
    1108:	00 81       	ld	r16, Z
    110a:	11 81       	ldd	r17, Z+1	; 0x01
    110c:	80 e0       	ldi	r24, 0x00	; 0
    110e:	0e 94 13 24 	call	0x4826	; 0x4826 <RTC_Single_Read>
    1112:	f8 01       	movw	r30, r16
    1114:	ed 5c       	subi	r30, 0xCD	; 205
    1116:	f6 4b       	sbci	r31, 0xB6	; 182
    1118:	80 83       	st	Z, r24

 					CELL.Zero_Buff = 0;
    111a:	d4 01       	movw	r26, r8
    111c:	1c 92       	st	X, r1
					SET.Save = 0;
    111e:	10 92 92 4a 	sts	0x4A92, r1	; 0x804a92 <SET+0x3>
					Alarm();
    1122:	0e 94 b3 07 	call	0xf66	; 0xf66 <Alarm>
 				}

				OK_Count = 0;					// ├°┴ν├╝┴▀ OK Count ├╩▒έ╚φ
    1126:	10 92 da 4a 	sts	0x4ADA, r1	; 0x804ada <OK_Count>
				FND_Value_Data(2, 2, 12);			// FND 2 FND_OFF
    112a:	4c e0       	ldi	r20, 0x0C	; 12
    112c:	62 e0       	ldi	r22, 0x02	; 2
    112e:	82 e0       	ldi	r24, 0x02	; 2
    1130:	0e 94 ca 05 	call	0xb94	; 0xb94 <FND_Value_Data>
				printf("Value %ld \r\n", Value + Interval);
    1134:	80 91 e9 4a 	lds	r24, 0x4AE9	; 0x804ae9 <Interval>
    1138:	90 91 ea 4a 	lds	r25, 0x4AEA	; 0x804aea <Interval+0x1>
    113c:	09 2e       	mov	r0, r25
    113e:	00 0c       	add	r0, r0
    1140:	aa 0b       	sbc	r26, r26
    1142:	bb 0b       	sbc	r27, r27
    1144:	8c 0d       	add	r24, r12
    1146:	9d 1d       	adc	r25, r13
    1148:	ae 1d       	adc	r26, r14
    114a:	bf 1d       	adc	r27, r15
    114c:	bf 93       	push	r27
    114e:	af 93       	push	r26
    1150:	9f 93       	push	r25
    1152:	8f 93       	push	r24
    1154:	88 e4       	ldi	r24, 0x48	; 72
    1156:	90 e4       	ldi	r25, 0x40	; 64
    1158:	9f 93       	push	r25
    115a:	8f 93       	push	r24
    115c:	0e 94 bc 38 	call	0x7178	; 0x7178 <printf>
    1160:	0f 90       	pop	r0
    1162:	0f 90       	pop	r0
    1164:	0f 90       	pop	r0
    1166:	0f 90       	pop	r0
    1168:	0f 90       	pop	r0
    116a:	0f 90       	pop	r0
			}

			CELL.Old_Value = Old_Value = Value;
    116c:	ce 01       	movw	r24, r28
    116e:	a0 e0       	ldi	r26, 0x00	; 0
    1170:	b0 e0       	ldi	r27, 0x00	; 0
    1172:	e0 ea       	ldi	r30, 0xA0	; 160
    1174:	fa e4       	ldi	r31, 0x4A	; 74
    1176:	85 83       	std	Z+5, r24	; 0x05
    1178:	96 83       	std	Z+6, r25	; 0x06
    117a:	a7 83       	std	Z+7, r26	; 0x07
    117c:	b0 87       	std	Z+8, r27	; 0x08
			CELL.Value = Value + Interval;
    117e:	80 91 e9 4a 	lds	r24, 0x4AE9	; 0x804ae9 <Interval>
    1182:	90 91 ea 4a 	lds	r25, 0x4AEA	; 0x804aea <Interval+0x1>
    1186:	09 2e       	mov	r0, r25
    1188:	00 0c       	add	r0, r0
    118a:	aa 0b       	sbc	r26, r26
    118c:	bb 0b       	sbc	r27, r27
    118e:	c8 0e       	add	r12, r24
    1190:	d9 1e       	adc	r13, r25
    1192:	ea 1e       	adc	r14, r26
    1194:	fb 1e       	adc	r15, r27
    1196:	c1 82       	std	Z+1, r12	; 0x01
    1198:	d2 82       	std	Z+2, r13	; 0x02
    119a:	e3 82       	std	Z+3, r14	; 0x03
    119c:	f4 82       	std	Z+4, r15	; 0x04
			Cell_Desplay();
    119e:	0e 94 5a 14 	call	0x28b4	; 0x28b4 <Cell_Desplay>
    11a2:	45 c0       	rjmp	.+138    	; 0x122e <Check_Value+0x292>
		}
		else	// └╠└ⁿ├╝┴▀└╠ ├°┴ν├╝┴▀░· └╬┴Ϋ├╝┴▀(500g)└╗ ┤Ϋ╟╤░ς░· ░░░┼│ς └█░Ί └╬┴Ϋ├╝┴▀(500g)└╗ ╗τ░ς░· ░░░┼│ς ┼σ╕ώ╝φ └╠└ⁿ├╝┴▀░· ░░┴÷ ╛╩└╕╕ώ
		{
			CELL.Old_Value = Old_Value = Value;			// └╠└ⁿ├╝┴▀┐κ ├°┴ν├╝┴▀ └·└ί
    11a4:	ce 01       	movw	r24, r28
    11a6:	a0 e0       	ldi	r26, 0x00	; 0
    11a8:	b0 e0       	ldi	r27, 0x00	; 0
    11aa:	e0 ea       	ldi	r30, 0xA0	; 160
    11ac:	fa e4       	ldi	r31, 0x4A	; 74
    11ae:	85 83       	std	Z+5, r24	; 0x05
    11b0:	96 83       	std	Z+6, r25	; 0x06
    11b2:	a7 83       	std	Z+7, r26	; 0x07
    11b4:	b0 87       	std	Z+8, r27	; 0x08
			CELL.Value = Value + Interval;
    11b6:	80 91 e9 4a 	lds	r24, 0x4AE9	; 0x804ae9 <Interval>
    11ba:	90 91 ea 4a 	lds	r25, 0x4AEA	; 0x804aea <Interval+0x1>
    11be:	09 2e       	mov	r0, r25
    11c0:	00 0c       	add	r0, r0
    11c2:	aa 0b       	sbc	r26, r26
    11c4:	bb 0b       	sbc	r27, r27
    11c6:	c8 0e       	add	r12, r24
    11c8:	d9 1e       	adc	r13, r25
    11ca:	ea 1e       	adc	r14, r26
    11cc:	fb 1e       	adc	r15, r27
    11ce:	c1 82       	std	Z+1, r12	; 0x01
    11d0:	d2 82       	std	Z+2, r13	; 0x02
    11d2:	e3 82       	std	Z+3, r14	; 0x03
    11d4:	f4 82       	std	Z+4, r15	; 0x04
			Zero_Count = 0;
    11d6:	10 92 f7 4a 	sts	0x4AF7, r1	; 0x804af7 <Zero_Count>

			OK_Count = 0;						// ├°┴ν├╝┴▀ OK Count ├╩▒έ╚φ
    11da:	10 92 da 4a 	sts	0x4ADA, r1	; 0x804ada <OK_Count>
			FND_Value_Data(1, 1, 12);				// FND 1 FND_OFF
    11de:	4c e0       	ldi	r20, 0x0C	; 12
    11e0:	61 e0       	ldi	r22, 0x01	; 1
    11e2:	81 e0       	ldi	r24, 0x01	; 1
    11e4:	0e 94 ca 05 	call	0xb94	; 0xb94 <FND_Value_Data>
			Cell_Desplay();
    11e8:	0e 94 5a 14 	call	0x28b4	; 0x28b4 <Cell_Desplay>
    11ec:	20 c0       	rjmp	.+64     	; 0x122e <Check_Value+0x292>
		}
	}
	else 									// ├°┴ν├╝┴▀└╠ ╛°╕ώ
	{
		Zero_Count++;							// Zero_Count ┴Ϋ░κ
    11ee:	80 91 f7 4a 	lds	r24, 0x4AF7	; 0x804af7 <Zero_Count>
    11f2:	8f 5f       	subi	r24, 0xFF	; 255
    11f4:	80 93 f7 4a 	sts	0x4AF7, r24	; 0x804af7 <Zero_Count>
		if(Zero_Count > 3)						// Zero_Count └╠ 2║╕┤┘ ┼σ╕ώ
    11f8:	84 30       	cpi	r24, 0x04	; 4
    11fa:	c8 f0       	brcs	.+50     	; 0x122e <Check_Value+0x292>
		{
			CELL.Old_Value = 0;					// └╠└ⁿ├°┴ν├╝┴▀ ├╩▒έ╚φ
    11fc:	e0 ea       	ldi	r30, 0xA0	; 160
    11fe:	fa e4       	ldi	r31, 0x4A	; 74
    1200:	15 82       	std	Z+5, r1	; 0x05
    1202:	16 82       	std	Z+6, r1	; 0x06
    1204:	17 82       	std	Z+7, r1	; 0x07
    1206:	10 86       	std	Z+8, r1	; 0x08
			CELL.Value = Value;
    1208:	ce 01       	movw	r24, r28
    120a:	a0 e0       	ldi	r26, 0x00	; 0
    120c:	b0 e0       	ldi	r27, 0x00	; 0
    120e:	81 83       	std	Z+1, r24	; 0x01
    1210:	92 83       	std	Z+2, r25	; 0x02
    1212:	a3 83       	std	Z+3, r26	; 0x03
    1214:	b4 83       	std	Z+4, r27	; 0x04
			CELL.Zero_Buff = 0;					// CELL.Zero_Buff ├╩▒έ╚φ
    1216:	10 82       	st	Z, r1
			Zero_Count = 0;						// Zero_Count ├╩▒έ╚φ
    1218:	10 92 f7 4a 	sts	0x4AF7, r1	; 0x804af7 <Zero_Count>
			OK_Count = 0;						// OK_Count ├╩▒έ╚φ
    121c:	10 92 da 4a 	sts	0x4ADA, r1	; 0x804ada <OK_Count>

			FND_Value_Data(1, 1, 12);				// FND 1 FND_OFF
    1220:	4c e0       	ldi	r20, 0x0C	; 12
    1222:	61 e0       	ldi	r22, 0x01	; 1
    1224:	81 e0       	ldi	r24, 0x01	; 1
    1226:	0e 94 ca 05 	call	0xb94	; 0xb94 <FND_Value_Data>
			Cell_Desplay();						// ├°┴ν├╝┴▀ ╟ξ╜├
    122a:	0e 94 5a 14 	call	0x28b4	; 0x28b4 <Cell_Desplay>
		}
	}
}
    122e:	df 91       	pop	r29
    1230:	cf 91       	pop	r28
    1232:	1f 91       	pop	r17
    1234:	0f 91       	pop	r16
    1236:	ff 90       	pop	r15
    1238:	ef 90       	pop	r14
    123a:	df 90       	pop	r13
    123c:	cf 90       	pop	r12
    123e:	bf 90       	pop	r11
    1240:	af 90       	pop	r10
    1242:	9f 90       	pop	r9
    1244:	8f 90       	pop	r8
    1246:	08 95       	ret

00001248 <Send_To_Server_0>:
//=================================================================================================
//		PC╖╬ ╡ξ└╠┼═ └ⁿ╝█ (20░│ ├°┴ν├╝┴▀ Data)
//=================================================================================================
// void Send_To_Server(uint8_t Number, uint8_t id)				// PC╖╬ ╡ξ└╠┼═ └ⁿ╝█ (20░│ ├°┴ν├╝┴▀ Data)
void Send_To_Server_0(void)							// PC╖╬ ╡ξ└╠┼═ └ⁿ╝█ (1╚╕ 1░│╛┐ └ⁿ╝█ : ├°┴ν├╝┴▀ Data)
{
    1248:	1f 93       	push	r17
    124a:	cf 93       	push	r28
    124c:	df 93       	push	r29
    124e:	cd b7       	in	r28, 0x3d	; 61
    1250:	de b7       	in	r29, 0x3e	; 62
    1252:	6e 97       	sbiw	r28, 0x1e	; 30
    1254:	cd bf       	out	0x3d, r28	; 61
    1256:	de bf       	out	0x3e, r29	; 62
	uint8_t cnt = 0;							// cnt ║ψ╝÷ ├╩▒έ╚φ
	uint8_t ChkSum = 0;							// ChkSum ║ψ╝÷ ├╩▒έ╚φ
	char SerialData[30] = {0};						// SerialData[30] ╣÷╞█ ╝▒╛Ώ
    1258:	8e e1       	ldi	r24, 0x1E	; 30
    125a:	fe 01       	movw	r30, r28
    125c:	31 96       	adiw	r30, 0x01	; 1
    125e:	df 01       	movw	r26, r30
    1260:	28 2f       	mov	r18, r24
    1262:	1d 92       	st	X+, r1
    1264:	2a 95       	dec	r18
    1266:	e9 f7       	brne	.-6      	; 0x1262 <Send_To_Server_0+0x1a>
 	static uint16_t CommCnt	= 0;

	memset(SerialData, 0x00, sizeof(SerialData));				// ╣÷╞█ ├╩▒έ╚φ
    1268:	df 01       	movw	r26, r30
    126a:	1d 92       	st	X+, r1
    126c:	8a 95       	dec	r24
    126e:	e9 f7       	brne	.-6      	; 0x126a <Send_To_Server_0+0x22>
// 	GetWeightHistoryRecord_EEPROM(commCnt++);

// 	if      (commCnt > (RECORD.Total_Cnt % 300) && (RECORD.Total_Cnt < 300)) {commCnt = 0;}
// 	else if (commCnt > 299) {commCnt = 0;}
	if(CommCnt > 299) {CommCnt = 0;}
    1270:	80 91 c0 40 	lds	r24, 0x40C0	; 0x8040c0 <__data_end>
    1274:	90 91 c1 40 	lds	r25, 0x40C1	; 0x8040c1 <__data_end+0x1>
    1278:	8c 32       	cpi	r24, 0x2C	; 44
    127a:	91 40       	sbci	r25, 0x01	; 1
    127c:	20 f0       	brcs	.+8      	; 0x1286 <Send_To_Server_0+0x3e>
    127e:	10 92 c0 40 	sts	0x40C0, r1	; 0x8040c0 <__data_end>
    1282:	10 92 c1 40 	sts	0x40C1, r1	; 0x8040c1 <__data_end+0x1>


//-------------------------------------------------------------------------------------------------
//		Serial Protocol Start
//-------------------------------------------------------------------------------------------------
	SerialData[cnt++] = STX_Iontec;						// STX_Iontec : 0xF0				// 0
    1286:	80 ef       	ldi	r24, 0xF0	; 240
    1288:	89 83       	std	Y+1, r24	; 0x01
	SerialData[cnt++] = CTL2PC;						// ╡ξ└╠┼═╣ό╟έ
	SerialData[cnt++] = SORTING_FRAGEMNT;					// 21 : └ί║±▒έ┴╛(╞≈└ψ└┌╡╖, ║±└░╡╖)
    128a:	85 e1       	ldi	r24, 0x15	; 21
    128c:	8b 83       	std	Y+3, r24	; 0x03
	SerialData[cnt++] = Cell_ID;						// └ί║±id (Cell_ID)
    128e:	80 91 60 4a 	lds	r24, 0x4A60	; 0x804a60 <Cell_ID>
    1292:	8c 83       	std	Y+4, r24	; 0x04
	SerialData[cnt++] = CD_STATUS;						// 0 : ▒╕║╨─┌╡ί (╜╟╜├░μ╗≤┼┬ ┴ν║╕) 

	SerialData[cnt++] = FW_VER;						// Protocol Version				// 5
    1294:	89 e2       	ldi	r24, 0x29	; 41
    1296:	8e 83       	std	Y+6, r24	; 0x06
	SerialData[cnt++] = Gwid;						// GWID
    1298:	80 91 db 4a 	lds	r24, 0x4ADB	; 0x804adb <Gwid>
    129c:	8f 83       	std	Y+7, r24	; 0x07
	SerialData[cnt++] = 0x00;						// ░│├╝╝°╣°
	SerialData[cnt++] = 0x00;						// └┌╡┐ 1 / ╝÷╡┐ 0
	SerialData[cnt++] = 0x02;						// ╣τ░╘ ╝╥╝÷┴κ ╗ύ┐Έ:1, ╣τ░╘ ╝╥╝÷┴κ ╣╠╗ύ┐Έ:0, 10g┤▄└π:2
    129e:	82 e0       	ldi	r24, 0x02	; 2
    12a0:	8a 87       	std	Y+10, r24	; 0x0a

	SerialData[cnt++] = SAVE.Count / 256;					// ├°┴ν╣τ░╘ CommCnt ╗≤└π				// 10
    12a2:	eb ef       	ldi	r30, 0xFB	; 251
    12a4:	f0 e4       	ldi	r31, 0x40	; 64
    12a6:	80 81       	ld	r24, Z
    12a8:	91 81       	ldd	r25, Z+1	; 0x01
    12aa:	9b 87       	std	Y+11, r25	; 0x0b
	SerialData[cnt++] = SAVE.Count % 256;					// ├°┴ν╣τ░╘ CommCnt ╟╧└π
    12ac:	80 81       	ld	r24, Z
    12ae:	91 81       	ldd	r25, Z+1	; 0x01
    12b0:	8c 87       	std	Y+12, r24	; 0x0c
	SerialData[cnt++] = SAVE.Data[CommCnt] / 256;				// ├°┴ν╣τ░╘ CommCnt ╗≤└π
    12b2:	80 91 c0 40 	lds	r24, 0x40C0	; 0x8040c0 <__data_end>
    12b6:	90 91 c1 40 	lds	r25, 0x40C1	; 0x8040c1 <__data_end+0x1>
    12ba:	fc 01       	movw	r30, r24
    12bc:	31 96       	adiw	r30, 0x01	; 1
    12be:	ee 0f       	add	r30, r30
    12c0:	ff 1f       	adc	r31, r31
    12c2:	e5 50       	subi	r30, 0x05	; 5
    12c4:	ff 4b       	sbci	r31, 0xBF	; 191
    12c6:	20 81       	ld	r18, Z
    12c8:	31 81       	ldd	r19, Z+1	; 0x01
    12ca:	3d 87       	std	Y+13, r19	; 0x0d
	SerialData[cnt++] = SAVE.Data[CommCnt] % 256;				// ├°┴ν╣τ░╘ CommCnt ╟╧└π
    12cc:	20 81       	ld	r18, Z
    12ce:	31 81       	ldd	r19, Z+1	; 0x01
    12d0:	2e 87       	std	Y+14, r18	; 0x0e

	SerialData[cnt++] = SAVE.RoomNum;					// ╣ό ╣°╚μ
    12d2:	20 91 55 43 	lds	r18, 0x4355	; 0x804355 <SAVE+0x25a>
    12d6:	2f 87       	std	Y+15, r18	; 0x0f
	SerialData[cnt++] = SAVE.StalNum;					// ╜║┼ύ ╣°╚μ					// 15
    12d8:	20 91 56 43 	lds	r18, 0x4356	; 0x804356 <SAVE+0x25b>
    12dc:	28 8b       	std	Y+16, r18	; 0x10

	SerialData[cnt++] = SAVE.Year[CommCnt];					// ├°┴ν ┐υ╡╡
    12de:	85 50       	subi	r24, 0x05	; 5
    12e0:	9f 4b       	sbci	r25, 0xBF	; 191
    12e2:	fc 01       	movw	r30, r24
    12e4:	e4 5a       	subi	r30, 0xA4	; 164
    12e6:	fd 4f       	sbci	r31, 0xFD	; 253
    12e8:	20 81       	ld	r18, Z
    12ea:	29 8b       	std	Y+17, r18	; 0x11
	SerialData[cnt++] = SAVE.Month[CommCnt];				// ├°┴ν ┐∙
    12ec:	e4 5d       	subi	r30, 0xD4	; 212
    12ee:	fe 4f       	sbci	r31, 0xFE	; 254
    12f0:	20 81       	ld	r18, Z
    12f2:	2a 8b       	std	Y+18, r18	; 0x12
	SerialData[cnt++] = SAVE.Date[CommCnt];					// ├°┴ν └╧
    12f4:	e4 5d       	subi	r30, 0xD4	; 212
    12f6:	fe 4f       	sbci	r31, 0xFE	; 254
    12f8:	20 81       	ld	r18, Z
    12fa:	2b 8b       	std	Y+19, r18	; 0x13
	SerialData[cnt++] = SAVE.Hour[CommCnt];					// ├°┴ν ╜├
    12fc:	e4 5d       	subi	r30, 0xD4	; 212
    12fe:	fe 4f       	sbci	r31, 0xFE	; 254
    1300:	20 81       	ld	r18, Z
    1302:	2c 8b       	std	Y+20, r18	; 0x14
	SerialData[cnt++] = SAVE.Min[CommCnt];					// ├°┴ν ║╨					// 20
    1304:	e4 5d       	subi	r30, 0xD4	; 212
    1306:	fe 4f       	sbci	r31, 0xFE	; 254
    1308:	20 81       	ld	r18, Z
    130a:	2d 8b       	std	Y+21, r18	; 0x15
	SerialData[cnt++] = SAVE.Sec[CommCnt];					// ├°┴ν ├╩
    130c:	e4 5d       	subi	r30, 0xD4	; 212
    130e:	fe 4f       	sbci	r31, 0xFE	; 254
    1310:	80 81       	ld	r24, Z
    1312:	8e 8b       	std	Y+22, r24	; 0x16

	SerialData[cnt++] = SAVE.SandCnt;					// Data ╝°╣°
    1314:	80 91 5f 4a 	lds	r24, 0x4A5F	; 0x804a5f <SAVE+0x964>
    1318:	8f 8b       	std	Y+23, r24	; 0x17
	SerialData[cnt++] = 0x00;						// ┐╣║±
	SerialData[cnt++] = 0x00;						// ┐╣║±						// 25
	SerialData[cnt++] = 0x00;						// ┐╣║±
	SerialData[cnt++] = 0x00;						// ┐╣║±

	for(uint8_t icnt2 = 1; icnt2 < cnt; icnt2++) {ChkSum += SerialData[icnt2];}	// ├╝┼σ╜ό ░ϋ╗Ά
    131a:	81 e0       	ldi	r24, 0x01	; 1
//=================================================================================================
// void Send_To_Server(uint8_t Number, uint8_t id)				// PC╖╬ ╡ξ└╠┼═ └ⁿ╝█ (20░│ ├°┴ν├╝┴▀ Data)
void Send_To_Server_0(void)							// PC╖╬ ╡ξ└╠┼═ └ⁿ╝█ (1╚╕ 1░│╛┐ └ⁿ╝█ : ├°┴ν├╝┴▀ Data)
{
	uint8_t cnt = 0;							// cnt ║ψ╝÷ ├╩▒έ╚φ
	uint8_t ChkSum = 0;							// ChkSum ║ψ╝÷ ├╩▒έ╚φ
    131c:	90 e0       	ldi	r25, 0x00	; 0
	SerialData[cnt++] = 0x00;						// ┐╣║±
	SerialData[cnt++] = 0x00;						// ┐╣║±						// 25
	SerialData[cnt++] = 0x00;						// ┐╣║±
	SerialData[cnt++] = 0x00;						// ┐╣║±

	for(uint8_t icnt2 = 1; icnt2 < cnt; icnt2++) {ChkSum += SerialData[icnt2];}	// ├╝┼σ╜ό ░ϋ╗Ά
    131e:	09 c0       	rjmp	.+18     	; 0x1332 <Send_To_Server_0+0xea>
    1320:	e1 e0       	ldi	r30, 0x01	; 1
    1322:	f0 e0       	ldi	r31, 0x00	; 0
    1324:	ec 0f       	add	r30, r28
    1326:	fd 1f       	adc	r31, r29
    1328:	e8 0f       	add	r30, r24
    132a:	f1 1d       	adc	r31, r1
    132c:	20 81       	ld	r18, Z
    132e:	92 0f       	add	r25, r18
    1330:	8f 5f       	subi	r24, 0xFF	; 255
    1332:	8c 31       	cpi	r24, 0x1C	; 28
    1334:	a8 f3       	brcs	.-22     	; 0x1320 <Send_To_Server_0+0xd8>
	SerialData[cnt++] = ChkSum;						// ├╝┼σ╜ό					// 28
    1336:	9d 8f       	std	Y+29, r25	; 0x1d
	SerialData[cnt++] = ETX_Iontec;						// ETX_Iontec : 0xF1				// 29
    1338:	81 ef       	ldi	r24, 0xF1	; 241
    133a:	8e 8f       	std	Y+30, r24	; 0x1e
//-------------------------------------------------------------------------------------------------
//		Serial Protocol End
//-------------------------------------------------------------------------------------------------
	for(uint8_t j = 0; j < cnt; j++) {USART3_Write(SerialData[j]);}		// SerialData ╝÷╕╕┼φ ╝█╜┼
    133c:	10 e0       	ldi	r17, 0x00	; 0
    133e:	0a c0       	rjmp	.+20     	; 0x1354 <Send_To_Server_0+0x10c>
    1340:	e1 e0       	ldi	r30, 0x01	; 1
    1342:	f0 e0       	ldi	r31, 0x00	; 0
    1344:	ec 0f       	add	r30, r28
    1346:	fd 1f       	adc	r31, r29
    1348:	e1 0f       	add	r30, r17
    134a:	f1 1d       	adc	r31, r1
    134c:	80 81       	ld	r24, Z
    134e:	0e 94 0e 28 	call	0x501c	; 0x501c <USART3_Write>
    1352:	1f 5f       	subi	r17, 0xFF	; 255
    1354:	1e 31       	cpi	r17, 0x1E	; 30
    1356:	a0 f3       	brcs	.-24     	; 0x1340 <Send_To_Server_0+0xf8>
}
    1358:	6e 96       	adiw	r28, 0x1e	; 30
    135a:	cd bf       	out	0x3d, r28	; 61
    135c:	de bf       	out	0x3e, r29	; 62
    135e:	df 91       	pop	r29
    1360:	cf 91       	pop	r28
    1362:	1f 91       	pop	r17
    1364:	08 95       	ret

00001366 <Send_To_Server_1>:

//=================================================================================================
//		PC╖╬ ╡ξ└╠┼═ └ⁿ╝█ (╝│┴ν┴ν║╕ ┤ϊ║ψ)
//=================================================================================================
void Send_To_Server_1(uint8_t ID, uint8_t Code)					// PC╖╬ ╡ξ└╠┼═ └ⁿ╝█ (╝│┴ν┴ν║╕ ┤ϊ║ψ)
{
    1366:	1f 93       	push	r17
    1368:	cf 93       	push	r28
    136a:	df 93       	push	r29
    136c:	cd b7       	in	r28, 0x3d	; 61
    136e:	de b7       	in	r29, 0x3e	; 62
    1370:	2a 97       	sbiw	r28, 0x0a	; 10
    1372:	cd bf       	out	0x3d, r28	; 61
    1374:	de bf       	out	0x3e, r29	; 62
	uint8_t cnt = 0;							// cnt ║ψ╝÷ ├╩▒έ╚φ
	uint8_t ChkSum = 0;							// ChkSum ║ψ╝÷ ├╩▒έ╚φ
	char SerialData[10] = {};						// SerialData[10] ╣÷╞█ ╝▒╛Ώ
    1376:	9a e0       	ldi	r25, 0x0A	; 10
    1378:	fe 01       	movw	r30, r28
    137a:	31 96       	adiw	r30, 0x01	; 1
    137c:	df 01       	movw	r26, r30
    137e:	29 2f       	mov	r18, r25
    1380:	1d 92       	st	X+, r1
    1382:	2a 95       	dec	r18
    1384:	e9 f7       	brne	.-6      	; 0x1380 <Send_To_Server_1+0x1a>
	memset(SerialData, 0x00, sizeof(SerialData));				// ╣÷╞█ ├╩▒έ╚φ
    1386:	df 01       	movw	r26, r30
    1388:	1d 92       	st	X+, r1
    138a:	9a 95       	dec	r25
    138c:	e9 f7       	brne	.-6      	; 0x1388 <Send_To_Server_1+0x22>
//-------------------------------------------------------------------------------------------------
//		Serial Protocol Start
//-------------------------------------------------------------------------------------------------
	SerialData[cnt++] = STX_Iontec;						// STX_Iontec : 0xF0	// 0
    138e:	90 ef       	ldi	r25, 0xF0	; 240
    1390:	99 83       	std	Y+1, r25	; 0x01
	SerialData[cnt++] = CTL2PC;						// ╡ξ└╠┼═╣ό╟έ
	SerialData[cnt++] = 0x01;						// └ί║±▒έ┴╛ : └┌╡╖ ╣τ░╘ ├°┴ν▒έ
    1392:	91 e0       	ldi	r25, 0x01	; 1
    1394:	9b 83       	std	Y+3, r25	; 0x03
	SerialData[cnt++] = ID;							// └ί║±id
    1396:	8c 83       	std	Y+4, r24	; 0x04
	SerialData[cnt++] = Code;						// ▒╕║╨─┌╡ί
    1398:	6d 83       	std	Y+5, r22	; 0x05
	SerialData[cnt++] = FW_VER;						// Protocol Version	// 5
    139a:	89 e2       	ldi	r24, 0x29	; 41
    139c:	8e 83       	std	Y+6, r24	; 0x06
	SerialData[cnt++] = Gwid;						// GWID
    139e:	80 91 db 4a 	lds	r24, 0x4ADB	; 0x804adb <Gwid>
    13a2:	8f 83       	std	Y+7, r24	; 0x07
	SerialData[cnt++] = 0x00;						// res
	for(uint8_t icnt2 = 1; icnt2 < cnt; icnt2++) {ChkSum += SerialData[icnt2];}	// ├╝┼σ╜ό ░ϋ╗Ά
    13a4:	81 e0       	ldi	r24, 0x01	; 1
//		PC╖╬ ╡ξ└╠┼═ └ⁿ╝█ (╝│┴ν┴ν║╕ ┤ϊ║ψ)
//=================================================================================================
void Send_To_Server_1(uint8_t ID, uint8_t Code)					// PC╖╬ ╡ξ└╠┼═ └ⁿ╝█ (╝│┴ν┴ν║╕ ┤ϊ║ψ)
{
	uint8_t cnt = 0;							// cnt ║ψ╝÷ ├╩▒έ╚φ
	uint8_t ChkSum = 0;							// ChkSum ║ψ╝÷ ├╩▒έ╚φ
    13a6:	90 e0       	ldi	r25, 0x00	; 0
	SerialData[cnt++] = ID;							// └ί║±id
	SerialData[cnt++] = Code;						// ▒╕║╨─┌╡ί
	SerialData[cnt++] = FW_VER;						// Protocol Version	// 5
	SerialData[cnt++] = Gwid;						// GWID
	SerialData[cnt++] = 0x00;						// res
	for(uint8_t icnt2 = 1; icnt2 < cnt; icnt2++) {ChkSum += SerialData[icnt2];}	// ├╝┼σ╜ό ░ϋ╗Ά
    13a8:	09 c0       	rjmp	.+18     	; 0x13bc <Send_To_Server_1+0x56>
    13aa:	e1 e0       	ldi	r30, 0x01	; 1
    13ac:	f0 e0       	ldi	r31, 0x00	; 0
    13ae:	ec 0f       	add	r30, r28
    13b0:	fd 1f       	adc	r31, r29
    13b2:	e8 0f       	add	r30, r24
    13b4:	f1 1d       	adc	r31, r1
    13b6:	20 81       	ld	r18, Z
    13b8:	92 0f       	add	r25, r18
    13ba:	8f 5f       	subi	r24, 0xFF	; 255
    13bc:	88 30       	cpi	r24, 0x08	; 8
    13be:	a8 f3       	brcs	.-22     	; 0x13aa <Send_To_Server_1+0x44>
	SerialData[cnt++] = ChkSum;									// 8
    13c0:	99 87       	std	Y+9, r25	; 0x09
	SerialData[cnt++] = ETX_Iontec;						// ETX_Iontec : 0xF1	// 9
    13c2:	81 ef       	ldi	r24, 0xF1	; 241
    13c4:	8a 87       	std	Y+10, r24	; 0x0a
//-------------------------------------------------------------------------------------------------
//		Serial Protocol End
//-------------------------------------------------------------------------------------------------
	for(uint8_t j = 0; j < cnt; j++) {USART3_Write(SerialData[j]);}		// SerialData ╝÷╕╕┼φ ╝█╜┼
    13c6:	10 e0       	ldi	r17, 0x00	; 0
    13c8:	0a c0       	rjmp	.+20     	; 0x13de <Send_To_Server_1+0x78>
    13ca:	e1 e0       	ldi	r30, 0x01	; 1
    13cc:	f0 e0       	ldi	r31, 0x00	; 0
    13ce:	ec 0f       	add	r30, r28
    13d0:	fd 1f       	adc	r31, r29
    13d2:	e1 0f       	add	r30, r17
    13d4:	f1 1d       	adc	r31, r1
    13d6:	80 81       	ld	r24, Z
    13d8:	0e 94 0e 28 	call	0x501c	; 0x501c <USART3_Write>
    13dc:	1f 5f       	subi	r17, 0xFF	; 255
    13de:	1a 30       	cpi	r17, 0x0A	; 10
    13e0:	a0 f3       	brcs	.-24     	; 0x13ca <Send_To_Server_1+0x64>
}
    13e2:	2a 96       	adiw	r28, 0x0a	; 10
    13e4:	cd bf       	out	0x3d, r28	; 61
    13e6:	de bf       	out	0x3e, r29	; 62
    13e8:	df 91       	pop	r29
    13ea:	cf 91       	pop	r28
    13ec:	1f 91       	pop	r17
    13ee:	08 95       	ret

000013f0 <Receiv_PC>:

//=================================================================================================
//		PC╖╬ ║╬┼═ ╡ξ└╠┼═╝÷╜┼
//=================================================================================================
void Receiv_PC(void)								// PC╖╬ ║╬┼═ ╡ξ└╠┼═╝÷╜┼
{
    13f0:	ef 92       	push	r14
    13f2:	ff 92       	push	r15
    13f4:	0f 93       	push	r16
    13f6:	1f 93       	push	r17
    13f8:	cf 93       	push	r28
    13fa:	df 93       	push	r29
	uint8_t cnt1;								// cnt1 ║ψ╝÷ ├╩▒έ╚φ
	uint8_t ChkSum = 0;							// ChkSum ║ψ╝÷ ├╩▒έ╚φ

	for(uint8_t cnt = 0; cnt < RX3_SIZE; cnt++)				// RX3_SIZE ╕╕┼φ ╣▌║╣
    13fc:	c0 e0       	ldi	r28, 0x00	; 0
    13fe:	69 c1       	rjmp	.+722    	; 0x16d2 <Receiv_PC+0x2e2>
	{
		if(Rx3_Buff[cnt] == STX_Iontec && Rx3_Buff[cnt + 1] == PC2CTL && Rx3_Buff[cnt + 2] == 0x01 && Rx3_Buff[cnt + 4] == 1 && Rx3_Buff[cnt + 9] == ETX_Iontec)
    1400:	0c 2f       	mov	r16, r28
    1402:	10 e0       	ldi	r17, 0x00	; 0
    1404:	f8 01       	movw	r30, r16
    1406:	e0 5f       	subi	r30, 0xF0	; 240
    1408:	f4 4b       	sbci	r31, 0xB4	; 180
    140a:	80 81       	ld	r24, Z
    140c:	80 3f       	cpi	r24, 0xF0	; 240
    140e:	09 f0       	breq	.+2      	; 0x1412 <Receiv_PC+0x22>
    1410:	52 c0       	rjmp	.+164    	; 0x14b6 <Receiv_PC+0xc6>
    1412:	f8 01       	movw	r30, r16
    1414:	ef 5e       	subi	r30, 0xEF	; 239
    1416:	f4 4b       	sbci	r31, 0xB4	; 180
    1418:	90 81       	ld	r25, Z
    141a:	91 30       	cpi	r25, 0x01	; 1
    141c:	09 f0       	breq	.+2      	; 0x1420 <Receiv_PC+0x30>
    141e:	4b c0       	rjmp	.+150    	; 0x14b6 <Receiv_PC+0xc6>
    1420:	f8 01       	movw	r30, r16
    1422:	ee 5e       	subi	r30, 0xEE	; 238
    1424:	f4 4b       	sbci	r31, 0xB4	; 180
    1426:	90 81       	ld	r25, Z
    1428:	91 30       	cpi	r25, 0x01	; 1
    142a:	09 f0       	breq	.+2      	; 0x142e <Receiv_PC+0x3e>
    142c:	44 c0       	rjmp	.+136    	; 0x14b6 <Receiv_PC+0xc6>
    142e:	f8 01       	movw	r30, r16
    1430:	ec 5e       	subi	r30, 0xEC	; 236
    1432:	f4 4b       	sbci	r31, 0xB4	; 180
    1434:	90 81       	ld	r25, Z
    1436:	91 30       	cpi	r25, 0x01	; 1
    1438:	f1 f5       	brne	.+124    	; 0x14b6 <Receiv_PC+0xc6>
    143a:	f8 01       	movw	r30, r16
    143c:	e7 5e       	subi	r30, 0xE7	; 231
    143e:	f4 4b       	sbci	r31, 0xB4	; 180
    1440:	90 81       	ld	r25, Z
    1442:	91 3f       	cpi	r25, 0xF1	; 241
    1444:	c1 f5       	brne	.+112    	; 0x14b6 <Receiv_PC+0xc6>
		{//			STX			       PC2CTL			     ╝▒║░▒έ			╜╟╜├░μ┴ν║╕			ETX
			Rx_LED_ON;						// RX LED ON
    1446:	e4 e2       	ldi	r30, 0x24	; 36
    1448:	f4 e0       	ldi	r31, 0x04	; 4
    144a:	80 81       	ld	r24, Z
    144c:	88 60       	ori	r24, 0x08	; 8
    144e:	80 83       	st	Z, r24
			ChkSum = 0;						// ChkSum ├╩▒έ╚φ
    1450:	90 e0       	ldi	r25, 0x00	; 0

			for(cnt1 = 1; cnt1 < 8; cnt1++) {ChkSum += Rx3_Buff[cnt + cnt1];}	// ├╝┼σ╜ό ░ϋ╗Ά
    1452:	81 e0       	ldi	r24, 0x01	; 1
    1454:	08 c0       	rjmp	.+16     	; 0x1466 <Receiv_PC+0x76>
    1456:	f8 01       	movw	r30, r16
    1458:	e8 0f       	add	r30, r24
    145a:	f1 1d       	adc	r31, r1
    145c:	e0 5f       	subi	r30, 0xF0	; 240
    145e:	f4 4b       	sbci	r31, 0xB4	; 180
    1460:	20 81       	ld	r18, Z
    1462:	92 0f       	add	r25, r18
    1464:	8f 5f       	subi	r24, 0xFF	; 255
    1466:	88 30       	cpi	r24, 0x08	; 8
    1468:	b0 f3       	brcs	.-20     	; 0x1456 <Receiv_PC+0x66>

			if(ChkSum == Rx3_Buff[cnt + 8])				// ├╝┼σ╜ό ╚χ└╬
    146a:	f8 01       	movw	r30, r16
    146c:	e8 5e       	subi	r30, 0xE8	; 232
    146e:	f4 4b       	sbci	r31, 0xB4	; 180
    1470:	80 81       	ld	r24, Z
    1472:	98 13       	cpse	r25, r24
    1474:	18 c0       	rjmp	.+48     	; 0x14a6 <Receiv_PC+0xb6>
			{
				if(Rx3_Buff[cnt + 3] == Cell_ID)		// ID 1╣° └╠╕ώ
    1476:	f8 01       	movw	r30, r16
    1478:	ed 5e       	subi	r30, 0xED	; 237
    147a:	f4 4b       	sbci	r31, 0xB4	; 180
    147c:	90 81       	ld	r25, Z
    147e:	80 91 60 4a 	lds	r24, 0x4A60	; 0x804a60 <Cell_ID>
    1482:	98 13       	cpse	r25, r24
    1484:	10 c0       	rjmp	.+32     	; 0x14a6 <Receiv_PC+0xb6>
				{						// ╜╟╜├░μ ┴ν║╕
					Tx_LED_ON;				// TX LED ON
    1486:	c4 e2       	ldi	r28, 0x24	; 36
    1488:	d4 e0       	ldi	r29, 0x04	; 4
    148a:	88 81       	ld	r24, Y
    148c:	84 60       	ori	r24, 0x04	; 4
    148e:	88 83       	st	Y, r24
// 					Send_To_Server(1, Cell_ID);		// ╣τ░╘ Data PC╖╬ └ⁿ╝█
// 					Send_To_Server(Cell_ID);		// ╣τ░╘ Data PC╖╬ └ⁿ╝█
					Send_To_Server_0();			// ╣τ░╘ Data PC╖╬ └ⁿ╝█
    1490:	0e 94 24 09 	call	0x1248	; 0x1248 <Send_To_Server_0>
    1494:	8c ec       	ldi	r24, 0xCC	; 204
    1496:	9c e1       	ldi	r25, 0x1C	; 28
    1498:	01 97       	sbiw	r24, 0x01	; 1
    149a:	f1 f7       	brne	.-4      	; 0x1498 <Receiv_PC+0xa8>
    149c:	00 c0       	rjmp	.+0      	; 0x149e <Receiv_PC+0xae>
    149e:	00 00       	nop
					_delay_ms(2);
					Tx_LED_OFF;				// TX LED OFF
    14a0:	88 81       	ld	r24, Y
    14a2:	8b 7f       	andi	r24, 0xFB	; 251
    14a4:	88 83       	st	Y, r24
				}
			}
			Rx3_Buff_Clear();					// Rx3 Buff Clear
    14a6:	0e 94 35 28 	call	0x506a	; 0x506a <Rx3_Buff_Clear>
			Rx_LED_OFF;						// RX LED OFF
    14aa:	e4 e2       	ldi	r30, 0x24	; 36
    14ac:	f4 e0       	ldi	r31, 0x04	; 4
    14ae:	80 81       	ld	r24, Z
    14b0:	87 7f       	andi	r24, 0xF7	; 247
    14b2:	80 83       	st	Z, r24
			break;							// for ╣χ ║ⁿ┴χ │ς░κ▒έ
    14b4:	11 c1       	rjmp	.+546    	; 0x16d8 <Receiv_PC+0x2e8>
		}

		else if(Rx3_Buff[cnt] == STX_Iontec && Rx3_Buff[cnt + 1] == PC2CTL && Rx3_Buff[cnt + 4] == 9 && Rx3_Buff[cnt + 15] == ETX_Iontec)
    14b6:	80 3f       	cpi	r24, 0xF0	; 240
    14b8:	09 f0       	breq	.+2      	; 0x14bc <Receiv_PC+0xcc>
    14ba:	a1 c0       	rjmp	.+322    	; 0x15fe <Receiv_PC+0x20e>
    14bc:	f8 01       	movw	r30, r16
    14be:	ef 5e       	subi	r30, 0xEF	; 239
    14c0:	f4 4b       	sbci	r31, 0xB4	; 180
    14c2:	90 81       	ld	r25, Z
    14c4:	91 30       	cpi	r25, 0x01	; 1
    14c6:	09 f0       	breq	.+2      	; 0x14ca <Receiv_PC+0xda>
    14c8:	9a c0       	rjmp	.+308    	; 0x15fe <Receiv_PC+0x20e>
    14ca:	f8 01       	movw	r30, r16
    14cc:	ec 5e       	subi	r30, 0xEC	; 236
    14ce:	f4 4b       	sbci	r31, 0xB4	; 180
    14d0:	90 81       	ld	r25, Z
    14d2:	99 30       	cpi	r25, 0x09	; 9
    14d4:	09 f0       	breq	.+2      	; 0x14d8 <Receiv_PC+0xe8>
    14d6:	93 c0       	rjmp	.+294    	; 0x15fe <Receiv_PC+0x20e>
    14d8:	f8 01       	movw	r30, r16
    14da:	e1 5e       	subi	r30, 0xE1	; 225
    14dc:	f4 4b       	sbci	r31, 0xB4	; 180
    14de:	90 81       	ld	r25, Z
    14e0:	91 3f       	cpi	r25, 0xF1	; 241
    14e2:	09 f0       	breq	.+2      	; 0x14e6 <Receiv_PC+0xf6>
    14e4:	8c c0       	rjmp	.+280    	; 0x15fe <Receiv_PC+0x20e>
		{//			    STX				    PC2CTL		    ╜├░μ┴ν║╕║ψ░ό			        ETX
			Rx_LED_ON;						// RX LED ON
    14e6:	e4 e2       	ldi	r30, 0x24	; 36
    14e8:	f4 e0       	ldi	r31, 0x04	; 4
    14ea:	80 81       	ld	r24, Z
    14ec:	88 60       	ori	r24, 0x08	; 8
    14ee:	80 83       	st	Z, r24
			ChkSum = 0;						// ChkSum ├╩▒έ╚φ
    14f0:	90 e0       	ldi	r25, 0x00	; 0

			for(cnt1 = 1; cnt1 < 14; cnt1++) {ChkSum += Rx3_Buff[cnt + cnt1];}	// ├╝┼σ╜ό ░ϋ╗Ά
    14f2:	81 e0       	ldi	r24, 0x01	; 1
    14f4:	08 c0       	rjmp	.+16     	; 0x1506 <Receiv_PC+0x116>
    14f6:	f8 01       	movw	r30, r16
    14f8:	e8 0f       	add	r30, r24
    14fa:	f1 1d       	adc	r31, r1
    14fc:	e0 5f       	subi	r30, 0xF0	; 240
    14fe:	f4 4b       	sbci	r31, 0xB4	; 180
    1500:	20 81       	ld	r18, Z
    1502:	92 0f       	add	r25, r18
    1504:	8f 5f       	subi	r24, 0xFF	; 255
    1506:	8e 30       	cpi	r24, 0x0E	; 14
    1508:	b0 f3       	brcs	.-20     	; 0x14f6 <Receiv_PC+0x106>

			if(ChkSum == Rx3_Buff[cnt + 14])			// ├╝┼σ╜ό ╚χ└╬
    150a:	f8 01       	movw	r30, r16
    150c:	e2 5e       	subi	r30, 0xE2	; 226
    150e:	f4 4b       	sbci	r31, 0xB4	; 180
    1510:	80 81       	ld	r24, Z
    1512:	98 13       	cpse	r25, r24
    1514:	6c c0       	rjmp	.+216    	; 0x15ee <Receiv_PC+0x1fe>
			{
				RTC_Time_Write(RTC_YEAR,  ((Rx3_Buff[cnt+ 8]&0xF0)>>4)*10+(Rx3_Buff[cnt+ 8]&0x0F));	// RTC ┐κ │έ └·└ί
    1516:	f8 01       	movw	r30, r16
    1518:	e8 5e       	subi	r30, 0xE8	; 232
    151a:	f4 4b       	sbci	r31, 0xB4	; 180
    151c:	80 81       	ld	r24, Z
    151e:	98 2f       	mov	r25, r24
    1520:	92 95       	swap	r25
    1522:	9f 70       	andi	r25, 0x0F	; 15
    1524:	99 0f       	add	r25, r25
    1526:	69 2f       	mov	r22, r25
    1528:	66 0f       	add	r22, r22
    152a:	66 0f       	add	r22, r22
    152c:	96 0f       	add	r25, r22
    152e:	8f 70       	andi	r24, 0x0F	; 15
    1530:	69 2f       	mov	r22, r25
    1532:	68 0f       	add	r22, r24
    1534:	86 e0       	ldi	r24, 0x06	; 6
    1536:	0e 94 5d 24 	call	0x48ba	; 0x48ba <RTC_Time_Write>
				RTC_Time_Write(RTC_MONTH, ((Rx3_Buff[cnt+ 9]&0xF0)>>4)*10+(Rx3_Buff[cnt+ 9]&0x0F));	// RTC ┐κ ┐∙ └·└ί
    153a:	f8 01       	movw	r30, r16
    153c:	e7 5e       	subi	r30, 0xE7	; 231
    153e:	f4 4b       	sbci	r31, 0xB4	; 180
    1540:	80 81       	ld	r24, Z
    1542:	98 2f       	mov	r25, r24
    1544:	92 95       	swap	r25
    1546:	9f 70       	andi	r25, 0x0F	; 15
    1548:	99 0f       	add	r25, r25
    154a:	69 2f       	mov	r22, r25
    154c:	66 0f       	add	r22, r22
    154e:	66 0f       	add	r22, r22
    1550:	96 0f       	add	r25, r22
    1552:	8f 70       	andi	r24, 0x0F	; 15
    1554:	69 2f       	mov	r22, r25
    1556:	68 0f       	add	r22, r24
    1558:	85 e0       	ldi	r24, 0x05	; 5
    155a:	0e 94 5d 24 	call	0x48ba	; 0x48ba <RTC_Time_Write>
				RTC_Time_Write(RTC_DATE,  ((Rx3_Buff[cnt+10]&0xF0)>>4)*10+(Rx3_Buff[cnt+10]&0x0F));	// RTC ┐κ └╧ └·└ί
    155e:	f8 01       	movw	r30, r16
    1560:	e6 5e       	subi	r30, 0xE6	; 230
    1562:	f4 4b       	sbci	r31, 0xB4	; 180
    1564:	80 81       	ld	r24, Z
    1566:	98 2f       	mov	r25, r24
    1568:	92 95       	swap	r25
    156a:	9f 70       	andi	r25, 0x0F	; 15
    156c:	99 0f       	add	r25, r25
    156e:	69 2f       	mov	r22, r25
    1570:	66 0f       	add	r22, r22
    1572:	66 0f       	add	r22, r22
    1574:	96 0f       	add	r25, r22
    1576:	8f 70       	andi	r24, 0x0F	; 15
    1578:	69 2f       	mov	r22, r25
    157a:	68 0f       	add	r22, r24
    157c:	84 e0       	ldi	r24, 0x04	; 4
    157e:	0e 94 5d 24 	call	0x48ba	; 0x48ba <RTC_Time_Write>
				RTC_Time_Write(RTC_HOUR,  ((Rx3_Buff[cnt+11]&0xF0)>>4)*10+(Rx3_Buff[cnt+11]&0x0F));	// RTC ┐κ ╜├ └·└ί
    1582:	f8 01       	movw	r30, r16
    1584:	e5 5e       	subi	r30, 0xE5	; 229
    1586:	f4 4b       	sbci	r31, 0xB4	; 180
    1588:	80 81       	ld	r24, Z
    158a:	98 2f       	mov	r25, r24
    158c:	92 95       	swap	r25
    158e:	9f 70       	andi	r25, 0x0F	; 15
    1590:	99 0f       	add	r25, r25
    1592:	69 2f       	mov	r22, r25
    1594:	66 0f       	add	r22, r22
    1596:	66 0f       	add	r22, r22
    1598:	96 0f       	add	r25, r22
    159a:	8f 70       	andi	r24, 0x0F	; 15
    159c:	69 2f       	mov	r22, r25
    159e:	68 0f       	add	r22, r24
    15a0:	82 e0       	ldi	r24, 0x02	; 2
    15a2:	0e 94 5d 24 	call	0x48ba	; 0x48ba <RTC_Time_Write>
				RTC_Time_Write(RTC_MINUTE,((Rx3_Buff[cnt+12]&0xF0)>>4)*10+(Rx3_Buff[cnt+12]&0x0F));	// RTC ┐κ ║╨ └·└ί
    15a6:	f8 01       	movw	r30, r16
    15a8:	e4 5e       	subi	r30, 0xE4	; 228
    15aa:	f4 4b       	sbci	r31, 0xB4	; 180
    15ac:	80 81       	ld	r24, Z
    15ae:	98 2f       	mov	r25, r24
    15b0:	92 95       	swap	r25
    15b2:	9f 70       	andi	r25, 0x0F	; 15
    15b4:	99 0f       	add	r25, r25
    15b6:	69 2f       	mov	r22, r25
    15b8:	66 0f       	add	r22, r22
    15ba:	66 0f       	add	r22, r22
    15bc:	96 0f       	add	r25, r22
    15be:	8f 70       	andi	r24, 0x0F	; 15
    15c0:	69 2f       	mov	r22, r25
    15c2:	68 0f       	add	r22, r24
    15c4:	81 e0       	ldi	r24, 0x01	; 1
    15c6:	0e 94 5d 24 	call	0x48ba	; 0x48ba <RTC_Time_Write>
				RTC_Time_Write(RTC_SECOND,((Rx3_Buff[cnt+13]&0xF0)>>4)*10+(Rx3_Buff[cnt+13]&0x0F));	// RTC ┐κ ├╩ └·└ί
    15ca:	f8 01       	movw	r30, r16
    15cc:	e3 5e       	subi	r30, 0xE3	; 227
    15ce:	f4 4b       	sbci	r31, 0xB4	; 180
    15d0:	80 81       	ld	r24, Z
    15d2:	98 2f       	mov	r25, r24
    15d4:	92 95       	swap	r25
    15d6:	9f 70       	andi	r25, 0x0F	; 15
    15d8:	99 0f       	add	r25, r25
    15da:	69 2f       	mov	r22, r25
    15dc:	66 0f       	add	r22, r22
    15de:	66 0f       	add	r22, r22
    15e0:	96 0f       	add	r25, r22
    15e2:	8f 70       	andi	r24, 0x0F	; 15
    15e4:	69 2f       	mov	r22, r25
    15e6:	68 0f       	add	r22, r24
    15e8:	80 e0       	ldi	r24, 0x00	; 0
    15ea:	0e 94 5d 24 	call	0x48ba	; 0x48ba <RTC_Time_Write>
			}
			Rx3_Buff_Clear();					// Rx3 Buff Clear
    15ee:	0e 94 35 28 	call	0x506a	; 0x506a <Rx3_Buff_Clear>
			Rx_LED_OFF;						// RX LED OFF
    15f2:	e4 e2       	ldi	r30, 0x24	; 36
    15f4:	f4 e0       	ldi	r31, 0x04	; 4
    15f6:	80 81       	ld	r24, Z
    15f8:	87 7f       	andi	r24, 0xF7	; 247
    15fa:	80 83       	st	Z, r24
			break;							// for ╣χ ║ⁿ┴χ │ς░κ▒έ
    15fc:	6d c0       	rjmp	.+218    	; 0x16d8 <Receiv_PC+0x2e8>
		}

		else if(Rx3_Buff[cnt] == STX_Iontec && Rx3_Buff[cnt + 1] == PC2CTL && Rx3_Buff[cnt + 2] == 0x01 && Rx3_Buff[cnt + 4] == 7 && Rx3_Buff[cnt + 31] == ETX_Iontec)
    15fe:	80 3f       	cpi	r24, 0xF0	; 240
    1600:	09 f0       	breq	.+2      	; 0x1604 <Receiv_PC+0x214>
    1602:	66 c0       	rjmp	.+204    	; 0x16d0 <Receiv_PC+0x2e0>
    1604:	f8 01       	movw	r30, r16
    1606:	ef 5e       	subi	r30, 0xEF	; 239
    1608:	f4 4b       	sbci	r31, 0xB4	; 180
    160a:	80 81       	ld	r24, Z
    160c:	81 30       	cpi	r24, 0x01	; 1
    160e:	09 f0       	breq	.+2      	; 0x1612 <Receiv_PC+0x222>
    1610:	5f c0       	rjmp	.+190    	; 0x16d0 <Receiv_PC+0x2e0>
    1612:	f8 01       	movw	r30, r16
    1614:	ee 5e       	subi	r30, 0xEE	; 238
    1616:	f4 4b       	sbci	r31, 0xB4	; 180
    1618:	80 81       	ld	r24, Z
    161a:	81 30       	cpi	r24, 0x01	; 1
    161c:	09 f0       	breq	.+2      	; 0x1620 <Receiv_PC+0x230>
    161e:	58 c0       	rjmp	.+176    	; 0x16d0 <Receiv_PC+0x2e0>
    1620:	78 01       	movw	r14, r16
    1622:	94 e0       	ldi	r25, 0x04	; 4
    1624:	e9 0e       	add	r14, r25
    1626:	f1 1c       	adc	r15, r1
    1628:	f7 01       	movw	r30, r14
    162a:	e0 5f       	subi	r30, 0xF0	; 240
    162c:	f4 4b       	sbci	r31, 0xB4	; 180
    162e:	80 81       	ld	r24, Z
    1630:	87 30       	cpi	r24, 0x07	; 7
    1632:	09 f0       	breq	.+2      	; 0x1636 <Receiv_PC+0x246>
    1634:	4d c0       	rjmp	.+154    	; 0x16d0 <Receiv_PC+0x2e0>
    1636:	f8 01       	movw	r30, r16
    1638:	e1 5d       	subi	r30, 0xD1	; 209
    163a:	f4 4b       	sbci	r31, 0xB4	; 180
    163c:	80 81       	ld	r24, Z
    163e:	81 3f       	cpi	r24, 0xF1	; 241
    1640:	09 f0       	breq	.+2      	; 0x1644 <Receiv_PC+0x254>
    1642:	46 c0       	rjmp	.+140    	; 0x16d0 <Receiv_PC+0x2e0>
		{//			     STX			    PC2CTL			  ╝▒║░▒έ		╝│┴ν┴ν║╕(└╘▒╕├╝┴▀)		       ETX
			Rx_LED_ON;							// RX LED ON
    1644:	e4 e2       	ldi	r30, 0x24	; 36
    1646:	f4 e0       	ldi	r31, 0x04	; 4
    1648:	80 81       	ld	r24, Z
    164a:	88 60       	ori	r24, 0x08	; 8
    164c:	80 83       	st	Z, r24
			ChkSum = 0;							// ChkSum ├╩▒έ╚φ
    164e:	90 e0       	ldi	r25, 0x00	; 0

			for(cnt1 = 1; cnt1 < 30; cnt1++) {ChkSum += Rx3_Buff[cnt + cnt1];}	// ├╝┼σ╜ό ░ϋ╗Ά
    1650:	81 e0       	ldi	r24, 0x01	; 1
    1652:	08 c0       	rjmp	.+16     	; 0x1664 <Receiv_PC+0x274>
    1654:	f8 01       	movw	r30, r16
    1656:	e8 0f       	add	r30, r24
    1658:	f1 1d       	adc	r31, r1
    165a:	e0 5f       	subi	r30, 0xF0	; 240
    165c:	f4 4b       	sbci	r31, 0xB4	; 180
    165e:	20 81       	ld	r18, Z
    1660:	92 0f       	add	r25, r18
    1662:	8f 5f       	subi	r24, 0xFF	; 255
    1664:	8e 31       	cpi	r24, 0x1E	; 30
    1666:	b0 f3       	brcs	.-20     	; 0x1654 <Receiv_PC+0x264>

			if(ChkSum == Rx3_Buff[cnt + 30])				// ├╝┼σ╜ό ╚χ└╬
    1668:	f8 01       	movw	r30, r16
    166a:	e2 5d       	subi	r30, 0xD2	; 210
    166c:	f4 4b       	sbci	r31, 0xB4	; 180
    166e:	80 81       	ld	r24, Z
    1670:	98 13       	cpse	r25, r24
    1672:	2e c0       	rjmp	.+92     	; 0x16d0 <Receiv_PC+0x2e0>
			{
				IN_S = Rx3_Buff[cnt + 8] << 8 & Rx3_Buff[cnt + 8];	// └╘▒╕├╝┴▀ ░ς ║ψ╚ψ
    1674:	60 e0       	ldi	r22, 0x00	; 0
    1676:	70 e0       	ldi	r23, 0x00	; 0
    1678:	60 93 0a 4c 	sts	0x4C0A, r22	; 0x804c0a <IN_S>
    167c:	70 93 0b 4c 	sts	0x4C0B, r23	; 0x804c0b <IN_S+0x1>

				if(Rx3_Buff[cnt + 3] == Cell_ID)			// Cell ID 1╣° └╠╕ώ
    1680:	f8 01       	movw	r30, r16
    1682:	ed 5e       	subi	r30, 0xED	; 237
    1684:	f4 4b       	sbci	r31, 0xB4	; 180
    1686:	90 81       	ld	r25, Z
    1688:	80 91 60 4a 	lds	r24, 0x4A60	; 0x804a60 <Cell_ID>
    168c:	98 13       	cpse	r25, r24
    168e:	20 c0       	rjmp	.+64     	; 0x16d0 <Receiv_PC+0x2e0>
				{
					IN_Scales = IN_S;				// └╘▒╕├╝┴▀ ░ς└╗ ╖╬╡ί╝┐ 1╣°┐κ └√┐Έ
    1690:	60 93 88 4a 	sts	0x4A88, r22	; 0x804a88 <IN_Scales>
    1694:	70 93 89 4a 	sts	0x4A89, r23	; 0x804a89 <IN_Scales+0x1>
					ee_write_word(Cell_IN_S_Addr, IN_S);		// └╘▒╕├╝┴▀ ░ς└╗ EEPROM┐κ └·└ί
    1698:	88 e0       	ldi	r24, 0x08	; 8
    169a:	90 e0       	ldi	r25, 0x00	; 0
    169c:	0e 94 82 0f 	call	0x1f04	; 0x1f04 <ee_write_word>
					Tx_LED_ON;					// TX LED ON
    16a0:	04 e2       	ldi	r16, 0x24	; 36
    16a2:	14 e0       	ldi	r17, 0x04	; 4
    16a4:	f8 01       	movw	r30, r16
    16a6:	80 81       	ld	r24, Z
    16a8:	84 60       	ori	r24, 0x04	; 4
    16aa:	80 83       	st	Z, r24
					Send_To_Server_1(Cell_ID, Rx3_Buff[cnt + 4]);	// ╝│┴ν┴ν║╕ PC╖╬ └ⁿ╝█
    16ac:	f7 01       	movw	r30, r14
    16ae:	e0 5f       	subi	r30, 0xF0	; 240
    16b0:	f4 4b       	sbci	r31, 0xB4	; 180
    16b2:	60 81       	ld	r22, Z
    16b4:	80 91 60 4a 	lds	r24, 0x4A60	; 0x804a60 <Cell_ID>
    16b8:	0e 94 b3 09 	call	0x1366	; 0x1366 <Send_To_Server_1>
    16bc:	8c ec       	ldi	r24, 0xCC	; 204
    16be:	9c e1       	ldi	r25, 0x1C	; 28
    16c0:	01 97       	sbiw	r24, 0x01	; 1
    16c2:	f1 f7       	brne	.-4      	; 0x16c0 <Receiv_PC+0x2d0>
    16c4:	00 c0       	rjmp	.+0      	; 0x16c6 <Receiv_PC+0x2d6>
    16c6:	00 00       	nop
					_delay_ms(2);
					Tx_LED_OFF;					// TX LED OFF
    16c8:	f8 01       	movw	r30, r16
    16ca:	80 81       	ld	r24, Z
    16cc:	8b 7f       	andi	r24, 0xFB	; 251
    16ce:	80 83       	st	Z, r24
void Receiv_PC(void)								// PC╖╬ ║╬┼═ ╡ξ└╠┼═╝÷╜┼
{
	uint8_t cnt1;								// cnt1 ║ψ╝÷ ├╩▒έ╚φ
	uint8_t ChkSum = 0;							// ChkSum ║ψ╝÷ ├╩▒έ╚φ

	for(uint8_t cnt = 0; cnt < RX3_SIZE; cnt++)				// RX3_SIZE ╕╕┼φ ╣▌║╣
    16d0:	cf 5f       	subi	r28, 0xFF	; 255
    16d2:	ca 3f       	cpi	r28, 0xFA	; 250
    16d4:	08 f4       	brcc	.+2      	; 0x16d8 <Receiv_PC+0x2e8>
    16d6:	94 ce       	rjmp	.-728    	; 0x1400 <Receiv_PC+0x10>
					Tx_LED_OFF;					// TX LED OFF
				}
			}
		}
	}
}
    16d8:	df 91       	pop	r29
    16da:	cf 91       	pop	r28
    16dc:	1f 91       	pop	r17
    16de:	0f 91       	pop	r16
    16e0:	ff 90       	pop	r15
    16e2:	ef 90       	pop	r14
    16e4:	08 95       	ret

000016e6 <Time_Check>:

//=================================================================================================
void Time_Check(void)								// ╜├░μ ├╝┼σ
{
	if(Timer.RTC_Timer >= 1000)						// 5mSec X 1000 = 5Sec └╠╗≤└╠ ╡╟╕ώ ┴°└╘
    16e6:	80 91 ba 4a 	lds	r24, 0x4ABA	; 0x804aba <Timer+0x3>
    16ea:	90 91 bb 4a 	lds	r25, 0x4ABB	; 0x804abb <Timer+0x4>
    16ee:	88 3e       	cpi	r24, 0xE8	; 232
    16f0:	93 40       	sbci	r25, 0x03	; 3
    16f2:	90 f0       	brcs	.+36     	; 0x1718 <Time_Check+0x32>
	{
		Timer.RTC_Timer = 0;						// RTC_Timer ├╩▒έ╚φ (┼╕└╠╕╙1 ┐κ╝φ 5mSec ╕╢┤┘ ┴Ϋ░κ)
    16f4:	10 92 ba 4a 	sts	0x4ABA, r1	; 0x804aba <Timer+0x3>
    16f8:	10 92 bb 4a 	sts	0x4ABB, r1	; 0x804abb <Timer+0x4>
		RTC_Time_Read();						// RTC┐κ╝φ ╜├░μ └╨╛Ό ┐└▒έ
    16fc:	0e 94 22 24 	call	0x4844	; 0x4844 <RTC_Time_Read>

		if(RTC_T.OLD_D != RTC_T.Date)					// │ψ┬ξ Data ░κ ┤┘╕μ╕ώ
    1700:	e0 ec       	ldi	r30, 0xC0	; 192
    1702:	fa e4       	ldi	r31, 0x4A	; 74
    1704:	87 81       	ldd	r24, Z+7	; 0x07
    1706:	64 81       	ldd	r22, Z+4	; 0x04
    1708:	86 17       	cp	r24, r22
    170a:	31 f0       	breq	.+12     	; 0x1718 <Time_Check+0x32>
		{
			RTC_T.OLD_D = RTC_T.Date;				// ╟÷└ύ │ψ┬ξ └·└ί
    170c:	60 93 c7 4a 	sts	0x4AC7, r22	; 0x804ac7 <RTC_T+0x7>
			ee_write_byte (OLD_Date_Addr, RTC_T.OLD_D);		// │ψ┬ξ ╕ο EEPROM ┐κ └·└ί
    1710:	83 e0       	ldi	r24, 0x03	; 3
    1712:	90 e0       	ldi	r25, 0x00	; 0
    1714:	0e 94 5f 0f 	call	0x1ebe	; 0x1ebe <ee_write_byte>
    1718:	08 95       	ret

0000171a <ADC_Check>:
	}
}

//=================================================================================================
void ADC_Check(void)								// ADC ├╝┼σ (╖╬╡ί╝┐ ╜┼╚μ)
{
    171a:	cf 93       	push	r28
	AD_Channel = 0;								// AD Channel ║ψ╝÷ ├╩▒έ╚φ
    171c:	10 92 61 4a 	sts	0x4A61, r1	; 0x804a61 <AD_Channel>
    1720:	10 92 62 4a 	sts	0x4A62, r1	; 0x804a62 <AD_Channel+0x1>
    1724:	10 92 63 4a 	sts	0x4A63, r1	; 0x804a63 <AD_Channel+0x2>
    1728:	10 92 64 4a 	sts	0x4A64, r1	; 0x804a64 <AD_Channel+0x3>
	for(uint8_t i = 0; i < 50; i++)						// 50╣° ╣▌║╣ ├°┴ν
    172c:	c0 e0       	ldi	r28, 0x00	; 0
    172e:	18 c0       	rjmp	.+48     	; 0x1760 <ADC_Check+0x46>
	{
		AD_Channel += ADC_get_conversion(0);				// ADC 0 Conversion
    1730:	80 e0       	ldi	r24, 0x00	; 0
    1732:	0e 94 55 0e 	call	0x1caa	; 0x1caa <ADC_get_conversion>
    1736:	40 91 61 4a 	lds	r20, 0x4A61	; 0x804a61 <AD_Channel>
    173a:	50 91 62 4a 	lds	r21, 0x4A62	; 0x804a62 <AD_Channel+0x1>
    173e:	60 91 63 4a 	lds	r22, 0x4A63	; 0x804a63 <AD_Channel+0x2>
    1742:	70 91 64 4a 	lds	r23, 0x4A64	; 0x804a64 <AD_Channel+0x3>
    1746:	48 0f       	add	r20, r24
    1748:	59 1f       	adc	r21, r25
    174a:	61 1d       	adc	r22, r1
    174c:	71 1d       	adc	r23, r1
    174e:	40 93 61 4a 	sts	0x4A61, r20	; 0x804a61 <AD_Channel>
    1752:	50 93 62 4a 	sts	0x4A62, r21	; 0x804a62 <AD_Channel+0x1>
    1756:	60 93 63 4a 	sts	0x4A63, r22	; 0x804a63 <AD_Channel+0x2>
    175a:	70 93 64 4a 	sts	0x4A64, r23	; 0x804a64 <AD_Channel+0x3>

//=================================================================================================
void ADC_Check(void)								// ADC ├╝┼σ (╖╬╡ί╝┐ ╜┼╚μ)
{
	AD_Channel = 0;								// AD Channel ║ψ╝÷ ├╩▒έ╚φ
	for(uint8_t i = 0; i < 50; i++)						// 50╣° ╣▌║╣ ├°┴ν
    175e:	cf 5f       	subi	r28, 0xFF	; 255
    1760:	c2 33       	cpi	r28, 0x32	; 50
    1762:	30 f3       	brcs	.-52     	; 0x1730 <ADC_Check+0x16>
	{
		AD_Channel += ADC_get_conversion(0);				// ADC 0 Conversion
	}
	AD_Channel = AD_Channel / 50;						// 50╣° ├°┴ν ╚─ ╞≥▒╒
    1764:	60 91 61 4a 	lds	r22, 0x4A61	; 0x804a61 <AD_Channel>
    1768:	70 91 62 4a 	lds	r23, 0x4A62	; 0x804a62 <AD_Channel+0x1>
    176c:	80 91 63 4a 	lds	r24, 0x4A63	; 0x804a63 <AD_Channel+0x2>
    1770:	90 91 64 4a 	lds	r25, 0x4A64	; 0x804a64 <AD_Channel+0x3>
    1774:	22 e3       	ldi	r18, 0x32	; 50
    1776:	30 e0       	ldi	r19, 0x00	; 0
    1778:	40 e0       	ldi	r20, 0x00	; 0
    177a:	50 e0       	ldi	r21, 0x00	; 0
    177c:	0e 94 d4 35 	call	0x6ba8	; 0x6ba8 <__udivmodsi4>
    1780:	20 93 61 4a 	sts	0x4A61, r18	; 0x804a61 <AD_Channel>
    1784:	30 93 62 4a 	sts	0x4A62, r19	; 0x804a62 <AD_Channel+0x1>
    1788:	40 93 63 4a 	sts	0x4A63, r20	; 0x804a63 <AD_Channel+0x2>
    178c:	50 93 64 4a 	sts	0x4A64, r21	; 0x804a64 <AD_Channel+0x3>
	ADC_Value = AD_Channel * 0.001221;					// 5V │ς┤σ▒έ 12Bit : 5/4095 = 0.00122100...
    1790:	ca 01       	movw	r24, r20
    1792:	b9 01       	movw	r22, r18
    1794:	0e 94 fc 30 	call	0x61f8	; 0x61f8 <__floatunsisf>
    1798:	26 ef       	ldi	r18, 0xF6	; 246
    179a:	39 e0       	ldi	r19, 0x09	; 9
    179c:	40 ea       	ldi	r20, 0xA0	; 160
    179e:	5a e3       	ldi	r21, 0x3A	; 58
    17a0:	0e 94 b3 31 	call	0x6366	; 0x6366 <__mulsf3>
    17a4:	60 93 bc 4a 	sts	0x4ABC, r22	; 0x804abc <ADC_Value>
    17a8:	70 93 bd 4a 	sts	0x4ABD, r23	; 0x804abd <ADC_Value+0x1>
    17ac:	80 93 be 4a 	sts	0x4ABE, r24	; 0x804abe <ADC_Value+0x2>
    17b0:	90 93 bf 4a 	sts	0x4ABF, r25	; 0x804abf <ADC_Value+0x3>
}
    17b4:	cf 91       	pop	r28
    17b6:	08 95       	ret

000017b8 <Proportion_Set>:

//=================================================================================================
void Proportion_Set(void)							// ╖╬╡ί╝┐ ║±└▓ ╝│┴ν ╣╫ ├╩▒έ╚φ
{
    17b8:	cf 92       	push	r12
    17ba:	df 92       	push	r13
    17bc:	ef 92       	push	r14
    17be:	ff 92       	push	r15
	CELL.Proportion = (Cell_RO / 10000000 / (ADC_Value + 0.48) * 128 / 0.5 * 8388608 / (Cell_Capa * 1000)) / Cell_CNT;
    17c0:	20 e8       	ldi	r18, 0x80	; 128
    17c2:	36 e9       	ldi	r19, 0x96	; 150
    17c4:	48 e1       	ldi	r20, 0x18	; 24
    17c6:	5b e4       	ldi	r21, 0x4B	; 75
    17c8:	60 91 dc 4a 	lds	r22, 0x4ADC	; 0x804adc <Cell_RO>
    17cc:	70 91 dd 4a 	lds	r23, 0x4ADD	; 0x804add <Cell_RO+0x1>
    17d0:	80 91 de 4a 	lds	r24, 0x4ADE	; 0x804ade <Cell_RO+0x2>
    17d4:	90 91 df 4a 	lds	r25, 0x4ADF	; 0x804adf <Cell_RO+0x3>
    17d8:	0e 94 54 30 	call	0x60a8	; 0x60a8 <__divsf3>
    17dc:	6b 01       	movw	r12, r22
    17de:	7c 01       	movw	r14, r24
    17e0:	2f e8       	ldi	r18, 0x8F	; 143
    17e2:	32 ec       	ldi	r19, 0xC2	; 194
    17e4:	45 ef       	ldi	r20, 0xF5	; 245
    17e6:	5e e3       	ldi	r21, 0x3E	; 62
    17e8:	60 91 bc 4a 	lds	r22, 0x4ABC	; 0x804abc <ADC_Value>
    17ec:	70 91 bd 4a 	lds	r23, 0x4ABD	; 0x804abd <ADC_Value+0x1>
    17f0:	80 91 be 4a 	lds	r24, 0x4ABE	; 0x804abe <ADC_Value+0x2>
    17f4:	90 91 bf 4a 	lds	r25, 0x4ABF	; 0x804abf <ADC_Value+0x3>
    17f8:	0e 94 e3 2f 	call	0x5fc6	; 0x5fc6 <__addsf3>
    17fc:	9b 01       	movw	r18, r22
    17fe:	ac 01       	movw	r20, r24
    1800:	c7 01       	movw	r24, r14
    1802:	b6 01       	movw	r22, r12
    1804:	0e 94 54 30 	call	0x60a8	; 0x60a8 <__divsf3>
    1808:	20 e0       	ldi	r18, 0x00	; 0
    180a:	30 e0       	ldi	r19, 0x00	; 0
    180c:	40 e0       	ldi	r20, 0x00	; 0
    180e:	53 e4       	ldi	r21, 0x43	; 67
    1810:	0e 94 b3 31 	call	0x6366	; 0x6366 <__mulsf3>
    1814:	9b 01       	movw	r18, r22
    1816:	ac 01       	movw	r20, r24
    1818:	0e 94 e3 2f 	call	0x5fc6	; 0x5fc6 <__addsf3>
    181c:	20 e0       	ldi	r18, 0x00	; 0
    181e:	30 e0       	ldi	r19, 0x00	; 0
    1820:	40 e0       	ldi	r20, 0x00	; 0
    1822:	5b e4       	ldi	r21, 0x4B	; 75
    1824:	0e 94 b3 31 	call	0x6366	; 0x6366 <__mulsf3>
    1828:	6b 01       	movw	r12, r22
    182a:	7c 01       	movw	r14, r24
    182c:	20 91 f3 4a 	lds	r18, 0x4AF3	; 0x804af3 <Cell_Capa>
    1830:	30 91 f4 4a 	lds	r19, 0x4AF4	; 0x804af4 <Cell_Capa+0x1>
    1834:	40 91 f5 4a 	lds	r20, 0x4AF5	; 0x804af5 <Cell_Capa+0x2>
    1838:	50 91 f6 4a 	lds	r21, 0x4AF6	; 0x804af6 <Cell_Capa+0x3>
    183c:	a8 ee       	ldi	r26, 0xE8	; 232
    183e:	b3 e0       	ldi	r27, 0x03	; 3
    1840:	0e 94 2d 36 	call	0x6c5a	; 0x6c5a <__muluhisi3>
    1844:	0e 94 fc 30 	call	0x61f8	; 0x61f8 <__floatunsisf>
    1848:	9b 01       	movw	r18, r22
    184a:	ac 01       	movw	r20, r24
    184c:	c7 01       	movw	r24, r14
    184e:	b6 01       	movw	r22, r12
    1850:	0e 94 54 30 	call	0x60a8	; 0x60a8 <__divsf3>
    1854:	6b 01       	movw	r12, r22
    1856:	7c 01       	movw	r14, r24
    1858:	60 91 04 4b 	lds	r22, 0x4B04	; 0x804b04 <Cell_CNT>
    185c:	70 e0       	ldi	r23, 0x00	; 0
    185e:	80 e0       	ldi	r24, 0x00	; 0
    1860:	90 e0       	ldi	r25, 0x00	; 0
    1862:	0e 94 fe 30 	call	0x61fc	; 0x61fc <__floatsisf>
    1866:	9b 01       	movw	r18, r22
    1868:	ac 01       	movw	r20, r24
    186a:	c7 01       	movw	r24, r14
    186c:	b6 01       	movw	r22, r12
    186e:	0e 94 54 30 	call	0x60a8	; 0x60a8 <__divsf3>
    1872:	60 93 b1 4a 	sts	0x4AB1, r22	; 0x804ab1 <CELL+0x11>
    1876:	70 93 b2 4a 	sts	0x4AB2, r23	; 0x804ab2 <CELL+0x12>
    187a:	80 93 b3 4a 	sts	0x4AB3, r24	; 0x804ab3 <CELL+0x13>
    187e:	90 93 b4 4a 	sts	0x4AB4, r25	; 0x804ab4 <CELL+0x14>
}
    1882:	ff 90       	pop	r15
    1884:	ef 90       	pop	r14
    1886:	df 90       	pop	r13
    1888:	cf 90       	pop	r12
    188a:	08 95       	ret

0000188c <Var_Init>:

//=================================================================================================
void Var_Init(void)								// ║ψ╝÷ ╣╫ ╖╬╡ί╝┐ ├╩▒έ╚φ
{
	FND_Value_Data(0, 2, 10);						// FND 0 ~ 2 FND_MINUS
    188c:	4a e0       	ldi	r20, 0x0A	; 10
    188e:	62 e0       	ldi	r22, 0x02	; 2
    1890:	80 e0       	ldi	r24, 0x00	; 0
    1892:	0e 94 ca 05 	call	0xb94	; 0xb94 <FND_Value_Data>

	SET.Menu = 0;								// Menu   ╕Ώ╡ί ├╩▒έ╚φ
    1896:	ef e8       	ldi	r30, 0x8F	; 143
    1898:	fa e4       	ldi	r31, 0x4A	; 74
    189a:	10 82       	st	Z, r1
	SET.Select = 0;								// Select ╕Ώ╡ί ├╩▒έ╚φ
    189c:	11 82       	std	Z+1, r1	; 0x01
	SET.Blink = 0;								// └┌╕┤╝÷ ▒Ϊ╣┌└╙ ├╩▒έ╚φ
    189e:	12 82       	std	Z+2, r1	; 0x02
	KEY.Count = 0;								// Key ░κ ┤φ╕░╚╜╝÷ ├╩▒έ╚φ
    18a0:	10 92 d5 4a 	sts	0x4AD5, r1	; 0x804ad5 <KEY>

	Read_eeprom();								// EEPROM Data └╨▒έ
    18a4:	0e 94 9e 06 	call	0xd3c	; 0xd3c <Read_eeprom>
    18a8:	8f ef       	ldi	r24, 0xFF	; 255
    18aa:	9f e8       	ldi	r25, 0x8F	; 143
    18ac:	01 97       	sbiw	r24, 0x01	; 1
    18ae:	f1 f7       	brne	.-4      	; 0x18ac <Var_Init+0x20>
    18b0:	00 c0       	rjmp	.+0      	; 0x18b2 <Var_Init+0x26>
    18b2:	00 00       	nop
	_delay_ms(10);

	ADC_Check();								// ADC ├╝┼σ (╖╬╡ί╝┐ ╜┼╚μ)
    18b4:	0e 94 8d 0b 	call	0x171a	; 0x171a <ADC_Check>
	Proportion_Set();							// ╖╬╡ί╝┐ ║±└▓ ╝│┴ν ╣╫ ├╩▒έ╚φ
    18b8:	0e 94 dc 0b 	call	0x17b8	; 0x17b8 <Proportion_Set>
    18bc:	8f ef       	ldi	r24, 0xFF	; 255
    18be:	9f e8       	ldi	r25, 0x8F	; 143
    18c0:	01 97       	sbiw	r24, 0x01	; 1
    18c2:	f1 f7       	brne	.-4      	; 0x18c0 <Var_Init+0x34>
    18c4:	00 c0       	rjmp	.+0      	; 0x18c6 <Var_Init+0x3a>
    18c6:	00 00       	nop
	_delay_ms(10);

	Cell_Zero_Set();							// ╖╬╡ί╝┐ 0 ░ς ├μ▒έ 2╚╕ ╣▌║╣
    18c8:	0e 94 c7 15 	call	0x2b8e	; 0x2b8e <Cell_Zero_Set>
    18cc:	8f ef       	ldi	r24, 0xFF	; 255
    18ce:	9f e8       	ldi	r25, 0x8F	; 143
    18d0:	01 97       	sbiw	r24, 0x01	; 1
    18d2:	f1 f7       	brne	.-4      	; 0x18d0 <Var_Init+0x44>
    18d4:	00 c0       	rjmp	.+0      	; 0x18d6 <Var_Init+0x4a>
    18d6:	00 00       	nop
	_delay_ms(10);
	Cell_Zero_Set();							
    18d8:	0e 94 c7 15 	call	0x2b8e	; 0x2b8e <Cell_Zero_Set>
	Alarm();								// ╛╦╢≈(║±╟┴ 3╣°)
    18dc:	0e 94 b3 07 	call	0xf66	; 0xf66 <Alarm>

	CELL.Zero_Buff = 0;							// ├°┴ν ░ς Zero Buff ├╩▒έ╚φ
    18e0:	10 92 a0 4a 	sts	0x4AA0, r1	; 0x804aa0 <CELL>

	FND_Value_Data(0, 2, 12);						// FND 0 ~ 2 FND_MINUS
    18e4:	4c e0       	ldi	r20, 0x0C	; 12
    18e6:	62 e0       	ldi	r22, 0x02	; 2
    18e8:	80 e0       	ldi	r24, 0x00	; 0
    18ea:	0e 94 ca 05 	call	0xb94	; 0xb94 <FND_Value_Data>
    18ee:	08 95       	ret

000018f0 <wdt_reset>:
#endif

//=================================================================================================
void wdt_reset(void)								// Reset WDT
{
	asm("WDR");								// Reset WDT
    18f0:	a8 95       	wdr
    18f2:	08 95       	ret

000018f4 <Seting_Mode>:
	Beep(15);								// 1mSec X 15 = 15mSec
}

//=================================================================================================
void Seting_Mode(void)								// ╝┬╞├╕Ώ╡ί
{
    18f4:	cf 93       	push	r28
	uint8_t Count = 1;							// Count ║ψ╝÷ ├╩▒έ╚φ
	SET.Select = 0;								// Select ╣÷╞░ ├╩▒έ╚φ
    18f6:	10 92 90 4a 	sts	0x4A90, r1	; 0x804a90 <SET+0x1>

	FND_Value_Data(0, 2, 12);						// FND 0 ~ 2 FND_OFF
    18fa:	4c e0       	ldi	r20, 0x0C	; 12
    18fc:	62 e0       	ldi	r22, 0x02	; 2
    18fe:	80 e0       	ldi	r24, 0x00	; 0
    1900:	0e 94 ca 05 	call	0xb94	; 0xb94 <FND_Value_Data>
}

//=================================================================================================
void Seting_Mode(void)								// ╝┬╞├╕Ώ╡ί
{
	uint8_t Count = 1;							// Count ║ψ╝÷ ├╩▒έ╚φ
    1904:	c1 e0       	ldi	r28, 0x01	; 1
	SET.Select = 0;								// Select ╣÷╞░ ├╩▒έ╚φ

	FND_Value_Data(0, 2, 12);						// FND 0 ~ 2 FND_OFF

	while(SET.Menu)								// Seting_Mode └╠╕ώ ╣τ╟╤ ╣▌║╣
    1906:	91 c0       	rjmp	.+290    	; 0x1a2a <Seting_Mode+0x136>
	{
		if(KEY.Buff)							// Key └╘╖┬└╠ └╓└╕╕ώ
    1908:	80 91 d6 4a 	lds	r24, 0x4AD6	; 0x804ad6 <KEY+0x1>
    190c:	88 23       	and	r24, r24
    190e:	99 f0       	breq	.+38     	; 0x1936 <Seting_Mode+0x42>
		{
			if     (KEY.Key == 1 && Count < 5) {Count++; KEY.Key = 0;}	// ╛≈  ╣÷╞░ └╠╕ώ Count ┴Ϋ░κ
    1910:	80 91 d7 4a 	lds	r24, 0x4AD7	; 0x804ad7 <KEY+0x2>
    1914:	81 30       	cpi	r24, 0x01	; 1
    1916:	31 f4       	brne	.+12     	; 0x1924 <Seting_Mode+0x30>
    1918:	c5 30       	cpi	r28, 0x05	; 5
    191a:	20 f4       	brcc	.+8      	; 0x1924 <Seting_Mode+0x30>
    191c:	cf 5f       	subi	r28, 0xFF	; 255
    191e:	10 92 d7 4a 	sts	0x4AD7, r1	; 0x804ad7 <KEY+0x2>
    1922:	09 c0       	rjmp	.+18     	; 0x1936 <Seting_Mode+0x42>
			else if(KEY.Key == 3 && Count > 0) {Count--; KEY.Key = 0;}	// ┤┘┐Ό╣÷╞░ └╠╕ώ Count ░ρ╝╥
    1924:	80 91 d7 4a 	lds	r24, 0x4AD7	; 0x804ad7 <KEY+0x2>
    1928:	83 30       	cpi	r24, 0x03	; 3
    192a:	29 f4       	brne	.+10     	; 0x1936 <Seting_Mode+0x42>
    192c:	cc 23       	and	r28, r28
    192e:	19 f0       	breq	.+6      	; 0x1936 <Seting_Mode+0x42>
    1930:	c1 50       	subi	r28, 0x01	; 1
    1932:	10 92 d7 4a 	sts	0x4AD7, r1	; 0x804ad7 <KEY+0x2>
		}
		DIGIT[2][3] = FND_OFF;
    1936:	e3 ec       	ldi	r30, 0xC3	; 195
    1938:	f0 e4       	ldi	r31, 0x40	; 64
    193a:	13 86       	std	Z+11, r1	; 0x0b
		DIGIT[2][2] = FND_OFF;
    193c:	12 86       	std	Z+10, r1	; 0x0a
		DIGIT[2][1] = FND_OFF;
    193e:	11 86       	std	Z+9, r1	; 0x09
		DIGIT[2][0] = fnd_tbl[Count];					// FND 2.0 ┐κ Count ╟ξ╜├
    1940:	ac 2f       	mov	r26, r28
    1942:	b0 e0       	ldi	r27, 0x00	; 0
    1944:	a4 57       	subi	r26, 0x74	; 116
    1946:	bf 4b       	sbci	r27, 0xBF	; 191
    1948:	8c 91       	ld	r24, X
    194a:	80 87       	std	Z+8, r24	; 0x08
//-------------------------------------------------------------------------------------------------
		switch(Count)							// Count
    194c:	c2 30       	cpi	r28, 0x02	; 2
    194e:	31 f1       	breq	.+76     	; 0x199c <Seting_Mode+0xa8>
    1950:	30 f4       	brcc	.+12     	; 0x195e <Seting_Mode+0x6a>
    1952:	cc 23       	and	r28, r28
    1954:	09 f4       	brne	.+2      	; 0x1958 <Seting_Mode+0x64>
    1956:	66 c0       	rjmp	.+204    	; 0x1a24 <Seting_Mode+0x130>
    1958:	c1 30       	cpi	r28, 0x01	; 1
    195a:	49 f0       	breq	.+18     	; 0x196e <Seting_Mode+0x7a>
    195c:	64 c0       	rjmp	.+200    	; 0x1a26 <Seting_Mode+0x132>
    195e:	c4 30       	cpi	r28, 0x04	; 4
    1960:	09 f4       	brne	.+2      	; 0x1964 <Seting_Mode+0x70>
    1962:	48 c0       	rjmp	.+144    	; 0x19f4 <Seting_Mode+0x100>
    1964:	88 f1       	brcs	.+98     	; 0x19c8 <Seting_Mode+0xd4>
    1966:	c5 30       	cpi	r28, 0x05	; 5
    1968:	09 f4       	brne	.+2      	; 0x196c <Seting_Mode+0x78>
    196a:	5a c0       	rjmp	.+180    	; 0x1a20 <Seting_Mode+0x12c>
    196c:	5c c0       	rjmp	.+184    	; 0x1a26 <Seting_Mode+0x132>
			case 0:							// Count = 0 └╠╕ώ
				Count = 4;					// ╣▌║╣└╗ └π╟╪ Count╕ο ├╓░Ί╖╬ ┴Ϋ░κ ╜├┼┤	
			break;

			case 1:							// Count = 1 └╠╕ώ
				DIGIT[0][3] = FND_c;				// cell ╟ξ╜├
    196e:	e3 ec       	ldi	r30, 0xC3	; 195
    1970:	f0 e4       	ldi	r31, 0x40	; 64
    1972:	8a e1       	ldi	r24, 0x1A	; 26
    1974:	83 83       	std	Z+3, r24	; 0x03
				DIGIT[0][2] = FND_e;
    1976:	8e ed       	ldi	r24, 0xDE	; 222
    1978:	82 83       	std	Z+2, r24	; 0x02
				DIGIT[0][1] = FND_l;
    197a:	90 e6       	ldi	r25, 0x60	; 96
    197c:	91 83       	std	Z+1, r25	; 0x01
				DIGIT[0][0] = FND_l;
    197e:	90 83       	st	Z, r25

				DIGIT[1][3] = FND_OFF;				// Set ╟ξ╜├
    1980:	17 82       	std	Z+7, r1	; 0x07
				DIGIT[1][2] = FND_S;
    1982:	96 eb       	ldi	r25, 0xB6	; 182
    1984:	96 83       	std	Z+6, r25	; 0x06
				DIGIT[1][1] = FND_e;
    1986:	85 83       	std	Z+5, r24	; 0x05
				DIGIT[1][0] = FND_t;
    1988:	8e e1       	ldi	r24, 0x1E	; 30
    198a:	84 83       	std	Z+4, r24	; 0x04

				if(SET.Select) {Loadcell_Set();}		// ╖╬╡ί╝┐ ╝│┴ν ╕Ώ╡ί
    198c:	80 91 90 4a 	lds	r24, 0x4A90	; 0x804a90 <SET+0x1>
    1990:	88 23       	and	r24, r24
    1992:	09 f4       	brne	.+2      	; 0x1996 <Seting_Mode+0xa2>
    1994:	48 c0       	rjmp	.+144    	; 0x1a26 <Seting_Mode+0x132>
    1996:	0e 94 e5 20 	call	0x41ca	; 0x41ca <Loadcell_Set>
    199a:	45 c0       	rjmp	.+138    	; 0x1a26 <Seting_Mode+0x132>
			break;

			case 2:							// Count = 2 └╠╕ώ
				DIGIT[0][3] = FND_OFF;				// gat ╟ξ╜├
    199c:	e3 ec       	ldi	r30, 0xC3	; 195
    199e:	f0 e4       	ldi	r31, 0x40	; 64
    19a0:	13 82       	std	Z+3, r1	; 0x03
				DIGIT[0][2] = FND_g;
    19a2:	86 ef       	ldi	r24, 0xF6	; 246
    19a4:	82 83       	std	Z+2, r24	; 0x02
				DIGIT[0][1] = FND_a;
    19a6:	8a ef       	ldi	r24, 0xFA	; 250
    19a8:	81 83       	std	Z+1, r24	; 0x01
				DIGIT[0][0] = FND_t;
    19aa:	8e e1       	ldi	r24, 0x1E	; 30
    19ac:	80 83       	st	Z, r24

				DIGIT[1][3] = FND_OFF;				// Set ╟ξ╜├
    19ae:	17 82       	std	Z+7, r1	; 0x07
				DIGIT[1][2] = FND_S;
    19b0:	96 eb       	ldi	r25, 0xB6	; 182
    19b2:	96 83       	std	Z+6, r25	; 0x06
				DIGIT[1][1] = FND_e;
    19b4:	9e ed       	ldi	r25, 0xDE	; 222
    19b6:	95 83       	std	Z+5, r25	; 0x05
				DIGIT[1][0] = FND_t;
    19b8:	84 83       	std	Z+4, r24	; 0x04

				if(SET.Select) {Gateway_Set();}			// ░╘└╠╞χ ┐■└╠ ╝│┴ν
    19ba:	80 91 90 4a 	lds	r24, 0x4A90	; 0x804a90 <SET+0x1>
    19be:	88 23       	and	r24, r24
    19c0:	91 f1       	breq	.+100    	; 0x1a26 <Seting_Mode+0x132>
    19c2:	0e 94 75 10 	call	0x20ea	; 0x20ea <Gateway_Set>
    19c6:	2f c0       	rjmp	.+94     	; 0x1a26 <Seting_Mode+0x132>
			break;

			case 3:							// Count = 3 └╠╕ώ
				DIGIT[0][3] = FND_OFF;				// Zbe ╟ξ╜├
    19c8:	e3 ec       	ldi	r30, 0xC3	; 195
    19ca:	f0 e4       	ldi	r31, 0x40	; 64
    19cc:	13 82       	std	Z+3, r1	; 0x03
				DIGIT[0][2] = FND_Z;
    19ce:	8a ed       	ldi	r24, 0xDA	; 218
    19d0:	82 83       	std	Z+2, r24	; 0x02
				DIGIT[0][1] = FND_b;
    19d2:	8e e3       	ldi	r24, 0x3E	; 62
    19d4:	81 83       	std	Z+1, r24	; 0x01
				DIGIT[0][0] = FND_e;
    19d6:	8e ed       	ldi	r24, 0xDE	; 222
    19d8:	80 83       	st	Z, r24

				DIGIT[1][3] = FND_OFF;				// Set ╟ξ╜├
    19da:	17 82       	std	Z+7, r1	; 0x07
				DIGIT[1][2] = FND_S;
    19dc:	96 eb       	ldi	r25, 0xB6	; 182
    19de:	96 83       	std	Z+6, r25	; 0x06
				DIGIT[1][1] = FND_e;
    19e0:	85 83       	std	Z+5, r24	; 0x05
				DIGIT[1][0] = FND_t;
    19e2:	8e e1       	ldi	r24, 0x1E	; 30
    19e4:	84 83       	std	Z+4, r24	; 0x04

				if(SET.Select) {ZigBee_Set();}			// ┴÷▒╫║± ╝│┴ν ╕Ώ╡ί
    19e6:	80 91 90 4a 	lds	r24, 0x4A90	; 0x804a90 <SET+0x1>
    19ea:	88 23       	and	r24, r24
    19ec:	e1 f0       	breq	.+56     	; 0x1a26 <Seting_Mode+0x132>
    19ee:	0e 94 7f 2e 	call	0x5cfe	; 0x5cfe <ZigBee_Set>
    19f2:	19 c0       	rjmp	.+50     	; 0x1a26 <Seting_Mode+0x132>
			break;

			case 4:							// Count = 5 └╠╕ώ
				DIGIT[0][3] = FND_OFF;				// rtc ╟ξ╜├
    19f4:	e3 ec       	ldi	r30, 0xC3	; 195
    19f6:	f0 e4       	ldi	r31, 0x40	; 64
    19f8:	13 82       	std	Z+3, r1	; 0x03
				DIGIT[0][2] = FND_r;
    19fa:	8a e0       	ldi	r24, 0x0A	; 10
    19fc:	82 83       	std	Z+2, r24	; 0x02
				DIGIT[0][1] = FND_t;
    19fe:	8e e1       	ldi	r24, 0x1E	; 30
    1a00:	81 83       	std	Z+1, r24	; 0x01
				DIGIT[0][0] = FND_c;
    1a02:	9a e1       	ldi	r25, 0x1A	; 26
    1a04:	90 83       	st	Z, r25

				DIGIT[1][3] = FND_OFF;				// Set ╟ξ╜├
    1a06:	17 82       	std	Z+7, r1	; 0x07
				DIGIT[1][2] = FND_S;
    1a08:	96 eb       	ldi	r25, 0xB6	; 182
    1a0a:	96 83       	std	Z+6, r25	; 0x06
				DIGIT[1][1] = FND_e;
    1a0c:	9e ed       	ldi	r25, 0xDE	; 222
    1a0e:	95 83       	std	Z+5, r25	; 0x05
				DIGIT[1][0] = FND_t;
    1a10:	84 83       	std	Z+4, r24	; 0x04

				if(SET.Select) {RTC_Set();}			// RTC ╝│┴ν ╕Ώ╡ί
    1a12:	80 91 90 4a 	lds	r24, 0x4A90	; 0x804a90 <SET+0x1>
    1a16:	88 23       	and	r24, r24
    1a18:	31 f0       	breq	.+12     	; 0x1a26 <Seting_Mode+0x132>
    1a1a:	0e 94 8b 24 	call	0x4916	; 0x4916 <RTC_Set>
    1a1e:	03 c0       	rjmp	.+6      	; 0x1a26 <Seting_Mode+0x132>
			break;

			case 5:							// Count = 5 └╠╕ώ
				Count = 1;					// ╣▌║╣└╗ └π╟╪ Count╕ο ├╓└·╖╬ ░ρ╝╥ ╜├┼┤
    1a20:	c1 e0       	ldi	r28, 0x01	; 1
			break;
    1a22:	01 c0       	rjmp	.+2      	; 0x1a26 <Seting_Mode+0x132>
		DIGIT[2][0] = fnd_tbl[Count];					// FND 2.0 ┐κ Count ╟ξ╜├
//-------------------------------------------------------------------------------------------------
		switch(Count)							// Count
		{
			case 0:							// Count = 0 └╠╕ώ
				Count = 4;					// ╣▌║╣└╗ └π╟╪ Count╕ο ├╓░Ί╖╬ ┴Ϋ░κ ╜├┼┤	
    1a24:	c4 e0       	ldi	r28, 0x04	; 4

			case 5:							// Count = 5 └╠╕ώ
				Count = 1;					// ╣▌║╣└╗ └π╟╪ Count╕ο ├╓└·╖╬ ░ρ╝╥ ╜├┼┤
			break;
		}
		wdt_reset();							// ┐÷─κ╡╢ ╕χ╝┬
    1a26:	0e 94 78 0c 	call	0x18f0	; 0x18f0 <wdt_reset>
	uint8_t Count = 1;							// Count ║ψ╝÷ ├╩▒έ╚φ
	SET.Select = 0;								// Select ╣÷╞░ ├╩▒έ╚φ

	FND_Value_Data(0, 2, 12);						// FND 0 ~ 2 FND_OFF

	while(SET.Menu)								// Seting_Mode └╠╕ώ ╣τ╟╤ ╣▌║╣
    1a2a:	80 91 8f 4a 	lds	r24, 0x4A8F	; 0x804a8f <SET>
    1a2e:	81 11       	cpse	r24, r1
    1a30:	6b cf       	rjmp	.-298    	; 0x1908 <Seting_Mode+0x14>
				Count = 1;					// ╣▌║╣└╗ └π╟╪ Count╕ο ├╓└·╖╬ ░ρ╝╥ ╜├┼┤
			break;
		}
		wdt_reset();							// ┐÷─κ╡╢ ╕χ╝┬
	}
	Var_Init();								// ║ψ╝÷ ├╩▒έ╚φ
    1a32:	0e 94 46 0c 	call	0x188c	; 0x188c <Var_Init>
}
    1a36:	cf 91       	pop	r28
    1a38:	08 95       	ret

00001a3a <main>:
}

//=================================================================================================
int main(void)
{
	atmel_start_init();
    1a3a:	0e 94 38 04 	call	0x870	; 0x870 <atmel_start_init>
	MCU_Init();								// MCU Port ├╩▒έ╚φ
    1a3e:	0e 94 1e 05 	call	0xa3c	; 0xa3c <MCU_Init>
//-------------------------------------------------------------------------------------------------
#ifdef USART_SET								// USART ╗ύ┐Έ╝│┴ν
	fdevopen(std_putchar, NULL);						// printf ╟╘╝÷╗ύ┐Έ ╝│┴ν
    1a42:	60 e0       	ldi	r22, 0x00	; 0
    1a44:	70 e0       	ldi	r23, 0x00	; 0
    1a46:	8a e0       	ldi	r24, 0x0A	; 10
    1a48:	95 e0       	ldi	r25, 0x05	; 5
    1a4a:	0e 94 35 38 	call	0x706a	; 0x706a <fdevopen>
	printf_port = 1;							// Usart Port 1 ╗ύ┐Έ
    1a4e:	81 e0       	ldi	r24, 0x01	; 1
    1a50:	80 93 d4 4a 	sts	0x4AD4, r24	; 0x804ad4 <printf_port>
	printf("\r\n");
    1a54:	8d eb       	ldi	r24, 0xBD	; 189
    1a56:	90 e4       	ldi	r25, 0x40	; 64
    1a58:	0e 94 d0 38 	call	0x71a0	; 0x71a0 <puts>
    1a5c:	2f ef       	ldi	r18, 0xFF	; 255
    1a5e:	8f e3       	ldi	r24, 0x3F	; 63
    1a60:	92 e0       	ldi	r25, 0x02	; 2
    1a62:	21 50       	subi	r18, 0x01	; 1
    1a64:	80 40       	sbci	r24, 0x00	; 0
    1a66:	90 40       	sbci	r25, 0x00	; 0
    1a68:	e1 f7       	brne	.-8      	; 0x1a62 <main+0x28>
    1a6a:	00 c0       	rjmp	.+0      	; 0x1a6c <main+0x32>
    1a6c:	00 00       	nop
	_delay_ms(50);
	printf("---   Compiled : %s, %s   ---\r\n\r\n", __DATE__, __TIME__);	// Compiled : │ψ┬ξ, ╜├░μ ╟ξ╜├
    1a6e:	85 e5       	ldi	r24, 0x55	; 85
    1a70:	90 e4       	ldi	r25, 0x40	; 64
    1a72:	9f 93       	push	r25
    1a74:	8f 93       	push	r24
    1a76:	8e e5       	ldi	r24, 0x5E	; 94
    1a78:	90 e4       	ldi	r25, 0x40	; 64
    1a7a:	9f 93       	push	r25
    1a7c:	8f 93       	push	r24
    1a7e:	8a e6       	ldi	r24, 0x6A	; 106
    1a80:	90 e4       	ldi	r25, 0x40	; 64
    1a82:	9f 93       	push	r25
    1a84:	8f 93       	push	r24
    1a86:	0e 94 bc 38 	call	0x7178	; 0x7178 <printf>
#endif
//-------------------------------------------------------------------------------------------------
#ifdef ADC_SET									// ADC ╗ύ┐Έ╝│┴ν
	ADC_init();								// ADC ├╩▒έ╚φ ╣╫ ╝│┴ν
    1a8a:	0e 94 3b 0e 	call	0x1c76	; 0x1c76 <ADC_init>
	VREF_ADC_init();
    1a8e:	0e 94 63 0e 	call	0x1cc6	; 0x1cc6 <VREF_ADC_init>
	ADC_is_conversion_done();
    1a92:	0e 94 4c 0e 	call	0x1c98	; 0x1c98 <ADC_is_conversion_done>
#ifdef PWM_SET									// PWM ╗ύ┐Έ╝│┴ν
	PWM_0_enable();								// PWM 0 ├╩▒έ╚φ ╣╫ ╝│┴ν
	PWM_0_enable_output_ch0();
#endif
//-------------------------------------------------------------------------------------------------
	sei();									// └ⁿ├╝ └╬┼═╖┤┼═ ╜├└█
    1a96:	78 94       	sei
	Alarm();								// ╛╦╢≈(║±╟┴ 3╣°)
    1a98:	0e 94 b3 07 	call	0xf66	; 0xf66 <Alarm>
	Rx_LED_OFF;								// RX LED OFF
    1a9c:	e4 e2       	ldi	r30, 0x24	; 36
    1a9e:	f4 e0       	ldi	r31, 0x04	; 4
    1aa0:	80 81       	ld	r24, Z
    1aa2:	87 7f       	andi	r24, 0xF7	; 247
    1aa4:	80 83       	st	Z, r24
	Tx_LED_OFF;								// TX LED OFF
    1aa6:	80 81       	ld	r24, Z
    1aa8:	8b 7f       	andi	r24, 0xFB	; 251
    1aaa:	80 83       	st	Z, r24
//-------------------------------------------------------------------------------------------------
	uint8_t Time_Count = 5;							// ╜├░μ ╟ξ╜├ ┐Έ ║ψ╝÷ ╝│┴ν
	uint8_t SECOND = 0;							// └╠└ⁿ ╜├░μ(├╩)┐Έ ║ψ╝÷ ╝│┴ν
	Read_eeprom();
    1aac:	0e 94 9e 06 	call	0xd3c	; 0xd3c <Read_eeprom>
//-------------------------------------------------------------------------------------------------
	DIGIT[0][3] = FND_OFF;							// Ver 3.1 ╟ξ╜├
    1ab0:	e3 ec       	ldi	r30, 0xC3	; 195
    1ab2:	f0 e4       	ldi	r31, 0x40	; 64
    1ab4:	13 82       	std	Z+3, r1	; 0x03
	DIGIT[0][2] = FND_4 + FND_Point;					
    1ab6:	87 e6       	ldi	r24, 0x67	; 103
    1ab8:	82 83       	std	Z+2, r24	; 0x02
	DIGIT[0][1] = FND_1;						
    1aba:	80 e6       	ldi	r24, 0x60	; 96
    1abc:	81 83       	std	Z+1, r24	; 0x01
	DIGIT[0][0] = FND_OFF;
    1abe:	10 82       	st	Z, r1
    1ac0:	2f ef       	ldi	r18, 0xFF	; 255
    1ac2:	8f ef       	ldi	r24, 0xFF	; 255
    1ac4:	9c e2       	ldi	r25, 0x2C	; 44
    1ac6:	21 50       	subi	r18, 0x01	; 1
    1ac8:	80 40       	sbci	r24, 0x00	; 0
    1aca:	90 40       	sbci	r25, 0x00	; 0
    1acc:	e1 f7       	brne	.-8      	; 0x1ac6 <main+0x8c>
    1ace:	00 c0       	rjmp	.+0      	; 0x1ad0 <main+0x96>
    1ad0:	00 00       	nop
	_delay_ms(1000);							// 1├╩ ╡┐╛╚ ╟ξ╜├	
	wdt_reset();								// Reset WT
    1ad2:	0e 94 78 0c 	call	0x18f0	; 0x18f0 <wdt_reset>
//-------------------------------------------------------------------------------------------------
	while(Time_Count)							// Time_Count ░κ 0└╠ ╛╞┤╧╕ώ ╣▌║╣(5├╩╡┐╛╚ ╜├░μ╟ξ╜├)
    1ad6:	0f 90       	pop	r0
    1ad8:	0f 90       	pop	r0
    1ada:	0f 90       	pop	r0
    1adc:	0f 90       	pop	r0
    1ade:	0f 90       	pop	r0
    1ae0:	0f 90       	pop	r0
	Alarm();								// ╛╦╢≈(║±╟┴ 3╣°)
	Rx_LED_OFF;								// RX LED OFF
	Tx_LED_OFF;								// TX LED OFF
//-------------------------------------------------------------------------------------------------
	uint8_t Time_Count = 5;							// ╜├░μ ╟ξ╜├ ┐Έ ║ψ╝÷ ╝│┴ν
	uint8_t SECOND = 0;							// └╠└ⁿ ╜├░μ(├╩)┐Έ ║ψ╝÷ ╝│┴ν
    1ae2:	10 e0       	ldi	r17, 0x00	; 0
	sei();									// └ⁿ├╝ └╬┼═╖┤┼═ ╜├└█
	Alarm();								// ╛╦╢≈(║±╟┴ 3╣°)
	Rx_LED_OFF;								// RX LED OFF
	Tx_LED_OFF;								// TX LED OFF
//-------------------------------------------------------------------------------------------------
	uint8_t Time_Count = 5;							// ╜├░μ ╟ξ╜├ ┐Έ ║ψ╝÷ ╝│┴ν
    1ae4:	0f 2e       	mov	r0, r31
    1ae6:	f5 e0       	ldi	r31, 0x05	; 5
    1ae8:	ff 2e       	mov	r15, r31
    1aea:	f0 2d       	mov	r31, r0
	DIGIT[0][1] = FND_1;						
	DIGIT[0][0] = FND_OFF;
	_delay_ms(1000);							// 1├╩ ╡┐╛╚ ╟ξ╜├	
	wdt_reset();								// Reset WT
//-------------------------------------------------------------------------------------------------
	while(Time_Count)							// Time_Count ░κ 0└╠ ╛╞┤╧╕ώ ╣▌║╣(5├╩╡┐╛╚ ╜├░μ╟ξ╜├)
    1aec:	a6 c0       	rjmp	.+332    	; 0x1c3a <main+0x200>
	{
		RTC_Time_Read();						// RTC Data └╨▒έ
    1aee:	0e 94 22 24 	call	0x4844	; 0x4844 <RTC_Time_Read>

		DIGIT[0][3] = fnd_tbl[RTC_T.Year / 10];				// │έ ╟ξ╜├
    1af2:	c0 ec       	ldi	r28, 0xC0	; 192
    1af4:	da e4       	ldi	r29, 0x4A	; 74
    1af6:	9e 81       	ldd	r25, Y+6	; 0x06
    1af8:	8d ec       	ldi	r24, 0xCD	; 205
    1afa:	98 9f       	mul	r25, r24
    1afc:	41 2d       	mov	r20, r1
    1afe:	11 24       	eor	r1, r1
    1b00:	46 95       	lsr	r20
    1b02:	46 95       	lsr	r20
    1b04:	46 95       	lsr	r20
    1b06:	e4 2f       	mov	r30, r20
    1b08:	f0 e0       	ldi	r31, 0x00	; 0
    1b0a:	e4 57       	subi	r30, 0x74	; 116
    1b0c:	ff 4b       	sbci	r31, 0xBF	; 191
    1b0e:	50 81       	ld	r21, Z
    1b10:	e3 ec       	ldi	r30, 0xC3	; 195
    1b12:	f0 e4       	ldi	r31, 0x40	; 64
    1b14:	53 83       	std	Z+3, r21	; 0x03
		DIGIT[0][2] = fnd_tbl[RTC_T.Year % 10];
    1b16:	44 0f       	add	r20, r20
    1b18:	54 2f       	mov	r21, r20
    1b1a:	55 0f       	add	r21, r21
    1b1c:	55 0f       	add	r21, r21
    1b1e:	45 0f       	add	r20, r21
    1b20:	a9 2f       	mov	r26, r25
    1b22:	a4 1b       	sub	r26, r20
    1b24:	b0 e0       	ldi	r27, 0x00	; 0
    1b26:	a4 57       	subi	r26, 0x74	; 116
    1b28:	bf 4b       	sbci	r27, 0xBF	; 191
    1b2a:	9c 91       	ld	r25, X
    1b2c:	92 83       	std	Z+2, r25	; 0x02

		DIGIT[0][1] = fnd_tbl[RTC_T.Month / 10];			// ┐∙ ╟ξ╜├
    1b2e:	9d 81       	ldd	r25, Y+5	; 0x05
    1b30:	98 9f       	mul	r25, r24
    1b32:	41 2d       	mov	r20, r1
    1b34:	11 24       	eor	r1, r1
    1b36:	46 95       	lsr	r20
    1b38:	46 95       	lsr	r20
    1b3a:	46 95       	lsr	r20
    1b3c:	a4 2f       	mov	r26, r20
    1b3e:	b0 e0       	ldi	r27, 0x00	; 0
    1b40:	a4 57       	subi	r26, 0x74	; 116
    1b42:	bf 4b       	sbci	r27, 0xBF	; 191
    1b44:	5c 91       	ld	r21, X
    1b46:	51 83       	std	Z+1, r21	; 0x01
		DIGIT[0][0] = fnd_tbl[RTC_T.Month % 10];
    1b48:	44 0f       	add	r20, r20
    1b4a:	54 2f       	mov	r21, r20
    1b4c:	55 0f       	add	r21, r21
    1b4e:	55 0f       	add	r21, r21
    1b50:	45 0f       	add	r20, r21
    1b52:	a9 2f       	mov	r26, r25
    1b54:	a4 1b       	sub	r26, r20
    1b56:	b0 e0       	ldi	r27, 0x00	; 0
    1b58:	a4 57       	subi	r26, 0x74	; 116
    1b5a:	bf 4b       	sbci	r27, 0xBF	; 191
    1b5c:	9c 91       	ld	r25, X
    1b5e:	90 83       	st	Z, r25

		DIGIT[1][3] = fnd_tbl[RTC_T.Date / 10];				// └╧ ╟ξ╜├
    1b60:	9c 81       	ldd	r25, Y+4	; 0x04
    1b62:	98 9f       	mul	r25, r24
    1b64:	41 2d       	mov	r20, r1
    1b66:	11 24       	eor	r1, r1
    1b68:	46 95       	lsr	r20
    1b6a:	46 95       	lsr	r20
    1b6c:	46 95       	lsr	r20
    1b6e:	a4 2f       	mov	r26, r20
    1b70:	b0 e0       	ldi	r27, 0x00	; 0
    1b72:	a4 57       	subi	r26, 0x74	; 116
    1b74:	bf 4b       	sbci	r27, 0xBF	; 191
    1b76:	5c 91       	ld	r21, X
    1b78:	57 83       	std	Z+7, r21	; 0x07
		DIGIT[1][2] = fnd_tbl[RTC_T.Date % 10];
    1b7a:	44 0f       	add	r20, r20
    1b7c:	54 2f       	mov	r21, r20
    1b7e:	55 0f       	add	r21, r21
    1b80:	55 0f       	add	r21, r21
    1b82:	45 0f       	add	r20, r21
    1b84:	a9 2f       	mov	r26, r25
    1b86:	a4 1b       	sub	r26, r20
    1b88:	b0 e0       	ldi	r27, 0x00	; 0
    1b8a:	a4 57       	subi	r26, 0x74	; 116
    1b8c:	bf 4b       	sbci	r27, 0xBF	; 191
    1b8e:	9c 91       	ld	r25, X
    1b90:	96 83       	std	Z+6, r25	; 0x06

		DIGIT[1][1] = fnd_tbl[RTC_T.Hour / 10];				// ╜├ ╟ξ╜├
    1b92:	9a 81       	ldd	r25, Y+2	; 0x02
    1b94:	98 9f       	mul	r25, r24
    1b96:	41 2d       	mov	r20, r1
    1b98:	11 24       	eor	r1, r1
    1b9a:	46 95       	lsr	r20
    1b9c:	46 95       	lsr	r20
    1b9e:	46 95       	lsr	r20
    1ba0:	a4 2f       	mov	r26, r20
    1ba2:	b0 e0       	ldi	r27, 0x00	; 0
    1ba4:	a4 57       	subi	r26, 0x74	; 116
    1ba6:	bf 4b       	sbci	r27, 0xBF	; 191
    1ba8:	5c 91       	ld	r21, X
    1baa:	55 83       	std	Z+5, r21	; 0x05
		DIGIT[1][0] = fnd_tbl[RTC_T.Hour % 10];
    1bac:	44 0f       	add	r20, r20
    1bae:	54 2f       	mov	r21, r20
    1bb0:	55 0f       	add	r21, r21
    1bb2:	55 0f       	add	r21, r21
    1bb4:	45 0f       	add	r20, r21
    1bb6:	a9 2f       	mov	r26, r25
    1bb8:	a4 1b       	sub	r26, r20
    1bba:	b0 e0       	ldi	r27, 0x00	; 0
    1bbc:	a4 57       	subi	r26, 0x74	; 116
    1bbe:	bf 4b       	sbci	r27, 0xBF	; 191
    1bc0:	9c 91       	ld	r25, X
    1bc2:	94 83       	std	Z+4, r25	; 0x04

		DIGIT[2][3] = fnd_tbl[RTC_T.Min / 10];				// ║╨ ╟ξ╜├
    1bc4:	99 81       	ldd	r25, Y+1	; 0x01
    1bc6:	98 9f       	mul	r25, r24
    1bc8:	41 2d       	mov	r20, r1
    1bca:	11 24       	eor	r1, r1
    1bcc:	46 95       	lsr	r20
    1bce:	46 95       	lsr	r20
    1bd0:	46 95       	lsr	r20
    1bd2:	a4 2f       	mov	r26, r20
    1bd4:	b0 e0       	ldi	r27, 0x00	; 0
    1bd6:	a4 57       	subi	r26, 0x74	; 116
    1bd8:	bf 4b       	sbci	r27, 0xBF	; 191
    1bda:	5c 91       	ld	r21, X
    1bdc:	53 87       	std	Z+11, r21	; 0x0b
		DIGIT[2][2] = fnd_tbl[RTC_T.Min % 10];
    1bde:	44 0f       	add	r20, r20
    1be0:	54 2f       	mov	r21, r20
    1be2:	55 0f       	add	r21, r21
    1be4:	55 0f       	add	r21, r21
    1be6:	45 0f       	add	r20, r21
    1be8:	a9 2f       	mov	r26, r25
    1bea:	a4 1b       	sub	r26, r20
    1bec:	b0 e0       	ldi	r27, 0x00	; 0
    1bee:	a4 57       	subi	r26, 0x74	; 116
    1bf0:	bf 4b       	sbci	r27, 0xBF	; 191
    1bf2:	9c 91       	ld	r25, X
    1bf4:	92 87       	std	Z+10, r25	; 0x0a

		DIGIT[2][1] = fnd_tbl[RTC_T.Sec / 10];				// ├╩ ╟ξ╜├
    1bf6:	18 81       	ld	r17, Y
    1bf8:	18 9f       	mul	r17, r24
    1bfa:	81 2d       	mov	r24, r1
    1bfc:	11 24       	eor	r1, r1
    1bfe:	86 95       	lsr	r24
    1c00:	86 95       	lsr	r24
    1c02:	86 95       	lsr	r24
    1c04:	a8 2f       	mov	r26, r24
    1c06:	b0 e0       	ldi	r27, 0x00	; 0
    1c08:	a4 57       	subi	r26, 0x74	; 116
    1c0a:	bf 4b       	sbci	r27, 0xBF	; 191
    1c0c:	9c 91       	ld	r25, X
    1c0e:	91 87       	std	Z+9, r25	; 0x09
		DIGIT[2][0] = fnd_tbl[RTC_T.Sec % 10];
    1c10:	88 0f       	add	r24, r24
    1c12:	98 2f       	mov	r25, r24
    1c14:	99 0f       	add	r25, r25
    1c16:	99 0f       	add	r25, r25
    1c18:	89 0f       	add	r24, r25
    1c1a:	a1 2f       	mov	r26, r17
    1c1c:	a8 1b       	sub	r26, r24
    1c1e:	b0 e0       	ldi	r27, 0x00	; 0
    1c20:	a4 57       	subi	r26, 0x74	; 116
    1c22:	bf 4b       	sbci	r27, 0xBF	; 191
    1c24:	8c 91       	ld	r24, X
    1c26:	80 87       	std	Z+8, r24	; 0x08
		
		if(SECOND != RTC_T.Sec)						// └╠└ⁿ ╜├░μ(├╩)└╠ ╟÷└ύ╜├░μ(├╩)┐═ ░░┴÷ ╛╩└╕╕ώ
    1c28:	01 17       	cp	r16, r17
    1c2a:	41 f0       	breq	.+16     	; 0x1c3c <main+0x202>
		{
			SECOND = RTC_T.Sec;					// └╠└ⁿ ╜├░μ(├╩)┐κ ╟÷└ύ╜├░μ(├╩) └·└ί	
			Beep(10);						// ║±╟┴(1├╩┐κ 1╣°╛┐)
    1c2c:	8a e0       	ldi	r24, 0x0A	; 10
    1c2e:	90 e0       	ldi	r25, 0x00	; 0
    1c30:	0e 94 3b 04 	call	0x876	; 0x876 <Beep>
			wdt_reset();						// Reset WDT
    1c34:	0e 94 78 0c 	call	0x18f0	; 0x18f0 <wdt_reset>
			Time_Count--;						// Time_Count ░ρ╝╥
    1c38:	fa 94       	dec	r15
	sei();									// └ⁿ├╝ └╬┼═╖┤┼═ ╜├└█
	Alarm();								// ╛╦╢≈(║±╟┴ 3╣°)
	Rx_LED_OFF;								// RX LED OFF
	Tx_LED_OFF;								// TX LED OFF
//-------------------------------------------------------------------------------------------------
	uint8_t Time_Count = 5;							// ╜├░μ ╟ξ╜├ ┐Έ ║ψ╝÷ ╝│┴ν
    1c3a:	01 2f       	mov	r16, r17
	DIGIT[0][1] = FND_1;						
	DIGIT[0][0] = FND_OFF;
	_delay_ms(1000);							// 1├╩ ╡┐╛╚ ╟ξ╜├	
	wdt_reset();								// Reset WT
//-------------------------------------------------------------------------------------------------
	while(Time_Count)							// Time_Count ░κ 0└╠ ╛╞┤╧╕ώ ╣▌║╣(5├╩╡┐╛╚ ╜├░μ╟ξ╜├)
    1c3c:	f1 10       	cpse	r15, r1
    1c3e:	57 cf       	rjmp	.-338    	; 0x1aee <main+0xb4>
			Beep(10);						// ║±╟┴(1├╩┐κ 1╣°╛┐)
			wdt_reset();						// Reset WDT
			Time_Count--;						// Time_Count ░ρ╝╥
		}
	}
	Var_Init();								// ║ψ╝÷ ╣╫ ╖╬╡ί╝┐ ├╩▒έ╚φ
    1c40:	0e 94 46 0c 	call	0x188c	; 0x188c <Var_Init>
	wdt_reset();								// Reset WDT
    1c44:	0e 94 78 0c 	call	0x18f0	; 0x18f0 <wdt_reset>
//-------------------------------------------------------------------------------------------------
	while(1)
	{
		if(SET.Menu) {Seting_Mode();}					// SET Menu ░κ ╝│┴ν╡╟╛Ό └╓└╕╕ώ Seting_Mode ┴°└╘
    1c48:	80 91 8f 4a 	lds	r24, 0x4A8F	; 0x804a8f <SET>
    1c4c:	81 11       	cpse	r24, r1
    1c4e:	0e 94 7a 0c 	call	0x18f4	; 0x18f4 <Seting_Mode>
		Check_Value();
    1c52:	0e 94 ce 07 	call	0xf9c	; 0xf9c <Check_Value>
		Receiv_PC();							// PC╖╬ ║╬┼═ ╡ξ└╠┼═╝÷╜┼ ╚χ└╬
    1c56:	0e 94 f8 09 	call	0x13f0	; 0x13f0 <Receiv_PC>
		Time_Check();							// ╜├░μ ├╝┼σ(│ψ┬ξ║ψ░ό ╚χ└╬)
    1c5a:	0e 94 73 0b 	call	0x16e6	; 0x16e6 <Time_Check>
		wdt_reset();							// Reset WDT
    1c5e:	0e 94 78 0c 	call	0x18f0	; 0x18f0 <wdt_reset>
    1c62:	2f ef       	ldi	r18, 0xFF	; 255
    1c64:	8f e7       	ldi	r24, 0x7F	; 127
    1c66:	94 e0       	ldi	r25, 0x04	; 4
    1c68:	21 50       	subi	r18, 0x01	; 1
    1c6a:	80 40       	sbci	r24, 0x00	; 0
    1c6c:	90 40       	sbci	r25, 0x00	; 0
    1c6e:	e1 f7       	brne	.-8      	; 0x1c68 <main+0x22e>
    1c70:	00 c0       	rjmp	.+0      	; 0x1c72 <main+0x238>
    1c72:	00 00       	nop
    1c74:	e9 cf       	rjmp	.-46     	; 0x1c48 <main+0x20e>

00001c76 <ADC_init>:
 */
//=================================================================================================
#ifdef ADC_SET							// ADC ΉΓυΉγσ ΉΕνΉιΧ
void ADC_disable()
{
	ADC0.CTRLA &= ~ADC_ENABLE_bm;
    1c76:	e0 e0       	ldi	r30, 0x00	; 0
    1c78:	f6 e0       	ldi	r31, 0x06	; 6
    1c7a:	86 e0       	ldi	r24, 0x06	; 6
    1c7c:	82 83       	std	Z+2, r24	; 0x02
    1c7e:	81 e0       	ldi	r24, 0x01	; 1
    1c80:	80 83       	st	Z, r24
    1c82:	80 e0       	ldi	r24, 0x00	; 0
    1c84:	08 95       	ret

00001c86 <ADC_start_conversion>:
 */
//=================================================================================================
#ifdef ADC_SET								// ADC ΉΓυΉγσ ΉΕνΉιΧ
void ADC_start_conversion(adc_channel_t channel)
{
	ADC0.CTRLA  &= ~ADC_CONVMODE_bm;
    1c86:	e0 e0       	ldi	r30, 0x00	; 0
    1c88:	f6 e0       	ldi	r31, 0x06	; 6
    1c8a:	90 81       	ld	r25, Z
    1c8c:	9f 7d       	andi	r25, 0xDF	; 223
    1c8e:	90 83       	st	Z, r25
	ADC0.MUXPOS  = channel;
    1c90:	80 87       	std	Z+8, r24	; 0x08
	ADC0.COMMAND = ADC_STCONV_bm;
    1c92:	81 e0       	ldi	r24, 0x01	; 1
    1c94:	82 87       	std	Z+10, r24	; 0x0a
    1c96:	08 95       	ret

00001c98 <ADC_is_conversion_done>:
   */
//=================================================================================================
#ifdef ADC_SET								// ADC ΉΓυΉγσ ΉΕνΉιΧ
bool ADC_is_conversion_done()
{
	return (ADC0.INTFLAGS & ADC_RESRDY_bm);
    1c98:	80 91 0d 06 	lds	r24, 0x060D	; 0x80060d <__TEXT_REGION_LENGTH__+0x7e060d>
}
    1c9c:	81 70       	andi	r24, 0x01	; 1
    1c9e:	08 95       	ret

00001ca0 <ADC_get_conversion_result>:
 */
//=================================================================================================
#ifdef ADC_SET								// ADC ΉΓυΉγσ ΉΕνΉιΧ
adc_result_t ADC_get_conversion_result(void)
{
	return (ADC0.RES);
    1ca0:	80 91 10 06 	lds	r24, 0x0610	; 0x800610 <__TEXT_REGION_LENGTH__+0x7e0610>
    1ca4:	90 91 11 06 	lds	r25, 0x0611	; 0x800611 <__TEXT_REGION_LENGTH__+0x7e0611>
}
    1ca8:	08 95       	ret

00001caa <ADC_get_conversion>:
#ifdef ADC_SET								// ADC ΉΓυΉγσ ΉΕνΉιΧ
adc_result_t ADC_get_conversion(adc_channel_t channel)
{
	adc_result_t res;

	ADC_start_conversion(channel);
    1caa:	0e 94 43 0e 	call	0x1c86	; 0x1c86 <ADC_start_conversion>
	while (!ADC_is_conversion_done());
    1cae:	0e 94 4c 0e 	call	0x1c98	; 0x1c98 <ADC_is_conversion_done>
    1cb2:	88 23       	and	r24, r24
    1cb4:	e1 f3       	breq	.-8      	; 0x1cae <ADC_get_conversion+0x4>
	res = ADC_get_conversion_result();
    1cb6:	0e 94 50 0e 	call	0x1ca0	; 0x1ca0 <ADC_get_conversion_result>
	ADC0.INTFLAGS |= ADC_RESRDY_bm;
    1cba:	e0 e0       	ldi	r30, 0x00	; 0
    1cbc:	f6 e0       	ldi	r31, 0x06	; 6
    1cbe:	25 85       	ldd	r18, Z+13	; 0x0d
    1cc0:	21 60       	ori	r18, 0x01	; 1
    1cc2:	25 87       	std	Z+13, r18	; 0x0d
	return res;
}
    1cc4:	08 95       	ret

00001cc6 <VREF_ADC_init>:

//=================================================================================================
#ifdef ADC_SET								// ADC ΉΓυΉγσ ΉΕνΉιΧ
void VREF_ADC_init(void)
{
	VREF.ADC0REF = VREF_REFSEL_VDD_gc;				// VDD as reference
    1cc6:	85 e0       	ldi	r24, 0x05	; 5
    1cc8:	80 93 a0 00 	sts	0x00A0, r24	; 0x8000a0 <__TEXT_REGION_LENGTH__+0x7e00a0>
	#else
		//round up by default
		__ticks_dc = (uint32_t)(ceil(fabs(__tmp)));
	#endif

	__builtin_avr_delay_cycles(__ticks_dc);
    1ccc:	86 ef       	ldi	r24, 0xF6	; 246
    1cce:	8a 95       	dec	r24
    1cd0:	f1 f7       	brne	.-4      	; 0x1cce <VREF_ADC_init+0x8>
    1cd2:	08 95       	ret

00001cd4 <BOD_init>:
    1cd4:	10 92 89 00 	sts	0x0089, r1	; 0x800089 <__TEXT_REGION_LENGTH__+0x7e0089>
    1cd8:	80 e0       	ldi	r24, 0x00	; 0
    1cda:	08 95       	ret

00001cdc <CLKCTRL_init>:
    1cdc:	43 e0       	ldi	r20, 0x03	; 3
    1cde:	68 ed       	ldi	r22, 0xD8	; 216
    1ce0:	80 e6       	ldi	r24, 0x60	; 96
    1ce2:	90 e0       	ldi	r25, 0x00	; 0
    1ce4:	0e 94 0e 24 	call	0x481c	; 0x481c <protected_write_io>
    1ce8:	80 91 63 00 	lds	r24, 0x0063	; 0x800063 <__TEXT_REGION_LENGTH__+0x7e0063>
    1cec:	80 fd       	sbrc	r24, 0
    1cee:	fc cf       	rjmp	.-8      	; 0x1ce8 <CLKCTRL_init+0xc>
    1cf0:	80 e0       	ldi	r24, 0x00	; 0
    1cf2:	08 95       	ret

00001cf4 <CPUINT_init>:
    1cf4:	80 e0       	ldi	r24, 0x00	; 0
    1cf6:	08 95       	ret

00001cf8 <mcu_init>:
	 * disables all peripherals to save power. Driver shall enable
	 * peripheral if used */

	/* Set all pins to low power mode */

	for (uint8_t i = 0; i < 8; i++) {
    1cf8:	80 e0       	ldi	r24, 0x00	; 0
    1cfa:	08 c0       	rjmp	.+16     	; 0x1d0c <mcu_init+0x14>
		*((uint8_t *)&PORTA + 0x10 + i) |= 1 << PORT_PULLUPEN_bp;
    1cfc:	e8 2f       	mov	r30, r24
    1cfe:	f0 e0       	ldi	r31, 0x00	; 0
    1d00:	e0 5f       	subi	r30, 0xF0	; 240
    1d02:	fb 4f       	sbci	r31, 0xFB	; 251
    1d04:	90 81       	ld	r25, Z
    1d06:	98 60       	ori	r25, 0x08	; 8
    1d08:	90 83       	st	Z, r25
	 * disables all peripherals to save power. Driver shall enable
	 * peripheral if used */

	/* Set all pins to low power mode */

	for (uint8_t i = 0; i < 8; i++) {
    1d0a:	8f 5f       	subi	r24, 0xFF	; 255
    1d0c:	88 30       	cpi	r24, 0x08	; 8
    1d0e:	b0 f3       	brcs	.-20     	; 0x1cfc <mcu_init+0x4>
    1d10:	80 e0       	ldi	r24, 0x00	; 0
    1d12:	08 c0       	rjmp	.+16     	; 0x1d24 <mcu_init+0x2c>
		*((uint8_t *)&PORTA + 0x10 + i) |= 1 << PORT_PULLUPEN_bp;
	}

	for (uint8_t i = 0; i < 8; i++) {
		*((uint8_t *)&PORTB + 0x10 + i) |= 1 << PORT_PULLUPEN_bp;
    1d14:	e8 2f       	mov	r30, r24
    1d16:	f0 e0       	ldi	r31, 0x00	; 0
    1d18:	e0 5d       	subi	r30, 0xD0	; 208
    1d1a:	fb 4f       	sbci	r31, 0xFB	; 251
    1d1c:	90 81       	ld	r25, Z
    1d1e:	98 60       	ori	r25, 0x08	; 8
    1d20:	90 83       	st	Z, r25

	for (uint8_t i = 0; i < 8; i++) {
		*((uint8_t *)&PORTA + 0x10 + i) |= 1 << PORT_PULLUPEN_bp;
	}

	for (uint8_t i = 0; i < 8; i++) {
    1d22:	8f 5f       	subi	r24, 0xFF	; 255
    1d24:	88 30       	cpi	r24, 0x08	; 8
    1d26:	b0 f3       	brcs	.-20     	; 0x1d14 <mcu_init+0x1c>
    1d28:	80 e0       	ldi	r24, 0x00	; 0
    1d2a:	08 c0       	rjmp	.+16     	; 0x1d3c <mcu_init+0x44>
		*((uint8_t *)&PORTB + 0x10 + i) |= 1 << PORT_PULLUPEN_bp;
	}

	for (uint8_t i = 0; i < 8; i++) {
		*((uint8_t *)&PORTC + 0x10 + i) |= 1 << PORT_PULLUPEN_bp;
    1d2c:	e8 2f       	mov	r30, r24
    1d2e:	f0 e0       	ldi	r31, 0x00	; 0
    1d30:	e0 5b       	subi	r30, 0xB0	; 176
    1d32:	fb 4f       	sbci	r31, 0xFB	; 251
    1d34:	90 81       	ld	r25, Z
    1d36:	98 60       	ori	r25, 0x08	; 8
    1d38:	90 83       	st	Z, r25

	for (uint8_t i = 0; i < 8; i++) {
		*((uint8_t *)&PORTB + 0x10 + i) |= 1 << PORT_PULLUPEN_bp;
	}

	for (uint8_t i = 0; i < 8; i++) {
    1d3a:	8f 5f       	subi	r24, 0xFF	; 255
    1d3c:	88 30       	cpi	r24, 0x08	; 8
    1d3e:	b0 f3       	brcs	.-20     	; 0x1d2c <mcu_init+0x34>
    1d40:	80 e0       	ldi	r24, 0x00	; 0
    1d42:	08 c0       	rjmp	.+16     	; 0x1d54 <mcu_init+0x5c>
		*((uint8_t *)&PORTC + 0x10 + i) |= 1 << PORT_PULLUPEN_bp;
	}

	for (uint8_t i = 0; i < 8; i++) {
		*((uint8_t *)&PORTD + 0x10 + i) |= 1 << PORT_PULLUPEN_bp;
    1d44:	e8 2f       	mov	r30, r24
    1d46:	f0 e0       	ldi	r31, 0x00	; 0
    1d48:	e0 59       	subi	r30, 0x90	; 144
    1d4a:	fb 4f       	sbci	r31, 0xFB	; 251
    1d4c:	90 81       	ld	r25, Z
    1d4e:	98 60       	ori	r25, 0x08	; 8
    1d50:	90 83       	st	Z, r25

	for (uint8_t i = 0; i < 8; i++) {
		*((uint8_t *)&PORTC + 0x10 + i) |= 1 << PORT_PULLUPEN_bp;
	}

	for (uint8_t i = 0; i < 8; i++) {
    1d52:	8f 5f       	subi	r24, 0xFF	; 255
    1d54:	88 30       	cpi	r24, 0x08	; 8
    1d56:	b0 f3       	brcs	.-20     	; 0x1d44 <mcu_init+0x4c>
    1d58:	80 e0       	ldi	r24, 0x00	; 0
    1d5a:	08 c0       	rjmp	.+16     	; 0x1d6c <mcu_init+0x74>
		*((uint8_t *)&PORTD + 0x10 + i) |= 1 << PORT_PULLUPEN_bp;
	}

	for (uint8_t i = 0; i < 8; i++) {
		*((uint8_t *)&PORTE + 0x10 + i) |= 1 << PORT_PULLUPEN_bp;
    1d5c:	e8 2f       	mov	r30, r24
    1d5e:	f0 e0       	ldi	r31, 0x00	; 0
    1d60:	e0 57       	subi	r30, 0x70	; 112
    1d62:	fb 4f       	sbci	r31, 0xFB	; 251
    1d64:	90 81       	ld	r25, Z
    1d66:	98 60       	ori	r25, 0x08	; 8
    1d68:	90 83       	st	Z, r25

	for (uint8_t i = 0; i < 8; i++) {
		*((uint8_t *)&PORTD + 0x10 + i) |= 1 << PORT_PULLUPEN_bp;
	}

	for (uint8_t i = 0; i < 8; i++) {
    1d6a:	8f 5f       	subi	r24, 0xFF	; 255
    1d6c:	88 30       	cpi	r24, 0x08	; 8
    1d6e:	b0 f3       	brcs	.-20     	; 0x1d5c <mcu_init+0x64>
    1d70:	80 e0       	ldi	r24, 0x00	; 0
    1d72:	08 c0       	rjmp	.+16     	; 0x1d84 <mcu_init+0x8c>
		*((uint8_t *)&PORTE + 0x10 + i) |= 1 << PORT_PULLUPEN_bp;
	}

	for (uint8_t i = 0; i < 8; i++) {
		*((uint8_t *)&PORTF + 0x10 + i) |= 1 << PORT_PULLUPEN_bp;
    1d74:	e8 2f       	mov	r30, r24
    1d76:	f0 e0       	ldi	r31, 0x00	; 0
    1d78:	e0 55       	subi	r30, 0x50	; 80
    1d7a:	fb 4f       	sbci	r31, 0xFB	; 251
    1d7c:	90 81       	ld	r25, Z
    1d7e:	98 60       	ori	r25, 0x08	; 8
    1d80:	90 83       	st	Z, r25

	for (uint8_t i = 0; i < 8; i++) {
		*((uint8_t *)&PORTE + 0x10 + i) |= 1 << PORT_PULLUPEN_bp;
	}

	for (uint8_t i = 0; i < 8; i++) {
    1d82:	8f 5f       	subi	r24, 0xFF	; 255
    1d84:	88 30       	cpi	r24, 0x08	; 8
    1d86:	b0 f3       	brcs	.-20     	; 0x1d74 <mcu_init+0x7c>
    1d88:	80 e0       	ldi	r24, 0x00	; 0
    1d8a:	08 c0       	rjmp	.+16     	; 0x1d9c <mcu_init+0xa4>
		*((uint8_t *)&PORTF + 0x10 + i) |= 1 << PORT_PULLUPEN_bp;
	}

	for (uint8_t i = 0; i < 8; i++) {
		*((uint8_t *)&PORTG + 0x10 + i) |= 1 << PORT_PULLUPEN_bp;
    1d8c:	e8 2f       	mov	r30, r24
    1d8e:	f0 e0       	ldi	r31, 0x00	; 0
    1d90:	e0 53       	subi	r30, 0x30	; 48
    1d92:	fb 4f       	sbci	r31, 0xFB	; 251
    1d94:	90 81       	ld	r25, Z
    1d96:	98 60       	ori	r25, 0x08	; 8
    1d98:	90 83       	st	Z, r25

	for (uint8_t i = 0; i < 8; i++) {
		*((uint8_t *)&PORTF + 0x10 + i) |= 1 << PORT_PULLUPEN_bp;
	}

	for (uint8_t i = 0; i < 8; i++) {
    1d9a:	8f 5f       	subi	r24, 0xFF	; 255
    1d9c:	88 30       	cpi	r24, 0x08	; 8
    1d9e:	b0 f3       	brcs	.-20     	; 0x1d8c <mcu_init+0x94>
		*((uint8_t *)&PORTG + 0x10 + i) |= 1 << PORT_PULLUPEN_bp;
	}
}
    1da0:	08 95       	ret

00001da2 <I2C_0_initialization>:
static inline void PORTF_set_pin_level(const uint8_t pin, const bool level)
{
	if (level == true) {
		VPORTF.OUT |= (1 << pin);
	} else {
		VPORTF.OUT &= ~(1 << pin);
    1da2:	85 b3       	in	r24, 0x15	; 21
    1da4:	87 7f       	andi	r24, 0xF7	; 247
    1da6:	85 bb       	out	0x15, r24	; 21
	switch (dir) {
	case PORT_DIR_IN:
		VPORTF.DIR &= ~(1 << pin);
		break;
	case PORT_DIR_OUT:
		VPORTF.DIR |= (1 << pin);
    1da8:	84 b3       	in	r24, 0x14	; 20
    1daa:	88 60       	ori	r24, 0x08	; 8
    1dac:	84 bb       	out	0x14, r24	; 20
	volatile uint8_t *port_pin_ctrl = ((uint8_t *)&PORTF + 0x10 + pin);

	if (pull_mode == PORT_PULL_UP) {
		*port_pin_ctrl |= PORT_PULLUPEN_bm;
	} else if (pull_mode == PORT_PULL_OFF) {
		*port_pin_ctrl &= ~PORT_PULLUPEN_bm;
    1dae:	e3 eb       	ldi	r30, 0xB3	; 179
    1db0:	f4 e0       	ldi	r31, 0x04	; 4
    1db2:	80 81       	ld	r24, Z
    1db4:	87 7f       	andi	r24, 0xF7	; 247
    1db6:	80 83       	st	Z, r24
	volatile uint8_t *port_pin_ctrl = ((uint8_t *)&PORTF + 0x10 + pin);

	if (inverted) {
		*port_pin_ctrl |= PORT_INVEN_bm;
	} else {
		*port_pin_ctrl &= ~PORT_INVEN_bm;
    1db8:	80 81       	ld	r24, Z
    1dba:	8f 77       	andi	r24, 0x7F	; 127
    1dbc:	80 83       	st	Z, r24
 */
static inline void PORTF_pin_set_isc(const uint8_t pin, const PORT_ISC_t isc)
{
	volatile uint8_t *port_pin_ctrl = ((uint8_t *)&PORTF + 0x10 + pin);

	*port_pin_ctrl = (*port_pin_ctrl & ~PORT_ISC_gm) | isc;
    1dbe:	80 81       	ld	r24, Z
    1dc0:	88 7f       	andi	r24, 0xF8	; 248
    1dc2:	80 83       	st	Z, r24
static inline void PORTF_set_pin_level(const uint8_t pin, const bool level)
{
	if (level == true) {
		VPORTF.OUT |= (1 << pin);
	} else {
		VPORTF.OUT &= ~(1 << pin);
    1dc4:	85 b3       	in	r24, 0x15	; 21
    1dc6:	8b 7f       	andi	r24, 0xFB	; 251
    1dc8:	85 bb       	out	0x15, r24	; 21
	switch (dir) {
	case PORT_DIR_IN:
		VPORTF.DIR &= ~(1 << pin);
		break;
	case PORT_DIR_OUT:
		VPORTF.DIR |= (1 << pin);
    1dca:	84 b3       	in	r24, 0x14	; 20
    1dcc:	84 60       	ori	r24, 0x04	; 4
    1dce:	84 bb       	out	0x14, r24	; 20
	volatile uint8_t *port_pin_ctrl = ((uint8_t *)&PORTF + 0x10 + pin);

	if (pull_mode == PORT_PULL_UP) {
		*port_pin_ctrl |= PORT_PULLUPEN_bm;
	} else if (pull_mode == PORT_PULL_OFF) {
		*port_pin_ctrl &= ~PORT_PULLUPEN_bm;
    1dd0:	e2 eb       	ldi	r30, 0xB2	; 178
    1dd2:	f4 e0       	ldi	r31, 0x04	; 4
    1dd4:	80 81       	ld	r24, Z
    1dd6:	87 7f       	andi	r24, 0xF7	; 247
    1dd8:	80 83       	st	Z, r24
	volatile uint8_t *port_pin_ctrl = ((uint8_t *)&PORTF + 0x10 + pin);

	if (inverted) {
		*port_pin_ctrl |= PORT_INVEN_bm;
	} else {
		*port_pin_ctrl &= ~PORT_INVEN_bm;
    1dda:	80 81       	ld	r24, Z
    1ddc:	8f 77       	andi	r24, 0x7F	; 127
    1dde:	80 83       	st	Z, r24
 */
static inline void PORTF_pin_set_isc(const uint8_t pin, const PORT_ISC_t isc)
{
	volatile uint8_t *port_pin_ctrl = ((uint8_t *)&PORTF + 0x10 + pin);

	*port_pin_ctrl = (*port_pin_ctrl & ~PORT_ISC_gm) | isc;
    1de0:	80 81       	ld	r24, Z
    1de2:	88 7f       	andi	r24, 0xF8	; 248
    1de4:	80 83       	st	Z, r24
	// <PORT_ISC_FALLING_gc"> Sense Falling Edge
	// <PORT_ISC_INPUT_DISABLE_gc"> Digital Input Buffer disabled
	// <PORT_ISC_LEVEL_gc"> Sense low Level
	PORT_ISC_INTDISABLE_gc);

	I2C_0_init();
    1de6:	0e 94 fe 12 	call	0x25fc	; 0x25fc <I2C_0_init>
    1dea:	08 95       	ret

00001dec <USART_1_initialization>:
//=================================================================================================
#ifdef Usart_1
void USART_1_initialization(void)			// USART 1 └╟ ╟╔└╗ ╝│┴ν╟╧░Ί ╖╣┴÷╜║┼═╕ο ├╩▒έ╚φ
{
	#if Usart_1 == 0
	PORTMUX.USARTROUTEA &= ~PORTMUX_USART10_bm;	// USART 1 ╝█,╝÷╜┼ : Pin PC0, PC1 ╖╬ ║ψ░ό
    1dec:	e0 ee       	ldi	r30, 0xE0	; 224
    1dee:	f5 e0       	ldi	r31, 0x05	; 5
    1df0:	82 81       	ldd	r24, Z+2	; 0x02
    1df2:	8b 7f       	andi	r24, 0xFB	; 251
    1df4:	82 83       	std	Z+2, r24	; 0x02
	PORTC.DIR |=  PIN0_bm;				// set pin 0 of	PORT C (TXd) as	output (PORT C (TXd)└╟ 0╣° ╟╔└╗ ├έ╖┬└╕╖╬ ╝│┴ν)
    1df6:	e0 e4       	ldi	r30, 0x40	; 64
    1df8:	f4 e0       	ldi	r31, 0x04	; 4
    1dfa:	80 81       	ld	r24, Z
    1dfc:	81 60       	ori	r24, 0x01	; 1
    1dfe:	80 83       	st	Z, r24
	PORTC.DIR &= ~PIN1_bm;				// set pin 1 of	PORT C (RXd) as	input  (PORT C (RXd)└╟ 1╣° ╟╔└╗ └╘╖┬└╕╖╬ ╝│┴ν)
    1e00:	80 81       	ld	r24, Z
    1e02:	8d 7f       	andi	r24, 0xFD	; 253
    1e04:	80 83       	st	Z, r24
	#elif Usart_1 == 1
	PORTMUX.USARTROUTEA |= PORTMUX_USART10_bm;	// USART 1 ╝█,╝÷╜┼ : Pin PC4, PC5 ╖╬ ║ψ░ό
	PORTC.DIR |=  PIN4_bm;				// set pin 4 of	PORT C (TXd) as	output (PORT C (TXd)└╟ 4╣° ╟╔└╗ ├έ╖┬└╕╖╬ ╝│┴ν)
	PORTC.DIR &= ~PIN5_bm;				// set pin 5 of	PORT C (RXd) as	input  (PORT C (RXd)└╟ 5╣° ╟╔└╗ └╘╖┬└╕╖╬ ╝│┴ν)
	#endif
	USART_1_init();
    1e06:	0e 94 ed 27 	call	0x4fda	; 0x4fda <USART_1_init>
    1e0a:	08 95       	ret

00001e0c <USART_3_initialization>:
//=================================================================================================
#ifdef Usart_3
void USART_3_initialization(void)			// USART 3 └╟ ╟╔└╗ ╝│┴ν╟╧░Ί ╖╣┴÷╜║┼═╕ο ├╩▒έ╚φ
{
	#if Usart_3 == 0
	PORTMUX.USARTROUTEA &= ~PORTMUX_USART30_bm;	// USART 3 ╝█,╝÷╜┼ : Pin PB0, PB1 ╖╬ ║ψ░ό
    1e0c:	e0 ee       	ldi	r30, 0xE0	; 224
    1e0e:	f5 e0       	ldi	r31, 0x05	; 5
    1e10:	82 81       	ldd	r24, Z+2	; 0x02
    1e12:	8f 7b       	andi	r24, 0xBF	; 191
    1e14:	82 83       	std	Z+2, r24	; 0x02
	PORTB.DIR |=  PIN0_bm;				// set pin 0 of	PORT B (TXd) as	output (PORT B (TXd)└╟ 0╣° ╟╔└╗ ├έ╖┬└╕╖╬ ╝│┴ν)
    1e16:	e0 e2       	ldi	r30, 0x20	; 32
    1e18:	f4 e0       	ldi	r31, 0x04	; 4
    1e1a:	80 81       	ld	r24, Z
    1e1c:	81 60       	ori	r24, 0x01	; 1
    1e1e:	80 83       	st	Z, r24
	PORTB.DIR &= ~PIN1_bm;				// set pin 1 of	PORT B (RXd) as	input  (PORT B (RXd)└╟ 1╣° ╟╔└╗ └╘╖┬└╕╖╬ ╝│┴ν)
    1e20:	80 81       	ld	r24, Z
    1e22:	8d 7f       	andi	r24, 0xFD	; 253
    1e24:	80 83       	st	Z, r24
	#elif Usart_3 == 1
	PORTMUX.USARTROUTEA |= PORTMUX_USART30_bm;	// USART 3 ╝█,╝÷╜┼ : Pin PB4, PB5 ╖╬ ║ψ░ό
	PORTB.DIR |=  PIN4_bm;				// set pin 4 of	PORT B (TXd) as output (PORT B (TXd)└╟ 4╣° ╟╔└╗ ├έ╖┬└╕╖╬ ╝│┴ν)
	PORTB.DIR &= ~PIN5_bm;				// set pin 5 of	PORT B (RXd) as input  (PORT B (RXd)└╟ 5╣° ╟╔└╗ └╘╖┬└╕╖╬ ╝│┴ν)
	#endif
	USART_3_init();
    1e26:	0e 94 02 28 	call	0x5004	; 0x5004 <USART_3_init>
    1e2a:	08 95       	ret

00001e2c <ADC_initialization>:

//=================================================================================================
#ifdef ADC_SET
void ADC_initialization(void)
{
	ADC0.MUXPOS = ADC_MUXPOS_AIN0_gc;		// ADC input pin 0
    1e2c:	10 92 08 06 	sts	0x0608, r1	; 0x800608 <__TEXT_REGION_LENGTH__+0x7e0608>

	/* Disable interrupt and digital input buffer on PD0 */
	PORTD.PIN0CTRL &= ~PORT_ISC_gm;
    1e30:	e0 e6       	ldi	r30, 0x60	; 96
    1e32:	f4 e0       	ldi	r31, 0x04	; 4
    1e34:	80 89       	ldd	r24, Z+16	; 0x10
    1e36:	88 7f       	andi	r24, 0xF8	; 248
    1e38:	80 8b       	std	Z+16, r24	; 0x10
	PORTD.PIN0CTRL |= PORT_ISC_INPUT_DISABLE_gc;
    1e3a:	80 89       	ldd	r24, Z+16	; 0x10
    1e3c:	84 60       	ori	r24, 0x04	; 4
    1e3e:	80 8b       	std	Z+16, r24	; 0x10

	/* Disable pull-up resistor */
	PORTD.PIN0CTRL &= ~PORT_PULLUPEN_bm;
    1e40:	80 89       	ldd	r24, Z+16	; 0x10
    1e42:	87 7f       	andi	r24, 0xF7	; 247
    1e44:	80 8b       	std	Z+16, r24	; 0x10
	
	ADC_init();
    1e46:	0e 94 3b 0e 	call	0x1c76	; 0x1c76 <ADC_init>
    1e4a:	08 95       	ret

00001e4c <system_init>:
#endif

//=================================================================================================
void system_init()
{
	mcu_init();
    1e4c:	0e 94 7c 0e 	call	0x1cf8	; 0x1cf8 <mcu_init>
//-------------------------------------------------------------------------------------------------
	CLKCTRL_init();
    1e50:	0e 94 6e 0e 	call	0x1cdc	; 0x1cdc <CLKCTRL_init>
#ifdef Usart_0
	USART_0_initialization();			// USART 0 └╟ ╟╔└╗ ╝│┴ν╟╧░Ί ╖╣┴÷╜║┼═╕ο ├╩▒έ╚φ
#endif
//-------------------------------------------------------------------------------------------------
#ifdef Usart_1
	USART_1_initialization();			// USART 1 └╟ ╟╔└╗ ╝│┴ν╟╧░Ί ╖╣┴÷╜║┼═╕ο ├╩▒έ╚φ
    1e54:	0e 94 f6 0e 	call	0x1dec	; 0x1dec <USART_1_initialization>
#ifdef Usart_2
	USART_2_initialization();			// USART 2 └╟ ╟╔└╗ ╝│┴ν╟╧░Ί ╖╣┴÷╜║┼═╕ο ├╩▒έ╚φ
#endif
//-------------------------------------------------------------------------------------------------
#ifdef Usart_3
 	USART_3_initialization();			// USART 3 └╟ ╟╔└╗ ╝│┴ν╟╧░Ί ╖╣┴÷╜║┼═╕ο ├╩▒έ╚φ
    1e58:	0e 94 06 0f 	call	0x1e0c	; 0x1e0c <USART_3_initialization>
#ifdef Usart_5
 	USART_5_initialization();			// USART 5 └╟ ╟╔└╗ ╝│┴ν╟╧░Ί ╖╣┴÷╜║┼═╕ο ├╩▒έ╚φ
#endif
//-------------------------------------------------------------------------------------------------
#ifdef ADC_SET
	ADC_initialization();				// ACD └╟ ╟╔└╗ ╝│┴ν╟╧░Ί ╖╣┴÷╜║┼═╕ο ├╩▒έ╚φ
    1e5c:	0e 94 16 0f 	call	0x1e2c	; 0x1e2c <ADC_initialization>
//-------------------------------------------------------------------------------------------------
#ifdef PWM_SET
	PWM_0_initialization();					// PWM0 └╟ ╟╔└╗ ╝│┴ν╟╧░Ί ╖╣┴÷╜║┼═╕ο ├╩▒έ╚φ
#endif
//-------------------------------------------------------------------------------------------------
	SLPCTRL_init();
    1e60:	0e 94 df 27 	call	0x4fbe	; 0x4fbe <SLPCTRL_init>
//-------------------------------------------------------------------------------------------------
	CPUINT_init();
    1e64:	0e 94 7a 0e 	call	0x1cf4	; 0x1cf4 <CPUINT_init>
#ifdef Timer_0
	TIMER_0_init();
#endif
//-------------------------------------------------------------------------------------------------
#ifdef Timer_1
	TIMER_1_init();
    1e68:	0e 94 e1 27 	call	0x4fc2	; 0x4fc2 <TIMER_1_init>
#endif
//-------------------------------------------------------------------------------------------------
	BOD_init();
    1e6c:	0e 94 6a 0e 	call	0x1cd4	; 0x1cd4 <BOD_init>
//-------------------------------------------------------------------------------------------------
	WDT_init();
    1e70:	0e 94 3f 28 	call	0x507e	; 0x507e <WDT_init>
//-------------------------------------------------------------------------------------------------
	I2C_0_initialization();
    1e74:	0e 94 d1 0e 	call	0x1da2	; 0x1da2 <I2C_0_initialization>
    1e78:	08 95       	ret

00001e7a <ee_read_byte>:
    1e7a:	81 15       	cp	r24, r1
    1e7c:	22 e0       	ldi	r18, 0x02	; 2
    1e7e:	92 07       	cpc	r25, r18
    1e80:	10 f0       	brcs	.+4      	; 0x1e86 <ee_read_byte+0xc>
    1e82:	8f ef       	ldi	r24, 0xFF	; 255
    1e84:	91 e0       	ldi	r25, 0x01	; 1
    1e86:	fc 01       	movw	r30, r24
    1e88:	fc 5e       	subi	r31, 0xEC	; 236
    1e8a:	80 81       	ld	r24, Z
    1e8c:	08 95       	ret

00001e8e <ee_read_word>:
    1e8e:	8f 3f       	cpi	r24, 0xFF	; 255
    1e90:	21 e0       	ldi	r18, 0x01	; 1
    1e92:	92 07       	cpc	r25, r18
    1e94:	10 f0       	brcs	.+4      	; 0x1e9a <ee_read_word+0xc>
    1e96:	8e ef       	ldi	r24, 0xFE	; 254
    1e98:	91 e0       	ldi	r25, 0x01	; 1
    1e9a:	fc 01       	movw	r30, r24
    1e9c:	fc 5e       	subi	r31, 0xEC	; 236
    1e9e:	80 81       	ld	r24, Z
    1ea0:	91 81       	ldd	r25, Z+1	; 0x01
    1ea2:	08 95       	ret

00001ea4 <ee_read_dword>:
    1ea4:	8d 3f       	cpi	r24, 0xFD	; 253
    1ea6:	21 e0       	ldi	r18, 0x01	; 1
    1ea8:	92 07       	cpc	r25, r18
    1eaa:	10 f0       	brcs	.+4      	; 0x1eb0 <ee_read_dword+0xc>
    1eac:	8c ef       	ldi	r24, 0xFC	; 252
    1eae:	91 e0       	ldi	r25, 0x01	; 1
    1eb0:	fc 01       	movw	r30, r24
    1eb2:	fc 5e       	subi	r31, 0xEC	; 236
    1eb4:	60 81       	ld	r22, Z
    1eb6:	71 81       	ldd	r23, Z+1	; 0x01
    1eb8:	82 81       	ldd	r24, Z+2	; 0x02
    1eba:	93 81       	ldd	r25, Z+3	; 0x03
    1ebc:	08 95       	ret

00001ebe <ee_write_byte>:
    1ebe:	1f 93       	push	r17
    1ec0:	cf 93       	push	r28
    1ec2:	df 93       	push	r29
    1ec4:	9c 01       	movw	r18, r24
    1ec6:	21 15       	cp	r18, r1
    1ec8:	82 e0       	ldi	r24, 0x02	; 2
    1eca:	38 07       	cpc	r19, r24
    1ecc:	b0 f4       	brcc	.+44     	; 0x1efa <ee_write_byte+0x3c>
    1ece:	90 91 02 10 	lds	r25, 0x1002	; 0x801002 <__TEXT_REGION_LENGTH__+0x7e1002>
    1ed2:	93 70       	andi	r25, 0x03	; 3
    1ed4:	e1 f7       	brne	.-8      	; 0x1ece <ee_write_byte+0x10>
    1ed6:	16 2f       	mov	r17, r22
    1ed8:	e9 01       	movw	r28, r18
    1eda:	43 e1       	ldi	r20, 0x13	; 19
    1edc:	6d e9       	ldi	r22, 0x9D	; 157
    1ede:	80 e0       	ldi	r24, 0x00	; 0
    1ee0:	90 e1       	ldi	r25, 0x10	; 16
    1ee2:	0e 94 0e 24 	call	0x481c	; 0x481c <protected_write_io>
    1ee6:	dc 5e       	subi	r29, 0xEC	; 236
    1ee8:	18 83       	st	Y, r17
    1eea:	40 e0       	ldi	r20, 0x00	; 0
    1eec:	6d e9       	ldi	r22, 0x9D	; 157
    1eee:	80 e0       	ldi	r24, 0x00	; 0
    1ef0:	90 e1       	ldi	r25, 0x10	; 16
    1ef2:	0e 94 0e 24 	call	0x481c	; 0x481c <protected_write_io>
    1ef6:	81 e0       	ldi	r24, 0x01	; 1
    1ef8:	01 c0       	rjmp	.+2      	; 0x1efc <ee_write_byte+0x3e>
    1efa:	80 e0       	ldi	r24, 0x00	; 0
    1efc:	df 91       	pop	r29
    1efe:	cf 91       	pop	r28
    1f00:	1f 91       	pop	r17
    1f02:	08 95       	ret

00001f04 <ee_write_word>:
    1f04:	cf 92       	push	r12
    1f06:	df 92       	push	r13
    1f08:	ef 92       	push	r14
    1f0a:	ff 92       	push	r15
    1f0c:	cf 93       	push	r28
    1f0e:	df 93       	push	r29
    1f10:	8f 3f       	cpi	r24, 0xFF	; 255
    1f12:	21 e0       	ldi	r18, 0x01	; 1
    1f14:	92 07       	cpc	r25, r18
    1f16:	58 f4       	brcc	.+22     	; 0x1f2e <ee_write_word+0x2a>
    1f18:	ec 01       	movw	r28, r24
    1f1a:	6b 01       	movw	r12, r22
    1f1c:	0e 94 5f 0f 	call	0x1ebe	; 0x1ebe <ee_write_byte>
    1f20:	6d 2d       	mov	r22, r13
    1f22:	ce 01       	movw	r24, r28
    1f24:	01 96       	adiw	r24, 0x01	; 1
    1f26:	0e 94 5f 0f 	call	0x1ebe	; 0x1ebe <ee_write_byte>
    1f2a:	81 e0       	ldi	r24, 0x01	; 1
    1f2c:	01 c0       	rjmp	.+2      	; 0x1f30 <ee_write_word+0x2c>
    1f2e:	80 e0       	ldi	r24, 0x00	; 0
    1f30:	df 91       	pop	r29
    1f32:	cf 91       	pop	r28
    1f34:	ff 90       	pop	r15
    1f36:	ef 90       	pop	r14
    1f38:	df 90       	pop	r13
    1f3a:	cf 90       	pop	r12
    1f3c:	08 95       	ret

00001f3e <ee_write_dword>:
    1f3e:	ff 92       	push	r15
    1f40:	0f 93       	push	r16
    1f42:	1f 93       	push	r17
    1f44:	cf 93       	push	r28
    1f46:	df 93       	push	r29
    1f48:	8d 3f       	cpi	r24, 0xFD	; 253
    1f4a:	21 e0       	ldi	r18, 0x01	; 1
    1f4c:	92 07       	cpc	r25, r18
    1f4e:	c0 f4       	brcc	.+48     	; 0x1f80 <ee_write_dword+0x42>
    1f50:	17 2f       	mov	r17, r23
    1f52:	06 2f       	mov	r16, r22
    1f54:	f5 2e       	mov	r15, r21
    1f56:	64 2f       	mov	r22, r20
    1f58:	ec 01       	movw	r28, r24
    1f5a:	0e 94 5f 0f 	call	0x1ebe	; 0x1ebe <ee_write_byte>
    1f5e:	6f 2d       	mov	r22, r15
    1f60:	ce 01       	movw	r24, r28
    1f62:	01 96       	adiw	r24, 0x01	; 1
    1f64:	0e 94 5f 0f 	call	0x1ebe	; 0x1ebe <ee_write_byte>
    1f68:	60 2f       	mov	r22, r16
    1f6a:	ce 01       	movw	r24, r28
    1f6c:	02 96       	adiw	r24, 0x02	; 2
    1f6e:	0e 94 5f 0f 	call	0x1ebe	; 0x1ebe <ee_write_byte>
    1f72:	61 2f       	mov	r22, r17
    1f74:	ce 01       	movw	r24, r28
    1f76:	03 96       	adiw	r24, 0x03	; 3
    1f78:	0e 94 5f 0f 	call	0x1ebe	; 0x1ebe <ee_write_byte>
    1f7c:	81 e0       	ldi	r24, 0x01	; 1
    1f7e:	01 c0       	rjmp	.+2      	; 0x1f82 <ee_write_dword+0x44>
    1f80:	80 e0       	ldi	r24, 0x00	; 0
    1f82:	df 91       	pop	r29
    1f84:	cf 91       	pop	r28
    1f86:	1f 91       	pop	r17
    1f88:	0f 91       	pop	r16
    1f8a:	ff 90       	pop	r15
    1f8c:	08 95       	ret

00001f8e <Gukbun_Set>:
#include <gateway.h> 

//=================================================================================================
void Gukbun_Set(void)								// ░╘└╠╞χ ┐■└╠ ▒╣╣° ╝│┴ν
{
	FND_Value_Data(0, 2, 12);						// FND 0 ~ 2 FND_OFF
    1f8e:	4c e0       	ldi	r20, 0x0C	; 12
    1f90:	62 e0       	ldi	r22, 0x02	; 2
    1f92:	80 e0       	ldi	r24, 0x00	; 0
    1f94:	0e 94 ca 05 	call	0xb94	; 0xb94 <FND_Value_Data>

	while(SET.Menu && SET.Select)						// ╕▐┤║ ┐═ ╝▒┼├ └╠ ╕Ώ╡╬ 1 └╠╕ώ ╣▌║╣
    1f98:	42 c0       	rjmp	.+132    	; 0x201e <Gukbun_Set+0x90>
	{
		DIGIT[0][3] = FND_G;						// FND 0 ┐κ G-no (▒╣╣°)╟ξ╜├
    1f9a:	e3 ec       	ldi	r30, 0xC3	; 195
    1f9c:	f0 e4       	ldi	r31, 0x40	; 64
    1f9e:	8e eb       	ldi	r24, 0xBE	; 190
    1fa0:	83 83       	std	Z+3, r24	; 0x03
		DIGIT[0][2] = FND_MINUS;
    1fa2:	82 e0       	ldi	r24, 0x02	; 2
    1fa4:	82 83       	std	Z+2, r24	; 0x02
		DIGIT[0][1] = FND_n;
    1fa6:	8a e2       	ldi	r24, 0x2A	; 42
    1fa8:	81 83       	std	Z+1, r24	; 0x01
		DIGIT[0][0] = FND_o;
    1faa:	8a e3       	ldi	r24, 0x3A	; 58
    1fac:	80 83       	st	Z, r24

		DIGIT[1][1] = fnd_tbl[Gukbun / 10];				// FND 1 ┐κ ▒╣╣° ╣°╚μ ╟ξ╜├
    1fae:	20 91 d1 4a 	lds	r18, 0x4AD1	; 0x804ad1 <Gukbun>
    1fb2:	8d ec       	ldi	r24, 0xCD	; 205
    1fb4:	28 9f       	mul	r18, r24
    1fb6:	81 2d       	mov	r24, r1
    1fb8:	11 24       	eor	r1, r1
    1fba:	86 95       	lsr	r24
    1fbc:	86 95       	lsr	r24
    1fbe:	86 95       	lsr	r24
    1fc0:	a8 2f       	mov	r26, r24
    1fc2:	b0 e0       	ldi	r27, 0x00	; 0
    1fc4:	a4 57       	subi	r26, 0x74	; 116
    1fc6:	bf 4b       	sbci	r27, 0xBF	; 191
    1fc8:	9c 91       	ld	r25, X
    1fca:	95 83       	std	Z+5, r25	; 0x05
		DIGIT[1][0] = fnd_tbl[Gukbun % 10];
    1fcc:	88 0f       	add	r24, r24
    1fce:	98 2f       	mov	r25, r24
    1fd0:	99 0f       	add	r25, r25
    1fd2:	99 0f       	add	r25, r25
    1fd4:	89 0f       	add	r24, r25
    1fd6:	a2 2f       	mov	r26, r18
    1fd8:	a8 1b       	sub	r26, r24
    1fda:	b0 e0       	ldi	r27, 0x00	; 0
    1fdc:	a4 57       	subi	r26, 0x74	; 116
    1fde:	bf 4b       	sbci	r27, 0xBF	; 191
    1fe0:	8c 91       	ld	r24, X
    1fe2:	84 83       	std	Z+4, r24	; 0x04

		if(KEY.Buff)							// Key └╘╖┬└╠ └╓└╕╕ώ
    1fe4:	80 91 d6 4a 	lds	r24, 0x4AD6	; 0x804ad6 <KEY+0x1>
    1fe8:	88 23       	and	r24, r24
    1fea:	b9 f0       	breq	.+46     	; 0x201a <Gukbun_Set+0x8c>
		{
			if     (KEY.Key == 1 && Gukbun < 60) {Gukbun++; KEY.Key = 0;}	// ╛≈  ╣÷╞░ └╠╕ώ ▒╣╣° 60▒Ό┴÷ ┴Ϋ░κ
    1fec:	80 91 d7 4a 	lds	r24, 0x4AD7	; 0x804ad7 <KEY+0x2>
    1ff0:	81 30       	cpi	r24, 0x01	; 1
    1ff2:	41 f4       	brne	.+16     	; 0x2004 <Gukbun_Set+0x76>
    1ff4:	2c 33       	cpi	r18, 0x3C	; 60
    1ff6:	30 f4       	brcc	.+12     	; 0x2004 <Gukbun_Set+0x76>
    1ff8:	2f 5f       	subi	r18, 0xFF	; 255
    1ffa:	20 93 d1 4a 	sts	0x4AD1, r18	; 0x804ad1 <Gukbun>
    1ffe:	10 92 d7 4a 	sts	0x4AD7, r1	; 0x804ad7 <KEY+0x2>
    2002:	0b c0       	rjmp	.+22     	; 0x201a <Gukbun_Set+0x8c>
			else if(KEY.Key == 3 && Gukbun > 1)  {Gukbun--; KEY.Key = 0;}	// ┤┘┐Ό╣÷╞░ └╠╕ώ ▒╣╣°  0▒Ό┴÷ ░ρ╝╥
    2004:	80 91 d7 4a 	lds	r24, 0x4AD7	; 0x804ad7 <KEY+0x2>
    2008:	83 30       	cpi	r24, 0x03	; 3
    200a:	39 f4       	brne	.+14     	; 0x201a <Gukbun_Set+0x8c>
    200c:	22 30       	cpi	r18, 0x02	; 2
    200e:	28 f0       	brcs	.+10     	; 0x201a <Gukbun_Set+0x8c>
    2010:	21 50       	subi	r18, 0x01	; 1
    2012:	20 93 d1 4a 	sts	0x4AD1, r18	; 0x804ad1 <Gukbun>
    2016:	10 92 d7 4a 	sts	0x4AD7, r1	; 0x804ad7 <KEY+0x2>
		}
		wdt_reset();							// ┐÷─κ╡╢ ╕χ╝┬
    201a:	0e 94 78 0c 	call	0x18f0	; 0x18f0 <wdt_reset>
//=================================================================================================
void Gukbun_Set(void)								// ░╘└╠╞χ ┐■└╠ ▒╣╣° ╝│┴ν
{
	FND_Value_Data(0, 2, 12);						// FND 0 ~ 2 FND_OFF

	while(SET.Menu && SET.Select)						// ╕▐┤║ ┐═ ╝▒┼├ └╠ ╕Ώ╡╬ 1 └╠╕ώ ╣▌║╣
    201e:	80 91 8f 4a 	lds	r24, 0x4A8F	; 0x804a8f <SET>
    2022:	88 23       	and	r24, r24
    2024:	21 f0       	breq	.+8      	; 0x202e <Gukbun_Set+0xa0>
    2026:	80 91 90 4a 	lds	r24, 0x4A90	; 0x804a90 <SET+0x1>
    202a:	81 11       	cpse	r24, r1
    202c:	b6 cf       	rjmp	.-148    	; 0x1f9a <Gukbun_Set+0xc>
			if     (KEY.Key == 1 && Gukbun < 60) {Gukbun++; KEY.Key = 0;}	// ╛≈  ╣÷╞░ └╠╕ώ ▒╣╣° 60▒Ό┴÷ ┴Ϋ░κ
			else if(KEY.Key == 3 && Gukbun > 1)  {Gukbun--; KEY.Key = 0;}	// ┤┘┐Ό╣÷╞░ └╠╕ώ ▒╣╣°  0▒Ό┴÷ ░ρ╝╥
		}
		wdt_reset();							// ┐÷─κ╡╢ ╕χ╝┬
	}
	ee_write_byte(Gateway_Gukbun_Addr, Gukbun);				// ▒╣╣° ╣°╚μ╕ο EEPROM ┐κ └·└ί
    202e:	60 91 d1 4a 	lds	r22, 0x4AD1	; 0x804ad1 <Gukbun>
    2032:	81 e0       	ldi	r24, 0x01	; 1
    2034:	90 e0       	ldi	r25, 0x00	; 0
    2036:	0e 94 5f 0f 	call	0x1ebe	; 0x1ebe <ee_write_byte>
    203a:	08 95       	ret

0000203c <Gwid_Set>:
}

//=================================================================================================
void Gwid_Set(void)								// ░╘└╠╞χ ┐■└╠ ID ╝│┴ν
{
	FND_Value_Data(0, 2, 12);						// FND 0 ~ 2 FND_OFF
    203c:	4c e0       	ldi	r20, 0x0C	; 12
    203e:	62 e0       	ldi	r22, 0x02	; 2
    2040:	80 e0       	ldi	r24, 0x00	; 0
    2042:	0e 94 ca 05 	call	0xb94	; 0xb94 <FND_Value_Data>

	while(SET.Menu && SET.Select)						// ╕▐┤║ ┐═ ╝▒┼├ └╠ ╕Ώ╡╬ 1 └╠╕ώ ╣▌║╣
    2046:	42 c0       	rjmp	.+132    	; 0x20cc <Gwid_Set+0x90>
	{
		DIGIT[0][3] = FND_G;						// FND 0 ┐κ G-Id (▒╣╣°)╟ξ╜├
    2048:	e3 ec       	ldi	r30, 0xC3	; 195
    204a:	f0 e4       	ldi	r31, 0x40	; 64
    204c:	8e eb       	ldi	r24, 0xBE	; 190
    204e:	83 83       	std	Z+3, r24	; 0x03
		DIGIT[0][2] = FND_MINUS;
    2050:	82 e0       	ldi	r24, 0x02	; 2
    2052:	82 83       	std	Z+2, r24	; 0x02
		DIGIT[0][1] = FND_I;
    2054:	80 e6       	ldi	r24, 0x60	; 96
    2056:	81 83       	std	Z+1, r24	; 0x01
		DIGIT[0][0] = FND_d;
    2058:	8a e7       	ldi	r24, 0x7A	; 122
    205a:	80 83       	st	Z, r24

		DIGIT[1][1] = fnd_tbl[Gwid / 10];				// FND 1 ┐κ ░╘└╠╞χ ┐■└╠ ID ╟ξ╜├
    205c:	20 91 db 4a 	lds	r18, 0x4ADB	; 0x804adb <Gwid>
    2060:	8d ec       	ldi	r24, 0xCD	; 205
    2062:	28 9f       	mul	r18, r24
    2064:	81 2d       	mov	r24, r1
    2066:	11 24       	eor	r1, r1
    2068:	86 95       	lsr	r24
    206a:	86 95       	lsr	r24
    206c:	86 95       	lsr	r24
    206e:	a8 2f       	mov	r26, r24
    2070:	b0 e0       	ldi	r27, 0x00	; 0
    2072:	a4 57       	subi	r26, 0x74	; 116
    2074:	bf 4b       	sbci	r27, 0xBF	; 191
    2076:	9c 91       	ld	r25, X
    2078:	95 83       	std	Z+5, r25	; 0x05
		DIGIT[1][0] = fnd_tbl[Gwid % 10];
    207a:	88 0f       	add	r24, r24
    207c:	98 2f       	mov	r25, r24
    207e:	99 0f       	add	r25, r25
    2080:	99 0f       	add	r25, r25
    2082:	89 0f       	add	r24, r25
    2084:	a2 2f       	mov	r26, r18
    2086:	a8 1b       	sub	r26, r24
    2088:	b0 e0       	ldi	r27, 0x00	; 0
    208a:	a4 57       	subi	r26, 0x74	; 116
    208c:	bf 4b       	sbci	r27, 0xBF	; 191
    208e:	8c 91       	ld	r24, X
    2090:	84 83       	std	Z+4, r24	; 0x04

		if(KEY.Buff)							// Key └╘╖┬└╠ └╓└╕╕ώ
    2092:	80 91 d6 4a 	lds	r24, 0x4AD6	; 0x804ad6 <KEY+0x1>
    2096:	88 23       	and	r24, r24
    2098:	b9 f0       	breq	.+46     	; 0x20c8 <Gwid_Set+0x8c>
		{
			if     (KEY.Key == 1 && Gwid < 60) {Gwid++; KEY.Key = 0;}	// ╛≈  ╣÷╞░ └╠╕ώ ID 60▒Ό┴÷ ┴Ϋ░κ
    209a:	80 91 d7 4a 	lds	r24, 0x4AD7	; 0x804ad7 <KEY+0x2>
    209e:	81 30       	cpi	r24, 0x01	; 1
    20a0:	41 f4       	brne	.+16     	; 0x20b2 <Gwid_Set+0x76>
    20a2:	2c 33       	cpi	r18, 0x3C	; 60
    20a4:	30 f4       	brcc	.+12     	; 0x20b2 <Gwid_Set+0x76>
    20a6:	2f 5f       	subi	r18, 0xFF	; 255
    20a8:	20 93 db 4a 	sts	0x4ADB, r18	; 0x804adb <Gwid>
    20ac:	10 92 d7 4a 	sts	0x4AD7, r1	; 0x804ad7 <KEY+0x2>
    20b0:	0b c0       	rjmp	.+22     	; 0x20c8 <Gwid_Set+0x8c>
			else if(KEY.Key == 3 && Gwid > 1)  {Gwid--; KEY.Key = 0;}	// ┤┘┐Ό╣÷╞░ └╠╕ώ ID  0▒Ό┴÷ ░ρ╝╥
    20b2:	80 91 d7 4a 	lds	r24, 0x4AD7	; 0x804ad7 <KEY+0x2>
    20b6:	83 30       	cpi	r24, 0x03	; 3
    20b8:	39 f4       	brne	.+14     	; 0x20c8 <Gwid_Set+0x8c>
    20ba:	22 30       	cpi	r18, 0x02	; 2
    20bc:	28 f0       	brcs	.+10     	; 0x20c8 <Gwid_Set+0x8c>
    20be:	21 50       	subi	r18, 0x01	; 1
    20c0:	20 93 db 4a 	sts	0x4ADB, r18	; 0x804adb <Gwid>
    20c4:	10 92 d7 4a 	sts	0x4AD7, r1	; 0x804ad7 <KEY+0x2>
		}
		wdt_reset();							// ┐÷─κ╡╢ ╕χ╝┬
    20c8:	0e 94 78 0c 	call	0x18f0	; 0x18f0 <wdt_reset>
//=================================================================================================
void Gwid_Set(void)								// ░╘└╠╞χ ┐■└╠ ID ╝│┴ν
{
	FND_Value_Data(0, 2, 12);						// FND 0 ~ 2 FND_OFF

	while(SET.Menu && SET.Select)						// ╕▐┤║ ┐═ ╝▒┼├ └╠ ╕Ώ╡╬ 1 └╠╕ώ ╣▌║╣
    20cc:	80 91 8f 4a 	lds	r24, 0x4A8F	; 0x804a8f <SET>
    20d0:	88 23       	and	r24, r24
    20d2:	21 f0       	breq	.+8      	; 0x20dc <Gwid_Set+0xa0>
    20d4:	80 91 90 4a 	lds	r24, 0x4A90	; 0x804a90 <SET+0x1>
    20d8:	81 11       	cpse	r24, r1
    20da:	b6 cf       	rjmp	.-148    	; 0x2048 <Gwid_Set+0xc>
			if     (KEY.Key == 1 && Gwid < 60) {Gwid++; KEY.Key = 0;}	// ╛≈  ╣÷╞░ └╠╕ώ ID 60▒Ό┴÷ ┴Ϋ░κ
			else if(KEY.Key == 3 && Gwid > 1)  {Gwid--; KEY.Key = 0;}	// ┤┘┐Ό╣÷╞░ └╠╕ώ ID  0▒Ό┴÷ ░ρ╝╥
		}
		wdt_reset();							// ┐÷─κ╡╢ ╕χ╝┬
	}
	ee_write_byte(Gateway_GWID_Addr, Gwid);					// ░╘└╠╞χ ┐■└╠ ID ╕ο EEPROM ┐κ └·└ί
    20dc:	60 91 db 4a 	lds	r22, 0x4ADB	; 0x804adb <Gwid>
    20e0:	82 e0       	ldi	r24, 0x02	; 2
    20e2:	90 e0       	ldi	r25, 0x00	; 0
    20e4:	0e 94 5f 0f 	call	0x1ebe	; 0x1ebe <ee_write_byte>
    20e8:	08 95       	ret

000020ea <Gateway_Set>:
}

//=================================================================================================
void Gateway_Set(void)								// ░╘└╠╞χ ┐■└╠ ╝│┴ν
{
    20ea:	cf 93       	push	r28
	uint8_t count = 1;							// ─τ┐Ό╞χ ║ψ╝÷ ├╩▒έ╚φ
	SET.Select = 0;								// Select ╣÷╞░ ├╩▒έ╚φ
    20ec:	10 92 90 4a 	sts	0x4A90, r1	; 0x804a90 <SET+0x1>

	FND_Value_Data(0, 2, 12);						// FND 0 ~ 2 FND_OFF
    20f0:	4c e0       	ldi	r20, 0x0C	; 12
    20f2:	62 e0       	ldi	r22, 0x02	; 2
    20f4:	80 e0       	ldi	r24, 0x00	; 0
    20f6:	0e 94 ca 05 	call	0xb94	; 0xb94 <FND_Value_Data>
}

//=================================================================================================
void Gateway_Set(void)								// ░╘└╠╞χ ┐■└╠ ╝│┴ν
{
	uint8_t count = 1;							// ─τ┐Ό╞χ ║ψ╝÷ ├╩▒έ╚φ
    20fa:	c1 e0       	ldi	r28, 0x01	; 1
	SET.Select = 0;								// Select ╣÷╞░ ├╩▒έ╚φ

	FND_Value_Data(0, 2, 12);						// FND 0 ~ 2 FND_OFF
	
	while(SET.Menu)								// ╕▐┤║░κ 1 └╠╕ώ ╣▌║╣
    20fc:	8b c0       	rjmp	.+278    	; 0x2214 <Gateway_Set+0x12a>
	{
		if(KEY.Buff)							// Key └╘╖┬└╠ └╓└╕╕ώ
    20fe:	80 91 d6 4a 	lds	r24, 0x4AD6	; 0x804ad6 <KEY+0x1>
    2102:	88 23       	and	r24, r24
    2104:	99 f0       	breq	.+38     	; 0x212c <Gateway_Set+0x42>
		{
			if     (KEY.Key == 1 && count < 3) {count++; KEY.Key = 0;}	// ╛≈  ╣÷╞░ └╠╕ώ Count ┴Ϋ░κ
    2106:	80 91 d7 4a 	lds	r24, 0x4AD7	; 0x804ad7 <KEY+0x2>
    210a:	81 30       	cpi	r24, 0x01	; 1
    210c:	31 f4       	brne	.+12     	; 0x211a <Gateway_Set+0x30>
    210e:	c3 30       	cpi	r28, 0x03	; 3
    2110:	20 f4       	brcc	.+8      	; 0x211a <Gateway_Set+0x30>
    2112:	cf 5f       	subi	r28, 0xFF	; 255
    2114:	10 92 d7 4a 	sts	0x4AD7, r1	; 0x804ad7 <KEY+0x2>
    2118:	09 c0       	rjmp	.+18     	; 0x212c <Gateway_Set+0x42>
			else if(KEY.Key == 3 && count > 0) {count--; KEY.Key = 0;}	// ┤┘┐Ό╣÷╞░ └╠╕ώ Count ░ρ╝╥
    211a:	80 91 d7 4a 	lds	r24, 0x4AD7	; 0x804ad7 <KEY+0x2>
    211e:	83 30       	cpi	r24, 0x03	; 3
    2120:	29 f4       	brne	.+10     	; 0x212c <Gateway_Set+0x42>
    2122:	cc 23       	and	r28, r28
    2124:	19 f0       	breq	.+6      	; 0x212c <Gateway_Set+0x42>
    2126:	c1 50       	subi	r28, 0x01	; 1
    2128:	10 92 d7 4a 	sts	0x4AD7, r1	; 0x804ad7 <KEY+0x2>
		}
		DIGIT[2][0] = fnd_tbl[count];					// FND 2.0 ┐κ Count ╟ξ╜├
    212c:	ec 2f       	mov	r30, r28
    212e:	f0 e0       	ldi	r31, 0x00	; 0
    2130:	e4 57       	subi	r30, 0x74	; 116
    2132:	ff 4b       	sbci	r31, 0xBF	; 191
    2134:	80 81       	ld	r24, Z
    2136:	80 93 cb 40 	sts	0x40CB, r24	; 0x8040cb <DIGIT+0x8>

		switch(count)							// count
    213a:	c1 30       	cpi	r28, 0x01	; 1
    213c:	41 f0       	breq	.+16     	; 0x214e <Gateway_Set+0x64>
    213e:	08 f4       	brcc	.+2      	; 0x2142 <Gateway_Set+0x58>
    2140:	66 c0       	rjmp	.+204    	; 0x220e <Gateway_Set+0x124>
    2142:	c2 30       	cpi	r28, 0x02	; 2
    2144:	99 f1       	breq	.+102    	; 0x21ac <Gateway_Set+0xc2>
    2146:	c3 30       	cpi	r28, 0x03	; 3
    2148:	09 f4       	brne	.+2      	; 0x214c <Gateway_Set+0x62>
    214a:	5f c0       	rjmp	.+190    	; 0x220a <Gateway_Set+0x120>
    214c:	61 c0       	rjmp	.+194    	; 0x2210 <Gateway_Set+0x126>
			case 0:							// Count = 0 └╠╕ώ
				count = 2;					// ╣▌║╣└╗ └π╟╪ Count╕ο ├╓░Ί╖╬ ┴Ϋ░κ ╜├┼┤
			break;

			case 1:							// Count = 1 └╠╕ώ
				DIGIT[0][3] = FND_G;				// FND 0 ┐κ G-no (▒╣╣°)╟ξ╜├
    214e:	e3 ec       	ldi	r30, 0xC3	; 195
    2150:	f0 e4       	ldi	r31, 0x40	; 64
    2152:	8e eb       	ldi	r24, 0xBE	; 190
    2154:	83 83       	std	Z+3, r24	; 0x03
				DIGIT[0][2] = FND_MINUS;
    2156:	82 e0       	ldi	r24, 0x02	; 2
    2158:	82 83       	std	Z+2, r24	; 0x02
				DIGIT[0][1] = FND_n;
    215a:	8a e2       	ldi	r24, 0x2A	; 42
    215c:	81 83       	std	Z+1, r24	; 0x01
				DIGIT[0][0] = FND_o;
    215e:	8a e3       	ldi	r24, 0x3A	; 58
    2160:	80 83       	st	Z, r24

				DIGIT[1][3] = FND_OFF;				// FND 1 ┐κ ▒╣╣° ╣°╚μ ╟ξ╜├
    2162:	17 82       	std	Z+7, r1	; 0x07
				DIGIT[1][2] = FND_OFF;
    2164:	16 82       	std	Z+6, r1	; 0x06
				DIGIT[1][1] = fnd_tbl[Gukbun / 10];
    2166:	40 91 d1 4a 	lds	r20, 0x4AD1	; 0x804ad1 <Gukbun>
    216a:	8d ec       	ldi	r24, 0xCD	; 205
    216c:	48 9f       	mul	r20, r24
    216e:	81 2d       	mov	r24, r1
    2170:	11 24       	eor	r1, r1
    2172:	86 95       	lsr	r24
    2174:	86 95       	lsr	r24
    2176:	86 95       	lsr	r24
    2178:	28 2f       	mov	r18, r24
    217a:	30 e0       	ldi	r19, 0x00	; 0
    217c:	24 57       	subi	r18, 0x74	; 116
    217e:	3f 4b       	sbci	r19, 0xBF	; 191
    2180:	d9 01       	movw	r26, r18
    2182:	9c 91       	ld	r25, X
    2184:	95 83       	std	Z+5, r25	; 0x05
				DIGIT[1][0] = fnd_tbl[Gukbun % 10];
    2186:	88 0f       	add	r24, r24
    2188:	98 2f       	mov	r25, r24
    218a:	99 0f       	add	r25, r25
    218c:	99 0f       	add	r25, r25
    218e:	89 0f       	add	r24, r25
    2190:	a4 2f       	mov	r26, r20
    2192:	a8 1b       	sub	r26, r24
    2194:	b0 e0       	ldi	r27, 0x00	; 0
    2196:	a4 57       	subi	r26, 0x74	; 116
    2198:	bf 4b       	sbci	r27, 0xBF	; 191
    219a:	8c 91       	ld	r24, X
    219c:	84 83       	std	Z+4, r24	; 0x04

				if(SET.Select) {Gukbun_Set();}			// ░╘└╠╞χ ┐■└╠ ▒╣╣° ╝│┴ν
    219e:	80 91 90 4a 	lds	r24, 0x4A90	; 0x804a90 <SET+0x1>
    21a2:	88 23       	and	r24, r24
    21a4:	a9 f1       	breq	.+106    	; 0x2210 <Gateway_Set+0x126>
    21a6:	0e 94 c7 0f 	call	0x1f8e	; 0x1f8e <Gukbun_Set>
    21aa:	32 c0       	rjmp	.+100    	; 0x2210 <Gateway_Set+0x126>
			break;

			case 2:							// Count = 2 └╠╕ώ
				DIGIT[0][3] = FND_G;				// FND 0 ┐κ G-Id ╟ξ╜├
    21ac:	e3 ec       	ldi	r30, 0xC3	; 195
    21ae:	f0 e4       	ldi	r31, 0x40	; 64
    21b0:	8e eb       	ldi	r24, 0xBE	; 190
    21b2:	83 83       	std	Z+3, r24	; 0x03
				DIGIT[0][2] = FND_MINUS;
    21b4:	82 e0       	ldi	r24, 0x02	; 2
    21b6:	82 83       	std	Z+2, r24	; 0x02
				DIGIT[0][1] = FND_I;
    21b8:	80 e6       	ldi	r24, 0x60	; 96
    21ba:	81 83       	std	Z+1, r24	; 0x01
				DIGIT[0][0] = FND_d;
    21bc:	8a e7       	ldi	r24, 0x7A	; 122
    21be:	80 83       	st	Z, r24

				DIGIT[1][3] = FND_OFF;				// FND 1 ┐κ ░╘└╠╞χ ┐■└╠ ID ╟ξ╜├
    21c0:	17 82       	std	Z+7, r1	; 0x07
				DIGIT[1][2] = FND_OFF;
    21c2:	16 82       	std	Z+6, r1	; 0x06
				DIGIT[1][1] = fnd_tbl[Gwid / 10];
    21c4:	40 91 db 4a 	lds	r20, 0x4ADB	; 0x804adb <Gwid>
    21c8:	8d ec       	ldi	r24, 0xCD	; 205
    21ca:	48 9f       	mul	r20, r24
    21cc:	81 2d       	mov	r24, r1
    21ce:	11 24       	eor	r1, r1
    21d0:	86 95       	lsr	r24
    21d2:	86 95       	lsr	r24
    21d4:	86 95       	lsr	r24
    21d6:	28 2f       	mov	r18, r24
    21d8:	30 e0       	ldi	r19, 0x00	; 0
    21da:	24 57       	subi	r18, 0x74	; 116
    21dc:	3f 4b       	sbci	r19, 0xBF	; 191
    21de:	d9 01       	movw	r26, r18
    21e0:	9c 91       	ld	r25, X
    21e2:	95 83       	std	Z+5, r25	; 0x05
				DIGIT[1][0] = fnd_tbl[Gwid % 10];
    21e4:	88 0f       	add	r24, r24
    21e6:	98 2f       	mov	r25, r24
    21e8:	99 0f       	add	r25, r25
    21ea:	99 0f       	add	r25, r25
    21ec:	89 0f       	add	r24, r25
    21ee:	a4 2f       	mov	r26, r20
    21f0:	a8 1b       	sub	r26, r24
    21f2:	b0 e0       	ldi	r27, 0x00	; 0
    21f4:	a4 57       	subi	r26, 0x74	; 116
    21f6:	bf 4b       	sbci	r27, 0xBF	; 191
    21f8:	8c 91       	ld	r24, X
    21fa:	84 83       	std	Z+4, r24	; 0x04

				if(SET.Select) {Gwid_Set();}			// ░╘└╠╞χ ┐■└╠ ID ╝│┴ν
    21fc:	80 91 90 4a 	lds	r24, 0x4A90	; 0x804a90 <SET+0x1>
    2200:	88 23       	and	r24, r24
    2202:	31 f0       	breq	.+12     	; 0x2210 <Gateway_Set+0x126>
    2204:	0e 94 1e 10 	call	0x203c	; 0x203c <Gwid_Set>
    2208:	03 c0       	rjmp	.+6      	; 0x2210 <Gateway_Set+0x126>
			break;

			case 3:							// Count = 3 └╠╕ώ
				count = 1;					// ╣▌║╣└╗ └π╟╪ Count╕ο ├╓└·╖╬ ░ρ╝╥ ╜├┼┤
    220a:	c1 e0       	ldi	r28, 0x01	; 1
			break;
    220c:	01 c0       	rjmp	.+2      	; 0x2210 <Gateway_Set+0x126>
		DIGIT[2][0] = fnd_tbl[count];					// FND 2.0 ┐κ Count ╟ξ╜├

		switch(count)							// count
		{
			case 0:							// Count = 0 └╠╕ώ
				count = 2;					// ╣▌║╣└╗ └π╟╪ Count╕ο ├╓░Ί╖╬ ┴Ϋ░κ ╜├┼┤
    220e:	c2 e0       	ldi	r28, 0x02	; 2

			case 3:							// Count = 3 └╠╕ώ
				count = 1;					// ╣▌║╣└╗ └π╟╪ Count╕ο ├╓└·╖╬ ░ρ╝╥ ╜├┼┤
			break;
		}
		wdt_reset();							// ┐÷─κ╡╢ ╕χ╝┬
    2210:	0e 94 78 0c 	call	0x18f0	; 0x18f0 <wdt_reset>
	uint8_t count = 1;							// ─τ┐Ό╞χ ║ψ╝÷ ├╩▒έ╚φ
	SET.Select = 0;								// Select ╣÷╞░ ├╩▒έ╚φ

	FND_Value_Data(0, 2, 12);						// FND 0 ~ 2 FND_OFF
	
	while(SET.Menu)								// ╕▐┤║░κ 1 └╠╕ώ ╣▌║╣
    2214:	80 91 8f 4a 	lds	r24, 0x4A8F	; 0x804a8f <SET>
    2218:	81 11       	cpse	r24, r1
    221a:	71 cf       	rjmp	.-286    	; 0x20fe <Gateway_Set+0x14>
				count = 1;					// ╣▌║╣└╗ └π╟╪ Count╕ο ├╓└·╖╬ ░ρ╝╥ ╜├┼┤
			break;
		}
		wdt_reset();							// ┐÷─κ╡╢ ╕χ╝┬
	}
}
    221c:	cf 91       	pop	r28
    221e:	08 95       	ret

00002220 <I2C_0_do_I2C_RESET>:
 * \brief Identical to I2C_0_master_operation(true);
 */
i2c_error_t I2C_0_master_read(void)
{
	return I2C_0_master_operation(true);
}
    2220:	e0 e2       	ldi	r30, 0x20	; 32
    2222:	f9 e0       	ldi	r31, 0x09	; 9
    2224:	84 81       	ldd	r24, Z+4	; 0x04
    2226:	88 60       	ori	r24, 0x08	; 8
    2228:	84 83       	std	Z+4, r24	; 0x04
    222a:	85 81       	ldd	r24, Z+5	; 0x05
    222c:	81 60       	ori	r24, 0x01	; 1
    222e:	85 83       	std	Z+5, r24	; 0x05
    2230:	ef ec       	ldi	r30, 0xCF	; 207
    2232:	f0 e4       	ldi	r31, 0x40	; 64
    2234:	80 81       	ld	r24, Z
    2236:	8e 7f       	andi	r24, 0xFE	; 254
    2238:	80 83       	st	Z, r24
    223a:	13 86       	std	Z+11, r1	; 0x0b
    223c:	8e e0       	ldi	r24, 0x0E	; 14
    223e:	08 95       	ret

00002240 <I2C_0_do_I2C_IDLE>:
    2240:	ef ec       	ldi	r30, 0xCF	; 207
    2242:	f0 e4       	ldi	r31, 0x40	; 64
    2244:	80 81       	ld	r24, Z
    2246:	8e 7f       	andi	r24, 0xFE	; 254
    2248:	80 83       	st	Z, r24
    224a:	13 86       	std	Z+11, r1	; 0x0b
    224c:	80 e0       	ldi	r24, 0x00	; 0
    224e:	08 95       	ret

00002250 <I2C_0_do_I2C_SEND_STOP>:
    2250:	e0 e2       	ldi	r30, 0x20	; 32
    2252:	f9 e0       	ldi	r31, 0x09	; 9
    2254:	84 81       	ldd	r24, Z+4	; 0x04
    2256:	83 60       	ori	r24, 0x03	; 3
    2258:	84 83       	std	Z+4, r24	; 0x04
    225a:	0e 94 20 11 	call	0x2240	; 0x2240 <I2C_0_do_I2C_IDLE>
    225e:	08 95       	ret

00002260 <I2C_0_do_I2C_SEND_ADR_READ>:
    2260:	ef ec       	ldi	r30, 0xCF	; 207
    2262:	f0 e4       	ldi	r31, 0x40	; 64
    2264:	80 81       	ld	r24, Z
    2266:	88 60       	ori	r24, 0x08	; 8
    2268:	80 83       	st	Z, r24
    226a:	81 81       	ldd	r24, Z+1	; 0x01
    226c:	90 e0       	ldi	r25, 0x00	; 0
    226e:	88 0f       	add	r24, r24
    2270:	99 1f       	adc	r25, r25
    2272:	81 60       	ori	r24, 0x01	; 1
    2274:	80 93 27 09 	sts	0x0927, r24	; 0x800927 <__TEXT_REGION_LENGTH__+0x7e0927>
    2278:	84 e0       	ldi	r24, 0x04	; 4
    227a:	08 95       	ret

0000227c <I2C_0_do_I2C_SEND_RESTART>:
    227c:	0e 94 30 11 	call	0x2260	; 0x2260 <I2C_0_do_I2C_SEND_ADR_READ>
    2280:	08 95       	ret

00002282 <I2C_0_do_I2C_SEND_RESTART_READ>:
    2282:	0e 94 30 11 	call	0x2260	; 0x2260 <I2C_0_do_I2C_SEND_ADR_READ>
    2286:	08 95       	ret

00002288 <I2C_0_do_I2C_SEND_ADR_WRITE>:
    2288:	ef ec       	ldi	r30, 0xCF	; 207
    228a:	f0 e4       	ldi	r31, 0x40	; 64
    228c:	80 81       	ld	r24, Z
    228e:	88 60       	ori	r24, 0x08	; 8
    2290:	80 83       	st	Z, r24
    2292:	81 81       	ldd	r24, Z+1	; 0x01
    2294:	88 0f       	add	r24, r24
    2296:	80 93 27 09 	sts	0x0927, r24	; 0x800927 <__TEXT_REGION_LENGTH__+0x7e0927>
    229a:	83 e0       	ldi	r24, 0x03	; 3
    229c:	08 95       	ret

0000229e <I2C_0_do_I2C_SEND_RESTART_WRITE>:
    229e:	0e 94 44 11 	call	0x2288	; 0x2288 <I2C_0_do_I2C_SEND_ADR_WRITE>
    22a2:	08 95       	ret

000022a4 <I2C_0_do_I2C_DO_ADDRESS_NACK>:
    22a4:	af ec       	ldi	r26, 0xCF	; 207
    22a6:	b0 e4       	ldi	r27, 0x40	; 64
    22a8:	8c 91       	ld	r24, X
    22aa:	87 7f       	andi	r24, 0xF7	; 247
    22ac:	8c 93       	st	X, r24
    22ae:	82 e0       	ldi	r24, 0x02	; 2
    22b0:	1b 96       	adiw	r26, 0x0b	; 11
    22b2:	8c 93       	st	X, r24
    22b4:	1b 97       	sbiw	r26, 0x0b	; 11
    22b6:	50 96       	adiw	r26, 0x10	; 16
    22b8:	ed 91       	ld	r30, X+
    22ba:	fc 91       	ld	r31, X
    22bc:	51 97       	sbiw	r26, 0x11	; 17
    22be:	5c 96       	adiw	r26, 0x1c	; 28
    22c0:	8d 91       	ld	r24, X+
    22c2:	9c 91       	ld	r25, X
    22c4:	5d 97       	sbiw	r26, 0x1d	; 29
    22c6:	09 95       	icall
    22c8:	82 30       	cpi	r24, 0x02	; 2
    22ca:	19 f0       	breq	.+6      	; 0x22d2 <I2C_0_do_I2C_DO_ADDRESS_NACK+0x2e>
    22cc:	83 30       	cpi	r24, 0x03	; 3
    22ce:	21 f0       	breq	.+8      	; 0x22d8 <I2C_0_do_I2C_DO_ADDRESS_NACK+0x34>
    22d0:	06 c0       	rjmp	.+12     	; 0x22de <I2C_0_do_I2C_DO_ADDRESS_NACK+0x3a>
    22d2:	0e 94 41 11 	call	0x2282	; 0x2282 <I2C_0_do_I2C_SEND_RESTART_READ>
    22d6:	08 95       	ret
    22d8:	0e 94 4f 11 	call	0x229e	; 0x229e <I2C_0_do_I2C_SEND_RESTART_WRITE>
    22dc:	08 95       	ret
    22de:	0e 94 28 11 	call	0x2250	; 0x2250 <I2C_0_do_I2C_SEND_STOP>
    22e2:	08 95       	ret

000022e4 <I2C_0_do_I2C_RX_DO_ACK>:
    22e4:	e0 e2       	ldi	r30, 0x20	; 32
    22e6:	f9 e0       	ldi	r31, 0x09	; 9
    22e8:	84 81       	ldd	r24, Z+4	; 0x04
    22ea:	8b 7f       	andi	r24, 0xFB	; 251
    22ec:	84 83       	std	Z+4, r24	; 0x04
    22ee:	84 e0       	ldi	r24, 0x04	; 4
    22f0:	08 95       	ret

000022f2 <I2C_0_do_I2C_TX_DO_ACK>:
    22f2:	e0 e2       	ldi	r30, 0x20	; 32
    22f4:	f9 e0       	ldi	r31, 0x09	; 9
    22f6:	84 81       	ldd	r24, Z+4	; 0x04
    22f8:	8b 7f       	andi	r24, 0xFB	; 251
    22fa:	84 83       	std	Z+4, r24	; 0x04
    22fc:	83 e0       	ldi	r24, 0x03	; 3
    22fe:	08 95       	ret

00002300 <I2C_0_do_I2C_DO_NACK_STOP>:
    2300:	e0 e2       	ldi	r30, 0x20	; 32
    2302:	f9 e0       	ldi	r31, 0x09	; 9
    2304:	84 81       	ldd	r24, Z+4	; 0x04
    2306:	84 60       	ori	r24, 0x04	; 4
    2308:	84 83       	std	Z+4, r24	; 0x04
    230a:	84 81       	ldd	r24, Z+4	; 0x04
    230c:	83 60       	ori	r24, 0x03	; 3
    230e:	84 83       	std	Z+4, r24	; 0x04
    2310:	0e 94 20 11 	call	0x2240	; 0x2240 <I2C_0_do_I2C_IDLE>
    2314:	08 95       	ret

00002316 <I2C_0_do_I2C_DO_NACK_RESTART>:
    2316:	e0 e2       	ldi	r30, 0x20	; 32
    2318:	f9 e0       	ldi	r31, 0x09	; 9
    231a:	84 81       	ldd	r24, Z+4	; 0x04
    231c:	84 60       	ori	r24, 0x04	; 4
    231e:	84 83       	std	Z+4, r24	; 0x04
    2320:	88 e0       	ldi	r24, 0x08	; 8
    2322:	08 95       	ret

00002324 <I2C_0_do_I2C_TX>:
    2324:	80 91 25 09 	lds	r24, 0x0925	; 0x800925 <__TEXT_REGION_LENGTH__+0x7e0925>
    2328:	84 ff       	sbrs	r24, 4
    232a:	19 c0       	rjmp	.+50     	; 0x235e <I2C_0_do_I2C_TX+0x3a>
    232c:	af ec       	ldi	r26, 0xCF	; 207
    232e:	b0 e4       	ldi	r27, 0x40	; 64
    2330:	52 96       	adiw	r26, 0x12	; 18
    2332:	ed 91       	ld	r30, X+
    2334:	fc 91       	ld	r31, X
    2336:	53 97       	sbiw	r26, 0x13	; 19
    2338:	5e 96       	adiw	r26, 0x1e	; 30
    233a:	8d 91       	ld	r24, X+
    233c:	9c 91       	ld	r25, X
    233e:	5f 97       	sbiw	r26, 0x1f	; 31
    2340:	09 95       	icall
    2342:	82 30       	cpi	r24, 0x02	; 2
    2344:	19 f0       	breq	.+6      	; 0x234c <I2C_0_do_I2C_TX+0x28>
    2346:	83 30       	cpi	r24, 0x03	; 3
    2348:	21 f0       	breq	.+8      	; 0x2352 <I2C_0_do_I2C_TX+0x2e>
    234a:	06 c0       	rjmp	.+12     	; 0x2358 <I2C_0_do_I2C_TX+0x34>
    234c:	0e 94 41 11 	call	0x2282	; 0x2282 <I2C_0_do_I2C_SEND_RESTART_READ>
    2350:	08 95       	ret
    2352:	0e 94 4f 11 	call	0x229e	; 0x229e <I2C_0_do_I2C_SEND_RESTART_WRITE>
    2356:	08 95       	ret
    2358:	0e 94 28 11 	call	0x2250	; 0x2250 <I2C_0_do_I2C_SEND_STOP>
    235c:	08 95       	ret
    235e:	ef ec       	ldi	r30, 0xCF	; 207
    2360:	f0 e4       	ldi	r31, 0x40	; 64
    2362:	80 81       	ld	r24, Z
    2364:	87 7f       	andi	r24, 0xF7	; 247
    2366:	80 83       	st	Z, r24
    2368:	a2 81       	ldd	r26, Z+2	; 0x02
    236a:	b3 81       	ldd	r27, Z+3	; 0x03
    236c:	cd 01       	movw	r24, r26
    236e:	01 96       	adiw	r24, 0x01	; 1
    2370:	82 83       	std	Z+2, r24	; 0x02
    2372:	93 83       	std	Z+3, r25	; 0x03
    2374:	8c 91       	ld	r24, X
    2376:	80 93 28 09 	sts	0x0928, r24	; 0x800928 <__TEXT_REGION_LENGTH__+0x7e0928>
    237a:	84 81       	ldd	r24, Z+4	; 0x04
    237c:	95 81       	ldd	r25, Z+5	; 0x05
    237e:	01 97       	sbiw	r24, 0x01	; 1
    2380:	84 83       	std	Z+4, r24	; 0x04
    2382:	95 83       	std	Z+5, r25	; 0x05
    2384:	89 2b       	or	r24, r25
    2386:	11 f0       	breq	.+4      	; 0x238c <I2C_0_do_I2C_TX+0x68>
    2388:	83 e0       	ldi	r24, 0x03	; 3
    238a:	08 95       	ret
    238c:	85 e0       	ldi	r24, 0x05	; 5
    238e:	08 95       	ret

00002390 <I2C_0_do_I2C_RX>:
    2390:	cf 93       	push	r28
    2392:	df 93       	push	r29
    2394:	ef ec       	ldi	r30, 0xCF	; 207
    2396:	f0 e4       	ldi	r31, 0x40	; 64
    2398:	80 81       	ld	r24, Z
    239a:	87 7f       	andi	r24, 0xF7	; 247
    239c:	80 83       	st	Z, r24
    239e:	84 81       	ldd	r24, Z+4	; 0x04
    23a0:	95 81       	ldd	r25, Z+5	; 0x05
    23a2:	01 97       	sbiw	r24, 0x01	; 1
    23a4:	31 f4       	brne	.+12     	; 0x23b2 <I2C_0_do_I2C_RX+0x22>
    23a6:	e0 e2       	ldi	r30, 0x20	; 32
    23a8:	f9 e0       	ldi	r31, 0x09	; 9
    23aa:	84 81       	ldd	r24, Z+4	; 0x04
    23ac:	84 60       	ori	r24, 0x04	; 4
    23ae:	84 83       	std	Z+4, r24	; 0x04
    23b0:	05 c0       	rjmp	.+10     	; 0x23bc <I2C_0_do_I2C_RX+0x2c>
    23b2:	e0 e2       	ldi	r30, 0x20	; 32
    23b4:	f9 e0       	ldi	r31, 0x09	; 9
    23b6:	84 81       	ldd	r24, Z+4	; 0x04
    23b8:	8b 7f       	andi	r24, 0xFB	; 251
    23ba:	84 83       	std	Z+4, r24	; 0x04
    23bc:	ef ec       	ldi	r30, 0xCF	; 207
    23be:	f0 e4       	ldi	r31, 0x40	; 64
    23c0:	84 81       	ldd	r24, Z+4	; 0x04
    23c2:	95 81       	ldd	r25, Z+5	; 0x05
    23c4:	01 97       	sbiw	r24, 0x01	; 1
    23c6:	84 83       	std	Z+4, r24	; 0x04
    23c8:	95 83       	std	Z+5, r25	; 0x05
    23ca:	89 2b       	or	r24, r25
    23cc:	a9 f0       	breq	.+42     	; 0x23f8 <I2C_0_do_I2C_RX+0x68>
    23ce:	df 01       	movw	r26, r30
    23d0:	c2 81       	ldd	r28, Z+2	; 0x02
    23d2:	d3 81       	ldd	r29, Z+3	; 0x03
    23d4:	e0 e2       	ldi	r30, 0x20	; 32
    23d6:	f9 e0       	ldi	r31, 0x09	; 9
    23d8:	80 85       	ldd	r24, Z+8	; 0x08
    23da:	88 83       	st	Y, r24
    23dc:	12 96       	adiw	r26, 0x02	; 2
    23de:	8d 91       	ld	r24, X+
    23e0:	9c 91       	ld	r25, X
    23e2:	13 97       	sbiw	r26, 0x03	; 3
    23e4:	01 96       	adiw	r24, 0x01	; 1
    23e6:	12 96       	adiw	r26, 0x02	; 2
    23e8:	8d 93       	st	X+, r24
    23ea:	9c 93       	st	X, r25
    23ec:	13 97       	sbiw	r26, 0x03	; 3
    23ee:	84 81       	ldd	r24, Z+4	; 0x04
    23f0:	82 60       	ori	r24, 0x02	; 2
    23f2:	84 83       	std	Z+4, r24	; 0x04
    23f4:	84 e0       	ldi	r24, 0x04	; 4
    23f6:	26 c0       	rjmp	.+76     	; 0x2444 <I2C_0_do_I2C_RX+0xb4>
    23f8:	af ec       	ldi	r26, 0xCF	; 207
    23fa:	b0 e4       	ldi	r27, 0x40	; 64
    23fc:	12 96       	adiw	r26, 0x02	; 2
    23fe:	ed 91       	ld	r30, X+
    2400:	fc 91       	ld	r31, X
    2402:	13 97       	sbiw	r26, 0x03	; 3
    2404:	80 91 28 09 	lds	r24, 0x0928	; 0x800928 <__TEXT_REGION_LENGTH__+0x7e0928>
    2408:	80 83       	st	Z, r24
    240a:	12 96       	adiw	r26, 0x02	; 2
    240c:	8d 91       	ld	r24, X+
    240e:	9c 91       	ld	r25, X
    2410:	13 97       	sbiw	r26, 0x03	; 3
    2412:	01 96       	adiw	r24, 0x01	; 1
    2414:	12 96       	adiw	r26, 0x02	; 2
    2416:	8d 93       	st	X+, r24
    2418:	9c 93       	st	X, r25
    241a:	13 97       	sbiw	r26, 0x03	; 3
    241c:	8c 91       	ld	r24, X
    241e:	84 60       	ori	r24, 0x04	; 4
    2420:	8c 93       	st	X, r24
    2422:	1c 96       	adiw	r26, 0x0c	; 12
    2424:	ed 91       	ld	r30, X+
    2426:	fc 91       	ld	r31, X
    2428:	1d 97       	sbiw	r26, 0x0d	; 13
    242a:	58 96       	adiw	r26, 0x18	; 24
    242c:	8d 91       	ld	r24, X+
    242e:	9c 91       	ld	r25, X
    2430:	59 97       	sbiw	r26, 0x19	; 25
    2432:	09 95       	icall
    2434:	82 50       	subi	r24, 0x02	; 2
    2436:	82 30       	cpi	r24, 0x02	; 2
    2438:	18 f4       	brcc	.+6      	; 0x2440 <I2C_0_do_I2C_RX+0xb0>
    243a:	0e 94 8b 11 	call	0x2316	; 0x2316 <I2C_0_do_I2C_DO_NACK_RESTART>
    243e:	02 c0       	rjmp	.+4      	; 0x2444 <I2C_0_do_I2C_RX+0xb4>
    2440:	0e 94 80 11 	call	0x2300	; 0x2300 <I2C_0_do_I2C_DO_NACK_STOP>
    2444:	df 91       	pop	r29
    2446:	cf 91       	pop	r28
    2448:	08 95       	ret

0000244a <I2C_0_do_I2C_TX_EMPTY>:
    244a:	80 91 25 09 	lds	r24, 0x0925	; 0x800925 <__TEXT_REGION_LENGTH__+0x7e0925>
    244e:	84 ff       	sbrs	r24, 4
    2450:	19 c0       	rjmp	.+50     	; 0x2484 <I2C_0_do_I2C_TX_EMPTY+0x3a>
    2452:	af ec       	ldi	r26, 0xCF	; 207
    2454:	b0 e4       	ldi	r27, 0x40	; 64
    2456:	52 96       	adiw	r26, 0x12	; 18
    2458:	ed 91       	ld	r30, X+
    245a:	fc 91       	ld	r31, X
    245c:	53 97       	sbiw	r26, 0x13	; 19
    245e:	5e 96       	adiw	r26, 0x1e	; 30
    2460:	8d 91       	ld	r24, X+
    2462:	9c 91       	ld	r25, X
    2464:	5f 97       	sbiw	r26, 0x1f	; 31
    2466:	09 95       	icall
    2468:	82 30       	cpi	r24, 0x02	; 2
    246a:	19 f0       	breq	.+6      	; 0x2472 <I2C_0_do_I2C_TX_EMPTY+0x28>
    246c:	83 30       	cpi	r24, 0x03	; 3
    246e:	21 f0       	breq	.+8      	; 0x2478 <I2C_0_do_I2C_TX_EMPTY+0x2e>
    2470:	06 c0       	rjmp	.+12     	; 0x247e <I2C_0_do_I2C_TX_EMPTY+0x34>
    2472:	0e 94 41 11 	call	0x2282	; 0x2282 <I2C_0_do_I2C_SEND_RESTART_READ>
    2476:	08 95       	ret
    2478:	0e 94 4f 11 	call	0x229e	; 0x229e <I2C_0_do_I2C_SEND_RESTART_WRITE>
    247c:	08 95       	ret
    247e:	0e 94 28 11 	call	0x2250	; 0x2250 <I2C_0_do_I2C_SEND_STOP>
    2482:	08 95       	ret
    2484:	af ec       	ldi	r26, 0xCF	; 207
    2486:	b0 e4       	ldi	r27, 0x40	; 64
    2488:	8c 91       	ld	r24, X
    248a:	84 60       	ori	r24, 0x04	; 4
    248c:	8c 93       	st	X, r24
    248e:	1c 96       	adiw	r26, 0x0c	; 12
    2490:	ed 91       	ld	r30, X+
    2492:	fc 91       	ld	r31, X
    2494:	1d 97       	sbiw	r26, 0x0d	; 13
    2496:	58 96       	adiw	r26, 0x18	; 24
    2498:	8d 91       	ld	r24, X+
    249a:	9c 91       	ld	r25, X
    249c:	59 97       	sbiw	r26, 0x19	; 25
    249e:	09 95       	icall
    24a0:	83 30       	cpi	r24, 0x03	; 3
    24a2:	39 f0       	breq	.+14     	; 0x24b2 <I2C_0_do_I2C_TX_EMPTY+0x68>
    24a4:	84 30       	cpi	r24, 0x04	; 4
    24a6:	41 f0       	breq	.+16     	; 0x24b8 <I2C_0_do_I2C_TX_EMPTY+0x6e>
    24a8:	82 30       	cpi	r24, 0x02	; 2
    24aa:	49 f4       	brne	.+18     	; 0x24be <I2C_0_do_I2C_TX_EMPTY+0x74>
    24ac:	0e 94 41 11 	call	0x2282	; 0x2282 <I2C_0_do_I2C_SEND_RESTART_READ>
    24b0:	08 95       	ret
    24b2:	0e 94 4f 11 	call	0x229e	; 0x229e <I2C_0_do_I2C_SEND_RESTART_WRITE>
    24b6:	08 95       	ret
    24b8:	0e 94 92 11 	call	0x2324	; 0x2324 <I2C_0_do_I2C_TX>
    24bc:	08 95       	ret
    24be:	0e 94 28 11 	call	0x2250	; 0x2250 <I2C_0_do_I2C_SEND_STOP>
    24c2:	08 95       	ret

000024c4 <I2C_0_do_I2C_BUS_COLLISION>:
    24c4:	e0 e2       	ldi	r30, 0x20	; 32
    24c6:	f9 e0       	ldi	r31, 0x09	; 9
    24c8:	85 81       	ldd	r24, Z+5	; 0x05
    24ca:	88 60       	ori	r24, 0x08	; 8
    24cc:	85 83       	std	Z+5, r24	; 0x05
    24ce:	af ec       	ldi	r26, 0xCF	; 207
    24d0:	b0 e4       	ldi	r27, 0x40	; 64
    24d2:	82 e0       	ldi	r24, 0x02	; 2
    24d4:	1b 96       	adiw	r26, 0x0b	; 11
    24d6:	8c 93       	st	X, r24
    24d8:	1b 97       	sbiw	r26, 0x0b	; 11
    24da:	1e 96       	adiw	r26, 0x0e	; 14
    24dc:	ed 91       	ld	r30, X+
    24de:	fc 91       	ld	r31, X
    24e0:	1f 97       	sbiw	r26, 0x0f	; 15
    24e2:	5a 96       	adiw	r26, 0x1a	; 26
    24e4:	8d 91       	ld	r24, X+
    24e6:	9c 91       	ld	r25, X
    24e8:	5b 97       	sbiw	r26, 0x1b	; 27
    24ea:	09 95       	icall
    24ec:	82 30       	cpi	r24, 0x02	; 2
    24ee:	19 f0       	breq	.+6      	; 0x24f6 <I2C_0_do_I2C_BUS_COLLISION+0x32>
    24f0:	83 30       	cpi	r24, 0x03	; 3
    24f2:	21 f0       	breq	.+8      	; 0x24fc <I2C_0_do_I2C_BUS_COLLISION+0x38>
    24f4:	06 c0       	rjmp	.+12     	; 0x2502 <I2C_0_do_I2C_BUS_COLLISION+0x3e>
    24f6:	0e 94 41 11 	call	0x2282	; 0x2282 <I2C_0_do_I2C_SEND_RESTART_READ>
    24fa:	08 95       	ret
    24fc:	0e 94 4f 11 	call	0x229e	; 0x229e <I2C_0_do_I2C_SEND_RESTART_WRITE>
    2500:	08 95       	ret
    2502:	0e 94 10 11 	call	0x2220	; 0x2220 <I2C_0_do_I2C_RESET>
    2506:	08 95       	ret

00002508 <I2C_0_do_I2C_BUS_ERROR>:
    2508:	e0 e2       	ldi	r30, 0x20	; 32
    250a:	f9 e0       	ldi	r31, 0x09	; 9
    250c:	84 81       	ldd	r24, Z+4	; 0x04
    250e:	88 60       	ori	r24, 0x08	; 8
    2510:	84 83       	std	Z+4, r24	; 0x04
    2512:	85 81       	ldd	r24, Z+5	; 0x05
    2514:	81 60       	ori	r24, 0x01	; 1
    2516:	85 83       	std	Z+5, r24	; 0x05
    2518:	ef ec       	ldi	r30, 0xCF	; 207
    251a:	f0 e4       	ldi	r31, 0x40	; 64
    251c:	80 81       	ld	r24, Z
    251e:	8e 7f       	andi	r24, 0xFE	; 254
    2520:	80 83       	st	Z, r24
    2522:	82 e0       	ldi	r24, 0x02	; 2
    2524:	83 87       	std	Z+11, r24	; 0x0b
    2526:	8e e0       	ldi	r24, 0x0E	; 14
    2528:	08 95       	ret

0000252a <I2C_0_master_isr>:
    252a:	cf 93       	push	r28
    252c:	df 93       	push	r29
    252e:	e0 e2       	ldi	r30, 0x20	; 32
    2530:	f9 e0       	ldi	r31, 0x09	; 9
    2532:	85 81       	ldd	r24, Z+5	; 0x05
    2534:	80 6c       	ori	r24, 0xC0	; 192
    2536:	85 83       	std	Z+5, r24	; 0x05
    2538:	80 91 cf 40 	lds	r24, 0x40CF	; 0x8040cf <I2C_0_status>
    253c:	83 ff       	sbrs	r24, 3
    253e:	07 c0       	rjmp	.+14     	; 0x254e <I2C_0_master_isr+0x24>
    2540:	80 91 25 09 	lds	r24, 0x0925	; 0x800925 <__TEXT_REGION_LENGTH__+0x7e0925>
    2544:	84 ff       	sbrs	r24, 4
    2546:	03 c0       	rjmp	.+6      	; 0x254e <I2C_0_master_isr+0x24>
    2548:	8f e0       	ldi	r24, 0x0F	; 15
    254a:	80 93 d9 40 	sts	0x40D9, r24	; 0x8040d9 <I2C_0_status+0xa>
    254e:	80 91 25 09 	lds	r24, 0x0925	; 0x800925 <__TEXT_REGION_LENGTH__+0x7e0925>
    2552:	83 ff       	sbrs	r24, 3
    2554:	03 c0       	rjmp	.+6      	; 0x255c <I2C_0_master_isr+0x32>
    2556:	80 e1       	ldi	r24, 0x10	; 16
    2558:	80 93 d9 40 	sts	0x40D9, r24	; 0x8040d9 <I2C_0_status+0xa>
    255c:	80 91 25 09 	lds	r24, 0x0925	; 0x800925 <__TEXT_REGION_LENGTH__+0x7e0925>
    2560:	82 ff       	sbrs	r24, 2
    2562:	03 c0       	rjmp	.+6      	; 0x256a <I2C_0_master_isr+0x40>
    2564:	81 e1       	ldi	r24, 0x11	; 17
    2566:	80 93 d9 40 	sts	0x40D9, r24	; 0x8040d9 <I2C_0_status+0xa>
    256a:	cf ec       	ldi	r28, 0xCF	; 207
    256c:	d0 e4       	ldi	r29, 0x40	; 64
    256e:	ea 85       	ldd	r30, Y+10	; 0x0a
    2570:	f0 e0       	ldi	r31, 0x00	; 0
    2572:	ee 0f       	add	r30, r30
    2574:	ff 1f       	adc	r31, r31
    2576:	ea 5f       	subi	r30, 0xFA	; 250
    2578:	ff 4b       	sbci	r31, 0xBF	; 191
    257a:	01 90       	ld	r0, Z+
    257c:	f0 81       	ld	r31, Z
    257e:	e0 2d       	mov	r30, r0
    2580:	09 95       	icall
    2582:	8a 87       	std	Y+10, r24	; 0x0a
    2584:	df 91       	pop	r29
    2586:	cf 91       	pop	r28
    2588:	08 95       	ret

0000258a <I2C_0_return_stop>:
    258a:	81 e0       	ldi	r24, 0x01	; 1
    258c:	08 95       	ret

0000258e <I2C_0_return_reset>:
    258e:	85 e0       	ldi	r24, 0x05	; 5
    2590:	08 95       	ret

00002592 <I2C_0_set_callback>:
    2592:	61 15       	cp	r22, r1
    2594:	71 05       	cpc	r23, r1
    2596:	91 f0       	breq	.+36     	; 0x25bc <I2C_0_set_callback+0x2a>
    2598:	90 e0       	ldi	r25, 0x00	; 0
    259a:	fc 01       	movw	r30, r24
    259c:	36 96       	adiw	r30, 0x06	; 6
    259e:	ee 0f       	add	r30, r30
    25a0:	ff 1f       	adc	r31, r31
    25a2:	e1 53       	subi	r30, 0x31	; 49
    25a4:	ff 4b       	sbci	r31, 0xBF	; 191
    25a6:	60 83       	st	Z, r22
    25a8:	71 83       	std	Z+1, r23	; 0x01
    25aa:	fc 01       	movw	r30, r24
    25ac:	3c 96       	adiw	r30, 0x0c	; 12
    25ae:	ee 0f       	add	r30, r30
    25b0:	ff 1f       	adc	r31, r31
    25b2:	e1 53       	subi	r30, 0x31	; 49
    25b4:	ff 4b       	sbci	r31, 0xBF	; 191
    25b6:	40 83       	st	Z, r20
    25b8:	51 83       	std	Z+1, r21	; 0x01
    25ba:	08 95       	ret
    25bc:	90 e0       	ldi	r25, 0x00	; 0
    25be:	fc 01       	movw	r30, r24
    25c0:	36 96       	adiw	r30, 0x06	; 6
    25c2:	ee 0f       	add	r30, r30
    25c4:	ff 1f       	adc	r31, r31
    25c6:	e1 53       	subi	r30, 0x31	; 49
    25c8:	ff 4b       	sbci	r31, 0xBF	; 191
    25ca:	25 ec       	ldi	r18, 0xC5	; 197
    25cc:	32 e1       	ldi	r19, 0x12	; 18
    25ce:	20 83       	st	Z, r18
    25d0:	31 83       	std	Z+1, r19	; 0x01
    25d2:	fc 01       	movw	r30, r24
    25d4:	3c 96       	adiw	r30, 0x0c	; 12
    25d6:	ee 0f       	add	r30, r30
    25d8:	ff 1f       	adc	r31, r31
    25da:	e1 53       	subi	r30, 0x31	; 49
    25dc:	ff 4b       	sbci	r31, 0xBF	; 191
    25de:	10 82       	st	Z, r1
    25e0:	11 82       	std	Z+1, r1	; 0x01
    25e2:	08 95       	ret

000025e4 <I2C_0_set_data_complete_callback>:
    25e4:	ab 01       	movw	r20, r22
    25e6:	bc 01       	movw	r22, r24
    25e8:	80 e0       	ldi	r24, 0x00	; 0
    25ea:	0e 94 c9 12 	call	0x2592	; 0x2592 <I2C_0_set_callback>
    25ee:	08 95       	ret

000025f0 <I2C_0_set_address_nack_callback>:
    25f0:	ab 01       	movw	r20, r22
    25f2:	bc 01       	movw	r22, r24
    25f4:	82 e0       	ldi	r24, 0x02	; 2
    25f6:	0e 94 c9 12 	call	0x2592	; 0x2592 <I2C_0_set_callback>
    25fa:	08 95       	ret

000025fc <I2C_0_init>:
    25fc:	e0 e2       	ldi	r30, 0x20	; 32
    25fe:	f9 e0       	ldi	r31, 0x09	; 9
    2600:	84 e4       	ldi	r24, 0x44	; 68
    2602:	86 83       	std	Z+6, r24	; 0x06
    2604:	81 ec       	ldi	r24, 0xC1	; 193
    2606:	83 83       	std	Z+3, r24	; 0x03
    2608:	08 95       	ret

0000260a <I2C_0_open>:
    260a:	90 91 cf 40 	lds	r25, 0x40CF	; 0x8040cf <I2C_0_status>
    260e:	91 fd       	sbrc	r25, 1
    2610:	37 c0       	rjmp	.+110    	; 0x2680 <I2C_0_open+0x76>
    2612:	ef ec       	ldi	r30, 0xCF	; 207
    2614:	f0 e4       	ldi	r31, 0x40	; 64
    2616:	81 83       	std	Z+1, r24	; 0x01
    2618:	89 2f       	mov	r24, r25
    261a:	8e 7f       	andi	r24, 0xFE	; 254
    261c:	82 60       	ori	r24, 0x02	; 2
    261e:	9e e0       	ldi	r25, 0x0E	; 14
    2620:	92 87       	std	Z+10, r25	; 0x0a
    2622:	24 ef       	ldi	r18, 0xF4	; 244
    2624:	31 e0       	ldi	r19, 0x01	; 1
    2626:	20 87       	std	Z+8, r18	; 0x08
    2628:	31 87       	std	Z+9, r19	; 0x09
    262a:	87 7f       	andi	r24, 0xF7	; 247
    262c:	84 60       	ori	r24, 0x04	; 4
    262e:	80 83       	st	Z, r24
    2630:	85 ec       	ldi	r24, 0xC5	; 197
    2632:	92 e1       	ldi	r25, 0x12	; 18
    2634:	84 87       	std	Z+12, r24	; 0x0c
    2636:	95 87       	std	Z+13, r25	; 0x0d
    2638:	10 8e       	std	Z+24, r1	; 0x18
    263a:	11 8e       	std	Z+25, r1	; 0x19
    263c:	86 87       	std	Z+14, r24	; 0x0e
    263e:	97 87       	std	Z+15, r25	; 0x0f
    2640:	12 8e       	std	Z+26, r1	; 0x1a
    2642:	13 8e       	std	Z+27, r1	; 0x1b
    2644:	80 8b       	std	Z+16, r24	; 0x10
    2646:	91 8b       	std	Z+17, r25	; 0x11
    2648:	14 8e       	std	Z+28, r1	; 0x1c
    264a:	15 8e       	std	Z+29, r1	; 0x1d
    264c:	82 8b       	std	Z+18, r24	; 0x12
    264e:	93 8b       	std	Z+19, r25	; 0x13
    2650:	16 8e       	std	Z+30, r1	; 0x1e
    2652:	17 8e       	std	Z+31, r1	; 0x1f
    2654:	87 ec       	ldi	r24, 0xC7	; 199
    2656:	92 e1       	ldi	r25, 0x12	; 18
    2658:	84 8b       	std	Z+20, r24	; 0x14
    265a:	95 8b       	std	Z+21, r25	; 0x15
    265c:	10 a2       	std	Z+32, r1	; 0x20
    265e:	11 a2       	std	Z+33, r1	; 0x21
    2660:	e0 e2       	ldi	r30, 0x20	; 32
    2662:	f9 e0       	ldi	r31, 0x09	; 9
    2664:	84 81       	ldd	r24, Z+4	; 0x04
    2666:	88 60       	ori	r24, 0x08	; 8
    2668:	84 83       	std	Z+4, r24	; 0x04
    266a:	85 81       	ldd	r24, Z+5	; 0x05
    266c:	81 60       	ori	r24, 0x01	; 1
    266e:	85 83       	std	Z+5, r24	; 0x05
    2670:	85 81       	ldd	r24, Z+5	; 0x05
    2672:	80 6c       	ori	r24, 0xC0	; 192
    2674:	85 83       	std	Z+5, r24	; 0x05
    2676:	83 81       	ldd	r24, Z+3	; 0x03
    2678:	80 6c       	ori	r24, 0xC0	; 192
    267a:	83 83       	std	Z+3, r24	; 0x03
    267c:	80 e0       	ldi	r24, 0x00	; 0
    267e:	08 95       	ret
    2680:	81 e0       	ldi	r24, 0x01	; 1
    2682:	08 95       	ret

00002684 <I2C_0_close>:
    2684:	80 91 25 09 	lds	r24, 0x0925	; 0x800925 <__TEXT_REGION_LENGTH__+0x7e0925>
    2688:	82 ff       	sbrs	r24, 2
    268a:	07 c0       	rjmp	.+14     	; 0x269a <I2C_0_close+0x16>
    268c:	ef ec       	ldi	r30, 0xCF	; 207
    268e:	f0 e4       	ldi	r31, 0x40	; 64
    2690:	80 81       	ld	r24, Z
    2692:	8e 7f       	andi	r24, 0xFE	; 254
    2694:	80 83       	st	Z, r24
    2696:	82 e0       	ldi	r24, 0x02	; 2
    2698:	83 87       	std	Z+11, r24	; 0x0b
    269a:	80 91 cf 40 	lds	r24, 0x40CF	; 0x8040cf <I2C_0_status>
    269e:	80 fd       	sbrc	r24, 0
    26a0:	17 c0       	rjmp	.+46     	; 0x26d0 <I2C_0_close+0x4c>
    26a2:	ef ec       	ldi	r30, 0xCF	; 207
    26a4:	f0 e4       	ldi	r31, 0x40	; 64
    26a6:	8d 7f       	andi	r24, 0xFD	; 253
    26a8:	80 83       	st	Z, r24
    26aa:	8f ef       	ldi	r24, 0xFF	; 255
    26ac:	81 83       	std	Z+1, r24	; 0x01
    26ae:	a0 e2       	ldi	r26, 0x20	; 32
    26b0:	b9 e0       	ldi	r27, 0x09	; 9
    26b2:	15 96       	adiw	r26, 0x05	; 5
    26b4:	8c 91       	ld	r24, X
    26b6:	15 97       	sbiw	r26, 0x05	; 5
    26b8:	80 6c       	ori	r24, 0xC0	; 192
    26ba:	15 96       	adiw	r26, 0x05	; 5
    26bc:	8c 93       	st	X, r24
    26be:	15 97       	sbiw	r26, 0x05	; 5
    26c0:	13 96       	adiw	r26, 0x03	; 3
    26c2:	8c 91       	ld	r24, X
    26c4:	13 97       	sbiw	r26, 0x03	; 3
    26c6:	8f 73       	andi	r24, 0x3F	; 63
    26c8:	13 96       	adiw	r26, 0x03	; 3
    26ca:	8c 93       	st	X, r24
    26cc:	83 85       	ldd	r24, Z+11	; 0x0b
    26ce:	08 95       	ret
    26d0:	81 e0       	ldi	r24, 0x01	; 1
    26d2:	08 95       	ret

000026d4 <I2C_0_set_buffer>:
    26d4:	9c 01       	movw	r18, r24
    26d6:	90 91 cf 40 	lds	r25, 0x40CF	; 0x8040cf <I2C_0_status>
    26da:	92 ff       	sbrs	r25, 2
    26dc:	09 c0       	rjmp	.+18     	; 0x26f0 <I2C_0_set_buffer+0x1c>
    26de:	ef ec       	ldi	r30, 0xCF	; 207
    26e0:	f0 e4       	ldi	r31, 0x40	; 64
    26e2:	22 83       	std	Z+2, r18	; 0x02
    26e4:	33 83       	std	Z+3, r19	; 0x03
    26e6:	64 83       	std	Z+4, r22	; 0x04
    26e8:	75 83       	std	Z+5, r23	; 0x05
    26ea:	89 2f       	mov	r24, r25
    26ec:	8b 7f       	andi	r24, 0xFB	; 251
    26ee:	80 83       	st	Z, r24
    26f0:	08 95       	ret

000026f2 <I2C_0_master_operation>:
    26f2:	90 91 cf 40 	lds	r25, 0x40CF	; 0x8040cf <I2C_0_status>
    26f6:	90 fd       	sbrc	r25, 0
    26f8:	11 c0       	rjmp	.+34     	; 0x271c <I2C_0_master_operation+0x2a>
    26fa:	ef ec       	ldi	r30, 0xCF	; 207
    26fc:	f0 e4       	ldi	r31, 0x40	; 64
    26fe:	91 60       	ori	r25, 0x01	; 1
    2700:	90 83       	st	Z, r25
    2702:	88 23       	and	r24, r24
    2704:	21 f0       	breq	.+8      	; 0x270e <I2C_0_master_operation+0x1c>
    2706:	81 e0       	ldi	r24, 0x01	; 1
    2708:	80 93 d9 40 	sts	0x40D9, r24	; 0x8040d9 <I2C_0_status+0xa>
    270c:	03 c0       	rjmp	.+6      	; 0x2714 <I2C_0_master_operation+0x22>
    270e:	82 e0       	ldi	r24, 0x02	; 2
    2710:	80 93 d9 40 	sts	0x40D9, r24	; 0x8040d9 <I2C_0_status+0xa>
    2714:	0e 94 95 12 	call	0x252a	; 0x252a <I2C_0_master_isr>
    2718:	80 e0       	ldi	r24, 0x00	; 0
    271a:	08 95       	ret
    271c:	81 e0       	ldi	r24, 0x01	; 1
    271e:	08 95       	ret

00002720 <I2C_0_master_write>:
/**
 * \brief Identical to I2C_0_master_operation(false);
 */
i2c_error_t I2C_0_master_write(void)
{
	return I2C_0_master_operation(false);
    2720:	80 e0       	ldi	r24, 0x00	; 0
    2722:	0e 94 79 13 	call	0x26f2	; 0x26f2 <I2C_0_master_operation>
}
    2726:	08 95       	ret

00002728 <__vector_43>:
    I2C_0_do_I2C_BUS_COLLISION,      // I2C_BUS_COLLISION
    I2C_0_do_I2C_BUS_ERROR           // I2C_BUS_ERROR
};

ISR(TWI1_TWIM_vect)
{
    2728:	1f 92       	push	r1
    272a:	0f 92       	push	r0
    272c:	0f b6       	in	r0, 0x3f	; 63
    272e:	0f 92       	push	r0
    2730:	11 24       	eor	r1, r1
    2732:	0b b6       	in	r0, 0x3b	; 59
    2734:	0f 92       	push	r0
    2736:	2f 93       	push	r18
    2738:	3f 93       	push	r19
    273a:	4f 93       	push	r20
    273c:	5f 93       	push	r21
    273e:	6f 93       	push	r22
    2740:	7f 93       	push	r23
    2742:	8f 93       	push	r24
    2744:	9f 93       	push	r25
    2746:	af 93       	push	r26
    2748:	bf 93       	push	r27
    274a:	ef 93       	push	r30
    274c:	ff 93       	push	r31
	I2C_0_master_isr();
    274e:	0e 94 95 12 	call	0x252a	; 0x252a <I2C_0_master_isr>
}
    2752:	ff 91       	pop	r31
    2754:	ef 91       	pop	r30
    2756:	bf 91       	pop	r27
    2758:	af 91       	pop	r26
    275a:	9f 91       	pop	r25
    275c:	8f 91       	pop	r24
    275e:	7f 91       	pop	r23
    2760:	6f 91       	pop	r22
    2762:	5f 91       	pop	r21
    2764:	4f 91       	pop	r20
    2766:	3f 91       	pop	r19
    2768:	2f 91       	pop	r18
    276a:	0f 90       	pop	r0
    276c:	0b be       	out	0x3b, r0	; 59
    276e:	0f 90       	pop	r0
    2770:	0f be       	out	0x3f, r0	; 63
    2772:	0f 90       	pop	r0
    2774:	1f 90       	pop	r1
    2776:	18 95       	reti

00002778 <I2C_0_wr1RegCompleteHandler>:
    2778:	61 e0       	ldi	r22, 0x01	; 1
    277a:	70 e0       	ldi	r23, 0x00	; 0
    277c:	0e 94 6a 13 	call	0x26d4	; 0x26d4 <I2C_0_set_buffer>
    2780:	60 e0       	ldi	r22, 0x00	; 0
    2782:	70 e0       	ldi	r23, 0x00	; 0
    2784:	80 e0       	ldi	r24, 0x00	; 0
    2786:	90 e0       	ldi	r25, 0x00	; 0
    2788:	0e 94 f2 12 	call	0x25e4	; 0x25e4 <I2C_0_set_data_complete_callback>
    278c:	84 e0       	ldi	r24, 0x04	; 4
    278e:	08 95       	ret

00002790 <I2C_0_rd1RegCompleteHandler>:
    2790:	61 e0       	ldi	r22, 0x01	; 1
    2792:	70 e0       	ldi	r23, 0x00	; 0
    2794:	0e 94 6a 13 	call	0x26d4	; 0x26d4 <I2C_0_set_buffer>
    2798:	60 e0       	ldi	r22, 0x00	; 0
    279a:	70 e0       	ldi	r23, 0x00	; 0
    279c:	80 e0       	ldi	r24, 0x00	; 0
    279e:	90 e0       	ldi	r25, 0x00	; 0
    27a0:	0e 94 f2 12 	call	0x25e4	; 0x25e4 <I2C_0_set_data_complete_callback>
    27a4:	82 e0       	ldi	r24, 0x02	; 2
    27a6:	08 95       	ret

000027a8 <I2C_0_write1ByteRegister>:
    27a8:	ff 92       	push	r15
    27aa:	0f 93       	push	r16
    27ac:	1f 93       	push	r17
    27ae:	cf 93       	push	r28
    27b0:	df 93       	push	r29
    27b2:	00 d0       	rcall	.+0      	; 0x27b4 <I2C_0_write1ByteRegister+0xc>
    27b4:	cd b7       	in	r28, 0x3d	; 61
    27b6:	de b7       	in	r29, 0x3e	; 62
    27b8:	f8 2e       	mov	r15, r24
    27ba:	69 83       	std	Y+1, r22	; 0x01
    27bc:	4a 83       	std	Y+2, r20	; 0x02
    27be:	00 e1       	ldi	r16, 0x10	; 16
    27c0:	17 e2       	ldi	r17, 0x27	; 39
    27c2:	8f 2d       	mov	r24, r15
    27c4:	0e 94 05 13 	call	0x260a	; 0x260a <I2C_0_open>
    27c8:	81 30       	cpi	r24, 0x01	; 1
    27ca:	19 f4       	brne	.+6      	; 0x27d2 <I2C_0_write1ByteRegister+0x2a>
    27cc:	01 50       	subi	r16, 0x01	; 1
    27ce:	11 09       	sbc	r17, r1
    27d0:	c1 f7       	brne	.-16     	; 0x27c2 <I2C_0_write1ByteRegister+0x1a>
    27d2:	01 2b       	or	r16, r17
    27d4:	11 f1       	breq	.+68     	; 0x281a <I2C_0_write1ByteRegister+0x72>
    27d6:	be 01       	movw	r22, r28
    27d8:	6e 5f       	subi	r22, 0xFE	; 254
    27da:	7f 4f       	sbci	r23, 0xFF	; 255
    27dc:	8c eb       	ldi	r24, 0xBC	; 188
    27de:	93 e1       	ldi	r25, 0x13	; 19
    27e0:	0e 94 f2 12 	call	0x25e4	; 0x25e4 <I2C_0_set_data_complete_callback>
    27e4:	61 e0       	ldi	r22, 0x01	; 1
    27e6:	70 e0       	ldi	r23, 0x00	; 0
    27e8:	ce 01       	movw	r24, r28
    27ea:	01 96       	adiw	r24, 0x01	; 1
    27ec:	0e 94 6a 13 	call	0x26d4	; 0x26d4 <I2C_0_set_buffer>
    27f0:	60 e0       	ldi	r22, 0x00	; 0
    27f2:	70 e0       	ldi	r23, 0x00	; 0
    27f4:	88 e5       	ldi	r24, 0x58	; 88
    27f6:	94 e1       	ldi	r25, 0x14	; 20
    27f8:	0e 94 f8 12 	call	0x25f0	; 0x25f0 <I2C_0_set_address_nack_callback>
    27fc:	0e 94 90 13 	call	0x2720	; 0x2720 <I2C_0_master_write>
    2800:	00 e1       	ldi	r16, 0x10	; 16
    2802:	17 e2       	ldi	r17, 0x27	; 39
    2804:	0e 94 42 13 	call	0x2684	; 0x2684 <I2C_0_close>
    2808:	81 30       	cpi	r24, 0x01	; 1
    280a:	19 f4       	brne	.+6      	; 0x2812 <I2C_0_write1ByteRegister+0x6a>
    280c:	01 50       	subi	r16, 0x01	; 1
    280e:	11 09       	sbc	r17, r1
    2810:	c9 f7       	brne	.-14     	; 0x2804 <I2C_0_write1ByteRegister+0x5c>
    2812:	01 2b       	or	r16, r17
    2814:	21 f4       	brne	.+8      	; 0x281e <I2C_0_write1ByteRegister+0x76>
    2816:	82 e0       	ldi	r24, 0x02	; 2
    2818:	03 c0       	rjmp	.+6      	; 0x2820 <I2C_0_write1ByteRegister+0x78>
    281a:	81 e0       	ldi	r24, 0x01	; 1
    281c:	01 c0       	rjmp	.+2      	; 0x2820 <I2C_0_write1ByteRegister+0x78>
    281e:	80 e0       	ldi	r24, 0x00	; 0
    2820:	0f 90       	pop	r0
    2822:	0f 90       	pop	r0
    2824:	df 91       	pop	r29
    2826:	cf 91       	pop	r28
    2828:	1f 91       	pop	r17
    282a:	0f 91       	pop	r16
    282c:	ff 90       	pop	r15
    282e:	08 95       	ret

00002830 <I2C_0_read1ByteRegister>:
    2830:	ef 92       	push	r14
    2832:	ff 92       	push	r15
    2834:	1f 93       	push	r17
    2836:	cf 93       	push	r28
    2838:	df 93       	push	r29
    283a:	00 d0       	rcall	.+0      	; 0x283c <I2C_0_read1ByteRegister+0xc>
    283c:	cd b7       	in	r28, 0x3d	; 61
    283e:	de b7       	in	r29, 0x3e	; 62
    2840:	18 2f       	mov	r17, r24
    2842:	6a 83       	std	Y+2, r22	; 0x02
    2844:	8a e2       	ldi	r24, 0x2A	; 42
    2846:	89 83       	std	Y+1, r24	; 0x01
    2848:	68 94       	set
    284a:	ee 24       	eor	r14, r14
    284c:	e1 f8       	bld	r14, 1
    284e:	f1 2c       	mov	r15, r1
    2850:	23 c0       	rjmp	.+70     	; 0x2898 <I2C_0_read1ByteRegister+0x68>
    2852:	81 2f       	mov	r24, r17
    2854:	0e 94 05 13 	call	0x260a	; 0x260a <I2C_0_open>
    2858:	88 23       	and	r24, r24
    285a:	d9 f3       	breq	.-10     	; 0x2852 <I2C_0_read1ByteRegister+0x22>
    285c:	be 01       	movw	r22, r28
    285e:	6f 5f       	subi	r22, 0xFF	; 255
    2860:	7f 4f       	sbci	r23, 0xFF	; 255
    2862:	88 ec       	ldi	r24, 0xC8	; 200
    2864:	93 e1       	ldi	r25, 0x13	; 19
    2866:	0e 94 f2 12 	call	0x25e4	; 0x25e4 <I2C_0_set_data_complete_callback>
    286a:	61 e0       	ldi	r22, 0x01	; 1
    286c:	70 e0       	ldi	r23, 0x00	; 0
    286e:	ce 01       	movw	r24, r28
    2870:	02 96       	adiw	r24, 0x02	; 2
    2872:	0e 94 6a 13 	call	0x26d4	; 0x26d4 <I2C_0_set_buffer>
    2876:	60 e0       	ldi	r22, 0x00	; 0
    2878:	70 e0       	ldi	r23, 0x00	; 0
    287a:	88 e5       	ldi	r24, 0x58	; 88
    287c:	94 e1       	ldi	r25, 0x14	; 20
    287e:	0e 94 f8 12 	call	0x25f0	; 0x25f0 <I2C_0_set_address_nack_callback>
    2882:	0e 94 90 13 	call	0x2720	; 0x2720 <I2C_0_master_write>
    2886:	0e 94 42 13 	call	0x2684	; 0x2684 <I2C_0_close>
    288a:	81 30       	cpi	r24, 0x01	; 1
    288c:	e1 f3       	breq	.-8      	; 0x2886 <I2C_0_read1ByteRegister+0x56>
    288e:	88 23       	and	r24, r24
    2890:	31 f0       	breq	.+12     	; 0x289e <I2C_0_read1ByteRegister+0x6e>
    2892:	81 e0       	ldi	r24, 0x01	; 1
    2894:	e8 1a       	sub	r14, r24
    2896:	f1 08       	sbc	r15, r1
    2898:	e1 14       	cp	r14, r1
    289a:	f1 04       	cpc	r15, r1
    289c:	d1 f6       	brne	.-76     	; 0x2852 <I2C_0_read1ByteRegister+0x22>
    289e:	89 81       	ldd	r24, Y+1	; 0x01
    28a0:	0f 90       	pop	r0
    28a2:	0f 90       	pop	r0
    28a4:	df 91       	pop	r29
    28a6:	cf 91       	pop	r28
    28a8:	1f 91       	pop	r17
    28aa:	ff 90       	pop	r15
    28ac:	ef 90       	pop	r14
    28ae:	08 95       	ret

000028b0 <i2c_cb_restart_write>:
    28b0:	83 e0       	ldi	r24, 0x03	; 3
    28b2:	08 95       	ret

000028b4 <Cell_Desplay>:
//=================================================================================================
#include <loadcell.h>

//=================================================================================================
void Cell_Desplay(void)								// ΈκεΈΥεΉΖΑ Έυ┤Ά▓Ν ΊΣεΉΜε
{
    28b4:	8f 92       	push	r8
    28b6:	9f 92       	push	r9
    28b8:	af 92       	push	r10
    28ba:	bf 92       	push	r11
    28bc:	ef 92       	push	r14
    28be:	ff 92       	push	r15
    28c0:	0f 93       	push	r16
    28c2:	1f 93       	push	r17
    28c4:	cf 93       	push	r28
    28c6:	df 93       	push	r29
	Weight_10000 = CELL.Value / 10000;					// Ή╕κΉιΧΈυ┤Ά▓Ν 100.00Ήζα ΉηΡΈου 100.00kg
    28c8:	c0 ea       	ldi	r28, 0xA0	; 160
    28ca:	da e4       	ldi	r29, 0x4A	; 74
    28cc:	69 81       	ldd	r22, Y+1	; 0x01
    28ce:	7a 81       	ldd	r23, Y+2	; 0x02
    28d0:	8b 81       	ldd	r24, Y+3	; 0x03
    28d2:	9c 81       	ldd	r25, Y+4	; 0x04
    28d4:	0f 2e       	mov	r0, r31
    28d6:	f0 e1       	ldi	r31, 0x10	; 16
    28d8:	8f 2e       	mov	r8, r31
    28da:	f7 e2       	ldi	r31, 0x27	; 39
    28dc:	9f 2e       	mov	r9, r31
    28de:	a1 2c       	mov	r10, r1
    28e0:	b1 2c       	mov	r11, r1
    28e2:	f0 2d       	mov	r31, r0
    28e4:	a5 01       	movw	r20, r10
    28e6:	94 01       	movw	r18, r8
    28e8:	0e 94 f6 35 	call	0x6bec	; 0x6bec <__divmodsi4>
    28ec:	e2 2e       	mov	r14, r18
    28ee:	20 93 f4 40 	sts	0x40F4, r18	; 0x8040f4 <Weight_10000>
	Weight_1000  = CELL.Value % 10000 / 1000;				// Ή╕κΉιΧΈυ┤Ά▓Ν  10.00Ήζα ΉηΡΈου  10.00kg
    28f2:	69 81       	ldd	r22, Y+1	; 0x01
    28f4:	7a 81       	ldd	r23, Y+2	; 0x02
    28f6:	8b 81       	ldd	r24, Y+3	; 0x03
    28f8:	9c 81       	ldd	r25, Y+4	; 0x04
    28fa:	a5 01       	movw	r20, r10
    28fc:	94 01       	movw	r18, r8
    28fe:	0e 94 f6 35 	call	0x6bec	; 0x6bec <__divmodsi4>
    2902:	0f 2e       	mov	r0, r31
    2904:	f8 ee       	ldi	r31, 0xE8	; 232
    2906:	8f 2e       	mov	r8, r31
    2908:	f3 e0       	ldi	r31, 0x03	; 3
    290a:	9f 2e       	mov	r9, r31
    290c:	a1 2c       	mov	r10, r1
    290e:	b1 2c       	mov	r11, r1
    2910:	f0 2d       	mov	r31, r0
    2912:	a5 01       	movw	r20, r10
    2914:	94 01       	movw	r18, r8
    2916:	0e 94 f6 35 	call	0x6bec	; 0x6bec <__divmodsi4>
    291a:	f2 2e       	mov	r15, r18
    291c:	20 93 06 4b 	sts	0x4B06, r18	; 0x804b06 <Weight_1000>
	Weight_100   = CELL.Value % 1000 / 100;					// Ή╕κΉιΧΈυ┤Ά▓Ν   1.00Ήζα ΉηΡΈου   1.00kg
    2920:	69 81       	ldd	r22, Y+1	; 0x01
    2922:	7a 81       	ldd	r23, Y+2	; 0x02
    2924:	8b 81       	ldd	r24, Y+3	; 0x03
    2926:	9c 81       	ldd	r25, Y+4	; 0x04
    2928:	a5 01       	movw	r20, r10
    292a:	94 01       	movw	r18, r8
    292c:	0e 94 f6 35 	call	0x6bec	; 0x6bec <__divmodsi4>
    2930:	0f 2e       	mov	r0, r31
    2932:	f4 e6       	ldi	r31, 0x64	; 100
    2934:	8f 2e       	mov	r8, r31
    2936:	91 2c       	mov	r9, r1
    2938:	a1 2c       	mov	r10, r1
    293a:	b1 2c       	mov	r11, r1
    293c:	f0 2d       	mov	r31, r0
    293e:	a5 01       	movw	r20, r10
    2940:	94 01       	movw	r18, r8
    2942:	0e 94 f6 35 	call	0x6bec	; 0x6bec <__divmodsi4>
    2946:	02 2f       	mov	r16, r18
    2948:	20 93 f8 4a 	sts	0x4AF8, r18	; 0x804af8 <Weight_100>
	Weight_10    = CELL.Value % 100 / 10;					// Ή╕κΉιΧΈυ┤Ά▓Ν   0.10Ήζα ΉηΡΈου   0.10Kg
    294c:	69 81       	ldd	r22, Y+1	; 0x01
    294e:	7a 81       	ldd	r23, Y+2	; 0x02
    2950:	8b 81       	ldd	r24, Y+3	; 0x03
    2952:	9c 81       	ldd	r25, Y+4	; 0x04
    2954:	a5 01       	movw	r20, r10
    2956:	94 01       	movw	r18, r8
    2958:	0e 94 f6 35 	call	0x6bec	; 0x6bec <__divmodsi4>
    295c:	0f 2e       	mov	r0, r31
    295e:	fa e0       	ldi	r31, 0x0A	; 10
    2960:	8f 2e       	mov	r8, r31
    2962:	91 2c       	mov	r9, r1
    2964:	a1 2c       	mov	r10, r1
    2966:	b1 2c       	mov	r11, r1
    2968:	f0 2d       	mov	r31, r0
    296a:	a5 01       	movw	r20, r10
    296c:	94 01       	movw	r18, r8
    296e:	0e 94 f6 35 	call	0x6bec	; 0x6bec <__divmodsi4>
    2972:	12 2f       	mov	r17, r18
    2974:	20 93 d0 4a 	sts	0x4AD0, r18	; 0x804ad0 <Weight_10>
	Weight_1     = CELL.Value % 10 / 1;					// Ή╕κΉιΧΈυ┤Ά▓Ν   0.01Ήζα ΉηΡΈου   0.01Kg
    2978:	69 81       	ldd	r22, Y+1	; 0x01
    297a:	7a 81       	ldd	r23, Y+2	; 0x02
    297c:	8b 81       	ldd	r24, Y+3	; 0x03
    297e:	9c 81       	ldd	r25, Y+4	; 0x04
    2980:	a5 01       	movw	r20, r10
    2982:	94 01       	movw	r18, r8
    2984:	0e 94 f6 35 	call	0x6bec	; 0x6bec <__divmodsi4>
    2988:	60 93 ed 4a 	sts	0x4AED, r22	; 0x804aed <Weight_1>

	if(CELL.Value > 10000)							// Ή╕κΉιΧΈυ┤Ά▓Ν 100Kg Έ│┤ΈΜν ΊΒυΈσ┤
    298c:	89 81       	ldd	r24, Y+1	; 0x01
    298e:	9a 81       	ldd	r25, Y+2	; 0x02
    2990:	ab 81       	ldd	r26, Y+3	; 0x03
    2992:	bc 81       	ldd	r27, Y+4	; 0x04
    2994:	81 31       	cpi	r24, 0x11	; 17
    2996:	97 42       	sbci	r25, 0x27	; 39
    2998:	a1 05       	cpc	r26, r1
    299a:	b1 05       	cpc	r27, r1
    299c:	14 f1       	brlt	.+68     	; 0x29e2 <Cell_Desplay+0x12e>
	{
		DIGIT[0][3] = fnd_tbl[Weight_10000];				// Ή╕κΉιΧΈυ┤Ά▓Ν 100.00Ήζα ΉηΡΈου
    299e:	ee 2d       	mov	r30, r14
    29a0:	f0 e0       	ldi	r31, 0x00	; 0
    29a2:	e4 57       	subi	r30, 0x74	; 116
    29a4:	ff 4b       	sbci	r31, 0xBF	; 191
    29a6:	80 81       	ld	r24, Z
    29a8:	a3 ec       	ldi	r26, 0xC3	; 195
    29aa:	b0 e4       	ldi	r27, 0x40	; 64
    29ac:	13 96       	adiw	r26, 0x03	; 3
    29ae:	8c 93       	st	X, r24
    29b0:	13 97       	sbiw	r26, 0x03	; 3
		DIGIT[0][2] = fnd_tbl[Weight_1000];				// Ή╕κΉιΧΈυ┤Ά▓Ν  10.00Ήζα ΉηΡΈου
    29b2:	ef 2d       	mov	r30, r15
    29b4:	f0 e0       	ldi	r31, 0x00	; 0
    29b6:	e4 57       	subi	r30, 0x74	; 116
    29b8:	ff 4b       	sbci	r31, 0xBF	; 191
    29ba:	80 81       	ld	r24, Z
    29bc:	12 96       	adiw	r26, 0x02	; 2
    29be:	8c 93       	st	X, r24
    29c0:	12 97       	sbiw	r26, 0x02	; 2
		DIGIT[0][1] = fnd_tbl[Weight_100]+FND_Point;			// Ή╕κΉιΧΈυ┤Ά▓Ν   1.00Ήζα ΉηΡΈου
    29c2:	e0 2f       	mov	r30, r16
    29c4:	f0 e0       	ldi	r31, 0x00	; 0
    29c6:	e4 57       	subi	r30, 0x74	; 116
    29c8:	ff 4b       	sbci	r31, 0xBF	; 191
    29ca:	80 81       	ld	r24, Z
    29cc:	8f 5f       	subi	r24, 0xFF	; 255
    29ce:	11 96       	adiw	r26, 0x01	; 1
    29d0:	8c 93       	st	X, r24
    29d2:	11 97       	sbiw	r26, 0x01	; 1
		DIGIT[0][0] = fnd_tbl[Weight_10];				// Ή╕κΉιΧΈυ┤Ά▓Ν   0.10Ήζα ΉηΡΈου
    29d4:	e1 2f       	mov	r30, r17
    29d6:	f0 e0       	ldi	r31, 0x00	; 0
    29d8:	e4 57       	subi	r30, 0x74	; 116
    29da:	ff 4b       	sbci	r31, 0xBF	; 191
    29dc:	80 81       	ld	r24, Z
    29de:	8c 93       	st	X, r24
    29e0:	58 c0       	rjmp	.+176    	; 0x2a92 <Cell_Desplay+0x1de>
	}
	else if(CELL.Value > 1000)						// Ή╕κΉιΧΈυ┤Ά▓Ν 10Kg Έ│┤ΈΜν ΊΒυΈσ┤
    29e2:	80 91 a1 4a 	lds	r24, 0x4AA1	; 0x804aa1 <CELL+0x1>
    29e6:	90 91 a2 4a 	lds	r25, 0x4AA2	; 0x804aa2 <CELL+0x2>
    29ea:	a0 91 a3 4a 	lds	r26, 0x4AA3	; 0x804aa3 <CELL+0x3>
    29ee:	b0 91 a4 4a 	lds	r27, 0x4AA4	; 0x804aa4 <CELL+0x4>
    29f2:	89 3e       	cpi	r24, 0xE9	; 233
    29f4:	93 40       	sbci	r25, 0x03	; 3
    29f6:	a1 05       	cpc	r26, r1
    29f8:	b1 05       	cpc	r27, r1
    29fa:	14 f1       	brlt	.+68     	; 0x2a40 <Cell_Desplay+0x18c>
	{
		DIGIT[0][3] = fnd_tbl[Weight_1000];				// Ή╕κΉιΧΈυ┤Ά▓Ν 10.00Ήζα ΉηΡΈου
    29fc:	ef 2d       	mov	r30, r15
    29fe:	f0 e0       	ldi	r31, 0x00	; 0
    2a00:	e4 57       	subi	r30, 0x74	; 116
    2a02:	ff 4b       	sbci	r31, 0xBF	; 191
    2a04:	80 81       	ld	r24, Z
    2a06:	a3 ec       	ldi	r26, 0xC3	; 195
    2a08:	b0 e4       	ldi	r27, 0x40	; 64
    2a0a:	13 96       	adiw	r26, 0x03	; 3
    2a0c:	8c 93       	st	X, r24
    2a0e:	13 97       	sbiw	r26, 0x03	; 3
		DIGIT[0][2] = fnd_tbl[Weight_100]+FND_Point;			// Ή╕κΉιΧΈυ┤Ά▓Ν  1.00Ήζα ΉηΡΈου
    2a10:	e0 2f       	mov	r30, r16
    2a12:	f0 e0       	ldi	r31, 0x00	; 0
    2a14:	e4 57       	subi	r30, 0x74	; 116
    2a16:	ff 4b       	sbci	r31, 0xBF	; 191
    2a18:	80 81       	ld	r24, Z
    2a1a:	8f 5f       	subi	r24, 0xFF	; 255
    2a1c:	12 96       	adiw	r26, 0x02	; 2
    2a1e:	8c 93       	st	X, r24
    2a20:	12 97       	sbiw	r26, 0x02	; 2
		DIGIT[0][1] = fnd_tbl[Weight_10];				// Ή╕κΉιΧΈυ┤Ά▓Ν  0.10Ήζα ΉηΡΈου
    2a22:	e1 2f       	mov	r30, r17
    2a24:	f0 e0       	ldi	r31, 0x00	; 0
    2a26:	e4 57       	subi	r30, 0x74	; 116
    2a28:	ff 4b       	sbci	r31, 0xBF	; 191
    2a2a:	80 81       	ld	r24, Z
    2a2c:	11 96       	adiw	r26, 0x01	; 1
    2a2e:	8c 93       	st	X, r24
    2a30:	11 97       	sbiw	r26, 0x01	; 1
		DIGIT[0][0] = fnd_tbl[Weight_1];				// Ή╕κΉιΧΈυ┤Ά▓Ν  0.01Ήζα ΉηΡΈου
    2a32:	e6 2f       	mov	r30, r22
    2a34:	f0 e0       	ldi	r31, 0x00	; 0
    2a36:	e4 57       	subi	r30, 0x74	; 116
    2a38:	ff 4b       	sbci	r31, 0xBF	; 191
    2a3a:	80 81       	ld	r24, Z
    2a3c:	8c 93       	st	X, r24
    2a3e:	29 c0       	rjmp	.+82     	; 0x2a92 <Cell_Desplay+0x1de>
	}
	else if(CELL.Value < 1000)						// Ή╕κΉιΧΈυ┤Ά▓Ν 10Kg Έ│┤ΈΜν ΉηΣΉε╝Έσ┤
    2a40:	80 91 a1 4a 	lds	r24, 0x4AA1	; 0x804aa1 <CELL+0x1>
    2a44:	90 91 a2 4a 	lds	r25, 0x4AA2	; 0x804aa2 <CELL+0x2>
    2a48:	a0 91 a3 4a 	lds	r26, 0x4AA3	; 0x804aa3 <CELL+0x3>
    2a4c:	b0 91 a4 4a 	lds	r27, 0x4AA4	; 0x804aa4 <CELL+0x4>
    2a50:	88 3e       	cpi	r24, 0xE8	; 232
    2a52:	93 40       	sbci	r25, 0x03	; 3
    2a54:	a1 05       	cpc	r26, r1
    2a56:	b1 05       	cpc	r27, r1
    2a58:	e4 f4       	brge	.+56     	; 0x2a92 <Cell_Desplay+0x1de>
	{
		DIGIT[0][3] = FND_OFF;						// Ή╕κΉιΧΈυ┤Ά▓Ν 10.00Ήζα ΉηΡΈου OFF
    2a5a:	a3 ec       	ldi	r26, 0xC3	; 195
    2a5c:	b0 e4       	ldi	r27, 0x40	; 64
    2a5e:	13 96       	adiw	r26, 0x03	; 3
    2a60:	1c 92       	st	X, r1
    2a62:	13 97       	sbiw	r26, 0x03	; 3
		DIGIT[0][2] = fnd_tbl[Weight_100]+FND_Point;			// Ή╕κΉιΧΈυ┤Ά▓Ν  1.00Ήζα ΉηΡΈου
    2a64:	e0 2f       	mov	r30, r16
    2a66:	f0 e0       	ldi	r31, 0x00	; 0
    2a68:	e4 57       	subi	r30, 0x74	; 116
    2a6a:	ff 4b       	sbci	r31, 0xBF	; 191
    2a6c:	80 81       	ld	r24, Z
    2a6e:	8f 5f       	subi	r24, 0xFF	; 255
    2a70:	12 96       	adiw	r26, 0x02	; 2
    2a72:	8c 93       	st	X, r24
    2a74:	12 97       	sbiw	r26, 0x02	; 2
		DIGIT[0][1] = fnd_tbl[Weight_10];				// Ή╕κΉιΧΈυ┤Ά▓Ν  0.10Ήζα ΉηΡΈου
    2a76:	e1 2f       	mov	r30, r17
    2a78:	f0 e0       	ldi	r31, 0x00	; 0
    2a7a:	e4 57       	subi	r30, 0x74	; 116
    2a7c:	ff 4b       	sbci	r31, 0xBF	; 191
    2a7e:	80 81       	ld	r24, Z
    2a80:	11 96       	adiw	r26, 0x01	; 1
    2a82:	8c 93       	st	X, r24
    2a84:	11 97       	sbiw	r26, 0x01	; 1
		DIGIT[0][0] = fnd_tbl[Weight_1];				// Ή╕κΉιΧΈυ┤Ά▓Ν  0.01Ήζα ΉηΡΈου
    2a86:	e6 2f       	mov	r30, r22
    2a88:	f0 e0       	ldi	r31, 0x00	; 0
    2a8a:	e4 57       	subi	r30, 0x74	; 116
    2a8c:	ff 4b       	sbci	r31, 0xBF	; 191
    2a8e:	80 81       	ld	r24, Z
    2a90:	8c 93       	st	X, r24
	}
}
    2a92:	df 91       	pop	r29
    2a94:	cf 91       	pop	r28
    2a96:	1f 91       	pop	r17
    2a98:	0f 91       	pop	r16
    2a9a:	ff 90       	pop	r15
    2a9c:	ef 90       	pop	r14
    2a9e:	bf 90       	pop	r11
    2aa0:	af 90       	pop	r10
    2aa2:	9f 90       	pop	r9
    2aa4:	8f 90       	pop	r8
    2aa6:	08 95       	ret

00002aa8 <Load_Cell_Read>:

//=================================================================================================
int32_t Load_Cell_Read(void)							// ΈκεΈΥεΉΖΑ Data Ήζ╜Ά╕░, HX711 ΉιεΉΨ┤
{
    2aa8:	cf 92       	push	r12
    2aaa:	df 92       	push	r13
    2aac:	ef 92       	push	r14
    2aae:	ff 92       	push	r15
	int32_t Value = 0;							// Data ΉιΑΉηξΉγσ Έ│ΑΉΙα Ή┤ΙΆ╕░ΊβΦ

	SCK_LOW_1;								// HX711 SCk LOW
    2ab0:	e4 e4       	ldi	r30, 0x44	; 68
    2ab2:	f4 e0       	ldi	r31, 0x04	; 4
    2ab4:	80 81       	ld	r24, Z
    2ab6:	8b 7f       	andi	r24, 0xFB	; 251
    2ab8:	80 83       	st	Z, r24
	while(DO1);								// HX711 SDAΆ░Α HIGH Ήζ┤Έσ┤ ΈΝΑΆ╕░
    2aba:	80 91 48 04 	lds	r24, 0x0448	; 0x800448 <__TEXT_REGION_LENGTH__+0x7e0448>
    2abe:	83 ff       	sbrs	r24, 3
    2ac0:	fc cf       	rjmp	.-8      	; 0x2aba <Load_Cell_Read+0x12>
    2ac2:	90 e0       	ldi	r25, 0x00	; 0
    2ac4:	40 e0       	ldi	r20, 0x00	; 0
    2ac6:	50 e0       	ldi	r21, 0x00	; 0
    2ac8:	ba 01       	movw	r22, r20
    2aca:	1d c0       	rjmp	.+58     	; 0x2b06 <Load_Cell_Read+0x5e>
	for(uint8_t i = 0; i < 24; i++)						// 24bit Data ΈπΝΊΒ╝ Έ░αΈ│╡
	{
		Value = Value << 1;						// Data 1ΉηΡΈου ΉΚυΊΦΕΊΛ╕
    2acc:	44 0f       	add	r20, r20
    2ace:	55 1f       	adc	r21, r21
    2ad0:	66 1f       	adc	r22, r22
    2ad2:	77 1f       	adc	r23, r23
		SCK_HIGH_1;							// HX711 SCk HIGH
    2ad4:	e4 e4       	ldi	r30, 0x44	; 68
    2ad6:	f4 e0       	ldi	r31, 0x04	; 4
    2ad8:	80 81       	ld	r24, Z
    2ada:	84 60       	ori	r24, 0x04	; 4
    2adc:	80 83       	st	Z, r24
    2ade:	22 e6       	ldi	r18, 0x62	; 98
    2ae0:	2a 95       	dec	r18
    2ae2:	f1 f7       	brne	.-4      	; 0x2ae0 <Load_Cell_Read+0x38>
    2ae4:	00 00       	nop
		_delay_us(20);
		SCK_LOW_1;							// HX711 SCk LOW
    2ae6:	80 81       	ld	r24, Z
    2ae8:	8b 7f       	andi	r24, 0xFB	; 251
    2aea:	80 83       	st	Z, r24
    2aec:	82 e6       	ldi	r24, 0x62	; 98
    2aee:	8a 95       	dec	r24
    2af0:	f1 f7       	brne	.-4      	; 0x2aee <Load_Cell_Read+0x46>
    2af2:	00 00       	nop
		_delay_us(20);
		if(DO1) {Value++;}						// HX711 SDAΆ░Α HIGH Ήζ┤Έσ┤ Bit Data ΈΞΦΊΧαΆ╕░
    2af4:	80 91 48 04 	lds	r24, 0x0448	; 0x800448 <__TEXT_REGION_LENGTH__+0x7e0448>
    2af8:	83 fd       	sbrc	r24, 3
    2afa:	04 c0       	rjmp	.+8      	; 0x2b04 <Load_Cell_Read+0x5c>
    2afc:	4f 5f       	subi	r20, 0xFF	; 255
    2afe:	5f 4f       	sbci	r21, 0xFF	; 255
    2b00:	6f 4f       	sbci	r22, 0xFF	; 255
    2b02:	7f 4f       	sbci	r23, 0xFF	; 255
{
	int32_t Value = 0;							// Data ΉιΑΉηξΉγσ Έ│ΑΉΙα Ή┤ΙΆ╕░ΊβΦ

	SCK_LOW_1;								// HX711 SCk LOW
	while(DO1);								// HX711 SDAΆ░Α HIGH Ήζ┤Έσ┤ ΈΝΑΆ╕░
	for(uint8_t i = 0; i < 24; i++)						// 24bit Data ΈπΝΊΒ╝ Έ░αΈ│╡
    2b04:	9f 5f       	subi	r25, 0xFF	; 255
    2b06:	98 31       	cpi	r25, 0x18	; 24
    2b08:	08 f3       	brcs	.-62     	; 0x2acc <Load_Cell_Read+0x24>
		_delay_us(20);
		SCK_LOW_1;							// HX711 SCk LOW
		_delay_us(20);
		if(DO1) {Value++;}						// HX711 SDAΆ░Α HIGH Ήζ┤Έσ┤ Bit Data ΈΞΦΊΧαΆ╕░
	}
	SCK_HIGH_1;								// HX711 SCk HIGH
    2b0a:	e4 e4       	ldi	r30, 0x44	; 68
    2b0c:	f4 e0       	ldi	r31, 0x04	; 4
    2b0e:	80 81       	ld	r24, Z
    2b10:	84 60       	ori	r24, 0x04	; 4
    2b12:	80 83       	st	Z, r24
    2b14:	92 e6       	ldi	r25, 0x62	; 98
    2b16:	9a 95       	dec	r25
    2b18:	f1 f7       	brne	.-4      	; 0x2b16 <Load_Cell_Read+0x6e>
    2b1a:	00 00       	nop
	_delay_us(20);
	SCK_LOW_1;								// HX711 SCk LOW
    2b1c:	80 81       	ld	r24, Z
    2b1e:	8b 7f       	andi	r24, 0xFB	; 251
    2b20:	80 83       	st	Z, r24
	#else
		//round up by default
		__ticks_dc = (uint32_t)(ceil(fabs(__tmp)));
	#endif

	__builtin_avr_delay_cycles(__ticks_dc);
    2b22:	2f ef       	ldi	r18, 0xFF	; 255
    2b24:	8f e7       	ldi	r24, 0x7F	; 127
    2b26:	94 e0       	ldi	r25, 0x04	; 4
    2b28:	21 50       	subi	r18, 0x01	; 1
    2b2a:	80 40       	sbci	r24, 0x00	; 0
    2b2c:	90 40       	sbci	r25, 0x00	; 0
    2b2e:	e1 f7       	brne	.-8      	; 0x2b28 <Load_Cell_Read+0x80>
    2b30:	00 c0       	rjmp	.+0      	; 0x2b32 <Load_Cell_Read+0x8a>
    2b32:	00 00       	nop
	_delay_ms(100);
	Value = Value ^ 0x400000;						// ΉιΕΉ▓┤ Data Ήζα 2Ήζα Έ│┤ΉΙα Ά░Τ Ά╡υΊΧαΆ╕░
    2b34:	cb 01       	movw	r24, r22
    2b36:	ba 01       	movw	r22, r20
    2b38:	20 e4       	ldi	r18, 0x40	; 64
    2b3a:	82 27       	eor	r24, r18
	if(Value > 0x7FF000) {Value = 0;}					// ΉιΕΉ▓┤ Data Ά░Α ΉΔΒΊΧεΆ░Τ Ήζ┤ΉΔΒΉζ┤Έσ┤ Data Ή┤ΙΆ╕░ΊβΦ
    2b3c:	61 30       	cpi	r22, 0x01	; 1
    2b3e:	20 ef       	ldi	r18, 0xF0	; 240
    2b40:	72 07       	cpc	r23, r18
    2b42:	2f e7       	ldi	r18, 0x7F	; 127
    2b44:	82 07       	cpc	r24, r18
    2b46:	91 05       	cpc	r25, r1
    2b48:	1c f0       	brlt	.+6      	; 0x2b50 <Load_Cell_Read+0xa8>
    2b4a:	60 e0       	ldi	r22, 0x00	; 0
    2b4c:	70 e0       	ldi	r23, 0x00	; 0
    2b4e:	cb 01       	movw	r24, r22
	Value = Value / 1000;							// ΈΓχΉζΑ Data Ά░Τ ΉπΑΉγ░Ά╕░
    2b50:	28 ee       	ldi	r18, 0xE8	; 232
    2b52:	33 e0       	ldi	r19, 0x03	; 3
    2b54:	40 e0       	ldi	r20, 0x00	; 0
    2b56:	50 e0       	ldi	r21, 0x00	; 0
    2b58:	0e 94 f6 35 	call	0x6bec	; 0x6bec <__divmodsi4>
	Value = Value * 1000;							// ΈΓχΉζΑ Data Ά░Τ ΉπΑΉγ░Ά╕░
    2b5c:	a8 ee       	ldi	r26, 0xE8	; 232
    2b5e:	b3 e0       	ldi	r27, 0x03	; 3
    2b60:	0e 94 2d 36 	call	0x6c5a	; 0x6c5a <__muluhisi3>
	Value = Value / CELL.Proportion;					// Data / Έ╣ΕΉερ = Έυ┤Ά▓Ν
    2b64:	c0 90 b1 4a 	lds	r12, 0x4AB1	; 0x804ab1 <CELL+0x11>
    2b68:	d0 90 b2 4a 	lds	r13, 0x4AB2	; 0x804ab2 <CELL+0x12>
    2b6c:	e0 90 b3 4a 	lds	r14, 0x4AB3	; 0x804ab3 <CELL+0x13>
    2b70:	f0 90 b4 4a 	lds	r15, 0x4AB4	; 0x804ab4 <CELL+0x14>
    2b74:	0e 94 fe 30 	call	0x61fc	; 0x61fc <__floatsisf>
    2b78:	a7 01       	movw	r20, r14
    2b7a:	96 01       	movw	r18, r12
    2b7c:	0e 94 54 30 	call	0x60a8	; 0x60a8 <__divsf3>
    2b80:	0e 94 c6 30 	call	0x618c	; 0x618c <__fixsfsi>
	return(Value);								// ΈουΊΕ┤ Έυ┤Ά▓Ν Data
}
    2b84:	ff 90       	pop	r15
    2b86:	ef 90       	pop	r14
    2b88:	df 90       	pop	r13
    2b8a:	cf 90       	pop	r12
    2b8c:	08 95       	ret

00002b8e <Cell_Zero_Set>:
	return(ValSum);								// ΈουΊΕ┤ ValSum
}

//=================================================================================================
void Cell_Zero_Set(void)							// ΈκεΈΥεΉΖΑ 0 Ά░Τ Ή░╛Ά╕░
{
    2b8e:	0f 93       	push	r16
    2b90:	1f 93       	push	r17
	int32_t Value = 0;							// Ή╕κΉιΧ Ά░Τ Έ│ΑΉΙα Ή┤ΙΆ╕░ΊβΦ
	int32_t Value_Sum = 0;							// Ή╕κΉιΧ Ά░Τ Ά│ΕΉΓ░ Έ│ΑΉΙα Ή┤ΙΆ╕░ΊβΦ

	Value = Load_Cell_Read();						// ΈκεΈΥεΉΖΑ Data Ήζ╜Ά╕░
    2b92:	0e 94 54 15 	call	0x2aa8	; 0x2aa8 <Load_Cell_Read>
    2b96:	8b 01       	movw	r16, r22
    2b98:	9c 01       	movw	r18, r24
	do{
		Value_Sum = CELL.OFF_Set - Value;				// ΈκεΈΥεΉΖΑ OFF_Set Ή┤ΙΆ╕░Ά░Τ(20Kg) - Data = Value_Sum
    2b9a:	80 91 ad 4a 	lds	r24, 0x4AAD	; 0x804aad <CELL+0xd>
    2b9e:	90 91 ae 4a 	lds	r25, 0x4AAE	; 0x804aae <CELL+0xe>
    2ba2:	a0 91 af 4a 	lds	r26, 0x4AAF	; 0x804aaf <CELL+0xf>
    2ba6:	b0 91 b0 4a 	lds	r27, 0x4AB0	; 0x804ab0 <CELL+0x10>
    2baa:	80 1b       	sub	r24, r16
    2bac:	91 0b       	sbc	r25, r17
    2bae:	a2 0b       	sbc	r26, r18
    2bb0:	b3 0b       	sbc	r27, r19
		if     (Value_Sum > 0) {CELL.OFF_Set = CELL.OFF_Set - Value_Sum;}	// Value_Sum Ά░ΤΉζ┤ 0 Έ│┤ΈΜν   ΊΒυΈσ┤ OFF_Set - Value_Sum ΊΧ┤ΉΕε OFF_SetΉΩΡ ΉιΑΉηξ
    2bb2:	18 16       	cp	r1, r24
    2bb4:	19 06       	cpc	r1, r25
    2bb6:	1a 06       	cpc	r1, r26
    2bb8:	1b 06       	cpc	r1, r27
    2bba:	7c f4       	brge	.+30     	; 0x2bda <Cell_Zero_Set+0x4c>
    2bbc:	e0 ea       	ldi	r30, 0xA0	; 160
    2bbe:	fa e4       	ldi	r31, 0x4A	; 74
    2bc0:	45 85       	ldd	r20, Z+13	; 0x0d
    2bc2:	56 85       	ldd	r21, Z+14	; 0x0e
    2bc4:	67 85       	ldd	r22, Z+15	; 0x0f
    2bc6:	70 89       	ldd	r23, Z+16	; 0x10
    2bc8:	48 1b       	sub	r20, r24
    2bca:	59 0b       	sbc	r21, r25
    2bcc:	6a 0b       	sbc	r22, r26
    2bce:	7b 0b       	sbc	r23, r27
    2bd0:	45 87       	std	Z+13, r20	; 0x0d
    2bd2:	56 87       	std	Z+14, r21	; 0x0e
    2bd4:	67 87       	std	Z+15, r22	; 0x0f
    2bd6:	70 8b       	std	Z+16, r23	; 0x10
    2bd8:	10 c0       	rjmp	.+32     	; 0x2bfa <Cell_Zero_Set+0x6c>
		else if(Value_Sum < 0) {CELL.OFF_Set = CELL.OFF_Set + Value_Sum;}	// Value_Sum Ά░ΤΉζ┤ 0 Έ│┤ΈΜν ΉηΣΉε╝Έσ┤ OFF_Set + Value_Sum ΊΧ┤ΉΕε OFF_SetΉΩΡ ΉιΑΉηξ
    2bda:	bb 23       	and	r27, r27
    2bdc:	74 f4       	brge	.+28     	; 0x2bfa <Cell_Zero_Set+0x6c>
    2bde:	e0 ea       	ldi	r30, 0xA0	; 160
    2be0:	fa e4       	ldi	r31, 0x4A	; 74
    2be2:	45 85       	ldd	r20, Z+13	; 0x0d
    2be4:	56 85       	ldd	r21, Z+14	; 0x0e
    2be6:	67 85       	ldd	r22, Z+15	; 0x0f
    2be8:	70 89       	ldd	r23, Z+16	; 0x10
    2bea:	48 0f       	add	r20, r24
    2bec:	59 1f       	adc	r21, r25
    2bee:	6a 1f       	adc	r22, r26
    2bf0:	7b 1f       	adc	r23, r27
    2bf2:	45 87       	std	Z+13, r20	; 0x0d
    2bf4:	56 87       	std	Z+14, r21	; 0x0e
    2bf6:	67 87       	std	Z+15, r22	; 0x0f
    2bf8:	70 8b       	std	Z+16, r23	; 0x10
	}while(Value_Sum != 0);							// !Value_Sum Ήζ┤ 0 Ήζ╝ΈΧΝΆ╣ΝΉπΑ Έ░αΈ│╡
    2bfa:	89 2b       	or	r24, r25
    2bfc:	8a 2b       	or	r24, r26
    2bfe:	8b 2b       	or	r24, r27
    2c00:	61 f6       	brne	.-104    	; 0x2b9a <Cell_Zero_Set+0xc>
	Beep(10);
    2c02:	8a e0       	ldi	r24, 0x0A	; 10
    2c04:	90 e0       	ldi	r25, 0x00	; 0
    2c06:	0e 94 3b 04 	call	0x876	; 0x876 <Beep>
    2c0a:	26 e6       	ldi	r18, 0x66	; 102
    2c0c:	86 ee       	ldi	r24, 0xE6	; 230
    2c0e:	90 e0       	ldi	r25, 0x00	; 0
    2c10:	21 50       	subi	r18, 0x01	; 1
    2c12:	80 40       	sbci	r24, 0x00	; 0
    2c14:	90 40       	sbci	r25, 0x00	; 0
    2c16:	e1 f7       	brne	.-8      	; 0x2c10 <Cell_Zero_Set+0x82>
	_delay_ms(20);
	wdt_reset();								// Reset WDT
    2c18:	0e 94 78 0c 	call	0x18f0	; 0x18f0 <wdt_reset>
}
    2c1c:	1f 91       	pop	r17
    2c1e:	0f 91       	pop	r16
    2c20:	08 95       	ret

00002c22 <Read_Load_Cell>:
	return(Value);								// ΈουΊΕ┤ Έυ┤Ά▓Ν Data
}

//=================================================================================================
uint16_t Read_Load_Cell(void)							// ΈκεΈΥεΉΖΑ Ή╕κΉιΧΆ░Τ Ήζ╜Ά╕░
{
    2c22:	4f 92       	push	r4
    2c24:	5f 92       	push	r5
    2c26:	6f 92       	push	r6
    2c28:	7f 92       	push	r7
    2c2a:	8f 92       	push	r8
    2c2c:	9f 92       	push	r9
    2c2e:	af 92       	push	r10
    2c30:	bf 92       	push	r11
    2c32:	cf 92       	push	r12
    2c34:	df 92       	push	r13
    2c36:	ef 92       	push	r14
    2c38:	ff 92       	push	r15
	int32_t Value = 0;							// Ή╕κΉιΧΆ░Τ ΉιΑΉηξΉγσ Έ│ΑΉΙα Ή┤ΙΆ╕░ΊβΦ
	int32_t ValSum = 0;							// OFF-Set Ά│ΕΉΓ░Ά░Τ ΉιΑΉηξΉγσ Έ│ΑΉΙα Ή┤ΙΆ╕░ΊβΦ
	uint8_t Set_cnt = 5;							// Ή┤ΙΆ╕░ΊβΦ Ή╣┤Ήγ┤ΊΕ░
	uint32_t CAPA;								// Cell_Capa * 1000
	int32_t OFF_SET = CELL.OFF_Set;						// ΈκεΈΥεΉΖΑ OFF_Set(ΉηΖΈιξΆ░ΤΉζΕ 0Ά░Τ Ήε╝Έκε ΈπΝΈΥνΆ╕░ΉεΕΊΧε Ά░Τ)
    2c3a:	80 90 ad 4a 	lds	r8, 0x4AAD	; 0x804aad <CELL+0xd>
    2c3e:	90 90 ae 4a 	lds	r9, 0x4AAE	; 0x804aae <CELL+0xe>
    2c42:	a0 90 af 4a 	lds	r10, 0x4AAF	; 0x804aaf <CELL+0xf>
    2c46:	b0 90 b0 4a 	lds	r11, 0x4AB0	; 0x804ab0 <CELL+0x10>
//-------------------------------------------------------------------------------------------------
	Value = Load_Cell_Read();						// ΈκεΈΥεΉΖΑ Ή╕κΉιΧΆ░Τ Ήζ╜Ά╕░
    2c4a:	0e 94 54 15 	call	0x2aa8	; 0x2aa8 <Load_Cell_Read>
    2c4e:	2b 01       	movw	r4, r22
    2c50:	3c 01       	movw	r6, r24
	CAPA = Cell_Capa * 1000;
    2c52:	20 91 f3 4a 	lds	r18, 0x4AF3	; 0x804af3 <Cell_Capa>
    2c56:	30 91 f4 4a 	lds	r19, 0x4AF4	; 0x804af4 <Cell_Capa+0x1>
    2c5a:	40 91 f5 4a 	lds	r20, 0x4AF5	; 0x804af5 <Cell_Capa+0x2>
    2c5e:	50 91 f6 4a 	lds	r21, 0x4AF6	; 0x804af6 <Cell_Capa+0x3>
    2c62:	a8 ee       	ldi	r26, 0xE8	; 232
    2c64:	b3 e0       	ldi	r27, 0x03	; 3
    2c66:	0e 94 2d 36 	call	0x6c5a	; 0x6c5a <__muluhisi3>
    2c6a:	6b 01       	movw	r12, r22
    2c6c:	7c 01       	movw	r14, r24
//-------------------------------------------------------------------------------------------------
	if(Value > 0)								// Έυ┤Ά▓Ν Data Ά░Α ΉηΙΉε╝Έσ┤
    2c6e:	14 14       	cp	r1, r4
    2c70:	15 04       	cpc	r1, r5
    2c72:	16 04       	cpc	r1, r6
    2c74:	17 04       	cpc	r1, r7
    2c76:	0c f0       	brlt	.+2      	; 0x2c7a <Read_Load_Cell+0x58>
    2c78:	66 c0       	rjmp	.+204    	; 0x2d46 <Read_Load_Cell+0x124>
	{
		ValSum = Value - CELL.OFF_Set;					// Έυ┤Ά▓Ν Data - OFF_Set
    2c7a:	80 91 ad 4a 	lds	r24, 0x4AAD	; 0x804aad <CELL+0xd>
    2c7e:	90 91 ae 4a 	lds	r25, 0x4AAE	; 0x804aae <CELL+0xe>
    2c82:	a0 91 af 4a 	lds	r26, 0x4AAF	; 0x804aaf <CELL+0xf>
    2c86:	b0 91 b0 4a 	lds	r27, 0x4AB0	; 0x804ab0 <CELL+0x10>
    2c8a:	a3 01       	movw	r20, r6
    2c8c:	92 01       	movw	r18, r4
    2c8e:	28 1b       	sub	r18, r24
    2c90:	39 0b       	sbc	r19, r25
    2c92:	4a 0b       	sbc	r20, r26
    2c94:	5b 0b       	sbc	r21, r27
    2c96:	ca 01       	movw	r24, r20
    2c98:	b9 01       	movw	r22, r18
// 				}
// 			}
// 			else {CELL.Old_ValSum = ValSum;}			// Old_ValSum ΉζΕ ValSum Έκε ΉιΑΉηξ
// 		}

		if(ValSum == 0)	{Value_Count = 0;}				// Value_Count Ή┤ΙΆ╕░ΊβΦ
    2c9a:	11 f4       	brne	.+4      	; 0x2ca0 <Read_Load_Cell+0x7e>
    2c9c:	10 92 b6 4a 	sts	0x4AB6, r1	; 0x804ab6 <Value_Count>
//-------------------------------------------------------------------------------------------------
//		printf("ValSum %ld \r\n", ValSum);
 		if(ValSum < 0 || ValSum > 10000000)				// ValSum Ήζ┤ 0 Έ│┤ΈΜν ΉηΣΆ▒░ΈΓα 1Ton Έ│┤ΈΜν ΊΒυΈσ┤ Ή╡εΆ╕░ΊβΦ Ή╣┤Ήγ┤ΊΕ░ 
    2ca0:	61 38       	cpi	r22, 0x81	; 129
    2ca2:	36 e9       	ldi	r19, 0x96	; 150
    2ca4:	73 07       	cpc	r23, r19
    2ca6:	38 e9       	ldi	r19, 0x98	; 152
    2ca8:	83 07       	cpc	r24, r19
    2caa:	91 05       	cpc	r25, r1
    2cac:	c0 f0       	brcs	.+48     	; 0x2cde <Read_Load_Cell+0xbc>
		{
			Value_Count++;						// Value_Count ΉοζΆ░Α
    2cae:	80 91 b6 4a 	lds	r24, 0x4AB6	; 0x804ab6 <Value_Count>
    2cb2:	8f 5f       	subi	r24, 0xFF	; 255
    2cb4:	80 93 b6 4a 	sts	0x4AB6, r24	; 0x804ab6 <Value_Count>
			if(Value_Count > Set_cnt)				// Value_Count Ά░Α Ή┤ΙΆ╕░ΊβΦ Ά░Τ Έ│┤ΈΜν ΊΒυΈσ┤
    2cb8:	86 30       	cpi	r24, 0x06	; 6
    2cba:	70 f0       	brcs	.+28     	; 0x2cd8 <Read_Load_Cell+0xb6>
			{
				Cell_Zero_Set();				// ΈκεΈΥεΉΖΑ 0 Ά░Τ Ή░╛Ά╕░ 2ΊγΝ Έ░αΈ│╡
    2cbc:	0e 94 c7 15 	call	0x2b8e	; 0x2b8e <Cell_Zero_Set>
    2cc0:	8f ef       	ldi	r24, 0xFF	; 255
    2cc2:	9f e8       	ldi	r25, 0x8F	; 143
    2cc4:	01 97       	sbiw	r24, 0x01	; 1
    2cc6:	f1 f7       	brne	.-4      	; 0x2cc4 <Read_Load_Cell+0xa2>
    2cc8:	00 c0       	rjmp	.+0      	; 0x2cca <Read_Load_Cell+0xa8>
    2cca:	00 00       	nop
				_delay_ms(10);
				Cell_Zero_Set();
    2ccc:	0e 94 c7 15 	call	0x2b8e	; 0x2b8e <Cell_Zero_Set>
			}
			ValSum = 0;						// ValSum ΉζΕ 0Ήε╝Έκε Ή┤ΙΆ╕░ΊβΦ
    2cd0:	60 e0       	ldi	r22, 0x00	; 0
    2cd2:	70 e0       	ldi	r23, 0x00	; 0
    2cd4:	cb 01       	movw	r24, r22
    2cd6:	03 c0       	rjmp	.+6      	; 0x2cde <Read_Load_Cell+0xbc>
    2cd8:	60 e0       	ldi	r22, 0x00	; 0
    2cda:	70 e0       	ldi	r23, 0x00	; 0
    2cdc:	cb 01       	movw	r24, r22
		}

 		if(ValSum > 0 && IN_Scales > ValSum)				// ValSum Ήζ┤ 0 ΊΒυΆ│ι ΉηΖΆ╡υΉ▓┤ΉνΣ Έ│┤ΈΜν ΉηΣΉε╝Έσ┤
    2cde:	16 16       	cp	r1, r22
    2ce0:	17 06       	cpc	r1, r23
    2ce2:	18 06       	cpc	r1, r24
    2ce4:	19 06       	cpc	r1, r25
    2ce6:	4c f5       	brge	.+82     	; 0x2d3a <Read_Load_Cell+0x118>
    2ce8:	40 90 88 4a 	lds	r4, 0x4A88	; 0x804a88 <IN_Scales>
    2cec:	50 90 89 4a 	lds	r5, 0x4A89	; 0x804a89 <IN_Scales+0x1>
    2cf0:	05 2c       	mov	r0, r5
    2cf2:	00 0c       	add	r0, r0
    2cf4:	66 08       	sbc	r6, r6
    2cf6:	77 08       	sbc	r7, r7
    2cf8:	64 15       	cp	r22, r4
    2cfa:	75 05       	cpc	r23, r5
    2cfc:	86 05       	cpc	r24, r6
    2cfe:	97 05       	cpc	r25, r7
    2d00:	e4 f4       	brge	.+56     	; 0x2d3a <Read_Load_Cell+0x118>
 		{
			Value_Count++;						// Value_Count ΉοζΆ░Α
    2d02:	20 91 b6 4a 	lds	r18, 0x4AB6	; 0x804ab6 <Value_Count>
    2d06:	2f 5f       	subi	r18, 0xFF	; 255
    2d08:	20 93 b6 4a 	sts	0x4AB6, r18	; 0x804ab6 <Value_Count>
			if(Value_Count > Set_cnt)				// Value_Count Ά░Α Ή┤ΙΆ╕░ΊβΦ Ά░Τ Έ│┤ΈΜν ΊΒυΈσ┤
    2d0c:	26 30       	cpi	r18, 0x06	; 6
    2d0e:	90 f0       	brcs	.+36     	; 0x2d34 <Read_Load_Cell+0x112>
			{
	 			CELL.OFF_Set = OFF_SET + ValSum;				// OFF_Set + 25
    2d10:	dc 01       	movw	r26, r24
    2d12:	cb 01       	movw	r24, r22
    2d14:	88 0d       	add	r24, r8
    2d16:	99 1d       	adc	r25, r9
    2d18:	aa 1d       	adc	r26, r10
    2d1a:	bb 1d       	adc	r27, r11
    2d1c:	80 93 ad 4a 	sts	0x4AAD, r24	; 0x804aad <CELL+0xd>
    2d20:	90 93 ae 4a 	sts	0x4AAE, r25	; 0x804aae <CELL+0xe>
    2d24:	a0 93 af 4a 	sts	0x4AAF, r26	; 0x804aaf <CELL+0xf>
    2d28:	b0 93 b0 4a 	sts	0x4AB0, r27	; 0x804ab0 <CELL+0x10>
			}
			ValSum = 0;						// ValSum ΉζΕ 0Ήε╝Έκε Ή┤ΙΆ╕░ΊβΦ
    2d2c:	60 e0       	ldi	r22, 0x00	; 0
    2d2e:	70 e0       	ldi	r23, 0x00	; 0
    2d30:	cb 01       	movw	r24, r22
    2d32:	03 c0       	rjmp	.+6      	; 0x2d3a <Read_Load_Cell+0x118>
    2d34:	60 e0       	ldi	r22, 0x00	; 0
    2d36:	70 e0       	ldi	r23, 0x00	; 0
    2d38:	cb 01       	movw	r24, r22
 		}

		if(ValSum > CAPA) {ValSum = 0;}					// ValSum Ήζ┤ CAPA(200Kg) Έ│┤ΈΜν ΊΒυΈσ┤
    2d3a:	c6 16       	cp	r12, r22
    2d3c:	d7 06       	cpc	r13, r23
    2d3e:	e8 06       	cpc	r14, r24
    2d40:	f9 06       	cpc	r15, r25
    2d42:	28 f0       	brcs	.+10     	; 0x2d4e <Read_Load_Cell+0x12c>
    2d44:	07 c0       	rjmp	.+14     	; 0x2d54 <Read_Load_Cell+0x132>

//=================================================================================================
uint16_t Read_Load_Cell(void)							// ΈκεΈΥεΉΖΑ Ή╕κΉιΧΆ░Τ Ήζ╜Ά╕░
{
	int32_t Value = 0;							// Ή╕κΉιΧΆ░Τ ΉιΑΉηξΉγσ Έ│ΑΉΙα Ή┤ΙΆ╕░ΊβΦ
	int32_t ValSum = 0;							// OFF-Set Ά│ΕΉΓ░Ά░Τ ΉιΑΉηξΉγσ Έ│ΑΉΙα Ή┤ΙΆ╕░ΊβΦ
    2d46:	60 e0       	ldi	r22, 0x00	; 0
    2d48:	70 e0       	ldi	r23, 0x00	; 0
    2d4a:	cb 01       	movw	r24, r22
    2d4c:	03 c0       	rjmp	.+6      	; 0x2d54 <Read_Load_Cell+0x132>
	 			CELL.OFF_Set = OFF_SET + ValSum;				// OFF_Set + 25
			}
			ValSum = 0;						// ValSum ΉζΕ 0Ήε╝Έκε Ή┤ΙΆ╕░ΊβΦ
 		}

		if(ValSum > CAPA) {ValSum = 0;}					// ValSum Ήζ┤ CAPA(200Kg) Έ│┤ΈΜν ΊΒυΈσ┤
    2d4e:	60 e0       	ldi	r22, 0x00	; 0
    2d50:	70 e0       	ldi	r23, 0x00	; 0
    2d52:	cb 01       	movw	r24, r22
	}
	ValSum = ValSum / 10;							// ValSum Έξ╝ 10Ήε╝Έκε ΈΓαΈΙΦ
    2d54:	2a e0       	ldi	r18, 0x0A	; 10
    2d56:	30 e0       	ldi	r19, 0x00	; 0
    2d58:	40 e0       	ldi	r20, 0x00	; 0
    2d5a:	50 e0       	ldi	r21, 0x00	; 0
    2d5c:	0e 94 f6 35 	call	0x6bec	; 0x6bec <__divmodsi4>
	return(ValSum);								// ΈουΊΕ┤ ValSum
}
    2d60:	c9 01       	movw	r24, r18
    2d62:	ff 90       	pop	r15
    2d64:	ef 90       	pop	r14
    2d66:	df 90       	pop	r13
    2d68:	cf 90       	pop	r12
    2d6a:	bf 90       	pop	r11
    2d6c:	af 90       	pop	r10
    2d6e:	9f 90       	pop	r9
    2d70:	8f 90       	pop	r8
    2d72:	7f 90       	pop	r7
    2d74:	6f 90       	pop	r6
    2d76:	5f 90       	pop	r5
    2d78:	4f 90       	pop	r4
    2d7a:	08 95       	ret

00002d7c <IN_Scales_Set>:
}

//=================================================================================================
void IN_Scales_Set(void)							// IN_Scales ΉΕνΉιΧ
{
	DIGIT[2][0] = FND_OFF;							// ΈκεΈΥεΉΖΑ RO, ΉηΖΆ╡υΉ▓┤ΉνΣ 1Ήζα ΉηΡΈου ΉπΑΉγ░Ά╕░
    2d7c:	10 92 cb 40 	sts	0x40CB, r1	; 0x8040cb <DIGIT+0x8>

	IN_Scales = ee_read_word(Cell_IN_S_Addr);					// ΈκεΈΥεΉΖΑ Ήζ┤Έσ┤ ΉηΖΆ╡υΉ▓┤ΉνΣΆ░Τ Έ╢ΙΈθυΉανΆ╕░
    2d80:	88 e0       	ldi	r24, 0x08	; 8
    2d82:	90 e0       	ldi	r25, 0x00	; 0
    2d84:	0e 94 47 0f 	call	0x1e8e	; 0x1e8e <ee_read_word>
    2d88:	9c 01       	movw	r18, r24
    2d8a:	80 93 88 4a 	sts	0x4A88, r24	; 0x804a88 <IN_Scales>
    2d8e:	90 93 89 4a 	sts	0x4A89, r25	; 0x804a89 <IN_Scales+0x1>
//-------------------------------------------------------------------------------------------------
	IN_S_10000 = IN_Scales / 10000;						// ΈκεΈΥεΉΖΑ ΉηΖΆ╡υΉ▓┤ΉνΣ 10000Ήζα ΉηΡΈου
    2d92:	60 e1       	ldi	r22, 0x10	; 16
    2d94:	77 e2       	ldi	r23, 0x27	; 39
    2d96:	0e 94 c0 35 	call	0x6b80	; 0x6b80 <__divmodhi4>
    2d9a:	60 93 8a 4a 	sts	0x4A8A, r22	; 0x804a8a <IN_S_10000>
	IN_S_1000  = IN_Scales % 10000/ 1000;					// ΈκεΈΥεΉΖΑ ΉηΖΆ╡υΉ▓┤ΉνΣ  1000Ήζα ΉηΡΈου
    2d9e:	e8 ee       	ldi	r30, 0xE8	; 232
    2da0:	f3 e0       	ldi	r31, 0x03	; 3
    2da2:	bf 01       	movw	r22, r30
    2da4:	0e 94 c0 35 	call	0x6b80	; 0x6b80 <__divmodhi4>
    2da8:	60 93 03 4b 	sts	0x4B03, r22	; 0x804b03 <IN_S_1000>
	IN_S_100   = IN_Scales % 1000 / 100;					// ΈκεΈΥεΉΖΑ ΉηΖΆ╡υΉ▓┤ΉνΣ   100Ήζα ΉηΡΈου
    2dac:	c9 01       	movw	r24, r18
    2dae:	bf 01       	movw	r22, r30
    2db0:	0e 94 c0 35 	call	0x6b80	; 0x6b80 <__divmodhi4>
    2db4:	e4 e6       	ldi	r30, 0x64	; 100
    2db6:	f0 e0       	ldi	r31, 0x00	; 0
    2db8:	bf 01       	movw	r22, r30
    2dba:	0e 94 c0 35 	call	0x6b80	; 0x6b80 <__divmodhi4>
    2dbe:	60 93 8b 4a 	sts	0x4A8B, r22	; 0x804a8b <IN_S_100>
	IN_S_10    = IN_Scales % 100 / 10;					// ΈκεΈΥεΉΖΑ ΉηΖΆ╡υΉ▓┤ΉνΣ    10Ήζα ΉηΡΈου
    2dc2:	c9 01       	movw	r24, r18
    2dc4:	bf 01       	movw	r22, r30
    2dc6:	0e 94 c0 35 	call	0x6b80	; 0x6b80 <__divmodhi4>
    2dca:	ea e0       	ldi	r30, 0x0A	; 10
    2dcc:	f0 e0       	ldi	r31, 0x00	; 0
    2dce:	bf 01       	movw	r22, r30
    2dd0:	0e 94 c0 35 	call	0x6b80	; 0x6b80 <__divmodhi4>
    2dd4:	60 93 6a 4a 	sts	0x4A6A, r22	; 0x804a6a <IN_S_10>
	IN_S_1     = IN_Scales % 10;						// ΈκεΈΥεΉΖΑ ΉηΖΆ╡υΉ▓┤ΉνΣ     1Ήζα ΉηΡΈου
    2dd8:	c9 01       	movw	r24, r18
    2dda:	bf 01       	movw	r22, r30
    2ddc:	0e 94 c0 35 	call	0x6b80	; 0x6b80 <__divmodhi4>
    2de0:	80 93 ee 4a 	sts	0x4AEE, r24	; 0x804aee <IN_S_1>
//-------------------------------------------------------------------------------------------------
	while(SET.Menu)								// ΈσΦΈΚ┤ΈςρΈΥε Ήζ┤Έσ┤ Έ░αΈ│╡
    2de4:	3d c1       	rjmp	.+634    	; 0x3060 <IN_Scales_Set+0x2e4>
	{
		SET.Blink = 1;							// ΉηΡΈο┐ΉΙα Ά╣εΈ░ΧΉηΕ ΉΕνΉιΧ
    2de6:	81 e0       	ldi	r24, 0x01	; 1
    2de8:	80 93 91 4a 	sts	0x4A91, r24	; 0x804a91 <SET+0x2>

		switch(KEY.Count)						// ΉΕιΊΔζ Key Ά░Α ΈΙΝΈο░ΊγθΉΙα
    2dec:	80 91 d5 4a 	lds	r24, 0x4AD5	; 0x804ad5 <KEY>
    2df0:	82 30       	cpi	r24, 0x02	; 2
    2df2:	09 f4       	brne	.+2      	; 0x2df6 <IN_Scales_Set+0x7a>
    2df4:	85 c0       	rjmp	.+266    	; 0x2f00 <IN_Scales_Set+0x184>
    2df6:	30 f4       	brcc	.+12     	; 0x2e04 <IN_Scales_Set+0x88>
    2df8:	88 23       	and	r24, r24
    2dfa:	69 f0       	breq	.+26     	; 0x2e16 <IN_Scales_Set+0x9a>
    2dfc:	81 30       	cpi	r24, 0x01	; 1
    2dfe:	09 f4       	brne	.+2      	; 0x2e02 <IN_Scales_Set+0x86>
    2e00:	44 c0       	rjmp	.+136    	; 0x2e8a <IN_Scales_Set+0x10e>
    2e02:	2c c1       	rjmp	.+600    	; 0x305c <IN_Scales_Set+0x2e0>
    2e04:	84 30       	cpi	r24, 0x04	; 4
    2e06:	09 f4       	brne	.+2      	; 0x2e0a <IN_Scales_Set+0x8e>
    2e08:	f0 c0       	rjmp	.+480    	; 0x2fea <IN_Scales_Set+0x26e>
    2e0a:	08 f4       	brcc	.+2      	; 0x2e0e <IN_Scales_Set+0x92>
    2e0c:	b4 c0       	rjmp	.+360    	; 0x2f76 <IN_Scales_Set+0x1fa>
    2e0e:	85 30       	cpi	r24, 0x05	; 5
    2e10:	09 f4       	brne	.+2      	; 0x2e14 <IN_Scales_Set+0x98>
    2e12:	22 c1       	rjmp	.+580    	; 0x3058 <IN_Scales_Set+0x2dc>
    2e14:	23 c1       	rjmp	.+582    	; 0x305c <IN_Scales_Set+0x2e0>
		{
			case 0:							// ΈκεΈΥεΉΖΑ ΉηΖΆ╡υΉ▓┤ΉνΣ 10000Ήζα ΉηΡΈου
				DIGIT[2][3] = fnd_tbl[IN_S_1];			// ΈκεΈΥεΉΖΑ ΉηΖΆ╡υΉ▓┤ΉνΣ 1Ήζα ΉηΡΈου ΊΣεΉΜε
    2e16:	e0 91 ee 4a 	lds	r30, 0x4AEE	; 0x804aee <IN_S_1>
    2e1a:	f0 e0       	ldi	r31, 0x00	; 0
    2e1c:	e4 57       	subi	r30, 0x74	; 116
    2e1e:	ff 4b       	sbci	r31, 0xBF	; 191
    2e20:	80 81       	ld	r24, Z
    2e22:	80 93 ce 40 	sts	0x40CE, r24	; 0x8040ce <DIGIT+0xb>
				if(Blink) {DIGIT[1][3] = FND_OFF;}		// Blink = 1 Ήζ┤Έσ┤ ΈκεΈΥεΉΖΑ ΉηΖΆ╡υΉ▓┤ΉνΣ 10000Ήζα ΉηΡΈου OFF
    2e26:	80 91 02 4b 	lds	r24, 0x4B02	; 0x804b02 <Blink>
    2e2a:	88 23       	and	r24, r24
    2e2c:	19 f0       	breq	.+6      	; 0x2e34 <IN_Scales_Set+0xb8>
    2e2e:	10 92 ca 40 	sts	0x40CA, r1	; 0x8040ca <DIGIT+0x7>
    2e32:	08 c0       	rjmp	.+16     	; 0x2e44 <IN_Scales_Set+0xc8>
				else	  {DIGIT[1][3] = fnd_tbl[IN_S_10000];}	// Blink = 0 Ήζ┤Έσ┤ ΈκεΈΥεΉΖΑ ΉηΖΆ╡υΉ▓┤ΉνΣ 10000Ήζα ΉηΡΈου ΊΣεΉΜε
    2e34:	e0 91 8a 4a 	lds	r30, 0x4A8A	; 0x804a8a <IN_S_10000>
    2e38:	f0 e0       	ldi	r31, 0x00	; 0
    2e3a:	e4 57       	subi	r30, 0x74	; 116
    2e3c:	ff 4b       	sbci	r31, 0xBF	; 191
    2e3e:	80 81       	ld	r24, Z
    2e40:	80 93 ca 40 	sts	0x40CA, r24	; 0x8040ca <DIGIT+0x7>

				if(KEY.Buff)					// Key ΉηΖΈιξΉζ┤ ΉηΙΉε╝Έσ┤
    2e44:	80 91 d6 4a 	lds	r24, 0x4AD6	; 0x804ad6 <KEY+0x1>
    2e48:	88 23       	and	r24, r24
    2e4a:	09 f4       	brne	.+2      	; 0x2e4e <IN_Scales_Set+0xd2>
    2e4c:	07 c1       	rjmp	.+526    	; 0x305c <IN_Scales_Set+0x2e0>
				{
					if     (KEY.Key == 1 && IN_S_10000 < 1) {IN_S_10000++; KEY.Key = 0;}	// ΉΩΖ  Έ▓ΕΊΛ╝ Ήζ┤Έσ┤ ΉηΖΆ╡υΉ▓┤ΉνΣ 10000Ήζα ΉηΡΈου ΉοζΆ░Α
    2e4e:	80 91 d7 4a 	lds	r24, 0x4AD7	; 0x804ad7 <KEY+0x2>
    2e52:	81 30       	cpi	r24, 0x01	; 1
    2e54:	51 f4       	brne	.+20     	; 0x2e6a <IN_Scales_Set+0xee>
    2e56:	80 91 8a 4a 	lds	r24, 0x4A8A	; 0x804a8a <IN_S_10000>
    2e5a:	81 11       	cpse	r24, r1
    2e5c:	06 c0       	rjmp	.+12     	; 0x2e6a <IN_Scales_Set+0xee>
    2e5e:	8f 5f       	subi	r24, 0xFF	; 255
    2e60:	80 93 8a 4a 	sts	0x4A8A, r24	; 0x804a8a <IN_S_10000>
    2e64:	10 92 d7 4a 	sts	0x4AD7, r1	; 0x804ad7 <KEY+0x2>
    2e68:	f9 c0       	rjmp	.+498    	; 0x305c <IN_Scales_Set+0x2e0>
					else if(KEY.Key == 3 && IN_S_10000 > 0) {IN_S_10000--; KEY.Key = 0;}	// ΈΜνΉγ┤Έ▓ΕΊΛ╝ Ήζ┤Έσ┤ ΉηΖΆ╡υΉ▓┤ΉνΣ 10000Ήζα ΉηΡΈου Ά░ΡΉΗΝ
    2e6a:	80 91 d7 4a 	lds	r24, 0x4AD7	; 0x804ad7 <KEY+0x2>
    2e6e:	83 30       	cpi	r24, 0x03	; 3
    2e70:	09 f0       	breq	.+2      	; 0x2e74 <IN_Scales_Set+0xf8>
    2e72:	f4 c0       	rjmp	.+488    	; 0x305c <IN_Scales_Set+0x2e0>
    2e74:	80 91 8a 4a 	lds	r24, 0x4A8A	; 0x804a8a <IN_S_10000>
    2e78:	88 23       	and	r24, r24
    2e7a:	09 f4       	brne	.+2      	; 0x2e7e <IN_Scales_Set+0x102>
    2e7c:	ef c0       	rjmp	.+478    	; 0x305c <IN_Scales_Set+0x2e0>
    2e7e:	81 50       	subi	r24, 0x01	; 1
    2e80:	80 93 8a 4a 	sts	0x4A8A, r24	; 0x804a8a <IN_S_10000>
    2e84:	10 92 d7 4a 	sts	0x4AD7, r1	; 0x804ad7 <KEY+0x2>
    2e88:	e9 c0       	rjmp	.+466    	; 0x305c <IN_Scales_Set+0x2e0>
				}
			break;

			case 1:							// ΈκεΈΥεΉΖΑ ΉηΖΆ╡υΉ▓┤ΉνΣ 1000Ήζα ΉηΡΈου
				DIGIT[1][3] = fnd_tbl[IN_S_10000];		// ΈκεΈΥεΉΖΑ ΉηΖΆ╡υΉ▓┤ΉνΣ 10000Ήζα ΉηΡΈου ΊΣεΉΜε
    2e8a:	e0 91 8a 4a 	lds	r30, 0x4A8A	; 0x804a8a <IN_S_10000>
    2e8e:	f0 e0       	ldi	r31, 0x00	; 0
    2e90:	e4 57       	subi	r30, 0x74	; 116
    2e92:	ff 4b       	sbci	r31, 0xBF	; 191
    2e94:	80 81       	ld	r24, Z
    2e96:	80 93 ca 40 	sts	0x40CA, r24	; 0x8040ca <DIGIT+0x7>
				if(Blink) {DIGIT[1][2] = FND_OFF;}			// Blink = 1 Ήζ┤Έσ┤ ΈκεΈΥεΉΖΑ ΉηΖΆ╡υΉ▓┤ΉνΣ 1000Ήζα ΉηΡΈου OFF
    2e9a:	80 91 02 4b 	lds	r24, 0x4B02	; 0x804b02 <Blink>
    2e9e:	88 23       	and	r24, r24
    2ea0:	19 f0       	breq	.+6      	; 0x2ea8 <IN_Scales_Set+0x12c>
    2ea2:	10 92 c9 40 	sts	0x40C9, r1	; 0x8040c9 <DIGIT+0x6>
    2ea6:	09 c0       	rjmp	.+18     	; 0x2eba <IN_Scales_Set+0x13e>
				else	  {DIGIT[1][2] = fnd_tbl[IN_S_1000]+FND_Point;}	// Blink = 0 Ήζ┤Έσ┤ ΈκεΈΥεΉΖΑ ΉηΖΆ╡υΉ▓┤ΉνΣ 1000Ήζα ΉηΡΈου ΊΣεΉΜε
    2ea8:	e0 91 03 4b 	lds	r30, 0x4B03	; 0x804b03 <IN_S_1000>
    2eac:	f0 e0       	ldi	r31, 0x00	; 0
    2eae:	e4 57       	subi	r30, 0x74	; 116
    2eb0:	ff 4b       	sbci	r31, 0xBF	; 191
    2eb2:	80 81       	ld	r24, Z
    2eb4:	8f 5f       	subi	r24, 0xFF	; 255
    2eb6:	80 93 c9 40 	sts	0x40C9, r24	; 0x8040c9 <DIGIT+0x6>

				if(KEY.Buff)					// Key ΉηΖΈιξΉζ┤ ΉηΙΉε╝Έσ┤
    2eba:	80 91 d6 4a 	lds	r24, 0x4AD6	; 0x804ad6 <KEY+0x1>
    2ebe:	88 23       	and	r24, r24
    2ec0:	09 f4       	brne	.+2      	; 0x2ec4 <IN_Scales_Set+0x148>
    2ec2:	cc c0       	rjmp	.+408    	; 0x305c <IN_Scales_Set+0x2e0>
				{
					if     (KEY.Key == 1 && IN_S_1000 < 9) {IN_S_1000++; KEY.Key = 0;}	// ΉΩΖ  Έ▓ΕΊΛ╝ Ήζ┤Έσ┤ ΉηΖΆ╡υΉ▓┤ΉνΣ 1000Ήζα ΉηΡΈου ΉοζΆ░Α
    2ec4:	80 91 d7 4a 	lds	r24, 0x4AD7	; 0x804ad7 <KEY+0x2>
    2ec8:	81 30       	cpi	r24, 0x01	; 1
    2eca:	51 f4       	brne	.+20     	; 0x2ee0 <IN_Scales_Set+0x164>
    2ecc:	80 91 03 4b 	lds	r24, 0x4B03	; 0x804b03 <IN_S_1000>
    2ed0:	89 30       	cpi	r24, 0x09	; 9
    2ed2:	30 f4       	brcc	.+12     	; 0x2ee0 <IN_Scales_Set+0x164>
    2ed4:	8f 5f       	subi	r24, 0xFF	; 255
    2ed6:	80 93 03 4b 	sts	0x4B03, r24	; 0x804b03 <IN_S_1000>
    2eda:	10 92 d7 4a 	sts	0x4AD7, r1	; 0x804ad7 <KEY+0x2>
    2ede:	be c0       	rjmp	.+380    	; 0x305c <IN_Scales_Set+0x2e0>
					else if(KEY.Key == 3 && IN_S_1000 > 0) {IN_S_1000--; KEY.Key = 0;}	// ΈΜνΉγ┤Έ▓ΕΊΛ╝ Ήζ┤Έσ┤ ΉηΖΆ╡υΉ▓┤ΉνΣ 1000Ήζα ΉηΡΈου Ά░ΡΉΗΝ
    2ee0:	80 91 d7 4a 	lds	r24, 0x4AD7	; 0x804ad7 <KEY+0x2>
    2ee4:	83 30       	cpi	r24, 0x03	; 3
    2ee6:	09 f0       	breq	.+2      	; 0x2eea <IN_Scales_Set+0x16e>
    2ee8:	b9 c0       	rjmp	.+370    	; 0x305c <IN_Scales_Set+0x2e0>
    2eea:	80 91 03 4b 	lds	r24, 0x4B03	; 0x804b03 <IN_S_1000>
    2eee:	88 23       	and	r24, r24
    2ef0:	09 f4       	brne	.+2      	; 0x2ef4 <IN_Scales_Set+0x178>
    2ef2:	b4 c0       	rjmp	.+360    	; 0x305c <IN_Scales_Set+0x2e0>
    2ef4:	81 50       	subi	r24, 0x01	; 1
    2ef6:	80 93 03 4b 	sts	0x4B03, r24	; 0x804b03 <IN_S_1000>
    2efa:	10 92 d7 4a 	sts	0x4AD7, r1	; 0x804ad7 <KEY+0x2>
    2efe:	ae c0       	rjmp	.+348    	; 0x305c <IN_Scales_Set+0x2e0>
				}
			break;

			case 2:							// ΈκεΈΥεΉΖΑ ΉηΖΆ╡υΉ▓┤ΉνΣ 100Ήζα ΉηΡΈου
				DIGIT[1][2] = fnd_tbl[IN_S_1000]+FND_Point;	// ΈκεΈΥεΉΖΑ ΉηΖΆ╡υΉ▓┤ΉνΣ 1000Ήζα ΉηΡΈου ΊΣεΉΜε
    2f00:	e0 91 03 4b 	lds	r30, 0x4B03	; 0x804b03 <IN_S_1000>
    2f04:	f0 e0       	ldi	r31, 0x00	; 0
    2f06:	e4 57       	subi	r30, 0x74	; 116
    2f08:	ff 4b       	sbci	r31, 0xBF	; 191
    2f0a:	80 81       	ld	r24, Z
    2f0c:	8f 5f       	subi	r24, 0xFF	; 255
    2f0e:	80 93 c9 40 	sts	0x40C9, r24	; 0x8040c9 <DIGIT+0x6>
				if(Blink) {DIGIT[1][1] = FND_OFF;}		// Blink = 1 Ήζ┤Έσ┤ ΈκεΈΥεΉΖΑ ΉηΖΆ╡υΉ▓┤ΉνΣ 100Ήζα ΉηΡΈου OFF
    2f12:	80 91 02 4b 	lds	r24, 0x4B02	; 0x804b02 <Blink>
    2f16:	88 23       	and	r24, r24
    2f18:	19 f0       	breq	.+6      	; 0x2f20 <IN_Scales_Set+0x1a4>
    2f1a:	10 92 c8 40 	sts	0x40C8, r1	; 0x8040c8 <DIGIT+0x5>
    2f1e:	08 c0       	rjmp	.+16     	; 0x2f30 <IN_Scales_Set+0x1b4>
				else	  {DIGIT[1][1] = fnd_tbl[IN_S_100];}	// Blink = 0 Ήζ┤Έσ┤ ΈκεΈΥεΉΖΑ ΉηΖΆ╡υΉ▓┤ΉνΣ 100Ήζα ΉηΡΈου ΊΣεΉΜε
    2f20:	e0 91 8b 4a 	lds	r30, 0x4A8B	; 0x804a8b <IN_S_100>
    2f24:	f0 e0       	ldi	r31, 0x00	; 0
    2f26:	e4 57       	subi	r30, 0x74	; 116
    2f28:	ff 4b       	sbci	r31, 0xBF	; 191
    2f2a:	80 81       	ld	r24, Z
    2f2c:	80 93 c8 40 	sts	0x40C8, r24	; 0x8040c8 <DIGIT+0x5>

				if(KEY.Buff)					// Key ΉηΖΈιξΉζ┤ ΉηΙΉε╝Έσ┤
    2f30:	80 91 d6 4a 	lds	r24, 0x4AD6	; 0x804ad6 <KEY+0x1>
    2f34:	88 23       	and	r24, r24
    2f36:	09 f4       	brne	.+2      	; 0x2f3a <IN_Scales_Set+0x1be>
    2f38:	91 c0       	rjmp	.+290    	; 0x305c <IN_Scales_Set+0x2e0>
				{
					if     (KEY.Key == 1 && IN_S_100 < 9) {IN_S_100++; KEY.Key = 0;}	// ΉΩΖ  Έ▓ΕΊΛ╝ Ήζ┤Έσ┤ ΉηΖΆ╡υΉ▓┤ΉνΣ 100Ήζα ΉηΡΈου ΉοζΆ░Α
    2f3a:	80 91 d7 4a 	lds	r24, 0x4AD7	; 0x804ad7 <KEY+0x2>
    2f3e:	81 30       	cpi	r24, 0x01	; 1
    2f40:	51 f4       	brne	.+20     	; 0x2f56 <IN_Scales_Set+0x1da>
    2f42:	80 91 8b 4a 	lds	r24, 0x4A8B	; 0x804a8b <IN_S_100>
    2f46:	89 30       	cpi	r24, 0x09	; 9
    2f48:	30 f4       	brcc	.+12     	; 0x2f56 <IN_Scales_Set+0x1da>
    2f4a:	8f 5f       	subi	r24, 0xFF	; 255
    2f4c:	80 93 8b 4a 	sts	0x4A8B, r24	; 0x804a8b <IN_S_100>
    2f50:	10 92 d7 4a 	sts	0x4AD7, r1	; 0x804ad7 <KEY+0x2>
    2f54:	83 c0       	rjmp	.+262    	; 0x305c <IN_Scales_Set+0x2e0>
					else if(KEY.Key == 3 && IN_S_100 > 0) {IN_S_100--; KEY.Key = 0;}	// ΈΜνΉγ┤Έ▓ΕΊΛ╝ Ήζ┤Έσ┤ ΉηΖΆ╡υΉ▓┤ΉνΣ 100Ήζα ΉηΡΈου Ά░ΡΉΗΝ
    2f56:	80 91 d7 4a 	lds	r24, 0x4AD7	; 0x804ad7 <KEY+0x2>
    2f5a:	83 30       	cpi	r24, 0x03	; 3
    2f5c:	09 f0       	breq	.+2      	; 0x2f60 <IN_Scales_Set+0x1e4>
    2f5e:	7e c0       	rjmp	.+252    	; 0x305c <IN_Scales_Set+0x2e0>
    2f60:	80 91 8b 4a 	lds	r24, 0x4A8B	; 0x804a8b <IN_S_100>
    2f64:	88 23       	and	r24, r24
    2f66:	09 f4       	brne	.+2      	; 0x2f6a <IN_Scales_Set+0x1ee>
    2f68:	79 c0       	rjmp	.+242    	; 0x305c <IN_Scales_Set+0x2e0>
    2f6a:	81 50       	subi	r24, 0x01	; 1
    2f6c:	80 93 8b 4a 	sts	0x4A8B, r24	; 0x804a8b <IN_S_100>
    2f70:	10 92 d7 4a 	sts	0x4AD7, r1	; 0x804ad7 <KEY+0x2>
    2f74:	73 c0       	rjmp	.+230    	; 0x305c <IN_Scales_Set+0x2e0>
				}
			break;

			case 3:							// ΈκεΈΥεΉΖΑ ΉηΖΆ╡υΉ▓┤ΉνΣ 10Ήζα ΉηΡΈου
				DIGIT[1][1] = fnd_tbl[IN_S_100];		// ΈκεΈΥεΉΖΑ ΉηΖΆ╡υΉ▓┤ΉνΣ 100Ήζα ΉηΡΈου ΊΣεΉΜε
    2f76:	e0 91 8b 4a 	lds	r30, 0x4A8B	; 0x804a8b <IN_S_100>
    2f7a:	f0 e0       	ldi	r31, 0x00	; 0
    2f7c:	e4 57       	subi	r30, 0x74	; 116
    2f7e:	ff 4b       	sbci	r31, 0xBF	; 191
    2f80:	80 81       	ld	r24, Z
    2f82:	80 93 c8 40 	sts	0x40C8, r24	; 0x8040c8 <DIGIT+0x5>
				if(Blink) {DIGIT[1][0] = FND_OFF;}		// Blink = 1 Ήζ┤Έσ┤ ΈκεΈΥεΉΖΑ ΉηΖΆ╡υΉ▓┤ΉνΣ 10Ήζα ΉηΡΈου OFF
    2f86:	80 91 02 4b 	lds	r24, 0x4B02	; 0x804b02 <Blink>
    2f8a:	88 23       	and	r24, r24
    2f8c:	19 f0       	breq	.+6      	; 0x2f94 <IN_Scales_Set+0x218>
    2f8e:	10 92 c7 40 	sts	0x40C7, r1	; 0x8040c7 <DIGIT+0x4>
    2f92:	08 c0       	rjmp	.+16     	; 0x2fa4 <IN_Scales_Set+0x228>
				else	  {DIGIT[1][0] = fnd_tbl[IN_S_10];}	// Blink = 0 Ήζ┤Έσ┤ ΈκεΈΥεΉΖΑ ΉηΖΆ╡υΉ▓┤ΉνΣ 10Ήζα ΉηΡΈου ΊΣεΉΜε
    2f94:	e0 91 6a 4a 	lds	r30, 0x4A6A	; 0x804a6a <IN_S_10>
    2f98:	f0 e0       	ldi	r31, 0x00	; 0
    2f9a:	e4 57       	subi	r30, 0x74	; 116
    2f9c:	ff 4b       	sbci	r31, 0xBF	; 191
    2f9e:	80 81       	ld	r24, Z
    2fa0:	80 93 c7 40 	sts	0x40C7, r24	; 0x8040c7 <DIGIT+0x4>

				if(KEY.Buff)					// Key ΉηΖΈιξΉζ┤ ΉηΙΉε╝Έσ┤
    2fa4:	80 91 d6 4a 	lds	r24, 0x4AD6	; 0x804ad6 <KEY+0x1>
    2fa8:	88 23       	and	r24, r24
    2faa:	09 f4       	brne	.+2      	; 0x2fae <IN_Scales_Set+0x232>
    2fac:	57 c0       	rjmp	.+174    	; 0x305c <IN_Scales_Set+0x2e0>
				{
					if     (KEY.Key == 1 && IN_S_10 < 9) {IN_S_10++; KEY.Key = 0;}		// ΉΩΖ  Έ▓ΕΊΛ╝ Ήζ┤Έσ┤ ΉηΖΆ╡υΉ▓┤ΉνΣ 10Ήζα ΉηΡΈου ΉοζΆ░Α
    2fae:	80 91 d7 4a 	lds	r24, 0x4AD7	; 0x804ad7 <KEY+0x2>
    2fb2:	81 30       	cpi	r24, 0x01	; 1
    2fb4:	51 f4       	brne	.+20     	; 0x2fca <IN_Scales_Set+0x24e>
    2fb6:	80 91 6a 4a 	lds	r24, 0x4A6A	; 0x804a6a <IN_S_10>
    2fba:	89 30       	cpi	r24, 0x09	; 9
    2fbc:	30 f4       	brcc	.+12     	; 0x2fca <IN_Scales_Set+0x24e>
    2fbe:	8f 5f       	subi	r24, 0xFF	; 255
    2fc0:	80 93 6a 4a 	sts	0x4A6A, r24	; 0x804a6a <IN_S_10>
    2fc4:	10 92 d7 4a 	sts	0x4AD7, r1	; 0x804ad7 <KEY+0x2>
    2fc8:	49 c0       	rjmp	.+146    	; 0x305c <IN_Scales_Set+0x2e0>
					else if(KEY.Key == 3 && IN_S_10 > 0) {IN_S_10--; KEY.Key = 0;}		// ΈΜνΉγ┤Έ▓ΕΊΛ╝ Ήζ┤Έσ┤ ΉηΖΆ╡υΉ▓┤ΉνΣ 10Ήζα ΉηΡΈου Ά░ΡΉΗΝ
    2fca:	80 91 d7 4a 	lds	r24, 0x4AD7	; 0x804ad7 <KEY+0x2>
    2fce:	83 30       	cpi	r24, 0x03	; 3
    2fd0:	09 f0       	breq	.+2      	; 0x2fd4 <IN_Scales_Set+0x258>
    2fd2:	44 c0       	rjmp	.+136    	; 0x305c <IN_Scales_Set+0x2e0>
    2fd4:	80 91 6a 4a 	lds	r24, 0x4A6A	; 0x804a6a <IN_S_10>
    2fd8:	88 23       	and	r24, r24
    2fda:	09 f4       	brne	.+2      	; 0x2fde <IN_Scales_Set+0x262>
    2fdc:	3f c0       	rjmp	.+126    	; 0x305c <IN_Scales_Set+0x2e0>
    2fde:	81 50       	subi	r24, 0x01	; 1
    2fe0:	80 93 6a 4a 	sts	0x4A6A, r24	; 0x804a6a <IN_S_10>
    2fe4:	10 92 d7 4a 	sts	0x4AD7, r1	; 0x804ad7 <KEY+0x2>
    2fe8:	39 c0       	rjmp	.+114    	; 0x305c <IN_Scales_Set+0x2e0>
				}
			break;

			case 4:							// ΈκεΈΥεΉΖΑ ΉηΖΆ╡υΉ▓┤ΉνΣ 1Ήζα ΉηΡΈου
				DIGIT[1][0] = fnd_tbl[IN_S_10];			// ΈκεΈΥεΉΖΑ ΉηΖΆ╡υΉ▓┤ΉνΣ 10Ήζα ΉηΡΈου ΊΣεΉΜε
    2fea:	e0 91 6a 4a 	lds	r30, 0x4A6A	; 0x804a6a <IN_S_10>
    2fee:	f0 e0       	ldi	r31, 0x00	; 0
    2ff0:	e4 57       	subi	r30, 0x74	; 116
    2ff2:	ff 4b       	sbci	r31, 0xBF	; 191
    2ff4:	80 81       	ld	r24, Z
    2ff6:	80 93 c7 40 	sts	0x40C7, r24	; 0x8040c7 <DIGIT+0x4>
				if(Blink) {DIGIT[2][3] = FND_OFF;}		// Blink = 1 Ήζ┤Έσ┤ ΈκεΈΥεΉΖΑ ΉηΖΆ╡υΉ▓┤ΉνΣ 1Ήζα ΉηΡΈου OFF
    2ffa:	80 91 02 4b 	lds	r24, 0x4B02	; 0x804b02 <Blink>
    2ffe:	88 23       	and	r24, r24
    3000:	19 f0       	breq	.+6      	; 0x3008 <IN_Scales_Set+0x28c>
    3002:	10 92 ce 40 	sts	0x40CE, r1	; 0x8040ce <DIGIT+0xb>
    3006:	08 c0       	rjmp	.+16     	; 0x3018 <IN_Scales_Set+0x29c>
				else	  {DIGIT[2][3] = fnd_tbl[IN_S_1];}	// Blink = 0 Ήζ┤Έσ┤ ΈκεΈΥεΉΖΑ ΉηΖΆ╡υΉ▓┤ΉνΣ 1Ήζα ΉηΡΈου ΊΣεΉΜε
    3008:	e0 91 ee 4a 	lds	r30, 0x4AEE	; 0x804aee <IN_S_1>
    300c:	f0 e0       	ldi	r31, 0x00	; 0
    300e:	e4 57       	subi	r30, 0x74	; 116
    3010:	ff 4b       	sbci	r31, 0xBF	; 191
    3012:	80 81       	ld	r24, Z
    3014:	80 93 ce 40 	sts	0x40CE, r24	; 0x8040ce <DIGIT+0xb>

				if(KEY.Buff)					// Key ΉηΖΈιξΉζ┤ ΉηΙΉε╝Έσ┤
    3018:	80 91 d6 4a 	lds	r24, 0x4AD6	; 0x804ad6 <KEY+0x1>
    301c:	88 23       	and	r24, r24
    301e:	f1 f0       	breq	.+60     	; 0x305c <IN_Scales_Set+0x2e0>
				{
					if     (KEY.Key == 1 && IN_S_1 < 9) {IN_S_1++; KEY.Key = 0;}		// ΉΩΖ  Έ▓ΕΊΛ╝ Ήζ┤Έσ┤ ΉηΖΆ╡υΉ▓┤ΉνΣ 1Ήζα ΉηΡΈου ΉοζΆ░Α
    3020:	80 91 d7 4a 	lds	r24, 0x4AD7	; 0x804ad7 <KEY+0x2>
    3024:	81 30       	cpi	r24, 0x01	; 1
    3026:	51 f4       	brne	.+20     	; 0x303c <IN_Scales_Set+0x2c0>
    3028:	80 91 ee 4a 	lds	r24, 0x4AEE	; 0x804aee <IN_S_1>
    302c:	89 30       	cpi	r24, 0x09	; 9
    302e:	30 f4       	brcc	.+12     	; 0x303c <IN_Scales_Set+0x2c0>
    3030:	8f 5f       	subi	r24, 0xFF	; 255
    3032:	80 93 ee 4a 	sts	0x4AEE, r24	; 0x804aee <IN_S_1>
    3036:	10 92 d7 4a 	sts	0x4AD7, r1	; 0x804ad7 <KEY+0x2>
    303a:	10 c0       	rjmp	.+32     	; 0x305c <IN_Scales_Set+0x2e0>
					else if(KEY.Key == 3 && IN_S_1 > 0) {IN_S_1--; KEY.Key = 0;}		// ΈΜνΉγ┤Έ▓ΕΊΛ╝ Ήζ┤Έσ┤ ΉηΖΆ╡υΉ▓┤ΉνΣ 1Ήζα ΉηΡΈου Ά░ΡΉΗΝ
    303c:	80 91 d7 4a 	lds	r24, 0x4AD7	; 0x804ad7 <KEY+0x2>
    3040:	83 30       	cpi	r24, 0x03	; 3
    3042:	61 f4       	brne	.+24     	; 0x305c <IN_Scales_Set+0x2e0>
    3044:	80 91 ee 4a 	lds	r24, 0x4AEE	; 0x804aee <IN_S_1>
    3048:	88 23       	and	r24, r24
    304a:	41 f0       	breq	.+16     	; 0x305c <IN_Scales_Set+0x2e0>
    304c:	81 50       	subi	r24, 0x01	; 1
    304e:	80 93 ee 4a 	sts	0x4AEE, r24	; 0x804aee <IN_S_1>
    3052:	10 92 d7 4a 	sts	0x4AD7, r1	; 0x804ad7 <KEY+0x2>
    3056:	02 c0       	rjmp	.+4      	; 0x305c <IN_Scales_Set+0x2e0>
				}
			break;

			case 5:
				KEY.Count = 0;					// Έ░αΈ│╡ΉζΕ ΉεΕΊΧ┤ KEY.Count Έξ╝ Ή┤ΙΆ╕░ΊβΦ ΉΜεΊΓ┤
    3058:	10 92 d5 4a 	sts	0x4AD5, r1	; 0x804ad5 <KEY>
			break;
		}
		wdt_reset();							// ΉδΝΉ╣αΈΠΖ ΈουΉΖΜ
    305c:	0e 94 78 0c 	call	0x18f0	; 0x18f0 <wdt_reset>
	IN_S_1000  = IN_Scales % 10000/ 1000;					// ΈκεΈΥεΉΖΑ ΉηΖΆ╡υΉ▓┤ΉνΣ  1000Ήζα ΉηΡΈου
	IN_S_100   = IN_Scales % 1000 / 100;					// ΈκεΈΥεΉΖΑ ΉηΖΆ╡υΉ▓┤ΉνΣ   100Ήζα ΉηΡΈου
	IN_S_10    = IN_Scales % 100 / 10;					// ΈκεΈΥεΉΖΑ ΉηΖΆ╡υΉ▓┤ΉνΣ    10Ήζα ΉηΡΈου
	IN_S_1     = IN_Scales % 10;						// ΈκεΈΥεΉΖΑ ΉηΖΆ╡υΉ▓┤ΉνΣ     1Ήζα ΉηΡΈου
//-------------------------------------------------------------------------------------------------
	while(SET.Menu)								// ΈσΦΈΚ┤ΈςρΈΥε Ήζ┤Έσ┤ Έ░αΈ│╡
    3060:	80 91 8f 4a 	lds	r24, 0x4A8F	; 0x804a8f <SET>
    3064:	81 11       	cpse	r24, r1
    3066:	bf ce       	rjmp	.-642    	; 0x2de6 <IN_Scales_Set+0x6a>
		}
		wdt_reset();							// ΉδΝΉ╣αΈΠΖ ΈουΉΖΜ
	}
//-------------------------------------------------------------------------------------------------
	IN_Scales = 0;								// ΈκεΈΥεΉΖΑ ΉηΖΆ╡υΉ▓┤ΉνΣ Ή┤ΙΆ╕░ΊβΦ
	IN_Scales += (IN_S_10000 * 10000);						// ΈκεΈΥεΉΖΑ ΉηΖΆ╡υΉ▓┤ΉνΣ 10000Ήζα ΉηΡΈου
    3068:	20 91 8a 4a 	lds	r18, 0x4A8A	; 0x804a8a <IN_S_10000>
    306c:	80 e1       	ldi	r24, 0x10	; 16
    306e:	97 e2       	ldi	r25, 0x27	; 39
    3070:	28 9f       	mul	r18, r24
    3072:	b0 01       	movw	r22, r0
    3074:	29 9f       	mul	r18, r25
    3076:	70 0d       	add	r23, r0
    3078:	11 24       	eor	r1, r1
	IN_Scales += (IN_S_1000  * 1000);						// ΈκεΈΥεΉΖΑ ΉηΖΆ╡υΉ▓┤ΉνΣ  1000Ήζα ΉηΡΈου
    307a:	40 91 03 4b 	lds	r20, 0x4B03	; 0x804b03 <IN_S_1000>
    307e:	28 ee       	ldi	r18, 0xE8	; 232
    3080:	33 e0       	ldi	r19, 0x03	; 3
    3082:	42 9f       	mul	r20, r18
    3084:	c0 01       	movw	r24, r0
    3086:	43 9f       	mul	r20, r19
    3088:	90 0d       	add	r25, r0
    308a:	11 24       	eor	r1, r1
    308c:	68 0f       	add	r22, r24
    308e:	79 1f       	adc	r23, r25
	IN_Scales += (IN_S_100   * 100);						// ΈκεΈΥεΉΖΑ ΉηΖΆ╡υΉ▓┤ΉνΣ   100Ήζα ΉηΡΈου
    3090:	80 91 8b 4a 	lds	r24, 0x4A8B	; 0x804a8b <IN_S_100>
    3094:	94 e6       	ldi	r25, 0x64	; 100
    3096:	89 9f       	mul	r24, r25
    3098:	60 0d       	add	r22, r0
    309a:	71 1d       	adc	r23, r1
    309c:	11 24       	eor	r1, r1
	IN_Scales += (IN_S_10    * 10);						// ΈκεΈΥεΉΖΑ ΉηΖΆ╡υΉ▓┤ΉνΣ    10Ήζα ΉηΡΈου
    309e:	80 91 6a 4a 	lds	r24, 0x4A6A	; 0x804a6a <IN_S_10>
    30a2:	90 e0       	ldi	r25, 0x00	; 0
    30a4:	9c 01       	movw	r18, r24
    30a6:	22 0f       	add	r18, r18
    30a8:	33 1f       	adc	r19, r19
    30aa:	88 0f       	add	r24, r24
    30ac:	99 1f       	adc	r25, r25
    30ae:	88 0f       	add	r24, r24
    30b0:	99 1f       	adc	r25, r25
    30b2:	88 0f       	add	r24, r24
    30b4:	99 1f       	adc	r25, r25
    30b6:	82 0f       	add	r24, r18
    30b8:	93 1f       	adc	r25, r19
    30ba:	68 0f       	add	r22, r24
    30bc:	79 1f       	adc	r23, r25
	IN_Scales += (IN_S_1     * 1);						// ΈκεΈΥεΉΖΑ ΉηΖΆ╡υΉ▓┤ΉνΣ     1Ήζα ΉηΡΈου
    30be:	80 91 ee 4a 	lds	r24, 0x4AEE	; 0x804aee <IN_S_1>
    30c2:	68 0f       	add	r22, r24
    30c4:	71 1d       	adc	r23, r1
    30c6:	60 93 88 4a 	sts	0x4A88, r22	; 0x804a88 <IN_Scales>
    30ca:	70 93 89 4a 	sts	0x4A89, r23	; 0x804a89 <IN_Scales+0x1>
//-------------------------------------------------------------------------------------------------
	ee_write_word(Cell_IN_S_Addr, IN_Scales);					// ΈκεΈΥεΉΖΑ Ήζ┤Έσ┤ ΉηΖΆ╡υΉ▓┤ΉνΣΆ░Τ ΉιΑΉηξ
    30ce:	88 e0       	ldi	r24, 0x08	; 8
    30d0:	90 e0       	ldi	r25, 0x00	; 0
    30d2:	0e 94 82 0f 	call	0x1f04	; 0x1f04 <ee_write_word>

	SET.Menu = 1;								// Menu ΈςρΈΥε ΉειΉπΑ
    30d6:	ef e8       	ldi	r30, 0x8F	; 143
    30d8:	fa e4       	ldi	r31, 0x4A	; 74
    30da:	81 e0       	ldi	r24, 0x01	; 1
    30dc:	80 83       	st	Z, r24
	SET.Select = 0;								// Select Έ▓ΕΊΛ╝ Ή┤ΙΆ╕░ΊβΦ
    30de:	11 82       	std	Z+1, r1	; 0x01
	SET.Blink = 0;								// ΉηΡΈο┐ΉΙα Ά╣εΈ░ΧΉηΕ Ή┤ΙΆ╕░ΊβΦ
    30e0:	12 82       	std	Z+2, r1	; 0x02
	KEY.Count = 0;								// ΉΕιΊΔζ Key Ά░Α ΈΙΝΈο░ΊγθΉΙα Ή┤ΙΆ╕░ΊβΦ
    30e2:	10 92 d5 4a 	sts	0x4AD5, r1	; 0x804ad5 <KEY>
    30e6:	08 95       	ret

000030e8 <RO_Set>:
}

//=================================================================================================
void RO_Set(void)								// RO ΉΕνΉιΧ
{
    30e8:	2f 92       	push	r2
    30ea:	3f 92       	push	r3
    30ec:	4f 92       	push	r4
    30ee:	5f 92       	push	r5
    30f0:	6f 92       	push	r6
    30f2:	7f 92       	push	r7
    30f4:	8f 92       	push	r8
    30f6:	9f 92       	push	r9
    30f8:	af 92       	push	r10
    30fa:	bf 92       	push	r11
    30fc:	cf 92       	push	r12
    30fe:	df 92       	push	r13
    3100:	ef 92       	push	r14
    3102:	ff 92       	push	r15
    3104:	0f 93       	push	r16
    3106:	1f 93       	push	r17
    3108:	cf 93       	push	r28
    310a:	df 93       	push	r29
    310c:	cd b7       	in	r28, 0x3d	; 61
    310e:	de b7       	in	r29, 0x3e	; 62
    3110:	25 97       	sbiw	r28, 0x05	; 5
    3112:	cd bf       	out	0x3d, r28	; 61
    3114:	de bf       	out	0x3e, r29	; 62
	DIGIT[2][0] = FND_OFF;							// ΈκεΈΥεΉΖΑ RO, ΉηΖΆ╡υΉ▓┤ΉνΣ 1Ήζα ΉηΡΈου ΉπΑΉγ░Ά╕░
    3116:	10 92 cb 40 	sts	0x40CB, r1	; 0x8040cb <DIGIT+0x8>

	RO = ee_read_dword(Cell_RO_Addr);					// ΈκεΈΥεΉΖΑ Ήζ┤Έσ┤ ROΆ░Τ Έ╢ΙΈθυΉανΆ╕░
    311a:	8c e0       	ldi	r24, 0x0C	; 12
    311c:	90 e0       	ldi	r25, 0x00	; 0
    311e:	0e 94 52 0f 	call	0x1ea4	; 0x1ea4 <ee_read_dword>
    3122:	1b 01       	movw	r2, r22
    3124:	2c 01       	movw	r4, r24
    3126:	60 93 93 4a 	sts	0x4A93, r22	; 0x804a93 <RO>
    312a:	30 92 94 4a 	sts	0x4A94, r3	; 0x804a94 <RO+0x1>
    312e:	40 92 95 4a 	sts	0x4A95, r4	; 0x804a95 <RO+0x2>
    3132:	50 92 96 4a 	sts	0x4A96, r5	; 0x804a96 <RO+0x3>
    3136:	10 92 97 4a 	sts	0x4A97, r1	; 0x804a97 <RO+0x4>
    313a:	10 92 98 4a 	sts	0x4A98, r1	; 0x804a98 <RO+0x5>
    313e:	10 92 99 4a 	sts	0x4A99, r1	; 0x804a99 <RO+0x6>
    3142:	10 92 9a 4a 	sts	0x4A9A, r1	; 0x804a9a <RO+0x7>
//-------------------------------------------------------------------------------------------------
	RO_10000 = RO / 10000;							// ΈκεΈΥεΉΖΑ RO 10000Ήζα ΉηΡΈου
    3146:	68 94       	set
    3148:	aa 24       	eor	r10, r10
    314a:	a4 f8       	bld	r10, 4
    314c:	0f 2e       	mov	r0, r31
    314e:	f7 e2       	ldi	r31, 0x27	; 39
    3150:	bf 2e       	mov	r11, r31
    3152:	f0 2d       	mov	r31, r0
    3154:	c1 2c       	mov	r12, r1
    3156:	d1 2c       	mov	r13, r1
    3158:	e1 2c       	mov	r14, r1
    315a:	f1 2c       	mov	r15, r1
    315c:	00 e0       	ldi	r16, 0x00	; 0
    315e:	10 e0       	ldi	r17, 0x00	; 0
    3160:	26 2f       	mov	r18, r22
    3162:	33 2d       	mov	r19, r3
    3164:	44 2d       	mov	r20, r4
    3166:	55 2d       	mov	r21, r5
    3168:	60 e0       	ldi	r22, 0x00	; 0
    316a:	70 e0       	ldi	r23, 0x00	; 0
    316c:	80 e0       	ldi	r24, 0x00	; 0
    316e:	90 e0       	ldi	r25, 0x00	; 0
    3170:	0e 94 93 36 	call	0x6d26	; 0x6d26 <__udivdi3>
    3174:	20 93 e0 4a 	sts	0x4AE0, r18	; 0x804ae0 <RO_10000>
    3178:	30 93 e1 4a 	sts	0x4AE1, r19	; 0x804ae1 <RO_10000+0x1>
    317c:	40 93 e2 4a 	sts	0x4AE2, r20	; 0x804ae2 <RO_10000+0x2>
    3180:	50 93 e3 4a 	sts	0x4AE3, r21	; 0x804ae3 <RO_10000+0x3>
    3184:	60 93 e4 4a 	sts	0x4AE4, r22	; 0x804ae4 <RO_10000+0x4>
    3188:	70 93 e5 4a 	sts	0x4AE5, r23	; 0x804ae5 <RO_10000+0x5>
    318c:	80 93 e6 4a 	sts	0x4AE6, r24	; 0x804ae6 <RO_10000+0x6>
    3190:	90 93 e7 4a 	sts	0x4AE7, r25	; 0x804ae7 <RO_10000+0x7>
	RO_1000  = RO % 10000 / 1000;						// ΈκεΈΥεΉΖΑ RO  1000Ήζα ΉηΡΈου
    3194:	22 2d       	mov	r18, r2
    3196:	33 2d       	mov	r19, r3
    3198:	44 2d       	mov	r20, r4
    319a:	55 2d       	mov	r21, r5
    319c:	60 e0       	ldi	r22, 0x00	; 0
    319e:	70 e0       	ldi	r23, 0x00	; 0
    31a0:	80 e0       	ldi	r24, 0x00	; 0
    31a2:	90 e0       	ldi	r25, 0x00	; 0
    31a4:	0e 94 91 36 	call	0x6d22	; 0x6d22 <__umoddi3>
    31a8:	0f 2e       	mov	r0, r31
    31aa:	f8 ee       	ldi	r31, 0xE8	; 232
    31ac:	af 2e       	mov	r10, r31
    31ae:	f0 2d       	mov	r31, r0
    31b0:	0f 2e       	mov	r0, r31
    31b2:	f3 e0       	ldi	r31, 0x03	; 3
    31b4:	bf 2e       	mov	r11, r31
    31b6:	f0 2d       	mov	r31, r0
    31b8:	0e 94 93 36 	call	0x6d26	; 0x6d26 <__udivdi3>
    31bc:	20 93 0c 4c 	sts	0x4C0C, r18	; 0x804c0c <RO_1000>
    31c0:	30 93 0d 4c 	sts	0x4C0D, r19	; 0x804c0d <RO_1000+0x1>
    31c4:	40 93 0e 4c 	sts	0x4C0E, r20	; 0x804c0e <RO_1000+0x2>
    31c8:	50 93 0f 4c 	sts	0x4C0F, r21	; 0x804c0f <RO_1000+0x3>
    31cc:	60 93 10 4c 	sts	0x4C10, r22	; 0x804c10 <RO_1000+0x4>
    31d0:	70 93 11 4c 	sts	0x4C11, r23	; 0x804c11 <RO_1000+0x5>
    31d4:	80 93 12 4c 	sts	0x4C12, r24	; 0x804c12 <RO_1000+0x6>
    31d8:	90 93 13 4c 	sts	0x4C13, r25	; 0x804c13 <RO_1000+0x7>
	RO_100   = RO % 1000 / 100;						// ΈκεΈΥεΉΖΑ RO   100Ήζα ΉηΡΈου
    31dc:	22 2d       	mov	r18, r2
    31de:	33 2d       	mov	r19, r3
    31e0:	44 2d       	mov	r20, r4
    31e2:	55 2d       	mov	r21, r5
    31e4:	60 e0       	ldi	r22, 0x00	; 0
    31e6:	70 e0       	ldi	r23, 0x00	; 0
    31e8:	80 e0       	ldi	r24, 0x00	; 0
    31ea:	90 e0       	ldi	r25, 0x00	; 0
    31ec:	0e 94 91 36 	call	0x6d22	; 0x6d22 <__umoddi3>
    31f0:	0f 2e       	mov	r0, r31
    31f2:	f4 e6       	ldi	r31, 0x64	; 100
    31f4:	af 2e       	mov	r10, r31
    31f6:	f0 2d       	mov	r31, r0
    31f8:	b1 2c       	mov	r11, r1
    31fa:	0e 94 93 36 	call	0x6d26	; 0x6d26 <__udivdi3>
    31fe:	20 93 fa 4a 	sts	0x4AFA, r18	; 0x804afa <RO_100>
    3202:	30 93 fb 4a 	sts	0x4AFB, r19	; 0x804afb <RO_100+0x1>
    3206:	40 93 fc 4a 	sts	0x4AFC, r20	; 0x804afc <RO_100+0x2>
    320a:	50 93 fd 4a 	sts	0x4AFD, r21	; 0x804afd <RO_100+0x3>
    320e:	60 93 fe 4a 	sts	0x4AFE, r22	; 0x804afe <RO_100+0x4>
    3212:	70 93 ff 4a 	sts	0x4AFF, r23	; 0x804aff <RO_100+0x5>
    3216:	80 93 00 4b 	sts	0x4B00, r24	; 0x804b00 <RO_100+0x6>
    321a:	90 93 01 4b 	sts	0x4B01, r25	; 0x804b01 <RO_100+0x7>
	RO_10    = RO % 100 / 10;						// ΈκεΈΥεΉΖΑ RO    10Ήζα ΉηΡΈου
    321e:	22 2d       	mov	r18, r2
    3220:	33 2d       	mov	r19, r3
    3222:	44 2d       	mov	r20, r4
    3224:	55 2d       	mov	r21, r5
    3226:	60 e0       	ldi	r22, 0x00	; 0
    3228:	70 e0       	ldi	r23, 0x00	; 0
    322a:	80 e0       	ldi	r24, 0x00	; 0
    322c:	90 e0       	ldi	r25, 0x00	; 0
    322e:	0e 94 91 36 	call	0x6d22	; 0x6d22 <__umoddi3>
    3232:	0f 2e       	mov	r0, r31
    3234:	fa e0       	ldi	r31, 0x0A	; 10
    3236:	af 2e       	mov	r10, r31
    3238:	f0 2d       	mov	r31, r0
    323a:	0e 94 93 36 	call	0x6d26	; 0x6d26 <__udivdi3>
    323e:	20 93 c8 4a 	sts	0x4AC8, r18	; 0x804ac8 <RO_10>
    3242:	30 93 c9 4a 	sts	0x4AC9, r19	; 0x804ac9 <RO_10+0x1>
    3246:	40 93 ca 4a 	sts	0x4ACA, r20	; 0x804aca <RO_10+0x2>
    324a:	50 93 cb 4a 	sts	0x4ACB, r21	; 0x804acb <RO_10+0x3>
    324e:	60 93 cc 4a 	sts	0x4ACC, r22	; 0x804acc <RO_10+0x4>
    3252:	70 93 cd 4a 	sts	0x4ACD, r23	; 0x804acd <RO_10+0x5>
    3256:	80 93 ce 4a 	sts	0x4ACE, r24	; 0x804ace <RO_10+0x6>
    325a:	90 93 cf 4a 	sts	0x4ACF, r25	; 0x804acf <RO_10+0x7>
	RO_1     = RO % 10;							// ΈκεΈΥεΉΖΑ RO     1Ήζα ΉηΡΈου
    325e:	22 2d       	mov	r18, r2
    3260:	33 2d       	mov	r19, r3
    3262:	44 2d       	mov	r20, r4
    3264:	55 2d       	mov	r21, r5
    3266:	60 e0       	ldi	r22, 0x00	; 0
    3268:	70 e0       	ldi	r23, 0x00	; 0
    326a:	80 e0       	ldi	r24, 0x00	; 0
    326c:	90 e0       	ldi	r25, 0x00	; 0
    326e:	0e 94 91 36 	call	0x6d22	; 0x6d22 <__umoddi3>
    3272:	20 93 07 4b 	sts	0x4B07, r18	; 0x804b07 <RO_1>
    3276:	30 93 08 4b 	sts	0x4B08, r19	; 0x804b08 <RO_1+0x1>
    327a:	40 93 09 4b 	sts	0x4B09, r20	; 0x804b09 <RO_1+0x2>
    327e:	50 93 0a 4b 	sts	0x4B0A, r21	; 0x804b0a <RO_1+0x3>
    3282:	60 93 0b 4b 	sts	0x4B0B, r22	; 0x804b0b <RO_1+0x4>
    3286:	70 93 0c 4b 	sts	0x4B0C, r23	; 0x804b0c <RO_1+0x5>
    328a:	80 93 0d 4b 	sts	0x4B0D, r24	; 0x804b0d <RO_1+0x6>
    328e:	90 93 0e 4b 	sts	0x4B0E, r25	; 0x804b0e <RO_1+0x7>
//-------------------------------------------------------------------------------------------------
	while(SET.Menu)								// ΈσΦΈΚ┤Ά░Α 1 Ήζ┤Έσ┤ Έ░αΈ│╡
    3292:	f2 c2       	rjmp	.+1508   	; 0x3878 <RO_Set+0x790>
	{
		SET.Blink = 1;							// ΉηΡΈο┐ΉΙα Ά╣εΈ░ΧΉηΕ ΉΕνΉιΧ
    3294:	81 e0       	ldi	r24, 0x01	; 1
    3296:	80 93 91 4a 	sts	0x4A91, r24	; 0x804a91 <SET+0x2>

		switch(KEY.Count)						// ΉΕιΊΔζ Key Ά░Α ΈΙΝΈο░ΊγθΉΙα
    329a:	80 91 d5 4a 	lds	r24, 0x4AD5	; 0x804ad5 <KEY>
    329e:	82 30       	cpi	r24, 0x02	; 2
    32a0:	09 f4       	brne	.+2      	; 0x32a4 <RO_Set+0x1bc>
    32a2:	35 c1       	rjmp	.+618    	; 0x350e <RO_Set+0x426>
    32a4:	30 f4       	brcc	.+12     	; 0x32b2 <RO_Set+0x1ca>
    32a6:	88 23       	and	r24, r24
    32a8:	69 f0       	breq	.+26     	; 0x32c4 <RO_Set+0x1dc>
    32aa:	81 30       	cpi	r24, 0x01	; 1
    32ac:	09 f4       	brne	.+2      	; 0x32b0 <RO_Set+0x1c8>
    32ae:	9d c0       	rjmp	.+314    	; 0x33ea <RO_Set+0x302>
    32b0:	e1 c2       	rjmp	.+1474   	; 0x3874 <RO_Set+0x78c>
    32b2:	84 30       	cpi	r24, 0x04	; 4
    32b4:	09 f4       	brne	.+2      	; 0x32b8 <RO_Set+0x1d0>
    32b6:	4d c2       	rjmp	.+1178   	; 0x3752 <RO_Set+0x66a>
    32b8:	08 f4       	brcc	.+2      	; 0x32bc <RO_Set+0x1d4>
    32ba:	ba c1       	rjmp	.+884    	; 0x3630 <RO_Set+0x548>
    32bc:	85 30       	cpi	r24, 0x05	; 5
    32be:	09 f4       	brne	.+2      	; 0x32c2 <RO_Set+0x1da>
    32c0:	d7 c2       	rjmp	.+1454   	; 0x3870 <RO_Set+0x788>
    32c2:	d8 c2       	rjmp	.+1456   	; 0x3874 <RO_Set+0x78c>
		{
			case 0:							// ΈκεΈΥεΉΖΑ RO 10000Ήζα ΉηΡΈου
				DIGIT[2][3] = fnd_tbl[RO_1];			// ΈκεΈΥεΉΖΑ RO 1Ήζα ΉηΡΈου ΊΣεΉΜε
    32c4:	e0 91 07 4b 	lds	r30, 0x4B07	; 0x804b07 <RO_1>
    32c8:	f0 91 08 4b 	lds	r31, 0x4B08	; 0x804b08 <RO_1+0x1>
    32cc:	e4 57       	subi	r30, 0x74	; 116
    32ce:	ff 4b       	sbci	r31, 0xBF	; 191
    32d0:	80 81       	ld	r24, Z
    32d2:	80 93 ce 40 	sts	0x40CE, r24	; 0x8040ce <DIGIT+0xb>
				if(Blink) {DIGIT[1][3] = FND_OFF;}				// Blink = 1 Ήζ┤Έσ┤ ΈκεΈΥεΉΖΑ RO 10000Ήζα ΉηΡΈου OFF
    32d6:	80 91 02 4b 	lds	r24, 0x4B02	; 0x804b02 <Blink>
    32da:	88 23       	and	r24, r24
    32dc:	19 f0       	breq	.+6      	; 0x32e4 <RO_Set+0x1fc>
    32de:	10 92 ca 40 	sts	0x40CA, r1	; 0x8040ca <DIGIT+0x7>
    32e2:	0a c0       	rjmp	.+20     	; 0x32f8 <RO_Set+0x210>
				else	  {DIGIT[1][3] = fnd_tbl[RO_10000] + FND_Point;}	// Blink = 0 Ήζ┤Έσ┤ ΈκεΈΥεΉΖΑ RO 10000Ήζα ΉηΡΈου ΊΣεΉΜε
    32e4:	e0 91 e0 4a 	lds	r30, 0x4AE0	; 0x804ae0 <RO_10000>
    32e8:	f0 91 e1 4a 	lds	r31, 0x4AE1	; 0x804ae1 <RO_10000+0x1>
    32ec:	e4 57       	subi	r30, 0x74	; 116
    32ee:	ff 4b       	sbci	r31, 0xBF	; 191
    32f0:	80 81       	ld	r24, Z
    32f2:	8f 5f       	subi	r24, 0xFF	; 255
    32f4:	80 93 ca 40 	sts	0x40CA, r24	; 0x8040ca <DIGIT+0x7>

				if(KEY.Buff)					// Key ΉηΖΈιξΉζ┤ ΉηΙΉε╝Έσ┤
    32f8:	80 91 d6 4a 	lds	r24, 0x4AD6	; 0x804ad6 <KEY+0x1>
    32fc:	88 23       	and	r24, r24
    32fe:	09 f4       	brne	.+2      	; 0x3302 <RO_Set+0x21a>
    3300:	b9 c2       	rjmp	.+1394   	; 0x3874 <RO_Set+0x78c>
				{
					if     (KEY.Key == 1 && RO_10000 < 8) {RO_10000++; KEY.Key = 0;}	// ΉΩΖ  Έ▓ΕΊΛ╝ Ήζ┤Έσ┤ ROΆ░Τ 10000Ήζα ΉηΡΈου ΉοζΆ░Α
    3302:	80 91 d7 4a 	lds	r24, 0x4AD7	; 0x804ad7 <KEY+0x2>
    3306:	81 30       	cpi	r24, 0x01	; 1
    3308:	a9 f5       	brne	.+106    	; 0x3374 <RO_Set+0x28c>
    330a:	f0 90 e0 4a 	lds	r15, 0x4AE0	; 0x804ae0 <RO_10000>
    330e:	00 91 e1 4a 	lds	r16, 0x4AE1	; 0x804ae1 <RO_10000+0x1>
    3312:	10 91 e2 4a 	lds	r17, 0x4AE2	; 0x804ae2 <RO_10000+0x2>
    3316:	80 91 e3 4a 	lds	r24, 0x4AE3	; 0x804ae3 <RO_10000+0x3>
    331a:	8a 83       	std	Y+2, r24	; 0x02
    331c:	80 91 e4 4a 	lds	r24, 0x4AE4	; 0x804ae4 <RO_10000+0x4>
    3320:	89 83       	std	Y+1, r24	; 0x01
    3322:	b0 91 e5 4a 	lds	r27, 0x4AE5	; 0x804ae5 <RO_10000+0x5>
    3326:	f0 91 e6 4a 	lds	r31, 0x4AE6	; 0x804ae6 <RO_10000+0x6>
    332a:	e0 91 e7 4a 	lds	r30, 0x4AE7	; 0x804ae7 <RO_10000+0x7>
    332e:	2f 2d       	mov	r18, r15
    3330:	30 2f       	mov	r19, r16
    3332:	41 2f       	mov	r20, r17
    3334:	5a 81       	ldd	r21, Y+2	; 0x02
    3336:	68 2f       	mov	r22, r24
    3338:	7b 2f       	mov	r23, r27
    333a:	8f 2f       	mov	r24, r31
    333c:	9e 2f       	mov	r25, r30
    333e:	a7 e0       	ldi	r26, 0x07	; 7
    3340:	0e 94 27 37 	call	0x6e4e	; 0x6e4e <__cmpdi2_s8>
    3344:	09 f0       	breq	.+2      	; 0x3348 <RO_Set+0x260>
    3346:	b0 f4       	brcc	.+44     	; 0x3374 <RO_Set+0x28c>
    3348:	a1 e0       	ldi	r26, 0x01	; 1
    334a:	0e 94 12 37 	call	0x6e24	; 0x6e24 <__adddi3_s8>
    334e:	20 93 e0 4a 	sts	0x4AE0, r18	; 0x804ae0 <RO_10000>
    3352:	30 93 e1 4a 	sts	0x4AE1, r19	; 0x804ae1 <RO_10000+0x1>
    3356:	40 93 e2 4a 	sts	0x4AE2, r20	; 0x804ae2 <RO_10000+0x2>
    335a:	50 93 e3 4a 	sts	0x4AE3, r21	; 0x804ae3 <RO_10000+0x3>
    335e:	60 93 e4 4a 	sts	0x4AE4, r22	; 0x804ae4 <RO_10000+0x4>
    3362:	70 93 e5 4a 	sts	0x4AE5, r23	; 0x804ae5 <RO_10000+0x5>
    3366:	80 93 e6 4a 	sts	0x4AE6, r24	; 0x804ae6 <RO_10000+0x6>
    336a:	90 93 e7 4a 	sts	0x4AE7, r25	; 0x804ae7 <RO_10000+0x7>
    336e:	10 92 d7 4a 	sts	0x4AD7, r1	; 0x804ad7 <KEY+0x2>
    3372:	80 c2       	rjmp	.+1280   	; 0x3874 <RO_Set+0x78c>
					else if(KEY.Key == 3 && RO_10000 > 1) {RO_10000--; KEY.Key = 0;}	// ΈΜνΉγ┤Έ▓ΕΊΛ╝ Ήζ┤Έσ┤ ROΆ░Τ 10000Ήζα ΉηΡΈου Ά░ΡΉΗΝ
    3374:	80 91 d7 4a 	lds	r24, 0x4AD7	; 0x804ad7 <KEY+0x2>
    3378:	83 30       	cpi	r24, 0x03	; 3
    337a:	09 f0       	breq	.+2      	; 0x337e <RO_Set+0x296>
    337c:	7b c2       	rjmp	.+1270   	; 0x3874 <RO_Set+0x78c>
    337e:	f0 90 e0 4a 	lds	r15, 0x4AE0	; 0x804ae0 <RO_10000>
    3382:	00 91 e1 4a 	lds	r16, 0x4AE1	; 0x804ae1 <RO_10000+0x1>
    3386:	10 91 e2 4a 	lds	r17, 0x4AE2	; 0x804ae2 <RO_10000+0x2>
    338a:	80 91 e3 4a 	lds	r24, 0x4AE3	; 0x804ae3 <RO_10000+0x3>
    338e:	8a 83       	std	Y+2, r24	; 0x02
    3390:	80 91 e4 4a 	lds	r24, 0x4AE4	; 0x804ae4 <RO_10000+0x4>
    3394:	89 83       	std	Y+1, r24	; 0x01
    3396:	b0 91 e5 4a 	lds	r27, 0x4AE5	; 0x804ae5 <RO_10000+0x5>
    339a:	f0 91 e6 4a 	lds	r31, 0x4AE6	; 0x804ae6 <RO_10000+0x6>
    339e:	e0 91 e7 4a 	lds	r30, 0x4AE7	; 0x804ae7 <RO_10000+0x7>
    33a2:	2f 2d       	mov	r18, r15
    33a4:	30 2f       	mov	r19, r16
    33a6:	41 2f       	mov	r20, r17
    33a8:	5a 81       	ldd	r21, Y+2	; 0x02
    33aa:	68 2f       	mov	r22, r24
    33ac:	7b 2f       	mov	r23, r27
    33ae:	8f 2f       	mov	r24, r31
    33b0:	9e 2f       	mov	r25, r30
    33b2:	a1 e0       	ldi	r26, 0x01	; 1
    33b4:	0e 94 27 37 	call	0x6e4e	; 0x6e4e <__cmpdi2_s8>
    33b8:	09 f0       	breq	.+2      	; 0x33bc <RO_Set+0x2d4>
    33ba:	08 f4       	brcc	.+2      	; 0x33be <RO_Set+0x2d6>
    33bc:	5b c2       	rjmp	.+1206   	; 0x3874 <RO_Set+0x78c>
    33be:	af ef       	ldi	r26, 0xFF	; 255
    33c0:	0e 94 12 37 	call	0x6e24	; 0x6e24 <__adddi3_s8>
    33c4:	20 93 e0 4a 	sts	0x4AE0, r18	; 0x804ae0 <RO_10000>
    33c8:	30 93 e1 4a 	sts	0x4AE1, r19	; 0x804ae1 <RO_10000+0x1>
    33cc:	40 93 e2 4a 	sts	0x4AE2, r20	; 0x804ae2 <RO_10000+0x2>
    33d0:	50 93 e3 4a 	sts	0x4AE3, r21	; 0x804ae3 <RO_10000+0x3>
    33d4:	60 93 e4 4a 	sts	0x4AE4, r22	; 0x804ae4 <RO_10000+0x4>
    33d8:	70 93 e5 4a 	sts	0x4AE5, r23	; 0x804ae5 <RO_10000+0x5>
    33dc:	80 93 e6 4a 	sts	0x4AE6, r24	; 0x804ae6 <RO_10000+0x6>
    33e0:	90 93 e7 4a 	sts	0x4AE7, r25	; 0x804ae7 <RO_10000+0x7>
    33e4:	10 92 d7 4a 	sts	0x4AD7, r1	; 0x804ad7 <KEY+0x2>
    33e8:	45 c2       	rjmp	.+1162   	; 0x3874 <RO_Set+0x78c>
				}
			break;

			case 1:							// ΈκεΈΥεΉΖΑ RO 1000Ήζα ΉηΡΈου
				DIGIT[1][3] = fnd_tbl[RO_10000] + FND_Point;	// ΈκεΈΥεΉΖΑ RO 10000Ήζα ΉηΡΈου ΊΣεΉΜε
    33ea:	e0 91 e0 4a 	lds	r30, 0x4AE0	; 0x804ae0 <RO_10000>
    33ee:	f0 91 e1 4a 	lds	r31, 0x4AE1	; 0x804ae1 <RO_10000+0x1>
    33f2:	e4 57       	subi	r30, 0x74	; 116
    33f4:	ff 4b       	sbci	r31, 0xBF	; 191
    33f6:	80 81       	ld	r24, Z
    33f8:	8f 5f       	subi	r24, 0xFF	; 255
    33fa:	80 93 ca 40 	sts	0x40CA, r24	; 0x8040ca <DIGIT+0x7>
				if(Blink) {DIGIT[1][2] = FND_OFF;}		// Blink = 1 Ήζ┤Έσ┤ ΈκεΈΥεΉΖΑ RO 1000Ήζα ΉηΡΈου OFF
    33fe:	80 91 02 4b 	lds	r24, 0x4B02	; 0x804b02 <Blink>
    3402:	88 23       	and	r24, r24
    3404:	19 f0       	breq	.+6      	; 0x340c <RO_Set+0x324>
    3406:	10 92 c9 40 	sts	0x40C9, r1	; 0x8040c9 <DIGIT+0x6>
    340a:	09 c0       	rjmp	.+18     	; 0x341e <RO_Set+0x336>
				else	  {DIGIT[1][2] = fnd_tbl[RO_1000];}	// Blink = 0 Ήζ┤Έσ┤ ΈκεΈΥεΉΖΑ RO 1000Ήζα ΉηΡΈου ΊΣεΉΜε
    340c:	e0 91 0c 4c 	lds	r30, 0x4C0C	; 0x804c0c <RO_1000>
    3410:	f0 91 0d 4c 	lds	r31, 0x4C0D	; 0x804c0d <RO_1000+0x1>
    3414:	e4 57       	subi	r30, 0x74	; 116
    3416:	ff 4b       	sbci	r31, 0xBF	; 191
    3418:	80 81       	ld	r24, Z
    341a:	80 93 c9 40 	sts	0x40C9, r24	; 0x8040c9 <DIGIT+0x6>

				if(KEY.Buff)					// Key ΉηΖΈιξΉζ┤ ΉηΙΉε╝Έσ┤
    341e:	80 91 d6 4a 	lds	r24, 0x4AD6	; 0x804ad6 <KEY+0x1>
    3422:	88 23       	and	r24, r24
    3424:	09 f4       	brne	.+2      	; 0x3428 <RO_Set+0x340>
    3426:	26 c2       	rjmp	.+1100   	; 0x3874 <RO_Set+0x78c>
				{
					if     (KEY.Key == 1 && RO_1000 < 9) {RO_1000++; KEY.Key = 0;}		// ΉΩΖ  Έ▓ΕΊΛ╝ Ήζ┤Έσ┤ ROΆ░Τ 1000Ήζα ΉηΡΈου ΉοζΆ░Α
    3428:	80 91 d7 4a 	lds	r24, 0x4AD7	; 0x804ad7 <KEY+0x2>
    342c:	81 30       	cpi	r24, 0x01	; 1
    342e:	a9 f5       	brne	.+106    	; 0x349a <RO_Set+0x3b2>
    3430:	f0 90 0c 4c 	lds	r15, 0x4C0C	; 0x804c0c <RO_1000>
    3434:	00 91 0d 4c 	lds	r16, 0x4C0D	; 0x804c0d <RO_1000+0x1>
    3438:	10 91 0e 4c 	lds	r17, 0x4C0E	; 0x804c0e <RO_1000+0x2>
    343c:	80 91 0f 4c 	lds	r24, 0x4C0F	; 0x804c0f <RO_1000+0x3>
    3440:	8a 83       	std	Y+2, r24	; 0x02
    3442:	80 91 10 4c 	lds	r24, 0x4C10	; 0x804c10 <RO_1000+0x4>
    3446:	89 83       	std	Y+1, r24	; 0x01
    3448:	b0 91 11 4c 	lds	r27, 0x4C11	; 0x804c11 <RO_1000+0x5>
    344c:	f0 91 12 4c 	lds	r31, 0x4C12	; 0x804c12 <RO_1000+0x6>
    3450:	e0 91 13 4c 	lds	r30, 0x4C13	; 0x804c13 <RO_1000+0x7>
    3454:	2f 2d       	mov	r18, r15
    3456:	30 2f       	mov	r19, r16
    3458:	41 2f       	mov	r20, r17
    345a:	5a 81       	ldd	r21, Y+2	; 0x02
    345c:	68 2f       	mov	r22, r24
    345e:	7b 2f       	mov	r23, r27
    3460:	8f 2f       	mov	r24, r31
    3462:	9e 2f       	mov	r25, r30
    3464:	a8 e0       	ldi	r26, 0x08	; 8
    3466:	0e 94 27 37 	call	0x6e4e	; 0x6e4e <__cmpdi2_s8>
    346a:	09 f0       	breq	.+2      	; 0x346e <RO_Set+0x386>
    346c:	b0 f4       	brcc	.+44     	; 0x349a <RO_Set+0x3b2>
    346e:	a1 e0       	ldi	r26, 0x01	; 1
    3470:	0e 94 12 37 	call	0x6e24	; 0x6e24 <__adddi3_s8>
    3474:	20 93 0c 4c 	sts	0x4C0C, r18	; 0x804c0c <RO_1000>
    3478:	30 93 0d 4c 	sts	0x4C0D, r19	; 0x804c0d <RO_1000+0x1>
    347c:	40 93 0e 4c 	sts	0x4C0E, r20	; 0x804c0e <RO_1000+0x2>
    3480:	50 93 0f 4c 	sts	0x4C0F, r21	; 0x804c0f <RO_1000+0x3>
    3484:	60 93 10 4c 	sts	0x4C10, r22	; 0x804c10 <RO_1000+0x4>
    3488:	70 93 11 4c 	sts	0x4C11, r23	; 0x804c11 <RO_1000+0x5>
    348c:	80 93 12 4c 	sts	0x4C12, r24	; 0x804c12 <RO_1000+0x6>
    3490:	90 93 13 4c 	sts	0x4C13, r25	; 0x804c13 <RO_1000+0x7>
    3494:	10 92 d7 4a 	sts	0x4AD7, r1	; 0x804ad7 <KEY+0x2>
    3498:	ed c1       	rjmp	.+986    	; 0x3874 <RO_Set+0x78c>
					else if(KEY.Key == 3 && RO_1000 > 0) {RO_1000--; KEY.Key = 0;}		// ΈΜνΉγ┤Έ▓ΕΊΛ╝ Ήζ┤Έσ┤ ROΆ░Τ 1000Ήζα ΉηΡΈου Ά░ΡΉΗΝ
    349a:	80 91 d7 4a 	lds	r24, 0x4AD7	; 0x804ad7 <KEY+0x2>
    349e:	83 30       	cpi	r24, 0x03	; 3
    34a0:	09 f0       	breq	.+2      	; 0x34a4 <RO_Set+0x3bc>
    34a2:	e8 c1       	rjmp	.+976    	; 0x3874 <RO_Set+0x78c>
    34a4:	f0 90 0c 4c 	lds	r15, 0x4C0C	; 0x804c0c <RO_1000>
    34a8:	00 91 0d 4c 	lds	r16, 0x4C0D	; 0x804c0d <RO_1000+0x1>
    34ac:	10 91 0e 4c 	lds	r17, 0x4C0E	; 0x804c0e <RO_1000+0x2>
    34b0:	80 91 0f 4c 	lds	r24, 0x4C0F	; 0x804c0f <RO_1000+0x3>
    34b4:	8a 83       	std	Y+2, r24	; 0x02
    34b6:	80 91 10 4c 	lds	r24, 0x4C10	; 0x804c10 <RO_1000+0x4>
    34ba:	89 83       	std	Y+1, r24	; 0x01
    34bc:	b0 91 11 4c 	lds	r27, 0x4C11	; 0x804c11 <RO_1000+0x5>
    34c0:	f0 91 12 4c 	lds	r31, 0x4C12	; 0x804c12 <RO_1000+0x6>
    34c4:	e0 91 13 4c 	lds	r30, 0x4C13	; 0x804c13 <RO_1000+0x7>
    34c8:	2f 2d       	mov	r18, r15
    34ca:	30 2f       	mov	r19, r16
    34cc:	41 2f       	mov	r20, r17
    34ce:	5a 81       	ldd	r21, Y+2	; 0x02
    34d0:	68 2f       	mov	r22, r24
    34d2:	7b 2f       	mov	r23, r27
    34d4:	8f 2f       	mov	r24, r31
    34d6:	9e 2f       	mov	r25, r30
    34d8:	a0 e0       	ldi	r26, 0x00	; 0
    34da:	0e 94 27 37 	call	0x6e4e	; 0x6e4e <__cmpdi2_s8>
    34de:	09 f4       	brne	.+2      	; 0x34e2 <RO_Set+0x3fa>
    34e0:	c9 c1       	rjmp	.+914    	; 0x3874 <RO_Set+0x78c>
    34e2:	af ef       	ldi	r26, 0xFF	; 255
    34e4:	0e 94 12 37 	call	0x6e24	; 0x6e24 <__adddi3_s8>
    34e8:	20 93 0c 4c 	sts	0x4C0C, r18	; 0x804c0c <RO_1000>
    34ec:	30 93 0d 4c 	sts	0x4C0D, r19	; 0x804c0d <RO_1000+0x1>
    34f0:	40 93 0e 4c 	sts	0x4C0E, r20	; 0x804c0e <RO_1000+0x2>
    34f4:	50 93 0f 4c 	sts	0x4C0F, r21	; 0x804c0f <RO_1000+0x3>
    34f8:	60 93 10 4c 	sts	0x4C10, r22	; 0x804c10 <RO_1000+0x4>
    34fc:	70 93 11 4c 	sts	0x4C11, r23	; 0x804c11 <RO_1000+0x5>
    3500:	80 93 12 4c 	sts	0x4C12, r24	; 0x804c12 <RO_1000+0x6>
    3504:	90 93 13 4c 	sts	0x4C13, r25	; 0x804c13 <RO_1000+0x7>
    3508:	10 92 d7 4a 	sts	0x4AD7, r1	; 0x804ad7 <KEY+0x2>
    350c:	b3 c1       	rjmp	.+870    	; 0x3874 <RO_Set+0x78c>
				}
			break;

			case 2:							// ΈκεΈΥεΉΖΑ RO 100Ήζα ΉηΡΈου
				DIGIT[1][2] = fnd_tbl[RO_1000];			// ΈκεΈΥεΉΖΑ RO 1000Ήζα ΉηΡΈου ΊΣεΉΜε
    350e:	e0 91 0c 4c 	lds	r30, 0x4C0C	; 0x804c0c <RO_1000>
    3512:	f0 91 0d 4c 	lds	r31, 0x4C0D	; 0x804c0d <RO_1000+0x1>
    3516:	e4 57       	subi	r30, 0x74	; 116
    3518:	ff 4b       	sbci	r31, 0xBF	; 191
    351a:	80 81       	ld	r24, Z
    351c:	80 93 c9 40 	sts	0x40C9, r24	; 0x8040c9 <DIGIT+0x6>
				if(Blink) {DIGIT[1][1] = FND_OFF;}		// Blink = 1 Ήζ┤Έσ┤ ΈκεΈΥεΉΖΑ RO 100Ήζα ΉηΡΈου OFF
    3520:	80 91 02 4b 	lds	r24, 0x4B02	; 0x804b02 <Blink>
    3524:	88 23       	and	r24, r24
    3526:	19 f0       	breq	.+6      	; 0x352e <RO_Set+0x446>
    3528:	10 92 c8 40 	sts	0x40C8, r1	; 0x8040c8 <DIGIT+0x5>
    352c:	09 c0       	rjmp	.+18     	; 0x3540 <RO_Set+0x458>
				else	  {DIGIT[1][1] = fnd_tbl[RO_100];}	// Blink = 0 Ήζ┤Έσ┤ ΈκεΈΥεΉΖΑ RO 100Ήζα ΉηΡΈου ΊΣεΉΜε
    352e:	e0 91 fa 4a 	lds	r30, 0x4AFA	; 0x804afa <RO_100>
    3532:	f0 91 fb 4a 	lds	r31, 0x4AFB	; 0x804afb <RO_100+0x1>
    3536:	e4 57       	subi	r30, 0x74	; 116
    3538:	ff 4b       	sbci	r31, 0xBF	; 191
    353a:	80 81       	ld	r24, Z
    353c:	80 93 c8 40 	sts	0x40C8, r24	; 0x8040c8 <DIGIT+0x5>

				if(KEY.Buff)					// Key ΉηΖΈιξΉζ┤ ΉηΙΉε╝Έσ┤
    3540:	80 91 d6 4a 	lds	r24, 0x4AD6	; 0x804ad6 <KEY+0x1>
    3544:	88 23       	and	r24, r24
    3546:	09 f4       	brne	.+2      	; 0x354a <RO_Set+0x462>
    3548:	95 c1       	rjmp	.+810    	; 0x3874 <RO_Set+0x78c>
				{
					if     (KEY.Key == 1 && RO_100 < 9) {RO_100++; KEY.Key = 0;}		// ΉΩΖ  Έ▓ΕΊΛ╝ Ήζ┤Έσ┤ ROΆ░Τ 100Ήζα ΉηΡΈου ΉοζΆ░Α
    354a:	80 91 d7 4a 	lds	r24, 0x4AD7	; 0x804ad7 <KEY+0x2>
    354e:	81 30       	cpi	r24, 0x01	; 1
    3550:	a9 f5       	brne	.+106    	; 0x35bc <RO_Set+0x4d4>
    3552:	f0 90 fa 4a 	lds	r15, 0x4AFA	; 0x804afa <RO_100>
    3556:	00 91 fb 4a 	lds	r16, 0x4AFB	; 0x804afb <RO_100+0x1>
    355a:	10 91 fc 4a 	lds	r17, 0x4AFC	; 0x804afc <RO_100+0x2>
    355e:	80 91 fd 4a 	lds	r24, 0x4AFD	; 0x804afd <RO_100+0x3>
    3562:	8a 83       	std	Y+2, r24	; 0x02
    3564:	80 91 fe 4a 	lds	r24, 0x4AFE	; 0x804afe <RO_100+0x4>
    3568:	89 83       	std	Y+1, r24	; 0x01
    356a:	b0 91 ff 4a 	lds	r27, 0x4AFF	; 0x804aff <RO_100+0x5>
    356e:	f0 91 00 4b 	lds	r31, 0x4B00	; 0x804b00 <RO_100+0x6>
    3572:	e0 91 01 4b 	lds	r30, 0x4B01	; 0x804b01 <RO_100+0x7>
    3576:	2f 2d       	mov	r18, r15
    3578:	30 2f       	mov	r19, r16
    357a:	41 2f       	mov	r20, r17
    357c:	5a 81       	ldd	r21, Y+2	; 0x02
    357e:	68 2f       	mov	r22, r24
    3580:	7b 2f       	mov	r23, r27
    3582:	8f 2f       	mov	r24, r31
    3584:	9e 2f       	mov	r25, r30
    3586:	a8 e0       	ldi	r26, 0x08	; 8
    3588:	0e 94 27 37 	call	0x6e4e	; 0x6e4e <__cmpdi2_s8>
    358c:	09 f0       	breq	.+2      	; 0x3590 <RO_Set+0x4a8>
    358e:	b0 f4       	brcc	.+44     	; 0x35bc <RO_Set+0x4d4>
    3590:	a1 e0       	ldi	r26, 0x01	; 1
    3592:	0e 94 12 37 	call	0x6e24	; 0x6e24 <__adddi3_s8>
    3596:	20 93 fa 4a 	sts	0x4AFA, r18	; 0x804afa <RO_100>
    359a:	30 93 fb 4a 	sts	0x4AFB, r19	; 0x804afb <RO_100+0x1>
    359e:	40 93 fc 4a 	sts	0x4AFC, r20	; 0x804afc <RO_100+0x2>
    35a2:	50 93 fd 4a 	sts	0x4AFD, r21	; 0x804afd <RO_100+0x3>
    35a6:	60 93 fe 4a 	sts	0x4AFE, r22	; 0x804afe <RO_100+0x4>
    35aa:	70 93 ff 4a 	sts	0x4AFF, r23	; 0x804aff <RO_100+0x5>
    35ae:	80 93 00 4b 	sts	0x4B00, r24	; 0x804b00 <RO_100+0x6>
    35b2:	90 93 01 4b 	sts	0x4B01, r25	; 0x804b01 <RO_100+0x7>
    35b6:	10 92 d7 4a 	sts	0x4AD7, r1	; 0x804ad7 <KEY+0x2>
    35ba:	5c c1       	rjmp	.+696    	; 0x3874 <RO_Set+0x78c>
					else if(KEY.Key == 3 && RO_100 > 0) {RO_100--; KEY.Key = 0;}		// ΈΜνΉγ┤Έ▓ΕΊΛ╝ Ήζ┤Έσ┤ ROΆ░Τ 100Ήζα ΉηΡΈου Ά░ΡΉΗΝ
    35bc:	80 91 d7 4a 	lds	r24, 0x4AD7	; 0x804ad7 <KEY+0x2>
    35c0:	83 30       	cpi	r24, 0x03	; 3
    35c2:	09 f0       	breq	.+2      	; 0x35c6 <RO_Set+0x4de>
    35c4:	57 c1       	rjmp	.+686    	; 0x3874 <RO_Set+0x78c>
    35c6:	f0 90 fa 4a 	lds	r15, 0x4AFA	; 0x804afa <RO_100>
    35ca:	00 91 fb 4a 	lds	r16, 0x4AFB	; 0x804afb <RO_100+0x1>
    35ce:	10 91 fc 4a 	lds	r17, 0x4AFC	; 0x804afc <RO_100+0x2>
    35d2:	80 91 fd 4a 	lds	r24, 0x4AFD	; 0x804afd <RO_100+0x3>
    35d6:	8a 83       	std	Y+2, r24	; 0x02
    35d8:	80 91 fe 4a 	lds	r24, 0x4AFE	; 0x804afe <RO_100+0x4>
    35dc:	89 83       	std	Y+1, r24	; 0x01
    35de:	b0 91 ff 4a 	lds	r27, 0x4AFF	; 0x804aff <RO_100+0x5>
    35e2:	f0 91 00 4b 	lds	r31, 0x4B00	; 0x804b00 <RO_100+0x6>
    35e6:	e0 91 01 4b 	lds	r30, 0x4B01	; 0x804b01 <RO_100+0x7>
    35ea:	2f 2d       	mov	r18, r15
    35ec:	30 2f       	mov	r19, r16
    35ee:	41 2f       	mov	r20, r17
    35f0:	5a 81       	ldd	r21, Y+2	; 0x02
    35f2:	68 2f       	mov	r22, r24
    35f4:	7b 2f       	mov	r23, r27
    35f6:	8f 2f       	mov	r24, r31
    35f8:	9e 2f       	mov	r25, r30
    35fa:	a0 e0       	ldi	r26, 0x00	; 0
    35fc:	0e 94 27 37 	call	0x6e4e	; 0x6e4e <__cmpdi2_s8>
    3600:	09 f4       	brne	.+2      	; 0x3604 <RO_Set+0x51c>
    3602:	38 c1       	rjmp	.+624    	; 0x3874 <RO_Set+0x78c>
    3604:	af ef       	ldi	r26, 0xFF	; 255
    3606:	0e 94 12 37 	call	0x6e24	; 0x6e24 <__adddi3_s8>
    360a:	20 93 fa 4a 	sts	0x4AFA, r18	; 0x804afa <RO_100>
    360e:	30 93 fb 4a 	sts	0x4AFB, r19	; 0x804afb <RO_100+0x1>
    3612:	40 93 fc 4a 	sts	0x4AFC, r20	; 0x804afc <RO_100+0x2>
    3616:	50 93 fd 4a 	sts	0x4AFD, r21	; 0x804afd <RO_100+0x3>
    361a:	60 93 fe 4a 	sts	0x4AFE, r22	; 0x804afe <RO_100+0x4>
    361e:	70 93 ff 4a 	sts	0x4AFF, r23	; 0x804aff <RO_100+0x5>
    3622:	80 93 00 4b 	sts	0x4B00, r24	; 0x804b00 <RO_100+0x6>
    3626:	90 93 01 4b 	sts	0x4B01, r25	; 0x804b01 <RO_100+0x7>
    362a:	10 92 d7 4a 	sts	0x4AD7, r1	; 0x804ad7 <KEY+0x2>
    362e:	22 c1       	rjmp	.+580    	; 0x3874 <RO_Set+0x78c>
				}
			break;

			case 3:							// ΈκεΈΥεΉΖΑ RO 10Ήζα ΉηΡΈου
				DIGIT[1][1] = fnd_tbl[RO_100];			// ΈκεΈΥεΉΖΑ RO 100Ήζα ΉηΡΈου ΊΣεΉΜε
    3630:	e0 91 fa 4a 	lds	r30, 0x4AFA	; 0x804afa <RO_100>
    3634:	f0 91 fb 4a 	lds	r31, 0x4AFB	; 0x804afb <RO_100+0x1>
    3638:	e4 57       	subi	r30, 0x74	; 116
    363a:	ff 4b       	sbci	r31, 0xBF	; 191
    363c:	80 81       	ld	r24, Z
    363e:	80 93 c8 40 	sts	0x40C8, r24	; 0x8040c8 <DIGIT+0x5>
				if(Blink) {DIGIT[1][0] = FND_OFF;}		// Blink = 1 Ήζ┤Έσ┤ ΈκεΈΥεΉΖΑ RO 10Ήζα ΉηΡΈου OFF
    3642:	80 91 02 4b 	lds	r24, 0x4B02	; 0x804b02 <Blink>
    3646:	88 23       	and	r24, r24
    3648:	19 f0       	breq	.+6      	; 0x3650 <RO_Set+0x568>
    364a:	10 92 c7 40 	sts	0x40C7, r1	; 0x8040c7 <DIGIT+0x4>
    364e:	09 c0       	rjmp	.+18     	; 0x3662 <RO_Set+0x57a>
				else	  {DIGIT[1][0] = fnd_tbl[RO_10];}	// Blink = 0 Ήζ┤Έσ┤ ΈκεΈΥεΉΖΑ RO 10Ήζα ΉηΡΈου ΊΣεΉΜε
    3650:	e0 91 c8 4a 	lds	r30, 0x4AC8	; 0x804ac8 <RO_10>
    3654:	f0 91 c9 4a 	lds	r31, 0x4AC9	; 0x804ac9 <RO_10+0x1>
    3658:	e4 57       	subi	r30, 0x74	; 116
    365a:	ff 4b       	sbci	r31, 0xBF	; 191
    365c:	80 81       	ld	r24, Z
    365e:	80 93 c7 40 	sts	0x40C7, r24	; 0x8040c7 <DIGIT+0x4>

				if(KEY.Buff)					// Key ΉηΖΈιξΉζ┤ ΉηΙΉε╝Έσ┤
    3662:	80 91 d6 4a 	lds	r24, 0x4AD6	; 0x804ad6 <KEY+0x1>
    3666:	88 23       	and	r24, r24
    3668:	09 f4       	brne	.+2      	; 0x366c <RO_Set+0x584>
    366a:	04 c1       	rjmp	.+520    	; 0x3874 <RO_Set+0x78c>
				{
					if     (KEY.Key == 1 && RO_10 < 9) {RO_10++; KEY.Key = 0;}		// ΉΩΖ  Έ▓ΕΊΛ╝ Ήζ┤Έσ┤ ROΆ░Τ 10Ήζα ΉηΡΈου ΉοζΆ░Α
    366c:	80 91 d7 4a 	lds	r24, 0x4AD7	; 0x804ad7 <KEY+0x2>
    3670:	81 30       	cpi	r24, 0x01	; 1
    3672:	a9 f5       	brne	.+106    	; 0x36de <RO_Set+0x5f6>
    3674:	f0 90 c8 4a 	lds	r15, 0x4AC8	; 0x804ac8 <RO_10>
    3678:	00 91 c9 4a 	lds	r16, 0x4AC9	; 0x804ac9 <RO_10+0x1>
    367c:	10 91 ca 4a 	lds	r17, 0x4ACA	; 0x804aca <RO_10+0x2>
    3680:	80 91 cb 4a 	lds	r24, 0x4ACB	; 0x804acb <RO_10+0x3>
    3684:	8a 83       	std	Y+2, r24	; 0x02
    3686:	80 91 cc 4a 	lds	r24, 0x4ACC	; 0x804acc <RO_10+0x4>
    368a:	89 83       	std	Y+1, r24	; 0x01
    368c:	b0 91 cd 4a 	lds	r27, 0x4ACD	; 0x804acd <RO_10+0x5>
    3690:	f0 91 ce 4a 	lds	r31, 0x4ACE	; 0x804ace <RO_10+0x6>
    3694:	e0 91 cf 4a 	lds	r30, 0x4ACF	; 0x804acf <RO_10+0x7>
    3698:	2f 2d       	mov	r18, r15
    369a:	30 2f       	mov	r19, r16
    369c:	41 2f       	mov	r20, r17
    369e:	5a 81       	ldd	r21, Y+2	; 0x02
    36a0:	68 2f       	mov	r22, r24
    36a2:	7b 2f       	mov	r23, r27
    36a4:	8f 2f       	mov	r24, r31
    36a6:	9e 2f       	mov	r25, r30
    36a8:	a8 e0       	ldi	r26, 0x08	; 8
    36aa:	0e 94 27 37 	call	0x6e4e	; 0x6e4e <__cmpdi2_s8>
    36ae:	09 f0       	breq	.+2      	; 0x36b2 <RO_Set+0x5ca>
    36b0:	b0 f4       	brcc	.+44     	; 0x36de <RO_Set+0x5f6>
    36b2:	a1 e0       	ldi	r26, 0x01	; 1
    36b4:	0e 94 12 37 	call	0x6e24	; 0x6e24 <__adddi3_s8>
    36b8:	20 93 c8 4a 	sts	0x4AC8, r18	; 0x804ac8 <RO_10>
    36bc:	30 93 c9 4a 	sts	0x4AC9, r19	; 0x804ac9 <RO_10+0x1>
    36c0:	40 93 ca 4a 	sts	0x4ACA, r20	; 0x804aca <RO_10+0x2>
    36c4:	50 93 cb 4a 	sts	0x4ACB, r21	; 0x804acb <RO_10+0x3>
    36c8:	60 93 cc 4a 	sts	0x4ACC, r22	; 0x804acc <RO_10+0x4>
    36cc:	70 93 cd 4a 	sts	0x4ACD, r23	; 0x804acd <RO_10+0x5>
    36d0:	80 93 ce 4a 	sts	0x4ACE, r24	; 0x804ace <RO_10+0x6>
    36d4:	90 93 cf 4a 	sts	0x4ACF, r25	; 0x804acf <RO_10+0x7>
    36d8:	10 92 d7 4a 	sts	0x4AD7, r1	; 0x804ad7 <KEY+0x2>
    36dc:	cb c0       	rjmp	.+406    	; 0x3874 <RO_Set+0x78c>
					else if(KEY.Key == 3 && RO_10 > 0) {RO_10--; KEY.Key = 0;}		// ΈΜνΉγ┤Έ▓ΕΊΛ╝ Ήζ┤Έσ┤ ROΆ░Τ 10Ήζα ΉηΡΈου Ά░ΡΉΗΝ
    36de:	80 91 d7 4a 	lds	r24, 0x4AD7	; 0x804ad7 <KEY+0x2>
    36e2:	83 30       	cpi	r24, 0x03	; 3
    36e4:	09 f0       	breq	.+2      	; 0x36e8 <RO_Set+0x600>
    36e6:	c6 c0       	rjmp	.+396    	; 0x3874 <RO_Set+0x78c>
    36e8:	f0 90 c8 4a 	lds	r15, 0x4AC8	; 0x804ac8 <RO_10>
    36ec:	00 91 c9 4a 	lds	r16, 0x4AC9	; 0x804ac9 <RO_10+0x1>
    36f0:	10 91 ca 4a 	lds	r17, 0x4ACA	; 0x804aca <RO_10+0x2>
    36f4:	80 91 cb 4a 	lds	r24, 0x4ACB	; 0x804acb <RO_10+0x3>
    36f8:	8a 83       	std	Y+2, r24	; 0x02
    36fa:	80 91 cc 4a 	lds	r24, 0x4ACC	; 0x804acc <RO_10+0x4>
    36fe:	89 83       	std	Y+1, r24	; 0x01
    3700:	b0 91 cd 4a 	lds	r27, 0x4ACD	; 0x804acd <RO_10+0x5>
    3704:	f0 91 ce 4a 	lds	r31, 0x4ACE	; 0x804ace <RO_10+0x6>
    3708:	e0 91 cf 4a 	lds	r30, 0x4ACF	; 0x804acf <RO_10+0x7>
    370c:	2f 2d       	mov	r18, r15
    370e:	30 2f       	mov	r19, r16
    3710:	41 2f       	mov	r20, r17
    3712:	5a 81       	ldd	r21, Y+2	; 0x02
    3714:	68 2f       	mov	r22, r24
    3716:	7b 2f       	mov	r23, r27
    3718:	8f 2f       	mov	r24, r31
    371a:	9e 2f       	mov	r25, r30
    371c:	a0 e0       	ldi	r26, 0x00	; 0
    371e:	0e 94 27 37 	call	0x6e4e	; 0x6e4e <__cmpdi2_s8>
    3722:	09 f4       	brne	.+2      	; 0x3726 <RO_Set+0x63e>
    3724:	a7 c0       	rjmp	.+334    	; 0x3874 <RO_Set+0x78c>
    3726:	af ef       	ldi	r26, 0xFF	; 255
    3728:	0e 94 12 37 	call	0x6e24	; 0x6e24 <__adddi3_s8>
    372c:	20 93 c8 4a 	sts	0x4AC8, r18	; 0x804ac8 <RO_10>
    3730:	30 93 c9 4a 	sts	0x4AC9, r19	; 0x804ac9 <RO_10+0x1>
    3734:	40 93 ca 4a 	sts	0x4ACA, r20	; 0x804aca <RO_10+0x2>
    3738:	50 93 cb 4a 	sts	0x4ACB, r21	; 0x804acb <RO_10+0x3>
    373c:	60 93 cc 4a 	sts	0x4ACC, r22	; 0x804acc <RO_10+0x4>
    3740:	70 93 cd 4a 	sts	0x4ACD, r23	; 0x804acd <RO_10+0x5>
    3744:	80 93 ce 4a 	sts	0x4ACE, r24	; 0x804ace <RO_10+0x6>
    3748:	90 93 cf 4a 	sts	0x4ACF, r25	; 0x804acf <RO_10+0x7>
    374c:	10 92 d7 4a 	sts	0x4AD7, r1	; 0x804ad7 <KEY+0x2>
    3750:	91 c0       	rjmp	.+290    	; 0x3874 <RO_Set+0x78c>
				}
			break;

			case 4:							// ΈκεΈΥεΉΖΑ RO 1Ήζα ΉηΡΈου
				DIGIT[1][0] = fnd_tbl[RO_10];			// ΈκεΈΥεΉΖΑ RO 10Ήζα ΉηΡΈου ΊΣεΉΜε
    3752:	e0 91 c8 4a 	lds	r30, 0x4AC8	; 0x804ac8 <RO_10>
    3756:	f0 91 c9 4a 	lds	r31, 0x4AC9	; 0x804ac9 <RO_10+0x1>
    375a:	e4 57       	subi	r30, 0x74	; 116
    375c:	ff 4b       	sbci	r31, 0xBF	; 191
    375e:	80 81       	ld	r24, Z
    3760:	80 93 c7 40 	sts	0x40C7, r24	; 0x8040c7 <DIGIT+0x4>
				if(Blink) {DIGIT[2][3] = FND_OFF;}		// Blink = 1 Ήζ┤Έσ┤ ΈκεΈΥεΉΖΑ RO 1Ήζα ΉηΡΈου OFF
    3764:	80 91 02 4b 	lds	r24, 0x4B02	; 0x804b02 <Blink>
    3768:	88 23       	and	r24, r24
    376a:	19 f0       	breq	.+6      	; 0x3772 <RO_Set+0x68a>
    376c:	10 92 ce 40 	sts	0x40CE, r1	; 0x8040ce <DIGIT+0xb>
    3770:	09 c0       	rjmp	.+18     	; 0x3784 <RO_Set+0x69c>
				else	  {DIGIT[2][3] = fnd_tbl[RO_1];}	// Blink = 0 Ήζ┤Έσ┤ ΈκεΈΥεΉΖΑ RO 1Ήζα ΉηΡΈου ΊΣεΉΜε
    3772:	e0 91 07 4b 	lds	r30, 0x4B07	; 0x804b07 <RO_1>
    3776:	f0 91 08 4b 	lds	r31, 0x4B08	; 0x804b08 <RO_1+0x1>
    377a:	e4 57       	subi	r30, 0x74	; 116
    377c:	ff 4b       	sbci	r31, 0xBF	; 191
    377e:	80 81       	ld	r24, Z
    3780:	80 93 ce 40 	sts	0x40CE, r24	; 0x8040ce <DIGIT+0xb>

				if(KEY.Buff)					// Key ΉηΖΈιξΉζ┤ ΉηΙΉε╝Έσ┤
    3784:	80 91 d6 4a 	lds	r24, 0x4AD6	; 0x804ad6 <KEY+0x1>
    3788:	88 23       	and	r24, r24
    378a:	09 f4       	brne	.+2      	; 0x378e <RO_Set+0x6a6>
    378c:	73 c0       	rjmp	.+230    	; 0x3874 <RO_Set+0x78c>
				{
					if     (KEY.Key == 1 && RO_1 < 9) {RO_1++; KEY.Key = 0;}		// ΉΩΖ  Έ▓ΕΊΛ╝ Ήζ┤Έσ┤ ROΆ░Τ 1Ήζα ΉηΡΈου ΉοζΆ░Α
    378e:	80 91 d7 4a 	lds	r24, 0x4AD7	; 0x804ad7 <KEY+0x2>
    3792:	81 30       	cpi	r24, 0x01	; 1
    3794:	a9 f5       	brne	.+106    	; 0x3800 <RO_Set+0x718>
    3796:	f0 90 07 4b 	lds	r15, 0x4B07	; 0x804b07 <RO_1>
    379a:	00 91 08 4b 	lds	r16, 0x4B08	; 0x804b08 <RO_1+0x1>
    379e:	10 91 09 4b 	lds	r17, 0x4B09	; 0x804b09 <RO_1+0x2>
    37a2:	80 91 0a 4b 	lds	r24, 0x4B0A	; 0x804b0a <RO_1+0x3>
    37a6:	8a 83       	std	Y+2, r24	; 0x02
    37a8:	80 91 0b 4b 	lds	r24, 0x4B0B	; 0x804b0b <RO_1+0x4>
    37ac:	89 83       	std	Y+1, r24	; 0x01
    37ae:	b0 91 0c 4b 	lds	r27, 0x4B0C	; 0x804b0c <RO_1+0x5>
    37b2:	f0 91 0d 4b 	lds	r31, 0x4B0D	; 0x804b0d <RO_1+0x6>
    37b6:	e0 91 0e 4b 	lds	r30, 0x4B0E	; 0x804b0e <RO_1+0x7>
    37ba:	2f 2d       	mov	r18, r15
    37bc:	30 2f       	mov	r19, r16
    37be:	41 2f       	mov	r20, r17
    37c0:	5a 81       	ldd	r21, Y+2	; 0x02
    37c2:	68 2f       	mov	r22, r24
    37c4:	7b 2f       	mov	r23, r27
    37c6:	8f 2f       	mov	r24, r31
    37c8:	9e 2f       	mov	r25, r30
    37ca:	a8 e0       	ldi	r26, 0x08	; 8
    37cc:	0e 94 27 37 	call	0x6e4e	; 0x6e4e <__cmpdi2_s8>
    37d0:	09 f0       	breq	.+2      	; 0x37d4 <RO_Set+0x6ec>
    37d2:	b0 f4       	brcc	.+44     	; 0x3800 <RO_Set+0x718>
    37d4:	a1 e0       	ldi	r26, 0x01	; 1
    37d6:	0e 94 12 37 	call	0x6e24	; 0x6e24 <__adddi3_s8>
    37da:	20 93 07 4b 	sts	0x4B07, r18	; 0x804b07 <RO_1>
    37de:	30 93 08 4b 	sts	0x4B08, r19	; 0x804b08 <RO_1+0x1>
    37e2:	40 93 09 4b 	sts	0x4B09, r20	; 0x804b09 <RO_1+0x2>
    37e6:	50 93 0a 4b 	sts	0x4B0A, r21	; 0x804b0a <RO_1+0x3>
    37ea:	60 93 0b 4b 	sts	0x4B0B, r22	; 0x804b0b <RO_1+0x4>
    37ee:	70 93 0c 4b 	sts	0x4B0C, r23	; 0x804b0c <RO_1+0x5>
    37f2:	80 93 0d 4b 	sts	0x4B0D, r24	; 0x804b0d <RO_1+0x6>
    37f6:	90 93 0e 4b 	sts	0x4B0E, r25	; 0x804b0e <RO_1+0x7>
    37fa:	10 92 d7 4a 	sts	0x4AD7, r1	; 0x804ad7 <KEY+0x2>
    37fe:	3a c0       	rjmp	.+116    	; 0x3874 <RO_Set+0x78c>
					else if(KEY.Key == 3 && RO_1 > 0) {RO_1--; KEY.Key = 0;}		// ΈΜνΉγ┤Έ▓ΕΊΛ╝ Ήζ┤Έσ┤ ROΆ░Τ 1Ήζα ΉηΡΈου Ά░ΡΉΗΝ
    3800:	80 91 d7 4a 	lds	r24, 0x4AD7	; 0x804ad7 <KEY+0x2>
    3804:	83 30       	cpi	r24, 0x03	; 3
    3806:	b1 f5       	brne	.+108    	; 0x3874 <RO_Set+0x78c>
    3808:	f0 90 07 4b 	lds	r15, 0x4B07	; 0x804b07 <RO_1>
    380c:	00 91 08 4b 	lds	r16, 0x4B08	; 0x804b08 <RO_1+0x1>
    3810:	10 91 09 4b 	lds	r17, 0x4B09	; 0x804b09 <RO_1+0x2>
    3814:	80 91 0a 4b 	lds	r24, 0x4B0A	; 0x804b0a <RO_1+0x3>
    3818:	8a 83       	std	Y+2, r24	; 0x02
    381a:	80 91 0b 4b 	lds	r24, 0x4B0B	; 0x804b0b <RO_1+0x4>
    381e:	89 83       	std	Y+1, r24	; 0x01
    3820:	b0 91 0c 4b 	lds	r27, 0x4B0C	; 0x804b0c <RO_1+0x5>
    3824:	f0 91 0d 4b 	lds	r31, 0x4B0D	; 0x804b0d <RO_1+0x6>
    3828:	e0 91 0e 4b 	lds	r30, 0x4B0E	; 0x804b0e <RO_1+0x7>
    382c:	2f 2d       	mov	r18, r15
    382e:	30 2f       	mov	r19, r16
    3830:	41 2f       	mov	r20, r17
    3832:	5a 81       	ldd	r21, Y+2	; 0x02
    3834:	68 2f       	mov	r22, r24
    3836:	7b 2f       	mov	r23, r27
    3838:	8f 2f       	mov	r24, r31
    383a:	9e 2f       	mov	r25, r30
    383c:	a0 e0       	ldi	r26, 0x00	; 0
    383e:	0e 94 27 37 	call	0x6e4e	; 0x6e4e <__cmpdi2_s8>
    3842:	c1 f0       	breq	.+48     	; 0x3874 <RO_Set+0x78c>
    3844:	af ef       	ldi	r26, 0xFF	; 255
    3846:	0e 94 12 37 	call	0x6e24	; 0x6e24 <__adddi3_s8>
    384a:	20 93 07 4b 	sts	0x4B07, r18	; 0x804b07 <RO_1>
    384e:	30 93 08 4b 	sts	0x4B08, r19	; 0x804b08 <RO_1+0x1>
    3852:	40 93 09 4b 	sts	0x4B09, r20	; 0x804b09 <RO_1+0x2>
    3856:	50 93 0a 4b 	sts	0x4B0A, r21	; 0x804b0a <RO_1+0x3>
    385a:	60 93 0b 4b 	sts	0x4B0B, r22	; 0x804b0b <RO_1+0x4>
    385e:	70 93 0c 4b 	sts	0x4B0C, r23	; 0x804b0c <RO_1+0x5>
    3862:	80 93 0d 4b 	sts	0x4B0D, r24	; 0x804b0d <RO_1+0x6>
    3866:	90 93 0e 4b 	sts	0x4B0E, r25	; 0x804b0e <RO_1+0x7>
    386a:	10 92 d7 4a 	sts	0x4AD7, r1	; 0x804ad7 <KEY+0x2>
    386e:	02 c0       	rjmp	.+4      	; 0x3874 <RO_Set+0x78c>
				}
			break;

			case 5:
				KEY.Count = 0;					// Έ░αΈ│╡ΉζΕ ΉεΕΊΧ┤ KEY.Count Έξ╝ Ή┤ΙΆ╕░ΊβΦ ΉΜεΊΓ┤
    3870:	10 92 d5 4a 	sts	0x4AD5, r1	; 0x804ad5 <KEY>
			break;
		}
		wdt_reset();							// ΉδΝΉ╣αΈΠΖ ΈουΉΖΜ
    3874:	0e 94 78 0c 	call	0x18f0	; 0x18f0 <wdt_reset>
	RO_1000  = RO % 10000 / 1000;						// ΈκεΈΥεΉΖΑ RO  1000Ήζα ΉηΡΈου
	RO_100   = RO % 1000 / 100;						// ΈκεΈΥεΉΖΑ RO   100Ήζα ΉηΡΈου
	RO_10    = RO % 100 / 10;						// ΈκεΈΥεΉΖΑ RO    10Ήζα ΉηΡΈου
	RO_1     = RO % 10;							// ΈκεΈΥεΉΖΑ RO     1Ήζα ΉηΡΈου
//-------------------------------------------------------------------------------------------------
	while(SET.Menu)								// ΈσΦΈΚ┤Ά░Α 1 Ήζ┤Έσ┤ Έ░αΈ│╡
    3878:	80 91 8f 4a 	lds	r24, 0x4A8F	; 0x804a8f <SET>
    387c:	81 11       	cpse	r24, r1
    387e:	0a cd       	rjmp	.-1516   	; 0x3294 <RO_Set+0x1ac>
		}
		wdt_reset();							// ΉδΝΉ╣αΈΠΖ ΈουΉΖΜ
	}
//-------------------------------------------------------------------------------------------------
	RO = 0;
	RO += (RO_10000 * 10000);						// ΈκεΈΥεΉΖΑ RO 10000Ήζα ΉηΡΈου
    3880:	68 94       	set
    3882:	aa 24       	eor	r10, r10
    3884:	a4 f8       	bld	r10, 4
    3886:	0f 2e       	mov	r0, r31
    3888:	f7 e2       	ldi	r31, 0x27	; 39
    388a:	bf 2e       	mov	r11, r31
    388c:	f0 2d       	mov	r31, r0
    388e:	c1 2c       	mov	r12, r1
    3890:	d1 2c       	mov	r13, r1
    3892:	e1 2c       	mov	r14, r1
    3894:	f1 2c       	mov	r15, r1
    3896:	00 e0       	ldi	r16, 0x00	; 0
    3898:	10 e0       	ldi	r17, 0x00	; 0
    389a:	20 91 e0 4a 	lds	r18, 0x4AE0	; 0x804ae0 <RO_10000>
    389e:	30 91 e1 4a 	lds	r19, 0x4AE1	; 0x804ae1 <RO_10000+0x1>
    38a2:	40 91 e2 4a 	lds	r20, 0x4AE2	; 0x804ae2 <RO_10000+0x2>
    38a6:	50 91 e3 4a 	lds	r21, 0x4AE3	; 0x804ae3 <RO_10000+0x3>
    38aa:	60 91 e4 4a 	lds	r22, 0x4AE4	; 0x804ae4 <RO_10000+0x4>
    38ae:	70 91 e5 4a 	lds	r23, 0x4AE5	; 0x804ae5 <RO_10000+0x5>
    38b2:	80 91 e6 4a 	lds	r24, 0x4AE6	; 0x804ae6 <RO_10000+0x6>
    38b6:	90 91 e7 4a 	lds	r25, 0x4AE7	; 0x804ae7 <RO_10000+0x7>
    38ba:	0e 94 38 36 	call	0x6c70	; 0x6c70 <__muldi3>
    38be:	62 2e       	mov	r6, r18
    38c0:	73 2e       	mov	r7, r19
    38c2:	84 2e       	mov	r8, r20
    38c4:	95 2e       	mov	r9, r21
    38c6:	6d 83       	std	Y+5, r22	; 0x05
    38c8:	79 83       	std	Y+1, r23	; 0x01
    38ca:	8a 83       	std	Y+2, r24	; 0x02
    38cc:	9b 83       	std	Y+3, r25	; 0x03
	RO += (RO_1000  * 1000);						// ΈκεΈΥεΉΖΑ RO  1000Ήζα ΉηΡΈου
    38ce:	e0 91 0c 4c 	lds	r30, 0x4C0C	; 0x804c0c <RO_1000>
    38d2:	50 90 0d 4c 	lds	r5, 0x4C0D	; 0x804c0d <RO_1000+0x1>
    38d6:	40 90 0e 4c 	lds	r4, 0x4C0E	; 0x804c0e <RO_1000+0x2>
    38da:	30 90 0f 4c 	lds	r3, 0x4C0F	; 0x804c0f <RO_1000+0x3>
    38de:	20 90 10 4c 	lds	r2, 0x4C10	; 0x804c10 <RO_1000+0x4>
    38e2:	80 91 11 4c 	lds	r24, 0x4C11	; 0x804c11 <RO_1000+0x5>
    38e6:	8c 83       	std	Y+4, r24	; 0x04
    38e8:	b0 91 12 4c 	lds	r27, 0x4C12	; 0x804c12 <RO_1000+0x6>
    38ec:	a0 91 13 4c 	lds	r26, 0x4C13	; 0x804c13 <RO_1000+0x7>
    38f0:	2e 2f       	mov	r18, r30
    38f2:	35 2d       	mov	r19, r5
    38f4:	44 2d       	mov	r20, r4
    38f6:	53 2d       	mov	r21, r3
    38f8:	62 2d       	mov	r22, r2
    38fa:	78 2f       	mov	r23, r24
    38fc:	8b 2f       	mov	r24, r27
    38fe:	9a 2f       	mov	r25, r26
    3900:	02 e0       	ldi	r16, 0x02	; 2
    3902:	0e 94 f0 36 	call	0x6de0	; 0x6de0 <__ashldi3>
    3906:	a2 2e       	mov	r10, r18
    3908:	b3 2e       	mov	r11, r19
    390a:	c4 2e       	mov	r12, r20
    390c:	d5 2e       	mov	r13, r21
    390e:	e6 2e       	mov	r14, r22
    3910:	f7 2e       	mov	r15, r23
    3912:	f8 2f       	mov	r31, r24
    3914:	19 2f       	mov	r17, r25
    3916:	05 e0       	ldi	r16, 0x05	; 5
    3918:	0e 94 f0 36 	call	0x6de0	; 0x6de0 <__ashldi3>
    391c:	0f 2f       	mov	r16, r31
    391e:	0e 94 1e 37 	call	0x6e3c	; 0x6e3c <__subdi3>
    3922:	ae 2e       	mov	r10, r30
    3924:	b5 2c       	mov	r11, r5
    3926:	c4 2c       	mov	r12, r4
    3928:	d3 2c       	mov	r13, r3
    392a:	e2 2c       	mov	r14, r2
    392c:	fc 80       	ldd	r15, Y+4	; 0x04
    392e:	0b 2f       	mov	r16, r27
    3930:	1a 2f       	mov	r17, r26
    3932:	0e 94 09 37 	call	0x6e12	; 0x6e12 <__adddi3>
    3936:	03 e0       	ldi	r16, 0x03	; 3
    3938:	0e 94 f0 36 	call	0x6de0	; 0x6de0 <__ashldi3>
    393c:	a2 2e       	mov	r10, r18
    393e:	b3 2e       	mov	r11, r19
    3940:	c4 2e       	mov	r12, r20
    3942:	d5 2e       	mov	r13, r21
    3944:	e6 2e       	mov	r14, r22
    3946:	f7 2e       	mov	r15, r23
    3948:	08 2f       	mov	r16, r24
    394a:	19 2f       	mov	r17, r25
    394c:	26 2d       	mov	r18, r6
    394e:	37 2d       	mov	r19, r7
    3950:	48 2d       	mov	r20, r8
    3952:	59 2d       	mov	r21, r9
    3954:	6d 81       	ldd	r22, Y+5	; 0x05
    3956:	79 81       	ldd	r23, Y+1	; 0x01
    3958:	8a 81       	ldd	r24, Y+2	; 0x02
    395a:	9b 81       	ldd	r25, Y+3	; 0x03
    395c:	0e 94 09 37 	call	0x6e12	; 0x6e12 <__adddi3>
    3960:	22 2e       	mov	r2, r18
    3962:	33 2e       	mov	r3, r19
    3964:	44 2e       	mov	r4, r20
    3966:	55 2e       	mov	r5, r21
    3968:	66 2e       	mov	r6, r22
    396a:	77 2e       	mov	r7, r23
    396c:	89 83       	std	Y+1, r24	; 0x01
    396e:	9a 83       	std	Y+2, r25	; 0x02
	RO += (RO_100   * 100);							// ΈκεΈΥεΉΖΑ RO   100Ήζα ΉηΡΈου
    3970:	20 91 fa 4a 	lds	r18, 0x4AFA	; 0x804afa <RO_100>
    3974:	30 91 fb 4a 	lds	r19, 0x4AFB	; 0x804afb <RO_100+0x1>
    3978:	40 91 fc 4a 	lds	r20, 0x4AFC	; 0x804afc <RO_100+0x2>
    397c:	50 91 fd 4a 	lds	r21, 0x4AFD	; 0x804afd <RO_100+0x3>
    3980:	60 91 fe 4a 	lds	r22, 0x4AFE	; 0x804afe <RO_100+0x4>
    3984:	70 91 ff 4a 	lds	r23, 0x4AFF	; 0x804aff <RO_100+0x5>
    3988:	80 91 00 4b 	lds	r24, 0x4B00	; 0x804b00 <RO_100+0x6>
    398c:	90 91 01 4b 	lds	r25, 0x4B01	; 0x804b01 <RO_100+0x7>
    3990:	02 e0       	ldi	r16, 0x02	; 2
    3992:	0e 94 f0 36 	call	0x6de0	; 0x6de0 <__ashldi3>
    3996:	82 2e       	mov	r8, r18
    3998:	93 2e       	mov	r9, r19
    399a:	4c 83       	std	Y+4, r20	; 0x04
    399c:	5b 83       	std	Y+3, r21	; 0x03
    399e:	b6 2f       	mov	r27, r22
    39a0:	a7 2f       	mov	r26, r23
    39a2:	f8 2f       	mov	r31, r24
    39a4:	e9 2f       	mov	r30, r25
    39a6:	0e 94 f0 36 	call	0x6de0	; 0x6de0 <__ashldi3>
    39aa:	a2 2e       	mov	r10, r18
    39ac:	b3 2e       	mov	r11, r19
    39ae:	c4 2e       	mov	r12, r20
    39b0:	d5 2e       	mov	r13, r21
    39b2:	e6 2e       	mov	r14, r22
    39b4:	f7 2e       	mov	r15, r23
    39b6:	08 2f       	mov	r16, r24
    39b8:	19 2f       	mov	r17, r25
    39ba:	28 2d       	mov	r18, r8
    39bc:	39 2d       	mov	r19, r9
    39be:	4c 81       	ldd	r20, Y+4	; 0x04
    39c0:	5b 81       	ldd	r21, Y+3	; 0x03
    39c2:	6b 2f       	mov	r22, r27
    39c4:	7a 2f       	mov	r23, r26
    39c6:	8f 2f       	mov	r24, r31
    39c8:	9e 2f       	mov	r25, r30
    39ca:	0e 94 09 37 	call	0x6e12	; 0x6e12 <__adddi3>
    39ce:	82 2e       	mov	r8, r18
    39d0:	93 2e       	mov	r9, r19
    39d2:	4c 83       	std	Y+4, r20	; 0x04
    39d4:	5b 83       	std	Y+3, r21	; 0x03
    39d6:	b6 2f       	mov	r27, r22
    39d8:	a7 2f       	mov	r26, r23
    39da:	f8 2f       	mov	r31, r24
    39dc:	e9 2f       	mov	r30, r25
    39de:	02 e0       	ldi	r16, 0x02	; 2
    39e0:	0e 94 f0 36 	call	0x6de0	; 0x6de0 <__ashldi3>
    39e4:	a2 2e       	mov	r10, r18
    39e6:	b3 2e       	mov	r11, r19
    39e8:	c4 2e       	mov	r12, r20
    39ea:	d5 2e       	mov	r13, r21
    39ec:	e6 2e       	mov	r14, r22
    39ee:	f7 2e       	mov	r15, r23
    39f0:	08 2f       	mov	r16, r24
    39f2:	19 2f       	mov	r17, r25
    39f4:	28 2d       	mov	r18, r8
    39f6:	39 2d       	mov	r19, r9
    39f8:	4c 81       	ldd	r20, Y+4	; 0x04
    39fa:	5b 81       	ldd	r21, Y+3	; 0x03
    39fc:	6b 2f       	mov	r22, r27
    39fe:	7a 2f       	mov	r23, r26
    3a00:	8f 2f       	mov	r24, r31
    3a02:	9e 2f       	mov	r25, r30
    3a04:	0e 94 09 37 	call	0x6e12	; 0x6e12 <__adddi3>
    3a08:	a2 2e       	mov	r10, r18
    3a0a:	b3 2e       	mov	r11, r19
    3a0c:	c4 2e       	mov	r12, r20
    3a0e:	d5 2e       	mov	r13, r21
    3a10:	e6 2e       	mov	r14, r22
    3a12:	f7 2e       	mov	r15, r23
    3a14:	08 2f       	mov	r16, r24
    3a16:	19 2f       	mov	r17, r25
    3a18:	22 2d       	mov	r18, r2
    3a1a:	33 2d       	mov	r19, r3
    3a1c:	44 2d       	mov	r20, r4
    3a1e:	55 2d       	mov	r21, r5
    3a20:	66 2d       	mov	r22, r6
    3a22:	77 2d       	mov	r23, r7
    3a24:	89 81       	ldd	r24, Y+1	; 0x01
    3a26:	9a 81       	ldd	r25, Y+2	; 0x02
    3a28:	0e 94 09 37 	call	0x6e12	; 0x6e12 <__adddi3>
    3a2c:	22 2e       	mov	r2, r18
    3a2e:	33 2e       	mov	r3, r19
    3a30:	44 2e       	mov	r4, r20
    3a32:	55 2e       	mov	r5, r21
    3a34:	66 2e       	mov	r6, r22
    3a36:	77 2e       	mov	r7, r23
    3a38:	89 83       	std	Y+1, r24	; 0x01
    3a3a:	9a 83       	std	Y+2, r25	; 0x02
	RO += (RO_10    * 10);							// ΈκεΈΥεΉΖΑ RO    10Ήζα ΉηΡΈου
    3a3c:	20 91 c8 4a 	lds	r18, 0x4AC8	; 0x804ac8 <RO_10>
    3a40:	30 91 c9 4a 	lds	r19, 0x4AC9	; 0x804ac9 <RO_10+0x1>
    3a44:	40 91 ca 4a 	lds	r20, 0x4ACA	; 0x804aca <RO_10+0x2>
    3a48:	50 91 cb 4a 	lds	r21, 0x4ACB	; 0x804acb <RO_10+0x3>
    3a4c:	60 91 cc 4a 	lds	r22, 0x4ACC	; 0x804acc <RO_10+0x4>
    3a50:	70 91 cd 4a 	lds	r23, 0x4ACD	; 0x804acd <RO_10+0x5>
    3a54:	80 91 ce 4a 	lds	r24, 0x4ACE	; 0x804ace <RO_10+0x6>
    3a58:	90 91 cf 4a 	lds	r25, 0x4ACF	; 0x804acf <RO_10+0x7>
    3a5c:	01 e0       	ldi	r16, 0x01	; 1
    3a5e:	0e 94 f0 36 	call	0x6de0	; 0x6de0 <__ashldi3>
    3a62:	82 2e       	mov	r8, r18
    3a64:	93 2e       	mov	r9, r19
    3a66:	4c 83       	std	Y+4, r20	; 0x04
    3a68:	5b 83       	std	Y+3, r21	; 0x03
    3a6a:	b6 2f       	mov	r27, r22
    3a6c:	a7 2f       	mov	r26, r23
    3a6e:	f8 2f       	mov	r31, r24
    3a70:	e9 2f       	mov	r30, r25
    3a72:	02 e0       	ldi	r16, 0x02	; 2
    3a74:	0e 94 f0 36 	call	0x6de0	; 0x6de0 <__ashldi3>
    3a78:	a2 2e       	mov	r10, r18
    3a7a:	b3 2e       	mov	r11, r19
    3a7c:	c4 2e       	mov	r12, r20
    3a7e:	d5 2e       	mov	r13, r21
    3a80:	e6 2e       	mov	r14, r22
    3a82:	f7 2e       	mov	r15, r23
    3a84:	08 2f       	mov	r16, r24
    3a86:	19 2f       	mov	r17, r25
    3a88:	28 2d       	mov	r18, r8
    3a8a:	39 2d       	mov	r19, r9
    3a8c:	4c 81       	ldd	r20, Y+4	; 0x04
    3a8e:	5b 81       	ldd	r21, Y+3	; 0x03
    3a90:	6b 2f       	mov	r22, r27
    3a92:	7a 2f       	mov	r23, r26
    3a94:	8f 2f       	mov	r24, r31
    3a96:	9e 2f       	mov	r25, r30
    3a98:	0e 94 09 37 	call	0x6e12	; 0x6e12 <__adddi3>
    3a9c:	a2 2e       	mov	r10, r18
    3a9e:	b3 2e       	mov	r11, r19
    3aa0:	c4 2e       	mov	r12, r20
    3aa2:	d5 2e       	mov	r13, r21
    3aa4:	e6 2e       	mov	r14, r22
    3aa6:	f7 2e       	mov	r15, r23
    3aa8:	08 2f       	mov	r16, r24
    3aaa:	19 2f       	mov	r17, r25
    3aac:	22 2d       	mov	r18, r2
    3aae:	33 2d       	mov	r19, r3
    3ab0:	44 2d       	mov	r20, r4
    3ab2:	55 2d       	mov	r21, r5
    3ab4:	66 2d       	mov	r22, r6
    3ab6:	77 2d       	mov	r23, r7
    3ab8:	89 81       	ldd	r24, Y+1	; 0x01
    3aba:	9a 81       	ldd	r25, Y+2	; 0x02
    3abc:	0e 94 09 37 	call	0x6e12	; 0x6e12 <__adddi3>
	RO += (RO_1     * 1);							// ΈκεΈΥεΉΖΑ RO     1Ήζα ΉηΡΈου
    3ac0:	a0 90 07 4b 	lds	r10, 0x4B07	; 0x804b07 <RO_1>
    3ac4:	b0 90 08 4b 	lds	r11, 0x4B08	; 0x804b08 <RO_1+0x1>
    3ac8:	c0 90 09 4b 	lds	r12, 0x4B09	; 0x804b09 <RO_1+0x2>
    3acc:	d0 90 0a 4b 	lds	r13, 0x4B0A	; 0x804b0a <RO_1+0x3>
    3ad0:	e0 90 0b 4b 	lds	r14, 0x4B0B	; 0x804b0b <RO_1+0x4>
    3ad4:	f0 90 0c 4b 	lds	r15, 0x4B0C	; 0x804b0c <RO_1+0x5>
    3ad8:	00 91 0d 4b 	lds	r16, 0x4B0D	; 0x804b0d <RO_1+0x6>
    3adc:	10 91 0e 4b 	lds	r17, 0x4B0E	; 0x804b0e <RO_1+0x7>
    3ae0:	0e 94 09 37 	call	0x6e12	; 0x6e12 <__adddi3>
    3ae4:	20 93 93 4a 	sts	0x4A93, r18	; 0x804a93 <RO>
    3ae8:	30 93 94 4a 	sts	0x4A94, r19	; 0x804a94 <RO+0x1>
    3aec:	40 93 95 4a 	sts	0x4A95, r20	; 0x804a95 <RO+0x2>
    3af0:	50 93 96 4a 	sts	0x4A96, r21	; 0x804a96 <RO+0x3>
    3af4:	60 93 97 4a 	sts	0x4A97, r22	; 0x804a97 <RO+0x4>
    3af8:	70 93 98 4a 	sts	0x4A98, r23	; 0x804a98 <RO+0x5>
    3afc:	80 93 99 4a 	sts	0x4A99, r24	; 0x804a99 <RO+0x6>
    3b00:	90 93 9a 4a 	sts	0x4A9A, r25	; 0x804a9a <RO+0x7>
//-------------------------------------------------------------------------------------------------
	ee_write_dword(Cell_RO_Addr, RO);					// ΈκεΈΥεΉΖΑ Ήζ┤Έσ┤ ΉιΧΆ▓σΉ╢εΈιξΆ░Τ ΉιΑΉηξ
    3b04:	64 2f       	mov	r22, r20
    3b06:	75 2f       	mov	r23, r21
    3b08:	42 2f       	mov	r20, r18
    3b0a:	53 2f       	mov	r21, r19
    3b0c:	8c e0       	ldi	r24, 0x0C	; 12
    3b0e:	90 e0       	ldi	r25, 0x00	; 0
    3b10:	0e 94 9f 0f 	call	0x1f3e	; 0x1f3e <ee_write_dword>

	SET.Menu = 1;								// Menu ΈςρΈΥε ΉειΉπΑ
    3b14:	ef e8       	ldi	r30, 0x8F	; 143
    3b16:	fa e4       	ldi	r31, 0x4A	; 74
    3b18:	81 e0       	ldi	r24, 0x01	; 1
    3b1a:	80 83       	st	Z, r24
	SET.Select = 0;								// Select Έ▓ΕΊΛ╝ Ή┤ΙΆ╕░ΊβΦ
    3b1c:	11 82       	std	Z+1, r1	; 0x01
	SET.Blink = 0;								// ΉηΡΈο┐ΉΙα Ά╣εΈ░ΧΉηΕ Ή┤ΙΆ╕░ΊβΦ
    3b1e:	12 82       	std	Z+2, r1	; 0x02
	KEY.Count = 0;								// ΉΕιΊΔζ Key Ά░Α ΈΙΝΈο░ΊγθΉΙα Ή┤ΙΆ╕░ΊβΦ
    3b20:	10 92 d5 4a 	sts	0x4AD5, r1	; 0x804ad5 <KEY>
}
    3b24:	25 96       	adiw	r28, 0x05	; 5
    3b26:	cd bf       	out	0x3d, r28	; 61
    3b28:	de bf       	out	0x3e, r29	; 62
    3b2a:	df 91       	pop	r29
    3b2c:	cf 91       	pop	r28
    3b2e:	1f 91       	pop	r17
    3b30:	0f 91       	pop	r16
    3b32:	ff 90       	pop	r15
    3b34:	ef 90       	pop	r14
    3b36:	df 90       	pop	r13
    3b38:	cf 90       	pop	r12
    3b3a:	bf 90       	pop	r11
    3b3c:	af 90       	pop	r10
    3b3e:	9f 90       	pop	r9
    3b40:	8f 90       	pop	r8
    3b42:	7f 90       	pop	r7
    3b44:	6f 90       	pop	r6
    3b46:	5f 90       	pop	r5
    3b48:	4f 90       	pop	r4
    3b4a:	3f 90       	pop	r3
    3b4c:	2f 90       	pop	r2
    3b4e:	08 95       	ret

00003b50 <Interval_Set>:

//=================================================================================================
void Interval_Set(void)								// Interval ΉΕνΉιΧ
{
    3b50:	cf 93       	push	r28
    3b52:	df 93       	push	r29
	uint32_t Value = 0;							// Value Έ│ΑΉΙα Ή┤ΙΆ╕░ΊβΦ
	int8_t cnt = 0;

	while(SET.Menu && SET.Select)						// ΈσΦΈΚ┤Ά░Α 1 Ήζ┤Έσ┤ Έ░αΈ│╡
    3b54:	d2 c0       	rjmp	.+420    	; 0x3cfa <Interval_Set+0x1aa>
	{
		Timer.RegExitTimer = 0;						// Έυ┤Ά▓ΝΉζα ΉΩ░ΉΗΞ Ή╕κΉιΧΉζΕ ΉεΕΊΧ┤ RegExitTimer Ή┤ΙΆ╕░ΊβΦ 
    3b56:	10 92 b8 4a 	sts	0x4AB8, r1	; 0x804ab8 <Timer+0x1>
    3b5a:	10 92 b9 4a 	sts	0x4AB9, r1	; 0x804ab9 <Timer+0x2>

		Value_Count = 0;
    3b5e:	10 92 b6 4a 	sts	0x4AB6, r1	; 0x804ab6 <Value_Count>

		if(KEY.Buff)							// Key ΉηΖΈιξΉζ┤ ΉηΙΉε╝Έσ┤
    3b62:	80 91 d6 4a 	lds	r24, 0x4AD6	; 0x804ad6 <KEY+0x1>
    3b66:	88 23       	and	r24, r24
    3b68:	09 f4       	brne	.+2      	; 0x3b6c <Interval_Set+0x1c>
    3b6a:	8e c0       	rjmp	.+284    	; 0x3c88 <Interval_Set+0x138>
		{
			if     (KEY.Key == 1) {INT++; KEY.Key = 0;}		// ΉΩΖ  Έ▓ΕΊΛ╝ Ήζ┤Έσ┤ ROΆ░Τ 1Ήζα ΉηΡΈου ΉοζΆ░Α
    3b6c:	80 91 d7 4a 	lds	r24, 0x4AD7	; 0x804ad7 <KEY+0x2>
    3b70:	81 30       	cpi	r24, 0x01	; 1
    3b72:	61 f4       	brne	.+24     	; 0x3b8c <Interval_Set+0x3c>
    3b74:	80 91 ef 4a 	lds	r24, 0x4AEF	; 0x804aef <INT>
    3b78:	90 91 f0 4a 	lds	r25, 0x4AF0	; 0x804af0 <INT+0x1>
    3b7c:	01 96       	adiw	r24, 0x01	; 1
    3b7e:	80 93 ef 4a 	sts	0x4AEF, r24	; 0x804aef <INT>
    3b82:	90 93 f0 4a 	sts	0x4AF0, r25	; 0x804af0 <INT+0x1>
    3b86:	10 92 d7 4a 	sts	0x4AD7, r1	; 0x804ad7 <KEY+0x2>
    3b8a:	0f c0       	rjmp	.+30     	; 0x3baa <Interval_Set+0x5a>
			else if(KEY.Key == 3) {INT--; KEY.Key = 0;}		// ΈΜνΉγ┤Έ▓ΕΊΛ╝ Ήζ┤Έσ┤ ROΆ░Τ 1Ήζα ΉηΡΈου Ά░ΡΉΗΝ
    3b8c:	80 91 d7 4a 	lds	r24, 0x4AD7	; 0x804ad7 <KEY+0x2>
    3b90:	83 30       	cpi	r24, 0x03	; 3
    3b92:	59 f4       	brne	.+22     	; 0x3baa <Interval_Set+0x5a>
    3b94:	80 91 ef 4a 	lds	r24, 0x4AEF	; 0x804aef <INT>
    3b98:	90 91 f0 4a 	lds	r25, 0x4AF0	; 0x804af0 <INT+0x1>
    3b9c:	01 97       	sbiw	r24, 0x01	; 1
    3b9e:	80 93 ef 4a 	sts	0x4AEF, r24	; 0x804aef <INT>
    3ba2:	90 93 f0 4a 	sts	0x4AF0, r25	; 0x804af0 <INT+0x1>
    3ba6:	10 92 d7 4a 	sts	0x4AD7, r1	; 0x804ad7 <KEY+0x2>

			if(INT >= 0)
    3baa:	20 91 ef 4a 	lds	r18, 0x4AEF	; 0x804aef <INT>
    3bae:	30 91 f0 4a 	lds	r19, 0x4AF0	; 0x804af0 <INT+0x1>
    3bb2:	33 23       	and	r19, r19
    3bb4:	0c f1       	brlt	.+66     	; 0x3bf8 <Interval_Set+0xa8>
			{
				DIGIT[1][3] = FND_OFF;				// ΈκεΈΥεΉΖΑ Έ│┤ΉιΧ 100Ήζα ΉηΡΈου
    3bb6:	e3 ec       	ldi	r30, 0xC3	; 195
    3bb8:	f0 e4       	ldi	r31, 0x40	; 64
    3bba:	17 82       	std	Z+7, r1	; 0x07
				DIGIT[1][2] = fnd_tbl[INT / 100];		// ΈκεΈΥεΉΖΑ Έ│┤ΉιΧ 100Ήζα ΉηΡΈου
    3bbc:	c9 01       	movw	r24, r18
    3bbe:	64 e6       	ldi	r22, 0x64	; 100
    3bc0:	70 e0       	ldi	r23, 0x00	; 0
    3bc2:	0e 94 c0 35 	call	0x6b80	; 0x6b80 <__divmodhi4>
    3bc6:	db 01       	movw	r26, r22
    3bc8:	a4 57       	subi	r26, 0x74	; 116
    3bca:	bf 4b       	sbci	r27, 0xBF	; 191
    3bcc:	4c 91       	ld	r20, X
    3bce:	46 83       	std	Z+6, r20	; 0x06
				DIGIT[1][1] = fnd_tbl[INT % 100 / 10 ];		// ΈκεΈΥεΉΖΑ Έ│┤ΉιΧ  10Ήζα ΉηΡΈου
    3bd0:	ca e0       	ldi	r28, 0x0A	; 10
    3bd2:	d0 e0       	ldi	r29, 0x00	; 0
    3bd4:	be 01       	movw	r22, r28
    3bd6:	0e 94 c0 35 	call	0x6b80	; 0x6b80 <__divmodhi4>
    3bda:	db 01       	movw	r26, r22
    3bdc:	a4 57       	subi	r26, 0x74	; 116
    3bde:	bf 4b       	sbci	r27, 0xBF	; 191
    3be0:	8c 91       	ld	r24, X
    3be2:	85 83       	std	Z+5, r24	; 0x05
				DIGIT[1][0] = fnd_tbl[INT % 10 ];		// ΈκεΈΥεΉΖΑ Έ│┤ΉιΧ   1Ήζα ΉηΡΈου
    3be4:	c9 01       	movw	r24, r18
    3be6:	be 01       	movw	r22, r28
    3be8:	0e 94 c0 35 	call	0x6b80	; 0x6b80 <__divmodhi4>
    3bec:	dc 01       	movw	r26, r24
    3bee:	a4 57       	subi	r26, 0x74	; 116
    3bf0:	bf 4b       	sbci	r27, 0xBF	; 191
    3bf2:	8c 91       	ld	r24, X
    3bf4:	84 83       	std	Z+4, r24	; 0x04
    3bf6:	48 c0       	rjmp	.+144    	; 0x3c88 <Interval_Set+0x138>
			}
			else
			{
				cnt = ~INT + 1;
    3bf8:	21 95       	neg	r18
				DIGIT[1][3] = FND_MINUS;			// ΈκεΈΥεΉΖΑ Έ│┤ΉιΧ -      ΉηΡΈου
    3bfa:	a3 ec       	ldi	r26, 0xC3	; 195
    3bfc:	b0 e4       	ldi	r27, 0x40	; 64
    3bfe:	82 e0       	ldi	r24, 0x02	; 2
    3c00:	17 96       	adiw	r26, 0x07	; 7
    3c02:	8c 93       	st	X, r24
    3c04:	17 97       	sbiw	r26, 0x07	; 7
				DIGIT[1][2] = fnd_tbl[cnt / 100];		// ΈκεΈΥεΉΖΑ Έ│┤ΉιΧ  100Ήζα ΉηΡΈου
    3c06:	89 e2       	ldi	r24, 0x29	; 41
    3c08:	28 02       	muls	r18, r24
    3c0a:	81 2d       	mov	r24, r1
    3c0c:	11 24       	eor	r1, r1
    3c0e:	85 95       	asr	r24
    3c10:	85 95       	asr	r24
    3c12:	85 95       	asr	r24
    3c14:	85 95       	asr	r24
    3c16:	92 2f       	mov	r25, r18
    3c18:	99 0f       	add	r25, r25
    3c1a:	99 0b       	sbc	r25, r25
    3c1c:	89 1b       	sub	r24, r25
    3c1e:	e8 2f       	mov	r30, r24
    3c20:	08 2e       	mov	r0, r24
    3c22:	00 0c       	add	r0, r0
    3c24:	ff 0b       	sbc	r31, r31
    3c26:	e4 57       	subi	r30, 0x74	; 116
    3c28:	ff 4b       	sbci	r31, 0xBF	; 191
    3c2a:	30 81       	ld	r19, Z
    3c2c:	16 96       	adiw	r26, 0x06	; 6
    3c2e:	3c 93       	st	X, r19
    3c30:	16 97       	sbiw	r26, 0x06	; 6
				DIGIT[1][1] = fnd_tbl[cnt % 100 / 10 ];		// ΈκεΈΥεΉΖΑ Έ│┤ΉιΧ   10Ήζα ΉηΡΈου
    3c32:	32 2f       	mov	r19, r18
    3c34:	44 e6       	ldi	r20, 0x64	; 100
    3c36:	84 9f       	mul	r24, r20
    3c38:	30 19       	sub	r19, r0
    3c3a:	11 24       	eor	r1, r1
    3c3c:	87 e6       	ldi	r24, 0x67	; 103
    3c3e:	38 02       	muls	r19, r24
    3c40:	e1 2d       	mov	r30, r1
    3c42:	11 24       	eor	r1, r1
    3c44:	e5 95       	asr	r30
    3c46:	e5 95       	asr	r30
    3c48:	37 fd       	sbrc	r19, 7
    3c4a:	e3 95       	inc	r30
    3c4c:	0e 2e       	mov	r0, r30
    3c4e:	00 0c       	add	r0, r0
    3c50:	ff 0b       	sbc	r31, r31
    3c52:	e4 57       	subi	r30, 0x74	; 116
    3c54:	ff 4b       	sbci	r31, 0xBF	; 191
    3c56:	30 81       	ld	r19, Z
    3c58:	15 96       	adiw	r26, 0x05	; 5
    3c5a:	3c 93       	st	X, r19
    3c5c:	15 97       	sbiw	r26, 0x05	; 5
				DIGIT[1][0] = fnd_tbl[cnt %10 ];		// ΈκεΈΥεΉΖΑ Έ│┤ΉιΧ    1Ήζα ΉηΡΈου
    3c5e:	28 02       	muls	r18, r24
    3c60:	81 2d       	mov	r24, r1
    3c62:	11 24       	eor	r1, r1
    3c64:	85 95       	asr	r24
    3c66:	85 95       	asr	r24
    3c68:	89 1b       	sub	r24, r25
    3c6a:	88 0f       	add	r24, r24
    3c6c:	98 2f       	mov	r25, r24
    3c6e:	99 0f       	add	r25, r25
    3c70:	99 0f       	add	r25, r25
    3c72:	89 0f       	add	r24, r25
    3c74:	e2 2f       	mov	r30, r18
    3c76:	e8 1b       	sub	r30, r24
    3c78:	0e 2e       	mov	r0, r30
    3c7a:	00 0c       	add	r0, r0
    3c7c:	ff 0b       	sbc	r31, r31
    3c7e:	e4 57       	subi	r30, 0x74	; 116
    3c80:	ff 4b       	sbci	r31, 0xBF	; 191
    3c82:	80 81       	ld	r24, Z
    3c84:	14 96       	adiw	r26, 0x04	; 4
    3c86:	8c 93       	st	X, r24
			}
		}
 
 		Interval = INT;
    3c88:	80 91 ef 4a 	lds	r24, 0x4AEF	; 0x804aef <INT>
    3c8c:	90 91 f0 4a 	lds	r25, 0x4AF0	; 0x804af0 <INT+0x1>
    3c90:	80 93 e9 4a 	sts	0x4AE9, r24	; 0x804ae9 <Interval>
    3c94:	90 93 ea 4a 	sts	0x4AEA, r25	; 0x804aea <Interval+0x1>
		Value = CELL.Value = Read_Load_Cell();				// ΈκεΈΥεΉΖΑ Ή╕κΉιΧΆ░Τ
    3c98:	0e 94 11 16 	call	0x2c22	; 0x2c22 <Read_Load_Cell>
    3c9c:	a0 e0       	ldi	r26, 0x00	; 0
    3c9e:	b0 e0       	ldi	r27, 0x00	; 0
    3ca0:	80 93 a1 4a 	sts	0x4AA1, r24	; 0x804aa1 <CELL+0x1>
    3ca4:	90 93 a2 4a 	sts	0x4AA2, r25	; 0x804aa2 <CELL+0x2>
    3ca8:	a0 93 a3 4a 	sts	0x4AA3, r26	; 0x804aa3 <CELL+0x3>
    3cac:	b0 93 a4 4a 	sts	0x4AA4, r27	; 0x804aa4 <CELL+0x4>

		if(Value)							// Ή╕κΉιΧΉ▓┤ΉνΣΉζ┤ ΉηΙΉε╝Έσ┤
    3cb0:	00 97       	sbiw	r24, 0x00	; 0
    3cb2:	a1 05       	cpc	r26, r1
    3cb4:	b1 05       	cpc	r27, r1
    3cb6:	c9 f0       	breq	.+50     	; 0x3cea <Interval_Set+0x19a>
		{
			CELL.Value = CELL.Value + Interval;
    3cb8:	e0 ea       	ldi	r30, 0xA0	; 160
    3cba:	fa e4       	ldi	r31, 0x4A	; 74
    3cbc:	41 81       	ldd	r20, Z+1	; 0x01
    3cbe:	52 81       	ldd	r21, Z+2	; 0x02
    3cc0:	63 81       	ldd	r22, Z+3	; 0x03
    3cc2:	74 81       	ldd	r23, Z+4	; 0x04
    3cc4:	80 91 e9 4a 	lds	r24, 0x4AE9	; 0x804ae9 <Interval>
    3cc8:	90 91 ea 4a 	lds	r25, 0x4AEA	; 0x804aea <Interval+0x1>
    3ccc:	09 2e       	mov	r0, r25
    3cce:	00 0c       	add	r0, r0
    3cd0:	aa 0b       	sbc	r26, r26
    3cd2:	bb 0b       	sbc	r27, r27
    3cd4:	84 0f       	add	r24, r20
    3cd6:	95 1f       	adc	r25, r21
    3cd8:	a6 1f       	adc	r26, r22
    3cda:	b7 1f       	adc	r27, r23
    3cdc:	81 83       	std	Z+1, r24	; 0x01
    3cde:	92 83       	std	Z+2, r25	; 0x02
    3ce0:	a3 83       	std	Z+3, r26	; 0x03
    3ce2:	b4 83       	std	Z+4, r27	; 0x04
			Cell_Desplay();
    3ce4:	0e 94 5a 14 	call	0x28b4	; 0x28b4 <Cell_Desplay>
    3ce8:	06 c0       	rjmp	.+12     	; 0x3cf6 <Interval_Set+0x1a6>
		}
		else if(Value == 0) {Cell_Desplay();}				// Ή╕κΉιΧΉ▓┤ΉνΣΉζ┤ 0 Ήζ┤Έσ┤
    3cea:	89 2b       	or	r24, r25
    3cec:	8a 2b       	or	r24, r26
    3cee:	8b 2b       	or	r24, r27
    3cf0:	11 f4       	brne	.+4      	; 0x3cf6 <Interval_Set+0x1a6>
    3cf2:	0e 94 5a 14 	call	0x28b4	; 0x28b4 <Cell_Desplay>
		wdt_reset();							// ΉδΝΉ╣αΈΠΖ ΈουΉΖΜ
    3cf6:	0e 94 78 0c 	call	0x18f0	; 0x18f0 <wdt_reset>
void Interval_Set(void)								// Interval ΉΕνΉιΧ
{
	uint32_t Value = 0;							// Value Έ│ΑΉΙα Ή┤ΙΆ╕░ΊβΦ
	int8_t cnt = 0;

	while(SET.Menu && SET.Select)						// ΈσΦΈΚ┤Ά░Α 1 Ήζ┤Έσ┤ Έ░αΈ│╡
    3cfa:	80 91 8f 4a 	lds	r24, 0x4A8F	; 0x804a8f <SET>
    3cfe:	88 23       	and	r24, r24
    3d00:	21 f0       	breq	.+8      	; 0x3d0a <Interval_Set+0x1ba>
    3d02:	80 91 90 4a 	lds	r24, 0x4A90	; 0x804a90 <SET+0x1>
    3d06:	81 11       	cpse	r24, r1
    3d08:	26 cf       	rjmp	.-436    	; 0x3b56 <Interval_Set+0x6>
			Cell_Desplay();
		}
		else if(Value == 0) {Cell_Desplay();}				// Ή╕κΉιΧΉ▓┤ΉνΣΉζ┤ 0 Ήζ┤Έσ┤
		wdt_reset();							// ΉδΝΉ╣αΈΠΖ ΈουΉΖΜ
	}
	ee_write_word(Cell_Interval_Addr, INT);					// ΈκεΈΥεΉΖΑ Έ│┤ΉιΧ Ά░ΤΉζΕ EEPROM ΉΩΡ ΉιΑΉηξ
    3d0a:	60 91 ef 4a 	lds	r22, 0x4AEF	; 0x804aef <INT>
    3d0e:	70 91 f0 4a 	lds	r23, 0x4AF0	; 0x804af0 <INT+0x1>
    3d12:	8a e0       	ldi	r24, 0x0A	; 10
    3d14:	90 e0       	ldi	r25, 0x00	; 0
    3d16:	0e 94 82 0f 	call	0x1f04	; 0x1f04 <ee_write_word>
}
    3d1a:	df 91       	pop	r29
    3d1c:	cf 91       	pop	r28
    3d1e:	08 95       	ret

00003d20 <CAPA_Set>:

//=================================================================================================
void CAPA_Set(void)								// CAPA ΉΕνΉιΧ
{
    3d20:	8f 92       	push	r8
    3d22:	9f 92       	push	r9
    3d24:	af 92       	push	r10
    3d26:	bf 92       	push	r11
    3d28:	cf 92       	push	r12
    3d2a:	df 92       	push	r13
    3d2c:	ef 92       	push	r14
    3d2e:	ff 92       	push	r15
	DIGIT[2][0] = FND_OFF;							// ΈκεΈΥεΉΖΑ RO, ΉηΖΆ╡υΉ▓┤ΉνΣ 1Ήζα ΉηΡΈου ΉπΑΉγ░Ά╕░
    3d30:	10 92 cb 40 	sts	0x40CB, r1	; 0x8040cb <DIGIT+0x8>

	Cell_Capa = ee_read_word(Cell_Capa_Addr);				// 1Έ▓Ι ΈκεΈΥεΉΖΑ Ήζ┤Έσ┤ ΉγσΈθΚΆ░Τ Έ╢ΙΈθυΉανΆ╕░
    3d34:	86 e0       	ldi	r24, 0x06	; 6
    3d36:	90 e0       	ldi	r25, 0x00	; 0
    3d38:	0e 94 47 0f 	call	0x1e8e	; 0x1e8e <ee_read_word>
    3d3c:	6c 01       	movw	r12, r24
    3d3e:	e1 2c       	mov	r14, r1
    3d40:	f1 2c       	mov	r15, r1
    3d42:	c0 92 f3 4a 	sts	0x4AF3, r12	; 0x804af3 <Cell_Capa>
    3d46:	d0 92 f4 4a 	sts	0x4AF4, r13	; 0x804af4 <Cell_Capa+0x1>
    3d4a:	e0 92 f5 4a 	sts	0x4AF5, r14	; 0x804af5 <Cell_Capa+0x2>
    3d4e:	f0 92 f6 4a 	sts	0x4AF6, r15	; 0x804af6 <Cell_Capa+0x3>
//-------------------------------------------------------------------------------------------------
	CAPA_1000 = Cell_Capa / 1000;						// ΈκεΈΥεΉΖΑ CAPA 1000Ήζα ΉηΡΈου
    3d52:	c7 01       	movw	r24, r14
    3d54:	b6 01       	movw	r22, r12
    3d56:	28 ee       	ldi	r18, 0xE8	; 232
    3d58:	33 e0       	ldi	r19, 0x03	; 3
    3d5a:	40 e0       	ldi	r20, 0x00	; 0
    3d5c:	50 e0       	ldi	r21, 0x00	; 0
    3d5e:	0e 94 d4 35 	call	0x6ba8	; 0x6ba8 <__udivmodsi4>
    3d62:	20 93 f3 40 	sts	0x40F3, r18	; 0x8040f3 <CAPA_1000>
	CAPA_100  = Cell_Capa % 1000 / 100;					// ΈκεΈΥεΉΖΑ CAPA 100Ήζα ΉηΡΈου
    3d66:	0f 2e       	mov	r0, r31
    3d68:	f4 e6       	ldi	r31, 0x64	; 100
    3d6a:	8f 2e       	mov	r8, r31
    3d6c:	91 2c       	mov	r9, r1
    3d6e:	a1 2c       	mov	r10, r1
    3d70:	b1 2c       	mov	r11, r1
    3d72:	f0 2d       	mov	r31, r0
    3d74:	a5 01       	movw	r20, r10
    3d76:	94 01       	movw	r18, r8
    3d78:	0e 94 d4 35 	call	0x6ba8	; 0x6ba8 <__udivmodsi4>
    3d7c:	20 93 e8 4a 	sts	0x4AE8, r18	; 0x804ae8 <CAPA_100>
	CAPA_10   = Cell_Capa % 100 / 10;					// ΈκεΈΥεΉΖΑ CAPA  10Ήζα ΉηΡΈου
    3d80:	c7 01       	movw	r24, r14
    3d82:	b6 01       	movw	r22, r12
    3d84:	a5 01       	movw	r20, r10
    3d86:	94 01       	movw	r18, r8
    3d88:	0e 94 d4 35 	call	0x6ba8	; 0x6ba8 <__udivmodsi4>
    3d8c:	0f 2e       	mov	r0, r31
    3d8e:	fa e0       	ldi	r31, 0x0A	; 10
    3d90:	8f 2e       	mov	r8, r31
    3d92:	91 2c       	mov	r9, r1
    3d94:	a1 2c       	mov	r10, r1
    3d96:	b1 2c       	mov	r11, r1
    3d98:	f0 2d       	mov	r31, r0
    3d9a:	a5 01       	movw	r20, r10
    3d9c:	94 01       	movw	r18, r8
    3d9e:	0e 94 d4 35 	call	0x6ba8	; 0x6ba8 <__udivmodsi4>
    3da2:	20 93 f2 4a 	sts	0x4AF2, r18	; 0x804af2 <CAPA_10>
	CAPA_1    = Cell_Capa % 10;						// ΈκεΈΥεΉΖΑ CAPA   1Ήζα ΉηΡΈου
    3da6:	c7 01       	movw	r24, r14
    3da8:	b6 01       	movw	r22, r12
    3daa:	a5 01       	movw	r20, r10
    3dac:	94 01       	movw	r18, r8
    3dae:	0e 94 d4 35 	call	0x6ba8	; 0x6ba8 <__udivmodsi4>
    3db2:	60 93 b5 4a 	sts	0x4AB5, r22	; 0x804ab5 <CAPA_1>
//-------------------------------------------------------------------------------------------------
	while(SET.Menu)								// ΈσΦΈΚ┤Ά░Α 1 Ήζ┤Έσ┤ Έ░αΈ│╡
    3db6:	ff c0       	rjmp	.+510    	; 0x3fb6 <CAPA_Set+0x296>
	{
		SET.Blink = 1;							// ΉηΡΈο┐ΉΙα Ά╣εΈ░ΧΉηΕ ΉΕνΉιΧ
    3db8:	81 e0       	ldi	r24, 0x01	; 1
    3dba:	80 93 91 4a 	sts	0x4A91, r24	; 0x804a91 <SET+0x2>

		switch(KEY.Count)						// ΉΕιΊΔζ Key Ά░Α ΈΙΝΈο░ΊγθΉΙα
    3dbe:	80 91 d5 4a 	lds	r24, 0x4AD5	; 0x804ad5 <KEY>
    3dc2:	82 30       	cpi	r24, 0x02	; 2
    3dc4:	09 f4       	brne	.+2      	; 0x3dc8 <CAPA_Set+0xa8>
    3dc6:	82 c0       	rjmp	.+260    	; 0x3ecc <CAPA_Set+0x1ac>
    3dc8:	30 f4       	brcc	.+12     	; 0x3dd6 <CAPA_Set+0xb6>
    3dca:	88 23       	and	r24, r24
    3dcc:	59 f0       	breq	.+22     	; 0x3de4 <CAPA_Set+0xc4>
    3dce:	81 30       	cpi	r24, 0x01	; 1
    3dd0:	09 f4       	brne	.+2      	; 0x3dd4 <CAPA_Set+0xb4>
    3dd2:	42 c0       	rjmp	.+132    	; 0x3e58 <CAPA_Set+0x138>
    3dd4:	ee c0       	rjmp	.+476    	; 0x3fb2 <CAPA_Set+0x292>
    3dd6:	83 30       	cpi	r24, 0x03	; 3
    3dd8:	09 f4       	brne	.+2      	; 0x3ddc <CAPA_Set+0xbc>
    3dda:	b2 c0       	rjmp	.+356    	; 0x3f40 <CAPA_Set+0x220>
    3ddc:	84 30       	cpi	r24, 0x04	; 4
    3dde:	09 f4       	brne	.+2      	; 0x3de2 <CAPA_Set+0xc2>
    3de0:	e6 c0       	rjmp	.+460    	; 0x3fae <CAPA_Set+0x28e>
    3de2:	e7 c0       	rjmp	.+462    	; 0x3fb2 <CAPA_Set+0x292>
		{
			case 0:							// ΈκεΈΥεΉΖΑ CAPA 1000Ήζα ΉηΡΈου
				DIGIT[1][0] = fnd_tbl[CAPA_1];			// ΈκεΈΥεΉΖΑ CAPA    1Ήζα ΉηΡΈου ΊΣεΉΜε
    3de4:	e0 91 b5 4a 	lds	r30, 0x4AB5	; 0x804ab5 <CAPA_1>
    3de8:	f0 e0       	ldi	r31, 0x00	; 0
    3dea:	e4 57       	subi	r30, 0x74	; 116
    3dec:	ff 4b       	sbci	r31, 0xBF	; 191
    3dee:	80 81       	ld	r24, Z
    3df0:	80 93 c7 40 	sts	0x40C7, r24	; 0x8040c7 <DIGIT+0x4>
				if(Blink) {DIGIT[1][3] = FND_OFF;}		// Blink = 1 Ήζ┤Έσ┤ ΈκεΈΥεΉΖΑ CAPA 100Ήζα ΉηΡΈου OFF
    3df4:	80 91 02 4b 	lds	r24, 0x4B02	; 0x804b02 <Blink>
    3df8:	88 23       	and	r24, r24
    3dfa:	19 f0       	breq	.+6      	; 0x3e02 <CAPA_Set+0xe2>
    3dfc:	10 92 ca 40 	sts	0x40CA, r1	; 0x8040ca <DIGIT+0x7>
    3e00:	08 c0       	rjmp	.+16     	; 0x3e12 <CAPA_Set+0xf2>
				else	  {DIGIT[1][3] = fnd_tbl[CAPA_1000];}	// Blink = 0 Ήζ┤Έσ┤ ΈκεΈΥεΉΖΑ CAPA 100Ήζα ΉηΡΈου ΊΣεΉΜε
    3e02:	e0 91 f3 40 	lds	r30, 0x40F3	; 0x8040f3 <CAPA_1000>
    3e06:	f0 e0       	ldi	r31, 0x00	; 0
    3e08:	e4 57       	subi	r30, 0x74	; 116
    3e0a:	ff 4b       	sbci	r31, 0xBF	; 191
    3e0c:	80 81       	ld	r24, Z
    3e0e:	80 93 ca 40 	sts	0x40CA, r24	; 0x8040ca <DIGIT+0x7>

				if(KEY.Buff)					// Key ΉηΖΈιξΉζ┤ ΉηΙΉε╝Έσ┤
    3e12:	80 91 d6 4a 	lds	r24, 0x4AD6	; 0x804ad6 <KEY+0x1>
    3e16:	88 23       	and	r24, r24
    3e18:	09 f4       	brne	.+2      	; 0x3e1c <CAPA_Set+0xfc>
    3e1a:	cb c0       	rjmp	.+406    	; 0x3fb2 <CAPA_Set+0x292>
				{
					if     (KEY.Key == 1 && CAPA_1000 < 1) {CAPA_1000++; KEY.Key = 0;}	// ΉΩΖ  Έ▓ΕΊΛ╝ Ήζ┤Έσ┤ CAPAΆ░Τ 1000Ήζα ΉηΡΈου ΉοζΆ░Α
    3e1c:	80 91 d7 4a 	lds	r24, 0x4AD7	; 0x804ad7 <KEY+0x2>
    3e20:	81 30       	cpi	r24, 0x01	; 1
    3e22:	51 f4       	brne	.+20     	; 0x3e38 <CAPA_Set+0x118>
    3e24:	80 91 f3 40 	lds	r24, 0x40F3	; 0x8040f3 <CAPA_1000>
    3e28:	81 11       	cpse	r24, r1
    3e2a:	06 c0       	rjmp	.+12     	; 0x3e38 <CAPA_Set+0x118>
    3e2c:	8f 5f       	subi	r24, 0xFF	; 255
    3e2e:	80 93 f3 40 	sts	0x40F3, r24	; 0x8040f3 <CAPA_1000>
    3e32:	10 92 d7 4a 	sts	0x4AD7, r1	; 0x804ad7 <KEY+0x2>
    3e36:	bd c0       	rjmp	.+378    	; 0x3fb2 <CAPA_Set+0x292>
					else if(KEY.Key == 3 && CAPA_1000 > 0) {CAPA_1000--; KEY.Key = 0;}	// ΈΜνΉγ┤Έ▓ΕΊΛ╝ Ήζ┤Έσ┤ CAPAΆ░Τ 1000Ήζα ΉηΡΈου Ά░ΡΉΗΝ
    3e38:	80 91 d7 4a 	lds	r24, 0x4AD7	; 0x804ad7 <KEY+0x2>
    3e3c:	83 30       	cpi	r24, 0x03	; 3
    3e3e:	09 f0       	breq	.+2      	; 0x3e42 <CAPA_Set+0x122>
    3e40:	b8 c0       	rjmp	.+368    	; 0x3fb2 <CAPA_Set+0x292>
    3e42:	80 91 f3 40 	lds	r24, 0x40F3	; 0x8040f3 <CAPA_1000>
    3e46:	88 23       	and	r24, r24
    3e48:	09 f4       	brne	.+2      	; 0x3e4c <CAPA_Set+0x12c>
    3e4a:	b3 c0       	rjmp	.+358    	; 0x3fb2 <CAPA_Set+0x292>
    3e4c:	81 50       	subi	r24, 0x01	; 1
    3e4e:	80 93 f3 40 	sts	0x40F3, r24	; 0x8040f3 <CAPA_1000>
    3e52:	10 92 d7 4a 	sts	0x4AD7, r1	; 0x804ad7 <KEY+0x2>
    3e56:	ad c0       	rjmp	.+346    	; 0x3fb2 <CAPA_Set+0x292>
				}
			break;

			case 1:							// ΈκεΈΥεΉΖΑ CAPA  100Ήζα ΉηΡΈου
				DIGIT[1][3] = fnd_tbl[CAPA_1000];		// ΈκεΈΥεΉΖΑ CAPA 1000Ήζα ΉηΡΈου ΊΣεΉΜε
    3e58:	e0 91 f3 40 	lds	r30, 0x40F3	; 0x8040f3 <CAPA_1000>
    3e5c:	f0 e0       	ldi	r31, 0x00	; 0
    3e5e:	e4 57       	subi	r30, 0x74	; 116
    3e60:	ff 4b       	sbci	r31, 0xBF	; 191
    3e62:	80 81       	ld	r24, Z
    3e64:	80 93 ca 40 	sts	0x40CA, r24	; 0x8040ca <DIGIT+0x7>
				if(Blink) {DIGIT[1][2] = FND_OFF;}		// Blink = 1 Ήζ┤Έσ┤ ΈκεΈΥεΉΖΑ CAPA 100Ήζα ΉηΡΈου OFF
    3e68:	80 91 02 4b 	lds	r24, 0x4B02	; 0x804b02 <Blink>
    3e6c:	88 23       	and	r24, r24
    3e6e:	19 f0       	breq	.+6      	; 0x3e76 <CAPA_Set+0x156>
    3e70:	10 92 c9 40 	sts	0x40C9, r1	; 0x8040c9 <DIGIT+0x6>
    3e74:	08 c0       	rjmp	.+16     	; 0x3e86 <CAPA_Set+0x166>
				else	  {DIGIT[1][2] = fnd_tbl[CAPA_100];}	// Blink = 0 Ήζ┤Έσ┤ ΈκεΈΥεΉΖΑ CAPA 100Ήζα ΉηΡΈου ΊΣεΉΜε
    3e76:	e0 91 e8 4a 	lds	r30, 0x4AE8	; 0x804ae8 <CAPA_100>
    3e7a:	f0 e0       	ldi	r31, 0x00	; 0
    3e7c:	e4 57       	subi	r30, 0x74	; 116
    3e7e:	ff 4b       	sbci	r31, 0xBF	; 191
    3e80:	80 81       	ld	r24, Z
    3e82:	80 93 c9 40 	sts	0x40C9, r24	; 0x8040c9 <DIGIT+0x6>

				if(KEY.Buff)					// Key ΉηΖΈιξΉζ┤ ΉηΙΉε╝Έσ┤
    3e86:	80 91 d6 4a 	lds	r24, 0x4AD6	; 0x804ad6 <KEY+0x1>
    3e8a:	88 23       	and	r24, r24
    3e8c:	09 f4       	brne	.+2      	; 0x3e90 <CAPA_Set+0x170>
    3e8e:	91 c0       	rjmp	.+290    	; 0x3fb2 <CAPA_Set+0x292>
				{
					if     (KEY.Key == 1 && CAPA_100 < 5) {CAPA_100++; KEY.Key = 0;}	// ΉΩΖ  Έ▓ΕΊΛ╝ Ήζ┤Έσ┤ CAPAΆ░Τ 100Ήζα ΉηΡΈου ΉοζΆ░Α
    3e90:	80 91 d7 4a 	lds	r24, 0x4AD7	; 0x804ad7 <KEY+0x2>
    3e94:	81 30       	cpi	r24, 0x01	; 1
    3e96:	51 f4       	brne	.+20     	; 0x3eac <CAPA_Set+0x18c>
    3e98:	80 91 e8 4a 	lds	r24, 0x4AE8	; 0x804ae8 <CAPA_100>
    3e9c:	85 30       	cpi	r24, 0x05	; 5
    3e9e:	30 f4       	brcc	.+12     	; 0x3eac <CAPA_Set+0x18c>
    3ea0:	8f 5f       	subi	r24, 0xFF	; 255
    3ea2:	80 93 e8 4a 	sts	0x4AE8, r24	; 0x804ae8 <CAPA_100>
    3ea6:	10 92 d7 4a 	sts	0x4AD7, r1	; 0x804ad7 <KEY+0x2>
    3eaa:	83 c0       	rjmp	.+262    	; 0x3fb2 <CAPA_Set+0x292>
					else if(KEY.Key == 3 && CAPA_100 > 0) {CAPA_100--; KEY.Key = 0;}	// ΈΜνΉγ┤Έ▓ΕΊΛ╝ Ήζ┤Έσ┤ CAPAΆ░Τ 100Ήζα ΉηΡΈου Ά░ΡΉΗΝ
    3eac:	80 91 d7 4a 	lds	r24, 0x4AD7	; 0x804ad7 <KEY+0x2>
    3eb0:	83 30       	cpi	r24, 0x03	; 3
    3eb2:	09 f0       	breq	.+2      	; 0x3eb6 <CAPA_Set+0x196>
    3eb4:	7e c0       	rjmp	.+252    	; 0x3fb2 <CAPA_Set+0x292>
    3eb6:	80 91 e8 4a 	lds	r24, 0x4AE8	; 0x804ae8 <CAPA_100>
    3eba:	88 23       	and	r24, r24
    3ebc:	09 f4       	brne	.+2      	; 0x3ec0 <CAPA_Set+0x1a0>
    3ebe:	79 c0       	rjmp	.+242    	; 0x3fb2 <CAPA_Set+0x292>
    3ec0:	81 50       	subi	r24, 0x01	; 1
    3ec2:	80 93 e8 4a 	sts	0x4AE8, r24	; 0x804ae8 <CAPA_100>
    3ec6:	10 92 d7 4a 	sts	0x4AD7, r1	; 0x804ad7 <KEY+0x2>
    3eca:	73 c0       	rjmp	.+230    	; 0x3fb2 <CAPA_Set+0x292>
				}
			break;

			case 2:							// ΈκεΈΥεΉΖΑ CAPA 10Ήζα ΉηΡΈου
				DIGIT[1][2] = fnd_tbl[CAPA_100];		// ΈκεΈΥεΉΖΑ CAPA 100Ήζα ΉηΡΈου ΊΣεΉΜε
    3ecc:	e0 91 e8 4a 	lds	r30, 0x4AE8	; 0x804ae8 <CAPA_100>
    3ed0:	f0 e0       	ldi	r31, 0x00	; 0
    3ed2:	e4 57       	subi	r30, 0x74	; 116
    3ed4:	ff 4b       	sbci	r31, 0xBF	; 191
    3ed6:	80 81       	ld	r24, Z
    3ed8:	80 93 c9 40 	sts	0x40C9, r24	; 0x8040c9 <DIGIT+0x6>
				if(Blink) {DIGIT[1][1] = FND_OFF;}		// Blink = 1 Ήζ┤Έσ┤ ΈκεΈΥεΉΖΑ CAPA 10Ήζα ΉηΡΈου OFF
    3edc:	80 91 02 4b 	lds	r24, 0x4B02	; 0x804b02 <Blink>
    3ee0:	88 23       	and	r24, r24
    3ee2:	19 f0       	breq	.+6      	; 0x3eea <CAPA_Set+0x1ca>
    3ee4:	10 92 c8 40 	sts	0x40C8, r1	; 0x8040c8 <DIGIT+0x5>
    3ee8:	08 c0       	rjmp	.+16     	; 0x3efa <CAPA_Set+0x1da>
				else	  {DIGIT[1][1] = fnd_tbl[CAPA_10];}	// Blink = 0 Ήζ┤Έσ┤ ΈκεΈΥεΉΖΑ CAPA 10Ήζα ΉηΡΈου ΊΣεΉΜε
    3eea:	e0 91 f2 4a 	lds	r30, 0x4AF2	; 0x804af2 <CAPA_10>
    3eee:	f0 e0       	ldi	r31, 0x00	; 0
    3ef0:	e4 57       	subi	r30, 0x74	; 116
    3ef2:	ff 4b       	sbci	r31, 0xBF	; 191
    3ef4:	80 81       	ld	r24, Z
    3ef6:	80 93 c8 40 	sts	0x40C8, r24	; 0x8040c8 <DIGIT+0x5>

				if(KEY.Buff)					// Key ΉηΖΈιξΉζ┤ ΉηΙΉε╝Έσ┤
    3efa:	80 91 d6 4a 	lds	r24, 0x4AD6	; 0x804ad6 <KEY+0x1>
    3efe:	88 23       	and	r24, r24
    3f00:	09 f4       	brne	.+2      	; 0x3f04 <CAPA_Set+0x1e4>
    3f02:	57 c0       	rjmp	.+174    	; 0x3fb2 <CAPA_Set+0x292>
				{
					if     (KEY.Key == 1 && CAPA_10 < 9) {CAPA_10++; KEY.Key = 0;}	// ΉΩΖ  Έ▓ΕΊΛ╝ Ήζ┤Έσ┤ CAPAΆ░Τ 10Ήζα ΉηΡΈου ΉοζΆ░Α
    3f04:	80 91 d7 4a 	lds	r24, 0x4AD7	; 0x804ad7 <KEY+0x2>
    3f08:	81 30       	cpi	r24, 0x01	; 1
    3f0a:	51 f4       	brne	.+20     	; 0x3f20 <CAPA_Set+0x200>
    3f0c:	80 91 f2 4a 	lds	r24, 0x4AF2	; 0x804af2 <CAPA_10>
    3f10:	89 30       	cpi	r24, 0x09	; 9
    3f12:	30 f4       	brcc	.+12     	; 0x3f20 <CAPA_Set+0x200>
    3f14:	8f 5f       	subi	r24, 0xFF	; 255
    3f16:	80 93 f2 4a 	sts	0x4AF2, r24	; 0x804af2 <CAPA_10>
    3f1a:	10 92 d7 4a 	sts	0x4AD7, r1	; 0x804ad7 <KEY+0x2>
    3f1e:	49 c0       	rjmp	.+146    	; 0x3fb2 <CAPA_Set+0x292>
					else if(KEY.Key == 3 && CAPA_10 > 0) {CAPA_10--; KEY.Key = 0;}	// ΈΜνΉγ┤Έ▓ΕΊΛ╝ Ήζ┤Έσ┤ CAPAΆ░Τ 10Ήζα ΉηΡΈου Ά░ΡΉΗΝ
    3f20:	80 91 d7 4a 	lds	r24, 0x4AD7	; 0x804ad7 <KEY+0x2>
    3f24:	83 30       	cpi	r24, 0x03	; 3
    3f26:	09 f0       	breq	.+2      	; 0x3f2a <CAPA_Set+0x20a>
    3f28:	44 c0       	rjmp	.+136    	; 0x3fb2 <CAPA_Set+0x292>
    3f2a:	80 91 f2 4a 	lds	r24, 0x4AF2	; 0x804af2 <CAPA_10>
    3f2e:	88 23       	and	r24, r24
    3f30:	09 f4       	brne	.+2      	; 0x3f34 <CAPA_Set+0x214>
    3f32:	3f c0       	rjmp	.+126    	; 0x3fb2 <CAPA_Set+0x292>
    3f34:	81 50       	subi	r24, 0x01	; 1
    3f36:	80 93 f2 4a 	sts	0x4AF2, r24	; 0x804af2 <CAPA_10>
    3f3a:	10 92 d7 4a 	sts	0x4AD7, r1	; 0x804ad7 <KEY+0x2>
    3f3e:	39 c0       	rjmp	.+114    	; 0x3fb2 <CAPA_Set+0x292>
				}
			break;

			case 3:							// ΈκεΈΥεΉΖΑ CAPA 1Ήζα ΉηΡΈου
				DIGIT[1][1] = fnd_tbl[CAPA_10];			// ΈκεΈΥεΉΖΑ CAPA 10Ήζα ΉηΡΈου ΊΣεΉΜε
    3f40:	e0 91 f2 4a 	lds	r30, 0x4AF2	; 0x804af2 <CAPA_10>
    3f44:	f0 e0       	ldi	r31, 0x00	; 0
    3f46:	e4 57       	subi	r30, 0x74	; 116
    3f48:	ff 4b       	sbci	r31, 0xBF	; 191
    3f4a:	80 81       	ld	r24, Z
    3f4c:	80 93 c8 40 	sts	0x40C8, r24	; 0x8040c8 <DIGIT+0x5>
				if(Blink) {DIGIT[1][0] = FND_OFF;}		// Blink = 1 Ήζ┤Έσ┤ ΈκεΈΥεΉΖΑ CAPA 1Ήζα ΉηΡΈου OFF
    3f50:	80 91 02 4b 	lds	r24, 0x4B02	; 0x804b02 <Blink>
    3f54:	88 23       	and	r24, r24
    3f56:	19 f0       	breq	.+6      	; 0x3f5e <CAPA_Set+0x23e>
    3f58:	10 92 c7 40 	sts	0x40C7, r1	; 0x8040c7 <DIGIT+0x4>
    3f5c:	08 c0       	rjmp	.+16     	; 0x3f6e <CAPA_Set+0x24e>
				else	  {DIGIT[1][0] = fnd_tbl[CAPA_1];}	// Blink = 0 Ήζ┤Έσ┤ ΈκεΈΥεΉΖΑ CAPA 1Ήζα ΉηΡΈου ΊΣεΉΜε
    3f5e:	e0 91 b5 4a 	lds	r30, 0x4AB5	; 0x804ab5 <CAPA_1>
    3f62:	f0 e0       	ldi	r31, 0x00	; 0
    3f64:	e4 57       	subi	r30, 0x74	; 116
    3f66:	ff 4b       	sbci	r31, 0xBF	; 191
    3f68:	80 81       	ld	r24, Z
    3f6a:	80 93 c7 40 	sts	0x40C7, r24	; 0x8040c7 <DIGIT+0x4>

				if(KEY.Buff)					// Key ΉηΖΈιξΉζ┤ ΉηΙΉε╝Έσ┤
    3f6e:	80 91 d6 4a 	lds	r24, 0x4AD6	; 0x804ad6 <KEY+0x1>
    3f72:	88 23       	and	r24, r24
    3f74:	f1 f0       	breq	.+60     	; 0x3fb2 <CAPA_Set+0x292>
				{
					if     (KEY.Key == 1 && CAPA_1 < 9) {CAPA_1++; KEY.Key = 0;}	// ΉΩΖ  Έ▓ΕΊΛ╝ Ήζ┤Έσ┤ CAPAΆ░Τ 1Ήζα ΉηΡΈου ΉοζΆ░Α
    3f76:	80 91 d7 4a 	lds	r24, 0x4AD7	; 0x804ad7 <KEY+0x2>
    3f7a:	81 30       	cpi	r24, 0x01	; 1
    3f7c:	51 f4       	brne	.+20     	; 0x3f92 <CAPA_Set+0x272>
    3f7e:	80 91 b5 4a 	lds	r24, 0x4AB5	; 0x804ab5 <CAPA_1>
    3f82:	89 30       	cpi	r24, 0x09	; 9
    3f84:	30 f4       	brcc	.+12     	; 0x3f92 <CAPA_Set+0x272>
    3f86:	8f 5f       	subi	r24, 0xFF	; 255
    3f88:	80 93 b5 4a 	sts	0x4AB5, r24	; 0x804ab5 <CAPA_1>
    3f8c:	10 92 d7 4a 	sts	0x4AD7, r1	; 0x804ad7 <KEY+0x2>
    3f90:	10 c0       	rjmp	.+32     	; 0x3fb2 <CAPA_Set+0x292>
					else if(KEY.Key == 3 && CAPA_1 > 0) {CAPA_1--; KEY.Key = 0;}	// ΈΜνΉγ┤Έ▓ΕΊΛ╝ Ήζ┤Έσ┤ CAPAΆ░Τ 1Ήζα ΉηΡΈου Ά░ΡΉΗΝ
    3f92:	80 91 d7 4a 	lds	r24, 0x4AD7	; 0x804ad7 <KEY+0x2>
    3f96:	83 30       	cpi	r24, 0x03	; 3
    3f98:	61 f4       	brne	.+24     	; 0x3fb2 <CAPA_Set+0x292>
    3f9a:	80 91 b5 4a 	lds	r24, 0x4AB5	; 0x804ab5 <CAPA_1>
    3f9e:	88 23       	and	r24, r24
    3fa0:	41 f0       	breq	.+16     	; 0x3fb2 <CAPA_Set+0x292>
    3fa2:	81 50       	subi	r24, 0x01	; 1
    3fa4:	80 93 b5 4a 	sts	0x4AB5, r24	; 0x804ab5 <CAPA_1>
    3fa8:	10 92 d7 4a 	sts	0x4AD7, r1	; 0x804ad7 <KEY+0x2>
    3fac:	02 c0       	rjmp	.+4      	; 0x3fb2 <CAPA_Set+0x292>
				}
			break;

			case 4:
				KEY.Count = 0;					// Έ░αΈ│╡ΉζΕ ΉεΕΊΧ┤ CountΈξ╝ Ή╡εΉιΑΈκε Ά░ΡΉΗΝ ΉΜεΊΓ┤
    3fae:	10 92 d5 4a 	sts	0x4AD5, r1	; 0x804ad5 <KEY>
			break;
		}
		wdt_reset();							// ΉδΝΉ╣αΈΠΖ ΈουΉΖΜ
    3fb2:	0e 94 78 0c 	call	0x18f0	; 0x18f0 <wdt_reset>
	CAPA_1000 = Cell_Capa / 1000;						// ΈκεΈΥεΉΖΑ CAPA 1000Ήζα ΉηΡΈου
	CAPA_100  = Cell_Capa % 1000 / 100;					// ΈκεΈΥεΉΖΑ CAPA 100Ήζα ΉηΡΈου
	CAPA_10   = Cell_Capa % 100 / 10;					// ΈκεΈΥεΉΖΑ CAPA  10Ήζα ΉηΡΈου
	CAPA_1    = Cell_Capa % 10;						// ΈκεΈΥεΉΖΑ CAPA   1Ήζα ΉηΡΈου
//-------------------------------------------------------------------------------------------------
	while(SET.Menu)								// ΈσΦΈΚ┤Ά░Α 1 Ήζ┤Έσ┤ Έ░αΈ│╡
    3fb6:	80 91 8f 4a 	lds	r24, 0x4A8F	; 0x804a8f <SET>
    3fba:	81 11       	cpse	r24, r1
    3fbc:	fd ce       	rjmp	.-518    	; 0x3db8 <CAPA_Set+0x98>
		}
		wdt_reset();							// ΉδΝΉ╣αΈΠΖ ΈουΉΖΜ
	}
//-------------------------------------------------------------------------------------------------
	Cell_Capa = 0;
	Cell_Capa += (CAPA_1000 * 1000);					// ΈκεΈΥεΉΖΑ CAPA 1000Ήζα ΉηΡΈου
    3fbe:	40 91 f3 40 	lds	r20, 0x40F3	; 0x8040f3 <CAPA_1000>
    3fc2:	28 ee       	ldi	r18, 0xE8	; 232
    3fc4:	33 e0       	ldi	r19, 0x03	; 3
    3fc6:	42 9f       	mul	r20, r18
    3fc8:	c0 01       	movw	r24, r0
    3fca:	43 9f       	mul	r20, r19
    3fcc:	90 0d       	add	r25, r0
    3fce:	11 24       	eor	r1, r1
    3fd0:	ac 01       	movw	r20, r24
    3fd2:	99 0f       	add	r25, r25
    3fd4:	66 0b       	sbc	r22, r22
    3fd6:	77 0b       	sbc	r23, r23
	Cell_Capa += (CAPA_100  * 100);						// ΈκεΈΥεΉΖΑ CAPA  100Ήζα ΉηΡΈου
    3fd8:	80 91 e8 4a 	lds	r24, 0x4AE8	; 0x804ae8 <CAPA_100>
    3fdc:	24 e6       	ldi	r18, 0x64	; 100
    3fde:	82 9f       	mul	r24, r18
    3fe0:	c0 01       	movw	r24, r0
    3fe2:	11 24       	eor	r1, r1
    3fe4:	09 2e       	mov	r0, r25
    3fe6:	00 0c       	add	r0, r0
    3fe8:	aa 0b       	sbc	r26, r26
    3fea:	bb 0b       	sbc	r27, r27
    3fec:	84 0f       	add	r24, r20
    3fee:	95 1f       	adc	r25, r21
    3ff0:	a6 1f       	adc	r26, r22
    3ff2:	b7 1f       	adc	r27, r23
	Cell_Capa += (CAPA_10   * 10);						// ΈκεΈΥεΉΖΑ CAPA   10Ήζα ΉηΡΈου
    3ff4:	20 91 f2 4a 	lds	r18, 0x4AF2	; 0x804af2 <CAPA_10>
    3ff8:	30 e0       	ldi	r19, 0x00	; 0
    3ffa:	b9 01       	movw	r22, r18
    3ffc:	66 0f       	add	r22, r22
    3ffe:	77 1f       	adc	r23, r23
    4000:	22 0f       	add	r18, r18
    4002:	33 1f       	adc	r19, r19
    4004:	22 0f       	add	r18, r18
    4006:	33 1f       	adc	r19, r19
    4008:	22 0f       	add	r18, r18
    400a:	33 1f       	adc	r19, r19
    400c:	62 0f       	add	r22, r18
    400e:	73 1f       	adc	r23, r19
    4010:	ab 01       	movw	r20, r22
    4012:	77 0f       	add	r23, r23
    4014:	66 0b       	sbc	r22, r22
    4016:	77 0b       	sbc	r23, r23
    4018:	84 0f       	add	r24, r20
    401a:	95 1f       	adc	r25, r21
    401c:	a6 1f       	adc	r26, r22
    401e:	b7 1f       	adc	r27, r23
	Cell_Capa += (CAPA_1    * 1);						// ΈκεΈΥεΉΖΑ CAPA    1Ήζα ΉηΡΈου
    4020:	20 91 b5 4a 	lds	r18, 0x4AB5	; 0x804ab5 <CAPA_1>
    4024:	bc 01       	movw	r22, r24
    4026:	cd 01       	movw	r24, r26
    4028:	62 0f       	add	r22, r18
    402a:	71 1d       	adc	r23, r1
    402c:	81 1d       	adc	r24, r1
    402e:	91 1d       	adc	r25, r1
    4030:	60 93 f3 4a 	sts	0x4AF3, r22	; 0x804af3 <Cell_Capa>
    4034:	70 93 f4 4a 	sts	0x4AF4, r23	; 0x804af4 <Cell_Capa+0x1>
    4038:	80 93 f5 4a 	sts	0x4AF5, r24	; 0x804af5 <Cell_Capa+0x2>
    403c:	90 93 f6 4a 	sts	0x4AF6, r25	; 0x804af6 <Cell_Capa+0x3>
//-------------------------------------------------------------------------------------------------
	ee_write_word(Cell_Capa_Addr, Cell_Capa);				// ΈκεΈΥεΉΖΑ Ήζ┤Έσ┤ ΉγσΈθΚΆ░Τ ΉιΑΉηξ
    4040:	86 e0       	ldi	r24, 0x06	; 6
    4042:	90 e0       	ldi	r25, 0x00	; 0
    4044:	0e 94 82 0f 	call	0x1f04	; 0x1f04 <ee_write_word>

	SET.Menu = 1;								// Menu ΈςρΈΥε ΉειΉπΑ
    4048:	ef e8       	ldi	r30, 0x8F	; 143
    404a:	fa e4       	ldi	r31, 0x4A	; 74
    404c:	81 e0       	ldi	r24, 0x01	; 1
    404e:	80 83       	st	Z, r24
	SET.Select = 0;								// Select Έ▓ΕΊΛ╝ Ή┤ΙΆ╕░ΊβΦ
    4050:	11 82       	std	Z+1, r1	; 0x01
	SET.Blink = 0;								// ΉηΡΈο┐ΉΙα Ά╣εΈ░ΧΉηΕ Ή┤ΙΆ╕░ΊβΦ
    4052:	12 82       	std	Z+2, r1	; 0x02
	KEY.Count = 0;								// ΉΕιΊΔζ Key Ά░Α ΈΙΝΈο░ΊγθΉΙα Ή┤ΙΆ╕░ΊβΦ
    4054:	10 92 d5 4a 	sts	0x4AD5, r1	; 0x804ad5 <KEY>
}
    4058:	ff 90       	pop	r15
    405a:	ef 90       	pop	r14
    405c:	df 90       	pop	r13
    405e:	cf 90       	pop	r12
    4060:	bf 90       	pop	r11
    4062:	af 90       	pop	r10
    4064:	9f 90       	pop	r9
    4066:	8f 90       	pop	r8
    4068:	08 95       	ret

0000406a <CNT_Set>:

//=================================================================================================
void CNT_Set(void)								// ΈκεΈΥεΉΖΑ Ά░ψΉΙα ΉΕνΉιΧ
{
	FND_Value_Data(0, 2, 12);						// FND 0 ~ 2 FND_OFF
    406a:	4c e0       	ldi	r20, 0x0C	; 12
    406c:	62 e0       	ldi	r22, 0x02	; 2
    406e:	80 e0       	ldi	r24, 0x00	; 0
    4070:	0e 94 ca 05 	call	0xb94	; 0xb94 <FND_Value_Data>

	while(SET.Menu && SET.Select)						// ΈσΦΈΚ┤ ΉβΑ ΉΕιΊΔζ Ήζ┤ ΈςρΈΣΡ 1 Ήζ┤Έσ┤ Έ░αΈ│╡
    4074:	43 c0       	rjmp	.+134    	; 0x40fc <CNT_Set+0x92>
	{
		DIGIT[1][3] = FND_OFF;						// FND 0 ΉΩΡ cnt ΊΣεΉΜε
    4076:	e3 ec       	ldi	r30, 0xC3	; 195
    4078:	f0 e4       	ldi	r31, 0x40	; 64
    407a:	17 82       	std	Z+7, r1	; 0x07
		DIGIT[0][2] = FND_c;
    407c:	8a e1       	ldi	r24, 0x1A	; 26
    407e:	82 83       	std	Z+2, r24	; 0x02
		DIGIT[0][1] = FND_n;
    4080:	8a e2       	ldi	r24, 0x2A	; 42
    4082:	81 83       	std	Z+1, r24	; 0x01
		DIGIT[0][0] = FND_t;
    4084:	8e e1       	ldi	r24, 0x1E	; 30
    4086:	80 83       	st	Z, r24

		DIGIT[1][3] = FND_OFF;						// FND 1 OFF
		DIGIT[1][2] = FND_OFF;
    4088:	16 82       	std	Z+6, r1	; 0x06
		DIGIT[1][1] = fnd_tbl[Cell_CNT / 10];				// FND 1 ΉΩΡ CNT Έ▓ΙΊα╕ ΊΣεΉΜε
    408a:	20 91 04 4b 	lds	r18, 0x4B04	; 0x804b04 <Cell_CNT>
    408e:	8d ec       	ldi	r24, 0xCD	; 205
    4090:	28 9f       	mul	r18, r24
    4092:	81 2d       	mov	r24, r1
    4094:	11 24       	eor	r1, r1
    4096:	86 95       	lsr	r24
    4098:	86 95       	lsr	r24
    409a:	86 95       	lsr	r24
    409c:	a8 2f       	mov	r26, r24
    409e:	b0 e0       	ldi	r27, 0x00	; 0
    40a0:	a4 57       	subi	r26, 0x74	; 116
    40a2:	bf 4b       	sbci	r27, 0xBF	; 191
    40a4:	9c 91       	ld	r25, X
    40a6:	95 83       	std	Z+5, r25	; 0x05
		DIGIT[1][0] = fnd_tbl[Cell_CNT % 10];
    40a8:	88 0f       	add	r24, r24
    40aa:	98 2f       	mov	r25, r24
    40ac:	99 0f       	add	r25, r25
    40ae:	99 0f       	add	r25, r25
    40b0:	89 0f       	add	r24, r25
    40b2:	a2 2f       	mov	r26, r18
    40b4:	a8 1b       	sub	r26, r24
    40b6:	b0 e0       	ldi	r27, 0x00	; 0
    40b8:	a4 57       	subi	r26, 0x74	; 116
    40ba:	bf 4b       	sbci	r27, 0xBF	; 191
    40bc:	8c 91       	ld	r24, X
    40be:	84 83       	std	Z+4, r24	; 0x04

		DIGIT[2][0] = FND_OFF;						// ΈκεΈΥεΉΖΑ RO, ΉηΖΆ╡υΉ▓┤ΉνΣ 1Ήζα ΉηΡΈου ΉπΑΉγ░Ά╕░
    40c0:	10 86       	std	Z+8, r1	; 0x08

		if(KEY.Buff)							// Key ΉηΖΈιξΉζ┤ ΉηΙΉε╝Έσ┤
    40c2:	80 91 d6 4a 	lds	r24, 0x4AD6	; 0x804ad6 <KEY+0x1>
    40c6:	88 23       	and	r24, r24
    40c8:	b9 f0       	breq	.+46     	; 0x40f8 <CNT_Set+0x8e>
		{
			if     (KEY.Key == 1 && Cell_CNT < 4) {Cell_CNT = Cell_CNT * 2; KEY.Key = 0;}	// ΉΩΖ  Έ▓ΕΊΛ╝ Ήζ┤Έσ┤ Ά░ψΉΙα ΉΕνΉιΧΆ░Τ ΉοζΆ░Α
    40ca:	80 91 d7 4a 	lds	r24, 0x4AD7	; 0x804ad7 <KEY+0x2>
    40ce:	81 30       	cpi	r24, 0x01	; 1
    40d0:	41 f4       	brne	.+16     	; 0x40e2 <CNT_Set+0x78>
    40d2:	24 30       	cpi	r18, 0x04	; 4
    40d4:	30 f4       	brcc	.+12     	; 0x40e2 <CNT_Set+0x78>
    40d6:	22 0f       	add	r18, r18
    40d8:	20 93 04 4b 	sts	0x4B04, r18	; 0x804b04 <Cell_CNT>
    40dc:	10 92 d7 4a 	sts	0x4AD7, r1	; 0x804ad7 <KEY+0x2>
    40e0:	0b c0       	rjmp	.+22     	; 0x40f8 <CNT_Set+0x8e>
			else if(KEY.Key == 3 && Cell_CNT > 1) {Cell_CNT = Cell_CNT / 2; KEY.Key = 0;}	// ΈΜνΉγ┤Έ▓ΕΊΛ╝ Ήζ┤Έσ┤ Ά░ψΉΙα ΉΕνΉιΧΆ░Τ Ά░ΡΉΗΝ
    40e2:	80 91 d7 4a 	lds	r24, 0x4AD7	; 0x804ad7 <KEY+0x2>
    40e6:	83 30       	cpi	r24, 0x03	; 3
    40e8:	39 f4       	brne	.+14     	; 0x40f8 <CNT_Set+0x8e>
    40ea:	22 30       	cpi	r18, 0x02	; 2
    40ec:	28 f0       	brcs	.+10     	; 0x40f8 <CNT_Set+0x8e>
    40ee:	26 95       	lsr	r18
    40f0:	20 93 04 4b 	sts	0x4B04, r18	; 0x804b04 <Cell_CNT>
    40f4:	10 92 d7 4a 	sts	0x4AD7, r1	; 0x804ad7 <KEY+0x2>
		}
		wdt_reset();							// ΉδΝΉ╣αΈΠΖ ΈουΉΖΜ
    40f8:	0e 94 78 0c 	call	0x18f0	; 0x18f0 <wdt_reset>
//=================================================================================================
void CNT_Set(void)								// ΈκεΈΥεΉΖΑ Ά░ψΉΙα ΉΕνΉιΧ
{
	FND_Value_Data(0, 2, 12);						// FND 0 ~ 2 FND_OFF

	while(SET.Menu && SET.Select)						// ΈσΦΈΚ┤ ΉβΑ ΉΕιΊΔζ Ήζ┤ ΈςρΈΣΡ 1 Ήζ┤Έσ┤ Έ░αΈ│╡
    40fc:	80 91 8f 4a 	lds	r24, 0x4A8F	; 0x804a8f <SET>
    4100:	88 23       	and	r24, r24
    4102:	21 f0       	breq	.+8      	; 0x410c <CNT_Set+0xa2>
    4104:	80 91 90 4a 	lds	r24, 0x4A90	; 0x804a90 <SET+0x1>
    4108:	81 11       	cpse	r24, r1
    410a:	b5 cf       	rjmp	.-150    	; 0x4076 <CNT_Set+0xc>
			else if(KEY.Key == 3 && Cell_CNT > 1) {Cell_CNT = Cell_CNT / 2; KEY.Key = 0;}	// ΈΜνΉγ┤Έ▓ΕΊΛ╝ Ήζ┤Έσ┤ Ά░ψΉΙα ΉΕνΉιΧΆ░Τ Ά░ΡΉΗΝ
		}
		wdt_reset();							// ΉδΝΉ╣αΈΠΖ ΈουΉΖΜ
	}
//-------------------------------------------------------------------------------------------------
	ee_write_byte(Cell_CNT_Addr, Cell_CNT);					// ΈκεΈΥεΉΖΑ Ήζ┤Έσ┤ Ά░ψΉΙα ΉΕνΉιΧΆ░ΤΉζΕ EEPROM ΉΩΡ ΉιΑΉηξ
    410c:	60 91 04 4b 	lds	r22, 0x4B04	; 0x804b04 <Cell_CNT>
    4110:	85 e0       	ldi	r24, 0x05	; 5
    4112:	90 e0       	ldi	r25, 0x00	; 0
    4114:	0e 94 5f 0f 	call	0x1ebe	; 0x1ebe <ee_write_byte>
    4118:	08 95       	ret

0000411a <ID_Set>:
}

//=================================================================================================
void ID_Set(void)								// ID ΉΕνΉιΧ
{
	FND_Value_Data(0, 2, 12);						// FND 0 ~ 2 FND_OFF
    411a:	4c e0       	ldi	r20, 0x0C	; 12
    411c:	62 e0       	ldi	r22, 0x02	; 2
    411e:	80 e0       	ldi	r24, 0x00	; 0
    4120:	0e 94 ca 05 	call	0xb94	; 0xb94 <FND_Value_Data>

	while(SET.Menu && SET.Select)						// ΈσΦΈΚ┤ ΉβΑ ΉΕιΊΔζ Ήζ┤ ΈςρΈΣΡ 1 Ήζ┤Έσ┤ Έ░αΈ│╡
    4124:	43 c0       	rjmp	.+134    	; 0x41ac <ID_Set+0x92>
	{
		DIGIT[0][3] = FND_OFF;						// FND 0 ΉΩΡ ID ΊΣεΉΜε
    4126:	e3 ec       	ldi	r30, 0xC3	; 195
    4128:	f0 e4       	ldi	r31, 0x40	; 64
    412a:	13 82       	std	Z+3, r1	; 0x03
		DIGIT[0][2] = FND_I;
    412c:	80 e6       	ldi	r24, 0x60	; 96
    412e:	82 83       	std	Z+2, r24	; 0x02
		DIGIT[0][1] = FND_d;
    4130:	8a e7       	ldi	r24, 0x7A	; 122
    4132:	81 83       	std	Z+1, r24	; 0x01
		DIGIT[0][0] = FND_OFF;
    4134:	10 82       	st	Z, r1

		DIGIT[1][3] = FND_OFF;						// FND 1 OFF
    4136:	17 82       	std	Z+7, r1	; 0x07
		DIGIT[1][2] = FND_OFF;
    4138:	16 82       	std	Z+6, r1	; 0x06
		DIGIT[1][1] = fnd_tbl[Cell_ID / 10];				// FND 1 ΉΩΡ ID Έ▓ΙΊα╕ ΊΣεΉΜε
    413a:	20 91 60 4a 	lds	r18, 0x4A60	; 0x804a60 <Cell_ID>
    413e:	8d ec       	ldi	r24, 0xCD	; 205
    4140:	28 9f       	mul	r18, r24
    4142:	81 2d       	mov	r24, r1
    4144:	11 24       	eor	r1, r1
    4146:	86 95       	lsr	r24
    4148:	86 95       	lsr	r24
    414a:	86 95       	lsr	r24
    414c:	a8 2f       	mov	r26, r24
    414e:	b0 e0       	ldi	r27, 0x00	; 0
    4150:	a4 57       	subi	r26, 0x74	; 116
    4152:	bf 4b       	sbci	r27, 0xBF	; 191
    4154:	9c 91       	ld	r25, X
    4156:	95 83       	std	Z+5, r25	; 0x05
		DIGIT[1][0] = fnd_tbl[Cell_ID % 10];
    4158:	88 0f       	add	r24, r24
    415a:	98 2f       	mov	r25, r24
    415c:	99 0f       	add	r25, r25
    415e:	99 0f       	add	r25, r25
    4160:	89 0f       	add	r24, r25
    4162:	a2 2f       	mov	r26, r18
    4164:	a8 1b       	sub	r26, r24
    4166:	b0 e0       	ldi	r27, 0x00	; 0
    4168:	a4 57       	subi	r26, 0x74	; 116
    416a:	bf 4b       	sbci	r27, 0xBF	; 191
    416c:	8c 91       	ld	r24, X
    416e:	84 83       	std	Z+4, r24	; 0x04

		DIGIT[2][0] = FND_OFF;						// ΈκεΈΥεΉΖΑ RO, ΉηΖΆ╡υΉ▓┤ΉνΣ 1Ήζα ΉηΡΈου ΉπΑΉγ░Ά╕░
    4170:	10 86       	std	Z+8, r1	; 0x08

		if(KEY.Buff)							// Key ΉηΖΈιξΉζ┤ ΉηΙΉε╝Έσ┤
    4172:	80 91 d6 4a 	lds	r24, 0x4AD6	; 0x804ad6 <KEY+0x1>
    4176:	88 23       	and	r24, r24
    4178:	b9 f0       	breq	.+46     	; 0x41a8 <ID_Set+0x8e>
		{
			if     (KEY.Key == 1 && Cell_ID < 60) {Cell_ID++; KEY.Key = 0;}	// ΉΩΖ  Έ▓ΕΊΛ╝ Ήζ┤Έσ┤ IDΆ░Τ ΉοζΆ░Α
    417a:	80 91 d7 4a 	lds	r24, 0x4AD7	; 0x804ad7 <KEY+0x2>
    417e:	81 30       	cpi	r24, 0x01	; 1
    4180:	41 f4       	brne	.+16     	; 0x4192 <ID_Set+0x78>
    4182:	2c 33       	cpi	r18, 0x3C	; 60
    4184:	30 f4       	brcc	.+12     	; 0x4192 <ID_Set+0x78>
    4186:	2f 5f       	subi	r18, 0xFF	; 255
    4188:	20 93 60 4a 	sts	0x4A60, r18	; 0x804a60 <Cell_ID>
    418c:	10 92 d7 4a 	sts	0x4AD7, r1	; 0x804ad7 <KEY+0x2>
    4190:	0b c0       	rjmp	.+22     	; 0x41a8 <ID_Set+0x8e>
			else if(KEY.Key == 3 && Cell_ID > 0)  {Cell_ID--; KEY.Key = 0;}	// ΈΜνΉγ┤Έ▓ΕΊΛ╝ Ήζ┤Έσ┤ IDΆ░Τ Ά░ΡΉΗΝ
    4192:	80 91 d7 4a 	lds	r24, 0x4AD7	; 0x804ad7 <KEY+0x2>
    4196:	83 30       	cpi	r24, 0x03	; 3
    4198:	39 f4       	brne	.+14     	; 0x41a8 <ID_Set+0x8e>
    419a:	22 23       	and	r18, r18
    419c:	29 f0       	breq	.+10     	; 0x41a8 <ID_Set+0x8e>
    419e:	21 50       	subi	r18, 0x01	; 1
    41a0:	20 93 60 4a 	sts	0x4A60, r18	; 0x804a60 <Cell_ID>
    41a4:	10 92 d7 4a 	sts	0x4AD7, r1	; 0x804ad7 <KEY+0x2>
		}
		wdt_reset();							// ΉδΝΉ╣αΈΠΖ ΈουΉΖΜ
    41a8:	0e 94 78 0c 	call	0x18f0	; 0x18f0 <wdt_reset>
//=================================================================================================
void ID_Set(void)								// ID ΉΕνΉιΧ
{
	FND_Value_Data(0, 2, 12);						// FND 0 ~ 2 FND_OFF

	while(SET.Menu && SET.Select)						// ΈσΦΈΚ┤ ΉβΑ ΉΕιΊΔζ Ήζ┤ ΈςρΈΣΡ 1 Ήζ┤Έσ┤ Έ░αΈ│╡
    41ac:	80 91 8f 4a 	lds	r24, 0x4A8F	; 0x804a8f <SET>
    41b0:	88 23       	and	r24, r24
    41b2:	21 f0       	breq	.+8      	; 0x41bc <ID_Set+0xa2>
    41b4:	80 91 90 4a 	lds	r24, 0x4A90	; 0x804a90 <SET+0x1>
    41b8:	81 11       	cpse	r24, r1
    41ba:	b5 cf       	rjmp	.-150    	; 0x4126 <ID_Set+0xc>
			else if(KEY.Key == 3 && Cell_ID > 0)  {Cell_ID--; KEY.Key = 0;}	// ΈΜνΉγ┤Έ▓ΕΊΛ╝ Ήζ┤Έσ┤ IDΆ░Τ Ά░ΡΉΗΝ
		}
		wdt_reset();							// ΉδΝΉ╣αΈΠΖ ΈουΉΖΜ
	}
//-------------------------------------------------------------------------------------------------
	ee_write_byte(Cell_ID_Addr, Cell_ID);					// ΈκεΈΥεΉΖΑ Ήζ┤Έσ┤ ID Έξ╝ EEPROM ΉΩΡ ΉιΑΉηξ
    41bc:	60 91 60 4a 	lds	r22, 0x4A60	; 0x804a60 <Cell_ID>
    41c0:	84 e0       	ldi	r24, 0x04	; 4
    41c2:	90 e0       	ldi	r25, 0x00	; 0
    41c4:	0e 94 5f 0f 	call	0x1ebe	; 0x1ebe <ee_write_byte>
    41c8:	08 95       	ret

000041ca <Loadcell_Set>:
}

//=================================================================================================
void Loadcell_Set(void)								// ΈκεΈΥεΉΖΑ ΉΕνΉιΧ
{
    41ca:	4f 92       	push	r4
    41cc:	5f 92       	push	r5
    41ce:	6f 92       	push	r6
    41d0:	7f 92       	push	r7
    41d2:	8f 92       	push	r8
    41d4:	9f 92       	push	r9
    41d6:	af 92       	push	r10
    41d8:	bf 92       	push	r11
    41da:	cf 92       	push	r12
    41dc:	df 92       	push	r13
    41de:	ef 92       	push	r14
    41e0:	ff 92       	push	r15
    41e2:	0f 93       	push	r16
    41e4:	1f 93       	push	r17
    41e6:	cf 93       	push	r28
    41e8:	df 93       	push	r29
	uint8_t Count = 1;							// Ή╣┤Ήγ┤ΊΛ╕ Έ│ΑΉΙα Ή┤ΙΆ╕░ΊβΦ
	uint8_t cnt = 0;							// Ή╣┤Ήγ┤ΊΛ╕ Έ│ΑΉΙα Ή┤ΙΆ╕░ΊβΦ

	SET.Select = 0;								// Select Έ▓ΕΊΛ╝ Ή┤ΙΆ╕░ΊβΦ
    41ea:	10 92 90 4a 	sts	0x4A90, r1	; 0x804a90 <SET+0x1>
	FND_Value_Data(0, 2, 12);						// FND 0 ~ 2 FND_OFF
    41ee:	4c e0       	ldi	r20, 0x0C	; 12
    41f0:	62 e0       	ldi	r22, 0x02	; 2
    41f2:	80 e0       	ldi	r24, 0x00	; 0
    41f4:	0e 94 ca 05 	call	0xb94	; 0xb94 <FND_Value_Data>
//-------------------------------------------------------------------------------------------------
	Cell_ID	  = ee_read_byte(Cell_ID_Addr);					// ΈκεΈΥεΉΖΑ ID Ά░Τ
    41f8:	84 e0       	ldi	r24, 0x04	; 4
    41fa:	90 e0       	ldi	r25, 0x00	; 0
    41fc:	0e 94 3d 0f 	call	0x1e7a	; 0x1e7a <ee_read_byte>
    4200:	80 93 60 4a 	sts	0x4A60, r24	; 0x804a60 <Cell_ID>
	Cell_CNT  = ee_read_byte(Cell_CNT_Addr);				// ΈκεΈΥεΉΖΑ Ά░ψΉΙα ΉΕνΉιΧΆ░Τ
    4204:	85 e0       	ldi	r24, 0x05	; 5
    4206:	90 e0       	ldi	r25, 0x00	; 0
    4208:	0e 94 3d 0f 	call	0x1e7a	; 0x1e7a <ee_read_byte>
    420c:	80 93 04 4b 	sts	0x4B04, r24	; 0x804b04 <Cell_CNT>
	Cell_Capa = ee_read_word(Cell_Capa_Addr);				// ΈκεΈΥεΉΖΑ CAPA Ά░Τ
    4210:	86 e0       	ldi	r24, 0x06	; 6
    4212:	90 e0       	ldi	r25, 0x00	; 0
    4214:	0e 94 47 0f 	call	0x1e8e	; 0x1e8e <ee_read_word>
    4218:	a0 e0       	ldi	r26, 0x00	; 0
    421a:	b0 e0       	ldi	r27, 0x00	; 0
    421c:	80 93 f3 4a 	sts	0x4AF3, r24	; 0x804af3 <Cell_Capa>
    4220:	90 93 f4 4a 	sts	0x4AF4, r25	; 0x804af4 <Cell_Capa+0x1>
    4224:	a0 93 f5 4a 	sts	0x4AF5, r26	; 0x804af5 <Cell_Capa+0x2>
    4228:	b0 93 f6 4a 	sts	0x4AF6, r27	; 0x804af6 <Cell_Capa+0x3>
	RO	  = ee_read_dword(Cell_RO_Addr);				// ΈκεΈΥεΉΖΑ RO Ά░Τ
    422c:	8c e0       	ldi	r24, 0x0C	; 12
    422e:	90 e0       	ldi	r25, 0x00	; 0
    4230:	0e 94 52 0f 	call	0x1ea4	; 0x1ea4 <ee_read_dword>
    4234:	dc 01       	movw	r26, r24
    4236:	cb 01       	movw	r24, r22
    4238:	80 93 93 4a 	sts	0x4A93, r24	; 0x804a93 <RO>
    423c:	90 93 94 4a 	sts	0x4A94, r25	; 0x804a94 <RO+0x1>
    4240:	a0 93 95 4a 	sts	0x4A95, r26	; 0x804a95 <RO+0x2>
    4244:	b0 93 96 4a 	sts	0x4A96, r27	; 0x804a96 <RO+0x3>
    4248:	10 92 97 4a 	sts	0x4A97, r1	; 0x804a97 <RO+0x4>
    424c:	10 92 98 4a 	sts	0x4A98, r1	; 0x804a98 <RO+0x5>
    4250:	10 92 99 4a 	sts	0x4A99, r1	; 0x804a99 <RO+0x6>
    4254:	10 92 9a 4a 	sts	0x4A9A, r1	; 0x804a9a <RO+0x7>
	IN_Scales = ee_read_word(Cell_IN_S_Addr);				// ΈκεΈΥεΉΖΑ ΉηΖΆ╡υΉ▓┤ΉνΣ Ά░Τ
    4258:	88 e0       	ldi	r24, 0x08	; 8
    425a:	90 e0       	ldi	r25, 0x00	; 0
    425c:	0e 94 47 0f 	call	0x1e8e	; 0x1e8e <ee_read_word>
    4260:	80 93 88 4a 	sts	0x4A88, r24	; 0x804a88 <IN_Scales>
    4264:	90 93 89 4a 	sts	0x4A89, r25	; 0x804a89 <IN_Scales+0x1>
	INT	  = ee_read_word(Cell_Interval_Addr);				// ΈκεΈΥεΉΖΑ Έ│┤ΉιΧ Ά░Τ
    4268:	8a e0       	ldi	r24, 0x0A	; 10
    426a:	90 e0       	ldi	r25, 0x00	; 0
    426c:	0e 94 47 0f 	call	0x1e8e	; 0x1e8e <ee_read_word>
    4270:	80 93 ef 4a 	sts	0x4AEF, r24	; 0x804aef <INT>
    4274:	90 93 f0 4a 	sts	0x4AF0, r25	; 0x804af0 <INT+0x1>
//-------------------------------------------------------------------------------------------------
	CAPA_1000 = Cell_Capa / 1000;						// ΈκεΈΥεΉΖΑ CAPA 1000Ήζα ΉηΡΈου
    4278:	40 90 f3 4a 	lds	r4, 0x4AF3	; 0x804af3 <Cell_Capa>
    427c:	50 90 f4 4a 	lds	r5, 0x4AF4	; 0x804af4 <Cell_Capa+0x1>
    4280:	60 90 f5 4a 	lds	r6, 0x4AF5	; 0x804af5 <Cell_Capa+0x2>
    4284:	70 90 f6 4a 	lds	r7, 0x4AF6	; 0x804af6 <Cell_Capa+0x3>
    4288:	c3 01       	movw	r24, r6
    428a:	b2 01       	movw	r22, r4
    428c:	28 ee       	ldi	r18, 0xE8	; 232
    428e:	33 e0       	ldi	r19, 0x03	; 3
    4290:	40 e0       	ldi	r20, 0x00	; 0
    4292:	50 e0       	ldi	r21, 0x00	; 0
    4294:	0e 94 d4 35 	call	0x6ba8	; 0x6ba8 <__udivmodsi4>
    4298:	20 93 f3 40 	sts	0x40F3, r18	; 0x8040f3 <CAPA_1000>
	CAPA_100  = Cell_Capa % 1000 / 100;					// ΈκεΈΥεΉΖΑ CAPA  100Ήζα ΉηΡΈου
    429c:	0f 2e       	mov	r0, r31
    429e:	f4 e6       	ldi	r31, 0x64	; 100
    42a0:	8f 2e       	mov	r8, r31
    42a2:	91 2c       	mov	r9, r1
    42a4:	a1 2c       	mov	r10, r1
    42a6:	b1 2c       	mov	r11, r1
    42a8:	f0 2d       	mov	r31, r0
    42aa:	a5 01       	movw	r20, r10
    42ac:	94 01       	movw	r18, r8
    42ae:	0e 94 d4 35 	call	0x6ba8	; 0x6ba8 <__udivmodsi4>
    42b2:	20 93 e8 4a 	sts	0x4AE8, r18	; 0x804ae8 <CAPA_100>
	CAPA_10   = Cell_Capa % 100 / 10;					// ΈκεΈΥεΉΖΑ CAPA   10Ήζα ΉηΡΈου
    42b6:	c3 01       	movw	r24, r6
    42b8:	b2 01       	movw	r22, r4
    42ba:	a5 01       	movw	r20, r10
    42bc:	94 01       	movw	r18, r8
    42be:	0e 94 d4 35 	call	0x6ba8	; 0x6ba8 <__udivmodsi4>
    42c2:	0f 2e       	mov	r0, r31
    42c4:	fa e0       	ldi	r31, 0x0A	; 10
    42c6:	8f 2e       	mov	r8, r31
    42c8:	91 2c       	mov	r9, r1
    42ca:	a1 2c       	mov	r10, r1
    42cc:	b1 2c       	mov	r11, r1
    42ce:	f0 2d       	mov	r31, r0
    42d0:	a5 01       	movw	r20, r10
    42d2:	94 01       	movw	r18, r8
    42d4:	0e 94 d4 35 	call	0x6ba8	; 0x6ba8 <__udivmodsi4>
    42d8:	20 93 f2 4a 	sts	0x4AF2, r18	; 0x804af2 <CAPA_10>
	CAPA_1    = Cell_Capa % 10;						// ΈκεΈΥεΉΖΑ CAPA    1Ήζα ΉηΡΈου
    42dc:	c3 01       	movw	r24, r6
    42de:	b2 01       	movw	r22, r4
    42e0:	a5 01       	movw	r20, r10
    42e2:	94 01       	movw	r18, r8
    42e4:	0e 94 d4 35 	call	0x6ba8	; 0x6ba8 <__udivmodsi4>
    42e8:	60 93 b5 4a 	sts	0x4AB5, r22	; 0x804ab5 <CAPA_1>
//-------------------------------------------------------------------------------------------------
	RO_10000 = RO / 10000;							// ΈκεΈΥεΉΖΑ RO 10000Ήζα ΉηΡΈου
    42ec:	40 90 93 4a 	lds	r4, 0x4A93	; 0x804a93 <RO>
    42f0:	50 90 94 4a 	lds	r5, 0x4A94	; 0x804a94 <RO+0x1>
    42f4:	60 90 95 4a 	lds	r6, 0x4A95	; 0x804a95 <RO+0x2>
    42f8:	70 90 96 4a 	lds	r7, 0x4A96	; 0x804a96 <RO+0x3>
    42fc:	80 90 97 4a 	lds	r8, 0x4A97	; 0x804a97 <RO+0x4>
    4300:	90 90 98 4a 	lds	r9, 0x4A98	; 0x804a98 <RO+0x5>
    4304:	d0 91 99 4a 	lds	r29, 0x4A99	; 0x804a99 <RO+0x6>
    4308:	c0 91 9a 4a 	lds	r28, 0x4A9A	; 0x804a9a <RO+0x7>
    430c:	68 94       	set
    430e:	aa 24       	eor	r10, r10
    4310:	a4 f8       	bld	r10, 4
    4312:	0f 2e       	mov	r0, r31
    4314:	f7 e2       	ldi	r31, 0x27	; 39
    4316:	bf 2e       	mov	r11, r31
    4318:	f0 2d       	mov	r31, r0
    431a:	c1 2c       	mov	r12, r1
    431c:	d1 2c       	mov	r13, r1
    431e:	e1 2c       	mov	r14, r1
    4320:	f1 2c       	mov	r15, r1
    4322:	00 e0       	ldi	r16, 0x00	; 0
    4324:	10 e0       	ldi	r17, 0x00	; 0
    4326:	24 2d       	mov	r18, r4
    4328:	35 2d       	mov	r19, r5
    432a:	46 2d       	mov	r20, r6
    432c:	57 2d       	mov	r21, r7
    432e:	68 2d       	mov	r22, r8
    4330:	79 2d       	mov	r23, r9
    4332:	8d 2f       	mov	r24, r29
    4334:	9c 2f       	mov	r25, r28
    4336:	0e 94 93 36 	call	0x6d26	; 0x6d26 <__udivdi3>
    433a:	20 93 e0 4a 	sts	0x4AE0, r18	; 0x804ae0 <RO_10000>
    433e:	30 93 e1 4a 	sts	0x4AE1, r19	; 0x804ae1 <RO_10000+0x1>
    4342:	40 93 e2 4a 	sts	0x4AE2, r20	; 0x804ae2 <RO_10000+0x2>
    4346:	50 93 e3 4a 	sts	0x4AE3, r21	; 0x804ae3 <RO_10000+0x3>
    434a:	60 93 e4 4a 	sts	0x4AE4, r22	; 0x804ae4 <RO_10000+0x4>
    434e:	70 93 e5 4a 	sts	0x4AE5, r23	; 0x804ae5 <RO_10000+0x5>
    4352:	80 93 e6 4a 	sts	0x4AE6, r24	; 0x804ae6 <RO_10000+0x6>
    4356:	90 93 e7 4a 	sts	0x4AE7, r25	; 0x804ae7 <RO_10000+0x7>
	RO_1000  = RO % 10000 / 1000;						// ΈκεΈΥεΉΖΑ RO  1000Ήζα ΉηΡΈου
    435a:	24 2d       	mov	r18, r4
    435c:	35 2d       	mov	r19, r5
    435e:	46 2d       	mov	r20, r6
    4360:	57 2d       	mov	r21, r7
    4362:	68 2d       	mov	r22, r8
    4364:	79 2d       	mov	r23, r9
    4366:	8d 2f       	mov	r24, r29
    4368:	9c 2f       	mov	r25, r28
    436a:	0e 94 91 36 	call	0x6d22	; 0x6d22 <__umoddi3>
    436e:	0f 2e       	mov	r0, r31
    4370:	f8 ee       	ldi	r31, 0xE8	; 232
    4372:	af 2e       	mov	r10, r31
    4374:	f0 2d       	mov	r31, r0
    4376:	0f 2e       	mov	r0, r31
    4378:	f3 e0       	ldi	r31, 0x03	; 3
    437a:	bf 2e       	mov	r11, r31
    437c:	f0 2d       	mov	r31, r0
    437e:	0e 94 93 36 	call	0x6d26	; 0x6d26 <__udivdi3>
    4382:	20 93 0c 4c 	sts	0x4C0C, r18	; 0x804c0c <RO_1000>
    4386:	30 93 0d 4c 	sts	0x4C0D, r19	; 0x804c0d <RO_1000+0x1>
    438a:	40 93 0e 4c 	sts	0x4C0E, r20	; 0x804c0e <RO_1000+0x2>
    438e:	50 93 0f 4c 	sts	0x4C0F, r21	; 0x804c0f <RO_1000+0x3>
    4392:	60 93 10 4c 	sts	0x4C10, r22	; 0x804c10 <RO_1000+0x4>
    4396:	70 93 11 4c 	sts	0x4C11, r23	; 0x804c11 <RO_1000+0x5>
    439a:	80 93 12 4c 	sts	0x4C12, r24	; 0x804c12 <RO_1000+0x6>
    439e:	90 93 13 4c 	sts	0x4C13, r25	; 0x804c13 <RO_1000+0x7>
	RO_100   = RO % 1000 / 100;						// ΈκεΈΥεΉΖΑ RO   100Ήζα ΉηΡΈου
    43a2:	24 2d       	mov	r18, r4
    43a4:	35 2d       	mov	r19, r5
    43a6:	46 2d       	mov	r20, r6
    43a8:	57 2d       	mov	r21, r7
    43aa:	68 2d       	mov	r22, r8
    43ac:	79 2d       	mov	r23, r9
    43ae:	8d 2f       	mov	r24, r29
    43b0:	9c 2f       	mov	r25, r28
    43b2:	0e 94 91 36 	call	0x6d22	; 0x6d22 <__umoddi3>
    43b6:	0f 2e       	mov	r0, r31
    43b8:	f4 e6       	ldi	r31, 0x64	; 100
    43ba:	af 2e       	mov	r10, r31
    43bc:	f0 2d       	mov	r31, r0
    43be:	b1 2c       	mov	r11, r1
    43c0:	0e 94 93 36 	call	0x6d26	; 0x6d26 <__udivdi3>
    43c4:	20 93 fa 4a 	sts	0x4AFA, r18	; 0x804afa <RO_100>
    43c8:	30 93 fb 4a 	sts	0x4AFB, r19	; 0x804afb <RO_100+0x1>
    43cc:	40 93 fc 4a 	sts	0x4AFC, r20	; 0x804afc <RO_100+0x2>
    43d0:	50 93 fd 4a 	sts	0x4AFD, r21	; 0x804afd <RO_100+0x3>
    43d4:	60 93 fe 4a 	sts	0x4AFE, r22	; 0x804afe <RO_100+0x4>
    43d8:	70 93 ff 4a 	sts	0x4AFF, r23	; 0x804aff <RO_100+0x5>
    43dc:	80 93 00 4b 	sts	0x4B00, r24	; 0x804b00 <RO_100+0x6>
    43e0:	90 93 01 4b 	sts	0x4B01, r25	; 0x804b01 <RO_100+0x7>
	RO_10    = RO % 100 / 10;						// ΈκεΈΥεΉΖΑ RO    10Ήζα ΉηΡΈου
    43e4:	24 2d       	mov	r18, r4
    43e6:	35 2d       	mov	r19, r5
    43e8:	46 2d       	mov	r20, r6
    43ea:	57 2d       	mov	r21, r7
    43ec:	68 2d       	mov	r22, r8
    43ee:	79 2d       	mov	r23, r9
    43f0:	8d 2f       	mov	r24, r29
    43f2:	9c 2f       	mov	r25, r28
    43f4:	0e 94 91 36 	call	0x6d22	; 0x6d22 <__umoddi3>
    43f8:	0f 2e       	mov	r0, r31
    43fa:	fa e0       	ldi	r31, 0x0A	; 10
    43fc:	af 2e       	mov	r10, r31
    43fe:	f0 2d       	mov	r31, r0
    4400:	0e 94 93 36 	call	0x6d26	; 0x6d26 <__udivdi3>
    4404:	20 93 c8 4a 	sts	0x4AC8, r18	; 0x804ac8 <RO_10>
    4408:	30 93 c9 4a 	sts	0x4AC9, r19	; 0x804ac9 <RO_10+0x1>
    440c:	40 93 ca 4a 	sts	0x4ACA, r20	; 0x804aca <RO_10+0x2>
    4410:	50 93 cb 4a 	sts	0x4ACB, r21	; 0x804acb <RO_10+0x3>
    4414:	60 93 cc 4a 	sts	0x4ACC, r22	; 0x804acc <RO_10+0x4>
    4418:	70 93 cd 4a 	sts	0x4ACD, r23	; 0x804acd <RO_10+0x5>
    441c:	80 93 ce 4a 	sts	0x4ACE, r24	; 0x804ace <RO_10+0x6>
    4420:	90 93 cf 4a 	sts	0x4ACF, r25	; 0x804acf <RO_10+0x7>
	RO_1     = RO % 10;							// ΈκεΈΥεΉΖΑ RO     1Ήζα ΉηΡΈου
    4424:	24 2d       	mov	r18, r4
    4426:	35 2d       	mov	r19, r5
    4428:	46 2d       	mov	r20, r6
    442a:	57 2d       	mov	r21, r7
    442c:	68 2d       	mov	r22, r8
    442e:	79 2d       	mov	r23, r9
    4430:	8d 2f       	mov	r24, r29
    4432:	9c 2f       	mov	r25, r28
    4434:	0e 94 91 36 	call	0x6d22	; 0x6d22 <__umoddi3>
    4438:	20 93 07 4b 	sts	0x4B07, r18	; 0x804b07 <RO_1>
    443c:	30 93 08 4b 	sts	0x4B08, r19	; 0x804b08 <RO_1+0x1>
    4440:	40 93 09 4b 	sts	0x4B09, r20	; 0x804b09 <RO_1+0x2>
    4444:	50 93 0a 4b 	sts	0x4B0A, r21	; 0x804b0a <RO_1+0x3>
    4448:	60 93 0b 4b 	sts	0x4B0B, r22	; 0x804b0b <RO_1+0x4>
    444c:	70 93 0c 4b 	sts	0x4B0C, r23	; 0x804b0c <RO_1+0x5>
    4450:	80 93 0d 4b 	sts	0x4B0D, r24	; 0x804b0d <RO_1+0x6>
    4454:	90 93 0e 4b 	sts	0x4B0E, r25	; 0x804b0e <RO_1+0x7>
//-------------------------------------------------------------------------------------------------
	IN_S_10000 = IN_Scales / 10000;						// ΉηΖΆ╡υ Ή▓┤ΉνΣ 10.000kgΉζα ΉηΡΈου
    4458:	20 91 88 4a 	lds	r18, 0x4A88	; 0x804a88 <IN_Scales>
    445c:	30 91 89 4a 	lds	r19, 0x4A89	; 0x804a89 <IN_Scales+0x1>
    4460:	c9 01       	movw	r24, r18
    4462:	60 e1       	ldi	r22, 0x10	; 16
    4464:	77 e2       	ldi	r23, 0x27	; 39
    4466:	0e 94 c0 35 	call	0x6b80	; 0x6b80 <__divmodhi4>
    446a:	60 93 8a 4a 	sts	0x4A8A, r22	; 0x804a8a <IN_S_10000>
	IN_S_1000  = IN_Scales % 10000/ 1000;					// ΉηΖΆ╡υ Ή▓┤ΉνΣ  1.000kgΉζα ΉηΡΈου
    446e:	e8 ee       	ldi	r30, 0xE8	; 232
    4470:	f3 e0       	ldi	r31, 0x03	; 3
    4472:	bf 01       	movw	r22, r30
    4474:	0e 94 c0 35 	call	0x6b80	; 0x6b80 <__divmodhi4>
    4478:	60 93 03 4b 	sts	0x4B03, r22	; 0x804b03 <IN_S_1000>
	IN_S_100   = IN_Scales % 1000 / 100;					// ΉηΖΆ╡υ Ή▓┤ΉνΣ  0.100kgΉζα ΉηΡΈου
    447c:	c9 01       	movw	r24, r18
    447e:	bf 01       	movw	r22, r30
    4480:	0e 94 c0 35 	call	0x6b80	; 0x6b80 <__divmodhi4>
    4484:	e4 e6       	ldi	r30, 0x64	; 100
    4486:	f0 e0       	ldi	r31, 0x00	; 0
    4488:	bf 01       	movw	r22, r30
    448a:	0e 94 c0 35 	call	0x6b80	; 0x6b80 <__divmodhi4>
    448e:	60 93 8b 4a 	sts	0x4A8B, r22	; 0x804a8b <IN_S_100>
	IN_S_10    = IN_Scales % 100 / 10;					// ΉηΖΆ╡υ Ή▓┤ΉνΣ  0.010kgΉζα ΉηΡΈου
    4492:	c9 01       	movw	r24, r18
    4494:	bf 01       	movw	r22, r30
    4496:	0e 94 c0 35 	call	0x6b80	; 0x6b80 <__divmodhi4>
    449a:	ea e0       	ldi	r30, 0x0A	; 10
    449c:	f0 e0       	ldi	r31, 0x00	; 0
    449e:	bf 01       	movw	r22, r30
    44a0:	0e 94 c0 35 	call	0x6b80	; 0x6b80 <__divmodhi4>
    44a4:	60 93 6a 4a 	sts	0x4A6A, r22	; 0x804a6a <IN_S_10>
	IN_S_1     = IN_Scales % 10;						// ΉηΖΆ╡υ Ή▓┤ΉνΣ  0.001kgΉζα ΉηΡΈου
    44a8:	c9 01       	movw	r24, r18
    44aa:	bf 01       	movw	r22, r30
    44ac:	0e 94 c0 35 	call	0x6b80	; 0x6b80 <__divmodhi4>
    44b0:	80 93 ee 4a 	sts	0x4AEE, r24	; 0x804aee <IN_S_1>
}

//=================================================================================================
void Loadcell_Set(void)								// ΈκεΈΥεΉΖΑ ΉΕνΉιΧ
{
	uint8_t Count = 1;							// Ή╣┤Ήγ┤ΊΛ╕ Έ│ΑΉΙα Ή┤ΙΆ╕░ΊβΦ
    44b4:	c1 e0       	ldi	r28, 0x01	; 1
	IN_S_1000  = IN_Scales % 10000/ 1000;					// ΉηΖΆ╡υ Ή▓┤ΉνΣ  1.000kgΉζα ΉηΡΈου
	IN_S_100   = IN_Scales % 1000 / 100;					// ΉηΖΆ╡υ Ή▓┤ΉνΣ  0.100kgΉζα ΉηΡΈου
	IN_S_10    = IN_Scales % 100 / 10;					// ΉηΖΆ╡υ Ή▓┤ΉνΣ  0.010kgΉζα ΉηΡΈου
	IN_S_1     = IN_Scales % 10;						// ΉηΖΆ╡υ Ή▓┤ΉνΣ  0.001kgΉζα ΉηΡΈου
//-------------------------------------------------------------------------------------------------
	while(SET.Menu)								// ΈσΦΈΚ┤Ά░Α 1 Ήζ┤Έσ┤ Έ░αΈ│╡
    44b6:	9d c1       	rjmp	.+826    	; 0x47f2 <Loadcell_Set+0x628>
	{
		if(KEY.Buff)							// Key ΉηΖΈιξΉζ┤ ΉηΙΉε╝Έσ┤
    44b8:	80 91 d6 4a 	lds	r24, 0x4AD6	; 0x804ad6 <KEY+0x1>
    44bc:	88 23       	and	r24, r24
    44be:	99 f0       	breq	.+38     	; 0x44e6 <Loadcell_Set+0x31c>
		{
			if     (KEY.Key == 1 && Count < 7) {Count++; KEY.Key = 0;}	// ΉΩΖ  Έ▓ΕΊΛ╝ Ήζ┤Έσ┤ Count ΉοζΆ░Α
    44c0:	80 91 d7 4a 	lds	r24, 0x4AD7	; 0x804ad7 <KEY+0x2>
    44c4:	81 30       	cpi	r24, 0x01	; 1
    44c6:	31 f4       	brne	.+12     	; 0x44d4 <Loadcell_Set+0x30a>
    44c8:	c7 30       	cpi	r28, 0x07	; 7
    44ca:	20 f4       	brcc	.+8      	; 0x44d4 <Loadcell_Set+0x30a>
    44cc:	cf 5f       	subi	r28, 0xFF	; 255
    44ce:	10 92 d7 4a 	sts	0x4AD7, r1	; 0x804ad7 <KEY+0x2>
    44d2:	09 c0       	rjmp	.+18     	; 0x44e6 <Loadcell_Set+0x31c>
			else if(KEY.Key == 3 && Count > 0) {Count--; KEY.Key = 0;}	// ΈΜνΉγ┤Έ▓ΕΊΛ╝ Ήζ┤Έσ┤ Count Ά░ΡΉΗΝ
    44d4:	80 91 d7 4a 	lds	r24, 0x4AD7	; 0x804ad7 <KEY+0x2>
    44d8:	83 30       	cpi	r24, 0x03	; 3
    44da:	29 f4       	brne	.+10     	; 0x44e6 <Loadcell_Set+0x31c>
    44dc:	cc 23       	and	r28, r28
    44de:	19 f0       	breq	.+6      	; 0x44e6 <Loadcell_Set+0x31c>
    44e0:	c1 50       	subi	r28, 0x01	; 1
    44e2:	10 92 d7 4a 	sts	0x4AD7, r1	; 0x804ad7 <KEY+0x2>
		}
		DIGIT[2][0] = fnd_tbl[Count];					// FND 2.0 ΉΩΡ Count ΊΣεΉΜε
    44e6:	ec 2f       	mov	r30, r28
    44e8:	f0 e0       	ldi	r31, 0x00	; 0
    44ea:	e4 57       	subi	r30, 0x74	; 116
    44ec:	ff 4b       	sbci	r31, 0xBF	; 191
    44ee:	80 81       	ld	r24, Z
    44f0:	80 93 cb 40 	sts	0x40CB, r24	; 0x8040cb <DIGIT+0x8>

		switch(Count)							// Count
    44f4:	8c 2f       	mov	r24, r28
    44f6:	90 e0       	ldi	r25, 0x00	; 0
    44f8:	88 30       	cpi	r24, 0x08	; 8
    44fa:	91 05       	cpc	r25, r1
    44fc:	08 f0       	brcs	.+2      	; 0x4500 <Loadcell_Set+0x336>
    44fe:	77 c1       	rjmp	.+750    	; 0x47ee <Loadcell_Set+0x624>
    4500:	fc 01       	movw	r30, r24
    4502:	e0 58       	subi	r30, 0x80	; 128
    4504:	fc 4f       	sbci	r31, 0xFC	; 252
    4506:	0c 94 15 36 	jmp	0x6c2a	; 0x6c2a <__tablejump2__>
			case 0:							// Count = 0 Ήζ┤Έσ┤
				Count = 6;					// Έ░αΈ│╡ΉζΕ ΉεΕΊΧ┤ CountΈξ╝ Ή╡εΆ│ιΈκε ΉοζΆ░Α ΉΜεΊΓ┤
			break;

			case 1:							// Count = 1 Ήζ┤Έσ┤
				DIGIT[0][3] = FND_OFF;				// FND 0 ΉΩΡ id ΊΣεΉΜε
    450a:	e3 ec       	ldi	r30, 0xC3	; 195
    450c:	f0 e4       	ldi	r31, 0x40	; 64
    450e:	13 82       	std	Z+3, r1	; 0x03
				DIGIT[0][2] = FND_OFF;
    4510:	12 82       	std	Z+2, r1	; 0x02
				DIGIT[0][1] = FND_I;
    4512:	80 e6       	ldi	r24, 0x60	; 96
    4514:	81 83       	std	Z+1, r24	; 0x01
				DIGIT[0][0] = FND_d;
    4516:	8a e7       	ldi	r24, 0x7A	; 122
    4518:	80 83       	st	Z, r24

				DIGIT[1][3] = FND_OFF;				
    451a:	17 82       	std	Z+7, r1	; 0x07
				DIGIT[1][2] = FND_OFF;
    451c:	16 82       	std	Z+6, r1	; 0x06
				DIGIT[1][1] = fnd_tbl[Cell_ID / 10];		// FND 1 ΉΩΡ Cell_ID Ά░Τ ΊΣεΉΜε
    451e:	40 91 60 4a 	lds	r20, 0x4A60	; 0x804a60 <Cell_ID>
    4522:	8d ec       	ldi	r24, 0xCD	; 205
    4524:	48 9f       	mul	r20, r24
    4526:	81 2d       	mov	r24, r1
    4528:	11 24       	eor	r1, r1
    452a:	86 95       	lsr	r24
    452c:	86 95       	lsr	r24
    452e:	86 95       	lsr	r24
    4530:	28 2f       	mov	r18, r24
    4532:	30 e0       	ldi	r19, 0x00	; 0
    4534:	24 57       	subi	r18, 0x74	; 116
    4536:	3f 4b       	sbci	r19, 0xBF	; 191
    4538:	d9 01       	movw	r26, r18
    453a:	9c 91       	ld	r25, X
    453c:	95 83       	std	Z+5, r25	; 0x05
				DIGIT[1][0] = fnd_tbl[Cell_ID % 10];
    453e:	88 0f       	add	r24, r24
    4540:	98 2f       	mov	r25, r24
    4542:	99 0f       	add	r25, r25
    4544:	99 0f       	add	r25, r25
    4546:	89 0f       	add	r24, r25
    4548:	a4 2f       	mov	r26, r20
    454a:	a8 1b       	sub	r26, r24
    454c:	b0 e0       	ldi	r27, 0x00	; 0
    454e:	a4 57       	subi	r26, 0x74	; 116
    4550:	bf 4b       	sbci	r27, 0xBF	; 191
    4552:	8c 91       	ld	r24, X
    4554:	84 83       	std	Z+4, r24	; 0x04

				DIGIT[2][3] = FND_OFF;				// ΈκεΈΥεΉΖΑ RO, ΉηΖΆ╡υΉ▓┤ΉνΣ 1Ήζα ΉηΡΈου ΉπΑΉγ░Ά╕░
    4556:	13 86       	std	Z+11, r1	; 0x0b

				if(SET.Select) {ID_Set();}			// Cell ID ΉΕνΉιΧ
    4558:	80 91 90 4a 	lds	r24, 0x4A90	; 0x804a90 <SET+0x1>
    455c:	88 23       	and	r24, r24
    455e:	09 f4       	brne	.+2      	; 0x4562 <Loadcell_Set+0x398>
    4560:	46 c1       	rjmp	.+652    	; 0x47ee <Loadcell_Set+0x624>
    4562:	0e 94 8d 20 	call	0x411a	; 0x411a <ID_Set>
    4566:	43 c1       	rjmp	.+646    	; 0x47ee <Loadcell_Set+0x624>
			break;

			case 2:							// Count = 2 Ήζ┤Έσ┤
				DIGIT[0][3] = FND_OFF;				// FND 0 ΉΩΡ cnt ΊΣεΉΜε
    4568:	e3 ec       	ldi	r30, 0xC3	; 195
    456a:	f0 e4       	ldi	r31, 0x40	; 64
    456c:	13 82       	std	Z+3, r1	; 0x03
				DIGIT[0][2] = FND_c;
    456e:	8a e1       	ldi	r24, 0x1A	; 26
    4570:	82 83       	std	Z+2, r24	; 0x02
				DIGIT[0][1] = FND_n;
    4572:	8a e2       	ldi	r24, 0x2A	; 42
    4574:	81 83       	std	Z+1, r24	; 0x01
				DIGIT[0][0] = FND_t;
    4576:	8e e1       	ldi	r24, 0x1E	; 30
    4578:	80 83       	st	Z, r24

				DIGIT[1][3] = FND_OFF;
    457a:	17 82       	std	Z+7, r1	; 0x07
				DIGIT[1][2] = FND_OFF;
    457c:	16 82       	std	Z+6, r1	; 0x06
				DIGIT[1][1] = fnd_tbl[Cell_CNT / 10];		// FND 1 ΉΩΡ Ά░ψΉΙα ΉΕνΉιΧΆ░Τ ΊΣεΉΜε
    457e:	40 91 04 4b 	lds	r20, 0x4B04	; 0x804b04 <Cell_CNT>
    4582:	8d ec       	ldi	r24, 0xCD	; 205
    4584:	48 9f       	mul	r20, r24
    4586:	81 2d       	mov	r24, r1
    4588:	11 24       	eor	r1, r1
    458a:	86 95       	lsr	r24
    458c:	86 95       	lsr	r24
    458e:	86 95       	lsr	r24
    4590:	28 2f       	mov	r18, r24
    4592:	30 e0       	ldi	r19, 0x00	; 0
    4594:	24 57       	subi	r18, 0x74	; 116
    4596:	3f 4b       	sbci	r19, 0xBF	; 191
    4598:	d9 01       	movw	r26, r18
    459a:	9c 91       	ld	r25, X
    459c:	95 83       	std	Z+5, r25	; 0x05
				DIGIT[1][0] = fnd_tbl[Cell_CNT % 10];
    459e:	88 0f       	add	r24, r24
    45a0:	98 2f       	mov	r25, r24
    45a2:	99 0f       	add	r25, r25
    45a4:	99 0f       	add	r25, r25
    45a6:	89 0f       	add	r24, r25
    45a8:	a4 2f       	mov	r26, r20
    45aa:	a8 1b       	sub	r26, r24
    45ac:	b0 e0       	ldi	r27, 0x00	; 0
    45ae:	a4 57       	subi	r26, 0x74	; 116
    45b0:	bf 4b       	sbci	r27, 0xBF	; 191
    45b2:	8c 91       	ld	r24, X
    45b4:	84 83       	std	Z+4, r24	; 0x04

				DIGIT[2][3] = FND_OFF;				// ΈκεΈΥεΉΖΑ RO, ΉηΖΆ╡υΉ▓┤ΉνΣ 1Ήζα ΉηΡΈου ΉπΑΉγ░Ά╕░
    45b6:	13 86       	std	Z+11, r1	; 0x0b

				if(SET.Select) {CNT_Set();}			// Cell Ά░ψΉΙα ΉΕνΉιΧ
    45b8:	80 91 90 4a 	lds	r24, 0x4A90	; 0x804a90 <SET+0x1>
    45bc:	88 23       	and	r24, r24
    45be:	09 f4       	brne	.+2      	; 0x45c2 <Loadcell_Set+0x3f8>
    45c0:	16 c1       	rjmp	.+556    	; 0x47ee <Loadcell_Set+0x624>
    45c2:	0e 94 35 20 	call	0x406a	; 0x406a <CNT_Set>
    45c6:	13 c1       	rjmp	.+550    	; 0x47ee <Loadcell_Set+0x624>
			break;

			case 3:							// Count = 3 Ήζ┤Έσ┤
				DIGIT[0][3] = FND_C;				// FND 0 ΉΩΡ Capa ΊΣεΉΜε
    45c8:	e3 ec       	ldi	r30, 0xC3	; 195
    45ca:	f0 e4       	ldi	r31, 0x40	; 64
    45cc:	8c e9       	ldi	r24, 0x9C	; 156
    45ce:	83 83       	std	Z+3, r24	; 0x03
				DIGIT[0][2] = FND_a;
    45d0:	8a ef       	ldi	r24, 0xFA	; 250
    45d2:	82 83       	std	Z+2, r24	; 0x02
				DIGIT[0][1] = FND_P;
    45d4:	9e ec       	ldi	r25, 0xCE	; 206
    45d6:	91 83       	std	Z+1, r25	; 0x01
				DIGIT[0][0] = FND_a;
    45d8:	80 83       	st	Z, r24

				DIGIT[1][3] = fnd_tbl[CAPA_1000];		// ΈκεΈΥεΉΖΑ CAPA 1000Ήζα ΉηΡΈου
    45da:	a0 91 f3 40 	lds	r26, 0x40F3	; 0x8040f3 <CAPA_1000>
    45de:	b0 e0       	ldi	r27, 0x00	; 0
    45e0:	a4 57       	subi	r26, 0x74	; 116
    45e2:	bf 4b       	sbci	r27, 0xBF	; 191
    45e4:	8c 91       	ld	r24, X
    45e6:	87 83       	std	Z+7, r24	; 0x07
				DIGIT[1][2] = fnd_tbl[CAPA_100 ];		// ΈκεΈΥεΉΖΑ CAPA  100Ήζα ΉηΡΈου
    45e8:	a0 91 e8 4a 	lds	r26, 0x4AE8	; 0x804ae8 <CAPA_100>
    45ec:	b0 e0       	ldi	r27, 0x00	; 0
    45ee:	a4 57       	subi	r26, 0x74	; 116
    45f0:	bf 4b       	sbci	r27, 0xBF	; 191
    45f2:	8c 91       	ld	r24, X
    45f4:	86 83       	std	Z+6, r24	; 0x06
				DIGIT[1][1] = fnd_tbl[CAPA_10  ];		// ΈκεΈΥεΉΖΑ CAPA   10Ήζα ΉηΡΈου
    45f6:	a0 91 f2 4a 	lds	r26, 0x4AF2	; 0x804af2 <CAPA_10>
    45fa:	b0 e0       	ldi	r27, 0x00	; 0
    45fc:	a4 57       	subi	r26, 0x74	; 116
    45fe:	bf 4b       	sbci	r27, 0xBF	; 191
    4600:	8c 91       	ld	r24, X
    4602:	85 83       	std	Z+5, r24	; 0x05
				DIGIT[1][0] = fnd_tbl[CAPA_1   ];		// ΈκεΈΥεΉΖΑ CAPA    1Ήζα ΉηΡΈου
    4604:	a0 91 b5 4a 	lds	r26, 0x4AB5	; 0x804ab5 <CAPA_1>
    4608:	b0 e0       	ldi	r27, 0x00	; 0
    460a:	a4 57       	subi	r26, 0x74	; 116
    460c:	bf 4b       	sbci	r27, 0xBF	; 191
    460e:	8c 91       	ld	r24, X
    4610:	84 83       	std	Z+4, r24	; 0x04

				DIGIT[2][3] = FND_OFF;				// ΈκεΈΥεΉΖΑ RO, ΉηΖΆ╡υΉ▓┤ΉνΣ 1Ήζα ΉηΡΈου ΉπΑΉγ░Ά╕░
    4612:	13 86       	std	Z+11, r1	; 0x0b

				if(SET.Select) {CAPA_Set();}			// ΈκεΈΥεΉΖΑ CAPA ΉΕνΉιΧ
    4614:	80 91 90 4a 	lds	r24, 0x4A90	; 0x804a90 <SET+0x1>
    4618:	88 23       	and	r24, r24
    461a:	09 f4       	brne	.+2      	; 0x461e <Loadcell_Set+0x454>
    461c:	e8 c0       	rjmp	.+464    	; 0x47ee <Loadcell_Set+0x624>
    461e:	0e 94 90 1e 	call	0x3d20	; 0x3d20 <CAPA_Set>
    4622:	e5 c0       	rjmp	.+458    	; 0x47ee <Loadcell_Set+0x624>
			break;

			case 4:							// Count = 4 Ήζ┤Έσ┤
				DIGIT[0][3] = FND_OFF;				// FND 0 ΉΩΡ ro ΊΣεΉΜε
    4624:	e3 ec       	ldi	r30, 0xC3	; 195
    4626:	f0 e4       	ldi	r31, 0x40	; 64
    4628:	13 82       	std	Z+3, r1	; 0x03
				DIGIT[0][2] = FND_OFF;
    462a:	12 82       	std	Z+2, r1	; 0x02
				DIGIT[0][1] = FND_r;
    462c:	8a e0       	ldi	r24, 0x0A	; 10
    462e:	81 83       	std	Z+1, r24	; 0x01
				DIGIT[0][0] = FND_o;
    4630:	8a e3       	ldi	r24, 0x3A	; 58
    4632:	80 83       	st	Z, r24

				DIGIT[1][3] = fnd_tbl[RO_10000]+FND_Point;	// ΈκεΈΥεΉΖΑ RO 10000Ήζα ΉηΡΈου FND 1 ΉΩΡ RO Ά░Τ ΊΣεΉΜε
    4634:	a0 91 e0 4a 	lds	r26, 0x4AE0	; 0x804ae0 <RO_10000>
    4638:	b0 91 e1 4a 	lds	r27, 0x4AE1	; 0x804ae1 <RO_10000+0x1>
    463c:	a4 57       	subi	r26, 0x74	; 116
    463e:	bf 4b       	sbci	r27, 0xBF	; 191
    4640:	8c 91       	ld	r24, X
    4642:	8f 5f       	subi	r24, 0xFF	; 255
    4644:	87 83       	std	Z+7, r24	; 0x07
				DIGIT[1][2] = fnd_tbl[RO_1000 ];		// ΈκεΈΥεΉΖΑ RO  1000Ήζα ΉηΡΈου
    4646:	a0 91 0c 4c 	lds	r26, 0x4C0C	; 0x804c0c <RO_1000>
    464a:	b0 91 0d 4c 	lds	r27, 0x4C0D	; 0x804c0d <RO_1000+0x1>
    464e:	a4 57       	subi	r26, 0x74	; 116
    4650:	bf 4b       	sbci	r27, 0xBF	; 191
    4652:	8c 91       	ld	r24, X
    4654:	86 83       	std	Z+6, r24	; 0x06
				DIGIT[1][1] = fnd_tbl[RO_100  ];		// ΈκεΈΥεΉΖΑ RO   100Ήζα ΉηΡΈου
    4656:	a0 91 fa 4a 	lds	r26, 0x4AFA	; 0x804afa <RO_100>
    465a:	b0 91 fb 4a 	lds	r27, 0x4AFB	; 0x804afb <RO_100+0x1>
    465e:	a4 57       	subi	r26, 0x74	; 116
    4660:	bf 4b       	sbci	r27, 0xBF	; 191
    4662:	8c 91       	ld	r24, X
    4664:	85 83       	std	Z+5, r24	; 0x05
				DIGIT[1][0] = fnd_tbl[RO_10   ];		// ΈκεΈΥεΉΖΑ RO    10Ήζα ΉηΡΈου
    4666:	a0 91 c8 4a 	lds	r26, 0x4AC8	; 0x804ac8 <RO_10>
    466a:	b0 91 c9 4a 	lds	r27, 0x4AC9	; 0x804ac9 <RO_10+0x1>
    466e:	a4 57       	subi	r26, 0x74	; 116
    4670:	bf 4b       	sbci	r27, 0xBF	; 191
    4672:	8c 91       	ld	r24, X
    4674:	84 83       	std	Z+4, r24	; 0x04

				DIGIT[2][3] = fnd_tbl[RO_1    ];		// ΈκεΈΥεΉΖΑ RO     1Ήζα ΉηΡΈου FND 2 ΉΩΡ ROΆ░Τ ΊΣεΉΜε
    4676:	a0 91 07 4b 	lds	r26, 0x4B07	; 0x804b07 <RO_1>
    467a:	b0 91 08 4b 	lds	r27, 0x4B08	; 0x804b08 <RO_1+0x1>
    467e:	a4 57       	subi	r26, 0x74	; 116
    4680:	bf 4b       	sbci	r27, 0xBF	; 191
    4682:	8c 91       	ld	r24, X
    4684:	83 87       	std	Z+11, r24	; 0x0b

				if(SET.Select) {RO_Set();}			// ΈκεΈΥεΉΖΑ RO ΉΕνΉιΧ
    4686:	80 91 90 4a 	lds	r24, 0x4A90	; 0x804a90 <SET+0x1>
    468a:	88 23       	and	r24, r24
    468c:	09 f4       	brne	.+2      	; 0x4690 <Loadcell_Set+0x4c6>
    468e:	af c0       	rjmp	.+350    	; 0x47ee <Loadcell_Set+0x624>
    4690:	0e 94 74 18 	call	0x30e8	; 0x30e8 <RO_Set>
    4694:	ac c0       	rjmp	.+344    	; 0x47ee <Loadcell_Set+0x624>
			break;

			case 5:							// Count = 5 Ήζ┤Έσ┤
				DIGIT[0][3] = FND_I;				// FND 0 ΉΩΡ IN-S ΊΣεΉΜε
    4696:	e3 ec       	ldi	r30, 0xC3	; 195
    4698:	f0 e4       	ldi	r31, 0x40	; 64
    469a:	80 e6       	ldi	r24, 0x60	; 96
    469c:	83 83       	std	Z+3, r24	; 0x03
				DIGIT[0][2] = FND_N;
    469e:	8c ee       	ldi	r24, 0xEC	; 236
    46a0:	82 83       	std	Z+2, r24	; 0x02
				DIGIT[0][1] = FND_MINUS;
    46a2:	82 e0       	ldi	r24, 0x02	; 2
    46a4:	81 83       	std	Z+1, r24	; 0x01
				DIGIT[0][0] = FND_S;
    46a6:	86 eb       	ldi	r24, 0xB6	; 182
    46a8:	80 83       	st	Z, r24

				DIGIT[1][3] = fnd_tbl[IN_S_10000];		// ΉηΖΆ╡υ Ή▓┤ΉνΣ 10.000kgΉζα ΉηΡΈου FND 1 ΉΩΡ ΉηΖΆ╡υΉ▓┤ΉνΣΆ░Τ ΊΣεΉΜε
    46aa:	a0 91 8a 4a 	lds	r26, 0x4A8A	; 0x804a8a <IN_S_10000>
    46ae:	b0 e0       	ldi	r27, 0x00	; 0
    46b0:	a4 57       	subi	r26, 0x74	; 116
    46b2:	bf 4b       	sbci	r27, 0xBF	; 191
    46b4:	8c 91       	ld	r24, X
    46b6:	87 83       	std	Z+7, r24	; 0x07
				DIGIT[1][2] = fnd_tbl[IN_S_1000]+FND_Point;	// ΉηΖΆ╡υ Ή▓┤ΉνΣ  1.000kgΉζα ΉηΡΈου
    46b8:	a0 91 03 4b 	lds	r26, 0x4B03	; 0x804b03 <IN_S_1000>
    46bc:	b0 e0       	ldi	r27, 0x00	; 0
    46be:	a4 57       	subi	r26, 0x74	; 116
    46c0:	bf 4b       	sbci	r27, 0xBF	; 191
    46c2:	8c 91       	ld	r24, X
    46c4:	8f 5f       	subi	r24, 0xFF	; 255
    46c6:	86 83       	std	Z+6, r24	; 0x06
				DIGIT[1][1] = fnd_tbl[IN_S_100];		// ΉηΖΆ╡υ Ή▓┤ΉνΣ  0.100kgΉζα ΉηΡΈου
    46c8:	a0 91 8b 4a 	lds	r26, 0x4A8B	; 0x804a8b <IN_S_100>
    46cc:	b0 e0       	ldi	r27, 0x00	; 0
    46ce:	a4 57       	subi	r26, 0x74	; 116
    46d0:	bf 4b       	sbci	r27, 0xBF	; 191
    46d2:	8c 91       	ld	r24, X
    46d4:	85 83       	std	Z+5, r24	; 0x05
				DIGIT[1][0] = fnd_tbl[IN_S_10];			// ΉηΖΆ╡υ Ή▓┤ΉνΣ  0.010kgΉζα ΉηΡΈου
    46d6:	a0 91 6a 4a 	lds	r26, 0x4A6A	; 0x804a6a <IN_S_10>
    46da:	b0 e0       	ldi	r27, 0x00	; 0
    46dc:	a4 57       	subi	r26, 0x74	; 116
    46de:	bf 4b       	sbci	r27, 0xBF	; 191
    46e0:	8c 91       	ld	r24, X
    46e2:	84 83       	std	Z+4, r24	; 0x04
				DIGIT[2][3] = fnd_tbl[IN_S_1];			// ΉηΖΆ╡υ Ή▓┤ΉνΣ  0.001kgΉζα ΉηΡΈου FND 2 ΉΩΡ ΉηΖΆ╡υΉ▓┤ΉνΣΆ░Τ ΊΣεΉΜε
    46e4:	a0 91 ee 4a 	lds	r26, 0x4AEE	; 0x804aee <IN_S_1>
    46e8:	b0 e0       	ldi	r27, 0x00	; 0
    46ea:	a4 57       	subi	r26, 0x74	; 116
    46ec:	bf 4b       	sbci	r27, 0xBF	; 191
    46ee:	8c 91       	ld	r24, X
    46f0:	83 87       	std	Z+11, r24	; 0x0b

				if(SET.Select) {IN_Scales_Set();}		// ΈκεΈΥεΉΖΑ ΉηΖΆ╡υΉ▓┤ΉνΣ ΉΕνΉιΧ
    46f2:	80 91 90 4a 	lds	r24, 0x4A90	; 0x804a90 <SET+0x1>
    46f6:	88 23       	and	r24, r24
    46f8:	09 f4       	brne	.+2      	; 0x46fc <Loadcell_Set+0x532>
    46fa:	79 c0       	rjmp	.+242    	; 0x47ee <Loadcell_Set+0x624>
    46fc:	0e 94 be 16 	call	0x2d7c	; 0x2d7c <IN_Scales_Set>
    4700:	76 c0       	rjmp	.+236    	; 0x47ee <Loadcell_Set+0x624>
			break;

			case 6:							// Count = 6 Ήζ┤Έσ┤
				DIGIT[0][3] = FND_S;				// FND 0 ΉΩΡ Scal ΊΣεΉΜε
    4702:	e3 ec       	ldi	r30, 0xC3	; 195
    4704:	f0 e4       	ldi	r31, 0x40	; 64
    4706:	86 eb       	ldi	r24, 0xB6	; 182
    4708:	83 83       	std	Z+3, r24	; 0x03
				DIGIT[0][2] = FND_c;
    470a:	8a e1       	ldi	r24, 0x1A	; 26
    470c:	82 83       	std	Z+2, r24	; 0x02
				DIGIT[0][1] = FND_a;
    470e:	8a ef       	ldi	r24, 0xFA	; 250
    4710:	81 83       	std	Z+1, r24	; 0x01
				DIGIT[0][0] = FND_l;
    4712:	80 e6       	ldi	r24, 0x60	; 96
    4714:	80 83       	st	Z, r24

				if(INT >= 0)
    4716:	20 91 ef 4a 	lds	r18, 0x4AEF	; 0x804aef <INT>
    471a:	30 91 f0 4a 	lds	r19, 0x4AF0	; 0x804af0 <INT+0x1>
    471e:	33 23       	and	r19, r19
    4720:	fc f0       	brlt	.+62     	; 0x4760 <Loadcell_Set+0x596>
				{
					DIGIT[1][3] = FND_OFF;			// ΈκεΈΥεΉΖΑ Έ│┤ΉιΧ 100Ήζα ΉηΡΈου
    4722:	17 82       	std	Z+7, r1	; 0x07
					DIGIT[1][2] = fnd_tbl[INT / 100];	// ΈκεΈΥεΉΖΑ Έ│┤ΉιΧ 100Ήζα ΉηΡΈου
    4724:	c9 01       	movw	r24, r18
    4726:	64 e6       	ldi	r22, 0x64	; 100
    4728:	70 e0       	ldi	r23, 0x00	; 0
    472a:	0e 94 c0 35 	call	0x6b80	; 0x6b80 <__divmodhi4>
    472e:	db 01       	movw	r26, r22
    4730:	a4 57       	subi	r26, 0x74	; 116
    4732:	bf 4b       	sbci	r27, 0xBF	; 191
    4734:	4c 91       	ld	r20, X
    4736:	46 83       	std	Z+6, r20	; 0x06
					DIGIT[1][1] = fnd_tbl[INT % 100 / 10];	// ΈκεΈΥεΉΖΑ Έ│┤ΉιΧ  10Ήζα ΉηΡΈου
    4738:	0a e0       	ldi	r16, 0x0A	; 10
    473a:	10 e0       	ldi	r17, 0x00	; 0
    473c:	b8 01       	movw	r22, r16
    473e:	0e 94 c0 35 	call	0x6b80	; 0x6b80 <__divmodhi4>
    4742:	db 01       	movw	r26, r22
    4744:	a4 57       	subi	r26, 0x74	; 116
    4746:	bf 4b       	sbci	r27, 0xBF	; 191
    4748:	8c 91       	ld	r24, X
    474a:	85 83       	std	Z+5, r24	; 0x05
					DIGIT[1][0] = fnd_tbl[INT % 10 ];	// ΈκεΈΥεΉΖΑ Έ│┤ΉιΧ   1Ήζα ΉηΡΈου
    474c:	c9 01       	movw	r24, r18
    474e:	b8 01       	movw	r22, r16
    4750:	0e 94 c0 35 	call	0x6b80	; 0x6b80 <__divmodhi4>
    4754:	dc 01       	movw	r26, r24
    4756:	a4 57       	subi	r26, 0x74	; 116
    4758:	bf 4b       	sbci	r27, 0xBF	; 191
    475a:	8c 91       	ld	r24, X
    475c:	84 83       	std	Z+4, r24	; 0x04
    475e:	3b c0       	rjmp	.+118    	; 0x47d6 <Loadcell_Set+0x60c>
				}
				else
				{
					cnt = ~INT + 1;
    4760:	21 95       	neg	r18
					DIGIT[1][3] = FND_MINUS;		// ΈκεΈΥεΉΖΑ Έ│┤ΉιΧ 100Ήζα ΉηΡΈου
    4762:	a3 ec       	ldi	r26, 0xC3	; 195
    4764:	b0 e4       	ldi	r27, 0x40	; 64
    4766:	82 e0       	ldi	r24, 0x02	; 2
    4768:	17 96       	adiw	r26, 0x07	; 7
    476a:	8c 93       	st	X, r24
    476c:	17 97       	sbiw	r26, 0x07	; 7
					DIGIT[1][2] = fnd_tbl[cnt / 100];	// ΈκεΈΥεΉΖΑ Έ│┤ΉιΧ 100Ήζα ΉηΡΈου
    476e:	89 e2       	ldi	r24, 0x29	; 41
    4770:	28 9f       	mul	r18, r24
    4772:	81 2d       	mov	r24, r1
    4774:	11 24       	eor	r1, r1
    4776:	82 95       	swap	r24
    4778:	8f 70       	andi	r24, 0x0F	; 15
    477a:	e8 2f       	mov	r30, r24
    477c:	f0 e0       	ldi	r31, 0x00	; 0
    477e:	e4 57       	subi	r30, 0x74	; 116
    4780:	ff 4b       	sbci	r31, 0xBF	; 191
    4782:	90 81       	ld	r25, Z
    4784:	16 96       	adiw	r26, 0x06	; 6
    4786:	9c 93       	st	X, r25
    4788:	16 97       	sbiw	r26, 0x06	; 6
					DIGIT[1][1] = fnd_tbl[cnt % 100 / 10];	// ΈκεΈΥεΉΖΑ Έ│┤ΉιΧ  10Ήζα ΉηΡΈου
    478a:	e2 2f       	mov	r30, r18
    478c:	94 e6       	ldi	r25, 0x64	; 100
    478e:	89 9f       	mul	r24, r25
    4790:	e0 19       	sub	r30, r0
    4792:	11 24       	eor	r1, r1
    4794:	8d ec       	ldi	r24, 0xCD	; 205
    4796:	e8 9f       	mul	r30, r24
    4798:	e1 2d       	mov	r30, r1
    479a:	11 24       	eor	r1, r1
    479c:	e6 95       	lsr	r30
    479e:	e6 95       	lsr	r30
    47a0:	e6 95       	lsr	r30
    47a2:	f0 e0       	ldi	r31, 0x00	; 0
    47a4:	e4 57       	subi	r30, 0x74	; 116
    47a6:	ff 4b       	sbci	r31, 0xBF	; 191
    47a8:	90 81       	ld	r25, Z
    47aa:	15 96       	adiw	r26, 0x05	; 5
    47ac:	9c 93       	st	X, r25
    47ae:	15 97       	sbiw	r26, 0x05	; 5
					DIGIT[1][0] = fnd_tbl[cnt %10 ];	// ΈκεΈΥεΉΖΑ Έ│┤ΉιΧ   1Ήζα ΉηΡΈου
    47b0:	28 9f       	mul	r18, r24
    47b2:	81 2d       	mov	r24, r1
    47b4:	11 24       	eor	r1, r1
    47b6:	86 95       	lsr	r24
    47b8:	86 95       	lsr	r24
    47ba:	86 95       	lsr	r24
    47bc:	88 0f       	add	r24, r24
    47be:	98 2f       	mov	r25, r24
    47c0:	99 0f       	add	r25, r25
    47c2:	99 0f       	add	r25, r25
    47c4:	89 0f       	add	r24, r25
    47c6:	28 1b       	sub	r18, r24
    47c8:	e2 2f       	mov	r30, r18
    47ca:	f0 e0       	ldi	r31, 0x00	; 0
    47cc:	e4 57       	subi	r30, 0x74	; 116
    47ce:	ff 4b       	sbci	r31, 0xBF	; 191
    47d0:	80 81       	ld	r24, Z
    47d2:	14 96       	adiw	r26, 0x04	; 4
    47d4:	8c 93       	st	X, r24
				}
 				DIGIT[2][3] = FND_OFF;				// ΈκεΈΥεΉΖΑ RO, ΉηΖΆ╡υΉ▓┤ΉνΣ 1Ήζα ΉηΡΈου ΉπΑΉγ░Ά╕░
    47d6:	10 92 ce 40 	sts	0x40CE, r1	; 0x8040ce <DIGIT+0xb>

 				if(SET.Select) {Interval_Set();}		// ΈκεΈΥεΉΖΑ RO ΉΕνΉιΧ
    47da:	80 91 90 4a 	lds	r24, 0x4A90	; 0x804a90 <SET+0x1>
    47de:	88 23       	and	r24, r24
    47e0:	31 f0       	breq	.+12     	; 0x47ee <Loadcell_Set+0x624>
    47e2:	0e 94 a8 1d 	call	0x3b50	; 0x3b50 <Interval_Set>
    47e6:	03 c0       	rjmp	.+6      	; 0x47ee <Loadcell_Set+0x624>
			break;


			case 7:							// Count = 7 Ήζ┤Έσ┤
				Count = 1;					// Έ░αΈ│╡ΉζΕ ΉεΕΊΧ┤ CountΈξ╝ Ή╡εΉιΑΈκε Ά░ΡΉΗΝ ΉΜεΊΓ┤
    47e8:	c1 e0       	ldi	r28, 0x01	; 1
			break;
    47ea:	01 c0       	rjmp	.+2      	; 0x47ee <Loadcell_Set+0x624>
		DIGIT[2][0] = fnd_tbl[Count];					// FND 2.0 ΉΩΡ Count ΊΣεΉΜε

		switch(Count)							// Count
		{
			case 0:							// Count = 0 Ήζ┤Έσ┤
				Count = 6;					// Έ░αΈ│╡ΉζΕ ΉεΕΊΧ┤ CountΈξ╝ Ή╡εΆ│ιΈκε ΉοζΆ░Α ΉΜεΊΓ┤
    47ec:	c6 e0       	ldi	r28, 0x06	; 6

			case 7:							// Count = 7 Ήζ┤Έσ┤
				Count = 1;					// Έ░αΈ│╡ΉζΕ ΉεΕΊΧ┤ CountΈξ╝ Ή╡εΉιΑΈκε Ά░ΡΉΗΝ ΉΜεΊΓ┤
			break;
		}
		wdt_reset();							// ΉδΝΉ╣αΈΠΖ ΈουΉΖΜ
    47ee:	0e 94 78 0c 	call	0x18f0	; 0x18f0 <wdt_reset>
	IN_S_1000  = IN_Scales % 10000/ 1000;					// ΉηΖΆ╡υ Ή▓┤ΉνΣ  1.000kgΉζα ΉηΡΈου
	IN_S_100   = IN_Scales % 1000 / 100;					// ΉηΖΆ╡υ Ή▓┤ΉνΣ  0.100kgΉζα ΉηΡΈου
	IN_S_10    = IN_Scales % 100 / 10;					// ΉηΖΆ╡υ Ή▓┤ΉνΣ  0.010kgΉζα ΉηΡΈου
	IN_S_1     = IN_Scales % 10;						// ΉηΖΆ╡υ Ή▓┤ΉνΣ  0.001kgΉζα ΉηΡΈου
//-------------------------------------------------------------------------------------------------
	while(SET.Menu)								// ΈσΦΈΚ┤Ά░Α 1 Ήζ┤Έσ┤ Έ░αΈ│╡
    47f2:	80 91 8f 4a 	lds	r24, 0x4A8F	; 0x804a8f <SET>
    47f6:	81 11       	cpse	r24, r1
    47f8:	5f ce       	rjmp	.-834    	; 0x44b8 <Loadcell_Set+0x2ee>
				Count = 1;					// Έ░αΈ│╡ΉζΕ ΉεΕΊΧ┤ CountΈξ╝ Ή╡εΉιΑΈκε Ά░ΡΉΗΝ ΉΜεΊΓ┤
			break;
		}
		wdt_reset();							// ΉδΝΉ╣αΈΠΖ ΈουΉΖΜ
	}
}
    47fa:	df 91       	pop	r29
    47fc:	cf 91       	pop	r28
    47fe:	1f 91       	pop	r17
    4800:	0f 91       	pop	r16
    4802:	ff 90       	pop	r15
    4804:	ef 90       	pop	r14
    4806:	df 90       	pop	r13
    4808:	cf 90       	pop	r12
    480a:	bf 90       	pop	r11
    480c:	af 90       	pop	r10
    480e:	9f 90       	pop	r9
    4810:	8f 90       	pop	r8
    4812:	7f 90       	pop	r7
    4814:	6f 90       	pop	r6
    4816:	5f 90       	pop	r5
    4818:	4f 90       	pop	r4
    481a:	08 95       	ret

0000481c <protected_write_io>:
    481c:	1b be       	out	0x3b, r1	; 59
    481e:	fc 01       	movw	r30, r24
    4820:	64 bf       	out	0x34, r22	; 52
    4822:	40 83       	st	Z, r20
    4824:	08 95       	ret

00004826 <RTC_Single_Read>:
uint8_t RTC_Single_Read(uint8_t reg)					// RTC 1Byte Data └╨▒έ
{
	uint8_t data	= 0;						// data ║ψ╝÷ ├╩▒έ╚φ
	uint8_t retData = 0;						// retData ║ψ╝÷ ├╩▒έ╚φ

	data = I2C_0_read1ByteRegister(RTC_ADDRESS, reg);		// 1Byte Data └╨▒έ
    4826:	68 2f       	mov	r22, r24
    4828:	88 e6       	ldi	r24, 0x68	; 104
    482a:	0e 94 18 14 	call	0x2830	; 0x2830 <I2C_0_read1ByteRegister>
	retData = ((data >> 4) * 10) + (data & 0x0F);			// 1010└╟ └┌╕χ, 1└╟ └┌╕χ ║ψ╚ψ
    482e:	98 2f       	mov	r25, r24
    4830:	92 95       	swap	r25
    4832:	9f 70       	andi	r25, 0x0F	; 15
    4834:	99 0f       	add	r25, r25
    4836:	29 2f       	mov	r18, r25
    4838:	22 0f       	add	r18, r18
    483a:	22 0f       	add	r18, r18
    483c:	92 0f       	add	r25, r18
    483e:	8f 70       	andi	r24, 0x0F	; 15

	return retData;							// ╕χ┼╧ retData
}
    4840:	89 0f       	add	r24, r25
    4842:	08 95       	ret

00004844 <RTC_Time_Read>:

//=================================================================================================
void RTC_Time_Read(void)						// RTC Data └╨▒έ
{
    4844:	cf 93       	push	r28
    4846:	df 93       	push	r29
	RTC_T.Year  = RTC_Single_Read(RTC_YEAR);			// YEAR
    4848:	86 e0       	ldi	r24, 0x06	; 6
    484a:	0e 94 13 24 	call	0x4826	; 0x4826 <RTC_Single_Read>
    484e:	c0 ec       	ldi	r28, 0xC0	; 192
    4850:	da e4       	ldi	r29, 0x4A	; 74
    4852:	8e 83       	std	Y+6, r24	; 0x06
	RTC_T.Month = RTC_Single_Read(RTC_MONTH);			// MONTH
    4854:	85 e0       	ldi	r24, 0x05	; 5
    4856:	0e 94 13 24 	call	0x4826	; 0x4826 <RTC_Single_Read>
    485a:	8d 83       	std	Y+5, r24	; 0x05
	RTC_T.Date  = RTC_Single_Read(RTC_DATE);			// DATE
    485c:	84 e0       	ldi	r24, 0x04	; 4
    485e:	0e 94 13 24 	call	0x4826	; 0x4826 <RTC_Single_Read>
    4862:	8c 83       	std	Y+4, r24	; 0x04
	RTC_T.Day   = RTC_Single_Read(RTC_DAYOFWEEK);			// DAYOFWEEK ┐ϊ└╧
    4864:	83 e0       	ldi	r24, 0x03	; 3
    4866:	0e 94 13 24 	call	0x4826	; 0x4826 <RTC_Single_Read>
    486a:	8b 83       	std	Y+3, r24	; 0x03
	RTC_T.Hour  = RTC_Single_Read(RTC_HOUR);			// HOUR
    486c:	82 e0       	ldi	r24, 0x02	; 2
    486e:	0e 94 13 24 	call	0x4826	; 0x4826 <RTC_Single_Read>
    4872:	8a 83       	std	Y+2, r24	; 0x02
	RTC_T.Min   = RTC_Single_Read(RTC_MINUTE);			// MINUTE
    4874:	81 e0       	ldi	r24, 0x01	; 1
    4876:	0e 94 13 24 	call	0x4826	; 0x4826 <RTC_Single_Read>
    487a:	89 83       	std	Y+1, r24	; 0x01
	RTC_T.Sec   = RTC_Single_Read(RTC_SECOND);			// SECOND
    487c:	80 e0       	ldi	r24, 0x00	; 0
    487e:	0e 94 13 24 	call	0x4826	; 0x4826 <RTC_Single_Read>
    4882:	88 83       	st	Y, r24
}
    4884:	df 91       	pop	r29
    4886:	cf 91       	pop	r28
    4888:	08 95       	ret

0000488a <RTC_Single_Write>:

//=================================================================================================
void RTC_Single_Write(uint8_t reg, uint8_t wData)			// RTC 1Byte Data ╛▓▒έ
{
	uint8_t bcdData = ((wData / 10) << 4) | ((wData % 10) & 0x0F);	// 1010└╟ └┌╕χ, 1└╟ └┌╕χ ║┤├d
    488a:	9d ec       	ldi	r25, 0xCD	; 205
    488c:	69 9f       	mul	r22, r25
    488e:	91 2d       	mov	r25, r1
    4890:	11 24       	eor	r1, r1
    4892:	96 95       	lsr	r25
    4894:	96 95       	lsr	r25
    4896:	96 95       	lsr	r25
    4898:	20 e1       	ldi	r18, 0x10	; 16
    489a:	92 9f       	mul	r25, r18
    489c:	a0 01       	movw	r20, r0
    489e:	11 24       	eor	r1, r1
    48a0:	99 0f       	add	r25, r25
    48a2:	29 2f       	mov	r18, r25
    48a4:	22 0f       	add	r18, r18
    48a6:	22 0f       	add	r18, r18
    48a8:	92 0f       	add	r25, r18
    48aa:	69 1b       	sub	r22, r25
    48ac:	6f 70       	andi	r22, 0x0F	; 15
    48ae:	46 2b       	or	r20, r22
	I2C_0_write1ByteRegister(RTC_ADDRESS, (uint8_t)reg, bcdData);	// 1Byte Data ╛▓▒έ
    48b0:	68 2f       	mov	r22, r24
    48b2:	88 e6       	ldi	r24, 0x68	; 104
    48b4:	0e 94 d4 13 	call	0x27a8	; 0x27a8 <I2C_0_write1ByteRegister>
    48b8:	08 95       	ret

000048ba <RTC_Time_Write>:
}

//=================================================================================================
void RTC_Time_Write(uint8_t item, uint8_t value)			// RTC Data ╛▓▒έ
{
    48ba:	96 2f       	mov	r25, r22
	uint8_t data = 0;						// data ║ψ╝÷ ├╩▒έ╚φ

	switch(item)							// item
    48bc:	48 2f       	mov	r20, r24
    48be:	50 e0       	ldi	r21, 0x00	; 0
    48c0:	47 30       	cpi	r20, 0x07	; 7
    48c2:	51 05       	cpc	r21, r1
    48c4:	18 f5       	brcc	.+70     	; 0x490c <RTC_Time_Write+0x52>
    48c6:	fa 01       	movw	r30, r20
    48c8:	e8 57       	subi	r30, 0x78	; 120
    48ca:	fc 4f       	sbci	r31, 0xFC	; 252
    48cc:	0c 94 15 36 	jmp	0x6c2a	; 0x6c2a <__tablejump2__>
	{
		case RTC_SECOND:					// ├╩
			if(value > 59) {data = 0;}			// 59├╩ └╠╗≤└╠╕ώ 0├╩╖╬ ├╩▒έ╚φ
    48d0:	9c 33       	cpi	r25, 0x3C	; 60
    48d2:	e8 f0       	brcs	.+58     	; 0x490e <RTC_Time_Write+0x54>
    48d4:	90 e0       	ldi	r25, 0x00	; 0
    48d6:	1b c0       	rjmp	.+54     	; 0x490e <RTC_Time_Write+0x54>
			else	       {data = value;}			// ╛╞┤╧╕ώ value └·└ί
		break;

		case RTC_MINUTE:					// ║╨
			if(value > 59) {data = 0;}			// 59║╨ └╠╗≤└╠╕ώ 0║╨└╕╖╬ ├╩▒έ╚φ
    48d8:	9c 33       	cpi	r25, 0x3C	; 60
    48da:	c8 f0       	brcs	.+50     	; 0x490e <RTC_Time_Write+0x54>
    48dc:	90 e0       	ldi	r25, 0x00	; 0
    48de:	17 c0       	rjmp	.+46     	; 0x490e <RTC_Time_Write+0x54>
			else	       {data = value;}			// ╛╞┤╧╕ώ value └·└ί
		break;

		case RTC_HOUR:						// ╜├
			if(value > 23) {data = 0;}			// 23╜├ └╠╗≤└╠╕ώ 0╜├╖╬ ├╩▒έ╚φ
    48e0:	98 31       	cpi	r25, 0x18	; 24
    48e2:	a8 f0       	brcs	.+42     	; 0x490e <RTC_Time_Write+0x54>
    48e4:	90 e0       	ldi	r25, 0x00	; 0
    48e6:	13 c0       	rjmp	.+38     	; 0x490e <RTC_Time_Write+0x54>
			else	       {data = value;}			// ╛╞┤╧╕ώ value └·└ί
		break;

		case RTC_DAYOFWEEK:					// ┐ϊ└╧ 1(└╧┐ϊ└╧) ~ 7(┼ϊ┐ϊ└╧) ╗ύ┐Έ
			if(value > 7 || value == 0) {data = 1;}		// 7 └╠╗≤ └╠░┼│ς 0 └╠╕ώ 1(└╧)╖╬ ├╩▒έ╚φ
    48e8:	2f ef       	ldi	r18, 0xFF	; 255
    48ea:	29 0f       	add	r18, r25
    48ec:	27 30       	cpi	r18, 0x07	; 7
    48ee:	78 f0       	brcs	.+30     	; 0x490e <RTC_Time_Write+0x54>
    48f0:	91 e0       	ldi	r25, 0x01	; 1
    48f2:	0d c0       	rjmp	.+26     	; 0x490e <RTC_Time_Write+0x54>
			else			    {data = value;}	// ╛╞┤╧╕ώ value └·└ί
		break;

		case RTC_DATE:						// └╧
			if(value > 31) {data = 1;}			// 31└╧ └╠╗≤└╠╕ώ 1└╧╖╬ ├╩▒έ╚φ
    48f4:	90 32       	cpi	r25, 0x20	; 32
    48f6:	58 f0       	brcs	.+22     	; 0x490e <RTC_Time_Write+0x54>
    48f8:	91 e0       	ldi	r25, 0x01	; 1
    48fa:	09 c0       	rjmp	.+18     	; 0x490e <RTC_Time_Write+0x54>
			else	       {data = value;}			// ╛╞┤╧╕ώ value └·└ί
		break;

		case RTC_MONTH:						// ┐∙
			if(value > 12) {data = 1;}			// 12┐∙ └╠╗≤└╠╕ώ 1┐∙╖╬ ├╩▒έ╚φ
    48fc:	9d 30       	cpi	r25, 0x0D	; 13
    48fe:	38 f0       	brcs	.+14     	; 0x490e <RTC_Time_Write+0x54>
    4900:	91 e0       	ldi	r25, 0x01	; 1
    4902:	05 c0       	rjmp	.+10     	; 0x490e <RTC_Time_Write+0x54>
			else	       {data = value;}			// ╛╞┤╧╕ώ value └·└ί
		break;

		case RTC_YEAR:						// │έ
			if(value == 0) {data = 21;}			// 00│έ └╠╕ώ 21│έ └╕╖╬ ├╩▒έ╚φ
    4904:	91 11       	cpse	r25, r1
    4906:	03 c0       	rjmp	.+6      	; 0x490e <RTC_Time_Write+0x54>
    4908:	95 e1       	ldi	r25, 0x15	; 21
    490a:	01 c0       	rjmp	.+2      	; 0x490e <RTC_Time_Write+0x54>
}

//=================================================================================================
void RTC_Time_Write(uint8_t item, uint8_t value)			// RTC Data ╛▓▒έ
{
	uint8_t data = 0;						// data ║ψ╝÷ ├╩▒έ╚φ
    490c:	90 e0       	ldi	r25, 0x00	; 0
		case RTC_YEAR:						// │έ
			if(value == 0) {data = 21;}			// 00│έ └╠╕ώ 21│έ └╕╖╬ ├╩▒έ╚φ
			else	       {data = value;}			// ╛╞┤╧╕ώ value └·└ί
		break;
	}
	RTC_Single_Write(item, data);					// RTC 1Byte Data ╛▓▒έ
    490e:	69 2f       	mov	r22, r25
    4910:	0e 94 45 24 	call	0x488a	; 0x488a <RTC_Single_Write>
    4914:	08 95       	ret

00004916 <RTC_Set>:
//=================================================================================================
#include <rtc.h>

//=================================================================================================
void RTC_Set(void)							// RTC ╝│┴ν ╕Ώ╡ί
{
    4916:	cf 93       	push	r28
    4918:	df 93       	push	r29
	SET.Select = 0;							// Select ╣÷╞░ ├╩▒έ╚φ
    491a:	10 92 90 4a 	sts	0x4A90, r1	; 0x804a90 <SET+0x1>

	FND_Value_Data(0, 2, 12);					// FND 0 ~ 2 FND_OFF
    491e:	4c e0       	ldi	r20, 0x0C	; 12
    4920:	62 e0       	ldi	r22, 0x02	; 2
    4922:	80 e0       	ldi	r24, 0x00	; 0
    4924:	0e 94 ca 05 	call	0xb94	; 0xb94 <FND_Value_Data>

	RTC_Time_Read();						// RTC Data └╨▒έ
    4928:	0e 94 22 24 	call	0x4844	; 0x4844 <RTC_Time_Read>

	DIGIT[0][3] = fnd_tbl[RTC_T.Year / 10];				// │έ ╟ξ╜├
    492c:	c0 ec       	ldi	r28, 0xC0	; 192
    492e:	da e4       	ldi	r29, 0x4A	; 74
    4930:	ae 81       	ldd	r26, Y+6	; 0x06
    4932:	8d ec       	ldi	r24, 0xCD	; 205
    4934:	a8 9f       	mul	r26, r24
    4936:	91 2d       	mov	r25, r1
    4938:	11 24       	eor	r1, r1
    493a:	96 95       	lsr	r25
    493c:	96 95       	lsr	r25
    493e:	96 95       	lsr	r25
    4940:	e9 2f       	mov	r30, r25
    4942:	f0 e0       	ldi	r31, 0x00	; 0
    4944:	e4 57       	subi	r30, 0x74	; 116
    4946:	ff 4b       	sbci	r31, 0xBF	; 191
    4948:	20 81       	ld	r18, Z
    494a:	e3 ec       	ldi	r30, 0xC3	; 195
    494c:	f0 e4       	ldi	r31, 0x40	; 64
    494e:	23 83       	std	Z+3, r18	; 0x03
	DIGIT[0][2] = fnd_tbl[RTC_T.Year % 10];
    4950:	99 0f       	add	r25, r25
    4952:	29 2f       	mov	r18, r25
    4954:	22 0f       	add	r18, r18
    4956:	22 0f       	add	r18, r18
    4958:	92 0f       	add	r25, r18
    495a:	a9 1b       	sub	r26, r25
    495c:	b0 e0       	ldi	r27, 0x00	; 0
    495e:	a4 57       	subi	r26, 0x74	; 116
    4960:	bf 4b       	sbci	r27, 0xBF	; 191
    4962:	9c 91       	ld	r25, X
    4964:	92 83       	std	Z+2, r25	; 0x02

	DIGIT[0][1] = fnd_tbl[RTC_T.Month / 10];			// ┐∙ ╟ξ╜├
    4966:	4d 81       	ldd	r20, Y+5	; 0x05
    4968:	48 9f       	mul	r20, r24
    496a:	91 2d       	mov	r25, r1
    496c:	11 24       	eor	r1, r1
    496e:	96 95       	lsr	r25
    4970:	96 95       	lsr	r25
    4972:	96 95       	lsr	r25
    4974:	29 2f       	mov	r18, r25
    4976:	30 e0       	ldi	r19, 0x00	; 0
    4978:	24 57       	subi	r18, 0x74	; 116
    497a:	3f 4b       	sbci	r19, 0xBF	; 191
    497c:	d9 01       	movw	r26, r18
    497e:	2c 91       	ld	r18, X
    4980:	21 83       	std	Z+1, r18	; 0x01
	DIGIT[0][0] = fnd_tbl[RTC_T.Month % 10];
    4982:	99 0f       	add	r25, r25
    4984:	29 2f       	mov	r18, r25
    4986:	22 0f       	add	r18, r18
    4988:	22 0f       	add	r18, r18
    498a:	92 0f       	add	r25, r18
    498c:	a4 2f       	mov	r26, r20
    498e:	a9 1b       	sub	r26, r25
    4990:	b0 e0       	ldi	r27, 0x00	; 0
    4992:	a4 57       	subi	r26, 0x74	; 116
    4994:	bf 4b       	sbci	r27, 0xBF	; 191
    4996:	9c 91       	ld	r25, X
    4998:	90 83       	st	Z, r25

	DIGIT[1][3] = fnd_tbl[RTC_T.Date / 10];				// └╧ ╟ξ╜├
    499a:	4c 81       	ldd	r20, Y+4	; 0x04
    499c:	48 9f       	mul	r20, r24
    499e:	91 2d       	mov	r25, r1
    49a0:	11 24       	eor	r1, r1
    49a2:	96 95       	lsr	r25
    49a4:	96 95       	lsr	r25
    49a6:	96 95       	lsr	r25
    49a8:	29 2f       	mov	r18, r25
    49aa:	30 e0       	ldi	r19, 0x00	; 0
    49ac:	24 57       	subi	r18, 0x74	; 116
    49ae:	3f 4b       	sbci	r19, 0xBF	; 191
    49b0:	d9 01       	movw	r26, r18
    49b2:	2c 91       	ld	r18, X
    49b4:	27 83       	std	Z+7, r18	; 0x07
	DIGIT[1][2] = fnd_tbl[RTC_T.Date % 10];
    49b6:	99 0f       	add	r25, r25
    49b8:	29 2f       	mov	r18, r25
    49ba:	22 0f       	add	r18, r18
    49bc:	22 0f       	add	r18, r18
    49be:	92 0f       	add	r25, r18
    49c0:	a4 2f       	mov	r26, r20
    49c2:	a9 1b       	sub	r26, r25
    49c4:	b0 e0       	ldi	r27, 0x00	; 0
    49c6:	a4 57       	subi	r26, 0x74	; 116
    49c8:	bf 4b       	sbci	r27, 0xBF	; 191
    49ca:	9c 91       	ld	r25, X
    49cc:	96 83       	std	Z+6, r25	; 0x06

	DIGIT[1][1] = fnd_tbl[RTC_T.Hour / 10];				// ╜├ ╟ξ╜├
    49ce:	4a 81       	ldd	r20, Y+2	; 0x02
    49d0:	48 9f       	mul	r20, r24
    49d2:	91 2d       	mov	r25, r1
    49d4:	11 24       	eor	r1, r1
    49d6:	96 95       	lsr	r25
    49d8:	96 95       	lsr	r25
    49da:	96 95       	lsr	r25
    49dc:	29 2f       	mov	r18, r25
    49de:	30 e0       	ldi	r19, 0x00	; 0
    49e0:	24 57       	subi	r18, 0x74	; 116
    49e2:	3f 4b       	sbci	r19, 0xBF	; 191
    49e4:	d9 01       	movw	r26, r18
    49e6:	2c 91       	ld	r18, X
    49e8:	25 83       	std	Z+5, r18	; 0x05
	DIGIT[1][0] = fnd_tbl[RTC_T.Hour % 10];
    49ea:	99 0f       	add	r25, r25
    49ec:	29 2f       	mov	r18, r25
    49ee:	22 0f       	add	r18, r18
    49f0:	22 0f       	add	r18, r18
    49f2:	92 0f       	add	r25, r18
    49f4:	a4 2f       	mov	r26, r20
    49f6:	a9 1b       	sub	r26, r25
    49f8:	b0 e0       	ldi	r27, 0x00	; 0
    49fa:	a4 57       	subi	r26, 0x74	; 116
    49fc:	bf 4b       	sbci	r27, 0xBF	; 191
    49fe:	9c 91       	ld	r25, X
    4a00:	94 83       	std	Z+4, r25	; 0x04

	DIGIT[2][3] = fnd_tbl[RTC_T.Min / 10];				// ║╨ ╟ξ╜├
    4a02:	49 81       	ldd	r20, Y+1	; 0x01
    4a04:	48 9f       	mul	r20, r24
    4a06:	91 2d       	mov	r25, r1
    4a08:	11 24       	eor	r1, r1
    4a0a:	96 95       	lsr	r25
    4a0c:	96 95       	lsr	r25
    4a0e:	96 95       	lsr	r25
    4a10:	29 2f       	mov	r18, r25
    4a12:	30 e0       	ldi	r19, 0x00	; 0
    4a14:	24 57       	subi	r18, 0x74	; 116
    4a16:	3f 4b       	sbci	r19, 0xBF	; 191
    4a18:	d9 01       	movw	r26, r18
    4a1a:	2c 91       	ld	r18, X
    4a1c:	23 87       	std	Z+11, r18	; 0x0b
	DIGIT[2][2] = fnd_tbl[RTC_T.Min % 10];
    4a1e:	99 0f       	add	r25, r25
    4a20:	29 2f       	mov	r18, r25
    4a22:	22 0f       	add	r18, r18
    4a24:	22 0f       	add	r18, r18
    4a26:	92 0f       	add	r25, r18
    4a28:	a4 2f       	mov	r26, r20
    4a2a:	a9 1b       	sub	r26, r25
    4a2c:	b0 e0       	ldi	r27, 0x00	; 0
    4a2e:	a4 57       	subi	r26, 0x74	; 116
    4a30:	bf 4b       	sbci	r27, 0xBF	; 191
    4a32:	9c 91       	ld	r25, X
    4a34:	92 87       	std	Z+10, r25	; 0x0a

	DIGIT[2][1] = fnd_tbl[RTC_T.Sec / 10];				// ├╩ ╟ξ╜├
    4a36:	a8 81       	ld	r26, Y
    4a38:	a8 9f       	mul	r26, r24
    4a3a:	81 2d       	mov	r24, r1
    4a3c:	11 24       	eor	r1, r1
    4a3e:	86 95       	lsr	r24
    4a40:	86 95       	lsr	r24
    4a42:	86 95       	lsr	r24
    4a44:	c8 2f       	mov	r28, r24
    4a46:	d0 e0       	ldi	r29, 0x00	; 0
    4a48:	c4 57       	subi	r28, 0x74	; 116
    4a4a:	df 4b       	sbci	r29, 0xBF	; 191
    4a4c:	98 81       	ld	r25, Y
    4a4e:	91 87       	std	Z+9, r25	; 0x09
	DIGIT[2][0] = fnd_tbl[RTC_T.Sec % 10];
    4a50:	88 0f       	add	r24, r24
    4a52:	98 2f       	mov	r25, r24
    4a54:	99 0f       	add	r25, r25
    4a56:	99 0f       	add	r25, r25
    4a58:	89 0f       	add	r24, r25
    4a5a:	a8 1b       	sub	r26, r24
    4a5c:	b0 e0       	ldi	r27, 0x00	; 0
    4a5e:	a4 57       	subi	r26, 0x74	; 116
    4a60:	bf 4b       	sbci	r27, 0xBF	; 191
    4a62:	8c 91       	ld	r24, X
    4a64:	80 87       	std	Z+8, r24	; 0x08

	while(SET.Menu)							// ╕▐┤║╕Ώ╡ί └╠╕ώ ╣▌║╣
    4a66:	8a c2       	rjmp	.+1300   	; 0x4f7c <RTC_Set+0x666>
	{
		SET.Blink = 1;						// └┌╕┤╝÷ ▒Ϊ╣┌└╙ ╝│┴ν
    4a68:	81 e0       	ldi	r24, 0x01	; 1
    4a6a:	80 93 91 4a 	sts	0x4A91, r24	; 0x804a91 <SET+0x2>

		switch(KEY.Count)					// ╝▒┼├ Key ░κ ┤φ╕░╚╜╝÷
    4a6e:	e0 91 d5 4a 	lds	r30, 0x4AD5	; 0x804ad5 <KEY>
    4a72:	8e 2f       	mov	r24, r30
    4a74:	90 e0       	ldi	r25, 0x00	; 0
    4a76:	87 30       	cpi	r24, 0x07	; 7
    4a78:	91 05       	cpc	r25, r1
    4a7a:	08 f0       	brcs	.+2      	; 0x4a7e <RTC_Set+0x168>
    4a7c:	7d c2       	rjmp	.+1274   	; 0x4f78 <RTC_Set+0x662>
    4a7e:	fc 01       	movw	r30, r24
    4a80:	e1 57       	subi	r30, 0x71	; 113
    4a82:	fc 4f       	sbci	r31, 0xFC	; 252
    4a84:	0c 94 15 36 	jmp	0x6c2a	; 0x6c2a <__tablejump2__>
		{
			case 0:						// │έ ╟ξ╜├ ╣╫ ╝│┴ν
				DIGIT[2][1] = fnd_tbl[RTC_T.Sec / 10];	// ├╩ ╟ξ╜├
    4a88:	e0 91 c0 4a 	lds	r30, 0x4AC0	; 0x804ac0 <RTC_T>
    4a8c:	8d ec       	ldi	r24, 0xCD	; 205
    4a8e:	e8 9f       	mul	r30, r24
    4a90:	81 2d       	mov	r24, r1
    4a92:	11 24       	eor	r1, r1
    4a94:	86 95       	lsr	r24
    4a96:	86 95       	lsr	r24
    4a98:	86 95       	lsr	r24
    4a9a:	a8 2f       	mov	r26, r24
    4a9c:	b0 e0       	ldi	r27, 0x00	; 0
    4a9e:	a4 57       	subi	r26, 0x74	; 116
    4aa0:	bf 4b       	sbci	r27, 0xBF	; 191
    4aa2:	9c 91       	ld	r25, X
    4aa4:	a3 ec       	ldi	r26, 0xC3	; 195
    4aa6:	b0 e4       	ldi	r27, 0x40	; 64
    4aa8:	19 96       	adiw	r26, 0x09	; 9
    4aaa:	9c 93       	st	X, r25
    4aac:	19 97       	sbiw	r26, 0x09	; 9
				DIGIT[2][0] = fnd_tbl[RTC_T.Sec % 10];
    4aae:	88 0f       	add	r24, r24
    4ab0:	98 2f       	mov	r25, r24
    4ab2:	99 0f       	add	r25, r25
    4ab4:	99 0f       	add	r25, r25
    4ab6:	89 0f       	add	r24, r25
    4ab8:	e8 1b       	sub	r30, r24
    4aba:	f0 e0       	ldi	r31, 0x00	; 0
    4abc:	e4 57       	subi	r30, 0x74	; 116
    4abe:	ff 4b       	sbci	r31, 0xBF	; 191
    4ac0:	80 81       	ld	r24, Z
    4ac2:	18 96       	adiw	r26, 0x08	; 8
    4ac4:	8c 93       	st	X, r24
    4ac6:	18 97       	sbiw	r26, 0x08	; 8
				if(Blink)				// Blink = 1 └╠╕ώ 
    4ac8:	80 91 02 4b 	lds	r24, 0x4B02	; 0x804b02 <Blink>
    4acc:	88 23       	and	r24, r24
    4ace:	21 f0       	breq	.+8      	; 0x4ad8 <RTC_Set+0x1c2>
				{
					DIGIT[0][3] = FND_OFF;		// ╖╬╡ί╝┐ Year └┌╕χ OFF
    4ad0:	fd 01       	movw	r30, r26
    4ad2:	13 82       	std	Z+3, r1	; 0x03
					DIGIT[0][2] = FND_OFF;
    4ad4:	12 82       	std	Z+2, r1	; 0x02
    4ad6:	1f c0       	rjmp	.+62     	; 0x4b16 <RTC_Set+0x200>
				}
				else					// Blink = 0 └╠╕ώ
				{
					DIGIT[0][3] = fnd_tbl[RTC_T.Year / 10];	// ╖╬╡ί╝┐ Year └┌╕χ ╟ξ╜├
    4ad8:	e0 91 c6 4a 	lds	r30, 0x4AC6	; 0x804ac6 <RTC_T+0x6>
    4adc:	8d ec       	ldi	r24, 0xCD	; 205
    4ade:	e8 9f       	mul	r30, r24
    4ae0:	81 2d       	mov	r24, r1
    4ae2:	11 24       	eor	r1, r1
    4ae4:	86 95       	lsr	r24
    4ae6:	86 95       	lsr	r24
    4ae8:	86 95       	lsr	r24
    4aea:	a8 2f       	mov	r26, r24
    4aec:	b0 e0       	ldi	r27, 0x00	; 0
    4aee:	a4 57       	subi	r26, 0x74	; 116
    4af0:	bf 4b       	sbci	r27, 0xBF	; 191
    4af2:	9c 91       	ld	r25, X
    4af4:	a3 ec       	ldi	r26, 0xC3	; 195
    4af6:	b0 e4       	ldi	r27, 0x40	; 64
    4af8:	13 96       	adiw	r26, 0x03	; 3
    4afa:	9c 93       	st	X, r25
    4afc:	13 97       	sbiw	r26, 0x03	; 3
					DIGIT[0][2] = fnd_tbl[RTC_T.Year % 10];
    4afe:	88 0f       	add	r24, r24
    4b00:	98 2f       	mov	r25, r24
    4b02:	99 0f       	add	r25, r25
    4b04:	99 0f       	add	r25, r25
    4b06:	89 0f       	add	r24, r25
    4b08:	e8 1b       	sub	r30, r24
    4b0a:	f0 e0       	ldi	r31, 0x00	; 0
    4b0c:	e4 57       	subi	r30, 0x74	; 116
    4b0e:	ff 4b       	sbci	r31, 0xBF	; 191
    4b10:	80 81       	ld	r24, Z
    4b12:	12 96       	adiw	r26, 0x02	; 2
    4b14:	8c 93       	st	X, r24
				}

				if(KEY.Buff)				// Key └╘╖┬└╠ └╓└╕╕ώ
    4b16:	80 91 d6 4a 	lds	r24, 0x4AD6	; 0x804ad6 <KEY+0x1>
    4b1a:	88 23       	and	r24, r24
    4b1c:	09 f4       	brne	.+2      	; 0x4b20 <RTC_Set+0x20a>
    4b1e:	2c c2       	rjmp	.+1112   	; 0x4f78 <RTC_Set+0x662>
				{
					if     (KEY.Key == 1 && RTC_T.Year < 99) {RTC_T.Year ++; KEY.Key = 0;}	// ╛≈  ╣÷╞░ └╠╕ώ Year ┴Ϋ░κ
    4b20:	80 91 d7 4a 	lds	r24, 0x4AD7	; 0x804ad7 <KEY+0x2>
    4b24:	81 30       	cpi	r24, 0x01	; 1
    4b26:	51 f4       	brne	.+20     	; 0x4b3c <RTC_Set+0x226>
    4b28:	80 91 c6 4a 	lds	r24, 0x4AC6	; 0x804ac6 <RTC_T+0x6>
    4b2c:	83 36       	cpi	r24, 0x63	; 99
    4b2e:	30 f4       	brcc	.+12     	; 0x4b3c <RTC_Set+0x226>
    4b30:	8f 5f       	subi	r24, 0xFF	; 255
    4b32:	80 93 c6 4a 	sts	0x4AC6, r24	; 0x804ac6 <RTC_T+0x6>
    4b36:	10 92 d7 4a 	sts	0x4AD7, r1	; 0x804ad7 <KEY+0x2>
    4b3a:	1e c2       	rjmp	.+1084   	; 0x4f78 <RTC_Set+0x662>
					else if(KEY.Key == 3 && RTC_T.Year >  0) {RTC_T.Year --; KEY.Key = 0;}	// ┤┘┐Ό╣÷╞░ └╠╕ώ Year ░ρ╝╥
    4b3c:	80 91 d7 4a 	lds	r24, 0x4AD7	; 0x804ad7 <KEY+0x2>
    4b40:	83 30       	cpi	r24, 0x03	; 3
    4b42:	09 f0       	breq	.+2      	; 0x4b46 <RTC_Set+0x230>
    4b44:	19 c2       	rjmp	.+1074   	; 0x4f78 <RTC_Set+0x662>
    4b46:	80 91 c6 4a 	lds	r24, 0x4AC6	; 0x804ac6 <RTC_T+0x6>
    4b4a:	88 23       	and	r24, r24
    4b4c:	09 f4       	brne	.+2      	; 0x4b50 <RTC_Set+0x23a>
    4b4e:	14 c2       	rjmp	.+1064   	; 0x4f78 <RTC_Set+0x662>
    4b50:	81 50       	subi	r24, 0x01	; 1
    4b52:	80 93 c6 4a 	sts	0x4AC6, r24	; 0x804ac6 <RTC_T+0x6>
    4b56:	10 92 d7 4a 	sts	0x4AD7, r1	; 0x804ad7 <KEY+0x2>
    4b5a:	0e c2       	rjmp	.+1052   	; 0x4f78 <RTC_Set+0x662>
				}
			break;

			case 1:						// ┐∙ ╟ξ╜├ ╣╫ ╝│┴ν
				DIGIT[0][3] = fnd_tbl[RTC_T.Year / 10];	// │έ ╟ξ╜├
    4b5c:	e0 91 c6 4a 	lds	r30, 0x4AC6	; 0x804ac6 <RTC_T+0x6>
    4b60:	8d ec       	ldi	r24, 0xCD	; 205
    4b62:	e8 9f       	mul	r30, r24
    4b64:	81 2d       	mov	r24, r1
    4b66:	11 24       	eor	r1, r1
    4b68:	86 95       	lsr	r24
    4b6a:	86 95       	lsr	r24
    4b6c:	86 95       	lsr	r24
    4b6e:	a8 2f       	mov	r26, r24
    4b70:	b0 e0       	ldi	r27, 0x00	; 0
    4b72:	a4 57       	subi	r26, 0x74	; 116
    4b74:	bf 4b       	sbci	r27, 0xBF	; 191
    4b76:	9c 91       	ld	r25, X
    4b78:	a3 ec       	ldi	r26, 0xC3	; 195
    4b7a:	b0 e4       	ldi	r27, 0x40	; 64
    4b7c:	13 96       	adiw	r26, 0x03	; 3
    4b7e:	9c 93       	st	X, r25
    4b80:	13 97       	sbiw	r26, 0x03	; 3
				DIGIT[0][2] = fnd_tbl[RTC_T.Year % 10];
    4b82:	88 0f       	add	r24, r24
    4b84:	98 2f       	mov	r25, r24
    4b86:	99 0f       	add	r25, r25
    4b88:	99 0f       	add	r25, r25
    4b8a:	89 0f       	add	r24, r25
    4b8c:	e8 1b       	sub	r30, r24
    4b8e:	f0 e0       	ldi	r31, 0x00	; 0
    4b90:	e4 57       	subi	r30, 0x74	; 116
    4b92:	ff 4b       	sbci	r31, 0xBF	; 191
    4b94:	80 81       	ld	r24, Z
    4b96:	12 96       	adiw	r26, 0x02	; 2
    4b98:	8c 93       	st	X, r24
    4b9a:	12 97       	sbiw	r26, 0x02	; 2
				if(Blink)				// Blink = 1 └╠╕ώ
    4b9c:	80 91 02 4b 	lds	r24, 0x4B02	; 0x804b02 <Blink>
    4ba0:	88 23       	and	r24, r24
    4ba2:	21 f0       	breq	.+8      	; 0x4bac <RTC_Set+0x296>
				{
					DIGIT[0][1] = FND_OFF;		// ╖╬╡ί╝┐ Month └┌╕χ OFF
    4ba4:	fd 01       	movw	r30, r26
    4ba6:	11 82       	std	Z+1, r1	; 0x01
					DIGIT[0][0] = FND_OFF;
    4ba8:	10 82       	st	Z, r1
    4baa:	1e c0       	rjmp	.+60     	; 0x4be8 <RTC_Set+0x2d2>
				}
				else					// Blink = 0 └╠╕ώ
				{
					DIGIT[0][1] = fnd_tbl[RTC_T.Month / 10];// ╖╬╡ί╝┐ Month └┌╕χ ╟ξ╜├
    4bac:	e0 91 c5 4a 	lds	r30, 0x4AC5	; 0x804ac5 <RTC_T+0x5>
    4bb0:	8d ec       	ldi	r24, 0xCD	; 205
    4bb2:	e8 9f       	mul	r30, r24
    4bb4:	81 2d       	mov	r24, r1
    4bb6:	11 24       	eor	r1, r1
    4bb8:	86 95       	lsr	r24
    4bba:	86 95       	lsr	r24
    4bbc:	86 95       	lsr	r24
    4bbe:	a8 2f       	mov	r26, r24
    4bc0:	b0 e0       	ldi	r27, 0x00	; 0
    4bc2:	a4 57       	subi	r26, 0x74	; 116
    4bc4:	bf 4b       	sbci	r27, 0xBF	; 191
    4bc6:	9c 91       	ld	r25, X
    4bc8:	a3 ec       	ldi	r26, 0xC3	; 195
    4bca:	b0 e4       	ldi	r27, 0x40	; 64
    4bcc:	11 96       	adiw	r26, 0x01	; 1
    4bce:	9c 93       	st	X, r25
    4bd0:	11 97       	sbiw	r26, 0x01	; 1
					DIGIT[0][0] = fnd_tbl[RTC_T.Month % 10];
    4bd2:	88 0f       	add	r24, r24
    4bd4:	98 2f       	mov	r25, r24
    4bd6:	99 0f       	add	r25, r25
    4bd8:	99 0f       	add	r25, r25
    4bda:	89 0f       	add	r24, r25
    4bdc:	e8 1b       	sub	r30, r24
    4bde:	f0 e0       	ldi	r31, 0x00	; 0
    4be0:	e4 57       	subi	r30, 0x74	; 116
    4be2:	ff 4b       	sbci	r31, 0xBF	; 191
    4be4:	80 81       	ld	r24, Z
    4be6:	8c 93       	st	X, r24
				}

				if(KEY.Buff)				// Key └╘╖┬└╠ └╓└╕╕ώ
    4be8:	80 91 d6 4a 	lds	r24, 0x4AD6	; 0x804ad6 <KEY+0x1>
    4bec:	88 23       	and	r24, r24
    4bee:	09 f4       	brne	.+2      	; 0x4bf2 <RTC_Set+0x2dc>
    4bf0:	c3 c1       	rjmp	.+902    	; 0x4f78 <RTC_Set+0x662>
				{
					if     (KEY.Key == 1 && RTC_T.Month < 12) {RTC_T.Month ++; KEY.Key = 0;}// ╛≈  ╣÷╞░ └╠╕ώ Month ┴Ϋ░κ
    4bf2:	80 91 d7 4a 	lds	r24, 0x4AD7	; 0x804ad7 <KEY+0x2>
    4bf6:	81 30       	cpi	r24, 0x01	; 1
    4bf8:	51 f4       	brne	.+20     	; 0x4c0e <RTC_Set+0x2f8>
    4bfa:	80 91 c5 4a 	lds	r24, 0x4AC5	; 0x804ac5 <RTC_T+0x5>
    4bfe:	8c 30       	cpi	r24, 0x0C	; 12
    4c00:	30 f4       	brcc	.+12     	; 0x4c0e <RTC_Set+0x2f8>
    4c02:	8f 5f       	subi	r24, 0xFF	; 255
    4c04:	80 93 c5 4a 	sts	0x4AC5, r24	; 0x804ac5 <RTC_T+0x5>
    4c08:	10 92 d7 4a 	sts	0x4AD7, r1	; 0x804ad7 <KEY+0x2>
    4c0c:	b5 c1       	rjmp	.+874    	; 0x4f78 <RTC_Set+0x662>
					else if(KEY.Key == 3 && RTC_T.Month >  1) {RTC_T.Month --; KEY.Key = 0;}// ┤┘┐Ό╣÷╞░ └╠╕ώ Month ░ρ╝╥
    4c0e:	80 91 d7 4a 	lds	r24, 0x4AD7	; 0x804ad7 <KEY+0x2>
    4c12:	83 30       	cpi	r24, 0x03	; 3
    4c14:	09 f0       	breq	.+2      	; 0x4c18 <RTC_Set+0x302>
    4c16:	b0 c1       	rjmp	.+864    	; 0x4f78 <RTC_Set+0x662>
    4c18:	80 91 c5 4a 	lds	r24, 0x4AC5	; 0x804ac5 <RTC_T+0x5>
    4c1c:	82 30       	cpi	r24, 0x02	; 2
    4c1e:	08 f4       	brcc	.+2      	; 0x4c22 <RTC_Set+0x30c>
    4c20:	ab c1       	rjmp	.+854    	; 0x4f78 <RTC_Set+0x662>
    4c22:	81 50       	subi	r24, 0x01	; 1
    4c24:	80 93 c5 4a 	sts	0x4AC5, r24	; 0x804ac5 <RTC_T+0x5>
    4c28:	10 92 d7 4a 	sts	0x4AD7, r1	; 0x804ad7 <KEY+0x2>
    4c2c:	a5 c1       	rjmp	.+842    	; 0x4f78 <RTC_Set+0x662>
				}
			break;

			case 2:						// └╧ ╟ξ╜├ ╣╫ ╝│┴ν
				DIGIT[0][1] = fnd_tbl[RTC_T.Month / 10];// ┐∙ ╟ξ╜├
    4c2e:	e0 91 c5 4a 	lds	r30, 0x4AC5	; 0x804ac5 <RTC_T+0x5>
    4c32:	8d ec       	ldi	r24, 0xCD	; 205
    4c34:	e8 9f       	mul	r30, r24
    4c36:	81 2d       	mov	r24, r1
    4c38:	11 24       	eor	r1, r1
    4c3a:	86 95       	lsr	r24
    4c3c:	86 95       	lsr	r24
    4c3e:	86 95       	lsr	r24
    4c40:	a8 2f       	mov	r26, r24
    4c42:	b0 e0       	ldi	r27, 0x00	; 0
    4c44:	a4 57       	subi	r26, 0x74	; 116
    4c46:	bf 4b       	sbci	r27, 0xBF	; 191
    4c48:	9c 91       	ld	r25, X
    4c4a:	a3 ec       	ldi	r26, 0xC3	; 195
    4c4c:	b0 e4       	ldi	r27, 0x40	; 64
    4c4e:	11 96       	adiw	r26, 0x01	; 1
    4c50:	9c 93       	st	X, r25
    4c52:	11 97       	sbiw	r26, 0x01	; 1
				DIGIT[0][0] = fnd_tbl[RTC_T.Month % 10];
    4c54:	88 0f       	add	r24, r24
    4c56:	98 2f       	mov	r25, r24
    4c58:	99 0f       	add	r25, r25
    4c5a:	99 0f       	add	r25, r25
    4c5c:	89 0f       	add	r24, r25
    4c5e:	e8 1b       	sub	r30, r24
    4c60:	f0 e0       	ldi	r31, 0x00	; 0
    4c62:	e4 57       	subi	r30, 0x74	; 116
    4c64:	ff 4b       	sbci	r31, 0xBF	; 191
    4c66:	80 81       	ld	r24, Z
    4c68:	8c 93       	st	X, r24
				if(Blink)				// Blink = 1 └╠╕ώ
    4c6a:	80 91 02 4b 	lds	r24, 0x4B02	; 0x804b02 <Blink>
    4c6e:	88 23       	and	r24, r24
    4c70:	21 f0       	breq	.+8      	; 0x4c7a <RTC_Set+0x364>
				{
					DIGIT[1][3] = FND_OFF;		// ╖╬╡ί╝┐ Date └┌╕χ OFF
    4c72:	fd 01       	movw	r30, r26
    4c74:	17 82       	std	Z+7, r1	; 0x07
					DIGIT[1][2] = FND_OFF;
    4c76:	16 82       	std	Z+6, r1	; 0x06
    4c78:	1f c0       	rjmp	.+62     	; 0x4cb8 <RTC_Set+0x3a2>
				}
				else					// Blink = 0 └╠╕ώ
				{
					DIGIT[1][3] = fnd_tbl[RTC_T.Date / 10];	// ╖╬╡ί╝┐ Date └┌╕χ ╟ξ╜├
    4c7a:	e0 91 c4 4a 	lds	r30, 0x4AC4	; 0x804ac4 <RTC_T+0x4>
    4c7e:	8d ec       	ldi	r24, 0xCD	; 205
    4c80:	e8 9f       	mul	r30, r24
    4c82:	81 2d       	mov	r24, r1
    4c84:	11 24       	eor	r1, r1
    4c86:	86 95       	lsr	r24
    4c88:	86 95       	lsr	r24
    4c8a:	86 95       	lsr	r24
    4c8c:	a8 2f       	mov	r26, r24
    4c8e:	b0 e0       	ldi	r27, 0x00	; 0
    4c90:	a4 57       	subi	r26, 0x74	; 116
    4c92:	bf 4b       	sbci	r27, 0xBF	; 191
    4c94:	9c 91       	ld	r25, X
    4c96:	a3 ec       	ldi	r26, 0xC3	; 195
    4c98:	b0 e4       	ldi	r27, 0x40	; 64
    4c9a:	17 96       	adiw	r26, 0x07	; 7
    4c9c:	9c 93       	st	X, r25
    4c9e:	17 97       	sbiw	r26, 0x07	; 7
					DIGIT[1][2] = fnd_tbl[RTC_T.Date % 10];
    4ca0:	88 0f       	add	r24, r24
    4ca2:	98 2f       	mov	r25, r24
    4ca4:	99 0f       	add	r25, r25
    4ca6:	99 0f       	add	r25, r25
    4ca8:	89 0f       	add	r24, r25
    4caa:	e8 1b       	sub	r30, r24
    4cac:	f0 e0       	ldi	r31, 0x00	; 0
    4cae:	e4 57       	subi	r30, 0x74	; 116
    4cb0:	ff 4b       	sbci	r31, 0xBF	; 191
    4cb2:	80 81       	ld	r24, Z
    4cb4:	16 96       	adiw	r26, 0x06	; 6
    4cb6:	8c 93       	st	X, r24
				}

				if(KEY.Buff)				// Key └╘╖┬└╠ └╓└╕╕ώ
    4cb8:	80 91 d6 4a 	lds	r24, 0x4AD6	; 0x804ad6 <KEY+0x1>
    4cbc:	88 23       	and	r24, r24
    4cbe:	09 f4       	brne	.+2      	; 0x4cc2 <RTC_Set+0x3ac>
    4cc0:	5b c1       	rjmp	.+694    	; 0x4f78 <RTC_Set+0x662>
				{
					if     (KEY.Key == 1 && RTC_T.Date < 31) {RTC_T.Date ++; KEY.Key = 0;}	// ╛≈  ╣÷╞░ └╠╕ώ Date ┴Ϋ░κ
    4cc2:	80 91 d7 4a 	lds	r24, 0x4AD7	; 0x804ad7 <KEY+0x2>
    4cc6:	81 30       	cpi	r24, 0x01	; 1
    4cc8:	51 f4       	brne	.+20     	; 0x4cde <RTC_Set+0x3c8>
    4cca:	80 91 c4 4a 	lds	r24, 0x4AC4	; 0x804ac4 <RTC_T+0x4>
    4cce:	8f 31       	cpi	r24, 0x1F	; 31
    4cd0:	30 f4       	brcc	.+12     	; 0x4cde <RTC_Set+0x3c8>
    4cd2:	8f 5f       	subi	r24, 0xFF	; 255
    4cd4:	80 93 c4 4a 	sts	0x4AC4, r24	; 0x804ac4 <RTC_T+0x4>
    4cd8:	10 92 d7 4a 	sts	0x4AD7, r1	; 0x804ad7 <KEY+0x2>
    4cdc:	4d c1       	rjmp	.+666    	; 0x4f78 <RTC_Set+0x662>
					else if(KEY.Key == 3 && RTC_T.Date >  1) {RTC_T.Date --; KEY.Key = 0;}	// ┤┘┐Ό╣÷╞░ └╠╕ώ Date ░ρ╝╥
    4cde:	80 91 d7 4a 	lds	r24, 0x4AD7	; 0x804ad7 <KEY+0x2>
    4ce2:	83 30       	cpi	r24, 0x03	; 3
    4ce4:	09 f0       	breq	.+2      	; 0x4ce8 <RTC_Set+0x3d2>
    4ce6:	48 c1       	rjmp	.+656    	; 0x4f78 <RTC_Set+0x662>
    4ce8:	80 91 c4 4a 	lds	r24, 0x4AC4	; 0x804ac4 <RTC_T+0x4>
    4cec:	82 30       	cpi	r24, 0x02	; 2
    4cee:	08 f4       	brcc	.+2      	; 0x4cf2 <RTC_Set+0x3dc>
    4cf0:	43 c1       	rjmp	.+646    	; 0x4f78 <RTC_Set+0x662>
    4cf2:	81 50       	subi	r24, 0x01	; 1
    4cf4:	80 93 c4 4a 	sts	0x4AC4, r24	; 0x804ac4 <RTC_T+0x4>
    4cf8:	10 92 d7 4a 	sts	0x4AD7, r1	; 0x804ad7 <KEY+0x2>
    4cfc:	3d c1       	rjmp	.+634    	; 0x4f78 <RTC_Set+0x662>
				}
			break;

			case 3:						// ╜├ ╟ξ╜├ ╣╫ ╝│┴ν
				DIGIT[1][3] = fnd_tbl[RTC_T.Date / 10];	// └╧ ╟ξ╜├
    4cfe:	e0 91 c4 4a 	lds	r30, 0x4AC4	; 0x804ac4 <RTC_T+0x4>
    4d02:	8d ec       	ldi	r24, 0xCD	; 205
    4d04:	e8 9f       	mul	r30, r24
    4d06:	81 2d       	mov	r24, r1
    4d08:	11 24       	eor	r1, r1
    4d0a:	86 95       	lsr	r24
    4d0c:	86 95       	lsr	r24
    4d0e:	86 95       	lsr	r24
    4d10:	a8 2f       	mov	r26, r24
    4d12:	b0 e0       	ldi	r27, 0x00	; 0
    4d14:	a4 57       	subi	r26, 0x74	; 116
    4d16:	bf 4b       	sbci	r27, 0xBF	; 191
    4d18:	9c 91       	ld	r25, X
    4d1a:	a3 ec       	ldi	r26, 0xC3	; 195
    4d1c:	b0 e4       	ldi	r27, 0x40	; 64
    4d1e:	17 96       	adiw	r26, 0x07	; 7
    4d20:	9c 93       	st	X, r25
    4d22:	17 97       	sbiw	r26, 0x07	; 7
				DIGIT[1][2] = fnd_tbl[RTC_T.Date % 10];
    4d24:	88 0f       	add	r24, r24
    4d26:	98 2f       	mov	r25, r24
    4d28:	99 0f       	add	r25, r25
    4d2a:	99 0f       	add	r25, r25
    4d2c:	89 0f       	add	r24, r25
    4d2e:	e8 1b       	sub	r30, r24
    4d30:	f0 e0       	ldi	r31, 0x00	; 0
    4d32:	e4 57       	subi	r30, 0x74	; 116
    4d34:	ff 4b       	sbci	r31, 0xBF	; 191
    4d36:	80 81       	ld	r24, Z
    4d38:	16 96       	adiw	r26, 0x06	; 6
    4d3a:	8c 93       	st	X, r24
    4d3c:	16 97       	sbiw	r26, 0x06	; 6
				if(Blink)				// Blink = 1 └╠╕ώ
    4d3e:	80 91 02 4b 	lds	r24, 0x4B02	; 0x804b02 <Blink>
    4d42:	88 23       	and	r24, r24
    4d44:	21 f0       	breq	.+8      	; 0x4d4e <RTC_Set+0x438>
				{
					DIGIT[1][1] = FND_OFF;		// ╖╬╡ί╝┐ Hour └┌╕χ OFF
    4d46:	fd 01       	movw	r30, r26
    4d48:	15 82       	std	Z+5, r1	; 0x05
					DIGIT[1][0] = FND_OFF;
    4d4a:	14 82       	std	Z+4, r1	; 0x04
    4d4c:	1f c0       	rjmp	.+62     	; 0x4d8c <RTC_Set+0x476>
				}
				else					// Blink = 0 └╠╕ώ
				{
					DIGIT[1][1] = fnd_tbl[RTC_T.Hour / 10];	// ╖╬╡ί╝┐ Hour └┌╕χ ╟ξ╜├
    4d4e:	e0 91 c2 4a 	lds	r30, 0x4AC2	; 0x804ac2 <RTC_T+0x2>
    4d52:	8d ec       	ldi	r24, 0xCD	; 205
    4d54:	e8 9f       	mul	r30, r24
    4d56:	81 2d       	mov	r24, r1
    4d58:	11 24       	eor	r1, r1
    4d5a:	86 95       	lsr	r24
    4d5c:	86 95       	lsr	r24
    4d5e:	86 95       	lsr	r24
    4d60:	a8 2f       	mov	r26, r24
    4d62:	b0 e0       	ldi	r27, 0x00	; 0
    4d64:	a4 57       	subi	r26, 0x74	; 116
    4d66:	bf 4b       	sbci	r27, 0xBF	; 191
    4d68:	9c 91       	ld	r25, X
    4d6a:	a3 ec       	ldi	r26, 0xC3	; 195
    4d6c:	b0 e4       	ldi	r27, 0x40	; 64
    4d6e:	15 96       	adiw	r26, 0x05	; 5
    4d70:	9c 93       	st	X, r25
    4d72:	15 97       	sbiw	r26, 0x05	; 5
					DIGIT[1][0] = fnd_tbl[RTC_T.Hour % 10];
    4d74:	88 0f       	add	r24, r24
    4d76:	98 2f       	mov	r25, r24
    4d78:	99 0f       	add	r25, r25
    4d7a:	99 0f       	add	r25, r25
    4d7c:	89 0f       	add	r24, r25
    4d7e:	e8 1b       	sub	r30, r24
    4d80:	f0 e0       	ldi	r31, 0x00	; 0
    4d82:	e4 57       	subi	r30, 0x74	; 116
    4d84:	ff 4b       	sbci	r31, 0xBF	; 191
    4d86:	80 81       	ld	r24, Z
    4d88:	14 96       	adiw	r26, 0x04	; 4
    4d8a:	8c 93       	st	X, r24
				}

				if(KEY.Buff)				// Key └╘╖┬└╠ └╓└╕╕ώ
    4d8c:	80 91 d6 4a 	lds	r24, 0x4AD6	; 0x804ad6 <KEY+0x1>
    4d90:	88 23       	and	r24, r24
    4d92:	09 f4       	brne	.+2      	; 0x4d96 <RTC_Set+0x480>
    4d94:	f1 c0       	rjmp	.+482    	; 0x4f78 <RTC_Set+0x662>
				{
					if     (KEY.Key == 1 && RTC_T.Hour < 23) {RTC_T.Hour ++; KEY.Key = 0;}	// ╛≈  ╣÷╞░ └╠╕ώ Hour ┴Ϋ░κ
    4d96:	80 91 d7 4a 	lds	r24, 0x4AD7	; 0x804ad7 <KEY+0x2>
    4d9a:	81 30       	cpi	r24, 0x01	; 1
    4d9c:	51 f4       	brne	.+20     	; 0x4db2 <RTC_Set+0x49c>
    4d9e:	80 91 c2 4a 	lds	r24, 0x4AC2	; 0x804ac2 <RTC_T+0x2>
    4da2:	87 31       	cpi	r24, 0x17	; 23
    4da4:	30 f4       	brcc	.+12     	; 0x4db2 <RTC_Set+0x49c>
    4da6:	8f 5f       	subi	r24, 0xFF	; 255
    4da8:	80 93 c2 4a 	sts	0x4AC2, r24	; 0x804ac2 <RTC_T+0x2>
    4dac:	10 92 d7 4a 	sts	0x4AD7, r1	; 0x804ad7 <KEY+0x2>
    4db0:	e3 c0       	rjmp	.+454    	; 0x4f78 <RTC_Set+0x662>
					else if(KEY.Key == 3 && RTC_T.Hour >  0) {RTC_T.Hour --; KEY.Key = 0;}	// ┤┘┐Ό╣÷╞░ └╠╕ώ Hour ░ρ╝╥
    4db2:	80 91 d7 4a 	lds	r24, 0x4AD7	; 0x804ad7 <KEY+0x2>
    4db6:	83 30       	cpi	r24, 0x03	; 3
    4db8:	09 f0       	breq	.+2      	; 0x4dbc <RTC_Set+0x4a6>
    4dba:	de c0       	rjmp	.+444    	; 0x4f78 <RTC_Set+0x662>
    4dbc:	80 91 c2 4a 	lds	r24, 0x4AC2	; 0x804ac2 <RTC_T+0x2>
    4dc0:	88 23       	and	r24, r24
    4dc2:	09 f4       	brne	.+2      	; 0x4dc6 <RTC_Set+0x4b0>
    4dc4:	d9 c0       	rjmp	.+434    	; 0x4f78 <RTC_Set+0x662>
    4dc6:	81 50       	subi	r24, 0x01	; 1
    4dc8:	80 93 c2 4a 	sts	0x4AC2, r24	; 0x804ac2 <RTC_T+0x2>
    4dcc:	10 92 d7 4a 	sts	0x4AD7, r1	; 0x804ad7 <KEY+0x2>
    4dd0:	d3 c0       	rjmp	.+422    	; 0x4f78 <RTC_Set+0x662>
				}
			break;

			case 4:						// ║╨ ╟ξ╜├ ╣╫ ╝│┴ν
				DIGIT[1][1] = fnd_tbl[RTC_T.Hour / 10];	// ╜├ ╟ξ╜├
    4dd2:	e0 91 c2 4a 	lds	r30, 0x4AC2	; 0x804ac2 <RTC_T+0x2>
    4dd6:	8d ec       	ldi	r24, 0xCD	; 205
    4dd8:	e8 9f       	mul	r30, r24
    4dda:	81 2d       	mov	r24, r1
    4ddc:	11 24       	eor	r1, r1
    4dde:	86 95       	lsr	r24
    4de0:	86 95       	lsr	r24
    4de2:	86 95       	lsr	r24
    4de4:	a8 2f       	mov	r26, r24
    4de6:	b0 e0       	ldi	r27, 0x00	; 0
    4de8:	a4 57       	subi	r26, 0x74	; 116
    4dea:	bf 4b       	sbci	r27, 0xBF	; 191
    4dec:	9c 91       	ld	r25, X
    4dee:	a3 ec       	ldi	r26, 0xC3	; 195
    4df0:	b0 e4       	ldi	r27, 0x40	; 64
    4df2:	15 96       	adiw	r26, 0x05	; 5
    4df4:	9c 93       	st	X, r25
    4df6:	15 97       	sbiw	r26, 0x05	; 5
				DIGIT[1][0] = fnd_tbl[RTC_T.Hour % 10];
    4df8:	88 0f       	add	r24, r24
    4dfa:	98 2f       	mov	r25, r24
    4dfc:	99 0f       	add	r25, r25
    4dfe:	99 0f       	add	r25, r25
    4e00:	89 0f       	add	r24, r25
    4e02:	e8 1b       	sub	r30, r24
    4e04:	f0 e0       	ldi	r31, 0x00	; 0
    4e06:	e4 57       	subi	r30, 0x74	; 116
    4e08:	ff 4b       	sbci	r31, 0xBF	; 191
    4e0a:	80 81       	ld	r24, Z
    4e0c:	14 96       	adiw	r26, 0x04	; 4
    4e0e:	8c 93       	st	X, r24
    4e10:	14 97       	sbiw	r26, 0x04	; 4
				if(Blink)				// Blink = 1 └╠╕ώ
    4e12:	80 91 02 4b 	lds	r24, 0x4B02	; 0x804b02 <Blink>
    4e16:	88 23       	and	r24, r24
    4e18:	21 f0       	breq	.+8      	; 0x4e22 <RTC_Set+0x50c>
				{
					DIGIT[2][3] = FND_OFF;		// ╖╬╡ί╝┐ Min └┌╕χ OFF
    4e1a:	fd 01       	movw	r30, r26
    4e1c:	13 86       	std	Z+11, r1	; 0x0b
					DIGIT[2][2] = FND_OFF;
    4e1e:	12 86       	std	Z+10, r1	; 0x0a
    4e20:	1f c0       	rjmp	.+62     	; 0x4e60 <RTC_Set+0x54a>
				}
				else					// Blink = 0 └╠╕ώ
				{
					DIGIT[2][3] = fnd_tbl[RTC_T.Min / 10];	// ╖╬╡ί╝┐ Min └┌╕χ ╟ξ╜├
    4e22:	e0 91 c1 4a 	lds	r30, 0x4AC1	; 0x804ac1 <RTC_T+0x1>
    4e26:	8d ec       	ldi	r24, 0xCD	; 205
    4e28:	e8 9f       	mul	r30, r24
    4e2a:	81 2d       	mov	r24, r1
    4e2c:	11 24       	eor	r1, r1
    4e2e:	86 95       	lsr	r24
    4e30:	86 95       	lsr	r24
    4e32:	86 95       	lsr	r24
    4e34:	a8 2f       	mov	r26, r24
    4e36:	b0 e0       	ldi	r27, 0x00	; 0
    4e38:	a4 57       	subi	r26, 0x74	; 116
    4e3a:	bf 4b       	sbci	r27, 0xBF	; 191
    4e3c:	9c 91       	ld	r25, X
    4e3e:	a3 ec       	ldi	r26, 0xC3	; 195
    4e40:	b0 e4       	ldi	r27, 0x40	; 64
    4e42:	1b 96       	adiw	r26, 0x0b	; 11
    4e44:	9c 93       	st	X, r25
    4e46:	1b 97       	sbiw	r26, 0x0b	; 11
					DIGIT[2][2] = fnd_tbl[RTC_T.Min % 10];
    4e48:	88 0f       	add	r24, r24
    4e4a:	98 2f       	mov	r25, r24
    4e4c:	99 0f       	add	r25, r25
    4e4e:	99 0f       	add	r25, r25
    4e50:	89 0f       	add	r24, r25
    4e52:	e8 1b       	sub	r30, r24
    4e54:	f0 e0       	ldi	r31, 0x00	; 0
    4e56:	e4 57       	subi	r30, 0x74	; 116
    4e58:	ff 4b       	sbci	r31, 0xBF	; 191
    4e5a:	80 81       	ld	r24, Z
    4e5c:	1a 96       	adiw	r26, 0x0a	; 10
    4e5e:	8c 93       	st	X, r24
				}

				if(KEY.Buff)				// Key └╘╖┬└╠ └╓└╕╕ώ
    4e60:	80 91 d6 4a 	lds	r24, 0x4AD6	; 0x804ad6 <KEY+0x1>
    4e64:	88 23       	and	r24, r24
    4e66:	09 f4       	brne	.+2      	; 0x4e6a <RTC_Set+0x554>
    4e68:	87 c0       	rjmp	.+270    	; 0x4f78 <RTC_Set+0x662>
				{
					if     (KEY.Key == 1 && RTC_T.Min < 59) {RTC_T.Min ++; KEY.Key = 0;}	// ╛≈  ╣÷╞░ └╠╕ώ Min ┴Ϋ░κ
    4e6a:	80 91 d7 4a 	lds	r24, 0x4AD7	; 0x804ad7 <KEY+0x2>
    4e6e:	81 30       	cpi	r24, 0x01	; 1
    4e70:	51 f4       	brne	.+20     	; 0x4e86 <RTC_Set+0x570>
    4e72:	80 91 c1 4a 	lds	r24, 0x4AC1	; 0x804ac1 <RTC_T+0x1>
    4e76:	8b 33       	cpi	r24, 0x3B	; 59
    4e78:	30 f4       	brcc	.+12     	; 0x4e86 <RTC_Set+0x570>
    4e7a:	8f 5f       	subi	r24, 0xFF	; 255
    4e7c:	80 93 c1 4a 	sts	0x4AC1, r24	; 0x804ac1 <RTC_T+0x1>
    4e80:	10 92 d7 4a 	sts	0x4AD7, r1	; 0x804ad7 <KEY+0x2>
    4e84:	79 c0       	rjmp	.+242    	; 0x4f78 <RTC_Set+0x662>
					else if(KEY.Key == 3 && RTC_T.Min >  0) {RTC_T.Min --; KEY.Key = 0;}	// ┤┘┐Ό╣÷╞░ └╠╕ώ Min ░ρ╝╥
    4e86:	80 91 d7 4a 	lds	r24, 0x4AD7	; 0x804ad7 <KEY+0x2>
    4e8a:	83 30       	cpi	r24, 0x03	; 3
    4e8c:	09 f0       	breq	.+2      	; 0x4e90 <RTC_Set+0x57a>
    4e8e:	74 c0       	rjmp	.+232    	; 0x4f78 <RTC_Set+0x662>
    4e90:	80 91 c1 4a 	lds	r24, 0x4AC1	; 0x804ac1 <RTC_T+0x1>
    4e94:	88 23       	and	r24, r24
    4e96:	09 f4       	brne	.+2      	; 0x4e9a <RTC_Set+0x584>
    4e98:	6f c0       	rjmp	.+222    	; 0x4f78 <RTC_Set+0x662>
    4e9a:	81 50       	subi	r24, 0x01	; 1
    4e9c:	80 93 c1 4a 	sts	0x4AC1, r24	; 0x804ac1 <RTC_T+0x1>
    4ea0:	10 92 d7 4a 	sts	0x4AD7, r1	; 0x804ad7 <KEY+0x2>
    4ea4:	69 c0       	rjmp	.+210    	; 0x4f78 <RTC_Set+0x662>
				}
			break;

			case 5:						// ╖╬╡ί╝┐ RO 10└╟ └┌╕χ
				DIGIT[2][3] = fnd_tbl[RTC_T.Min / 10];	// ║╨ ╟ξ╜├
    4ea6:	e0 91 c1 4a 	lds	r30, 0x4AC1	; 0x804ac1 <RTC_T+0x1>
    4eaa:	8d ec       	ldi	r24, 0xCD	; 205
    4eac:	e8 9f       	mul	r30, r24
    4eae:	81 2d       	mov	r24, r1
    4eb0:	11 24       	eor	r1, r1
    4eb2:	86 95       	lsr	r24
    4eb4:	86 95       	lsr	r24
    4eb6:	86 95       	lsr	r24
    4eb8:	a8 2f       	mov	r26, r24
    4eba:	b0 e0       	ldi	r27, 0x00	; 0
    4ebc:	a4 57       	subi	r26, 0x74	; 116
    4ebe:	bf 4b       	sbci	r27, 0xBF	; 191
    4ec0:	9c 91       	ld	r25, X
    4ec2:	a3 ec       	ldi	r26, 0xC3	; 195
    4ec4:	b0 e4       	ldi	r27, 0x40	; 64
    4ec6:	1b 96       	adiw	r26, 0x0b	; 11
    4ec8:	9c 93       	st	X, r25
    4eca:	1b 97       	sbiw	r26, 0x0b	; 11
				DIGIT[2][2] = fnd_tbl[RTC_T.Min % 10];
    4ecc:	88 0f       	add	r24, r24
    4ece:	98 2f       	mov	r25, r24
    4ed0:	99 0f       	add	r25, r25
    4ed2:	99 0f       	add	r25, r25
    4ed4:	89 0f       	add	r24, r25
    4ed6:	e8 1b       	sub	r30, r24
    4ed8:	f0 e0       	ldi	r31, 0x00	; 0
    4eda:	e4 57       	subi	r30, 0x74	; 116
    4edc:	ff 4b       	sbci	r31, 0xBF	; 191
    4ede:	80 81       	ld	r24, Z
    4ee0:	1a 96       	adiw	r26, 0x0a	; 10
    4ee2:	8c 93       	st	X, r24
    4ee4:	1a 97       	sbiw	r26, 0x0a	; 10
				if(Blink)				// Blink = 1 └╠╕ώ
    4ee6:	80 91 02 4b 	lds	r24, 0x4B02	; 0x804b02 <Blink>
    4eea:	88 23       	and	r24, r24
    4eec:	21 f0       	breq	.+8      	; 0x4ef6 <RTC_Set+0x5e0>
				{
					DIGIT[2][1] = FND_OFF;		// ╖╬╡ί╝┐ Sec └┌╕χ OFF
    4eee:	fd 01       	movw	r30, r26
    4ef0:	11 86       	std	Z+9, r1	; 0x09
					DIGIT[2][0] = FND_OFF;
    4ef2:	10 86       	std	Z+8, r1	; 0x08
    4ef4:	1f c0       	rjmp	.+62     	; 0x4f34 <RTC_Set+0x61e>
				}
				else					// Blink = 0 └╠╕ώ
				{
					DIGIT[2][1] = fnd_tbl[RTC_T.Sec / 10];	// ╖╬╡ί╝┐ Sec └┌╕χ ╟ξ╜├
    4ef6:	e0 91 c0 4a 	lds	r30, 0x4AC0	; 0x804ac0 <RTC_T>
    4efa:	8d ec       	ldi	r24, 0xCD	; 205
    4efc:	e8 9f       	mul	r30, r24
    4efe:	81 2d       	mov	r24, r1
    4f00:	11 24       	eor	r1, r1
    4f02:	86 95       	lsr	r24
    4f04:	86 95       	lsr	r24
    4f06:	86 95       	lsr	r24
    4f08:	a8 2f       	mov	r26, r24
    4f0a:	b0 e0       	ldi	r27, 0x00	; 0
    4f0c:	a4 57       	subi	r26, 0x74	; 116
    4f0e:	bf 4b       	sbci	r27, 0xBF	; 191
    4f10:	9c 91       	ld	r25, X
    4f12:	a3 ec       	ldi	r26, 0xC3	; 195
    4f14:	b0 e4       	ldi	r27, 0x40	; 64
    4f16:	19 96       	adiw	r26, 0x09	; 9
    4f18:	9c 93       	st	X, r25
    4f1a:	19 97       	sbiw	r26, 0x09	; 9
					DIGIT[2][0] = fnd_tbl[RTC_T.Sec % 10];
    4f1c:	88 0f       	add	r24, r24
    4f1e:	98 2f       	mov	r25, r24
    4f20:	99 0f       	add	r25, r25
    4f22:	99 0f       	add	r25, r25
    4f24:	89 0f       	add	r24, r25
    4f26:	e8 1b       	sub	r30, r24
    4f28:	f0 e0       	ldi	r31, 0x00	; 0
    4f2a:	e4 57       	subi	r30, 0x74	; 116
    4f2c:	ff 4b       	sbci	r31, 0xBF	; 191
    4f2e:	80 81       	ld	r24, Z
    4f30:	18 96       	adiw	r26, 0x08	; 8
    4f32:	8c 93       	st	X, r24
				}

				if(KEY.Buff)				// Key └╘╖┬└╠ └╓└╕╕ώ
    4f34:	80 91 d6 4a 	lds	r24, 0x4AD6	; 0x804ad6 <KEY+0x1>
    4f38:	88 23       	and	r24, r24
    4f3a:	f1 f0       	breq	.+60     	; 0x4f78 <RTC_Set+0x662>
				{
					if     (KEY.Key == 1 && RTC_T.Sec < 59) {RTC_T.Sec++; KEY.Key = 0;}	// ╛≈  ╣÷╞░ └╠╕ώ Sec ┴Ϋ░κ
    4f3c:	80 91 d7 4a 	lds	r24, 0x4AD7	; 0x804ad7 <KEY+0x2>
    4f40:	81 30       	cpi	r24, 0x01	; 1
    4f42:	51 f4       	brne	.+20     	; 0x4f58 <RTC_Set+0x642>
    4f44:	80 91 c0 4a 	lds	r24, 0x4AC0	; 0x804ac0 <RTC_T>
    4f48:	8b 33       	cpi	r24, 0x3B	; 59
    4f4a:	30 f4       	brcc	.+12     	; 0x4f58 <RTC_Set+0x642>
    4f4c:	8f 5f       	subi	r24, 0xFF	; 255
    4f4e:	80 93 c0 4a 	sts	0x4AC0, r24	; 0x804ac0 <RTC_T>
    4f52:	10 92 d7 4a 	sts	0x4AD7, r1	; 0x804ad7 <KEY+0x2>
    4f56:	10 c0       	rjmp	.+32     	; 0x4f78 <RTC_Set+0x662>
					else if(KEY.Key == 3 && RTC_T.Sec >  0) {RTC_T.Sec--; KEY.Key = 0;}	// ┤┘┐Ό╣÷╞░ └╠╕ώ Sec ░ρ╝╥
    4f58:	80 91 d7 4a 	lds	r24, 0x4AD7	; 0x804ad7 <KEY+0x2>
    4f5c:	83 30       	cpi	r24, 0x03	; 3
    4f5e:	61 f4       	brne	.+24     	; 0x4f78 <RTC_Set+0x662>
    4f60:	80 91 c0 4a 	lds	r24, 0x4AC0	; 0x804ac0 <RTC_T>
    4f64:	88 23       	and	r24, r24
    4f66:	41 f0       	breq	.+16     	; 0x4f78 <RTC_Set+0x662>
    4f68:	81 50       	subi	r24, 0x01	; 1
    4f6a:	80 93 c0 4a 	sts	0x4AC0, r24	; 0x804ac0 <RTC_T>
    4f6e:	10 92 d7 4a 	sts	0x4AD7, r1	; 0x804ad7 <KEY+0x2>
    4f72:	02 c0       	rjmp	.+4      	; 0x4f78 <RTC_Set+0x662>
				}
			break;
			
			case 6:
				KEY.Count = 0;				// ╣▌║╣└╗ └π╟╪ Count╕ο ├╓└·╖╬ ░ρ╝╥ ╜├┼┤
    4f74:	10 92 d5 4a 	sts	0x4AD5, r1	; 0x804ad5 <KEY>
			break;
		}
		wdt_reset();						// ┐÷─κ╡╢ ╕χ╝┬
    4f78:	0e 94 78 0c 	call	0x18f0	; 0x18f0 <wdt_reset>
	DIGIT[2][2] = fnd_tbl[RTC_T.Min % 10];

	DIGIT[2][1] = fnd_tbl[RTC_T.Sec / 10];				// ├╩ ╟ξ╜├
	DIGIT[2][0] = fnd_tbl[RTC_T.Sec % 10];

	while(SET.Menu)							// ╕▐┤║╕Ώ╡ί └╠╕ώ ╣▌║╣
    4f7c:	80 91 8f 4a 	lds	r24, 0x4A8F	; 0x804a8f <SET>
    4f80:	81 11       	cpse	r24, r1
    4f82:	72 cd       	rjmp	.-1308   	; 0x4a68 <RTC_Set+0x152>
				KEY.Count = 0;				// ╣▌║╣└╗ └π╟╪ Count╕ο ├╓└·╖╬ ░ρ╝╥ ╜├┼┤
			break;
		}
		wdt_reset();						// ┐÷─κ╡╢ ╕χ╝┬
	}
	RTC_Time_Write(RTC_YEAR,   RTC_T.Year);				// RTC ┐κ │έ └·└ί
    4f84:	c0 ec       	ldi	r28, 0xC0	; 192
    4f86:	da e4       	ldi	r29, 0x4A	; 74
    4f88:	6e 81       	ldd	r22, Y+6	; 0x06
    4f8a:	86 e0       	ldi	r24, 0x06	; 6
    4f8c:	0e 94 5d 24 	call	0x48ba	; 0x48ba <RTC_Time_Write>
	RTC_Time_Write(RTC_MONTH,  RTC_T.Month);			// RTC ┐κ ┐∙ └·└ί
    4f90:	6d 81       	ldd	r22, Y+5	; 0x05
    4f92:	85 e0       	ldi	r24, 0x05	; 5
    4f94:	0e 94 5d 24 	call	0x48ba	; 0x48ba <RTC_Time_Write>
	RTC_Time_Write(RTC_DATE,   RTC_T.Date);				// RTC ┐κ └╧ └·└ί
    4f98:	6c 81       	ldd	r22, Y+4	; 0x04
    4f9a:	84 e0       	ldi	r24, 0x04	; 4
    4f9c:	0e 94 5d 24 	call	0x48ba	; 0x48ba <RTC_Time_Write>
	RTC_Time_Write(RTC_HOUR,   RTC_T.Hour);				// RTC ┐κ ╜├ └·└ί
    4fa0:	6a 81       	ldd	r22, Y+2	; 0x02
    4fa2:	82 e0       	ldi	r24, 0x02	; 2
    4fa4:	0e 94 5d 24 	call	0x48ba	; 0x48ba <RTC_Time_Write>
	RTC_Time_Write(RTC_MINUTE, RTC_T.Min);				// RTC ┐κ ║╨ └·└ί
    4fa8:	69 81       	ldd	r22, Y+1	; 0x01
    4faa:	81 e0       	ldi	r24, 0x01	; 1
    4fac:	0e 94 5d 24 	call	0x48ba	; 0x48ba <RTC_Time_Write>
	RTC_Time_Write(RTC_SECOND, RTC_T.Sec);				// RTC ┐κ ├╩ └·└ί
    4fb0:	68 81       	ld	r22, Y
    4fb2:	80 e0       	ldi	r24, 0x00	; 0
    4fb4:	0e 94 5d 24 	call	0x48ba	; 0x48ba <RTC_Time_Write>
}
    4fb8:	df 91       	pop	r29
    4fba:	cf 91       	pop	r28
    4fbc:	08 95       	ret

00004fbe <SLPCTRL_init>:
    4fbe:	80 e0       	ldi	r24, 0x00	; 0
    4fc0:	08 95       	ret

00004fc2 <TIMER_1_init>:
	//		 | 0 << TCA_SINGLE_CNTBEI_bp /* Count on Event Input B: disabled */
	//		 | TCA_SINGLE_EVACTA_CNT_POSEDGE_gc /* Count on positive edge event */
	//		 | TCA_SINGLE_EVACTB_UPDOWN_gc; /* Count on prescaled clock. Event controls count direction. Up-count when
	//event line is 0, down-count when event line is 1. */

	TCA1.SINGLE.INTCTRL = 0 << TCA_SINGLE_CMP0_bp   /* Compare 0 Interrupt: disabled */
    4fc2:	e0 e4       	ldi	r30, 0x40	; 64
    4fc4:	fa e0       	ldi	r31, 0x0A	; 10
    4fc6:	81 e0       	ldi	r24, 0x01	; 1
    4fc8:	82 87       	std	Z+10, r24	; 0x0a
	                      | 0 << TCA_SINGLE_CMP1_bp /* Compare 1 Interrupt: disabled */
	                      | 0 << TCA_SINGLE_CMP2_bp /* Compare 2 Interrupt: disabled */
	                      | 1 << TCA_SINGLE_OVF_bp; /* Overflow Interrupt: enabled */

	TCA1.SINGLE.PER = 0x0047;	//   5mSec
    4fca:	87 e4       	ldi	r24, 0x47	; 71
    4fcc:	90 e0       	ldi	r25, 0x00	; 0
    4fce:	86 a3       	std	Z+38, r24	; 0x26
    4fd0:	97 a3       	std	Z+39, r25	; 0x27
	// TCA1.SINGLE.PER = 0x008F;	//  10mSec
	// TCA1.SINGLE.PER = 0x02CF;	//  50mSec
	// TCA1.SINGLE.PER = 0x1C20;	// 500mSec
	// TCA1.SINGLE.PER = 0x38B0;	//    1Sec

	TCA1.SINGLE.CTRLA = TCA_SINGLE_CLKSEL_DIV1024_gc      /* System Clock / 1024 */
    4fd2:	8f e0       	ldi	r24, 0x0F	; 15
    4fd4:	80 83       	st	Z, r24
	                    | 1 << TCA_SINGLE_ENABLE_bp    /* Module Enable: enabled */
	                    | 0 << TCA_SINGLE_RUNSTDBY_bp; /* RUN STANDBY: disabled */
	return 0;
}
    4fd6:	80 e0       	ldi	r24, 0x00	; 0
    4fd8:	08 95       	ret

00004fda <USART_1_init>:

//-------------------------------------------------------------------------------------------------
void Rx1_Buff_Clear(void)						// Rx1 Buffer Clear
{
	memset(Rx1_Buff, 0, RX1_SIZE);					// Rx1_Buff ╕ο Rx1_SIZE(250)╕╕┼φ 0└╕╖╬ ├╩▒έ╚φ
	Rx1_Cnt = 0;							// Rx1 Data Count ├╩▒έ╚φ
    4fda:	e0 e2       	ldi	r30, 0x20	; 32
    4fdc:	f8 e0       	ldi	r31, 0x08	; 8
    4fde:	80 e0       	ldi	r24, 0x00	; 0
    4fe0:	98 e1       	ldi	r25, 0x18	; 24
    4fe2:	80 87       	std	Z+8, r24	; 0x08
    4fe4:	91 87       	std	Z+9, r25	; 0x09
    4fe6:	84 e9       	ldi	r24, 0x94	; 148
    4fe8:	85 83       	std	Z+5, r24	; 0x05
    4fea:	80 ec       	ldi	r24, 0xC0	; 192
    4fec:	86 83       	std	Z+6, r24	; 0x06
    4fee:	80 e0       	ldi	r24, 0x00	; 0
    4ff0:	08 95       	ret

00004ff2 <USART1_Write>:
    4ff2:	90 91 24 08 	lds	r25, 0x0824	; 0x800824 <__TEXT_REGION_LENGTH__+0x7e0824>
    4ff6:	95 ff       	sbrs	r25, 5
    4ff8:	fc cf       	rjmp	.-8      	; 0x4ff2 <USART1_Write>
    4ffa:	80 93 22 08 	sts	0x0822, r24	; 0x800822 <__TEXT_REGION_LENGTH__+0x7e0822>
    4ffe:	81 e0       	ldi	r24, 0x01	; 1
    5000:	90 e0       	ldi	r25, 0x00	; 0
    5002:	08 95       	ret

00005004 <USART_3_init>:

//=================================================================================================
#ifdef Usart_3
int8_t USART_3_init()
{
	USART3.BAUD = (uint16_t)USART3_BAUD_RATE(Usart3_BAUD);		/* set baud rate register */
    5004:	e0 e6       	ldi	r30, 0x60	; 96
    5006:	f8 e0       	ldi	r31, 0x08	; 8
    5008:	80 e0       	ldi	r24, 0x00	; 0
    500a:	98 e1       	ldi	r25, 0x18	; 24
    500c:	80 87       	std	Z+8, r24	; 0x08
    500e:	91 87       	std	Z+9, r25	; 0x09

	USART3.CTRLA = 1 << USART_ABEIE_bp			/* Auto-baud Error Interrupt Enable: disabled */
    5010:	84 e9       	ldi	r24, 0x94	; 148
    5012:	85 83       	std	Z+5, r24	; 0x05
			| USART_RS485_DISABLE_gc		/* RS485 Mode disabled */
			| 1 << USART_RXCIE_bp			/* Receive Complete Interrupt Enable: enabled */
			| 1 << USART_RXSIE_bp			/* Receiver Start Frame Interrupt Enable: enabled */
			| 0 << USART_TXCIE_bp;			/* Transmit Complete Interrupt Enable: disabled */

	USART3.CTRLB = 0 << USART_MPCM_bp			/* Multi-processor Communication Mode: disabled */
    5014:	80 ec       	ldi	r24, 0xC0	; 192
    5016:	86 83       	std	Z+6, r24	; 0x06
	// USART3.EVCTRL = 0 << USART_IREI_bp;			/* IrDA Event Input Enable: disabled */
	// USART3.RXPLCTRL = 0x0 << USART_RXPL_gp;		/* Receiver Pulse Lenght: 0x0 */
	// USART3.TXPLCTRL = 0x0 << USART_TXPL_gp;		/* Transmit pulse length: 0x0 */

	return 0;
}
    5018:	80 e0       	ldi	r24, 0x00	; 0
    501a:	08 95       	ret

0000501c <USART3_Write>:

//-------------------------------------------------------------------------------------------------
int USART3_Write(char data)
{
	while(!(USART3.STATUS & USART_DREIF_bm)) ;
    501c:	90 91 64 08 	lds	r25, 0x0864	; 0x800864 <__TEXT_REGION_LENGTH__+0x7e0864>
    5020:	95 ff       	sbrs	r25, 5
    5022:	fc cf       	rjmp	.-8      	; 0x501c <USART3_Write>
	USART3.TXDATAL = data;
    5024:	80 93 62 08 	sts	0x0862, r24	; 0x800862 <__TEXT_REGION_LENGTH__+0x7e0862>
	return 1;
}
    5028:	81 e0       	ldi	r24, 0x01	; 1
    502a:	90 e0       	ldi	r25, 0x00	; 0
    502c:	08 95       	ret

0000502e <USART3_SendString>:

//-------------------------------------------------------------------------------------------------
void USART3_SendString(const char *str)
{
    502e:	0f 93       	push	r16
    5030:	1f 93       	push	r17
    5032:	cf 93       	push	r28
    5034:	df 93       	push	r29
    5036:	8c 01       	movw	r16, r24
	for(size_t i = 0; i < strlen(str); i++) {USART3_Write(str[i]);}
    5038:	c0 e0       	ldi	r28, 0x00	; 0
    503a:	d0 e0       	ldi	r29, 0x00	; 0
    503c:	07 c0       	rjmp	.+14     	; 0x504c <USART3_SendString+0x1e>
    503e:	f8 01       	movw	r30, r16
    5040:	ec 0f       	add	r30, r28
    5042:	fd 1f       	adc	r31, r29
    5044:	80 81       	ld	r24, Z
    5046:	0e 94 0e 28 	call	0x501c	; 0x501c <USART3_Write>
    504a:	21 96       	adiw	r28, 0x01	; 1
    504c:	f8 01       	movw	r30, r16
    504e:	01 90       	ld	r0, Z+
    5050:	00 20       	and	r0, r0
    5052:	e9 f7       	brne	.-6      	; 0x504e <USART3_SendString+0x20>
    5054:	31 97       	sbiw	r30, 0x01	; 1
    5056:	e0 1b       	sub	r30, r16
    5058:	f1 0b       	sbc	r31, r17
    505a:	ce 17       	cp	r28, r30
    505c:	df 07       	cpc	r29, r31
    505e:	78 f3       	brcs	.-34     	; 0x503e <USART3_SendString+0x10>
}
    5060:	df 91       	pop	r29
    5062:	cf 91       	pop	r28
    5064:	1f 91       	pop	r17
    5066:	0f 91       	pop	r16
    5068:	08 95       	ret

0000506a <Rx3_Buff_Clear>:

//-------------------------------------------------------------------------------------------------
void Rx3_Buff_Clear(void)						// Rx3 Buffer Clear
{
	memset(Rx3_Buff, 0, RX3_SIZE);					// Rx3_Buff ╕ο Rx3_SIZE(250)╕╕┼φ 0└╕╖╬ ├╩▒έ╚φ
    506a:	8a ef       	ldi	r24, 0xFA	; 250
    506c:	e0 e1       	ldi	r30, 0x10	; 16
    506e:	fb e4       	ldi	r31, 0x4B	; 75
    5070:	df 01       	movw	r26, r30
    5072:	1d 92       	st	X+, r1
    5074:	8a 95       	dec	r24
    5076:	e9 f7       	brne	.-6      	; 0x5072 <Rx3_Buff_Clear+0x8>
	Rx3_Cnt = 0;							// Rx3 Data Count ├╩▒έ╚φ
    5078:	10 92 f9 4a 	sts	0x4AF9, r1	; 0x804af9 <Rx3_Cnt>
    507c:	08 95       	ret

0000507e <WDT_init>:
    507e:	4a e0       	ldi	r20, 0x0A	; 10
    5080:	68 ed       	ldi	r22, 0xD8	; 216
    5082:	80 e0       	ldi	r24, 0x00	; 0
    5084:	91 e0       	ldi	r25, 0x01	; 1
    5086:	0e 94 0e 24 	call	0x481c	; 0x481c <protected_write_io>
    508a:	80 e0       	ldi	r24, 0x00	; 0
    508c:	08 95       	ret

0000508e <ZigBee_Write_id>:
int CH[15] = {0x3043, 0x3044, 0x3045, 0x3046, 0x3130, 0x3131, 0x3132, 0x3133, 0x3134, 0x3135, 0x3136, 0x3137, 0x3138, 0x3139, 0x3140};
//┴÷▒╫║± ├ν│╬{    0C,     0D,     0E,     0F,     10,     11,     12,     13,     14,     15,     16,     17,     18,     19,     1A}

//=================================================================================================
void ZigBee_Write_id(void)							// ZigBee PanID └·└ί
{
    508e:	cf 93       	push	r28
	uint8_t zbid_write = 0;							// zbid_write ║ψ╝÷ ├╩▒έ╚φ
    5090:	c0 e0       	ldi	r28, 0x00	; 0

	do{
		switch(zbid_write)						// zbid_write
    5092:	c1 30       	cpi	r28, 0x01	; 1
    5094:	a1 f0       	breq	.+40     	; 0x50be <ZigBee_Write_id+0x30>
    5096:	28 f0       	brcs	.+10     	; 0x50a2 <ZigBee_Write_id+0x14>
    5098:	c2 30       	cpi	r28, 0x02	; 2
    509a:	69 f1       	breq	.+90     	; 0x50f6 <ZigBee_Write_id+0x68>
    509c:	c3 30       	cpi	r28, 0x03	; 3
    509e:	81 f1       	breq	.+96     	; 0x5100 <ZigBee_Write_id+0x72>
    50a0:	33 c0       	rjmp	.+102    	; 0x5108 <ZigBee_Write_id+0x7a>
		{
			case 0:							// zbch_wite = 0 └╠╕ώ
				USART3_SendString("+++");			// USART3 ┐κ +++ └ⁿ╝█
    50a2:	89 e9       	ldi	r24, 0x99	; 153
    50a4:	90 e4       	ldi	r25, 0x40	; 64
    50a6:	0e 94 17 28 	call	0x502e	; 0x502e <USART3_SendString>
    50aa:	2f ef       	ldi	r18, 0xFF	; 255
    50ac:	8f ef       	ldi	r24, 0xFF	; 255
    50ae:	9c e2       	ldi	r25, 0x2C	; 44
    50b0:	21 50       	subi	r18, 0x01	; 1
    50b2:	80 40       	sbci	r24, 0x00	; 0
    50b4:	90 40       	sbci	r25, 0x00	; 0
    50b6:	e1 f7       	brne	.-8      	; 0x50b0 <ZigBee_Write_id+0x22>
    50b8:	00 c0       	rjmp	.+0      	; 0x50ba <ZigBee_Write_id+0x2c>
    50ba:	00 00       	nop
    50bc:	25 c0       	rjmp	.+74     	; 0x5108 <ZigBee_Write_id+0x7a>
				_delay_ms(1000);				// ZigBee ├╓├╩ ┤ϊ║ψ ╜├░μ 1├╩ Delay
			break;

			case 1:							// zbch_wite = 1 └╠╕ώ
				USART3_SendString("ATID");			// USART3 ┐κ ATCH └ⁿ╝█
    50be:	8d e9       	ldi	r24, 0x9D	; 157
    50c0:	90 e4       	ldi	r25, 0x40	; 64
    50c2:	0e 94 17 28 	call	0x502e	; 0x502e <USART3_SendString>
				USART3_Write(Pan_id_1000 + 0x30);		// USART3 ┐κ Pan ID 2Byte ╗≤└π └ⁿ╝█
    50c6:	80 91 d2 4a 	lds	r24, 0x4AD2	; 0x804ad2 <Pan_id_1000>
    50ca:	80 5d       	subi	r24, 0xD0	; 208
    50cc:	0e 94 0e 28 	call	0x501c	; 0x501c <USART3_Write>
				USART3_Write(Pan_id_100 + 0x30);		// USART3 ┐κ Pan ID 2Byte ╟╧└π └ⁿ╝█
    50d0:	80 91 f5 40 	lds	r24, 0x40F5	; 0x8040f5 <Pan_id_100>
    50d4:	80 5d       	subi	r24, 0xD0	; 208
    50d6:	0e 94 0e 28 	call	0x501c	; 0x501c <USART3_Write>
				USART3_Write(Pan_id_10 + 0x30);			// USART3 ┐κ Pan ID 1Byte ╗≤└π └ⁿ╝█
    50da:	80 91 8d 4a 	lds	r24, 0x4A8D	; 0x804a8d <Pan_id_10>
    50de:	80 5d       	subi	r24, 0xD0	; 208
    50e0:	0e 94 0e 28 	call	0x501c	; 0x501c <USART3_Write>
				USART3_Write(Pan_id_1 + 0x30);			// USART3 ┐κ Pan ID 1Byte ╟╧└π └ⁿ╝█
    50e4:	80 91 68 4a 	lds	r24, 0x4A68	; 0x804a68 <Pan_id_1>
    50e8:	80 5d       	subi	r24, 0xD0	; 208
    50ea:	0e 94 0e 28 	call	0x501c	; 0x501c <USART3_Write>
				USART3_Write('\r');				// USART3 ┐κ \r
    50ee:	8d e0       	ldi	r24, 0x0D	; 13
    50f0:	0e 94 0e 28 	call	0x501c	; 0x501c <USART3_Write>
			break;
    50f4:	09 c0       	rjmp	.+18     	; 0x5108 <ZigBee_Write_id+0x7a>

			case 2:							// zbch_wite = 2 └╠╕ώ
				USART3_SendString("ATWR\r");			// USART3 ┐κ ATWR\r └ⁿ╝█
    50f6:	82 ea       	ldi	r24, 0xA2	; 162
    50f8:	90 e4       	ldi	r25, 0x40	; 64
    50fa:	0e 94 17 28 	call	0x502e	; 0x502e <USART3_SendString>
			break;
    50fe:	04 c0       	rjmp	.+8      	; 0x5108 <ZigBee_Write_id+0x7a>

			case 3:							// zbch_wite = 3 └╠╕ώ
				USART3_SendString("ATCN\r");			// USART3 ┐κ ATCN\r └ⁿ╝█
    5100:	88 ea       	ldi	r24, 0xA8	; 168
    5102:	90 e4       	ldi	r25, 0x40	; 64
    5104:	0e 94 17 28 	call	0x502e	; 0x502e <USART3_SendString>
			break;
		}
//-------------------------------------------------------------------------------------------------
		for(uint8_t cnt = 0; cnt < RX3_SIZE; cnt++)			// RX3_SIZE ╕╕┼φ ╣▌║╣
    5108:	80 e0       	ldi	r24, 0x00	; 0
    510a:	9d c0       	rjmp	.+314    	; 0x5246 <ZigBee_Write_id+0x1b8>
		{
			if(zbid_write == 0 && Rx3_Buff[cnt] == 'O' && Rx3_Buff[cnt + 1] == 'K' && Rx3_Buff[cnt + 2] == 0x0d)
    510c:	c1 11       	cpse	r28, r1
    510e:	25 c0       	rjmp	.+74     	; 0x515a <ZigBee_Write_id+0xcc>
    5110:	28 2f       	mov	r18, r24
    5112:	30 e0       	ldi	r19, 0x00	; 0
    5114:	f9 01       	movw	r30, r18
    5116:	e0 5f       	subi	r30, 0xF0	; 240
    5118:	f4 4b       	sbci	r31, 0xB4	; 180
    511a:	90 81       	ld	r25, Z
    511c:	9f 34       	cpi	r25, 0x4F	; 79
    511e:	e9 f4       	brne	.+58     	; 0x515a <ZigBee_Write_id+0xcc>
    5120:	f9 01       	movw	r30, r18
    5122:	ef 5e       	subi	r30, 0xEF	; 239
    5124:	f4 4b       	sbci	r31, 0xB4	; 180
    5126:	90 81       	ld	r25, Z
    5128:	9b 34       	cpi	r25, 0x4B	; 75
    512a:	b9 f4       	brne	.+46     	; 0x515a <ZigBee_Write_id+0xcc>
    512c:	f9 01       	movw	r30, r18
    512e:	ee 5e       	subi	r30, 0xEE	; 238
    5130:	f4 4b       	sbci	r31, 0xB4	; 180
    5132:	90 81       	ld	r25, Z
    5134:	9d 30       	cpi	r25, 0x0D	; 13
    5136:	89 f4       	brne	.+34     	; 0x515a <ZigBee_Write_id+0xcc>
			{							// 0+OK+CR
				zbid_write = 1;					// ┤ϊ║ψ ╚χ└╬ ╚─ ┤┘└╜└╕╖╬ ┴Ϋ░κ
				Beep(3);
    5138:	83 e0       	ldi	r24, 0x03	; 3
    513a:	90 e0       	ldi	r25, 0x00	; 0
    513c:	0e 94 3b 04 	call	0x876	; 0x876 <Beep>
    5140:	2f ef       	ldi	r18, 0xFF	; 255
    5142:	8f e3       	ldi	r24, 0x3F	; 63
    5144:	92 e0       	ldi	r25, 0x02	; 2
    5146:	21 50       	subi	r18, 0x01	; 1
    5148:	80 40       	sbci	r24, 0x00	; 0
    514a:	90 40       	sbci	r25, 0x00	; 0
    514c:	e1 f7       	brne	.-8      	; 0x5146 <ZigBee_Write_id+0xb8>
    514e:	00 c0       	rjmp	.+0      	; 0x5150 <ZigBee_Write_id+0xc2>
    5150:	00 00       	nop
				_delay_ms(50);					// ZigBee ├│╕χ ╜├░μ ╚─
				Rx3_Buff_Clear();				// Rx3 Buff Clear
    5152:	0e 94 35 28 	call	0x506a	; 0x506a <Rx3_Buff_Clear>
//-------------------------------------------------------------------------------------------------
		for(uint8_t cnt = 0; cnt < RX3_SIZE; cnt++)			// RX3_SIZE ╕╕┼φ ╣▌║╣
		{
			if(zbid_write == 0 && Rx3_Buff[cnt] == 'O' && Rx3_Buff[cnt + 1] == 'K' && Rx3_Buff[cnt + 2] == 0x0d)
			{							// 0+OK+CR
				zbid_write = 1;					// ┤ϊ║ψ ╚χ└╬ ╚─ ┤┘└╜└╕╖╬ ┴Ϋ░κ
    5156:	c1 e0       	ldi	r28, 0x01	; 1
				Beep(3);
				_delay_ms(50);					// ZigBee ├│╕χ ╜├░μ ╚─
				Rx3_Buff_Clear();				// Rx3 Buff Clear
				break;
    5158:	79 c0       	rjmp	.+242    	; 0x524c <ZigBee_Write_id+0x1be>
			}

			if(zbid_write == 1 && Rx3_Buff[cnt] == 'O' && Rx3_Buff[cnt + 1] == 'K' && Rx3_Buff[cnt + 2] == 0x0d)
    515a:	c1 30       	cpi	r28, 0x01	; 1
    515c:	29 f5       	brne	.+74     	; 0x51a8 <ZigBee_Write_id+0x11a>
    515e:	28 2f       	mov	r18, r24
    5160:	30 e0       	ldi	r19, 0x00	; 0
    5162:	f9 01       	movw	r30, r18
    5164:	e0 5f       	subi	r30, 0xF0	; 240
    5166:	f4 4b       	sbci	r31, 0xB4	; 180
    5168:	90 81       	ld	r25, Z
    516a:	9f 34       	cpi	r25, 0x4F	; 79
    516c:	e9 f4       	brne	.+58     	; 0x51a8 <ZigBee_Write_id+0x11a>
    516e:	f9 01       	movw	r30, r18
    5170:	ef 5e       	subi	r30, 0xEF	; 239
    5172:	f4 4b       	sbci	r31, 0xB4	; 180
    5174:	90 81       	ld	r25, Z
    5176:	9b 34       	cpi	r25, 0x4B	; 75
    5178:	b9 f4       	brne	.+46     	; 0x51a8 <ZigBee_Write_id+0x11a>
    517a:	f9 01       	movw	r30, r18
    517c:	ee 5e       	subi	r30, 0xEE	; 238
    517e:	f4 4b       	sbci	r31, 0xB4	; 180
    5180:	90 81       	ld	r25, Z
    5182:	9d 30       	cpi	r25, 0x0D	; 13
    5184:	89 f4       	brne	.+34     	; 0x51a8 <ZigBee_Write_id+0x11a>
			{							// 1+OK+CR
				zbid_write = 2;					// ┤ϊ║ψ ╚χ└╬ ╚─ ┤┘└╜└╕╖╬ ┴Ϋ░κ
				Beep(3);
    5186:	83 e0       	ldi	r24, 0x03	; 3
    5188:	90 e0       	ldi	r25, 0x00	; 0
    518a:	0e 94 3b 04 	call	0x876	; 0x876 <Beep>
    518e:	2f ef       	ldi	r18, 0xFF	; 255
    5190:	8f e3       	ldi	r24, 0x3F	; 63
    5192:	92 e0       	ldi	r25, 0x02	; 2
    5194:	21 50       	subi	r18, 0x01	; 1
    5196:	80 40       	sbci	r24, 0x00	; 0
    5198:	90 40       	sbci	r25, 0x00	; 0
    519a:	e1 f7       	brne	.-8      	; 0x5194 <ZigBee_Write_id+0x106>
    519c:	00 c0       	rjmp	.+0      	; 0x519e <ZigBee_Write_id+0x110>
    519e:	00 00       	nop
				_delay_ms(50);					// ZigBee ├│╕χ ╜├░μ ╚─
				Rx3_Buff_Clear();				// Rx3 Buff Clear
    51a0:	0e 94 35 28 	call	0x506a	; 0x506a <Rx3_Buff_Clear>
				break;
			}

			if(zbid_write == 1 && Rx3_Buff[cnt] == 'O' && Rx3_Buff[cnt + 1] == 'K' && Rx3_Buff[cnt + 2] == 0x0d)
			{							// 1+OK+CR
				zbid_write = 2;					// ┤ϊ║ψ ╚χ└╬ ╚─ ┤┘└╜└╕╖╬ ┴Ϋ░κ
    51a4:	c2 e0       	ldi	r28, 0x02	; 2
				Beep(3);
				_delay_ms(50);					// ZigBee ├│╕χ ╜├░μ ╚─
				Rx3_Buff_Clear();				// Rx3 Buff Clear
				break;
    51a6:	52 c0       	rjmp	.+164    	; 0x524c <ZigBee_Write_id+0x1be>
			}

			if(zbid_write == 2 && Rx3_Buff[cnt] == 'O' && Rx3_Buff[cnt + 1] == 'K' && Rx3_Buff[cnt + 2] == 0x0d)
    51a8:	c2 30       	cpi	r28, 0x02	; 2
    51aa:	29 f5       	brne	.+74     	; 0x51f6 <ZigBee_Write_id+0x168>
    51ac:	28 2f       	mov	r18, r24
    51ae:	30 e0       	ldi	r19, 0x00	; 0
    51b0:	f9 01       	movw	r30, r18
    51b2:	e0 5f       	subi	r30, 0xF0	; 240
    51b4:	f4 4b       	sbci	r31, 0xB4	; 180
    51b6:	90 81       	ld	r25, Z
    51b8:	9f 34       	cpi	r25, 0x4F	; 79
    51ba:	e9 f4       	brne	.+58     	; 0x51f6 <ZigBee_Write_id+0x168>
    51bc:	f9 01       	movw	r30, r18
    51be:	ef 5e       	subi	r30, 0xEF	; 239
    51c0:	f4 4b       	sbci	r31, 0xB4	; 180
    51c2:	90 81       	ld	r25, Z
    51c4:	9b 34       	cpi	r25, 0x4B	; 75
    51c6:	b9 f4       	brne	.+46     	; 0x51f6 <ZigBee_Write_id+0x168>
    51c8:	f9 01       	movw	r30, r18
    51ca:	ee 5e       	subi	r30, 0xEE	; 238
    51cc:	f4 4b       	sbci	r31, 0xB4	; 180
    51ce:	90 81       	ld	r25, Z
    51d0:	9d 30       	cpi	r25, 0x0D	; 13
    51d2:	89 f4       	brne	.+34     	; 0x51f6 <ZigBee_Write_id+0x168>
			{							// 2+OK+CR
				zbid_write = 3;					// ┤ϊ║ψ ╚χ└╬ ╚─ ┤┘└╜└╕╖╬ ┴Ϋ░κ
				Beep(3);
    51d4:	83 e0       	ldi	r24, 0x03	; 3
    51d6:	90 e0       	ldi	r25, 0x00	; 0
    51d8:	0e 94 3b 04 	call	0x876	; 0x876 <Beep>
    51dc:	2f ef       	ldi	r18, 0xFF	; 255
    51de:	8f e3       	ldi	r24, 0x3F	; 63
    51e0:	92 e0       	ldi	r25, 0x02	; 2
    51e2:	21 50       	subi	r18, 0x01	; 1
    51e4:	80 40       	sbci	r24, 0x00	; 0
    51e6:	90 40       	sbci	r25, 0x00	; 0
    51e8:	e1 f7       	brne	.-8      	; 0x51e2 <ZigBee_Write_id+0x154>
    51ea:	00 c0       	rjmp	.+0      	; 0x51ec <ZigBee_Write_id+0x15e>
    51ec:	00 00       	nop
				_delay_ms(50);					// ZigBee ├│╕χ ╜├░μ ╚─
				Rx3_Buff_Clear();				// Rx3 Buff Clear
    51ee:	0e 94 35 28 	call	0x506a	; 0x506a <Rx3_Buff_Clear>
				break;
			}

			if(zbid_write == 2 && Rx3_Buff[cnt] == 'O' && Rx3_Buff[cnt + 1] == 'K' && Rx3_Buff[cnt + 2] == 0x0d)
			{							// 2+OK+CR
				zbid_write = 3;					// ┤ϊ║ψ ╚χ└╬ ╚─ ┤┘└╜└╕╖╬ ┴Ϋ░κ
    51f2:	c3 e0       	ldi	r28, 0x03	; 3
				Beep(3);
				_delay_ms(50);					// ZigBee ├│╕χ ╜├░μ ╚─
				Rx3_Buff_Clear();				// Rx3 Buff Clear
				break;
    51f4:	2b c0       	rjmp	.+86     	; 0x524c <ZigBee_Write_id+0x1be>
			}

			if(zbid_write == 3 && Rx3_Buff[cnt] == 'O' && Rx3_Buff[cnt + 1] == 'K' && Rx3_Buff[cnt + 2] == 0x0d)
    51f6:	c3 30       	cpi	r28, 0x03	; 3
    51f8:	29 f5       	brne	.+74     	; 0x5244 <ZigBee_Write_id+0x1b6>
    51fa:	28 2f       	mov	r18, r24
    51fc:	30 e0       	ldi	r19, 0x00	; 0
    51fe:	f9 01       	movw	r30, r18
    5200:	e0 5f       	subi	r30, 0xF0	; 240
    5202:	f4 4b       	sbci	r31, 0xB4	; 180
    5204:	90 81       	ld	r25, Z
    5206:	9f 34       	cpi	r25, 0x4F	; 79
    5208:	e9 f4       	brne	.+58     	; 0x5244 <ZigBee_Write_id+0x1b6>
    520a:	f9 01       	movw	r30, r18
    520c:	ef 5e       	subi	r30, 0xEF	; 239
    520e:	f4 4b       	sbci	r31, 0xB4	; 180
    5210:	90 81       	ld	r25, Z
    5212:	9b 34       	cpi	r25, 0x4B	; 75
    5214:	b9 f4       	brne	.+46     	; 0x5244 <ZigBee_Write_id+0x1b6>
    5216:	f9 01       	movw	r30, r18
    5218:	ee 5e       	subi	r30, 0xEE	; 238
    521a:	f4 4b       	sbci	r31, 0xB4	; 180
    521c:	90 81       	ld	r25, Z
    521e:	9d 30       	cpi	r25, 0x0D	; 13
    5220:	89 f4       	brne	.+34     	; 0x5244 <ZigBee_Write_id+0x1b6>
			{							// 3+OK+CR
				zbid_write = 5;					// ┤ϊ║ψ ╚χ└╬ ╚─ While()╣χ ┴╛╖ά
				Beep(3);
    5222:	83 e0       	ldi	r24, 0x03	; 3
    5224:	90 e0       	ldi	r25, 0x00	; 0
    5226:	0e 94 3b 04 	call	0x876	; 0x876 <Beep>
    522a:	2f ef       	ldi	r18, 0xFF	; 255
    522c:	8f e3       	ldi	r24, 0x3F	; 63
    522e:	92 e0       	ldi	r25, 0x02	; 2
    5230:	21 50       	subi	r18, 0x01	; 1
    5232:	80 40       	sbci	r24, 0x00	; 0
    5234:	90 40       	sbci	r25, 0x00	; 0
    5236:	e1 f7       	brne	.-8      	; 0x5230 <ZigBee_Write_id+0x1a2>
    5238:	00 c0       	rjmp	.+0      	; 0x523a <ZigBee_Write_id+0x1ac>
    523a:	00 00       	nop
				_delay_ms(50);					// ZigBee ├│╕χ ╜├░μ ╚─
				Rx3_Buff_Clear();				// Rx3 Buff Clear
    523c:	0e 94 35 28 	call	0x506a	; 0x506a <Rx3_Buff_Clear>
				break;
			}

			if(zbid_write == 3 && Rx3_Buff[cnt] == 'O' && Rx3_Buff[cnt + 1] == 'K' && Rx3_Buff[cnt + 2] == 0x0d)
			{							// 3+OK+CR
				zbid_write = 5;					// ┤ϊ║ψ ╚χ└╬ ╚─ While()╣χ ┴╛╖ά
    5240:	c5 e0       	ldi	r28, 0x05	; 5
				Beep(3);
				_delay_ms(50);					// ZigBee ├│╕χ ╜├░μ ╚─
				Rx3_Buff_Clear();				// Rx3 Buff Clear
				break;
    5242:	04 c0       	rjmp	.+8      	; 0x524c <ZigBee_Write_id+0x1be>
			case 3:							// zbch_wite = 3 └╠╕ώ
				USART3_SendString("ATCN\r");			// USART3 ┐κ ATCN\r └ⁿ╝█
			break;
		}
//-------------------------------------------------------------------------------------------------
		for(uint8_t cnt = 0; cnt < RX3_SIZE; cnt++)			// RX3_SIZE ╕╕┼φ ╣▌║╣
    5244:	8f 5f       	subi	r24, 0xFF	; 255
    5246:	8a 3f       	cpi	r24, 0xFA	; 250
    5248:	08 f4       	brcc	.+2      	; 0x524c <ZigBee_Write_id+0x1be>
    524a:	60 cf       	rjmp	.-320    	; 0x510c <ZigBee_Write_id+0x7e>
				_delay_ms(50);					// ZigBee ├│╕χ ╜├░μ ╚─
				Rx3_Buff_Clear();				// Rx3 Buff Clear
				break;
			}
		}
		wdt_reset();							// ┐÷─κ╡╢ ╕χ╝┬
    524c:	0e 94 78 0c 	call	0x18f0	; 0x18f0 <wdt_reset>
	}while(zbid_write != 5);						// zbid_write ░κ 5 └╧╢π ▒Ό┴÷ ╣▌║╣
    5250:	c5 30       	cpi	r28, 0x05	; 5
    5252:	09 f0       	breq	.+2      	; 0x5256 <ZigBee_Write_id+0x1c8>
    5254:	1e cf       	rjmp	.-452    	; 0x5092 <ZigBee_Write_id+0x4>
}
    5256:	cf 91       	pop	r28
    5258:	08 95       	ret

0000525a <ZigBee_PanID_Write>:

//=================================================================================================
void ZigBee_PanID_Write(void)							// ZigBee PanID ╝│┴ν
{
    525a:	6f 92       	push	r6
    525c:	7f 92       	push	r7
    525e:	8f 92       	push	r8
    5260:	9f 92       	push	r9
    5262:	bf 92       	push	r11
    5264:	cf 92       	push	r12
    5266:	df 92       	push	r13
    5268:	ef 92       	push	r14
    526a:	ff 92       	push	r15
    526c:	0f 93       	push	r16
    526e:	1f 93       	push	r17
    5270:	cf 93       	push	r28
    5272:	df 93       	push	r29
	uint8_t digit_5, digit_4, digit_3, digit_2, digit_1;			// digit ║ψ╝÷ ├╩▒έ╚φ

	FND_Value_Data(1, 2, 12);						// FND 0 ~ 2 FND_OFF
    5274:	4c e0       	ldi	r20, 0x0C	; 12
    5276:	62 e0       	ldi	r22, 0x02	; 2
    5278:	81 e0       	ldi	r24, 0x01	; 1
    527a:	0e 94 ca 05 	call	0xb94	; 0xb94 <FND_Value_Data>

	digit_5 = ZB_id / 10000;						// ZigBee PanID 10000└╟ └┌╕χ
    527e:	80 90 eb 4a 	lds	r8, 0x4AEB	; 0x804aeb <ZB_id>
    5282:	90 90 ec 4a 	lds	r9, 0x4AEC	; 0x804aec <ZB_id+0x1>
    5286:	94 01       	movw	r18, r8
    5288:	32 95       	swap	r19
    528a:	22 95       	swap	r18
    528c:	2f 70       	andi	r18, 0x0F	; 15
    528e:	23 27       	eor	r18, r19
    5290:	3f 70       	andi	r19, 0x0F	; 15
    5292:	23 27       	eor	r18, r19
    5294:	a7 e4       	ldi	r26, 0x47	; 71
    5296:	b3 e0       	ldi	r27, 0x03	; 3
    5298:	0e 94 1e 36 	call	0x6c3c	; 0x6c3c <__umulhisi3>
    529c:	6c 01       	movw	r12, r24
    529e:	d6 94       	lsr	r13
    52a0:	c7 94       	ror	r12
    52a2:	d6 94       	lsr	r13
    52a4:	c7 94       	ror	r12
    52a6:	d6 94       	lsr	r13
    52a8:	c7 94       	ror	r12
    52aa:	dc 2d       	mov	r29, r12
	digit_4 = ZB_id % 10000 / 1000;						// ZigBee PanID  1000└╟ └┌╕χ
    52ac:	20 e1       	ldi	r18, 0x10	; 16
    52ae:	37 e2       	ldi	r19, 0x27	; 39
    52b0:	c2 9e       	mul	r12, r18
    52b2:	c0 01       	movw	r24, r0
    52b4:	c3 9e       	mul	r12, r19
    52b6:	90 0d       	add	r25, r0
    52b8:	d2 9e       	mul	r13, r18
    52ba:	90 0d       	add	r25, r0
    52bc:	11 24       	eor	r1, r1
    52be:	94 01       	movw	r18, r8
    52c0:	28 1b       	sub	r18, r24
    52c2:	39 0b       	sbc	r19, r25
    52c4:	36 95       	lsr	r19
    52c6:	27 95       	ror	r18
    52c8:	36 95       	lsr	r19
    52ca:	27 95       	ror	r18
    52cc:	36 95       	lsr	r19
    52ce:	27 95       	ror	r18
    52d0:	a5 ec       	ldi	r26, 0xC5	; 197
    52d2:	b0 e2       	ldi	r27, 0x20	; 32
    52d4:	0e 94 1e 36 	call	0x6c3c	; 0x6c3c <__umulhisi3>
    52d8:	7c 01       	movw	r14, r24
    52da:	f6 94       	lsr	r15
    52dc:	e7 94       	ror	r14
    52de:	f6 94       	lsr	r15
    52e0:	e7 94       	ror	r14
    52e2:	f6 94       	lsr	r15
    52e4:	e7 94       	ror	r14
    52e6:	f6 94       	lsr	r15
    52e8:	e7 94       	ror	r14
    52ea:	be 2c       	mov	r11, r14
	digit_3 = ZB_id % 1000 / 100;						// ZigBee PanID   100└╟ └┌╕χ
    52ec:	94 01       	movw	r18, r8
    52ee:	36 95       	lsr	r19
    52f0:	27 95       	ror	r18
    52f2:	36 95       	lsr	r19
    52f4:	27 95       	ror	r18
    52f6:	36 95       	lsr	r19
    52f8:	27 95       	ror	r18
    52fa:	0e 94 1e 36 	call	0x6c3c	; 0x6c3c <__umulhisi3>
    52fe:	92 95       	swap	r25
    5300:	82 95       	swap	r24
    5302:	8f 70       	andi	r24, 0x0F	; 15
    5304:	89 27       	eor	r24, r25
    5306:	9f 70       	andi	r25, 0x0F	; 15
    5308:	89 27       	eor	r24, r25
    530a:	48 ee       	ldi	r20, 0xE8	; 232
    530c:	53 e0       	ldi	r21, 0x03	; 3
    530e:	84 9f       	mul	r24, r20
    5310:	90 01       	movw	r18, r0
    5312:	85 9f       	mul	r24, r21
    5314:	30 0d       	add	r19, r0
    5316:	94 9f       	mul	r25, r20
    5318:	30 0d       	add	r19, r0
    531a:	11 24       	eor	r1, r1
    531c:	c4 01       	movw	r24, r8
    531e:	82 1b       	sub	r24, r18
    5320:	93 0b       	sbc	r25, r19
    5322:	9c 01       	movw	r18, r24
    5324:	36 95       	lsr	r19
    5326:	27 95       	ror	r18
    5328:	36 95       	lsr	r19
    532a:	27 95       	ror	r18
    532c:	ab e7       	ldi	r26, 0x7B	; 123
    532e:	b4 e1       	ldi	r27, 0x14	; 20
    5330:	0e 94 1e 36 	call	0x6c3c	; 0x6c3c <__umulhisi3>
    5334:	3c 01       	movw	r6, r24
    5336:	76 94       	lsr	r7
    5338:	67 94       	ror	r6
    533a:	06 2d       	mov	r16, r6
	digit_2 = ZB_id % 100 / 10;						// ZigBee PanID    10└╟ └┌╕χ
    533c:	94 01       	movw	r18, r8
    533e:	36 95       	lsr	r19
    5340:	27 95       	ror	r18
    5342:	36 95       	lsr	r19
    5344:	27 95       	ror	r18
    5346:	0e 94 1e 36 	call	0x6c3c	; 0x6c3c <__umulhisi3>
    534a:	9c 01       	movw	r18, r24
    534c:	36 95       	lsr	r19
    534e:	27 95       	ror	r18
    5350:	44 e6       	ldi	r20, 0x64	; 100
    5352:	42 9f       	mul	r20, r18
    5354:	c0 01       	movw	r24, r0
    5356:	43 9f       	mul	r20, r19
    5358:	90 0d       	add	r25, r0
    535a:	11 24       	eor	r1, r1
    535c:	94 01       	movw	r18, r8
    535e:	28 1b       	sub	r18, r24
    5360:	39 0b       	sbc	r19, r25
    5362:	ad ec       	ldi	r26, 0xCD	; 205
    5364:	bc ec       	ldi	r27, 0xCC	; 204
    5366:	0e 94 1e 36 	call	0x6c3c	; 0x6c3c <__umulhisi3>
    536a:	ac 01       	movw	r20, r24
    536c:	56 95       	lsr	r21
    536e:	47 95       	ror	r20
    5370:	56 95       	lsr	r21
    5372:	47 95       	ror	r20
    5374:	56 95       	lsr	r21
    5376:	47 95       	ror	r20
    5378:	c4 2f       	mov	r28, r20
	digit_1 = ZB_id % 10;							// ZigBee PanID     1└╟ └┌╕χ
    537a:	94 01       	movw	r18, r8
    537c:	0e 94 1e 36 	call	0x6c3c	; 0x6c3c <__umulhisi3>
    5380:	96 95       	lsr	r25
    5382:	87 95       	ror	r24
    5384:	96 95       	lsr	r25
    5386:	87 95       	ror	r24
    5388:	96 95       	lsr	r25
    538a:	87 95       	ror	r24
    538c:	9c 01       	movw	r18, r24
    538e:	22 0f       	add	r18, r18
    5390:	33 1f       	adc	r19, r19
    5392:	88 0f       	add	r24, r24
    5394:	99 1f       	adc	r25, r25
    5396:	88 0f       	add	r24, r24
    5398:	99 1f       	adc	r25, r25
    539a:	88 0f       	add	r24, r24
    539c:	99 1f       	adc	r25, r25
    539e:	82 0f       	add	r24, r18
    53a0:	93 1f       	adc	r25, r19
    53a2:	94 01       	movw	r18, r8
    53a4:	28 1b       	sub	r18, r24
    53a6:	39 0b       	sbc	r19, r25
    53a8:	c9 01       	movw	r24, r18
    53aa:	12 2f       	mov	r17, r18

	DIGIT[1][3] = fnd_tbl[digit_5];						// ZigBee PanID 10000└╟ └┌╕χ ╟ξ╜├
    53ac:	d6 01       	movw	r26, r12
    53ae:	a4 57       	subi	r26, 0x74	; 116
    53b0:	bf 4b       	sbci	r27, 0xBF	; 191
    53b2:	2c 91       	ld	r18, X
    53b4:	a3 ec       	ldi	r26, 0xC3	; 195
    53b6:	b0 e4       	ldi	r27, 0x40	; 64
    53b8:	17 96       	adiw	r26, 0x07	; 7
    53ba:	2c 93       	st	X, r18
    53bc:	17 97       	sbiw	r26, 0x07	; 7
	DIGIT[1][2] = fnd_tbl[digit_4];						// ZigBee PanID  1000└╟ └┌╕χ ╟ξ╜├
    53be:	97 01       	movw	r18, r14
    53c0:	33 27       	eor	r19, r19
    53c2:	24 57       	subi	r18, 0x74	; 116
    53c4:	3f 4b       	sbci	r19, 0xBF	; 191
    53c6:	f9 01       	movw	r30, r18
    53c8:	20 81       	ld	r18, Z
    53ca:	16 96       	adiw	r26, 0x06	; 6
    53cc:	2c 93       	st	X, r18
    53ce:	16 97       	sbiw	r26, 0x06	; 6
	DIGIT[1][1] = fnd_tbl[digit_3];						// ZigBee PanID   100└╟ └┌╕χ ╟ξ╜├
    53d0:	f3 01       	movw	r30, r6
    53d2:	ff 27       	eor	r31, r31
    53d4:	e4 57       	subi	r30, 0x74	; 116
    53d6:	ff 4b       	sbci	r31, 0xBF	; 191
    53d8:	20 81       	ld	r18, Z
    53da:	15 96       	adiw	r26, 0x05	; 5
    53dc:	2c 93       	st	X, r18
    53de:	15 97       	sbiw	r26, 0x05	; 5
	DIGIT[1][0] = fnd_tbl[digit_2];						// ZigBee PanID    10└╟ └┌╕χ ╟ξ╜├
    53e0:	55 27       	eor	r21, r21
    53e2:	fa 01       	movw	r30, r20
    53e4:	e4 57       	subi	r30, 0x74	; 116
    53e6:	ff 4b       	sbci	r31, 0xBF	; 191
    53e8:	20 81       	ld	r18, Z
    53ea:	14 96       	adiw	r26, 0x04	; 4
    53ec:	2c 93       	st	X, r18
    53ee:	14 97       	sbiw	r26, 0x04	; 4

	DIGIT[2][3] = fnd_tbl[digit_1];						// ZigBee PanID     1└╟ └┌╕χ ╟ξ╜├
    53f0:	99 27       	eor	r25, r25
    53f2:	fc 01       	movw	r30, r24
    53f4:	e4 57       	subi	r30, 0x74	; 116
    53f6:	ff 4b       	sbci	r31, 0xBF	; 191
    53f8:	80 81       	ld	r24, Z
    53fa:	1b 96       	adiw	r26, 0x0b	; 11
    53fc:	8c 93       	st	X, r24

	while(SET.Menu)								// ╕▐┤║╕Ώ╡ί └╠╕ώ ╣▌║╣
    53fe:	77 c1       	rjmp	.+750    	; 0x56ee <ZigBee_PanID_Write+0x494>
	{
		SET.Blink = 1;							// └┌╕┤╝÷ ▒Ϊ╣┌└╙ ╝│┴ν
    5400:	81 e0       	ldi	r24, 0x01	; 1
    5402:	80 93 91 4a 	sts	0x4A91, r24	; 0x804a91 <SET+0x2>

		switch(KEY.Count)						// ╝▒┼├ Key ░κ ┤φ╕░╚╜╝÷
    5406:	80 91 d5 4a 	lds	r24, 0x4AD5	; 0x804ad5 <KEY>
    540a:	82 30       	cpi	r24, 0x02	; 2
    540c:	09 f4       	brne	.+2      	; 0x5410 <ZigBee_PanID_Write+0x1b6>
    540e:	89 c0       	rjmp	.+274    	; 0x5522 <ZigBee_PanID_Write+0x2c8>
    5410:	28 f4       	brcc	.+10     	; 0x541c <ZigBee_PanID_Write+0x1c2>
    5412:	88 23       	and	r24, r24
    5414:	61 f0       	breq	.+24     	; 0x542e <ZigBee_PanID_Write+0x1d4>
    5416:	81 30       	cpi	r24, 0x01	; 1
    5418:	d1 f1       	breq	.+116    	; 0x548e <ZigBee_PanID_Write+0x234>
    541a:	67 c1       	rjmp	.+718    	; 0x56ea <ZigBee_PanID_Write+0x490>
    541c:	84 30       	cpi	r24, 0x04	; 4
    541e:	09 f4       	brne	.+2      	; 0x5422 <ZigBee_PanID_Write+0x1c8>
    5420:	18 c1       	rjmp	.+560    	; 0x5652 <ZigBee_PanID_Write+0x3f8>
    5422:	08 f4       	brcc	.+2      	; 0x5426 <ZigBee_PanID_Write+0x1cc>
    5424:	c9 c0       	rjmp	.+402    	; 0x55b8 <ZigBee_PanID_Write+0x35e>
    5426:	85 30       	cpi	r24, 0x05	; 5
    5428:	09 f4       	brne	.+2      	; 0x542c <ZigBee_PanID_Write+0x1d2>
    542a:	5d c1       	rjmp	.+698    	; 0x56e6 <ZigBee_PanID_Write+0x48c>
    542c:	5e c1       	rjmp	.+700    	; 0x56ea <ZigBee_PanID_Write+0x490>
		{
//-------------------------------------------------------------------------------------------------
			case 0:							// ZigBee PanID 10000└╟ └┌╕χ
				DIGIT[2][3] = fnd_tbl[digit_1];			// ZigBee PanID     1└╟ └┌╕χ ╟ξ╜├
    542e:	e1 2f       	mov	r30, r17
    5430:	f0 e0       	ldi	r31, 0x00	; 0
    5432:	e4 57       	subi	r30, 0x74	; 116
    5434:	ff 4b       	sbci	r31, 0xBF	; 191
    5436:	80 81       	ld	r24, Z
    5438:	80 93 ce 40 	sts	0x40CE, r24	; 0x8040ce <DIGIT+0xb>
				if(Blink) {DIGIT[1][3] = FND_OFF;}		// Blink = 1 └╠╕ώ ZigBee PanID 10000└╟ └┌╕χ OFF
    543c:	80 91 02 4b 	lds	r24, 0x4B02	; 0x804b02 <Blink>
    5440:	88 23       	and	r24, r24
    5442:	19 f0       	breq	.+6      	; 0x544a <ZigBee_PanID_Write+0x1f0>
    5444:	10 92 ca 40 	sts	0x40CA, r1	; 0x8040ca <DIGIT+0x7>
    5448:	07 c0       	rjmp	.+14     	; 0x5458 <ZigBee_PanID_Write+0x1fe>
				else	  {DIGIT[1][3] = fnd_tbl[digit_5];}	// Blink = 0 └╠╕ώ ZigBee PanID 10000└╟ └┌╕χ ╟ξ╜├
    544a:	ed 2f       	mov	r30, r29
    544c:	f0 e0       	ldi	r31, 0x00	; 0
    544e:	e4 57       	subi	r30, 0x74	; 116
    5450:	ff 4b       	sbci	r31, 0xBF	; 191
    5452:	80 81       	ld	r24, Z
    5454:	80 93 ca 40 	sts	0x40CA, r24	; 0x8040ca <DIGIT+0x7>

				if(KEY.Buff)					// Key └╘╖┬└╠ └╓└╕╕ώ
    5458:	80 91 d6 4a 	lds	r24, 0x4AD6	; 0x804ad6 <KEY+0x1>
    545c:	88 23       	and	r24, r24
    545e:	09 f4       	brne	.+2      	; 0x5462 <ZigBee_PanID_Write+0x208>
    5460:	44 c1       	rjmp	.+648    	; 0x56ea <ZigBee_PanID_Write+0x490>
				{
					if     (KEY.Key == 1 && digit_5 < 6) {digit_5++; KEY.Key = 0;}	// ╛≈  ╣÷╞░ └╠╕ώ ZigBee PanID 10000└╟ └┌╕χ ┴Ϋ░κ
    5462:	80 91 d7 4a 	lds	r24, 0x4AD7	; 0x804ad7 <KEY+0x2>
    5466:	81 30       	cpi	r24, 0x01	; 1
    5468:	31 f4       	brne	.+12     	; 0x5476 <ZigBee_PanID_Write+0x21c>
    546a:	d6 30       	cpi	r29, 0x06	; 6
    546c:	20 f4       	brcc	.+8      	; 0x5476 <ZigBee_PanID_Write+0x21c>
    546e:	df 5f       	subi	r29, 0xFF	; 255
    5470:	10 92 d7 4a 	sts	0x4AD7, r1	; 0x804ad7 <KEY+0x2>
    5474:	3a c1       	rjmp	.+628    	; 0x56ea <ZigBee_PanID_Write+0x490>
					else if(KEY.Key == 3 && digit_5 > 0) {digit_5--; KEY.Key = 0;}	// ┤┘┐Ό╣÷╞░ └╠╕ώ ZigBee PanID 10000└╟ └┌╕χ ░ρ╝╥
    5476:	80 91 d7 4a 	lds	r24, 0x4AD7	; 0x804ad7 <KEY+0x2>
    547a:	83 30       	cpi	r24, 0x03	; 3
    547c:	09 f0       	breq	.+2      	; 0x5480 <ZigBee_PanID_Write+0x226>
    547e:	35 c1       	rjmp	.+618    	; 0x56ea <ZigBee_PanID_Write+0x490>
    5480:	dd 23       	and	r29, r29
    5482:	09 f4       	brne	.+2      	; 0x5486 <ZigBee_PanID_Write+0x22c>
    5484:	32 c1       	rjmp	.+612    	; 0x56ea <ZigBee_PanID_Write+0x490>
    5486:	d1 50       	subi	r29, 0x01	; 1
    5488:	10 92 d7 4a 	sts	0x4AD7, r1	; 0x804ad7 <KEY+0x2>
    548c:	2e c1       	rjmp	.+604    	; 0x56ea <ZigBee_PanID_Write+0x490>
				}
			break;
//-------------------------------------------------------------------------------------------------
			case 1:							// ZigBee PanID 1000└╟ └┌╕χ
				DIGIT[1][3] = fnd_tbl[digit_5];			// ZigBee PanID 10000└╟ └┌╕χ ╟ξ╜├
    548e:	ed 2f       	mov	r30, r29
    5490:	f0 e0       	ldi	r31, 0x00	; 0
    5492:	e4 57       	subi	r30, 0x74	; 116
    5494:	ff 4b       	sbci	r31, 0xBF	; 191
    5496:	80 81       	ld	r24, Z
    5498:	80 93 ca 40 	sts	0x40CA, r24	; 0x8040ca <DIGIT+0x7>
				if(Blink) {DIGIT[1][2] = FND_OFF;}		// Blink = 1 └╠╕ώ ZigBee PanID 1000└╟ └┌╕χ OFF
    549c:	80 91 02 4b 	lds	r24, 0x4B02	; 0x804b02 <Blink>
    54a0:	88 23       	and	r24, r24
    54a2:	19 f0       	breq	.+6      	; 0x54aa <ZigBee_PanID_Write+0x250>
    54a4:	10 92 c9 40 	sts	0x40C9, r1	; 0x8040c9 <DIGIT+0x6>
    54a8:	07 c0       	rjmp	.+14     	; 0x54b8 <ZigBee_PanID_Write+0x25e>
				else	  {DIGIT[1][2] = fnd_tbl[digit_4];}	// Blink = 0 └╠╕ώ ZigBee PanID 1000└╟ └┌╕χ ╟ξ╜├
    54aa:	eb 2d       	mov	r30, r11
    54ac:	f0 e0       	ldi	r31, 0x00	; 0
    54ae:	e4 57       	subi	r30, 0x74	; 116
    54b0:	ff 4b       	sbci	r31, 0xBF	; 191
    54b2:	80 81       	ld	r24, Z
    54b4:	80 93 c9 40 	sts	0x40C9, r24	; 0x8040c9 <DIGIT+0x6>

				if(KEY.Buff)					// Key └╘╖┬└╠ └╓└╕╕ώ
    54b8:	80 91 d6 4a 	lds	r24, 0x4AD6	; 0x804ad6 <KEY+0x1>
    54bc:	88 23       	and	r24, r24
    54be:	09 f4       	brne	.+2      	; 0x54c2 <ZigBee_PanID_Write+0x268>
    54c0:	14 c1       	rjmp	.+552    	; 0x56ea <ZigBee_PanID_Write+0x490>
				{
					if(digit_5 >= 6)							// ZigBee PanID ░κ 60000 ░· ░░░┼│ς ┼σ╕ώ
    54c2:	d6 30       	cpi	r29, 0x06	; 6
    54c4:	b8 f0       	brcs	.+46     	; 0x54f4 <ZigBee_PanID_Write+0x29a>
					{
						if     (KEY.Key == 1 && digit_4 < 5) {digit_4++; KEY.Key = 0;}	// ╛≈  ╣÷╞░ └╠╕ώ ZigBee PanID 1000└╟ └┌╕χ 5▒Ό┴÷ ┴Ϋ░κ
    54c6:	80 91 d7 4a 	lds	r24, 0x4AD7	; 0x804ad7 <KEY+0x2>
    54ca:	81 30       	cpi	r24, 0x01	; 1
    54cc:	39 f4       	brne	.+14     	; 0x54dc <ZigBee_PanID_Write+0x282>
    54ce:	f4 e0       	ldi	r31, 0x04	; 4
    54d0:	fb 15       	cp	r31, r11
    54d2:	20 f0       	brcs	.+8      	; 0x54dc <ZigBee_PanID_Write+0x282>
    54d4:	b3 94       	inc	r11
    54d6:	10 92 d7 4a 	sts	0x4AD7, r1	; 0x804ad7 <KEY+0x2>
    54da:	07 c1       	rjmp	.+526    	; 0x56ea <ZigBee_PanID_Write+0x490>
						else if(KEY.Key == 3 && digit_4 > 0) {digit_4--; KEY.Key = 0;}	// ┤┘┐Ό╣÷╞░ └╠╕ώ ZigBee PanID 1000└╟ └┌╕χ ░ρ╝╥
    54dc:	80 91 d7 4a 	lds	r24, 0x4AD7	; 0x804ad7 <KEY+0x2>
    54e0:	83 30       	cpi	r24, 0x03	; 3
    54e2:	09 f0       	breq	.+2      	; 0x54e6 <ZigBee_PanID_Write+0x28c>
    54e4:	02 c1       	rjmp	.+516    	; 0x56ea <ZigBee_PanID_Write+0x490>
    54e6:	bb 20       	and	r11, r11
    54e8:	09 f4       	brne	.+2      	; 0x54ec <ZigBee_PanID_Write+0x292>
    54ea:	ff c0       	rjmp	.+510    	; 0x56ea <ZigBee_PanID_Write+0x490>
    54ec:	ba 94       	dec	r11
    54ee:	10 92 d7 4a 	sts	0x4AD7, r1	; 0x804ad7 <KEY+0x2>
    54f2:	fb c0       	rjmp	.+502    	; 0x56ea <ZigBee_PanID_Write+0x490>
					}
					else									// ZigBee PanID ░κ 60000 ░· ░░░┼│ς ┼σ┴÷ ╛╩└╕╕ώ
					{
						if     (KEY.Key == 1 && digit_4 < 9) {digit_4++; KEY.Key = 0;}	// ╛≈  ╣÷╞░ └╠╕ώ ZigBee PanID 1000└╟ └┌╕χ 9▒Ό┴÷ ┴Ϋ░κ
    54f4:	80 91 d7 4a 	lds	r24, 0x4AD7	; 0x804ad7 <KEY+0x2>
    54f8:	81 30       	cpi	r24, 0x01	; 1
    54fa:	39 f4       	brne	.+14     	; 0x550a <ZigBee_PanID_Write+0x2b0>
    54fc:	28 e0       	ldi	r18, 0x08	; 8
    54fe:	2b 15       	cp	r18, r11
    5500:	20 f0       	brcs	.+8      	; 0x550a <ZigBee_PanID_Write+0x2b0>
    5502:	b3 94       	inc	r11
    5504:	10 92 d7 4a 	sts	0x4AD7, r1	; 0x804ad7 <KEY+0x2>
    5508:	f0 c0       	rjmp	.+480    	; 0x56ea <ZigBee_PanID_Write+0x490>
						else if(KEY.Key == 3 && digit_4 > 0) {digit_4--; KEY.Key = 0;}	// ┤┘┐Ό╣÷╞░ └╠╕ώ ZigBee PanID 1000└╟ └┌╕χ 0▒Ό┴÷ ░ρ╝╥
    550a:	80 91 d7 4a 	lds	r24, 0x4AD7	; 0x804ad7 <KEY+0x2>
    550e:	83 30       	cpi	r24, 0x03	; 3
    5510:	09 f0       	breq	.+2      	; 0x5514 <ZigBee_PanID_Write+0x2ba>
    5512:	eb c0       	rjmp	.+470    	; 0x56ea <ZigBee_PanID_Write+0x490>
    5514:	bb 20       	and	r11, r11
    5516:	09 f4       	brne	.+2      	; 0x551a <ZigBee_PanID_Write+0x2c0>
    5518:	e8 c0       	rjmp	.+464    	; 0x56ea <ZigBee_PanID_Write+0x490>
    551a:	ba 94       	dec	r11
    551c:	10 92 d7 4a 	sts	0x4AD7, r1	; 0x804ad7 <KEY+0x2>
    5520:	e4 c0       	rjmp	.+456    	; 0x56ea <ZigBee_PanID_Write+0x490>
					}
				}
			break;
//-------------------------------------------------------------------------------------------------
			case 2:							// ZigBee PanID 100└╟ └┌╕χ
				DIGIT[1][2] = fnd_tbl[digit_4];			// ZigBee PanID 1000└╟ └┌╕χ ╟ξ╜├
    5522:	eb 2d       	mov	r30, r11
    5524:	f0 e0       	ldi	r31, 0x00	; 0
    5526:	e4 57       	subi	r30, 0x74	; 116
    5528:	ff 4b       	sbci	r31, 0xBF	; 191
    552a:	80 81       	ld	r24, Z
    552c:	80 93 c9 40 	sts	0x40C9, r24	; 0x8040c9 <DIGIT+0x6>
				if(Blink) {DIGIT[1][1] = FND_OFF;}		// Blink = 1 └╠╕ώ ZigBee PanID 100└╟ └┌╕χ OFF
    5530:	80 91 02 4b 	lds	r24, 0x4B02	; 0x804b02 <Blink>
    5534:	88 23       	and	r24, r24
    5536:	19 f0       	breq	.+6      	; 0x553e <ZigBee_PanID_Write+0x2e4>
    5538:	10 92 c8 40 	sts	0x40C8, r1	; 0x8040c8 <DIGIT+0x5>
    553c:	07 c0       	rjmp	.+14     	; 0x554c <ZigBee_PanID_Write+0x2f2>
				else	  {DIGIT[1][1] = fnd_tbl[digit_3];}	// Blink = 0 └╠╕ώ ZigBee PanID 100└╟ └┌╕χ ╟ξ╜├
    553e:	e0 2f       	mov	r30, r16
    5540:	f0 e0       	ldi	r31, 0x00	; 0
    5542:	e4 57       	subi	r30, 0x74	; 116
    5544:	ff 4b       	sbci	r31, 0xBF	; 191
    5546:	80 81       	ld	r24, Z
    5548:	80 93 c8 40 	sts	0x40C8, r24	; 0x8040c8 <DIGIT+0x5>

				if(KEY.Buff)					// Key └╘╖┬└╠ └╓└╕╕ώ
    554c:	80 91 d6 4a 	lds	r24, 0x4AD6	; 0x804ad6 <KEY+0x1>
    5550:	88 23       	and	r24, r24
    5552:	09 f4       	brne	.+2      	; 0x5556 <ZigBee_PanID_Write+0x2fc>
    5554:	ca c0       	rjmp	.+404    	; 0x56ea <ZigBee_PanID_Write+0x490>
				{
					if(digit_5 >= 6 && digit_4 >= 5)					// ZigBee PanID ░κ 65000 ░· ░░░┼│ς ┼σ╕ώ
    5556:	d6 30       	cpi	r29, 0x06	; 6
    5558:	c8 f0       	brcs	.+50     	; 0x558c <ZigBee_PanID_Write+0x332>
    555a:	34 e0       	ldi	r19, 0x04	; 4
    555c:	3b 15       	cp	r19, r11
    555e:	b0 f4       	brcc	.+44     	; 0x558c <ZigBee_PanID_Write+0x332>
					{
						if     (KEY.Key == 1 && digit_3 < 5) {digit_3++; KEY.Key = 0;}	// ╛≈  ╣÷╞░ └╠╕ώ ZigBee PanID 100└╟ └┌╕χ 5▒Ό┴÷ ┴Ϋ░κ
    5560:	80 91 d7 4a 	lds	r24, 0x4AD7	; 0x804ad7 <KEY+0x2>
    5564:	81 30       	cpi	r24, 0x01	; 1
    5566:	31 f4       	brne	.+12     	; 0x5574 <ZigBee_PanID_Write+0x31a>
    5568:	05 30       	cpi	r16, 0x05	; 5
    556a:	20 f4       	brcc	.+8      	; 0x5574 <ZigBee_PanID_Write+0x31a>
    556c:	0f 5f       	subi	r16, 0xFF	; 255
    556e:	10 92 d7 4a 	sts	0x4AD7, r1	; 0x804ad7 <KEY+0x2>
    5572:	bb c0       	rjmp	.+374    	; 0x56ea <ZigBee_PanID_Write+0x490>
						else if(KEY.Key == 3 && digit_3 > 0) {digit_3--; KEY.Key = 0;}	// ┤┘┐Ό╣÷╞░ └╠╕ώ ZigBee PanID 100└╟ └┌╕χ ░ρ╝╥
    5574:	80 91 d7 4a 	lds	r24, 0x4AD7	; 0x804ad7 <KEY+0x2>
    5578:	83 30       	cpi	r24, 0x03	; 3
    557a:	09 f0       	breq	.+2      	; 0x557e <ZigBee_PanID_Write+0x324>
    557c:	b6 c0       	rjmp	.+364    	; 0x56ea <ZigBee_PanID_Write+0x490>
    557e:	00 23       	and	r16, r16
    5580:	09 f4       	brne	.+2      	; 0x5584 <ZigBee_PanID_Write+0x32a>
    5582:	b3 c0       	rjmp	.+358    	; 0x56ea <ZigBee_PanID_Write+0x490>
    5584:	01 50       	subi	r16, 0x01	; 1
    5586:	10 92 d7 4a 	sts	0x4AD7, r1	; 0x804ad7 <KEY+0x2>
    558a:	af c0       	rjmp	.+350    	; 0x56ea <ZigBee_PanID_Write+0x490>
					}
					else									// ZigBee PanID ░κ 65000 ░· ░░░┼│ς ┼σ┴÷ ╛╩└╕╕ώ
					{
						if     (KEY.Key == 1 && digit_3 < 9) {digit_3++; KEY.Key = 0;}	// ╛≈  ╣÷╞░ └╠╕ώ ZigBee PanID 100└╟ └┌╕χ 9▒Ό┴÷ ┴Ϋ░κ
    558c:	80 91 d7 4a 	lds	r24, 0x4AD7	; 0x804ad7 <KEY+0x2>
    5590:	81 30       	cpi	r24, 0x01	; 1
    5592:	31 f4       	brne	.+12     	; 0x55a0 <ZigBee_PanID_Write+0x346>
    5594:	09 30       	cpi	r16, 0x09	; 9
    5596:	20 f4       	brcc	.+8      	; 0x55a0 <ZigBee_PanID_Write+0x346>
    5598:	0f 5f       	subi	r16, 0xFF	; 255
    559a:	10 92 d7 4a 	sts	0x4AD7, r1	; 0x804ad7 <KEY+0x2>
    559e:	a5 c0       	rjmp	.+330    	; 0x56ea <ZigBee_PanID_Write+0x490>
						else if(KEY.Key == 3 && digit_3 > 0) {digit_3--; KEY.Key = 0;}	// ┤┘┐Ό╣÷╞░ └╠╕ώ ZigBee PanID 100└╟ └┌╕χ 0▒Ό┴÷ ░ρ╝╥
    55a0:	80 91 d7 4a 	lds	r24, 0x4AD7	; 0x804ad7 <KEY+0x2>
    55a4:	83 30       	cpi	r24, 0x03	; 3
    55a6:	09 f0       	breq	.+2      	; 0x55aa <ZigBee_PanID_Write+0x350>
    55a8:	a0 c0       	rjmp	.+320    	; 0x56ea <ZigBee_PanID_Write+0x490>
    55aa:	00 23       	and	r16, r16
    55ac:	09 f4       	brne	.+2      	; 0x55b0 <ZigBee_PanID_Write+0x356>
    55ae:	9d c0       	rjmp	.+314    	; 0x56ea <ZigBee_PanID_Write+0x490>
    55b0:	01 50       	subi	r16, 0x01	; 1
    55b2:	10 92 d7 4a 	sts	0x4AD7, r1	; 0x804ad7 <KEY+0x2>
    55b6:	99 c0       	rjmp	.+306    	; 0x56ea <ZigBee_PanID_Write+0x490>
					}
				}
			break;
//-------------------------------------------------------------------------------------------------
			case 3:							// ZigBee PanID 10└╟ └┌╕χ
				DIGIT[1][1] = fnd_tbl[digit_3];			// ZigBee PanID 100└╟ └┌╕χ ╟ξ╜├
    55b8:	e0 2f       	mov	r30, r16
    55ba:	f0 e0       	ldi	r31, 0x00	; 0
    55bc:	e4 57       	subi	r30, 0x74	; 116
    55be:	ff 4b       	sbci	r31, 0xBF	; 191
    55c0:	80 81       	ld	r24, Z
    55c2:	80 93 c8 40 	sts	0x40C8, r24	; 0x8040c8 <DIGIT+0x5>
				if(Blink) {DIGIT[1][0] = FND_OFF;}		// Blink = 1 └╠╕ώ ZigBee PanID 10└╟ └┌╕χ OFF
    55c6:	80 91 02 4b 	lds	r24, 0x4B02	; 0x804b02 <Blink>
    55ca:	88 23       	and	r24, r24
    55cc:	19 f0       	breq	.+6      	; 0x55d4 <ZigBee_PanID_Write+0x37a>
    55ce:	10 92 c7 40 	sts	0x40C7, r1	; 0x8040c7 <DIGIT+0x4>
    55d2:	07 c0       	rjmp	.+14     	; 0x55e2 <ZigBee_PanID_Write+0x388>
				else	  {DIGIT[1][0] = fnd_tbl[digit_2];}	// Blink = 0 └╠╕ώ ZigBee PanID 10└╟ └┌╕χ ╟ξ╜├
    55d4:	ec 2f       	mov	r30, r28
    55d6:	f0 e0       	ldi	r31, 0x00	; 0
    55d8:	e4 57       	subi	r30, 0x74	; 116
    55da:	ff 4b       	sbci	r31, 0xBF	; 191
    55dc:	80 81       	ld	r24, Z
    55de:	80 93 c7 40 	sts	0x40C7, r24	; 0x8040c7 <DIGIT+0x4>

				if(KEY.Buff)					// Key └╘╖┬└╠ └╓└╕╕ώ
    55e2:	80 91 d6 4a 	lds	r24, 0x4AD6	; 0x804ad6 <KEY+0x1>
    55e6:	88 23       	and	r24, r24
    55e8:	09 f4       	brne	.+2      	; 0x55ec <ZigBee_PanID_Write+0x392>
    55ea:	7f c0       	rjmp	.+254    	; 0x56ea <ZigBee_PanID_Write+0x490>
				{
					if(digit_5 >= 6 && digit_4 >= 5 && digit_3 >= 5)			// ZigBee PanID ░κ 65500 ░· ░░░┼│ς ┼σ╕ώ
    55ec:	d6 30       	cpi	r29, 0x06	; 6
    55ee:	d8 f0       	brcs	.+54     	; 0x5626 <ZigBee_PanID_Write+0x3cc>
    55f0:	44 e0       	ldi	r20, 0x04	; 4
    55f2:	4b 15       	cp	r20, r11
    55f4:	c0 f4       	brcc	.+48     	; 0x5626 <ZigBee_PanID_Write+0x3cc>
    55f6:	05 30       	cpi	r16, 0x05	; 5
    55f8:	b0 f0       	brcs	.+44     	; 0x5626 <ZigBee_PanID_Write+0x3cc>
					{
						if     (KEY.Key == 1 && digit_2 < 3) {digit_2++; KEY.Key = 0;}	// ╛≈  ╣÷╞░ └╠╕ώ ZigBee PanID 10└╟ └┌╕χ 3▒Ό┴÷ ┴Ϋ░κ
    55fa:	80 91 d7 4a 	lds	r24, 0x4AD7	; 0x804ad7 <KEY+0x2>
    55fe:	81 30       	cpi	r24, 0x01	; 1
    5600:	31 f4       	brne	.+12     	; 0x560e <ZigBee_PanID_Write+0x3b4>
    5602:	c3 30       	cpi	r28, 0x03	; 3
    5604:	20 f4       	brcc	.+8      	; 0x560e <ZigBee_PanID_Write+0x3b4>
    5606:	cf 5f       	subi	r28, 0xFF	; 255
    5608:	10 92 d7 4a 	sts	0x4AD7, r1	; 0x804ad7 <KEY+0x2>
    560c:	6e c0       	rjmp	.+220    	; 0x56ea <ZigBee_PanID_Write+0x490>
						else if(KEY.Key == 3 && digit_2 > 0) {digit_2--; KEY.Key = 0;}	// ┤┘┐Ό╣÷╞░ └╠╕ώ ZigBee PanID 10└╟ └┌╕χ ░ρ╝╥
    560e:	80 91 d7 4a 	lds	r24, 0x4AD7	; 0x804ad7 <KEY+0x2>
    5612:	83 30       	cpi	r24, 0x03	; 3
    5614:	09 f0       	breq	.+2      	; 0x5618 <ZigBee_PanID_Write+0x3be>
    5616:	69 c0       	rjmp	.+210    	; 0x56ea <ZigBee_PanID_Write+0x490>
    5618:	cc 23       	and	r28, r28
    561a:	09 f4       	brne	.+2      	; 0x561e <ZigBee_PanID_Write+0x3c4>
    561c:	66 c0       	rjmp	.+204    	; 0x56ea <ZigBee_PanID_Write+0x490>
    561e:	c1 50       	subi	r28, 0x01	; 1
    5620:	10 92 d7 4a 	sts	0x4AD7, r1	; 0x804ad7 <KEY+0x2>
    5624:	62 c0       	rjmp	.+196    	; 0x56ea <ZigBee_PanID_Write+0x490>
					}
					else									// ZigBee PanID ░κ 65500 ░· ░░░┼│ς ┼σ┴÷ ╛╩└╕╕ώ
					{
						if     (KEY.Key == 1 && digit_2 < 9) {digit_2++; KEY.Key = 0;}	// ╛≈  ╣÷╞░ └╠╕ώ ZigBee PanID 10└╟ └┌╕χ 9▒Ό┴÷ ┴Ϋ░κ
    5626:	80 91 d7 4a 	lds	r24, 0x4AD7	; 0x804ad7 <KEY+0x2>
    562a:	81 30       	cpi	r24, 0x01	; 1
    562c:	31 f4       	brne	.+12     	; 0x563a <ZigBee_PanID_Write+0x3e0>
    562e:	c9 30       	cpi	r28, 0x09	; 9
    5630:	20 f4       	brcc	.+8      	; 0x563a <ZigBee_PanID_Write+0x3e0>
    5632:	cf 5f       	subi	r28, 0xFF	; 255
    5634:	10 92 d7 4a 	sts	0x4AD7, r1	; 0x804ad7 <KEY+0x2>
    5638:	58 c0       	rjmp	.+176    	; 0x56ea <ZigBee_PanID_Write+0x490>
						else if(KEY.Key == 3 && digit_2 > 0) {digit_2--; KEY.Key = 0;}	// ┤┘┐Ό╣÷╞░ └╠╕ώ ZigBee PanID 10└╟ └┌╕χ 0▒Ό┴÷ ░ρ╝╥
    563a:	80 91 d7 4a 	lds	r24, 0x4AD7	; 0x804ad7 <KEY+0x2>
    563e:	83 30       	cpi	r24, 0x03	; 3
    5640:	09 f0       	breq	.+2      	; 0x5644 <ZigBee_PanID_Write+0x3ea>
    5642:	53 c0       	rjmp	.+166    	; 0x56ea <ZigBee_PanID_Write+0x490>
    5644:	cc 23       	and	r28, r28
    5646:	09 f4       	brne	.+2      	; 0x564a <ZigBee_PanID_Write+0x3f0>
    5648:	50 c0       	rjmp	.+160    	; 0x56ea <ZigBee_PanID_Write+0x490>
    564a:	c1 50       	subi	r28, 0x01	; 1
    564c:	10 92 d7 4a 	sts	0x4AD7, r1	; 0x804ad7 <KEY+0x2>
    5650:	4c c0       	rjmp	.+152    	; 0x56ea <ZigBee_PanID_Write+0x490>
					}
				}
			break;
//-------------------------------------------------------------------------------------------------
			case 4:							// ZigBee PanID 1└╟ └┌╕χ
				DIGIT[1][0] = fnd_tbl[digit_2];			// ZigBee PanID 10└╟ └┌╕χ ╟ξ╜├
    5652:	ec 2f       	mov	r30, r28
    5654:	f0 e0       	ldi	r31, 0x00	; 0
    5656:	e4 57       	subi	r30, 0x74	; 116
    5658:	ff 4b       	sbci	r31, 0xBF	; 191
    565a:	80 81       	ld	r24, Z
    565c:	80 93 c7 40 	sts	0x40C7, r24	; 0x8040c7 <DIGIT+0x4>
				if(Blink) {DIGIT[2][3] = FND_OFF;}		// Blink = 1 └╠╕ώ ZigBee PanID 1└╟ └┌╕χ OFF
    5660:	80 91 02 4b 	lds	r24, 0x4B02	; 0x804b02 <Blink>
    5664:	88 23       	and	r24, r24
    5666:	19 f0       	breq	.+6      	; 0x566e <ZigBee_PanID_Write+0x414>
    5668:	10 92 ce 40 	sts	0x40CE, r1	; 0x8040ce <DIGIT+0xb>
    566c:	07 c0       	rjmp	.+14     	; 0x567c <ZigBee_PanID_Write+0x422>
				else	  {DIGIT[2][3] = fnd_tbl[digit_1];}	// Blink = 0 └╠╕ώ ZigBee PanID 1└╟ └┌╕χ ╟ξ╜├
    566e:	e1 2f       	mov	r30, r17
    5670:	f0 e0       	ldi	r31, 0x00	; 0
    5672:	e4 57       	subi	r30, 0x74	; 116
    5674:	ff 4b       	sbci	r31, 0xBF	; 191
    5676:	80 81       	ld	r24, Z
    5678:	80 93 ce 40 	sts	0x40CE, r24	; 0x8040ce <DIGIT+0xb>

				if(KEY.Buff)					// Key └╘╖┬└╠ └╓└╕╕ώ
    567c:	80 91 d6 4a 	lds	r24, 0x4AD6	; 0x804ad6 <KEY+0x1>
    5680:	88 23       	and	r24, r24
    5682:	99 f1       	breq	.+102    	; 0x56ea <ZigBee_PanID_Write+0x490>
				{
					if(digit_5 >= 6 && digit_4 >= 5 && digit_3 >= 5 && digit_2 >= 3)	// ZigBee PanID ░κ 65530 ░· ░░░┼│ς ┼σ╕ώ
    5684:	d6 30       	cpi	r29, 0x06	; 6
    5686:	d8 f0       	brcs	.+54     	; 0x56be <ZigBee_PanID_Write+0x464>
    5688:	84 e0       	ldi	r24, 0x04	; 4
    568a:	8b 15       	cp	r24, r11
    568c:	c0 f4       	brcc	.+48     	; 0x56be <ZigBee_PanID_Write+0x464>
    568e:	05 30       	cpi	r16, 0x05	; 5
    5690:	b0 f0       	brcs	.+44     	; 0x56be <ZigBee_PanID_Write+0x464>
    5692:	c3 30       	cpi	r28, 0x03	; 3
    5694:	a0 f0       	brcs	.+40     	; 0x56be <ZigBee_PanID_Write+0x464>
					{
						if     (KEY.Key == 1 && digit_1 < 5) {digit_1++; KEY.Key = 0;}	// ╛≈  ╣÷╞░ └╠╕ώ ZigBee PanID 1└╟ └┌╕χ 6▒Ό┴÷ ┴Ϋ░κ
    5696:	80 91 d7 4a 	lds	r24, 0x4AD7	; 0x804ad7 <KEY+0x2>
    569a:	81 30       	cpi	r24, 0x01	; 1
    569c:	31 f4       	brne	.+12     	; 0x56aa <ZigBee_PanID_Write+0x450>
    569e:	15 30       	cpi	r17, 0x05	; 5
    56a0:	20 f4       	brcc	.+8      	; 0x56aa <ZigBee_PanID_Write+0x450>
    56a2:	1f 5f       	subi	r17, 0xFF	; 255
    56a4:	10 92 d7 4a 	sts	0x4AD7, r1	; 0x804ad7 <KEY+0x2>
    56a8:	20 c0       	rjmp	.+64     	; 0x56ea <ZigBee_PanID_Write+0x490>
						else if(KEY.Key == 3 && digit_1 > 0) {digit_1--; KEY.Key = 0;}	// ┤┘┐Ό╣÷╞░ └╠╕ώ ZigBee PanID 1└╟ └┌╕χ ░ρ╝╥
    56aa:	80 91 d7 4a 	lds	r24, 0x4AD7	; 0x804ad7 <KEY+0x2>
    56ae:	83 30       	cpi	r24, 0x03	; 3
    56b0:	e1 f4       	brne	.+56     	; 0x56ea <ZigBee_PanID_Write+0x490>
    56b2:	11 23       	and	r17, r17
    56b4:	d1 f0       	breq	.+52     	; 0x56ea <ZigBee_PanID_Write+0x490>
    56b6:	11 50       	subi	r17, 0x01	; 1
    56b8:	10 92 d7 4a 	sts	0x4AD7, r1	; 0x804ad7 <KEY+0x2>
    56bc:	16 c0       	rjmp	.+44     	; 0x56ea <ZigBee_PanID_Write+0x490>
					}
					else									// ZigBee PanID ░κ 65530 ░· ░░░┼│ς ┼σ┴÷ ╛╩└╕╕ώ
					{
						if     (KEY.Key == 1 && digit_1 < 9) {digit_1++; KEY.Key = 0;}	// ╛≈  ╣÷╞░ └╠╕ώ ZigBee PanID 1└╟ └┌╕χ 9▒Ό┴÷ ┴Ϋ░κ
    56be:	80 91 d7 4a 	lds	r24, 0x4AD7	; 0x804ad7 <KEY+0x2>
    56c2:	81 30       	cpi	r24, 0x01	; 1
    56c4:	31 f4       	brne	.+12     	; 0x56d2 <ZigBee_PanID_Write+0x478>
    56c6:	19 30       	cpi	r17, 0x09	; 9
    56c8:	20 f4       	brcc	.+8      	; 0x56d2 <ZigBee_PanID_Write+0x478>
    56ca:	1f 5f       	subi	r17, 0xFF	; 255
    56cc:	10 92 d7 4a 	sts	0x4AD7, r1	; 0x804ad7 <KEY+0x2>
    56d0:	0c c0       	rjmp	.+24     	; 0x56ea <ZigBee_PanID_Write+0x490>
						else if(KEY.Key == 3 && digit_1 > 0) {digit_1--; KEY.Key = 0;}	// ┤┘┐Ό╣÷╞░ └╠╕ώ ZigBee PanID 1└╟ └┌╕χ 0▒Ό┴÷ ░ρ╝╥
    56d2:	80 91 d7 4a 	lds	r24, 0x4AD7	; 0x804ad7 <KEY+0x2>
    56d6:	83 30       	cpi	r24, 0x03	; 3
    56d8:	41 f4       	brne	.+16     	; 0x56ea <ZigBee_PanID_Write+0x490>
    56da:	11 23       	and	r17, r17
    56dc:	31 f0       	breq	.+12     	; 0x56ea <ZigBee_PanID_Write+0x490>
    56de:	11 50       	subi	r17, 0x01	; 1
    56e0:	10 92 d7 4a 	sts	0x4AD7, r1	; 0x804ad7 <KEY+0x2>
    56e4:	02 c0       	rjmp	.+4      	; 0x56ea <ZigBee_PanID_Write+0x490>
					}
				}
			break;
//-------------------------------------------------------------------------------------------------
			case 5:
				KEY.Count = 0;					// ╣▌║╣└╗ └π╟╪ Count╕ο ├╓└·╖╬ ░ρ╝╥ ╜├┼┤
    56e6:	10 92 d5 4a 	sts	0x4AD5, r1	; 0x804ad5 <KEY>
			break;
		}
		wdt_reset();							// ┐÷─κ╡╢ ╕χ╝┬
    56ea:	0e 94 78 0c 	call	0x18f0	; 0x18f0 <wdt_reset>
	DIGIT[1][1] = fnd_tbl[digit_3];						// ZigBee PanID   100└╟ └┌╕χ ╟ξ╜├
	DIGIT[1][0] = fnd_tbl[digit_2];						// ZigBee PanID    10└╟ └┌╕χ ╟ξ╜├

	DIGIT[2][3] = fnd_tbl[digit_1];						// ZigBee PanID     1└╟ └┌╕χ ╟ξ╜├

	while(SET.Menu)								// ╕▐┤║╕Ώ╡ί └╠╕ώ ╣▌║╣
    56ee:	80 91 8f 4a 	lds	r24, 0x4A8F	; 0x804a8f <SET>
    56f2:	81 11       	cpse	r24, r1
    56f4:	85 ce       	rjmp	.-758    	; 0x5400 <ZigBee_PanID_Write+0x1a6>
		}
		wdt_reset();							// ┐÷─κ╡╢ ╕χ╝┬
	}
//-------------------------------------------------------------------------------------------------
	ZB_id = 0;								// ZigBee Pan_id ├╩▒έ╚φ
	ZB_id += (digit_5 * 10000);						// ZigBee Pan_id 10000└╟ └┌╕χ
    56f6:	20 e1       	ldi	r18, 0x10	; 16
    56f8:	37 e2       	ldi	r19, 0x27	; 39
    56fa:	d2 9f       	mul	r29, r18
    56fc:	c0 01       	movw	r24, r0
    56fe:	d3 9f       	mul	r29, r19
    5700:	90 0d       	add	r25, r0
    5702:	11 24       	eor	r1, r1
	ZB_id += (digit_4 * 1000);						// ZigBee Pan_id  1000└╟ └┌╕χ
    5704:	48 ee       	ldi	r20, 0xE8	; 232
    5706:	53 e0       	ldi	r21, 0x03	; 3
    5708:	b4 9e       	mul	r11, r20
    570a:	90 01       	movw	r18, r0
    570c:	b5 9e       	mul	r11, r21
    570e:	30 0d       	add	r19, r0
    5710:	11 24       	eor	r1, r1
    5712:	82 0f       	add	r24, r18
    5714:	93 1f       	adc	r25, r19
	ZB_id += (digit_3 * 100);						// ZigBee Pan_id   100└╟ └┌╕χ
    5716:	9c 01       	movw	r18, r24
    5718:	e4 e6       	ldi	r30, 0x64	; 100
    571a:	0e 9f       	mul	r16, r30
    571c:	20 0d       	add	r18, r0
    571e:	31 1d       	adc	r19, r1
    5720:	11 24       	eor	r1, r1
	ZB_id += (digit_2 * 10);						// ZigBee Pan_id    10└╟ └┌╕χ
    5722:	d0 e0       	ldi	r29, 0x00	; 0
    5724:	ce 01       	movw	r24, r28
    5726:	88 0f       	add	r24, r24
    5728:	99 1f       	adc	r25, r25
    572a:	cc 0f       	add	r28, r28
    572c:	dd 1f       	adc	r29, r29
    572e:	cc 0f       	add	r28, r28
    5730:	dd 1f       	adc	r29, r29
    5732:	cc 0f       	add	r28, r28
    5734:	dd 1f       	adc	r29, r29
    5736:	8c 0f       	add	r24, r28
    5738:	9d 1f       	adc	r25, r29
    573a:	82 0f       	add	r24, r18
    573c:	93 1f       	adc	r25, r19
	ZB_id += (digit_1 * 1);							// ZigBee Pan_id     1└╟ └┌╕χ
    573e:	81 0f       	add	r24, r17
    5740:	91 1d       	adc	r25, r1
    5742:	80 93 eb 4a 	sts	0x4AEB, r24	; 0x804aeb <ZB_id>
    5746:	90 93 ec 4a 	sts	0x4AEC, r25	; 0x804aec <ZB_id+0x1>

	Pan_id_1000 = (ZB_id / 4096);						// ZigBee Pan_id HEX Code 2Byte ╗≤└π
    574a:	29 2f       	mov	r18, r25
    574c:	22 95       	swap	r18
    574e:	2f 70       	andi	r18, 0x0F	; 15
    5750:	20 93 d2 4a 	sts	0x4AD2, r18	; 0x804ad2 <Pan_id_1000>
    5754:	10 92 d3 4a 	sts	0x4AD3, r1	; 0x804ad3 <Pan_id_1000+0x1>
	Pan_id_100  = (ZB_id % 4096 / 256);					// ZigBee Pan_id HEX Code 2Byte ╟╧└π
    5758:	9c 01       	movw	r18, r24
    575a:	3f 70       	andi	r19, 0x0F	; 15
    575c:	30 93 f5 40 	sts	0x40F5, r19	; 0x8040f5 <Pan_id_100>
    5760:	10 92 f6 40 	sts	0x40F6, r1	; 0x8040f6 <Pan_id_100+0x1>
	Pan_id_10   = (ZB_id % 4096 % 256 / 16);				// ZigBee Pan_id HEX Code 1Byte ╗≤└π
    5764:	9c 01       	movw	r18, r24
    5766:	33 27       	eor	r19, r19
    5768:	32 95       	swap	r19
    576a:	22 95       	swap	r18
    576c:	2f 70       	andi	r18, 0x0F	; 15
    576e:	23 27       	eor	r18, r19
    5770:	3f 70       	andi	r19, 0x0F	; 15
    5772:	23 27       	eor	r18, r19
    5774:	20 93 8d 4a 	sts	0x4A8D, r18	; 0x804a8d <Pan_id_10>
    5778:	30 93 8e 4a 	sts	0x4A8E, r19	; 0x804a8e <Pan_id_10+0x1>
	Pan_id_1    = (ZB_id % 4096 % 256 % 16);				// ZigBee Pan_id HEX Code 1Byte ╟╧└π
    577c:	8f 70       	andi	r24, 0x0F	; 15
    577e:	99 27       	eor	r25, r25
    5780:	80 93 68 4a 	sts	0x4A68, r24	; 0x804a68 <Pan_id_1>
    5784:	90 93 69 4a 	sts	0x4A69, r25	; 0x804a69 <Pan_id_1+0x1>

	ZigBee_Write_id();							// ZigBee PanID └·└ί
    5788:	0e 94 47 28 	call	0x508e	; 0x508e <ZigBee_Write_id>

	SET.Menu = 1;								// Menu ╕Ώ╡ί └ψ┴÷
    578c:	ef e8       	ldi	r30, 0x8F	; 143
    578e:	fa e4       	ldi	r31, 0x4A	; 74
    5790:	81 e0       	ldi	r24, 0x01	; 1
    5792:	80 83       	st	Z, r24
	SET.Select = 0;								// Select ╣÷╞░ ├╩▒έ╚φ
    5794:	11 82       	std	Z+1, r1	; 0x01
	SET.Blink = 0;								// └┌╕┤╝÷ ▒Ϊ╣┌└╙ ├╩▒έ╚φ
    5796:	12 82       	std	Z+2, r1	; 0x02
	KEY.Count = 0;								// ╝▒┼├ Key ░κ ┤φ╕░╚╜╝÷ ├╩▒έ╚φ
    5798:	10 92 d5 4a 	sts	0x4AD5, r1	; 0x804ad5 <KEY>
}
    579c:	df 91       	pop	r29
    579e:	cf 91       	pop	r28
    57a0:	1f 91       	pop	r17
    57a2:	0f 91       	pop	r16
    57a4:	ff 90       	pop	r15
    57a6:	ef 90       	pop	r14
    57a8:	df 90       	pop	r13
    57aa:	cf 90       	pop	r12
    57ac:	bf 90       	pop	r11
    57ae:	9f 90       	pop	r9
    57b0:	8f 90       	pop	r8
    57b2:	7f 90       	pop	r7
    57b4:	6f 90       	pop	r6
    57b6:	08 95       	ret

000057b8 <ZigBee_Write_ch>:

//=================================================================================================
void ZigBee_Write_ch(void)							// ZigBee ├ν│╬ └·└ί
{
    57b8:	cf 93       	push	r28
	uint8_t zbch_wite = 0;							// zbch_wite ║ψ╝÷ ├╩▒έ╚φ
    57ba:	c0 e0       	ldi	r28, 0x00	; 0

	do{
		switch(zbch_wite)						// zbch_wite
    57bc:	c1 30       	cpi	r28, 0x01	; 1
    57be:	a1 f0       	breq	.+40     	; 0x57e8 <ZigBee_Write_ch+0x30>
    57c0:	28 f0       	brcs	.+10     	; 0x57cc <ZigBee_Write_ch+0x14>
    57c2:	c2 30       	cpi	r28, 0x02	; 2
    57c4:	d1 f1       	breq	.+116    	; 0x583a <ZigBee_Write_ch+0x82>
    57c6:	c3 30       	cpi	r28, 0x03	; 3
    57c8:	e9 f1       	breq	.+122    	; 0x5844 <ZigBee_Write_ch+0x8c>
    57ca:	40 c0       	rjmp	.+128    	; 0x584c <ZigBee_Write_ch+0x94>
		{
			case 0:							// zbch_wite = 0 └╠╕ώ
				USART3_SendString("+++");			// USART3 ┐κ +++ └ⁿ╝█
    57cc:	89 e9       	ldi	r24, 0x99	; 153
    57ce:	90 e4       	ldi	r25, 0x40	; 64
    57d0:	0e 94 17 28 	call	0x502e	; 0x502e <USART3_SendString>
    57d4:	2f ef       	ldi	r18, 0xFF	; 255
    57d6:	8f ef       	ldi	r24, 0xFF	; 255
    57d8:	9c e2       	ldi	r25, 0x2C	; 44
    57da:	21 50       	subi	r18, 0x01	; 1
    57dc:	80 40       	sbci	r24, 0x00	; 0
    57de:	90 40       	sbci	r25, 0x00	; 0
    57e0:	e1 f7       	brne	.-8      	; 0x57da <ZigBee_Write_ch+0x22>
    57e2:	00 c0       	rjmp	.+0      	; 0x57e4 <ZigBee_Write_ch+0x2c>
    57e4:	00 00       	nop
    57e6:	32 c0       	rjmp	.+100    	; 0x584c <ZigBee_Write_ch+0x94>
				_delay_ms(1000);				// ZigBee ├╓├╩ ┤ϊ║ψ ╜├░μ 1├╩ Delay
			break;

			case 1:							// zbch_wite = 1 └╠╕ώ
				USART3_SendString("ATCH");			// USART3 ┐κ ATCH └ⁿ╝█
    57e8:	8e ea       	ldi	r24, 0xAE	; 174
    57ea:	90 e4       	ldi	r25, 0x40	; 64
    57ec:	0e 94 17 28 	call	0x502e	; 0x502e <USART3_SendString>
				USART3_Write(CH[ZB_ch] / 256);			// USART3 ┐κ ├ν│╬ 1Byte ╗≤└π └ⁿ╝█
    57f0:	e0 91 67 4a 	lds	r30, 0x4A67	; 0x804a67 <ZB_ch>
    57f4:	f0 e0       	ldi	r31, 0x00	; 0
    57f6:	ee 0f       	add	r30, r30
    57f8:	ff 1f       	adc	r31, r31
    57fa:	e6 5d       	subi	r30, 0xD6	; 214
    57fc:	ff 4b       	sbci	r31, 0xBF	; 191
    57fe:	80 81       	ld	r24, Z
    5800:	91 81       	ldd	r25, Z+1	; 0x01
    5802:	99 23       	and	r25, r25
    5804:	14 f4       	brge	.+4      	; 0x580a <ZigBee_Write_ch+0x52>
    5806:	81 50       	subi	r24, 0x01	; 1
    5808:	9f 4f       	sbci	r25, 0xFF	; 255
    580a:	89 2f       	mov	r24, r25
    580c:	0e 94 0e 28 	call	0x501c	; 0x501c <USART3_Write>
				USART3_Write(CH[ZB_ch] % 256);			// USART3 ┐κ ├ν│╬ 1Byte ╟╧└π └ⁿ╝█
    5810:	e0 91 67 4a 	lds	r30, 0x4A67	; 0x804a67 <ZB_ch>
    5814:	f0 e0       	ldi	r31, 0x00	; 0
    5816:	ee 0f       	add	r30, r30
    5818:	ff 1f       	adc	r31, r31
    581a:	e6 5d       	subi	r30, 0xD6	; 214
    581c:	ff 4b       	sbci	r31, 0xBF	; 191
    581e:	80 81       	ld	r24, Z
    5820:	91 81       	ldd	r25, Z+1	; 0x01
    5822:	90 78       	andi	r25, 0x80	; 128
    5824:	99 23       	and	r25, r25
    5826:	1c f4       	brge	.+6      	; 0x582e <ZigBee_Write_ch+0x76>
    5828:	01 97       	sbiw	r24, 0x01	; 1
    582a:	9f 6f       	ori	r25, 0xFF	; 255
    582c:	01 96       	adiw	r24, 0x01	; 1
    582e:	0e 94 0e 28 	call	0x501c	; 0x501c <USART3_Write>
				USART3_Write('\r');				// USART3 ┐κ \r
    5832:	8d e0       	ldi	r24, 0x0D	; 13
    5834:	0e 94 0e 28 	call	0x501c	; 0x501c <USART3_Write>
			break;
    5838:	09 c0       	rjmp	.+18     	; 0x584c <ZigBee_Write_ch+0x94>

			case 2:							// zbch_wite = 2 └╠╕ώ
				USART3_SendString("ATWR\r");			// USART3 ┐κ ATWR\r └ⁿ╝█
    583a:	82 ea       	ldi	r24, 0xA2	; 162
    583c:	90 e4       	ldi	r25, 0x40	; 64
    583e:	0e 94 17 28 	call	0x502e	; 0x502e <USART3_SendString>
			break;
    5842:	04 c0       	rjmp	.+8      	; 0x584c <ZigBee_Write_ch+0x94>

			case 3:							// zbch_wite = 3 └╠╕ώ
				USART3_SendString("ATCN\r");			// USART3 ┐κ ATCN\r └ⁿ╝█
    5844:	88 ea       	ldi	r24, 0xA8	; 168
    5846:	90 e4       	ldi	r25, 0x40	; 64
    5848:	0e 94 17 28 	call	0x502e	; 0x502e <USART3_SendString>
			break;
		}
//-------------------------------------------------------------------------------------------------
		for(uint8_t cnt = 0; cnt < RX3_SIZE; cnt++)			// RX3_SIZE ╕╕┼φ ╣▌║╣
    584c:	80 e0       	ldi	r24, 0x00	; 0
    584e:	9d c0       	rjmp	.+314    	; 0x598a <ZigBee_Write_ch+0x1d2>
		{
			if(zbch_wite == 0 && Rx3_Buff[cnt] == 'O' && Rx3_Buff[cnt + 1] == 'K' && Rx3_Buff[cnt + 2] == 0x0d)
    5850:	c1 11       	cpse	r28, r1
    5852:	25 c0       	rjmp	.+74     	; 0x589e <ZigBee_Write_ch+0xe6>
    5854:	28 2f       	mov	r18, r24
    5856:	30 e0       	ldi	r19, 0x00	; 0
    5858:	f9 01       	movw	r30, r18
    585a:	e0 5f       	subi	r30, 0xF0	; 240
    585c:	f4 4b       	sbci	r31, 0xB4	; 180
    585e:	90 81       	ld	r25, Z
    5860:	9f 34       	cpi	r25, 0x4F	; 79
    5862:	e9 f4       	brne	.+58     	; 0x589e <ZigBee_Write_ch+0xe6>
    5864:	f9 01       	movw	r30, r18
    5866:	ef 5e       	subi	r30, 0xEF	; 239
    5868:	f4 4b       	sbci	r31, 0xB4	; 180
    586a:	90 81       	ld	r25, Z
    586c:	9b 34       	cpi	r25, 0x4B	; 75
    586e:	b9 f4       	brne	.+46     	; 0x589e <ZigBee_Write_ch+0xe6>
    5870:	f9 01       	movw	r30, r18
    5872:	ee 5e       	subi	r30, 0xEE	; 238
    5874:	f4 4b       	sbci	r31, 0xB4	; 180
    5876:	90 81       	ld	r25, Z
    5878:	9d 30       	cpi	r25, 0x0D	; 13
    587a:	89 f4       	brne	.+34     	; 0x589e <ZigBee_Write_ch+0xe6>
			{							// 0+OK+CR
				zbch_wite = 1;					// ┤ϊ║ψ ╚χ└╬ ╚─ ┤┘└╜└╕╖╬ ┴Ϋ░κ
				Beep(3);
    587c:	83 e0       	ldi	r24, 0x03	; 3
    587e:	90 e0       	ldi	r25, 0x00	; 0
    5880:	0e 94 3b 04 	call	0x876	; 0x876 <Beep>
    5884:	2f ef       	ldi	r18, 0xFF	; 255
    5886:	8f e3       	ldi	r24, 0x3F	; 63
    5888:	92 e0       	ldi	r25, 0x02	; 2
    588a:	21 50       	subi	r18, 0x01	; 1
    588c:	80 40       	sbci	r24, 0x00	; 0
    588e:	90 40       	sbci	r25, 0x00	; 0
    5890:	e1 f7       	brne	.-8      	; 0x588a <ZigBee_Write_ch+0xd2>
    5892:	00 c0       	rjmp	.+0      	; 0x5894 <ZigBee_Write_ch+0xdc>
    5894:	00 00       	nop
				_delay_ms(50);					// ZigBee ├│╕χ ╜├░μ ╚─
				Rx3_Buff_Clear();				// Rx3 Buff Clear
    5896:	0e 94 35 28 	call	0x506a	; 0x506a <Rx3_Buff_Clear>
//-------------------------------------------------------------------------------------------------
		for(uint8_t cnt = 0; cnt < RX3_SIZE; cnt++)			// RX3_SIZE ╕╕┼φ ╣▌║╣
		{
			if(zbch_wite == 0 && Rx3_Buff[cnt] == 'O' && Rx3_Buff[cnt + 1] == 'K' && Rx3_Buff[cnt + 2] == 0x0d)
			{							// 0+OK+CR
				zbch_wite = 1;					// ┤ϊ║ψ ╚χ└╬ ╚─ ┤┘└╜└╕╖╬ ┴Ϋ░κ
    589a:	c1 e0       	ldi	r28, 0x01	; 1
				Beep(3);
				_delay_ms(50);					// ZigBee ├│╕χ ╜├░μ ╚─
				Rx3_Buff_Clear();				// Rx3 Buff Clear
				break;
    589c:	79 c0       	rjmp	.+242    	; 0x5990 <ZigBee_Write_ch+0x1d8>
			}

			if(zbch_wite == 1 && Rx3_Buff[cnt] == 'O' && Rx3_Buff[cnt + 1] == 'K' && Rx3_Buff[cnt + 2] == 0x0d)
    589e:	c1 30       	cpi	r28, 0x01	; 1
    58a0:	29 f5       	brne	.+74     	; 0x58ec <ZigBee_Write_ch+0x134>
    58a2:	28 2f       	mov	r18, r24
    58a4:	30 e0       	ldi	r19, 0x00	; 0
    58a6:	f9 01       	movw	r30, r18
    58a8:	e0 5f       	subi	r30, 0xF0	; 240
    58aa:	f4 4b       	sbci	r31, 0xB4	; 180
    58ac:	90 81       	ld	r25, Z
    58ae:	9f 34       	cpi	r25, 0x4F	; 79
    58b0:	e9 f4       	brne	.+58     	; 0x58ec <ZigBee_Write_ch+0x134>
    58b2:	f9 01       	movw	r30, r18
    58b4:	ef 5e       	subi	r30, 0xEF	; 239
    58b6:	f4 4b       	sbci	r31, 0xB4	; 180
    58b8:	90 81       	ld	r25, Z
    58ba:	9b 34       	cpi	r25, 0x4B	; 75
    58bc:	b9 f4       	brne	.+46     	; 0x58ec <ZigBee_Write_ch+0x134>
    58be:	f9 01       	movw	r30, r18
    58c0:	ee 5e       	subi	r30, 0xEE	; 238
    58c2:	f4 4b       	sbci	r31, 0xB4	; 180
    58c4:	90 81       	ld	r25, Z
    58c6:	9d 30       	cpi	r25, 0x0D	; 13
    58c8:	89 f4       	brne	.+34     	; 0x58ec <ZigBee_Write_ch+0x134>
			{							// 1+OK+CR
				zbch_wite = 2;					// ┤ϊ║ψ ╚χ└╬ ╚─ ┤┘└╜└╕╖╬ ┴Ϋ░κ
				Beep(3);
    58ca:	83 e0       	ldi	r24, 0x03	; 3
    58cc:	90 e0       	ldi	r25, 0x00	; 0
    58ce:	0e 94 3b 04 	call	0x876	; 0x876 <Beep>
    58d2:	2f ef       	ldi	r18, 0xFF	; 255
    58d4:	8f e3       	ldi	r24, 0x3F	; 63
    58d6:	92 e0       	ldi	r25, 0x02	; 2
    58d8:	21 50       	subi	r18, 0x01	; 1
    58da:	80 40       	sbci	r24, 0x00	; 0
    58dc:	90 40       	sbci	r25, 0x00	; 0
    58de:	e1 f7       	brne	.-8      	; 0x58d8 <ZigBee_Write_ch+0x120>
    58e0:	00 c0       	rjmp	.+0      	; 0x58e2 <ZigBee_Write_ch+0x12a>
    58e2:	00 00       	nop
				_delay_ms(50);					// ZigBee ├│╕χ ╜├░μ ╚─
				Rx3_Buff_Clear();				// Rx3 Buff Clear
    58e4:	0e 94 35 28 	call	0x506a	; 0x506a <Rx3_Buff_Clear>
				break;
			}

			if(zbch_wite == 1 && Rx3_Buff[cnt] == 'O' && Rx3_Buff[cnt + 1] == 'K' && Rx3_Buff[cnt + 2] == 0x0d)
			{							// 1+OK+CR
				zbch_wite = 2;					// ┤ϊ║ψ ╚χ└╬ ╚─ ┤┘└╜└╕╖╬ ┴Ϋ░κ
    58e8:	c2 e0       	ldi	r28, 0x02	; 2
				Beep(3);
				_delay_ms(50);					// ZigBee ├│╕χ ╜├░μ ╚─
				Rx3_Buff_Clear();				// Rx3 Buff Clear
				break;
    58ea:	52 c0       	rjmp	.+164    	; 0x5990 <ZigBee_Write_ch+0x1d8>
			}

			if(zbch_wite == 2 && Rx3_Buff[cnt] == 'O' && Rx3_Buff[cnt + 1] == 'K' && Rx3_Buff[cnt + 2] == 0x0d)
    58ec:	c2 30       	cpi	r28, 0x02	; 2
    58ee:	29 f5       	brne	.+74     	; 0x593a <ZigBee_Write_ch+0x182>
    58f0:	28 2f       	mov	r18, r24
    58f2:	30 e0       	ldi	r19, 0x00	; 0
    58f4:	f9 01       	movw	r30, r18
    58f6:	e0 5f       	subi	r30, 0xF0	; 240
    58f8:	f4 4b       	sbci	r31, 0xB4	; 180
    58fa:	90 81       	ld	r25, Z
    58fc:	9f 34       	cpi	r25, 0x4F	; 79
    58fe:	e9 f4       	brne	.+58     	; 0x593a <ZigBee_Write_ch+0x182>
    5900:	f9 01       	movw	r30, r18
    5902:	ef 5e       	subi	r30, 0xEF	; 239
    5904:	f4 4b       	sbci	r31, 0xB4	; 180
    5906:	90 81       	ld	r25, Z
    5908:	9b 34       	cpi	r25, 0x4B	; 75
    590a:	b9 f4       	brne	.+46     	; 0x593a <ZigBee_Write_ch+0x182>
    590c:	f9 01       	movw	r30, r18
    590e:	ee 5e       	subi	r30, 0xEE	; 238
    5910:	f4 4b       	sbci	r31, 0xB4	; 180
    5912:	90 81       	ld	r25, Z
    5914:	9d 30       	cpi	r25, 0x0D	; 13
    5916:	89 f4       	brne	.+34     	; 0x593a <ZigBee_Write_ch+0x182>
			{							// 2+OK+CR
				zbch_wite = 3;					// ┤ϊ║ψ ╚χ└╬ ╚─ ┤┘└╜└╕╖╬ ┴Ϋ░κ
				Beep(3);
    5918:	83 e0       	ldi	r24, 0x03	; 3
    591a:	90 e0       	ldi	r25, 0x00	; 0
    591c:	0e 94 3b 04 	call	0x876	; 0x876 <Beep>
    5920:	2f ef       	ldi	r18, 0xFF	; 255
    5922:	8f e3       	ldi	r24, 0x3F	; 63
    5924:	92 e0       	ldi	r25, 0x02	; 2
    5926:	21 50       	subi	r18, 0x01	; 1
    5928:	80 40       	sbci	r24, 0x00	; 0
    592a:	90 40       	sbci	r25, 0x00	; 0
    592c:	e1 f7       	brne	.-8      	; 0x5926 <ZigBee_Write_ch+0x16e>
    592e:	00 c0       	rjmp	.+0      	; 0x5930 <ZigBee_Write_ch+0x178>
    5930:	00 00       	nop
				_delay_ms(50);					// ZigBee ├│╕χ ╜├░μ ╚─
				Rx3_Buff_Clear();				// Rx3 Buff Clear
    5932:	0e 94 35 28 	call	0x506a	; 0x506a <Rx3_Buff_Clear>
				break;
			}

			if(zbch_wite == 2 && Rx3_Buff[cnt] == 'O' && Rx3_Buff[cnt + 1] == 'K' && Rx3_Buff[cnt + 2] == 0x0d)
			{							// 2+OK+CR
				zbch_wite = 3;					// ┤ϊ║ψ ╚χ└╬ ╚─ ┤┘└╜└╕╖╬ ┴Ϋ░κ
    5936:	c3 e0       	ldi	r28, 0x03	; 3
				Beep(3);
				_delay_ms(50);					// ZigBee ├│╕χ ╜├░μ ╚─
				Rx3_Buff_Clear();				// Rx3 Buff Clear
				break;
    5938:	2b c0       	rjmp	.+86     	; 0x5990 <ZigBee_Write_ch+0x1d8>
			}

			if(zbch_wite == 3 && Rx3_Buff[cnt] == 'O' && Rx3_Buff[cnt + 1] == 'K' && Rx3_Buff[cnt + 2] == 0x0d)
    593a:	c3 30       	cpi	r28, 0x03	; 3
    593c:	29 f5       	brne	.+74     	; 0x5988 <ZigBee_Write_ch+0x1d0>
    593e:	28 2f       	mov	r18, r24
    5940:	30 e0       	ldi	r19, 0x00	; 0
    5942:	f9 01       	movw	r30, r18
    5944:	e0 5f       	subi	r30, 0xF0	; 240
    5946:	f4 4b       	sbci	r31, 0xB4	; 180
    5948:	90 81       	ld	r25, Z
    594a:	9f 34       	cpi	r25, 0x4F	; 79
    594c:	e9 f4       	brne	.+58     	; 0x5988 <ZigBee_Write_ch+0x1d0>
    594e:	f9 01       	movw	r30, r18
    5950:	ef 5e       	subi	r30, 0xEF	; 239
    5952:	f4 4b       	sbci	r31, 0xB4	; 180
    5954:	90 81       	ld	r25, Z
    5956:	9b 34       	cpi	r25, 0x4B	; 75
    5958:	b9 f4       	brne	.+46     	; 0x5988 <ZigBee_Write_ch+0x1d0>
    595a:	f9 01       	movw	r30, r18
    595c:	ee 5e       	subi	r30, 0xEE	; 238
    595e:	f4 4b       	sbci	r31, 0xB4	; 180
    5960:	90 81       	ld	r25, Z
    5962:	9d 30       	cpi	r25, 0x0D	; 13
    5964:	89 f4       	brne	.+34     	; 0x5988 <ZigBee_Write_ch+0x1d0>
			{							// 3+OK+CR
				zbch_wite = 5;					// ┤ϊ║ψ ╚χ└╬ ╚─ While()╣χ ┴╛╖ά
				Beep(3);
    5966:	83 e0       	ldi	r24, 0x03	; 3
    5968:	90 e0       	ldi	r25, 0x00	; 0
    596a:	0e 94 3b 04 	call	0x876	; 0x876 <Beep>
    596e:	2f ef       	ldi	r18, 0xFF	; 255
    5970:	8f e3       	ldi	r24, 0x3F	; 63
    5972:	92 e0       	ldi	r25, 0x02	; 2
    5974:	21 50       	subi	r18, 0x01	; 1
    5976:	80 40       	sbci	r24, 0x00	; 0
    5978:	90 40       	sbci	r25, 0x00	; 0
    597a:	e1 f7       	brne	.-8      	; 0x5974 <ZigBee_Write_ch+0x1bc>
    597c:	00 c0       	rjmp	.+0      	; 0x597e <ZigBee_Write_ch+0x1c6>
    597e:	00 00       	nop
				_delay_ms(50);					// ZigBee ├│╕χ ╜├░μ ╚─
				Rx3_Buff_Clear();				// Rx3 Buff Clear
    5980:	0e 94 35 28 	call	0x506a	; 0x506a <Rx3_Buff_Clear>
				break;
			}

			if(zbch_wite == 3 && Rx3_Buff[cnt] == 'O' && Rx3_Buff[cnt + 1] == 'K' && Rx3_Buff[cnt + 2] == 0x0d)
			{							// 3+OK+CR
				zbch_wite = 5;					// ┤ϊ║ψ ╚χ└╬ ╚─ While()╣χ ┴╛╖ά
    5984:	c5 e0       	ldi	r28, 0x05	; 5
				Beep(3);
				_delay_ms(50);					// ZigBee ├│╕χ ╜├░μ ╚─
				Rx3_Buff_Clear();				// Rx3 Buff Clear
				break;
    5986:	04 c0       	rjmp	.+8      	; 0x5990 <ZigBee_Write_ch+0x1d8>
			case 3:							// zbch_wite = 3 └╠╕ώ
				USART3_SendString("ATCN\r");			// USART3 ┐κ ATCN\r └ⁿ╝█
			break;
		}
//-------------------------------------------------------------------------------------------------
		for(uint8_t cnt = 0; cnt < RX3_SIZE; cnt++)			// RX3_SIZE ╕╕┼φ ╣▌║╣
    5988:	8f 5f       	subi	r24, 0xFF	; 255
    598a:	8a 3f       	cpi	r24, 0xFA	; 250
    598c:	08 f4       	brcc	.+2      	; 0x5990 <ZigBee_Write_ch+0x1d8>
    598e:	60 cf       	rjmp	.-320    	; 0x5850 <ZigBee_Write_ch+0x98>
				_delay_ms(50);					// ZigBee ├│╕χ ╜├░μ ╚─
				Rx3_Buff_Clear();				// Rx3 Buff Clear
				break;
			}
		}
		wdt_reset();							// ┐÷─κ╡╢ ╕χ╝┬
    5990:	0e 94 78 0c 	call	0x18f0	; 0x18f0 <wdt_reset>
	}while(zbch_wite != 5);							// zbch_wite ░κ 5 └╧╢π ▒Ό┴÷ ╣▌║╣
    5994:	c5 30       	cpi	r28, 0x05	; 5
    5996:	09 f0       	breq	.+2      	; 0x599a <ZigBee_Write_ch+0x1e2>
    5998:	11 cf       	rjmp	.-478    	; 0x57bc <ZigBee_Write_ch+0x4>
}
    599a:	cf 91       	pop	r28
    599c:	08 95       	ret

0000599e <ZigBee_Channel_Write>:

//=================================================================================================
void ZigBee_Channel_Write(void)							// ZigBee ├ν│╬ ╝│┴ν
{
	FND_Value_Data(2, 2, 12);						// FND 0 ~ 2 FND_OFF
    599e:	4c e0       	ldi	r20, 0x0C	; 12
    59a0:	62 e0       	ldi	r22, 0x02	; 2
    59a2:	82 e0       	ldi	r24, 0x02	; 2
    59a4:	0e 94 ca 05 	call	0xb94	; 0xb94 <FND_Value_Data>

	while(SET.Select && SET.Menu)						// ╕▐┤║ ┐═ ╝▒┼├ └╠ ╕Ώ╡╬ 1 └╠╕ώ ╣▌║╣
    59a8:	3d c0       	rjmp	.+122    	; 0x5a24 <ZigBee_Channel_Write+0x86>
	{
		DIGIT[1][1] = fnd_tbl[ZB_ch / 10];				// FND 2 ┐κ ┴÷▒╫║± ├╝│╬ ╟ξ╜├
    59aa:	20 91 67 4a 	lds	r18, 0x4A67	; 0x804a67 <ZB_ch>
    59ae:	8d ec       	ldi	r24, 0xCD	; 205
    59b0:	28 9f       	mul	r18, r24
    59b2:	81 2d       	mov	r24, r1
    59b4:	11 24       	eor	r1, r1
    59b6:	86 95       	lsr	r24
    59b8:	86 95       	lsr	r24
    59ba:	86 95       	lsr	r24
    59bc:	e8 2f       	mov	r30, r24
    59be:	f0 e0       	ldi	r31, 0x00	; 0
    59c0:	e4 57       	subi	r30, 0x74	; 116
    59c2:	ff 4b       	sbci	r31, 0xBF	; 191
    59c4:	90 81       	ld	r25, Z
    59c6:	a3 ec       	ldi	r26, 0xC3	; 195
    59c8:	b0 e4       	ldi	r27, 0x40	; 64
    59ca:	15 96       	adiw	r26, 0x05	; 5
    59cc:	9c 93       	st	X, r25
    59ce:	15 97       	sbiw	r26, 0x05	; 5
		DIGIT[1][0] = fnd_tbl[ZB_ch % 10];
    59d0:	88 0f       	add	r24, r24
    59d2:	98 2f       	mov	r25, r24
    59d4:	99 0f       	add	r25, r25
    59d6:	99 0f       	add	r25, r25
    59d8:	89 0f       	add	r24, r25
    59da:	e2 2f       	mov	r30, r18
    59dc:	e8 1b       	sub	r30, r24
    59de:	f0 e0       	ldi	r31, 0x00	; 0
    59e0:	e4 57       	subi	r30, 0x74	; 116
    59e2:	ff 4b       	sbci	r31, 0xBF	; 191
    59e4:	80 81       	ld	r24, Z
    59e6:	14 96       	adiw	r26, 0x04	; 4
    59e8:	8c 93       	st	X, r24

		if(KEY.Buff)							// Key └╘╖┬└╠ └╓└╕╕ώ
    59ea:	80 91 d6 4a 	lds	r24, 0x4AD6	; 0x804ad6 <KEY+0x1>
    59ee:	88 23       	and	r24, r24
    59f0:	b9 f0       	breq	.+46     	; 0x5a20 <ZigBee_Channel_Write+0x82>
		{
			if     (KEY.Key == 1 && ZB_ch < 14) {ZB_ch++; KEY.Key = 0;}	// ╛≈  ╣÷╞░ └╠╕ώ ZigBee ├ν│╬ 14▒Ό┴÷ ┴Ϋ░κ
    59f2:	80 91 d7 4a 	lds	r24, 0x4AD7	; 0x804ad7 <KEY+0x2>
    59f6:	81 30       	cpi	r24, 0x01	; 1
    59f8:	41 f4       	brne	.+16     	; 0x5a0a <ZigBee_Channel_Write+0x6c>
    59fa:	2e 30       	cpi	r18, 0x0E	; 14
    59fc:	30 f4       	brcc	.+12     	; 0x5a0a <ZigBee_Channel_Write+0x6c>
    59fe:	2f 5f       	subi	r18, 0xFF	; 255
    5a00:	20 93 67 4a 	sts	0x4A67, r18	; 0x804a67 <ZB_ch>
    5a04:	10 92 d7 4a 	sts	0x4AD7, r1	; 0x804ad7 <KEY+0x2>
    5a08:	0b c0       	rjmp	.+22     	; 0x5a20 <ZigBee_Channel_Write+0x82>
			else if(KEY.Key == 3 && ZB_ch > 0)  {ZB_ch--; KEY.Key = 0;}	// ┤┘┐Ό╣÷╞░ └╠╕ώ ZigBee ├ν│╬  0▒Ό┴÷ ░ρ╝╥
    5a0a:	80 91 d7 4a 	lds	r24, 0x4AD7	; 0x804ad7 <KEY+0x2>
    5a0e:	83 30       	cpi	r24, 0x03	; 3
    5a10:	39 f4       	brne	.+14     	; 0x5a20 <ZigBee_Channel_Write+0x82>
    5a12:	22 23       	and	r18, r18
    5a14:	29 f0       	breq	.+10     	; 0x5a20 <ZigBee_Channel_Write+0x82>
    5a16:	21 50       	subi	r18, 0x01	; 1
    5a18:	20 93 67 4a 	sts	0x4A67, r18	; 0x804a67 <ZB_ch>
    5a1c:	10 92 d7 4a 	sts	0x4AD7, r1	; 0x804ad7 <KEY+0x2>
		}
		wdt_reset();							// ┐÷─κ╡╢ ╕χ╝┬
    5a20:	0e 94 78 0c 	call	0x18f0	; 0x18f0 <wdt_reset>
//=================================================================================================
void ZigBee_Channel_Write(void)							// ZigBee ├ν│╬ ╝│┴ν
{
	FND_Value_Data(2, 2, 12);						// FND 0 ~ 2 FND_OFF

	while(SET.Select && SET.Menu)						// ╕▐┤║ ┐═ ╝▒┼├ └╠ ╕Ώ╡╬ 1 └╠╕ώ ╣▌║╣
    5a24:	80 91 90 4a 	lds	r24, 0x4A90	; 0x804a90 <SET+0x1>
    5a28:	88 23       	and	r24, r24
    5a2a:	21 f0       	breq	.+8      	; 0x5a34 <ZigBee_Channel_Write+0x96>
    5a2c:	80 91 8f 4a 	lds	r24, 0x4A8F	; 0x804a8f <SET>
    5a30:	81 11       	cpse	r24, r1
    5a32:	bb cf       	rjmp	.-138    	; 0x59aa <ZigBee_Channel_Write+0xc>
			if     (KEY.Key == 1 && ZB_ch < 14) {ZB_ch++; KEY.Key = 0;}	// ╛≈  ╣÷╞░ └╠╕ώ ZigBee ├ν│╬ 14▒Ό┴÷ ┴Ϋ░κ
			else if(KEY.Key == 3 && ZB_ch > 0)  {ZB_ch--; KEY.Key = 0;}	// ┤┘┐Ό╣÷╞░ └╠╕ώ ZigBee ├ν│╬  0▒Ό┴÷ ░ρ╝╥
		}
		wdt_reset();							// ┐÷─κ╡╢ ╕χ╝┬
	}
	ZigBee_Write_ch();							// ZigBee ┐κ ├ν│╬ └·└ί
    5a34:	0e 94 dc 2b 	call	0x57b8	; 0x57b8 <ZigBee_Write_ch>
    5a38:	08 95       	ret

00005a3a <ZigBee_Read>:
}

//=================================================================================================
void ZigBee_Read(void)								// ZigBee ╝│┴ν░ς └╨▒έ								
{
    5a3a:	cf 93       	push	r28
	uint8_t zbch_read = 0;							// zbch_read ║ψ╝÷ ├╩▒έ╚φ
    5a3c:	c0 e0       	ldi	r28, 0x00	; 0

	do{
		switch(zbch_read)						// zbch_read
    5a3e:	c1 30       	cpi	r28, 0x01	; 1
    5a40:	a1 f0       	breq	.+40     	; 0x5a6a <ZigBee_Read+0x30>
    5a42:	28 f0       	brcs	.+10     	; 0x5a4e <ZigBee_Read+0x14>
    5a44:	c2 30       	cpi	r28, 0x02	; 2
    5a46:	b1 f0       	breq	.+44     	; 0x5a74 <ZigBee_Read+0x3a>
    5a48:	c3 30       	cpi	r28, 0x03	; 3
    5a4a:	c9 f0       	breq	.+50     	; 0x5a7e <ZigBee_Read+0x44>
    5a4c:	1c c0       	rjmp	.+56     	; 0x5a86 <ZigBee_Read+0x4c>
		{
			case 0:							// zbch_read = 0 └╠╕ώ
				USART3_SendString("+++");			// USART3 ┐κ +++ └ⁿ╝█
    5a4e:	89 e9       	ldi	r24, 0x99	; 153
    5a50:	90 e4       	ldi	r25, 0x40	; 64
    5a52:	0e 94 17 28 	call	0x502e	; 0x502e <USART3_SendString>
    5a56:	2f ef       	ldi	r18, 0xFF	; 255
    5a58:	8f ef       	ldi	r24, 0xFF	; 255
    5a5a:	9c e2       	ldi	r25, 0x2C	; 44
    5a5c:	21 50       	subi	r18, 0x01	; 1
    5a5e:	80 40       	sbci	r24, 0x00	; 0
    5a60:	90 40       	sbci	r25, 0x00	; 0
    5a62:	e1 f7       	brne	.-8      	; 0x5a5c <ZigBee_Read+0x22>
    5a64:	00 c0       	rjmp	.+0      	; 0x5a66 <ZigBee_Read+0x2c>
    5a66:	00 00       	nop
    5a68:	0e c0       	rjmp	.+28     	; 0x5a86 <ZigBee_Read+0x4c>
				_delay_ms(1000);				// ZigBee ├╓├╩ ┤ϊ║ψ ╜├░μ 1├╩ Delay
			break;

			case 1:							// zbch_read = 1 └╠╕ώ
				USART3_SendString("ATCH\r");			// USART3 ┐κ ATCH └ⁿ╝█
    5a6a:	83 eb       	ldi	r24, 0xB3	; 179
    5a6c:	90 e4       	ldi	r25, 0x40	; 64
    5a6e:	0e 94 17 28 	call	0x502e	; 0x502e <USART3_SendString>
			break;
    5a72:	09 c0       	rjmp	.+18     	; 0x5a86 <ZigBee_Read+0x4c>

			case 2:							// zbch_read = 2 └╠╕ώ
				USART3_SendString("ATID\r");			// USART3 ┐κ ATWR └ⁿ╝█
    5a74:	89 eb       	ldi	r24, 0xB9	; 185
    5a76:	90 e4       	ldi	r25, 0x40	; 64
    5a78:	0e 94 17 28 	call	0x502e	; 0x502e <USART3_SendString>
			break;
    5a7c:	04 c0       	rjmp	.+8      	; 0x5a86 <ZigBee_Read+0x4c>

			case 3:							// zbch_read = 3 └╠╕ώ
				USART3_SendString("ATCN\r");			// USART3 ┐κ ATCN └ⁿ╝█
    5a7e:	88 ea       	ldi	r24, 0xA8	; 168
    5a80:	90 e4       	ldi	r25, 0x40	; 64
    5a82:	0e 94 17 28 	call	0x502e	; 0x502e <USART3_SendString>
			break;
		}
//-------------------------------------------------------------------------------------------------
		for(uint8_t cnt = 0; cnt < RX3_SIZE; cnt++)			// RX3_SIZE ╕╕┼φ ╣▌║╣
    5a86:	80 e0       	ldi	r24, 0x00	; 0
    5a88:	30 c1       	rjmp	.+608    	; 0x5cea <ZigBee_Read+0x2b0>
		{
			if(zbch_read == 0 && Rx3_Buff[cnt] == 'O' && Rx3_Buff[cnt + 1] == 'K' && Rx3_Buff[cnt + 2] == 0x0d)
    5a8a:	c1 11       	cpse	r28, r1
    5a8c:	25 c0       	rjmp	.+74     	; 0x5ad8 <ZigBee_Read+0x9e>
    5a8e:	28 2f       	mov	r18, r24
    5a90:	30 e0       	ldi	r19, 0x00	; 0
    5a92:	f9 01       	movw	r30, r18
    5a94:	e0 5f       	subi	r30, 0xF0	; 240
    5a96:	f4 4b       	sbci	r31, 0xB4	; 180
    5a98:	90 81       	ld	r25, Z
    5a9a:	9f 34       	cpi	r25, 0x4F	; 79
    5a9c:	e9 f4       	brne	.+58     	; 0x5ad8 <ZigBee_Read+0x9e>
    5a9e:	f9 01       	movw	r30, r18
    5aa0:	ef 5e       	subi	r30, 0xEF	; 239
    5aa2:	f4 4b       	sbci	r31, 0xB4	; 180
    5aa4:	90 81       	ld	r25, Z
    5aa6:	9b 34       	cpi	r25, 0x4B	; 75
    5aa8:	b9 f4       	brne	.+46     	; 0x5ad8 <ZigBee_Read+0x9e>
    5aaa:	f9 01       	movw	r30, r18
    5aac:	ee 5e       	subi	r30, 0xEE	; 238
    5aae:	f4 4b       	sbci	r31, 0xB4	; 180
    5ab0:	90 81       	ld	r25, Z
    5ab2:	9d 30       	cpi	r25, 0x0D	; 13
    5ab4:	89 f4       	brne	.+34     	; 0x5ad8 <ZigBee_Read+0x9e>
			{							// 0+OK+CR
				zbch_read = 1;					// ┤ϊ║ψ ╚χ└╬ ╚─ ┤┘└╜└╕╖╬ ┴Ϋ░κ
				Beep(3);
    5ab6:	83 e0       	ldi	r24, 0x03	; 3
    5ab8:	90 e0       	ldi	r25, 0x00	; 0
    5aba:	0e 94 3b 04 	call	0x876	; 0x876 <Beep>
    5abe:	2f ef       	ldi	r18, 0xFF	; 255
    5ac0:	8f e3       	ldi	r24, 0x3F	; 63
    5ac2:	92 e0       	ldi	r25, 0x02	; 2
    5ac4:	21 50       	subi	r18, 0x01	; 1
    5ac6:	80 40       	sbci	r24, 0x00	; 0
    5ac8:	90 40       	sbci	r25, 0x00	; 0
    5aca:	e1 f7       	brne	.-8      	; 0x5ac4 <ZigBee_Read+0x8a>
    5acc:	00 c0       	rjmp	.+0      	; 0x5ace <ZigBee_Read+0x94>
    5ace:	00 00       	nop
				_delay_ms(50);					// ZigBee ├│╕χ ╜├░μ ╚─
				Rx3_Buff_Clear();				// Rx3 Buff Clear
    5ad0:	0e 94 35 28 	call	0x506a	; 0x506a <Rx3_Buff_Clear>
//-------------------------------------------------------------------------------------------------
		for(uint8_t cnt = 0; cnt < RX3_SIZE; cnt++)			// RX3_SIZE ╕╕┼φ ╣▌║╣
		{
			if(zbch_read == 0 && Rx3_Buff[cnt] == 'O' && Rx3_Buff[cnt + 1] == 'K' && Rx3_Buff[cnt + 2] == 0x0d)
			{							// 0+OK+CR
				zbch_read = 1;					// ┤ϊ║ψ ╚χ└╬ ╚─ ┤┘└╜└╕╖╬ ┴Ϋ░κ
    5ad4:	c1 e0       	ldi	r28, 0x01	; 1
				Beep(3);
				_delay_ms(50);					// ZigBee ├│╕χ ╜├░μ ╚─
				Rx3_Buff_Clear();				// Rx3 Buff Clear
				break;
    5ad6:	0c c1       	rjmp	.+536    	; 0x5cf0 <ZigBee_Read+0x2b6>
			}
//-------------------------------------------------------------------------------------------------
			if(zbch_read == 1 && Rx3_Buff[cnt] == 0x0d)
    5ad8:	c1 30       	cpi	r28, 0x01	; 1
    5ada:	09 f0       	breq	.+2      	; 0x5ade <ZigBee_Read+0xa4>
    5adc:	4e c0       	rjmp	.+156    	; 0x5b7a <ZigBee_Read+0x140>
    5ade:	28 2f       	mov	r18, r24
    5ae0:	30 e0       	ldi	r19, 0x00	; 0
    5ae2:	f9 01       	movw	r30, r18
    5ae4:	e0 5f       	subi	r30, 0xF0	; 240
    5ae6:	f4 4b       	sbci	r31, 0xB4	; 180
    5ae8:	90 81       	ld	r25, Z
    5aea:	9d 30       	cpi	r25, 0x0D	; 13
    5aec:	09 f0       	breq	.+2      	; 0x5af0 <ZigBee_Read+0xb6>
    5aee:	45 c0       	rjmp	.+138    	; 0x5b7a <ZigBee_Read+0x140>
			{							// 1+CR
				switch(cnt)					// cnt
    5af0:	81 30       	cpi	r24, 0x01	; 1
    5af2:	19 f0       	breq	.+6      	; 0x5afa <ZigBee_Read+0xc0>
    5af4:	82 30       	cpi	r24, 0x02	; 2
    5af6:	49 f0       	breq	.+18     	; 0x5b0a <ZigBee_Read+0xd0>
    5af8:	2f c0       	rjmp	.+94     	; 0x5b58 <ZigBee_Read+0x11e>
				{
					case 1:					// ZigBee channel └╨╛Ό┐└▒έ. ╟╤└┌╕χ
						ZB_ch = Rx3_Buff[cnt-1] - 0x43;	// ZigBee channel 1└╟ └┌╕χ
    5afa:	f9 01       	movw	r30, r18
    5afc:	e1 5f       	subi	r30, 0xF1	; 241
    5afe:	f4 4b       	sbci	r31, 0xB4	; 180
    5b00:	80 81       	ld	r24, Z
    5b02:	83 54       	subi	r24, 0x43	; 67
    5b04:	80 93 67 4a 	sts	0x4A67, r24	; 0x804a67 <ZB_ch>
					break;
    5b08:	27 c0       	rjmp	.+78     	; 0x5b58 <ZigBee_Read+0x11e>

					case 2:					// ZigBee channel └╨╛Ό┐└▒έ. ╡╬└┌╕χ
						if(Rx3_Buff[cnt-1] <= 0x39) {ZB_ch = (Rx3_Buff[cnt-2] - 0x30) * 10 + (Rx3_Buff[cnt -1] - 0x30) - 6;}	// HEX To DEC
    5b0a:	f9 01       	movw	r30, r18
    5b0c:	e1 5f       	subi	r30, 0xF1	; 241
    5b0e:	f4 4b       	sbci	r31, 0xB4	; 180
    5b10:	80 81       	ld	r24, Z
    5b12:	8a 33       	cpi	r24, 0x3A	; 58
    5b14:	88 f4       	brcc	.+34     	; 0x5b38 <ZigBee_Read+0xfe>
    5b16:	f9 01       	movw	r30, r18
    5b18:	e2 5f       	subi	r30, 0xF2	; 242
    5b1a:	f4 4b       	sbci	r31, 0xB4	; 180
    5b1c:	20 81       	ld	r18, Z
    5b1e:	30 e0       	ldi	r19, 0x00	; 0
    5b20:	20 53       	subi	r18, 0x30	; 48
    5b22:	31 09       	sbc	r19, r1
    5b24:	22 0f       	add	r18, r18
    5b26:	92 2f       	mov	r25, r18
    5b28:	99 0f       	add	r25, r25
    5b2a:	99 0f       	add	r25, r25
    5b2c:	29 0f       	add	r18, r25
    5b2e:	82 0f       	add	r24, r18
    5b30:	86 53       	subi	r24, 0x36	; 54
    5b32:	80 93 67 4a 	sts	0x4A67, r24	; 0x804a67 <ZB_ch>
    5b36:	10 c0       	rjmp	.+32     	; 0x5b58 <ZigBee_Read+0x11e>
						else			    {ZB_ch = (Rx3_Buff[cnt-2] - 0x30) * 10 + (Rx3_Buff[cnt -1] - 0x37) - 6;}	// HEX To DEC
    5b38:	f9 01       	movw	r30, r18
    5b3a:	e2 5f       	subi	r30, 0xF2	; 242
    5b3c:	f4 4b       	sbci	r31, 0xB4	; 180
    5b3e:	20 81       	ld	r18, Z
    5b40:	30 e0       	ldi	r19, 0x00	; 0
    5b42:	20 53       	subi	r18, 0x30	; 48
    5b44:	31 09       	sbc	r19, r1
    5b46:	22 0f       	add	r18, r18
    5b48:	92 2f       	mov	r25, r18
    5b4a:	99 0f       	add	r25, r25
    5b4c:	99 0f       	add	r25, r25
    5b4e:	29 0f       	add	r18, r25
    5b50:	82 0f       	add	r24, r18
    5b52:	8d 53       	subi	r24, 0x3D	; 61
    5b54:	80 93 67 4a 	sts	0x4A67, r24	; 0x804a67 <ZB_ch>
					break;
				}
				zbch_read = 2;					// ┤ϊ║ψ ╚χ└╬ ╚─ ┤┘└╜└╕╖╬ ┴Ϋ░κ
				Beep(3);
    5b58:	83 e0       	ldi	r24, 0x03	; 3
    5b5a:	90 e0       	ldi	r25, 0x00	; 0
    5b5c:	0e 94 3b 04 	call	0x876	; 0x876 <Beep>
    5b60:	2f ef       	ldi	r18, 0xFF	; 255
    5b62:	8f e3       	ldi	r24, 0x3F	; 63
    5b64:	92 e0       	ldi	r25, 0x02	; 2
    5b66:	21 50       	subi	r18, 0x01	; 1
    5b68:	80 40       	sbci	r24, 0x00	; 0
    5b6a:	90 40       	sbci	r25, 0x00	; 0
    5b6c:	e1 f7       	brne	.-8      	; 0x5b66 <ZigBee_Read+0x12c>
    5b6e:	00 c0       	rjmp	.+0      	; 0x5b70 <ZigBee_Read+0x136>
    5b70:	00 00       	nop
				_delay_ms(50);					// ZigBee ├│╕χ ╜├░μ ╚─
				Rx3_Buff_Clear();				// Rx3 Buff Clear
    5b72:	0e 94 35 28 	call	0x506a	; 0x506a <Rx3_Buff_Clear>
					case 2:					// ZigBee channel └╨╛Ό┐└▒έ. ╡╬└┌╕χ
						if(Rx3_Buff[cnt-1] <= 0x39) {ZB_ch = (Rx3_Buff[cnt-2] - 0x30) * 10 + (Rx3_Buff[cnt -1] - 0x30) - 6;}	// HEX To DEC
						else			    {ZB_ch = (Rx3_Buff[cnt-2] - 0x30) * 10 + (Rx3_Buff[cnt -1] - 0x37) - 6;}	// HEX To DEC
					break;
				}
				zbch_read = 2;					// ┤ϊ║ψ ╚χ└╬ ╚─ ┤┘└╜└╕╖╬ ┴Ϋ░κ
    5b76:	c2 e0       	ldi	r28, 0x02	; 2
				Beep(3);
				_delay_ms(50);					// ZigBee ├│╕χ ╜├░μ ╚─
				Rx3_Buff_Clear();				// Rx3 Buff Clear
				break;
    5b78:	bb c0       	rjmp	.+374    	; 0x5cf0 <ZigBee_Read+0x2b6>
			}
//-------------------------------------------------------------------------------------------------
			if(zbch_read == 2 && Rx3_Buff[cnt] == 0x0d)
    5b7a:	c2 30       	cpi	r28, 0x02	; 2
    5b7c:	09 f0       	breq	.+2      	; 0x5b80 <ZigBee_Read+0x146>
    5b7e:	8d c0       	rjmp	.+282    	; 0x5c9a <ZigBee_Read+0x260>
    5b80:	28 2f       	mov	r18, r24
    5b82:	30 e0       	ldi	r19, 0x00	; 0
    5b84:	f9 01       	movw	r30, r18
    5b86:	e0 5f       	subi	r30, 0xF0	; 240
    5b88:	f4 4b       	sbci	r31, 0xB4	; 180
    5b8a:	90 81       	ld	r25, Z
    5b8c:	9d 30       	cpi	r25, 0x0D	; 13
    5b8e:	09 f0       	breq	.+2      	; 0x5b92 <ZigBee_Read+0x158>
    5b90:	84 c0       	rjmp	.+264    	; 0x5c9a <ZigBee_Read+0x260>
			{							// 2+CR
				switch(cnt)					// cnt
    5b92:	82 30       	cpi	r24, 0x02	; 2
    5b94:	a9 f0       	breq	.+42     	; 0x5bc0 <ZigBee_Read+0x186>
    5b96:	18 f4       	brcc	.+6      	; 0x5b9e <ZigBee_Read+0x164>
    5b98:	81 30       	cpi	r24, 0x01	; 1
    5b9a:	39 f0       	breq	.+14     	; 0x5baa <ZigBee_Read+0x170>
    5b9c:	6d c0       	rjmp	.+218    	; 0x5c78 <ZigBee_Read+0x23e>
    5b9e:	83 30       	cpi	r24, 0x03	; 3
    5ba0:	21 f1       	breq	.+72     	; 0x5bea <ZigBee_Read+0x1b0>
    5ba2:	84 30       	cpi	r24, 0x04	; 4
    5ba4:	09 f4       	brne	.+2      	; 0x5ba8 <ZigBee_Read+0x16e>
    5ba6:	40 c0       	rjmp	.+128    	; 0x5c28 <ZigBee_Read+0x1ee>
    5ba8:	67 c0       	rjmp	.+206    	; 0x5c78 <ZigBee_Read+0x23e>
				{
					case 1:						// ZigBee Pan ID └╨╛Ό┐└▒έ. 1 └┌╕χ
						Pan_id_1   = Rx3_Buff[cnt-1] - 0x30;	// ZigBee Pan_id 1└╟ └┌╕χ
    5baa:	f9 01       	movw	r30, r18
    5bac:	e1 5f       	subi	r30, 0xF1	; 241
    5bae:	f4 4b       	sbci	r31, 0xB4	; 180
    5bb0:	80 81       	ld	r24, Z
    5bb2:	90 e0       	ldi	r25, 0x00	; 0
    5bb4:	c0 97       	sbiw	r24, 0x30	; 48
    5bb6:	80 93 68 4a 	sts	0x4A68, r24	; 0x804a68 <Pan_id_1>
    5bba:	90 93 69 4a 	sts	0x4A69, r25	; 0x804a69 <Pan_id_1+0x1>
					break;
    5bbe:	5c c0       	rjmp	.+184    	; 0x5c78 <ZigBee_Read+0x23e>

					case 2:						// ZigBee Pan ID └╨╛Ό┐└▒έ. 2 └┌╕χ
						Pan_id_10  = Rx3_Buff[cnt-2] - 0x30;	// ZigBee Pan_id 10└╟ └┌╕χ
    5bc0:	f9 01       	movw	r30, r18
    5bc2:	e2 5f       	subi	r30, 0xF2	; 242
    5bc4:	f4 4b       	sbci	r31, 0xB4	; 180
    5bc6:	80 81       	ld	r24, Z
    5bc8:	90 e0       	ldi	r25, 0x00	; 0
    5bca:	c0 97       	sbiw	r24, 0x30	; 48
    5bcc:	80 93 8d 4a 	sts	0x4A8D, r24	; 0x804a8d <Pan_id_10>
    5bd0:	90 93 8e 4a 	sts	0x4A8E, r25	; 0x804a8e <Pan_id_10+0x1>
						Pan_id_1   = Rx3_Buff[cnt-1] - 0x30;	// ZigBee Pan_id  1└╟ └┌╕χ
    5bd4:	f9 01       	movw	r30, r18
    5bd6:	e1 5f       	subi	r30, 0xF1	; 241
    5bd8:	f4 4b       	sbci	r31, 0xB4	; 180
    5bda:	80 81       	ld	r24, Z
    5bdc:	90 e0       	ldi	r25, 0x00	; 0
    5bde:	c0 97       	sbiw	r24, 0x30	; 48
    5be0:	80 93 68 4a 	sts	0x4A68, r24	; 0x804a68 <Pan_id_1>
    5be4:	90 93 69 4a 	sts	0x4A69, r25	; 0x804a69 <Pan_id_1+0x1>
					break;
    5be8:	47 c0       	rjmp	.+142    	; 0x5c78 <ZigBee_Read+0x23e>

					case 3:						// ZigBee Pan ID └╨╛Ό┐└▒έ. 3 └┌╕χ
						Pan_id_100 = Rx3_Buff[cnt-3] - 0x30;	// ZigBee Pan_id 100└╟ └┌╕χ
    5bea:	f9 01       	movw	r30, r18
    5bec:	e3 5f       	subi	r30, 0xF3	; 243
    5bee:	f4 4b       	sbci	r31, 0xB4	; 180
    5bf0:	80 81       	ld	r24, Z
    5bf2:	90 e0       	ldi	r25, 0x00	; 0
    5bf4:	c0 97       	sbiw	r24, 0x30	; 48
    5bf6:	80 93 f5 40 	sts	0x40F5, r24	; 0x8040f5 <Pan_id_100>
    5bfa:	90 93 f6 40 	sts	0x40F6, r25	; 0x8040f6 <Pan_id_100+0x1>
						Pan_id_10  = Rx3_Buff[cnt-2] - 0x30;	// ZigBee Pan_id  10└╟ └┌╕χ
    5bfe:	f9 01       	movw	r30, r18
    5c00:	e2 5f       	subi	r30, 0xF2	; 242
    5c02:	f4 4b       	sbci	r31, 0xB4	; 180
    5c04:	80 81       	ld	r24, Z
    5c06:	90 e0       	ldi	r25, 0x00	; 0
    5c08:	c0 97       	sbiw	r24, 0x30	; 48
    5c0a:	80 93 8d 4a 	sts	0x4A8D, r24	; 0x804a8d <Pan_id_10>
    5c0e:	90 93 8e 4a 	sts	0x4A8E, r25	; 0x804a8e <Pan_id_10+0x1>
						Pan_id_1   = Rx3_Buff[cnt-1] - 0x30;	// ZigBee Pan_id   1└╟ └┌╕χ
    5c12:	f9 01       	movw	r30, r18
    5c14:	e1 5f       	subi	r30, 0xF1	; 241
    5c16:	f4 4b       	sbci	r31, 0xB4	; 180
    5c18:	80 81       	ld	r24, Z
    5c1a:	90 e0       	ldi	r25, 0x00	; 0
    5c1c:	c0 97       	sbiw	r24, 0x30	; 48
    5c1e:	80 93 68 4a 	sts	0x4A68, r24	; 0x804a68 <Pan_id_1>
    5c22:	90 93 69 4a 	sts	0x4A69, r25	; 0x804a69 <Pan_id_1+0x1>
					break;
    5c26:	28 c0       	rjmp	.+80     	; 0x5c78 <ZigBee_Read+0x23e>

					case 4:						// ZigBee Pan ID └╨╛Ό┐└▒έ. 4 └┌╕χ
						Pan_id_1000 = Rx3_Buff[cnt-4] - 0x30;	// ZigBee Pan_id 1000└╟ └┌╕χ
    5c28:	f9 01       	movw	r30, r18
    5c2a:	e4 5f       	subi	r30, 0xF4	; 244
    5c2c:	f4 4b       	sbci	r31, 0xB4	; 180
    5c2e:	80 81       	ld	r24, Z
    5c30:	90 e0       	ldi	r25, 0x00	; 0
    5c32:	c0 97       	sbiw	r24, 0x30	; 48
    5c34:	80 93 d2 4a 	sts	0x4AD2, r24	; 0x804ad2 <Pan_id_1000>
    5c38:	90 93 d3 4a 	sts	0x4AD3, r25	; 0x804ad3 <Pan_id_1000+0x1>
						Pan_id_100  = Rx3_Buff[cnt-3] - 0x30;	// ZigBee Pan_id  100└╟ └┌╕χ
    5c3c:	f9 01       	movw	r30, r18
    5c3e:	e3 5f       	subi	r30, 0xF3	; 243
    5c40:	f4 4b       	sbci	r31, 0xB4	; 180
    5c42:	80 81       	ld	r24, Z
    5c44:	90 e0       	ldi	r25, 0x00	; 0
    5c46:	c0 97       	sbiw	r24, 0x30	; 48
    5c48:	80 93 f5 40 	sts	0x40F5, r24	; 0x8040f5 <Pan_id_100>
    5c4c:	90 93 f6 40 	sts	0x40F6, r25	; 0x8040f6 <Pan_id_100+0x1>
						Pan_id_10   = Rx3_Buff[cnt-2] - 0x30;	// ZigBee Pan_id   10└╟ └┌╕χ
    5c50:	f9 01       	movw	r30, r18
    5c52:	e2 5f       	subi	r30, 0xF2	; 242
    5c54:	f4 4b       	sbci	r31, 0xB4	; 180
    5c56:	80 81       	ld	r24, Z
    5c58:	90 e0       	ldi	r25, 0x00	; 0
    5c5a:	c0 97       	sbiw	r24, 0x30	; 48
    5c5c:	80 93 8d 4a 	sts	0x4A8D, r24	; 0x804a8d <Pan_id_10>
    5c60:	90 93 8e 4a 	sts	0x4A8E, r25	; 0x804a8e <Pan_id_10+0x1>
						Pan_id_1    = Rx3_Buff[cnt-1] - 0x30;	// ZigBee Pan_id    1└╟ └┌╕χ
    5c64:	f9 01       	movw	r30, r18
    5c66:	e1 5f       	subi	r30, 0xF1	; 241
    5c68:	f4 4b       	sbci	r31, 0xB4	; 180
    5c6a:	80 81       	ld	r24, Z
    5c6c:	90 e0       	ldi	r25, 0x00	; 0
    5c6e:	c0 97       	sbiw	r24, 0x30	; 48
    5c70:	80 93 68 4a 	sts	0x4A68, r24	; 0x804a68 <Pan_id_1>
    5c74:	90 93 69 4a 	sts	0x4A69, r25	; 0x804a69 <Pan_id_1+0x1>
					break;
				}
				zbch_read = 3;					// ┤ϊ║ψ ╚χ└╬ ╚─ ┤┘└╜└╕╖╬ ┴Ϋ░κ
				Beep(3);
    5c78:	83 e0       	ldi	r24, 0x03	; 3
    5c7a:	90 e0       	ldi	r25, 0x00	; 0
    5c7c:	0e 94 3b 04 	call	0x876	; 0x876 <Beep>
    5c80:	2f ef       	ldi	r18, 0xFF	; 255
    5c82:	8f e3       	ldi	r24, 0x3F	; 63
    5c84:	92 e0       	ldi	r25, 0x02	; 2
    5c86:	21 50       	subi	r18, 0x01	; 1
    5c88:	80 40       	sbci	r24, 0x00	; 0
    5c8a:	90 40       	sbci	r25, 0x00	; 0
    5c8c:	e1 f7       	brne	.-8      	; 0x5c86 <ZigBee_Read+0x24c>
    5c8e:	00 c0       	rjmp	.+0      	; 0x5c90 <ZigBee_Read+0x256>
    5c90:	00 00       	nop
				_delay_ms(50);					// ZigBee ├│╕χ ╜├░μ ╚─
				Rx3_Buff_Clear();				// Rx3 Buff Clear
    5c92:	0e 94 35 28 	call	0x506a	; 0x506a <Rx3_Buff_Clear>
						Pan_id_100  = Rx3_Buff[cnt-3] - 0x30;	// ZigBee Pan_id  100└╟ └┌╕χ
						Pan_id_10   = Rx3_Buff[cnt-2] - 0x30;	// ZigBee Pan_id   10└╟ └┌╕χ
						Pan_id_1    = Rx3_Buff[cnt-1] - 0x30;	// ZigBee Pan_id    1└╟ └┌╕χ
					break;
				}
				zbch_read = 3;					// ┤ϊ║ψ ╚χ└╬ ╚─ ┤┘└╜└╕╖╬ ┴Ϋ░κ
    5c96:	c3 e0       	ldi	r28, 0x03	; 3
				Beep(3);
				_delay_ms(50);					// ZigBee ├│╕χ ╜├░μ ╚─
				Rx3_Buff_Clear();				// Rx3 Buff Clear
				break;
    5c98:	2b c0       	rjmp	.+86     	; 0x5cf0 <ZigBee_Read+0x2b6>
			}
//-------------------------------------------------------------------------------------------------
			if(zbch_read == 3 && Rx3_Buff[cnt] == 'O' && Rx3_Buff[cnt + 1] == 'K' && Rx3_Buff[cnt + 2] == 0x0d)
    5c9a:	c3 30       	cpi	r28, 0x03	; 3
    5c9c:	29 f5       	brne	.+74     	; 0x5ce8 <ZigBee_Read+0x2ae>
    5c9e:	28 2f       	mov	r18, r24
    5ca0:	30 e0       	ldi	r19, 0x00	; 0
    5ca2:	f9 01       	movw	r30, r18
    5ca4:	e0 5f       	subi	r30, 0xF0	; 240
    5ca6:	f4 4b       	sbci	r31, 0xB4	; 180
    5ca8:	90 81       	ld	r25, Z
    5caa:	9f 34       	cpi	r25, 0x4F	; 79
    5cac:	e9 f4       	brne	.+58     	; 0x5ce8 <ZigBee_Read+0x2ae>
    5cae:	f9 01       	movw	r30, r18
    5cb0:	ef 5e       	subi	r30, 0xEF	; 239
    5cb2:	f4 4b       	sbci	r31, 0xB4	; 180
    5cb4:	90 81       	ld	r25, Z
    5cb6:	9b 34       	cpi	r25, 0x4B	; 75
    5cb8:	b9 f4       	brne	.+46     	; 0x5ce8 <ZigBee_Read+0x2ae>
    5cba:	f9 01       	movw	r30, r18
    5cbc:	ee 5e       	subi	r30, 0xEE	; 238
    5cbe:	f4 4b       	sbci	r31, 0xB4	; 180
    5cc0:	90 81       	ld	r25, Z
    5cc2:	9d 30       	cpi	r25, 0x0D	; 13
    5cc4:	89 f4       	brne	.+34     	; 0x5ce8 <ZigBee_Read+0x2ae>
			{							// 3+OK+CR
				zbch_read = 5;					// ┤ϊ║ψ ╚χ└╬ ╚─ While()╣χ ┴╛╖ά
				Beep(3);
    5cc6:	83 e0       	ldi	r24, 0x03	; 3
    5cc8:	90 e0       	ldi	r25, 0x00	; 0
    5cca:	0e 94 3b 04 	call	0x876	; 0x876 <Beep>
    5cce:	2f ef       	ldi	r18, 0xFF	; 255
    5cd0:	8f e3       	ldi	r24, 0x3F	; 63
    5cd2:	92 e0       	ldi	r25, 0x02	; 2
    5cd4:	21 50       	subi	r18, 0x01	; 1
    5cd6:	80 40       	sbci	r24, 0x00	; 0
    5cd8:	90 40       	sbci	r25, 0x00	; 0
    5cda:	e1 f7       	brne	.-8      	; 0x5cd4 <ZigBee_Read+0x29a>
    5cdc:	00 c0       	rjmp	.+0      	; 0x5cde <ZigBee_Read+0x2a4>
    5cde:	00 00       	nop
				_delay_ms(50);					// ZigBee ├│╕χ ╜├░μ ╚─
				Rx3_Buff_Clear();				// Rx3 Buff Clear
    5ce0:	0e 94 35 28 	call	0x506a	; 0x506a <Rx3_Buff_Clear>
				break;
			}
//-------------------------------------------------------------------------------------------------
			if(zbch_read == 3 && Rx3_Buff[cnt] == 'O' && Rx3_Buff[cnt + 1] == 'K' && Rx3_Buff[cnt + 2] == 0x0d)
			{							// 3+OK+CR
				zbch_read = 5;					// ┤ϊ║ψ ╚χ└╬ ╚─ While()╣χ ┴╛╖ά
    5ce4:	c5 e0       	ldi	r28, 0x05	; 5
				Beep(3);
				_delay_ms(50);					// ZigBee ├│╕χ ╜├░μ ╚─
				Rx3_Buff_Clear();				// Rx3 Buff Clear
				break;
    5ce6:	04 c0       	rjmp	.+8      	; 0x5cf0 <ZigBee_Read+0x2b6>
			case 3:							// zbch_read = 3 └╠╕ώ
				USART3_SendString("ATCN\r");			// USART3 ┐κ ATCN └ⁿ╝█
			break;
		}
//-------------------------------------------------------------------------------------------------
		for(uint8_t cnt = 0; cnt < RX3_SIZE; cnt++)			// RX3_SIZE ╕╕┼φ ╣▌║╣
    5ce8:	8f 5f       	subi	r24, 0xFF	; 255
    5cea:	8a 3f       	cpi	r24, 0xFA	; 250
    5cec:	08 f4       	brcc	.+2      	; 0x5cf0 <ZigBee_Read+0x2b6>
    5cee:	cd ce       	rjmp	.-614    	; 0x5a8a <ZigBee_Read+0x50>
				_delay_ms(50);					// ZigBee ├│╕χ ╜├░μ ╚─
				Rx3_Buff_Clear();				// Rx3 Buff Clear
				break;
			}
		}
		wdt_reset();							// ┐÷─κ╡╢ ╕χ╝┬
    5cf0:	0e 94 78 0c 	call	0x18f0	; 0x18f0 <wdt_reset>
	}while(zbch_read != 5);							// zbch_read ░κ 5 └╧╢π ▒Ό┴÷ ╣▌║╣
    5cf4:	c5 30       	cpi	r28, 0x05	; 5
    5cf6:	09 f0       	breq	.+2      	; 0x5cfa <ZigBee_Read+0x2c0>
    5cf8:	a2 ce       	rjmp	.-700    	; 0x5a3e <ZigBee_Read+0x4>
}
    5cfa:	cf 91       	pop	r28
    5cfc:	08 95       	ret

00005cfe <ZigBee_Set>:

//=================================================================================================
void ZigBee_Set(void)								// ZigBee ├ν│╬ ╣╫ PanID ╝│┴ν ╕Ώ╡ί
{
    5cfe:	ef 92       	push	r14
    5d00:	ff 92       	push	r15
    5d02:	0f 93       	push	r16
    5d04:	1f 93       	push	r17
    5d06:	cf 93       	push	r28
	uint8_t Count = 1;							// ─τ┐Ό╞χ ║ψ╝÷ ├╩▒έ╚φ
	SET.Select = 0;								// Select ╣÷╞░ ├╩▒έ╚φ
    5d08:	10 92 90 4a 	sts	0x4A90, r1	; 0x804a90 <SET+0x1>
	FND_Value_Data(0, 2, 12);						// FND 0 ~ 2 FND_OFF
    5d0c:	4c e0       	ldi	r20, 0x0C	; 12
    5d0e:	62 e0       	ldi	r22, 0x02	; 2
    5d10:	80 e0       	ldi	r24, 0x00	; 0
    5d12:	0e 94 ca 05 	call	0xb94	; 0xb94 <FND_Value_Data>
	ZigBee_Read();								// ZigBee ╝│┴ν░ς └╨▒έ
    5d16:	0e 94 1d 2d 	call	0x5a3a	; 0x5a3a <ZigBee_Read>
}

//=================================================================================================
void ZigBee_Set(void)								// ZigBee ├ν│╬ ╣╫ PanID ╝│┴ν ╕Ώ╡ί
{
	uint8_t Count = 1;							// ─τ┐Ό╞χ ║ψ╝÷ ├╩▒έ╚φ
    5d1a:	c1 e0       	ldi	r28, 0x01	; 1
	SET.Select = 0;								// Select ╣÷╞░ ├╩▒έ╚φ
	FND_Value_Data(0, 2, 12);						// FND 0 ~ 2 FND_OFF
	ZigBee_Read();								// ZigBee ╝│┴ν░ς └╨▒έ
//-------------------------------------------------------------------------------------------------
	while(SET.Menu)								// ╕▐┤║░κ 1 └╠╕ώ ╣▌║╣
    5d1c:	49 c1       	rjmp	.+658    	; 0x5fb0 <ZigBee_Set+0x2b2>
	{
		if(KEY.Buff)							// Key └╘╖┬└╠ └╓└╕╕ώ
    5d1e:	80 91 d6 4a 	lds	r24, 0x4AD6	; 0x804ad6 <KEY+0x1>
    5d22:	88 23       	and	r24, r24
    5d24:	99 f0       	breq	.+38     	; 0x5d4c <ZigBee_Set+0x4e>
		{
			if     (KEY.Key == 1 && Count < 3) {Count++; KEY.Key = 0;}	// ╛≈  ╣÷╞░ └╠╕ώ Count ┴Ϋ░κ
    5d26:	80 91 d7 4a 	lds	r24, 0x4AD7	; 0x804ad7 <KEY+0x2>
    5d2a:	81 30       	cpi	r24, 0x01	; 1
    5d2c:	31 f4       	brne	.+12     	; 0x5d3a <ZigBee_Set+0x3c>
    5d2e:	c3 30       	cpi	r28, 0x03	; 3
    5d30:	20 f4       	brcc	.+8      	; 0x5d3a <ZigBee_Set+0x3c>
    5d32:	cf 5f       	subi	r28, 0xFF	; 255
    5d34:	10 92 d7 4a 	sts	0x4AD7, r1	; 0x804ad7 <KEY+0x2>
    5d38:	09 c0       	rjmp	.+18     	; 0x5d4c <ZigBee_Set+0x4e>
			else if(KEY.Key == 3 && Count > 0) {Count--; KEY.Key = 0;}	// ┤┘┐Ό╣÷╞░ └╠╕ώ Count ░ρ╝╥
    5d3a:	80 91 d7 4a 	lds	r24, 0x4AD7	; 0x804ad7 <KEY+0x2>
    5d3e:	83 30       	cpi	r24, 0x03	; 3
    5d40:	29 f4       	brne	.+10     	; 0x5d4c <ZigBee_Set+0x4e>
    5d42:	cc 23       	and	r28, r28
    5d44:	19 f0       	breq	.+6      	; 0x5d4c <ZigBee_Set+0x4e>
    5d46:	c1 50       	subi	r28, 0x01	; 1
    5d48:	10 92 d7 4a 	sts	0x4AD7, r1	; 0x804ad7 <KEY+0x2>
		}
		DIGIT[2][0] = fnd_tbl[Count];					// FND 2.0 ┐κ Count ╟ξ╜├
    5d4c:	ec 2f       	mov	r30, r28
    5d4e:	f0 e0       	ldi	r31, 0x00	; 0
    5d50:	e4 57       	subi	r30, 0x74	; 116
    5d52:	ff 4b       	sbci	r31, 0xBF	; 191
    5d54:	80 81       	ld	r24, Z
    5d56:	80 93 cb 40 	sts	0x40CB, r24	; 0x8040cb <DIGIT+0x8>

		switch(Count)							// Count
    5d5a:	c1 30       	cpi	r28, 0x01	; 1
    5d5c:	41 f0       	breq	.+16     	; 0x5d6e <ZigBee_Set+0x70>
    5d5e:	08 f4       	brcc	.+2      	; 0x5d62 <ZigBee_Set+0x64>
    5d60:	24 c1       	rjmp	.+584    	; 0x5faa <ZigBee_Set+0x2ac>
    5d62:	c2 30       	cpi	r28, 0x02	; 2
    5d64:	b9 f1       	breq	.+110    	; 0x5dd4 <ZigBee_Set+0xd6>
    5d66:	c3 30       	cpi	r28, 0x03	; 3
    5d68:	09 f4       	brne	.+2      	; 0x5d6c <ZigBee_Set+0x6e>
    5d6a:	1d c1       	rjmp	.+570    	; 0x5fa6 <ZigBee_Set+0x2a8>
    5d6c:	1f c1       	rjmp	.+574    	; 0x5fac <ZigBee_Set+0x2ae>
			case 0:							// Count = 0 └╠╕ώ
				Count = 2;					// ╣▌║╣└╗ └π╟╪ Count╕ο ├╓░Ί╖╬ ┴Ϋ░κ ╜├┼┤
			break;

			case 1:							// Count = 1 └╠╕ώ
				DIGIT[0][3] = FND_Z;				// FND 0 ┐κ Z-ch ╟ξ╜├
    5d6e:	e3 ec       	ldi	r30, 0xC3	; 195
    5d70:	f0 e4       	ldi	r31, 0x40	; 64
    5d72:	8a ed       	ldi	r24, 0xDA	; 218
    5d74:	83 83       	std	Z+3, r24	; 0x03
				DIGIT[0][2] = FND_MINUS;
    5d76:	82 e0       	ldi	r24, 0x02	; 2
    5d78:	82 83       	std	Z+2, r24	; 0x02
				DIGIT[0][1] = FND_c;
    5d7a:	8a e1       	ldi	r24, 0x1A	; 26
    5d7c:	81 83       	std	Z+1, r24	; 0x01
				DIGIT[0][0] = FND_h;
    5d7e:	8e e2       	ldi	r24, 0x2E	; 46
    5d80:	80 83       	st	Z, r24

				DIGIT[1][3] = FND_OFF;				// FND 2 ┐κ ZigBee ├ν│╬ ╟ξ╜├
    5d82:	17 82       	std	Z+7, r1	; 0x07
				DIGIT[1][2] = FND_OFF;
    5d84:	16 82       	std	Z+6, r1	; 0x06
				DIGIT[1][1] = fnd_tbl[ZB_ch / 10];
    5d86:	40 91 67 4a 	lds	r20, 0x4A67	; 0x804a67 <ZB_ch>
    5d8a:	8d ec       	ldi	r24, 0xCD	; 205
    5d8c:	48 9f       	mul	r20, r24
    5d8e:	81 2d       	mov	r24, r1
    5d90:	11 24       	eor	r1, r1
    5d92:	86 95       	lsr	r24
    5d94:	86 95       	lsr	r24
    5d96:	86 95       	lsr	r24
    5d98:	28 2f       	mov	r18, r24
    5d9a:	30 e0       	ldi	r19, 0x00	; 0
    5d9c:	24 57       	subi	r18, 0x74	; 116
    5d9e:	3f 4b       	sbci	r19, 0xBF	; 191
    5da0:	d9 01       	movw	r26, r18
    5da2:	9c 91       	ld	r25, X
    5da4:	95 83       	std	Z+5, r25	; 0x05
				DIGIT[1][0] = fnd_tbl[ZB_ch % 10];
    5da6:	88 0f       	add	r24, r24
    5da8:	98 2f       	mov	r25, r24
    5daa:	99 0f       	add	r25, r25
    5dac:	99 0f       	add	r25, r25
    5dae:	89 0f       	add	r24, r25
    5db0:	a4 2f       	mov	r26, r20
    5db2:	a8 1b       	sub	r26, r24
    5db4:	b0 e0       	ldi	r27, 0x00	; 0
    5db6:	a4 57       	subi	r26, 0x74	; 116
    5db8:	bf 4b       	sbci	r27, 0xBF	; 191
    5dba:	8c 91       	ld	r24, X
    5dbc:	84 83       	std	Z+4, r24	; 0x04

				DIGIT[2][3] = FND_OFF;				// FND 2 1~3 OFF
    5dbe:	13 86       	std	Z+11, r1	; 0x0b
				DIGIT[2][2] = FND_OFF;
    5dc0:	12 86       	std	Z+10, r1	; 0x0a
				DIGIT[2][1] = FND_OFF;
    5dc2:	11 86       	std	Z+9, r1	; 0x09

				if(SET.Select) {ZigBee_Channel_Write();}	// ZigBee ├ν│╬ ╝│┴ν
    5dc4:	80 91 90 4a 	lds	r24, 0x4A90	; 0x804a90 <SET+0x1>
    5dc8:	88 23       	and	r24, r24
    5dca:	09 f4       	brne	.+2      	; 0x5dce <ZigBee_Set+0xd0>
    5dcc:	ef c0       	rjmp	.+478    	; 0x5fac <ZigBee_Set+0x2ae>
    5dce:	0e 94 cf 2c 	call	0x599e	; 0x599e <ZigBee_Channel_Write>
    5dd2:	ec c0       	rjmp	.+472    	; 0x5fac <ZigBee_Set+0x2ae>
			break;

			case 2:							// Count = 2 └╠╕ώ
				DIGIT[0][3] = FND_Z;				// FND 0 ┐κ Z-Id ╟ξ╜├
    5dd4:	e3 ec       	ldi	r30, 0xC3	; 195
    5dd6:	f0 e4       	ldi	r31, 0x40	; 64
    5dd8:	8a ed       	ldi	r24, 0xDA	; 218
    5dda:	83 83       	std	Z+3, r24	; 0x03
				DIGIT[0][2] = FND_MINUS;
    5ddc:	82 e0       	ldi	r24, 0x02	; 2
    5dde:	82 83       	std	Z+2, r24	; 0x02
				DIGIT[0][1] = FND_I;
    5de0:	80 e6       	ldi	r24, 0x60	; 96
    5de2:	81 83       	std	Z+1, r24	; 0x01
				DIGIT[0][0] = FND_d;
    5de4:	8a e7       	ldi	r24, 0x7A	; 122
    5de6:	80 83       	st	Z, r24

				ZB_id = (Pan_id_1000 * 4096) + (Pan_id_100 * 256) + (Pan_id_10 * 16) + Pan_id_1;	// ZigBee PanID ░ϋ╗Ά
    5de8:	40 91 d2 4a 	lds	r20, 0x4AD2	; 0x804ad2 <Pan_id_1000>
    5dec:	50 91 d3 4a 	lds	r21, 0x4AD3	; 0x804ad3 <Pan_id_1000+0x1>
    5df0:	42 95       	swap	r20
    5df2:	52 95       	swap	r21
    5df4:	50 7f       	andi	r21, 0xF0	; 240
    5df6:	54 27       	eor	r21, r20
    5df8:	40 7f       	andi	r20, 0xF0	; 240
    5dfa:	54 27       	eor	r21, r20
    5dfc:	80 91 f5 40 	lds	r24, 0x40F5	; 0x8040f5 <Pan_id_100>
    5e00:	90 91 f6 40 	lds	r25, 0x40F6	; 0x8040f6 <Pan_id_100+0x1>
    5e04:	48 0f       	add	r20, r24
    5e06:	59 1f       	adc	r21, r25
    5e08:	42 95       	swap	r20
    5e0a:	52 95       	swap	r21
    5e0c:	50 7f       	andi	r21, 0xF0	; 240
    5e0e:	54 27       	eor	r21, r20
    5e10:	40 7f       	andi	r20, 0xF0	; 240
    5e12:	54 27       	eor	r21, r20
    5e14:	80 91 8d 4a 	lds	r24, 0x4A8D	; 0x804a8d <Pan_id_10>
    5e18:	90 91 8e 4a 	lds	r25, 0x4A8E	; 0x804a8e <Pan_id_10+0x1>
    5e1c:	48 0f       	add	r20, r24
    5e1e:	59 1f       	adc	r21, r25
    5e20:	42 95       	swap	r20
    5e22:	52 95       	swap	r21
    5e24:	50 7f       	andi	r21, 0xF0	; 240
    5e26:	54 27       	eor	r21, r20
    5e28:	40 7f       	andi	r20, 0xF0	; 240
    5e2a:	54 27       	eor	r21, r20
    5e2c:	80 91 68 4a 	lds	r24, 0x4A68	; 0x804a68 <Pan_id_1>
    5e30:	90 91 69 4a 	lds	r25, 0x4A69	; 0x804a69 <Pan_id_1+0x1>
    5e34:	48 0f       	add	r20, r24
    5e36:	59 1f       	adc	r21, r25
    5e38:	40 93 eb 4a 	sts	0x4AEB, r20	; 0x804aeb <ZB_id>
    5e3c:	50 93 ec 4a 	sts	0x4AEC, r21	; 0x804aec <ZB_id+0x1>
				DIGIT[1][3] = fnd_tbl[ZB_id / 10000];		// FND 1 ┐κ ZigBee PanID 1000~10└╟ └┌╕χ ╟ξ╜├
    5e40:	7a 01       	movw	r14, r20
    5e42:	f6 94       	lsr	r15
    5e44:	e7 94       	ror	r14
    5e46:	f6 94       	lsr	r15
    5e48:	e7 94       	ror	r14
    5e4a:	f6 94       	lsr	r15
    5e4c:	e7 94       	ror	r14
    5e4e:	f6 94       	lsr	r15
    5e50:	e7 94       	ror	r14
    5e52:	97 01       	movw	r18, r14
    5e54:	a7 e4       	ldi	r26, 0x47	; 71
    5e56:	b3 e0       	ldi	r27, 0x03	; 3
    5e58:	0e 94 1e 36 	call	0x6c3c	; 0x6c3c <__umulhisi3>
    5e5c:	8c 01       	movw	r16, r24
    5e5e:	16 95       	lsr	r17
    5e60:	07 95       	ror	r16
    5e62:	16 95       	lsr	r17
    5e64:	07 95       	ror	r16
    5e66:	16 95       	lsr	r17
    5e68:	07 95       	ror	r16
    5e6a:	d8 01       	movw	r26, r16
    5e6c:	a4 57       	subi	r26, 0x74	; 116
    5e6e:	bf 4b       	sbci	r27, 0xBF	; 191
    5e70:	8c 91       	ld	r24, X
    5e72:	87 83       	std	Z+7, r24	; 0x07
				DIGIT[1][2] = fnd_tbl[ZB_id % 10000 / 1000];
    5e74:	20 e1       	ldi	r18, 0x10	; 16
    5e76:	37 e2       	ldi	r19, 0x27	; 39
    5e78:	02 9f       	mul	r16, r18
    5e7a:	c0 01       	movw	r24, r0
    5e7c:	03 9f       	mul	r16, r19
    5e7e:	90 0d       	add	r25, r0
    5e80:	12 9f       	mul	r17, r18
    5e82:	90 0d       	add	r25, r0
    5e84:	11 24       	eor	r1, r1
    5e86:	9a 01       	movw	r18, r20
    5e88:	28 1b       	sub	r18, r24
    5e8a:	39 0b       	sbc	r19, r25
    5e8c:	36 95       	lsr	r19
    5e8e:	27 95       	ror	r18
    5e90:	36 95       	lsr	r19
    5e92:	27 95       	ror	r18
    5e94:	36 95       	lsr	r19
    5e96:	27 95       	ror	r18
    5e98:	a5 ec       	ldi	r26, 0xC5	; 197
    5e9a:	b0 e2       	ldi	r27, 0x20	; 32
    5e9c:	0e 94 1e 36 	call	0x6c3c	; 0x6c3c <__umulhisi3>
    5ea0:	92 95       	swap	r25
    5ea2:	82 95       	swap	r24
    5ea4:	8f 70       	andi	r24, 0x0F	; 15
    5ea6:	89 27       	eor	r24, r25
    5ea8:	9f 70       	andi	r25, 0x0F	; 15
    5eaa:	89 27       	eor	r24, r25
    5eac:	dc 01       	movw	r26, r24
    5eae:	a4 57       	subi	r26, 0x74	; 116
    5eb0:	bf 4b       	sbci	r27, 0xBF	; 191
    5eb2:	8c 91       	ld	r24, X
    5eb4:	86 83       	std	Z+6, r24	; 0x06
				DIGIT[1][1] = fnd_tbl[ZB_id % 1000 / 100];
    5eb6:	9a 01       	movw	r18, r20
    5eb8:	36 95       	lsr	r19
    5eba:	27 95       	ror	r18
    5ebc:	36 95       	lsr	r19
    5ebe:	27 95       	ror	r18
    5ec0:	36 95       	lsr	r19
    5ec2:	27 95       	ror	r18
    5ec4:	a5 ec       	ldi	r26, 0xC5	; 197
    5ec6:	b0 e2       	ldi	r27, 0x20	; 32
    5ec8:	0e 94 1e 36 	call	0x6c3c	; 0x6c3c <__umulhisi3>
    5ecc:	92 95       	swap	r25
    5ece:	82 95       	swap	r24
    5ed0:	8f 70       	andi	r24, 0x0F	; 15
    5ed2:	89 27       	eor	r24, r25
    5ed4:	9f 70       	andi	r25, 0x0F	; 15
    5ed6:	89 27       	eor	r24, r25
    5ed8:	68 ee       	ldi	r22, 0xE8	; 232
    5eda:	73 e0       	ldi	r23, 0x03	; 3
    5edc:	86 9f       	mul	r24, r22
    5ede:	90 01       	movw	r18, r0
    5ee0:	87 9f       	mul	r24, r23
    5ee2:	30 0d       	add	r19, r0
    5ee4:	96 9f       	mul	r25, r22
    5ee6:	30 0d       	add	r19, r0
    5ee8:	11 24       	eor	r1, r1
    5eea:	ca 01       	movw	r24, r20
    5eec:	82 1b       	sub	r24, r18
    5eee:	93 0b       	sbc	r25, r19
    5ef0:	9c 01       	movw	r18, r24
    5ef2:	36 95       	lsr	r19
    5ef4:	27 95       	ror	r18
    5ef6:	36 95       	lsr	r19
    5ef8:	27 95       	ror	r18
    5efa:	ab e7       	ldi	r26, 0x7B	; 123
    5efc:	b4 e1       	ldi	r27, 0x14	; 20
    5efe:	0e 94 1e 36 	call	0x6c3c	; 0x6c3c <__umulhisi3>
    5f02:	96 95       	lsr	r25
    5f04:	87 95       	ror	r24
    5f06:	dc 01       	movw	r26, r24
    5f08:	a4 57       	subi	r26, 0x74	; 116
    5f0a:	bf 4b       	sbci	r27, 0xBF	; 191
    5f0c:	8c 91       	ld	r24, X
    5f0e:	85 83       	std	Z+5, r24	; 0x05
				DIGIT[1][0] = fnd_tbl[ZB_id % 100 / 10];
    5f10:	9a 01       	movw	r18, r20
    5f12:	36 95       	lsr	r19
    5f14:	27 95       	ror	r18
    5f16:	36 95       	lsr	r19
    5f18:	27 95       	ror	r18
    5f1a:	ab e7       	ldi	r26, 0x7B	; 123
    5f1c:	b4 e1       	ldi	r27, 0x14	; 20
    5f1e:	0e 94 1e 36 	call	0x6c3c	; 0x6c3c <__umulhisi3>
    5f22:	9c 01       	movw	r18, r24
    5f24:	36 95       	lsr	r19
    5f26:	27 95       	ror	r18
    5f28:	64 e6       	ldi	r22, 0x64	; 100
    5f2a:	62 9f       	mul	r22, r18
    5f2c:	c0 01       	movw	r24, r0
    5f2e:	63 9f       	mul	r22, r19
    5f30:	90 0d       	add	r25, r0
    5f32:	11 24       	eor	r1, r1
    5f34:	9a 01       	movw	r18, r20
    5f36:	28 1b       	sub	r18, r24
    5f38:	39 0b       	sbc	r19, r25
    5f3a:	ad ec       	ldi	r26, 0xCD	; 205
    5f3c:	bc ec       	ldi	r27, 0xCC	; 204
    5f3e:	0e 94 1e 36 	call	0x6c3c	; 0x6c3c <__umulhisi3>
    5f42:	96 95       	lsr	r25
    5f44:	87 95       	ror	r24
    5f46:	96 95       	lsr	r25
    5f48:	87 95       	ror	r24
    5f4a:	96 95       	lsr	r25
    5f4c:	87 95       	ror	r24
    5f4e:	dc 01       	movw	r26, r24
    5f50:	a4 57       	subi	r26, 0x74	; 116
    5f52:	bf 4b       	sbci	r27, 0xBF	; 191
    5f54:	8c 91       	ld	r24, X
    5f56:	84 83       	std	Z+4, r24	; 0x04

				DIGIT[2][3] = fnd_tbl[ZB_id % 10];		// FND 1 ┐κ ZigBee PanID 1└╟ └┌╕χ ╟ξ╜├
    5f58:	9a 01       	movw	r18, r20
    5f5a:	ad ec       	ldi	r26, 0xCD	; 205
    5f5c:	bc ec       	ldi	r27, 0xCC	; 204
    5f5e:	0e 94 1e 36 	call	0x6c3c	; 0x6c3c <__umulhisi3>
    5f62:	96 95       	lsr	r25
    5f64:	87 95       	ror	r24
    5f66:	96 95       	lsr	r25
    5f68:	87 95       	ror	r24
    5f6a:	96 95       	lsr	r25
    5f6c:	87 95       	ror	r24
    5f6e:	9c 01       	movw	r18, r24
    5f70:	22 0f       	add	r18, r18
    5f72:	33 1f       	adc	r19, r19
    5f74:	88 0f       	add	r24, r24
    5f76:	99 1f       	adc	r25, r25
    5f78:	88 0f       	add	r24, r24
    5f7a:	99 1f       	adc	r25, r25
    5f7c:	88 0f       	add	r24, r24
    5f7e:	99 1f       	adc	r25, r25
    5f80:	82 0f       	add	r24, r18
    5f82:	93 1f       	adc	r25, r19
    5f84:	9a 01       	movw	r18, r20
    5f86:	28 1b       	sub	r18, r24
    5f88:	39 0b       	sbc	r19, r25
    5f8a:	d9 01       	movw	r26, r18
    5f8c:	a4 57       	subi	r26, 0x74	; 116
    5f8e:	bf 4b       	sbci	r27, 0xBF	; 191
    5f90:	8c 91       	ld	r24, X
    5f92:	83 87       	std	Z+11, r24	; 0x0b
				DIGIT[2][2] = FND_OFF;
    5f94:	12 86       	std	Z+10, r1	; 0x0a
				DIGIT[2][1] = FND_OFF;
    5f96:	11 86       	std	Z+9, r1	; 0x09

				if(SET.Select) {ZigBee_PanID_Write();}		// ZigBee PanID ╝│┴ν
    5f98:	80 91 90 4a 	lds	r24, 0x4A90	; 0x804a90 <SET+0x1>
    5f9c:	88 23       	and	r24, r24
    5f9e:	31 f0       	breq	.+12     	; 0x5fac <ZigBee_Set+0x2ae>
    5fa0:	0e 94 2d 29 	call	0x525a	; 0x525a <ZigBee_PanID_Write>
    5fa4:	03 c0       	rjmp	.+6      	; 0x5fac <ZigBee_Set+0x2ae>
			break;

			case 3:							// Count = 3 └╠╕ώ
				Count = 1;					// ╣▌║╣└╗ └π╟╪ Count╕ο ├╓└·╖╬ ░ρ╝╥ ╜├┼┤
    5fa6:	c1 e0       	ldi	r28, 0x01	; 1
			break;
    5fa8:	01 c0       	rjmp	.+2      	; 0x5fac <ZigBee_Set+0x2ae>
		DIGIT[2][0] = fnd_tbl[Count];					// FND 2.0 ┐κ Count ╟ξ╜├

		switch(Count)							// Count
		{
			case 0:							// Count = 0 └╠╕ώ
				Count = 2;					// ╣▌║╣└╗ └π╟╪ Count╕ο ├╓░Ί╖╬ ┴Ϋ░κ ╜├┼┤
    5faa:	c2 e0       	ldi	r28, 0x02	; 2

			case 3:							// Count = 3 └╠╕ώ
				Count = 1;					// ╣▌║╣└╗ └π╟╪ Count╕ο ├╓└·╖╬ ░ρ╝╥ ╜├┼┤
			break;
		}
		wdt_reset();							// ┐÷─κ╡╢ ╕χ╝┬
    5fac:	0e 94 78 0c 	call	0x18f0	; 0x18f0 <wdt_reset>
	uint8_t Count = 1;							// ─τ┐Ό╞χ ║ψ╝÷ ├╩▒έ╚φ
	SET.Select = 0;								// Select ╣÷╞░ ├╩▒έ╚φ
	FND_Value_Data(0, 2, 12);						// FND 0 ~ 2 FND_OFF
	ZigBee_Read();								// ZigBee ╝│┴ν░ς └╨▒έ
//-------------------------------------------------------------------------------------------------
	while(SET.Menu)								// ╕▐┤║░κ 1 └╠╕ώ ╣▌║╣
    5fb0:	80 91 8f 4a 	lds	r24, 0x4A8F	; 0x804a8f <SET>
    5fb4:	81 11       	cpse	r24, r1
    5fb6:	b3 ce       	rjmp	.-666    	; 0x5d1e <ZigBee_Set+0x20>
				Count = 1;					// ╣▌║╣└╗ └π╟╪ Count╕ο ├╓└·╖╬ ░ρ╝╥ ╜├┼┤
			break;
		}
		wdt_reset();							// ┐÷─κ╡╢ ╕χ╝┬
	}
}
    5fb8:	cf 91       	pop	r28
    5fba:	1f 91       	pop	r17
    5fbc:	0f 91       	pop	r16
    5fbe:	ff 90       	pop	r15
    5fc0:	ef 90       	pop	r14
    5fc2:	08 95       	ret

00005fc4 <__subsf3>:
    5fc4:	50 58       	subi	r21, 0x80	; 128

00005fc6 <__addsf3>:
    5fc6:	bb 27       	eor	r27, r27
    5fc8:	aa 27       	eor	r26, r26
    5fca:	0e 94 fa 2f 	call	0x5ff4	; 0x5ff4 <__addsf3x>
    5fce:	0c 94 74 31 	jmp	0x62e8	; 0x62e8 <__fp_round>
    5fd2:	0e 94 66 31 	call	0x62cc	; 0x62cc <__fp_pscA>
    5fd6:	38 f0       	brcs	.+14     	; 0x5fe6 <__addsf3+0x20>
    5fd8:	0e 94 6d 31 	call	0x62da	; 0x62da <__fp_pscB>
    5fdc:	20 f0       	brcs	.+8      	; 0x5fe6 <__addsf3+0x20>
    5fde:	39 f4       	brne	.+14     	; 0x5fee <__addsf3+0x28>
    5fe0:	9f 3f       	cpi	r25, 0xFF	; 255
    5fe2:	19 f4       	brne	.+6      	; 0x5fea <__addsf3+0x24>
    5fe4:	26 f4       	brtc	.+8      	; 0x5fee <__addsf3+0x28>
    5fe6:	0c 94 63 31 	jmp	0x62c6	; 0x62c6 <__fp_nan>
    5fea:	0e f4       	brtc	.+2      	; 0x5fee <__addsf3+0x28>
    5fec:	e0 95       	com	r30
    5fee:	e7 fb       	bst	r30, 7
    5ff0:	0c 94 5d 31 	jmp	0x62ba	; 0x62ba <__fp_inf>

00005ff4 <__addsf3x>:
    5ff4:	e9 2f       	mov	r30, r25
    5ff6:	0e 94 85 31 	call	0x630a	; 0x630a <__fp_split3>
    5ffa:	58 f3       	brcs	.-42     	; 0x5fd2 <__addsf3+0xc>
    5ffc:	ba 17       	cp	r27, r26
    5ffe:	62 07       	cpc	r22, r18
    6000:	73 07       	cpc	r23, r19
    6002:	84 07       	cpc	r24, r20
    6004:	95 07       	cpc	r25, r21
    6006:	20 f0       	brcs	.+8      	; 0x6010 <__addsf3x+0x1c>
    6008:	79 f4       	brne	.+30     	; 0x6028 <__addsf3x+0x34>
    600a:	a6 f5       	brtc	.+104    	; 0x6074 <__addsf3x+0x80>
    600c:	0c 94 a7 31 	jmp	0x634e	; 0x634e <__fp_zero>
    6010:	0e f4       	brtc	.+2      	; 0x6014 <__addsf3x+0x20>
    6012:	e0 95       	com	r30
    6014:	0b 2e       	mov	r0, r27
    6016:	ba 2f       	mov	r27, r26
    6018:	a0 2d       	mov	r26, r0
    601a:	0b 01       	movw	r0, r22
    601c:	b9 01       	movw	r22, r18
    601e:	90 01       	movw	r18, r0
    6020:	0c 01       	movw	r0, r24
    6022:	ca 01       	movw	r24, r20
    6024:	a0 01       	movw	r20, r0
    6026:	11 24       	eor	r1, r1
    6028:	ff 27       	eor	r31, r31
    602a:	59 1b       	sub	r21, r25
    602c:	99 f0       	breq	.+38     	; 0x6054 <__addsf3x+0x60>
    602e:	59 3f       	cpi	r21, 0xF9	; 249
    6030:	50 f4       	brcc	.+20     	; 0x6046 <__addsf3x+0x52>
    6032:	50 3e       	cpi	r21, 0xE0	; 224
    6034:	68 f1       	brcs	.+90     	; 0x6090 <__addsf3x+0x9c>
    6036:	1a 16       	cp	r1, r26
    6038:	f0 40       	sbci	r31, 0x00	; 0
    603a:	a2 2f       	mov	r26, r18
    603c:	23 2f       	mov	r18, r19
    603e:	34 2f       	mov	r19, r20
    6040:	44 27       	eor	r20, r20
    6042:	58 5f       	subi	r21, 0xF8	; 248
    6044:	f3 cf       	rjmp	.-26     	; 0x602c <__addsf3x+0x38>
    6046:	46 95       	lsr	r20
    6048:	37 95       	ror	r19
    604a:	27 95       	ror	r18
    604c:	a7 95       	ror	r26
    604e:	f0 40       	sbci	r31, 0x00	; 0
    6050:	53 95       	inc	r21
    6052:	c9 f7       	brne	.-14     	; 0x6046 <__addsf3x+0x52>
    6054:	7e f4       	brtc	.+30     	; 0x6074 <__addsf3x+0x80>
    6056:	1f 16       	cp	r1, r31
    6058:	ba 0b       	sbc	r27, r26
    605a:	62 0b       	sbc	r22, r18
    605c:	73 0b       	sbc	r23, r19
    605e:	84 0b       	sbc	r24, r20
    6060:	ba f0       	brmi	.+46     	; 0x6090 <__addsf3x+0x9c>
    6062:	91 50       	subi	r25, 0x01	; 1
    6064:	a1 f0       	breq	.+40     	; 0x608e <__addsf3x+0x9a>
    6066:	ff 0f       	add	r31, r31
    6068:	bb 1f       	adc	r27, r27
    606a:	66 1f       	adc	r22, r22
    606c:	77 1f       	adc	r23, r23
    606e:	88 1f       	adc	r24, r24
    6070:	c2 f7       	brpl	.-16     	; 0x6062 <__addsf3x+0x6e>
    6072:	0e c0       	rjmp	.+28     	; 0x6090 <__addsf3x+0x9c>
    6074:	ba 0f       	add	r27, r26
    6076:	62 1f       	adc	r22, r18
    6078:	73 1f       	adc	r23, r19
    607a:	84 1f       	adc	r24, r20
    607c:	48 f4       	brcc	.+18     	; 0x6090 <__addsf3x+0x9c>
    607e:	87 95       	ror	r24
    6080:	77 95       	ror	r23
    6082:	67 95       	ror	r22
    6084:	b7 95       	ror	r27
    6086:	f7 95       	ror	r31
    6088:	9e 3f       	cpi	r25, 0xFE	; 254
    608a:	08 f0       	brcs	.+2      	; 0x608e <__addsf3x+0x9a>
    608c:	b0 cf       	rjmp	.-160    	; 0x5fee <__addsf3+0x28>
    608e:	93 95       	inc	r25
    6090:	88 0f       	add	r24, r24
    6092:	08 f0       	brcs	.+2      	; 0x6096 <__addsf3x+0xa2>
    6094:	99 27       	eor	r25, r25
    6096:	ee 0f       	add	r30, r30
    6098:	97 95       	ror	r25
    609a:	87 95       	ror	r24
    609c:	08 95       	ret

0000609e <__cmpsf2>:
    609e:	0e 94 39 31 	call	0x6272	; 0x6272 <__fp_cmp>
    60a2:	08 f4       	brcc	.+2      	; 0x60a6 <__cmpsf2+0x8>
    60a4:	81 e0       	ldi	r24, 0x01	; 1
    60a6:	08 95       	ret

000060a8 <__divsf3>:
    60a8:	0e 94 68 30 	call	0x60d0	; 0x60d0 <__divsf3x>
    60ac:	0c 94 74 31 	jmp	0x62e8	; 0x62e8 <__fp_round>
    60b0:	0e 94 6d 31 	call	0x62da	; 0x62da <__fp_pscB>
    60b4:	58 f0       	brcs	.+22     	; 0x60cc <__divsf3+0x24>
    60b6:	0e 94 66 31 	call	0x62cc	; 0x62cc <__fp_pscA>
    60ba:	40 f0       	brcs	.+16     	; 0x60cc <__divsf3+0x24>
    60bc:	29 f4       	brne	.+10     	; 0x60c8 <__divsf3+0x20>
    60be:	5f 3f       	cpi	r21, 0xFF	; 255
    60c0:	29 f0       	breq	.+10     	; 0x60cc <__divsf3+0x24>
    60c2:	0c 94 5d 31 	jmp	0x62ba	; 0x62ba <__fp_inf>
    60c6:	51 11       	cpse	r21, r1
    60c8:	0c 94 a8 31 	jmp	0x6350	; 0x6350 <__fp_szero>
    60cc:	0c 94 63 31 	jmp	0x62c6	; 0x62c6 <__fp_nan>

000060d0 <__divsf3x>:
    60d0:	0e 94 85 31 	call	0x630a	; 0x630a <__fp_split3>
    60d4:	68 f3       	brcs	.-38     	; 0x60b0 <__divsf3+0x8>

000060d6 <__divsf3_pse>:
    60d6:	99 23       	and	r25, r25
    60d8:	b1 f3       	breq	.-20     	; 0x60c6 <__divsf3+0x1e>
    60da:	55 23       	and	r21, r21
    60dc:	91 f3       	breq	.-28     	; 0x60c2 <__divsf3+0x1a>
    60de:	95 1b       	sub	r25, r21
    60e0:	55 0b       	sbc	r21, r21
    60e2:	bb 27       	eor	r27, r27
    60e4:	aa 27       	eor	r26, r26
    60e6:	62 17       	cp	r22, r18
    60e8:	73 07       	cpc	r23, r19
    60ea:	84 07       	cpc	r24, r20
    60ec:	38 f0       	brcs	.+14     	; 0x60fc <__divsf3_pse+0x26>
    60ee:	9f 5f       	subi	r25, 0xFF	; 255
    60f0:	5f 4f       	sbci	r21, 0xFF	; 255
    60f2:	22 0f       	add	r18, r18
    60f4:	33 1f       	adc	r19, r19
    60f6:	44 1f       	adc	r20, r20
    60f8:	aa 1f       	adc	r26, r26
    60fa:	a9 f3       	breq	.-22     	; 0x60e6 <__divsf3_pse+0x10>
    60fc:	35 d0       	rcall	.+106    	; 0x6168 <__divsf3_pse+0x92>
    60fe:	0e 2e       	mov	r0, r30
    6100:	3a f0       	brmi	.+14     	; 0x6110 <__divsf3_pse+0x3a>
    6102:	e0 e8       	ldi	r30, 0x80	; 128
    6104:	32 d0       	rcall	.+100    	; 0x616a <__divsf3_pse+0x94>
    6106:	91 50       	subi	r25, 0x01	; 1
    6108:	50 40       	sbci	r21, 0x00	; 0
    610a:	e6 95       	lsr	r30
    610c:	00 1c       	adc	r0, r0
    610e:	ca f7       	brpl	.-14     	; 0x6102 <__divsf3_pse+0x2c>
    6110:	2b d0       	rcall	.+86     	; 0x6168 <__divsf3_pse+0x92>
    6112:	fe 2f       	mov	r31, r30
    6114:	29 d0       	rcall	.+82     	; 0x6168 <__divsf3_pse+0x92>
    6116:	66 0f       	add	r22, r22
    6118:	77 1f       	adc	r23, r23
    611a:	88 1f       	adc	r24, r24
    611c:	bb 1f       	adc	r27, r27
    611e:	26 17       	cp	r18, r22
    6120:	37 07       	cpc	r19, r23
    6122:	48 07       	cpc	r20, r24
    6124:	ab 07       	cpc	r26, r27
    6126:	b0 e8       	ldi	r27, 0x80	; 128
    6128:	09 f0       	breq	.+2      	; 0x612c <__divsf3_pse+0x56>
    612a:	bb 0b       	sbc	r27, r27
    612c:	80 2d       	mov	r24, r0
    612e:	bf 01       	movw	r22, r30
    6130:	ff 27       	eor	r31, r31
    6132:	93 58       	subi	r25, 0x83	; 131
    6134:	5f 4f       	sbci	r21, 0xFF	; 255
    6136:	3a f0       	brmi	.+14     	; 0x6146 <__divsf3_pse+0x70>
    6138:	9e 3f       	cpi	r25, 0xFE	; 254
    613a:	51 05       	cpc	r21, r1
    613c:	78 f0       	brcs	.+30     	; 0x615c <__divsf3_pse+0x86>
    613e:	0c 94 5d 31 	jmp	0x62ba	; 0x62ba <__fp_inf>
    6142:	0c 94 a8 31 	jmp	0x6350	; 0x6350 <__fp_szero>
    6146:	5f 3f       	cpi	r21, 0xFF	; 255
    6148:	e4 f3       	brlt	.-8      	; 0x6142 <__divsf3_pse+0x6c>
    614a:	98 3e       	cpi	r25, 0xE8	; 232
    614c:	d4 f3       	brlt	.-12     	; 0x6142 <__divsf3_pse+0x6c>
    614e:	86 95       	lsr	r24
    6150:	77 95       	ror	r23
    6152:	67 95       	ror	r22
    6154:	b7 95       	ror	r27
    6156:	f7 95       	ror	r31
    6158:	9f 5f       	subi	r25, 0xFF	; 255
    615a:	c9 f7       	brne	.-14     	; 0x614e <__divsf3_pse+0x78>
    615c:	88 0f       	add	r24, r24
    615e:	91 1d       	adc	r25, r1
    6160:	96 95       	lsr	r25
    6162:	87 95       	ror	r24
    6164:	97 f9       	bld	r25, 7
    6166:	08 95       	ret
    6168:	e1 e0       	ldi	r30, 0x01	; 1
    616a:	66 0f       	add	r22, r22
    616c:	77 1f       	adc	r23, r23
    616e:	88 1f       	adc	r24, r24
    6170:	bb 1f       	adc	r27, r27
    6172:	62 17       	cp	r22, r18
    6174:	73 07       	cpc	r23, r19
    6176:	84 07       	cpc	r24, r20
    6178:	ba 07       	cpc	r27, r26
    617a:	20 f0       	brcs	.+8      	; 0x6184 <__divsf3_pse+0xae>
    617c:	62 1b       	sub	r22, r18
    617e:	73 0b       	sbc	r23, r19
    6180:	84 0b       	sbc	r24, r20
    6182:	ba 0b       	sbc	r27, r26
    6184:	ee 1f       	adc	r30, r30
    6186:	88 f7       	brcc	.-30     	; 0x616a <__divsf3_pse+0x94>
    6188:	e0 95       	com	r30
    618a:	08 95       	ret

0000618c <__fixsfsi>:
    618c:	0e 94 cd 30 	call	0x619a	; 0x619a <__fixunssfsi>
    6190:	68 94       	set
    6192:	b1 11       	cpse	r27, r1
    6194:	0c 94 a8 31 	jmp	0x6350	; 0x6350 <__fp_szero>
    6198:	08 95       	ret

0000619a <__fixunssfsi>:
    619a:	0e 94 8d 31 	call	0x631a	; 0x631a <__fp_splitA>
    619e:	88 f0       	brcs	.+34     	; 0x61c2 <__fixunssfsi+0x28>
    61a0:	9f 57       	subi	r25, 0x7F	; 127
    61a2:	98 f0       	brcs	.+38     	; 0x61ca <__fixunssfsi+0x30>
    61a4:	b9 2f       	mov	r27, r25
    61a6:	99 27       	eor	r25, r25
    61a8:	b7 51       	subi	r27, 0x17	; 23
    61aa:	b0 f0       	brcs	.+44     	; 0x61d8 <__fixunssfsi+0x3e>
    61ac:	e1 f0       	breq	.+56     	; 0x61e6 <__fixunssfsi+0x4c>
    61ae:	66 0f       	add	r22, r22
    61b0:	77 1f       	adc	r23, r23
    61b2:	88 1f       	adc	r24, r24
    61b4:	99 1f       	adc	r25, r25
    61b6:	1a f0       	brmi	.+6      	; 0x61be <__fixunssfsi+0x24>
    61b8:	ba 95       	dec	r27
    61ba:	c9 f7       	brne	.-14     	; 0x61ae <__fixunssfsi+0x14>
    61bc:	14 c0       	rjmp	.+40     	; 0x61e6 <__fixunssfsi+0x4c>
    61be:	b1 30       	cpi	r27, 0x01	; 1
    61c0:	91 f0       	breq	.+36     	; 0x61e6 <__fixunssfsi+0x4c>
    61c2:	0e 94 a7 31 	call	0x634e	; 0x634e <__fp_zero>
    61c6:	b1 e0       	ldi	r27, 0x01	; 1
    61c8:	08 95       	ret
    61ca:	0c 94 a7 31 	jmp	0x634e	; 0x634e <__fp_zero>
    61ce:	67 2f       	mov	r22, r23
    61d0:	78 2f       	mov	r23, r24
    61d2:	88 27       	eor	r24, r24
    61d4:	b8 5f       	subi	r27, 0xF8	; 248
    61d6:	39 f0       	breq	.+14     	; 0x61e6 <__fixunssfsi+0x4c>
    61d8:	b9 3f       	cpi	r27, 0xF9	; 249
    61da:	cc f3       	brlt	.-14     	; 0x61ce <__fixunssfsi+0x34>
    61dc:	86 95       	lsr	r24
    61de:	77 95       	ror	r23
    61e0:	67 95       	ror	r22
    61e2:	b3 95       	inc	r27
    61e4:	d9 f7       	brne	.-10     	; 0x61dc <__fixunssfsi+0x42>
    61e6:	3e f4       	brtc	.+14     	; 0x61f6 <__fixunssfsi+0x5c>
    61e8:	90 95       	com	r25
    61ea:	80 95       	com	r24
    61ec:	70 95       	com	r23
    61ee:	61 95       	neg	r22
    61f0:	7f 4f       	sbci	r23, 0xFF	; 255
    61f2:	8f 4f       	sbci	r24, 0xFF	; 255
    61f4:	9f 4f       	sbci	r25, 0xFF	; 255
    61f6:	08 95       	ret

000061f8 <__floatunsisf>:
    61f8:	e8 94       	clt
    61fa:	09 c0       	rjmp	.+18     	; 0x620e <__floatsisf+0x12>

000061fc <__floatsisf>:
    61fc:	97 fb       	bst	r25, 7
    61fe:	3e f4       	brtc	.+14     	; 0x620e <__floatsisf+0x12>
    6200:	90 95       	com	r25
    6202:	80 95       	com	r24
    6204:	70 95       	com	r23
    6206:	61 95       	neg	r22
    6208:	7f 4f       	sbci	r23, 0xFF	; 255
    620a:	8f 4f       	sbci	r24, 0xFF	; 255
    620c:	9f 4f       	sbci	r25, 0xFF	; 255
    620e:	99 23       	and	r25, r25
    6210:	a9 f0       	breq	.+42     	; 0x623c <__floatsisf+0x40>
    6212:	f9 2f       	mov	r31, r25
    6214:	96 e9       	ldi	r25, 0x96	; 150
    6216:	bb 27       	eor	r27, r27
    6218:	93 95       	inc	r25
    621a:	f6 95       	lsr	r31
    621c:	87 95       	ror	r24
    621e:	77 95       	ror	r23
    6220:	67 95       	ror	r22
    6222:	b7 95       	ror	r27
    6224:	f1 11       	cpse	r31, r1
    6226:	f8 cf       	rjmp	.-16     	; 0x6218 <__floatsisf+0x1c>
    6228:	fa f4       	brpl	.+62     	; 0x6268 <__floatsisf+0x6c>
    622a:	bb 0f       	add	r27, r27
    622c:	11 f4       	brne	.+4      	; 0x6232 <__floatsisf+0x36>
    622e:	60 ff       	sbrs	r22, 0
    6230:	1b c0       	rjmp	.+54     	; 0x6268 <__floatsisf+0x6c>
    6232:	6f 5f       	subi	r22, 0xFF	; 255
    6234:	7f 4f       	sbci	r23, 0xFF	; 255
    6236:	8f 4f       	sbci	r24, 0xFF	; 255
    6238:	9f 4f       	sbci	r25, 0xFF	; 255
    623a:	16 c0       	rjmp	.+44     	; 0x6268 <__floatsisf+0x6c>
    623c:	88 23       	and	r24, r24
    623e:	11 f0       	breq	.+4      	; 0x6244 <__floatsisf+0x48>
    6240:	96 e9       	ldi	r25, 0x96	; 150
    6242:	11 c0       	rjmp	.+34     	; 0x6266 <__floatsisf+0x6a>
    6244:	77 23       	and	r23, r23
    6246:	21 f0       	breq	.+8      	; 0x6250 <__floatsisf+0x54>
    6248:	9e e8       	ldi	r25, 0x8E	; 142
    624a:	87 2f       	mov	r24, r23
    624c:	76 2f       	mov	r23, r22
    624e:	05 c0       	rjmp	.+10     	; 0x625a <__floatsisf+0x5e>
    6250:	66 23       	and	r22, r22
    6252:	71 f0       	breq	.+28     	; 0x6270 <__floatsisf+0x74>
    6254:	96 e8       	ldi	r25, 0x86	; 134
    6256:	86 2f       	mov	r24, r22
    6258:	70 e0       	ldi	r23, 0x00	; 0
    625a:	60 e0       	ldi	r22, 0x00	; 0
    625c:	2a f0       	brmi	.+10     	; 0x6268 <__floatsisf+0x6c>
    625e:	9a 95       	dec	r25
    6260:	66 0f       	add	r22, r22
    6262:	77 1f       	adc	r23, r23
    6264:	88 1f       	adc	r24, r24
    6266:	da f7       	brpl	.-10     	; 0x625e <__floatsisf+0x62>
    6268:	88 0f       	add	r24, r24
    626a:	96 95       	lsr	r25
    626c:	87 95       	ror	r24
    626e:	97 f9       	bld	r25, 7
    6270:	08 95       	ret

00006272 <__fp_cmp>:
    6272:	99 0f       	add	r25, r25
    6274:	00 08       	sbc	r0, r0
    6276:	55 0f       	add	r21, r21
    6278:	aa 0b       	sbc	r26, r26
    627a:	e0 e8       	ldi	r30, 0x80	; 128
    627c:	fe ef       	ldi	r31, 0xFE	; 254
    627e:	16 16       	cp	r1, r22
    6280:	17 06       	cpc	r1, r23
    6282:	e8 07       	cpc	r30, r24
    6284:	f9 07       	cpc	r31, r25
    6286:	c0 f0       	brcs	.+48     	; 0x62b8 <__fp_cmp+0x46>
    6288:	12 16       	cp	r1, r18
    628a:	13 06       	cpc	r1, r19
    628c:	e4 07       	cpc	r30, r20
    628e:	f5 07       	cpc	r31, r21
    6290:	98 f0       	brcs	.+38     	; 0x62b8 <__fp_cmp+0x46>
    6292:	62 1b       	sub	r22, r18
    6294:	73 0b       	sbc	r23, r19
    6296:	84 0b       	sbc	r24, r20
    6298:	95 0b       	sbc	r25, r21
    629a:	39 f4       	brne	.+14     	; 0x62aa <__fp_cmp+0x38>
    629c:	0a 26       	eor	r0, r26
    629e:	61 f0       	breq	.+24     	; 0x62b8 <__fp_cmp+0x46>
    62a0:	23 2b       	or	r18, r19
    62a2:	24 2b       	or	r18, r20
    62a4:	25 2b       	or	r18, r21
    62a6:	21 f4       	brne	.+8      	; 0x62b0 <__fp_cmp+0x3e>
    62a8:	08 95       	ret
    62aa:	0a 26       	eor	r0, r26
    62ac:	09 f4       	brne	.+2      	; 0x62b0 <__fp_cmp+0x3e>
    62ae:	a1 40       	sbci	r26, 0x01	; 1
    62b0:	a6 95       	lsr	r26
    62b2:	8f ef       	ldi	r24, 0xFF	; 255
    62b4:	81 1d       	adc	r24, r1
    62b6:	81 1d       	adc	r24, r1
    62b8:	08 95       	ret

000062ba <__fp_inf>:
    62ba:	97 f9       	bld	r25, 7
    62bc:	9f 67       	ori	r25, 0x7F	; 127
    62be:	80 e8       	ldi	r24, 0x80	; 128
    62c0:	70 e0       	ldi	r23, 0x00	; 0
    62c2:	60 e0       	ldi	r22, 0x00	; 0
    62c4:	08 95       	ret

000062c6 <__fp_nan>:
    62c6:	9f ef       	ldi	r25, 0xFF	; 255
    62c8:	80 ec       	ldi	r24, 0xC0	; 192
    62ca:	08 95       	ret

000062cc <__fp_pscA>:
    62cc:	00 24       	eor	r0, r0
    62ce:	0a 94       	dec	r0
    62d0:	16 16       	cp	r1, r22
    62d2:	17 06       	cpc	r1, r23
    62d4:	18 06       	cpc	r1, r24
    62d6:	09 06       	cpc	r0, r25
    62d8:	08 95       	ret

000062da <__fp_pscB>:
    62da:	00 24       	eor	r0, r0
    62dc:	0a 94       	dec	r0
    62de:	12 16       	cp	r1, r18
    62e0:	13 06       	cpc	r1, r19
    62e2:	14 06       	cpc	r1, r20
    62e4:	05 06       	cpc	r0, r21
    62e6:	08 95       	ret

000062e8 <__fp_round>:
    62e8:	09 2e       	mov	r0, r25
    62ea:	03 94       	inc	r0
    62ec:	00 0c       	add	r0, r0
    62ee:	11 f4       	brne	.+4      	; 0x62f4 <__fp_round+0xc>
    62f0:	88 23       	and	r24, r24
    62f2:	52 f0       	brmi	.+20     	; 0x6308 <__fp_round+0x20>
    62f4:	bb 0f       	add	r27, r27
    62f6:	40 f4       	brcc	.+16     	; 0x6308 <__fp_round+0x20>
    62f8:	bf 2b       	or	r27, r31
    62fa:	11 f4       	brne	.+4      	; 0x6300 <__fp_round+0x18>
    62fc:	60 ff       	sbrs	r22, 0
    62fe:	04 c0       	rjmp	.+8      	; 0x6308 <__fp_round+0x20>
    6300:	6f 5f       	subi	r22, 0xFF	; 255
    6302:	7f 4f       	sbci	r23, 0xFF	; 255
    6304:	8f 4f       	sbci	r24, 0xFF	; 255
    6306:	9f 4f       	sbci	r25, 0xFF	; 255
    6308:	08 95       	ret

0000630a <__fp_split3>:
    630a:	57 fd       	sbrc	r21, 7
    630c:	90 58       	subi	r25, 0x80	; 128
    630e:	44 0f       	add	r20, r20
    6310:	55 1f       	adc	r21, r21
    6312:	59 f0       	breq	.+22     	; 0x632a <__fp_splitA+0x10>
    6314:	5f 3f       	cpi	r21, 0xFF	; 255
    6316:	71 f0       	breq	.+28     	; 0x6334 <__fp_splitA+0x1a>
    6318:	47 95       	ror	r20

0000631a <__fp_splitA>:
    631a:	88 0f       	add	r24, r24
    631c:	97 fb       	bst	r25, 7
    631e:	99 1f       	adc	r25, r25
    6320:	61 f0       	breq	.+24     	; 0x633a <__fp_splitA+0x20>
    6322:	9f 3f       	cpi	r25, 0xFF	; 255
    6324:	79 f0       	breq	.+30     	; 0x6344 <__fp_splitA+0x2a>
    6326:	87 95       	ror	r24
    6328:	08 95       	ret
    632a:	12 16       	cp	r1, r18
    632c:	13 06       	cpc	r1, r19
    632e:	14 06       	cpc	r1, r20
    6330:	55 1f       	adc	r21, r21
    6332:	f2 cf       	rjmp	.-28     	; 0x6318 <__fp_split3+0xe>
    6334:	46 95       	lsr	r20
    6336:	f1 df       	rcall	.-30     	; 0x631a <__fp_splitA>
    6338:	08 c0       	rjmp	.+16     	; 0x634a <__fp_splitA+0x30>
    633a:	16 16       	cp	r1, r22
    633c:	17 06       	cpc	r1, r23
    633e:	18 06       	cpc	r1, r24
    6340:	99 1f       	adc	r25, r25
    6342:	f1 cf       	rjmp	.-30     	; 0x6326 <__fp_splitA+0xc>
    6344:	86 95       	lsr	r24
    6346:	71 05       	cpc	r23, r1
    6348:	61 05       	cpc	r22, r1
    634a:	08 94       	sec
    634c:	08 95       	ret

0000634e <__fp_zero>:
    634e:	e8 94       	clt

00006350 <__fp_szero>:
    6350:	bb 27       	eor	r27, r27
    6352:	66 27       	eor	r22, r22
    6354:	77 27       	eor	r23, r23
    6356:	cb 01       	movw	r24, r22
    6358:	97 f9       	bld	r25, 7
    635a:	08 95       	ret

0000635c <__gesf2>:
    635c:	0e 94 39 31 	call	0x6272	; 0x6272 <__fp_cmp>
    6360:	08 f4       	brcc	.+2      	; 0x6364 <__gesf2+0x8>
    6362:	8f ef       	ldi	r24, 0xFF	; 255
    6364:	08 95       	ret

00006366 <__mulsf3>:
    6366:	0e 94 c6 31 	call	0x638c	; 0x638c <__mulsf3x>
    636a:	0c 94 74 31 	jmp	0x62e8	; 0x62e8 <__fp_round>
    636e:	0e 94 66 31 	call	0x62cc	; 0x62cc <__fp_pscA>
    6372:	38 f0       	brcs	.+14     	; 0x6382 <__mulsf3+0x1c>
    6374:	0e 94 6d 31 	call	0x62da	; 0x62da <__fp_pscB>
    6378:	20 f0       	brcs	.+8      	; 0x6382 <__mulsf3+0x1c>
    637a:	95 23       	and	r25, r21
    637c:	11 f0       	breq	.+4      	; 0x6382 <__mulsf3+0x1c>
    637e:	0c 94 5d 31 	jmp	0x62ba	; 0x62ba <__fp_inf>
    6382:	0c 94 63 31 	jmp	0x62c6	; 0x62c6 <__fp_nan>
    6386:	11 24       	eor	r1, r1
    6388:	0c 94 a8 31 	jmp	0x6350	; 0x6350 <__fp_szero>

0000638c <__mulsf3x>:
    638c:	0e 94 85 31 	call	0x630a	; 0x630a <__fp_split3>
    6390:	70 f3       	brcs	.-36     	; 0x636e <__mulsf3+0x8>

00006392 <__mulsf3_pse>:
    6392:	95 9f       	mul	r25, r21
    6394:	c1 f3       	breq	.-16     	; 0x6386 <__mulsf3+0x20>
    6396:	95 0f       	add	r25, r21
    6398:	50 e0       	ldi	r21, 0x00	; 0
    639a:	55 1f       	adc	r21, r21
    639c:	62 9f       	mul	r22, r18
    639e:	f0 01       	movw	r30, r0
    63a0:	72 9f       	mul	r23, r18
    63a2:	bb 27       	eor	r27, r27
    63a4:	f0 0d       	add	r31, r0
    63a6:	b1 1d       	adc	r27, r1
    63a8:	63 9f       	mul	r22, r19
    63aa:	aa 27       	eor	r26, r26
    63ac:	f0 0d       	add	r31, r0
    63ae:	b1 1d       	adc	r27, r1
    63b0:	aa 1f       	adc	r26, r26
    63b2:	64 9f       	mul	r22, r20
    63b4:	66 27       	eor	r22, r22
    63b6:	b0 0d       	add	r27, r0
    63b8:	a1 1d       	adc	r26, r1
    63ba:	66 1f       	adc	r22, r22
    63bc:	82 9f       	mul	r24, r18
    63be:	22 27       	eor	r18, r18
    63c0:	b0 0d       	add	r27, r0
    63c2:	a1 1d       	adc	r26, r1
    63c4:	62 1f       	adc	r22, r18
    63c6:	73 9f       	mul	r23, r19
    63c8:	b0 0d       	add	r27, r0
    63ca:	a1 1d       	adc	r26, r1
    63cc:	62 1f       	adc	r22, r18
    63ce:	83 9f       	mul	r24, r19
    63d0:	a0 0d       	add	r26, r0
    63d2:	61 1d       	adc	r22, r1
    63d4:	22 1f       	adc	r18, r18
    63d6:	74 9f       	mul	r23, r20
    63d8:	33 27       	eor	r19, r19
    63da:	a0 0d       	add	r26, r0
    63dc:	61 1d       	adc	r22, r1
    63de:	23 1f       	adc	r18, r19
    63e0:	84 9f       	mul	r24, r20
    63e2:	60 0d       	add	r22, r0
    63e4:	21 1d       	adc	r18, r1
    63e6:	82 2f       	mov	r24, r18
    63e8:	76 2f       	mov	r23, r22
    63ea:	6a 2f       	mov	r22, r26
    63ec:	11 24       	eor	r1, r1
    63ee:	9f 57       	subi	r25, 0x7F	; 127
    63f0:	50 40       	sbci	r21, 0x00	; 0
    63f2:	9a f0       	brmi	.+38     	; 0x641a <__mulsf3_pse+0x88>
    63f4:	f1 f0       	breq	.+60     	; 0x6432 <__mulsf3_pse+0xa0>
    63f6:	88 23       	and	r24, r24
    63f8:	4a f0       	brmi	.+18     	; 0x640c <__mulsf3_pse+0x7a>
    63fa:	ee 0f       	add	r30, r30
    63fc:	ff 1f       	adc	r31, r31
    63fe:	bb 1f       	adc	r27, r27
    6400:	66 1f       	adc	r22, r22
    6402:	77 1f       	adc	r23, r23
    6404:	88 1f       	adc	r24, r24
    6406:	91 50       	subi	r25, 0x01	; 1
    6408:	50 40       	sbci	r21, 0x00	; 0
    640a:	a9 f7       	brne	.-22     	; 0x63f6 <__mulsf3_pse+0x64>
    640c:	9e 3f       	cpi	r25, 0xFE	; 254
    640e:	51 05       	cpc	r21, r1
    6410:	80 f0       	brcs	.+32     	; 0x6432 <__mulsf3_pse+0xa0>
    6412:	0c 94 5d 31 	jmp	0x62ba	; 0x62ba <__fp_inf>
    6416:	0c 94 a8 31 	jmp	0x6350	; 0x6350 <__fp_szero>
    641a:	5f 3f       	cpi	r21, 0xFF	; 255
    641c:	e4 f3       	brlt	.-8      	; 0x6416 <__mulsf3_pse+0x84>
    641e:	98 3e       	cpi	r25, 0xE8	; 232
    6420:	d4 f3       	brlt	.-12     	; 0x6416 <__mulsf3_pse+0x84>
    6422:	86 95       	lsr	r24
    6424:	77 95       	ror	r23
    6426:	67 95       	ror	r22
    6428:	b7 95       	ror	r27
    642a:	f7 95       	ror	r31
    642c:	e7 95       	ror	r30
    642e:	9f 5f       	subi	r25, 0xFF	; 255
    6430:	c1 f7       	brne	.-16     	; 0x6422 <__mulsf3_pse+0x90>
    6432:	fe 2b       	or	r31, r30
    6434:	88 0f       	add	r24, r24
    6436:	91 1d       	adc	r25, r1
    6438:	96 95       	lsr	r25
    643a:	87 95       	ror	r24
    643c:	97 f9       	bld	r25, 7
    643e:	08 95       	ret

00006440 <vfprintf>:
    6440:	2f 92       	push	r2
    6442:	3f 92       	push	r3
    6444:	4f 92       	push	r4
    6446:	5f 92       	push	r5
    6448:	6f 92       	push	r6
    644a:	7f 92       	push	r7
    644c:	8f 92       	push	r8
    644e:	9f 92       	push	r9
    6450:	af 92       	push	r10
    6452:	bf 92       	push	r11
    6454:	cf 92       	push	r12
    6456:	df 92       	push	r13
    6458:	ef 92       	push	r14
    645a:	ff 92       	push	r15
    645c:	0f 93       	push	r16
    645e:	1f 93       	push	r17
    6460:	cf 93       	push	r28
    6462:	df 93       	push	r29
    6464:	cd b7       	in	r28, 0x3d	; 61
    6466:	de b7       	in	r29, 0x3e	; 62
    6468:	60 97       	sbiw	r28, 0x10	; 16
    646a:	cd bf       	out	0x3d, r28	; 61
    646c:	de bf       	out	0x3e, r29	; 62
    646e:	7c 01       	movw	r14, r24
    6470:	1b 01       	movw	r2, r22
    6472:	6a 01       	movw	r12, r20
    6474:	fc 01       	movw	r30, r24
    6476:	16 82       	std	Z+6, r1	; 0x06
    6478:	17 82       	std	Z+7, r1	; 0x07
    647a:	83 81       	ldd	r24, Z+3	; 0x03
    647c:	81 ff       	sbrs	r24, 1
    647e:	44 c3       	rjmp	.+1672   	; 0x6b08 <vfprintf+0x6c8>
    6480:	9e 01       	movw	r18, r28
    6482:	2f 5f       	subi	r18, 0xFF	; 255
    6484:	3f 4f       	sbci	r19, 0xFF	; 255
    6486:	39 01       	movw	r6, r18
    6488:	f7 01       	movw	r30, r14
    648a:	93 81       	ldd	r25, Z+3	; 0x03
    648c:	f1 01       	movw	r30, r2
    648e:	93 fd       	sbrc	r25, 3
    6490:	85 91       	lpm	r24, Z+
    6492:	93 ff       	sbrs	r25, 3
    6494:	81 91       	ld	r24, Z+
    6496:	1f 01       	movw	r2, r30
    6498:	88 23       	and	r24, r24
    649a:	09 f4       	brne	.+2      	; 0x649e <vfprintf+0x5e>
    649c:	31 c3       	rjmp	.+1634   	; 0x6b00 <vfprintf+0x6c0>
    649e:	85 32       	cpi	r24, 0x25	; 37
    64a0:	39 f4       	brne	.+14     	; 0x64b0 <vfprintf+0x70>
    64a2:	93 fd       	sbrc	r25, 3
    64a4:	85 91       	lpm	r24, Z+
    64a6:	93 ff       	sbrs	r25, 3
    64a8:	81 91       	ld	r24, Z+
    64aa:	1f 01       	movw	r2, r30
    64ac:	85 32       	cpi	r24, 0x25	; 37
    64ae:	39 f4       	brne	.+14     	; 0x64be <vfprintf+0x7e>
    64b0:	b7 01       	movw	r22, r14
    64b2:	90 e0       	ldi	r25, 0x00	; 0
    64b4:	0e 94 80 38 	call	0x7100	; 0x7100 <fputc>
    64b8:	56 01       	movw	r10, r12
    64ba:	65 01       	movw	r12, r10
    64bc:	e5 cf       	rjmp	.-54     	; 0x6488 <vfprintf+0x48>
    64be:	10 e0       	ldi	r17, 0x00	; 0
    64c0:	51 2c       	mov	r5, r1
    64c2:	91 2c       	mov	r9, r1
    64c4:	ff e1       	ldi	r31, 0x1F	; 31
    64c6:	f9 15       	cp	r31, r9
    64c8:	d8 f0       	brcs	.+54     	; 0x6500 <vfprintf+0xc0>
    64ca:	8b 32       	cpi	r24, 0x2B	; 43
    64cc:	79 f0       	breq	.+30     	; 0x64ec <vfprintf+0xac>
    64ce:	38 f4       	brcc	.+14     	; 0x64de <vfprintf+0x9e>
    64d0:	80 32       	cpi	r24, 0x20	; 32
    64d2:	79 f0       	breq	.+30     	; 0x64f2 <vfprintf+0xb2>
    64d4:	83 32       	cpi	r24, 0x23	; 35
    64d6:	a1 f4       	brne	.+40     	; 0x6500 <vfprintf+0xc0>
    64d8:	f9 2d       	mov	r31, r9
    64da:	f0 61       	ori	r31, 0x10	; 16
    64dc:	2e c0       	rjmp	.+92     	; 0x653a <vfprintf+0xfa>
    64de:	8d 32       	cpi	r24, 0x2D	; 45
    64e0:	61 f0       	breq	.+24     	; 0x64fa <vfprintf+0xba>
    64e2:	80 33       	cpi	r24, 0x30	; 48
    64e4:	69 f4       	brne	.+26     	; 0x6500 <vfprintf+0xc0>
    64e6:	29 2d       	mov	r18, r9
    64e8:	21 60       	ori	r18, 0x01	; 1
    64ea:	2d c0       	rjmp	.+90     	; 0x6546 <vfprintf+0x106>
    64ec:	39 2d       	mov	r19, r9
    64ee:	32 60       	ori	r19, 0x02	; 2
    64f0:	93 2e       	mov	r9, r19
    64f2:	89 2d       	mov	r24, r9
    64f4:	84 60       	ori	r24, 0x04	; 4
    64f6:	98 2e       	mov	r9, r24
    64f8:	2a c0       	rjmp	.+84     	; 0x654e <vfprintf+0x10e>
    64fa:	e9 2d       	mov	r30, r9
    64fc:	e8 60       	ori	r30, 0x08	; 8
    64fe:	15 c0       	rjmp	.+42     	; 0x652a <vfprintf+0xea>
    6500:	97 fc       	sbrc	r9, 7
    6502:	2d c0       	rjmp	.+90     	; 0x655e <vfprintf+0x11e>
    6504:	20 ed       	ldi	r18, 0xD0	; 208
    6506:	28 0f       	add	r18, r24
    6508:	2a 30       	cpi	r18, 0x0A	; 10
    650a:	88 f4       	brcc	.+34     	; 0x652e <vfprintf+0xee>
    650c:	96 fe       	sbrs	r9, 6
    650e:	06 c0       	rjmp	.+12     	; 0x651c <vfprintf+0xdc>
    6510:	3a e0       	ldi	r19, 0x0A	; 10
    6512:	13 9f       	mul	r17, r19
    6514:	20 0d       	add	r18, r0
    6516:	11 24       	eor	r1, r1
    6518:	12 2f       	mov	r17, r18
    651a:	19 c0       	rjmp	.+50     	; 0x654e <vfprintf+0x10e>
    651c:	8a e0       	ldi	r24, 0x0A	; 10
    651e:	58 9e       	mul	r5, r24
    6520:	20 0d       	add	r18, r0
    6522:	11 24       	eor	r1, r1
    6524:	52 2e       	mov	r5, r18
    6526:	e9 2d       	mov	r30, r9
    6528:	e0 62       	ori	r30, 0x20	; 32
    652a:	9e 2e       	mov	r9, r30
    652c:	10 c0       	rjmp	.+32     	; 0x654e <vfprintf+0x10e>
    652e:	8e 32       	cpi	r24, 0x2E	; 46
    6530:	31 f4       	brne	.+12     	; 0x653e <vfprintf+0xfe>
    6532:	96 fc       	sbrc	r9, 6
    6534:	e5 c2       	rjmp	.+1482   	; 0x6b00 <vfprintf+0x6c0>
    6536:	f9 2d       	mov	r31, r9
    6538:	f0 64       	ori	r31, 0x40	; 64
    653a:	9f 2e       	mov	r9, r31
    653c:	08 c0       	rjmp	.+16     	; 0x654e <vfprintf+0x10e>
    653e:	8c 36       	cpi	r24, 0x6C	; 108
    6540:	21 f4       	brne	.+8      	; 0x654a <vfprintf+0x10a>
    6542:	29 2d       	mov	r18, r9
    6544:	20 68       	ori	r18, 0x80	; 128
    6546:	92 2e       	mov	r9, r18
    6548:	02 c0       	rjmp	.+4      	; 0x654e <vfprintf+0x10e>
    654a:	88 36       	cpi	r24, 0x68	; 104
    654c:	41 f4       	brne	.+16     	; 0x655e <vfprintf+0x11e>
    654e:	f1 01       	movw	r30, r2
    6550:	93 fd       	sbrc	r25, 3
    6552:	85 91       	lpm	r24, Z+
    6554:	93 ff       	sbrs	r25, 3
    6556:	81 91       	ld	r24, Z+
    6558:	1f 01       	movw	r2, r30
    655a:	81 11       	cpse	r24, r1
    655c:	b3 cf       	rjmp	.-154    	; 0x64c4 <vfprintf+0x84>
    655e:	9b eb       	ldi	r25, 0xBB	; 187
    6560:	98 0f       	add	r25, r24
    6562:	93 30       	cpi	r25, 0x03	; 3
    6564:	20 f4       	brcc	.+8      	; 0x656e <vfprintf+0x12e>
    6566:	99 2d       	mov	r25, r9
    6568:	90 61       	ori	r25, 0x10	; 16
    656a:	80 5e       	subi	r24, 0xE0	; 224
    656c:	07 c0       	rjmp	.+14     	; 0x657c <vfprintf+0x13c>
    656e:	9b e9       	ldi	r25, 0x9B	; 155
    6570:	98 0f       	add	r25, r24
    6572:	93 30       	cpi	r25, 0x03	; 3
    6574:	08 f0       	brcs	.+2      	; 0x6578 <vfprintf+0x138>
    6576:	66 c1       	rjmp	.+716    	; 0x6844 <vfprintf+0x404>
    6578:	99 2d       	mov	r25, r9
    657a:	9f 7e       	andi	r25, 0xEF	; 239
    657c:	96 ff       	sbrs	r25, 6
    657e:	16 e0       	ldi	r17, 0x06	; 6
    6580:	9f 73       	andi	r25, 0x3F	; 63
    6582:	99 2e       	mov	r9, r25
    6584:	85 36       	cpi	r24, 0x65	; 101
    6586:	19 f4       	brne	.+6      	; 0x658e <vfprintf+0x14e>
    6588:	90 64       	ori	r25, 0x40	; 64
    658a:	99 2e       	mov	r9, r25
    658c:	08 c0       	rjmp	.+16     	; 0x659e <vfprintf+0x15e>
    658e:	86 36       	cpi	r24, 0x66	; 102
    6590:	21 f4       	brne	.+8      	; 0x659a <vfprintf+0x15a>
    6592:	39 2f       	mov	r19, r25
    6594:	30 68       	ori	r19, 0x80	; 128
    6596:	93 2e       	mov	r9, r19
    6598:	02 c0       	rjmp	.+4      	; 0x659e <vfprintf+0x15e>
    659a:	11 11       	cpse	r17, r1
    659c:	11 50       	subi	r17, 0x01	; 1
    659e:	97 fe       	sbrs	r9, 7
    65a0:	07 c0       	rjmp	.+14     	; 0x65b0 <vfprintf+0x170>
    65a2:	1c 33       	cpi	r17, 0x3C	; 60
    65a4:	50 f4       	brcc	.+20     	; 0x65ba <vfprintf+0x17a>
    65a6:	44 24       	eor	r4, r4
    65a8:	43 94       	inc	r4
    65aa:	41 0e       	add	r4, r17
    65ac:	27 e0       	ldi	r18, 0x07	; 7
    65ae:	0b c0       	rjmp	.+22     	; 0x65c6 <vfprintf+0x186>
    65b0:	18 30       	cpi	r17, 0x08	; 8
    65b2:	38 f0       	brcs	.+14     	; 0x65c2 <vfprintf+0x182>
    65b4:	27 e0       	ldi	r18, 0x07	; 7
    65b6:	17 e0       	ldi	r17, 0x07	; 7
    65b8:	05 c0       	rjmp	.+10     	; 0x65c4 <vfprintf+0x184>
    65ba:	27 e0       	ldi	r18, 0x07	; 7
    65bc:	9c e3       	ldi	r25, 0x3C	; 60
    65be:	49 2e       	mov	r4, r25
    65c0:	02 c0       	rjmp	.+4      	; 0x65c6 <vfprintf+0x186>
    65c2:	21 2f       	mov	r18, r17
    65c4:	41 2c       	mov	r4, r1
    65c6:	56 01       	movw	r10, r12
    65c8:	84 e0       	ldi	r24, 0x04	; 4
    65ca:	a8 0e       	add	r10, r24
    65cc:	b1 1c       	adc	r11, r1
    65ce:	f6 01       	movw	r30, r12
    65d0:	60 81       	ld	r22, Z
    65d2:	71 81       	ldd	r23, Z+1	; 0x01
    65d4:	82 81       	ldd	r24, Z+2	; 0x02
    65d6:	93 81       	ldd	r25, Z+3	; 0x03
    65d8:	04 2d       	mov	r16, r4
    65da:	a3 01       	movw	r20, r6
    65dc:	0e 94 47 37 	call	0x6e8e	; 0x6e8e <__ftoa_engine>
    65e0:	6c 01       	movw	r12, r24
    65e2:	f9 81       	ldd	r31, Y+1	; 0x01
    65e4:	fc 87       	std	Y+12, r31	; 0x0c
    65e6:	f0 ff       	sbrs	r31, 0
    65e8:	02 c0       	rjmp	.+4      	; 0x65ee <vfprintf+0x1ae>
    65ea:	f3 ff       	sbrs	r31, 3
    65ec:	06 c0       	rjmp	.+12     	; 0x65fa <vfprintf+0x1ba>
    65ee:	91 fc       	sbrc	r9, 1
    65f0:	06 c0       	rjmp	.+12     	; 0x65fe <vfprintf+0x1be>
    65f2:	92 fe       	sbrs	r9, 2
    65f4:	06 c0       	rjmp	.+12     	; 0x6602 <vfprintf+0x1c2>
    65f6:	00 e2       	ldi	r16, 0x20	; 32
    65f8:	05 c0       	rjmp	.+10     	; 0x6604 <vfprintf+0x1c4>
    65fa:	0d e2       	ldi	r16, 0x2D	; 45
    65fc:	03 c0       	rjmp	.+6      	; 0x6604 <vfprintf+0x1c4>
    65fe:	0b e2       	ldi	r16, 0x2B	; 43
    6600:	01 c0       	rjmp	.+2      	; 0x6604 <vfprintf+0x1c4>
    6602:	00 e0       	ldi	r16, 0x00	; 0
    6604:	8c 85       	ldd	r24, Y+12	; 0x0c
    6606:	8c 70       	andi	r24, 0x0C	; 12
    6608:	19 f0       	breq	.+6      	; 0x6610 <vfprintf+0x1d0>
    660a:	01 11       	cpse	r16, r1
    660c:	5a c2       	rjmp	.+1204   	; 0x6ac2 <vfprintf+0x682>
    660e:	9b c2       	rjmp	.+1334   	; 0x6b46 <vfprintf+0x706>
    6610:	97 fe       	sbrs	r9, 7
    6612:	10 c0       	rjmp	.+32     	; 0x6634 <vfprintf+0x1f4>
    6614:	4c 0c       	add	r4, r12
    6616:	fc 85       	ldd	r31, Y+12	; 0x0c
    6618:	f4 ff       	sbrs	r31, 4
    661a:	04 c0       	rjmp	.+8      	; 0x6624 <vfprintf+0x1e4>
    661c:	8a 81       	ldd	r24, Y+2	; 0x02
    661e:	81 33       	cpi	r24, 0x31	; 49
    6620:	09 f4       	brne	.+2      	; 0x6624 <vfprintf+0x1e4>
    6622:	4a 94       	dec	r4
    6624:	14 14       	cp	r1, r4
    6626:	74 f5       	brge	.+92     	; 0x6684 <vfprintf+0x244>
    6628:	28 e0       	ldi	r18, 0x08	; 8
    662a:	24 15       	cp	r18, r4
    662c:	78 f5       	brcc	.+94     	; 0x668c <vfprintf+0x24c>
    662e:	88 e0       	ldi	r24, 0x08	; 8
    6630:	48 2e       	mov	r4, r24
    6632:	2c c0       	rjmp	.+88     	; 0x668c <vfprintf+0x24c>
    6634:	96 fc       	sbrc	r9, 6
    6636:	2a c0       	rjmp	.+84     	; 0x668c <vfprintf+0x24c>
    6638:	81 2f       	mov	r24, r17
    663a:	90 e0       	ldi	r25, 0x00	; 0
    663c:	8c 15       	cp	r24, r12
    663e:	9d 05       	cpc	r25, r13
    6640:	9c f0       	brlt	.+38     	; 0x6668 <vfprintf+0x228>
    6642:	3c ef       	ldi	r19, 0xFC	; 252
    6644:	c3 16       	cp	r12, r19
    6646:	3f ef       	ldi	r19, 0xFF	; 255
    6648:	d3 06       	cpc	r13, r19
    664a:	74 f0       	brlt	.+28     	; 0x6668 <vfprintf+0x228>
    664c:	89 2d       	mov	r24, r9
    664e:	80 68       	ori	r24, 0x80	; 128
    6650:	98 2e       	mov	r9, r24
    6652:	0a c0       	rjmp	.+20     	; 0x6668 <vfprintf+0x228>
    6654:	e2 e0       	ldi	r30, 0x02	; 2
    6656:	f0 e0       	ldi	r31, 0x00	; 0
    6658:	ec 0f       	add	r30, r28
    665a:	fd 1f       	adc	r31, r29
    665c:	e1 0f       	add	r30, r17
    665e:	f1 1d       	adc	r31, r1
    6660:	80 81       	ld	r24, Z
    6662:	80 33       	cpi	r24, 0x30	; 48
    6664:	19 f4       	brne	.+6      	; 0x666c <vfprintf+0x22c>
    6666:	11 50       	subi	r17, 0x01	; 1
    6668:	11 11       	cpse	r17, r1
    666a:	f4 cf       	rjmp	.-24     	; 0x6654 <vfprintf+0x214>
    666c:	97 fe       	sbrs	r9, 7
    666e:	0e c0       	rjmp	.+28     	; 0x668c <vfprintf+0x24c>
    6670:	44 24       	eor	r4, r4
    6672:	43 94       	inc	r4
    6674:	41 0e       	add	r4, r17
    6676:	81 2f       	mov	r24, r17
    6678:	90 e0       	ldi	r25, 0x00	; 0
    667a:	c8 16       	cp	r12, r24
    667c:	d9 06       	cpc	r13, r25
    667e:	2c f4       	brge	.+10     	; 0x668a <vfprintf+0x24a>
    6680:	1c 19       	sub	r17, r12
    6682:	04 c0       	rjmp	.+8      	; 0x668c <vfprintf+0x24c>
    6684:	44 24       	eor	r4, r4
    6686:	43 94       	inc	r4
    6688:	01 c0       	rjmp	.+2      	; 0x668c <vfprintf+0x24c>
    668a:	10 e0       	ldi	r17, 0x00	; 0
    668c:	97 fe       	sbrs	r9, 7
    668e:	06 c0       	rjmp	.+12     	; 0x669c <vfprintf+0x25c>
    6690:	1c 14       	cp	r1, r12
    6692:	1d 04       	cpc	r1, r13
    6694:	34 f4       	brge	.+12     	; 0x66a2 <vfprintf+0x262>
    6696:	c6 01       	movw	r24, r12
    6698:	01 96       	adiw	r24, 0x01	; 1
    669a:	05 c0       	rjmp	.+10     	; 0x66a6 <vfprintf+0x266>
    669c:	85 e0       	ldi	r24, 0x05	; 5
    669e:	90 e0       	ldi	r25, 0x00	; 0
    66a0:	02 c0       	rjmp	.+4      	; 0x66a6 <vfprintf+0x266>
    66a2:	81 e0       	ldi	r24, 0x01	; 1
    66a4:	90 e0       	ldi	r25, 0x00	; 0
    66a6:	01 11       	cpse	r16, r1
    66a8:	01 96       	adiw	r24, 0x01	; 1
    66aa:	11 23       	and	r17, r17
    66ac:	31 f0       	breq	.+12     	; 0x66ba <vfprintf+0x27a>
    66ae:	21 2f       	mov	r18, r17
    66b0:	30 e0       	ldi	r19, 0x00	; 0
    66b2:	2f 5f       	subi	r18, 0xFF	; 255
    66b4:	3f 4f       	sbci	r19, 0xFF	; 255
    66b6:	82 0f       	add	r24, r18
    66b8:	93 1f       	adc	r25, r19
    66ba:	25 2d       	mov	r18, r5
    66bc:	30 e0       	ldi	r19, 0x00	; 0
    66be:	82 17       	cp	r24, r18
    66c0:	93 07       	cpc	r25, r19
    66c2:	14 f4       	brge	.+4      	; 0x66c8 <vfprintf+0x288>
    66c4:	58 1a       	sub	r5, r24
    66c6:	01 c0       	rjmp	.+2      	; 0x66ca <vfprintf+0x28a>
    66c8:	51 2c       	mov	r5, r1
    66ca:	89 2d       	mov	r24, r9
    66cc:	89 70       	andi	r24, 0x09	; 9
    66ce:	49 f4       	brne	.+18     	; 0x66e2 <vfprintf+0x2a2>
    66d0:	55 20       	and	r5, r5
    66d2:	39 f0       	breq	.+14     	; 0x66e2 <vfprintf+0x2a2>
    66d4:	b7 01       	movw	r22, r14
    66d6:	80 e2       	ldi	r24, 0x20	; 32
    66d8:	90 e0       	ldi	r25, 0x00	; 0
    66da:	0e 94 80 38 	call	0x7100	; 0x7100 <fputc>
    66de:	5a 94       	dec	r5
    66e0:	f7 cf       	rjmp	.-18     	; 0x66d0 <vfprintf+0x290>
    66e2:	00 23       	and	r16, r16
    66e4:	29 f0       	breq	.+10     	; 0x66f0 <vfprintf+0x2b0>
    66e6:	b7 01       	movw	r22, r14
    66e8:	80 2f       	mov	r24, r16
    66ea:	90 e0       	ldi	r25, 0x00	; 0
    66ec:	0e 94 80 38 	call	0x7100	; 0x7100 <fputc>
    66f0:	93 fc       	sbrc	r9, 3
    66f2:	09 c0       	rjmp	.+18     	; 0x6706 <vfprintf+0x2c6>
    66f4:	55 20       	and	r5, r5
    66f6:	39 f0       	breq	.+14     	; 0x6706 <vfprintf+0x2c6>
    66f8:	b7 01       	movw	r22, r14
    66fa:	80 e3       	ldi	r24, 0x30	; 48
    66fc:	90 e0       	ldi	r25, 0x00	; 0
    66fe:	0e 94 80 38 	call	0x7100	; 0x7100 <fputc>
    6702:	5a 94       	dec	r5
    6704:	f7 cf       	rjmp	.-18     	; 0x66f4 <vfprintf+0x2b4>
    6706:	97 fe       	sbrs	r9, 7
    6708:	4c c0       	rjmp	.+152    	; 0x67a2 <vfprintf+0x362>
    670a:	46 01       	movw	r8, r12
    670c:	d7 fe       	sbrs	r13, 7
    670e:	02 c0       	rjmp	.+4      	; 0x6714 <vfprintf+0x2d4>
    6710:	81 2c       	mov	r8, r1
    6712:	91 2c       	mov	r9, r1
    6714:	c6 01       	movw	r24, r12
    6716:	88 19       	sub	r24, r8
    6718:	99 09       	sbc	r25, r9
    671a:	f3 01       	movw	r30, r6
    671c:	e8 0f       	add	r30, r24
    671e:	f9 1f       	adc	r31, r25
    6720:	ed 87       	std	Y+13, r30	; 0x0d
    6722:	fe 87       	std	Y+14, r31	; 0x0e
    6724:	96 01       	movw	r18, r12
    6726:	24 19       	sub	r18, r4
    6728:	31 09       	sbc	r19, r1
    672a:	2f 87       	std	Y+15, r18	; 0x0f
    672c:	38 8b       	std	Y+16, r19	; 0x10
    672e:	01 2f       	mov	r16, r17
    6730:	10 e0       	ldi	r17, 0x00	; 0
    6732:	11 95       	neg	r17
    6734:	01 95       	neg	r16
    6736:	11 09       	sbc	r17, r1
    6738:	3f ef       	ldi	r19, 0xFF	; 255
    673a:	83 16       	cp	r8, r19
    673c:	93 06       	cpc	r9, r19
    673e:	29 f4       	brne	.+10     	; 0x674a <vfprintf+0x30a>
    6740:	b7 01       	movw	r22, r14
    6742:	8e e2       	ldi	r24, 0x2E	; 46
    6744:	90 e0       	ldi	r25, 0x00	; 0
    6746:	0e 94 80 38 	call	0x7100	; 0x7100 <fputc>
    674a:	c8 14       	cp	r12, r8
    674c:	d9 04       	cpc	r13, r9
    674e:	4c f0       	brlt	.+18     	; 0x6762 <vfprintf+0x322>
    6750:	8f 85       	ldd	r24, Y+15	; 0x0f
    6752:	98 89       	ldd	r25, Y+16	; 0x10
    6754:	88 15       	cp	r24, r8
    6756:	99 05       	cpc	r25, r9
    6758:	24 f4       	brge	.+8      	; 0x6762 <vfprintf+0x322>
    675a:	ed 85       	ldd	r30, Y+13	; 0x0d
    675c:	fe 85       	ldd	r31, Y+14	; 0x0e
    675e:	81 81       	ldd	r24, Z+1	; 0x01
    6760:	01 c0       	rjmp	.+2      	; 0x6764 <vfprintf+0x324>
    6762:	80 e3       	ldi	r24, 0x30	; 48
    6764:	f1 e0       	ldi	r31, 0x01	; 1
    6766:	8f 1a       	sub	r8, r31
    6768:	91 08       	sbc	r9, r1
    676a:	2d 85       	ldd	r18, Y+13	; 0x0d
    676c:	3e 85       	ldd	r19, Y+14	; 0x0e
    676e:	2f 5f       	subi	r18, 0xFF	; 255
    6770:	3f 4f       	sbci	r19, 0xFF	; 255
    6772:	2d 87       	std	Y+13, r18	; 0x0d
    6774:	3e 87       	std	Y+14, r19	; 0x0e
    6776:	80 16       	cp	r8, r16
    6778:	91 06       	cpc	r9, r17
    677a:	2c f0       	brlt	.+10     	; 0x6786 <vfprintf+0x346>
    677c:	b7 01       	movw	r22, r14
    677e:	90 e0       	ldi	r25, 0x00	; 0
    6780:	0e 94 80 38 	call	0x7100	; 0x7100 <fputc>
    6784:	d9 cf       	rjmp	.-78     	; 0x6738 <vfprintf+0x2f8>
    6786:	c8 14       	cp	r12, r8
    6788:	d9 04       	cpc	r13, r9
    678a:	41 f4       	brne	.+16     	; 0x679c <vfprintf+0x35c>
    678c:	9a 81       	ldd	r25, Y+2	; 0x02
    678e:	96 33       	cpi	r25, 0x36	; 54
    6790:	20 f4       	brcc	.+8      	; 0x679a <vfprintf+0x35a>
    6792:	95 33       	cpi	r25, 0x35	; 53
    6794:	19 f4       	brne	.+6      	; 0x679c <vfprintf+0x35c>
    6796:	3c 85       	ldd	r19, Y+12	; 0x0c
    6798:	34 ff       	sbrs	r19, 4
    679a:	81 e3       	ldi	r24, 0x31	; 49
    679c:	b7 01       	movw	r22, r14
    679e:	90 e0       	ldi	r25, 0x00	; 0
    67a0:	4e c0       	rjmp	.+156    	; 0x683e <vfprintf+0x3fe>
    67a2:	8a 81       	ldd	r24, Y+2	; 0x02
    67a4:	81 33       	cpi	r24, 0x31	; 49
    67a6:	19 f0       	breq	.+6      	; 0x67ae <vfprintf+0x36e>
    67a8:	9c 85       	ldd	r25, Y+12	; 0x0c
    67aa:	9f 7e       	andi	r25, 0xEF	; 239
    67ac:	9c 87       	std	Y+12, r25	; 0x0c
    67ae:	b7 01       	movw	r22, r14
    67b0:	90 e0       	ldi	r25, 0x00	; 0
    67b2:	0e 94 80 38 	call	0x7100	; 0x7100 <fputc>
    67b6:	11 11       	cpse	r17, r1
    67b8:	05 c0       	rjmp	.+10     	; 0x67c4 <vfprintf+0x384>
    67ba:	94 fc       	sbrc	r9, 4
    67bc:	18 c0       	rjmp	.+48     	; 0x67ee <vfprintf+0x3ae>
    67be:	85 e6       	ldi	r24, 0x65	; 101
    67c0:	90 e0       	ldi	r25, 0x00	; 0
    67c2:	17 c0       	rjmp	.+46     	; 0x67f2 <vfprintf+0x3b2>
    67c4:	b7 01       	movw	r22, r14
    67c6:	8e e2       	ldi	r24, 0x2E	; 46
    67c8:	90 e0       	ldi	r25, 0x00	; 0
    67ca:	0e 94 80 38 	call	0x7100	; 0x7100 <fputc>
    67ce:	1e 5f       	subi	r17, 0xFE	; 254
    67d0:	82 e0       	ldi	r24, 0x02	; 2
    67d2:	01 e0       	ldi	r16, 0x01	; 1
    67d4:	08 0f       	add	r16, r24
    67d6:	f3 01       	movw	r30, r6
    67d8:	e8 0f       	add	r30, r24
    67da:	f1 1d       	adc	r31, r1
    67dc:	80 81       	ld	r24, Z
    67de:	b7 01       	movw	r22, r14
    67e0:	90 e0       	ldi	r25, 0x00	; 0
    67e2:	0e 94 80 38 	call	0x7100	; 0x7100 <fputc>
    67e6:	80 2f       	mov	r24, r16
    67e8:	01 13       	cpse	r16, r17
    67ea:	f3 cf       	rjmp	.-26     	; 0x67d2 <vfprintf+0x392>
    67ec:	e6 cf       	rjmp	.-52     	; 0x67ba <vfprintf+0x37a>
    67ee:	85 e4       	ldi	r24, 0x45	; 69
    67f0:	90 e0       	ldi	r25, 0x00	; 0
    67f2:	b7 01       	movw	r22, r14
    67f4:	0e 94 80 38 	call	0x7100	; 0x7100 <fputc>
    67f8:	d7 fc       	sbrc	r13, 7
    67fa:	06 c0       	rjmp	.+12     	; 0x6808 <vfprintf+0x3c8>
    67fc:	c1 14       	cp	r12, r1
    67fe:	d1 04       	cpc	r13, r1
    6800:	41 f4       	brne	.+16     	; 0x6812 <vfprintf+0x3d2>
    6802:	ec 85       	ldd	r30, Y+12	; 0x0c
    6804:	e4 ff       	sbrs	r30, 4
    6806:	05 c0       	rjmp	.+10     	; 0x6812 <vfprintf+0x3d2>
    6808:	d1 94       	neg	r13
    680a:	c1 94       	neg	r12
    680c:	d1 08       	sbc	r13, r1
    680e:	8d e2       	ldi	r24, 0x2D	; 45
    6810:	01 c0       	rjmp	.+2      	; 0x6814 <vfprintf+0x3d4>
    6812:	8b e2       	ldi	r24, 0x2B	; 43
    6814:	b7 01       	movw	r22, r14
    6816:	90 e0       	ldi	r25, 0x00	; 0
    6818:	0e 94 80 38 	call	0x7100	; 0x7100 <fputc>
    681c:	80 e3       	ldi	r24, 0x30	; 48
    681e:	2a e0       	ldi	r18, 0x0A	; 10
    6820:	c2 16       	cp	r12, r18
    6822:	d1 04       	cpc	r13, r1
    6824:	2c f0       	brlt	.+10     	; 0x6830 <vfprintf+0x3f0>
    6826:	8f 5f       	subi	r24, 0xFF	; 255
    6828:	fa e0       	ldi	r31, 0x0A	; 10
    682a:	cf 1a       	sub	r12, r31
    682c:	d1 08       	sbc	r13, r1
    682e:	f7 cf       	rjmp	.-18     	; 0x681e <vfprintf+0x3de>
    6830:	b7 01       	movw	r22, r14
    6832:	90 e0       	ldi	r25, 0x00	; 0
    6834:	0e 94 80 38 	call	0x7100	; 0x7100 <fputc>
    6838:	b7 01       	movw	r22, r14
    683a:	c6 01       	movw	r24, r12
    683c:	c0 96       	adiw	r24, 0x30	; 48
    683e:	0e 94 80 38 	call	0x7100	; 0x7100 <fputc>
    6842:	54 c1       	rjmp	.+680    	; 0x6aec <vfprintf+0x6ac>
    6844:	83 36       	cpi	r24, 0x63	; 99
    6846:	31 f0       	breq	.+12     	; 0x6854 <vfprintf+0x414>
    6848:	83 37       	cpi	r24, 0x73	; 115
    684a:	79 f0       	breq	.+30     	; 0x686a <vfprintf+0x42a>
    684c:	83 35       	cpi	r24, 0x53	; 83
    684e:	09 f0       	breq	.+2      	; 0x6852 <vfprintf+0x412>
    6850:	56 c0       	rjmp	.+172    	; 0x68fe <vfprintf+0x4be>
    6852:	20 c0       	rjmp	.+64     	; 0x6894 <vfprintf+0x454>
    6854:	56 01       	movw	r10, r12
    6856:	32 e0       	ldi	r19, 0x02	; 2
    6858:	a3 0e       	add	r10, r19
    685a:	b1 1c       	adc	r11, r1
    685c:	f6 01       	movw	r30, r12
    685e:	80 81       	ld	r24, Z
    6860:	89 83       	std	Y+1, r24	; 0x01
    6862:	01 e0       	ldi	r16, 0x01	; 1
    6864:	10 e0       	ldi	r17, 0x00	; 0
    6866:	63 01       	movw	r12, r6
    6868:	12 c0       	rjmp	.+36     	; 0x688e <vfprintf+0x44e>
    686a:	56 01       	movw	r10, r12
    686c:	f2 e0       	ldi	r31, 0x02	; 2
    686e:	af 0e       	add	r10, r31
    6870:	b1 1c       	adc	r11, r1
    6872:	f6 01       	movw	r30, r12
    6874:	c0 80       	ld	r12, Z
    6876:	d1 80       	ldd	r13, Z+1	; 0x01
    6878:	96 fe       	sbrs	r9, 6
    687a:	03 c0       	rjmp	.+6      	; 0x6882 <vfprintf+0x442>
    687c:	61 2f       	mov	r22, r17
    687e:	70 e0       	ldi	r23, 0x00	; 0
    6880:	02 c0       	rjmp	.+4      	; 0x6886 <vfprintf+0x446>
    6882:	6f ef       	ldi	r22, 0xFF	; 255
    6884:	7f ef       	ldi	r23, 0xFF	; 255
    6886:	c6 01       	movw	r24, r12
    6888:	0e 94 2a 38 	call	0x7054	; 0x7054 <strnlen>
    688c:	8c 01       	movw	r16, r24
    688e:	f9 2d       	mov	r31, r9
    6890:	ff 77       	andi	r31, 0x7F	; 127
    6892:	14 c0       	rjmp	.+40     	; 0x68bc <vfprintf+0x47c>
    6894:	56 01       	movw	r10, r12
    6896:	22 e0       	ldi	r18, 0x02	; 2
    6898:	a2 0e       	add	r10, r18
    689a:	b1 1c       	adc	r11, r1
    689c:	f6 01       	movw	r30, r12
    689e:	c0 80       	ld	r12, Z
    68a0:	d1 80       	ldd	r13, Z+1	; 0x01
    68a2:	96 fe       	sbrs	r9, 6
    68a4:	03 c0       	rjmp	.+6      	; 0x68ac <vfprintf+0x46c>
    68a6:	61 2f       	mov	r22, r17
    68a8:	70 e0       	ldi	r23, 0x00	; 0
    68aa:	02 c0       	rjmp	.+4      	; 0x68b0 <vfprintf+0x470>
    68ac:	6f ef       	ldi	r22, 0xFF	; 255
    68ae:	7f ef       	ldi	r23, 0xFF	; 255
    68b0:	c6 01       	movw	r24, r12
    68b2:	0e 94 1f 38 	call	0x703e	; 0x703e <strnlen_P>
    68b6:	8c 01       	movw	r16, r24
    68b8:	f9 2d       	mov	r31, r9
    68ba:	f0 68       	ori	r31, 0x80	; 128
    68bc:	9f 2e       	mov	r9, r31
    68be:	f3 fd       	sbrc	r31, 3
    68c0:	1a c0       	rjmp	.+52     	; 0x68f6 <vfprintf+0x4b6>
    68c2:	85 2d       	mov	r24, r5
    68c4:	90 e0       	ldi	r25, 0x00	; 0
    68c6:	08 17       	cp	r16, r24
    68c8:	19 07       	cpc	r17, r25
    68ca:	a8 f4       	brcc	.+42     	; 0x68f6 <vfprintf+0x4b6>
    68cc:	b7 01       	movw	r22, r14
    68ce:	80 e2       	ldi	r24, 0x20	; 32
    68d0:	90 e0       	ldi	r25, 0x00	; 0
    68d2:	0e 94 80 38 	call	0x7100	; 0x7100 <fputc>
    68d6:	5a 94       	dec	r5
    68d8:	f4 cf       	rjmp	.-24     	; 0x68c2 <vfprintf+0x482>
    68da:	f6 01       	movw	r30, r12
    68dc:	97 fc       	sbrc	r9, 7
    68de:	85 91       	lpm	r24, Z+
    68e0:	97 fe       	sbrs	r9, 7
    68e2:	81 91       	ld	r24, Z+
    68e4:	6f 01       	movw	r12, r30
    68e6:	b7 01       	movw	r22, r14
    68e8:	90 e0       	ldi	r25, 0x00	; 0
    68ea:	0e 94 80 38 	call	0x7100	; 0x7100 <fputc>
    68ee:	51 10       	cpse	r5, r1
    68f0:	5a 94       	dec	r5
    68f2:	01 50       	subi	r16, 0x01	; 1
    68f4:	11 09       	sbc	r17, r1
    68f6:	01 15       	cp	r16, r1
    68f8:	11 05       	cpc	r17, r1
    68fa:	79 f7       	brne	.-34     	; 0x68da <vfprintf+0x49a>
    68fc:	f7 c0       	rjmp	.+494    	; 0x6aec <vfprintf+0x6ac>
    68fe:	84 36       	cpi	r24, 0x64	; 100
    6900:	11 f0       	breq	.+4      	; 0x6906 <vfprintf+0x4c6>
    6902:	89 36       	cpi	r24, 0x69	; 105
    6904:	61 f5       	brne	.+88     	; 0x695e <vfprintf+0x51e>
    6906:	56 01       	movw	r10, r12
    6908:	97 fe       	sbrs	r9, 7
    690a:	09 c0       	rjmp	.+18     	; 0x691e <vfprintf+0x4de>
    690c:	24 e0       	ldi	r18, 0x04	; 4
    690e:	a2 0e       	add	r10, r18
    6910:	b1 1c       	adc	r11, r1
    6912:	f6 01       	movw	r30, r12
    6914:	60 81       	ld	r22, Z
    6916:	71 81       	ldd	r23, Z+1	; 0x01
    6918:	82 81       	ldd	r24, Z+2	; 0x02
    691a:	93 81       	ldd	r25, Z+3	; 0x03
    691c:	0a c0       	rjmp	.+20     	; 0x6932 <vfprintf+0x4f2>
    691e:	f2 e0       	ldi	r31, 0x02	; 2
    6920:	af 0e       	add	r10, r31
    6922:	b1 1c       	adc	r11, r1
    6924:	f6 01       	movw	r30, r12
    6926:	60 81       	ld	r22, Z
    6928:	71 81       	ldd	r23, Z+1	; 0x01
    692a:	07 2e       	mov	r0, r23
    692c:	00 0c       	add	r0, r0
    692e:	88 0b       	sbc	r24, r24
    6930:	99 0b       	sbc	r25, r25
    6932:	f9 2d       	mov	r31, r9
    6934:	ff 76       	andi	r31, 0x6F	; 111
    6936:	9f 2e       	mov	r9, r31
    6938:	97 ff       	sbrs	r25, 7
    693a:	09 c0       	rjmp	.+18     	; 0x694e <vfprintf+0x50e>
    693c:	90 95       	com	r25
    693e:	80 95       	com	r24
    6940:	70 95       	com	r23
    6942:	61 95       	neg	r22
    6944:	7f 4f       	sbci	r23, 0xFF	; 255
    6946:	8f 4f       	sbci	r24, 0xFF	; 255
    6948:	9f 4f       	sbci	r25, 0xFF	; 255
    694a:	f0 68       	ori	r31, 0x80	; 128
    694c:	9f 2e       	mov	r9, r31
    694e:	2a e0       	ldi	r18, 0x0A	; 10
    6950:	30 e0       	ldi	r19, 0x00	; 0
    6952:	a3 01       	movw	r20, r6
    6954:	0e 94 00 39 	call	0x7200	; 0x7200 <__ultoa_invert>
    6958:	c8 2e       	mov	r12, r24
    695a:	c6 18       	sub	r12, r6
    695c:	3f c0       	rjmp	.+126    	; 0x69dc <vfprintf+0x59c>
    695e:	09 2d       	mov	r16, r9
    6960:	85 37       	cpi	r24, 0x75	; 117
    6962:	21 f4       	brne	.+8      	; 0x696c <vfprintf+0x52c>
    6964:	0f 7e       	andi	r16, 0xEF	; 239
    6966:	2a e0       	ldi	r18, 0x0A	; 10
    6968:	30 e0       	ldi	r19, 0x00	; 0
    696a:	1d c0       	rjmp	.+58     	; 0x69a6 <vfprintf+0x566>
    696c:	09 7f       	andi	r16, 0xF9	; 249
    696e:	8f 36       	cpi	r24, 0x6F	; 111
    6970:	91 f0       	breq	.+36     	; 0x6996 <vfprintf+0x556>
    6972:	18 f4       	brcc	.+6      	; 0x697a <vfprintf+0x53a>
    6974:	88 35       	cpi	r24, 0x58	; 88
    6976:	59 f0       	breq	.+22     	; 0x698e <vfprintf+0x54e>
    6978:	c3 c0       	rjmp	.+390    	; 0x6b00 <vfprintf+0x6c0>
    697a:	80 37       	cpi	r24, 0x70	; 112
    697c:	19 f0       	breq	.+6      	; 0x6984 <vfprintf+0x544>
    697e:	88 37       	cpi	r24, 0x78	; 120
    6980:	11 f0       	breq	.+4      	; 0x6986 <vfprintf+0x546>
    6982:	be c0       	rjmp	.+380    	; 0x6b00 <vfprintf+0x6c0>
    6984:	00 61       	ori	r16, 0x10	; 16
    6986:	04 ff       	sbrs	r16, 4
    6988:	09 c0       	rjmp	.+18     	; 0x699c <vfprintf+0x55c>
    698a:	04 60       	ori	r16, 0x04	; 4
    698c:	07 c0       	rjmp	.+14     	; 0x699c <vfprintf+0x55c>
    698e:	94 fe       	sbrs	r9, 4
    6990:	08 c0       	rjmp	.+16     	; 0x69a2 <vfprintf+0x562>
    6992:	06 60       	ori	r16, 0x06	; 6
    6994:	06 c0       	rjmp	.+12     	; 0x69a2 <vfprintf+0x562>
    6996:	28 e0       	ldi	r18, 0x08	; 8
    6998:	30 e0       	ldi	r19, 0x00	; 0
    699a:	05 c0       	rjmp	.+10     	; 0x69a6 <vfprintf+0x566>
    699c:	20 e1       	ldi	r18, 0x10	; 16
    699e:	30 e0       	ldi	r19, 0x00	; 0
    69a0:	02 c0       	rjmp	.+4      	; 0x69a6 <vfprintf+0x566>
    69a2:	20 e1       	ldi	r18, 0x10	; 16
    69a4:	32 e0       	ldi	r19, 0x02	; 2
    69a6:	56 01       	movw	r10, r12
    69a8:	07 ff       	sbrs	r16, 7
    69aa:	09 c0       	rjmp	.+18     	; 0x69be <vfprintf+0x57e>
    69ac:	84 e0       	ldi	r24, 0x04	; 4
    69ae:	a8 0e       	add	r10, r24
    69b0:	b1 1c       	adc	r11, r1
    69b2:	f6 01       	movw	r30, r12
    69b4:	60 81       	ld	r22, Z
    69b6:	71 81       	ldd	r23, Z+1	; 0x01
    69b8:	82 81       	ldd	r24, Z+2	; 0x02
    69ba:	93 81       	ldd	r25, Z+3	; 0x03
    69bc:	08 c0       	rjmp	.+16     	; 0x69ce <vfprintf+0x58e>
    69be:	f2 e0       	ldi	r31, 0x02	; 2
    69c0:	af 0e       	add	r10, r31
    69c2:	b1 1c       	adc	r11, r1
    69c4:	f6 01       	movw	r30, r12
    69c6:	60 81       	ld	r22, Z
    69c8:	71 81       	ldd	r23, Z+1	; 0x01
    69ca:	80 e0       	ldi	r24, 0x00	; 0
    69cc:	90 e0       	ldi	r25, 0x00	; 0
    69ce:	a3 01       	movw	r20, r6
    69d0:	0e 94 00 39 	call	0x7200	; 0x7200 <__ultoa_invert>
    69d4:	c8 2e       	mov	r12, r24
    69d6:	c6 18       	sub	r12, r6
    69d8:	0f 77       	andi	r16, 0x7F	; 127
    69da:	90 2e       	mov	r9, r16
    69dc:	96 fe       	sbrs	r9, 6
    69de:	0b c0       	rjmp	.+22     	; 0x69f6 <vfprintf+0x5b6>
    69e0:	09 2d       	mov	r16, r9
    69e2:	0e 7f       	andi	r16, 0xFE	; 254
    69e4:	c1 16       	cp	r12, r17
    69e6:	50 f4       	brcc	.+20     	; 0x69fc <vfprintf+0x5bc>
    69e8:	94 fe       	sbrs	r9, 4
    69ea:	0a c0       	rjmp	.+20     	; 0x6a00 <vfprintf+0x5c0>
    69ec:	92 fc       	sbrc	r9, 2
    69ee:	08 c0       	rjmp	.+16     	; 0x6a00 <vfprintf+0x5c0>
    69f0:	09 2d       	mov	r16, r9
    69f2:	0e 7e       	andi	r16, 0xEE	; 238
    69f4:	05 c0       	rjmp	.+10     	; 0x6a00 <vfprintf+0x5c0>
    69f6:	dc 2c       	mov	r13, r12
    69f8:	09 2d       	mov	r16, r9
    69fa:	03 c0       	rjmp	.+6      	; 0x6a02 <vfprintf+0x5c2>
    69fc:	dc 2c       	mov	r13, r12
    69fe:	01 c0       	rjmp	.+2      	; 0x6a02 <vfprintf+0x5c2>
    6a00:	d1 2e       	mov	r13, r17
    6a02:	04 ff       	sbrs	r16, 4
    6a04:	0d c0       	rjmp	.+26     	; 0x6a20 <vfprintf+0x5e0>
    6a06:	fe 01       	movw	r30, r28
    6a08:	ec 0d       	add	r30, r12
    6a0a:	f1 1d       	adc	r31, r1
    6a0c:	80 81       	ld	r24, Z
    6a0e:	80 33       	cpi	r24, 0x30	; 48
    6a10:	11 f4       	brne	.+4      	; 0x6a16 <vfprintf+0x5d6>
    6a12:	09 7e       	andi	r16, 0xE9	; 233
    6a14:	09 c0       	rjmp	.+18     	; 0x6a28 <vfprintf+0x5e8>
    6a16:	02 ff       	sbrs	r16, 2
    6a18:	06 c0       	rjmp	.+12     	; 0x6a26 <vfprintf+0x5e6>
    6a1a:	d3 94       	inc	r13
    6a1c:	d3 94       	inc	r13
    6a1e:	04 c0       	rjmp	.+8      	; 0x6a28 <vfprintf+0x5e8>
    6a20:	80 2f       	mov	r24, r16
    6a22:	86 78       	andi	r24, 0x86	; 134
    6a24:	09 f0       	breq	.+2      	; 0x6a28 <vfprintf+0x5e8>
    6a26:	d3 94       	inc	r13
    6a28:	03 fd       	sbrc	r16, 3
    6a2a:	11 c0       	rjmp	.+34     	; 0x6a4e <vfprintf+0x60e>
    6a2c:	00 ff       	sbrs	r16, 0
    6a2e:	06 c0       	rjmp	.+12     	; 0x6a3c <vfprintf+0x5fc>
    6a30:	1c 2d       	mov	r17, r12
    6a32:	d5 14       	cp	r13, r5
    6a34:	80 f4       	brcc	.+32     	; 0x6a56 <vfprintf+0x616>
    6a36:	15 0d       	add	r17, r5
    6a38:	1d 19       	sub	r17, r13
    6a3a:	0d c0       	rjmp	.+26     	; 0x6a56 <vfprintf+0x616>
    6a3c:	d5 14       	cp	r13, r5
    6a3e:	58 f4       	brcc	.+22     	; 0x6a56 <vfprintf+0x616>
    6a40:	b7 01       	movw	r22, r14
    6a42:	80 e2       	ldi	r24, 0x20	; 32
    6a44:	90 e0       	ldi	r25, 0x00	; 0
    6a46:	0e 94 80 38 	call	0x7100	; 0x7100 <fputc>
    6a4a:	d3 94       	inc	r13
    6a4c:	f7 cf       	rjmp	.-18     	; 0x6a3c <vfprintf+0x5fc>
    6a4e:	d5 14       	cp	r13, r5
    6a50:	10 f4       	brcc	.+4      	; 0x6a56 <vfprintf+0x616>
    6a52:	5d 18       	sub	r5, r13
    6a54:	01 c0       	rjmp	.+2      	; 0x6a58 <vfprintf+0x618>
    6a56:	51 2c       	mov	r5, r1
    6a58:	04 ff       	sbrs	r16, 4
    6a5a:	10 c0       	rjmp	.+32     	; 0x6a7c <vfprintf+0x63c>
    6a5c:	b7 01       	movw	r22, r14
    6a5e:	80 e3       	ldi	r24, 0x30	; 48
    6a60:	90 e0       	ldi	r25, 0x00	; 0
    6a62:	0e 94 80 38 	call	0x7100	; 0x7100 <fputc>
    6a66:	02 ff       	sbrs	r16, 2
    6a68:	17 c0       	rjmp	.+46     	; 0x6a98 <vfprintf+0x658>
    6a6a:	01 fd       	sbrc	r16, 1
    6a6c:	03 c0       	rjmp	.+6      	; 0x6a74 <vfprintf+0x634>
    6a6e:	88 e7       	ldi	r24, 0x78	; 120
    6a70:	90 e0       	ldi	r25, 0x00	; 0
    6a72:	02 c0       	rjmp	.+4      	; 0x6a78 <vfprintf+0x638>
    6a74:	88 e5       	ldi	r24, 0x58	; 88
    6a76:	90 e0       	ldi	r25, 0x00	; 0
    6a78:	b7 01       	movw	r22, r14
    6a7a:	0c c0       	rjmp	.+24     	; 0x6a94 <vfprintf+0x654>
    6a7c:	80 2f       	mov	r24, r16
    6a7e:	86 78       	andi	r24, 0x86	; 134
    6a80:	59 f0       	breq	.+22     	; 0x6a98 <vfprintf+0x658>
    6a82:	01 ff       	sbrs	r16, 1
    6a84:	02 c0       	rjmp	.+4      	; 0x6a8a <vfprintf+0x64a>
    6a86:	8b e2       	ldi	r24, 0x2B	; 43
    6a88:	01 c0       	rjmp	.+2      	; 0x6a8c <vfprintf+0x64c>
    6a8a:	80 e2       	ldi	r24, 0x20	; 32
    6a8c:	07 fd       	sbrc	r16, 7
    6a8e:	8d e2       	ldi	r24, 0x2D	; 45
    6a90:	b7 01       	movw	r22, r14
    6a92:	90 e0       	ldi	r25, 0x00	; 0
    6a94:	0e 94 80 38 	call	0x7100	; 0x7100 <fputc>
    6a98:	c1 16       	cp	r12, r17
    6a9a:	38 f4       	brcc	.+14     	; 0x6aaa <vfprintf+0x66a>
    6a9c:	b7 01       	movw	r22, r14
    6a9e:	80 e3       	ldi	r24, 0x30	; 48
    6aa0:	90 e0       	ldi	r25, 0x00	; 0
    6aa2:	0e 94 80 38 	call	0x7100	; 0x7100 <fputc>
    6aa6:	11 50       	subi	r17, 0x01	; 1
    6aa8:	f7 cf       	rjmp	.-18     	; 0x6a98 <vfprintf+0x658>
    6aaa:	ca 94       	dec	r12
    6aac:	f3 01       	movw	r30, r6
    6aae:	ec 0d       	add	r30, r12
    6ab0:	f1 1d       	adc	r31, r1
    6ab2:	80 81       	ld	r24, Z
    6ab4:	b7 01       	movw	r22, r14
    6ab6:	90 e0       	ldi	r25, 0x00	; 0
    6ab8:	0e 94 80 38 	call	0x7100	; 0x7100 <fputc>
    6abc:	c1 10       	cpse	r12, r1
    6abe:	f5 cf       	rjmp	.-22     	; 0x6aaa <vfprintf+0x66a>
    6ac0:	15 c0       	rjmp	.+42     	; 0x6aec <vfprintf+0x6ac>
    6ac2:	f4 e0       	ldi	r31, 0x04	; 4
    6ac4:	f5 15       	cp	r31, r5
    6ac6:	60 f5       	brcc	.+88     	; 0x6b20 <vfprintf+0x6e0>
    6ac8:	84 e0       	ldi	r24, 0x04	; 4
    6aca:	58 1a       	sub	r5, r24
    6acc:	93 fe       	sbrs	r9, 3
    6ace:	1f c0       	rjmp	.+62     	; 0x6b0e <vfprintf+0x6ce>
    6ad0:	01 11       	cpse	r16, r1
    6ad2:	27 c0       	rjmp	.+78     	; 0x6b22 <vfprintf+0x6e2>
    6ad4:	2c 85       	ldd	r18, Y+12	; 0x0c
    6ad6:	23 ff       	sbrs	r18, 3
    6ad8:	2a c0       	rjmp	.+84     	; 0x6b2e <vfprintf+0x6ee>
    6ada:	0c e2       	ldi	r16, 0x2C	; 44
    6adc:	17 e0       	ldi	r17, 0x07	; 7
    6ade:	39 2d       	mov	r19, r9
    6ae0:	30 71       	andi	r19, 0x10	; 16
    6ae2:	93 2e       	mov	r9, r19
    6ae4:	f8 01       	movw	r30, r16
    6ae6:	84 91       	lpm	r24, Z
    6ae8:	81 11       	cpse	r24, r1
    6aea:	24 c0       	rjmp	.+72     	; 0x6b34 <vfprintf+0x6f4>
    6aec:	55 20       	and	r5, r5
    6aee:	09 f4       	brne	.+2      	; 0x6af2 <vfprintf+0x6b2>
    6af0:	e4 cc       	rjmp	.-1592   	; 0x64ba <vfprintf+0x7a>
    6af2:	b7 01       	movw	r22, r14
    6af4:	80 e2       	ldi	r24, 0x20	; 32
    6af6:	90 e0       	ldi	r25, 0x00	; 0
    6af8:	0e 94 80 38 	call	0x7100	; 0x7100 <fputc>
    6afc:	5a 94       	dec	r5
    6afe:	f6 cf       	rjmp	.-20     	; 0x6aec <vfprintf+0x6ac>
    6b00:	f7 01       	movw	r30, r14
    6b02:	86 81       	ldd	r24, Z+6	; 0x06
    6b04:	97 81       	ldd	r25, Z+7	; 0x07
    6b06:	26 c0       	rjmp	.+76     	; 0x6b54 <vfprintf+0x714>
    6b08:	8f ef       	ldi	r24, 0xFF	; 255
    6b0a:	9f ef       	ldi	r25, 0xFF	; 255
    6b0c:	23 c0       	rjmp	.+70     	; 0x6b54 <vfprintf+0x714>
    6b0e:	b7 01       	movw	r22, r14
    6b10:	80 e2       	ldi	r24, 0x20	; 32
    6b12:	90 e0       	ldi	r25, 0x00	; 0
    6b14:	0e 94 80 38 	call	0x7100	; 0x7100 <fputc>
    6b18:	5a 94       	dec	r5
    6b1a:	51 10       	cpse	r5, r1
    6b1c:	f8 cf       	rjmp	.-16     	; 0x6b0e <vfprintf+0x6ce>
    6b1e:	d8 cf       	rjmp	.-80     	; 0x6ad0 <vfprintf+0x690>
    6b20:	51 2c       	mov	r5, r1
    6b22:	b7 01       	movw	r22, r14
    6b24:	80 2f       	mov	r24, r16
    6b26:	90 e0       	ldi	r25, 0x00	; 0
    6b28:	0e 94 80 38 	call	0x7100	; 0x7100 <fputc>
    6b2c:	d3 cf       	rjmp	.-90     	; 0x6ad4 <vfprintf+0x694>
    6b2e:	00 e3       	ldi	r16, 0x30	; 48
    6b30:	17 e0       	ldi	r17, 0x07	; 7
    6b32:	d5 cf       	rjmp	.-86     	; 0x6ade <vfprintf+0x69e>
    6b34:	91 10       	cpse	r9, r1
    6b36:	80 52       	subi	r24, 0x20	; 32
    6b38:	b7 01       	movw	r22, r14
    6b3a:	90 e0       	ldi	r25, 0x00	; 0
    6b3c:	0e 94 80 38 	call	0x7100	; 0x7100 <fputc>
    6b40:	0f 5f       	subi	r16, 0xFF	; 255
    6b42:	1f 4f       	sbci	r17, 0xFF	; 255
    6b44:	cf cf       	rjmp	.-98     	; 0x6ae4 <vfprintf+0x6a4>
    6b46:	23 e0       	ldi	r18, 0x03	; 3
    6b48:	25 15       	cp	r18, r5
    6b4a:	10 f4       	brcc	.+4      	; 0x6b50 <vfprintf+0x710>
    6b4c:	83 e0       	ldi	r24, 0x03	; 3
    6b4e:	bd cf       	rjmp	.-134    	; 0x6aca <vfprintf+0x68a>
    6b50:	51 2c       	mov	r5, r1
    6b52:	c0 cf       	rjmp	.-128    	; 0x6ad4 <vfprintf+0x694>
    6b54:	60 96       	adiw	r28, 0x10	; 16
    6b56:	cd bf       	out	0x3d, r28	; 61
    6b58:	de bf       	out	0x3e, r29	; 62
    6b5a:	df 91       	pop	r29
    6b5c:	cf 91       	pop	r28
    6b5e:	1f 91       	pop	r17
    6b60:	0f 91       	pop	r16
    6b62:	ff 90       	pop	r15
    6b64:	ef 90       	pop	r14
    6b66:	df 90       	pop	r13
    6b68:	cf 90       	pop	r12
    6b6a:	bf 90       	pop	r11
    6b6c:	af 90       	pop	r10
    6b6e:	9f 90       	pop	r9
    6b70:	8f 90       	pop	r8
    6b72:	7f 90       	pop	r7
    6b74:	6f 90       	pop	r6
    6b76:	5f 90       	pop	r5
    6b78:	4f 90       	pop	r4
    6b7a:	3f 90       	pop	r3
    6b7c:	2f 90       	pop	r2
    6b7e:	08 95       	ret

00006b80 <__divmodhi4>:
    6b80:	97 fb       	bst	r25, 7
    6b82:	07 2e       	mov	r0, r23
    6b84:	16 f4       	brtc	.+4      	; 0x6b8a <__divmodhi4+0xa>
    6b86:	00 94       	com	r0
    6b88:	07 d0       	rcall	.+14     	; 0x6b98 <__divmodhi4_neg1>
    6b8a:	77 fd       	sbrc	r23, 7
    6b8c:	09 d0       	rcall	.+18     	; 0x6ba0 <__divmodhi4_neg2>
    6b8e:	0e 94 33 37 	call	0x6e66	; 0x6e66 <__udivmodhi4>
    6b92:	07 fc       	sbrc	r0, 7
    6b94:	05 d0       	rcall	.+10     	; 0x6ba0 <__divmodhi4_neg2>
    6b96:	3e f4       	brtc	.+14     	; 0x6ba6 <__divmodhi4_exit>

00006b98 <__divmodhi4_neg1>:
    6b98:	90 95       	com	r25
    6b9a:	81 95       	neg	r24
    6b9c:	9f 4f       	sbci	r25, 0xFF	; 255
    6b9e:	08 95       	ret

00006ba0 <__divmodhi4_neg2>:
    6ba0:	70 95       	com	r23
    6ba2:	61 95       	neg	r22
    6ba4:	7f 4f       	sbci	r23, 0xFF	; 255

00006ba6 <__divmodhi4_exit>:
    6ba6:	08 95       	ret

00006ba8 <__udivmodsi4>:
    6ba8:	a1 e2       	ldi	r26, 0x21	; 33
    6baa:	1a 2e       	mov	r1, r26
    6bac:	aa 1b       	sub	r26, r26
    6bae:	bb 1b       	sub	r27, r27
    6bb0:	fd 01       	movw	r30, r26
    6bb2:	0d c0       	rjmp	.+26     	; 0x6bce <__udivmodsi4_ep>

00006bb4 <__udivmodsi4_loop>:
    6bb4:	aa 1f       	adc	r26, r26
    6bb6:	bb 1f       	adc	r27, r27
    6bb8:	ee 1f       	adc	r30, r30
    6bba:	ff 1f       	adc	r31, r31
    6bbc:	a2 17       	cp	r26, r18
    6bbe:	b3 07       	cpc	r27, r19
    6bc0:	e4 07       	cpc	r30, r20
    6bc2:	f5 07       	cpc	r31, r21
    6bc4:	20 f0       	brcs	.+8      	; 0x6bce <__udivmodsi4_ep>
    6bc6:	a2 1b       	sub	r26, r18
    6bc8:	b3 0b       	sbc	r27, r19
    6bca:	e4 0b       	sbc	r30, r20
    6bcc:	f5 0b       	sbc	r31, r21

00006bce <__udivmodsi4_ep>:
    6bce:	66 1f       	adc	r22, r22
    6bd0:	77 1f       	adc	r23, r23
    6bd2:	88 1f       	adc	r24, r24
    6bd4:	99 1f       	adc	r25, r25
    6bd6:	1a 94       	dec	r1
    6bd8:	69 f7       	brne	.-38     	; 0x6bb4 <__udivmodsi4_loop>
    6bda:	60 95       	com	r22
    6bdc:	70 95       	com	r23
    6bde:	80 95       	com	r24
    6be0:	90 95       	com	r25
    6be2:	9b 01       	movw	r18, r22
    6be4:	ac 01       	movw	r20, r24
    6be6:	bd 01       	movw	r22, r26
    6be8:	cf 01       	movw	r24, r30
    6bea:	08 95       	ret

00006bec <__divmodsi4>:
    6bec:	05 2e       	mov	r0, r21
    6bee:	97 fb       	bst	r25, 7
    6bf0:	1e f4       	brtc	.+6      	; 0x6bf8 <__divmodsi4+0xc>
    6bf2:	00 94       	com	r0
    6bf4:	0e 94 0d 36 	call	0x6c1a	; 0x6c1a <__negsi2>
    6bf8:	57 fd       	sbrc	r21, 7
    6bfa:	07 d0       	rcall	.+14     	; 0x6c0a <__divmodsi4_neg2>
    6bfc:	0e 94 d4 35 	call	0x6ba8	; 0x6ba8 <__udivmodsi4>
    6c00:	07 fc       	sbrc	r0, 7
    6c02:	03 d0       	rcall	.+6      	; 0x6c0a <__divmodsi4_neg2>
    6c04:	4e f4       	brtc	.+18     	; 0x6c18 <__divmodsi4_exit>
    6c06:	0c 94 0d 36 	jmp	0x6c1a	; 0x6c1a <__negsi2>

00006c0a <__divmodsi4_neg2>:
    6c0a:	50 95       	com	r21
    6c0c:	40 95       	com	r20
    6c0e:	30 95       	com	r19
    6c10:	21 95       	neg	r18
    6c12:	3f 4f       	sbci	r19, 0xFF	; 255
    6c14:	4f 4f       	sbci	r20, 0xFF	; 255
    6c16:	5f 4f       	sbci	r21, 0xFF	; 255

00006c18 <__divmodsi4_exit>:
    6c18:	08 95       	ret

00006c1a <__negsi2>:
    6c1a:	90 95       	com	r25
    6c1c:	80 95       	com	r24
    6c1e:	70 95       	com	r23
    6c20:	61 95       	neg	r22
    6c22:	7f 4f       	sbci	r23, 0xFF	; 255
    6c24:	8f 4f       	sbci	r24, 0xFF	; 255
    6c26:	9f 4f       	sbci	r25, 0xFF	; 255
    6c28:	08 95       	ret

00006c2a <__tablejump2__>:
    6c2a:	ee 0f       	add	r30, r30
    6c2c:	ff 1f       	adc	r31, r31
    6c2e:	00 24       	eor	r0, r0
    6c30:	00 1c       	adc	r0, r0
    6c32:	0b be       	out	0x3b, r0	; 59
    6c34:	07 90       	elpm	r0, Z+
    6c36:	f6 91       	elpm	r31, Z
    6c38:	e0 2d       	mov	r30, r0
    6c3a:	09 94       	ijmp

00006c3c <__umulhisi3>:
    6c3c:	a2 9f       	mul	r26, r18
    6c3e:	b0 01       	movw	r22, r0
    6c40:	b3 9f       	mul	r27, r19
    6c42:	c0 01       	movw	r24, r0
    6c44:	a3 9f       	mul	r26, r19
    6c46:	70 0d       	add	r23, r0
    6c48:	81 1d       	adc	r24, r1
    6c4a:	11 24       	eor	r1, r1
    6c4c:	91 1d       	adc	r25, r1
    6c4e:	b2 9f       	mul	r27, r18
    6c50:	70 0d       	add	r23, r0
    6c52:	81 1d       	adc	r24, r1
    6c54:	11 24       	eor	r1, r1
    6c56:	91 1d       	adc	r25, r1
    6c58:	08 95       	ret

00006c5a <__muluhisi3>:
    6c5a:	0e 94 1e 36 	call	0x6c3c	; 0x6c3c <__umulhisi3>
    6c5e:	a5 9f       	mul	r26, r21
    6c60:	90 0d       	add	r25, r0
    6c62:	b4 9f       	mul	r27, r20
    6c64:	90 0d       	add	r25, r0
    6c66:	a4 9f       	mul	r26, r20
    6c68:	80 0d       	add	r24, r0
    6c6a:	91 1d       	adc	r25, r1
    6c6c:	11 24       	eor	r1, r1
    6c6e:	08 95       	ret

00006c70 <__muldi3>:
    6c70:	df 93       	push	r29
    6c72:	cf 93       	push	r28
    6c74:	1f 93       	push	r17
    6c76:	0f 93       	push	r16
    6c78:	9a 9d       	mul	r25, r10
    6c7a:	f0 2d       	mov	r31, r0
    6c7c:	21 9f       	mul	r18, r17
    6c7e:	f0 0d       	add	r31, r0
    6c80:	8b 9d       	mul	r24, r11
    6c82:	f0 0d       	add	r31, r0
    6c84:	8a 9d       	mul	r24, r10
    6c86:	e0 2d       	mov	r30, r0
    6c88:	f1 0d       	add	r31, r1
    6c8a:	03 9f       	mul	r16, r19
    6c8c:	f0 0d       	add	r31, r0
    6c8e:	02 9f       	mul	r16, r18
    6c90:	e0 0d       	add	r30, r0
    6c92:	f1 1d       	adc	r31, r1
    6c94:	4e 9d       	mul	r20, r14
    6c96:	e0 0d       	add	r30, r0
    6c98:	f1 1d       	adc	r31, r1
    6c9a:	5e 9d       	mul	r21, r14
    6c9c:	f0 0d       	add	r31, r0
    6c9e:	4f 9d       	mul	r20, r15
    6ca0:	f0 0d       	add	r31, r0
    6ca2:	7f 93       	push	r23
    6ca4:	6f 93       	push	r22
    6ca6:	bf 92       	push	r11
    6ca8:	af 92       	push	r10
    6caa:	5f 93       	push	r21
    6cac:	4f 93       	push	r20
    6cae:	d5 01       	movw	r26, r10
    6cb0:	0e 94 1e 36 	call	0x6c3c	; 0x6c3c <__umulhisi3>
    6cb4:	8b 01       	movw	r16, r22
    6cb6:	ac 01       	movw	r20, r24
    6cb8:	d7 01       	movw	r26, r14
    6cba:	0e 94 1e 36 	call	0x6c3c	; 0x6c3c <__umulhisi3>
    6cbe:	eb 01       	movw	r28, r22
    6cc0:	e8 0f       	add	r30, r24
    6cc2:	f9 1f       	adc	r31, r25
    6cc4:	d6 01       	movw	r26, r12
    6cc6:	0e 94 88 36 	call	0x6d10	; 0x6d10 <__muldi3_6>
    6cca:	2f 91       	pop	r18
    6ccc:	3f 91       	pop	r19
    6cce:	d6 01       	movw	r26, r12
    6cd0:	0e 94 1e 36 	call	0x6c3c	; 0x6c3c <__umulhisi3>
    6cd4:	c6 0f       	add	r28, r22
    6cd6:	d7 1f       	adc	r29, r23
    6cd8:	e8 1f       	adc	r30, r24
    6cda:	f9 1f       	adc	r31, r25
    6cdc:	af 91       	pop	r26
    6cde:	bf 91       	pop	r27
    6ce0:	0e 94 88 36 	call	0x6d10	; 0x6d10 <__muldi3_6>
    6ce4:	2f 91       	pop	r18
    6ce6:	3f 91       	pop	r19
    6ce8:	0e 94 1e 36 	call	0x6c3c	; 0x6c3c <__umulhisi3>
    6cec:	c6 0f       	add	r28, r22
    6cee:	d7 1f       	adc	r29, r23
    6cf0:	e8 1f       	adc	r30, r24
    6cf2:	f9 1f       	adc	r31, r25
    6cf4:	d6 01       	movw	r26, r12
    6cf6:	0e 94 1e 36 	call	0x6c3c	; 0x6c3c <__umulhisi3>
    6cfa:	e6 0f       	add	r30, r22
    6cfc:	f7 1f       	adc	r31, r23
    6cfe:	98 01       	movw	r18, r16
    6d00:	be 01       	movw	r22, r28
    6d02:	cf 01       	movw	r24, r30
    6d04:	11 24       	eor	r1, r1
    6d06:	0f 91       	pop	r16
    6d08:	1f 91       	pop	r17
    6d0a:	cf 91       	pop	r28
    6d0c:	df 91       	pop	r29
    6d0e:	08 95       	ret

00006d10 <__muldi3_6>:
    6d10:	0e 94 1e 36 	call	0x6c3c	; 0x6c3c <__umulhisi3>
    6d14:	46 0f       	add	r20, r22
    6d16:	57 1f       	adc	r21, r23
    6d18:	c8 1f       	adc	r28, r24
    6d1a:	d9 1f       	adc	r29, r25
    6d1c:	08 f4       	brcc	.+2      	; 0x6d20 <__muldi3_6+0x10>
    6d1e:	31 96       	adiw	r30, 0x01	; 1
    6d20:	08 95       	ret

00006d22 <__umoddi3>:
    6d22:	68 94       	set
    6d24:	01 c0       	rjmp	.+2      	; 0x6d28 <__udivdi3_umoddi3>

00006d26 <__udivdi3>:
    6d26:	e8 94       	clt

00006d28 <__udivdi3_umoddi3>:
    6d28:	8f 92       	push	r8
    6d2a:	9f 92       	push	r9
    6d2c:	cf 93       	push	r28
    6d2e:	df 93       	push	r29
    6d30:	0e 94 9f 36 	call	0x6d3e	; 0x6d3e <__udivmod64>
    6d34:	df 91       	pop	r29
    6d36:	cf 91       	pop	r28
    6d38:	9f 90       	pop	r9
    6d3a:	8f 90       	pop	r8
    6d3c:	08 95       	ret

00006d3e <__udivmod64>:
    6d3e:	88 24       	eor	r8, r8
    6d40:	99 24       	eor	r9, r9
    6d42:	f4 01       	movw	r30, r8
    6d44:	e4 01       	movw	r28, r8
    6d46:	b0 e4       	ldi	r27, 0x40	; 64
    6d48:	9f 93       	push	r25
    6d4a:	aa 27       	eor	r26, r26
    6d4c:	9a 15       	cp	r25, r10
    6d4e:	8b 04       	cpc	r8, r11
    6d50:	9c 04       	cpc	r9, r12
    6d52:	ed 05       	cpc	r30, r13
    6d54:	fe 05       	cpc	r31, r14
    6d56:	cf 05       	cpc	r28, r15
    6d58:	d0 07       	cpc	r29, r16
    6d5a:	a1 07       	cpc	r26, r17
    6d5c:	98 f4       	brcc	.+38     	; 0x6d84 <__udivmod64+0x46>
    6d5e:	ad 2f       	mov	r26, r29
    6d60:	dc 2f       	mov	r29, r28
    6d62:	cf 2f       	mov	r28, r31
    6d64:	fe 2f       	mov	r31, r30
    6d66:	e9 2d       	mov	r30, r9
    6d68:	98 2c       	mov	r9, r8
    6d6a:	89 2e       	mov	r8, r25
    6d6c:	98 2f       	mov	r25, r24
    6d6e:	87 2f       	mov	r24, r23
    6d70:	76 2f       	mov	r23, r22
    6d72:	65 2f       	mov	r22, r21
    6d74:	54 2f       	mov	r21, r20
    6d76:	43 2f       	mov	r20, r19
    6d78:	32 2f       	mov	r19, r18
    6d7a:	22 27       	eor	r18, r18
    6d7c:	b8 50       	subi	r27, 0x08	; 8
    6d7e:	31 f7       	brne	.-52     	; 0x6d4c <__udivmod64+0xe>
    6d80:	bf 91       	pop	r27
    6d82:	27 c0       	rjmp	.+78     	; 0x6dd2 <__udivmod64+0x94>
    6d84:	1b 2e       	mov	r1, r27
    6d86:	bf 91       	pop	r27
    6d88:	bb 27       	eor	r27, r27
    6d8a:	22 0f       	add	r18, r18
    6d8c:	33 1f       	adc	r19, r19
    6d8e:	44 1f       	adc	r20, r20
    6d90:	55 1f       	adc	r21, r21
    6d92:	66 1f       	adc	r22, r22
    6d94:	77 1f       	adc	r23, r23
    6d96:	88 1f       	adc	r24, r24
    6d98:	99 1f       	adc	r25, r25
    6d9a:	88 1c       	adc	r8, r8
    6d9c:	99 1c       	adc	r9, r9
    6d9e:	ee 1f       	adc	r30, r30
    6da0:	ff 1f       	adc	r31, r31
    6da2:	cc 1f       	adc	r28, r28
    6da4:	dd 1f       	adc	r29, r29
    6da6:	aa 1f       	adc	r26, r26
    6da8:	bb 1f       	adc	r27, r27
    6daa:	8a 14       	cp	r8, r10
    6dac:	9b 04       	cpc	r9, r11
    6dae:	ec 05       	cpc	r30, r12
    6db0:	fd 05       	cpc	r31, r13
    6db2:	ce 05       	cpc	r28, r14
    6db4:	df 05       	cpc	r29, r15
    6db6:	a0 07       	cpc	r26, r16
    6db8:	b1 07       	cpc	r27, r17
    6dba:	48 f0       	brcs	.+18     	; 0x6dce <__udivmod64+0x90>
    6dbc:	8a 18       	sub	r8, r10
    6dbe:	9b 08       	sbc	r9, r11
    6dc0:	ec 09       	sbc	r30, r12
    6dc2:	fd 09       	sbc	r31, r13
    6dc4:	ce 09       	sbc	r28, r14
    6dc6:	df 09       	sbc	r29, r15
    6dc8:	a0 0b       	sbc	r26, r16
    6dca:	b1 0b       	sbc	r27, r17
    6dcc:	21 60       	ori	r18, 0x01	; 1
    6dce:	1a 94       	dec	r1
    6dd0:	e1 f6       	brne	.-72     	; 0x6d8a <__udivmod64+0x4c>
    6dd2:	2e f4       	brtc	.+10     	; 0x6dde <__udivmod64+0xa0>
    6dd4:	94 01       	movw	r18, r8
    6dd6:	af 01       	movw	r20, r30
    6dd8:	be 01       	movw	r22, r28
    6dda:	cd 01       	movw	r24, r26
    6ddc:	00 0c       	add	r0, r0
    6dde:	08 95       	ret

00006de0 <__ashldi3>:
    6de0:	0f 93       	push	r16
    6de2:	08 30       	cpi	r16, 0x08	; 8
    6de4:	90 f0       	brcs	.+36     	; 0x6e0a <__ashldi3+0x2a>
    6de6:	98 2f       	mov	r25, r24
    6de8:	87 2f       	mov	r24, r23
    6dea:	76 2f       	mov	r23, r22
    6dec:	65 2f       	mov	r22, r21
    6dee:	54 2f       	mov	r21, r20
    6df0:	43 2f       	mov	r20, r19
    6df2:	32 2f       	mov	r19, r18
    6df4:	22 27       	eor	r18, r18
    6df6:	08 50       	subi	r16, 0x08	; 8
    6df8:	f4 cf       	rjmp	.-24     	; 0x6de2 <__ashldi3+0x2>
    6dfa:	22 0f       	add	r18, r18
    6dfc:	33 1f       	adc	r19, r19
    6dfe:	44 1f       	adc	r20, r20
    6e00:	55 1f       	adc	r21, r21
    6e02:	66 1f       	adc	r22, r22
    6e04:	77 1f       	adc	r23, r23
    6e06:	88 1f       	adc	r24, r24
    6e08:	99 1f       	adc	r25, r25
    6e0a:	0a 95       	dec	r16
    6e0c:	b2 f7       	brpl	.-20     	; 0x6dfa <__ashldi3+0x1a>
    6e0e:	0f 91       	pop	r16
    6e10:	08 95       	ret

00006e12 <__adddi3>:
    6e12:	2a 0d       	add	r18, r10
    6e14:	3b 1d       	adc	r19, r11
    6e16:	4c 1d       	adc	r20, r12
    6e18:	5d 1d       	adc	r21, r13
    6e1a:	6e 1d       	adc	r22, r14
    6e1c:	7f 1d       	adc	r23, r15
    6e1e:	80 1f       	adc	r24, r16
    6e20:	91 1f       	adc	r25, r17
    6e22:	08 95       	ret

00006e24 <__adddi3_s8>:
    6e24:	00 24       	eor	r0, r0
    6e26:	a7 fd       	sbrc	r26, 7
    6e28:	00 94       	com	r0
    6e2a:	2a 0f       	add	r18, r26
    6e2c:	30 1d       	adc	r19, r0
    6e2e:	40 1d       	adc	r20, r0
    6e30:	50 1d       	adc	r21, r0
    6e32:	60 1d       	adc	r22, r0
    6e34:	70 1d       	adc	r23, r0
    6e36:	80 1d       	adc	r24, r0
    6e38:	90 1d       	adc	r25, r0
    6e3a:	08 95       	ret

00006e3c <__subdi3>:
    6e3c:	2a 19       	sub	r18, r10
    6e3e:	3b 09       	sbc	r19, r11
    6e40:	4c 09       	sbc	r20, r12
    6e42:	5d 09       	sbc	r21, r13
    6e44:	6e 09       	sbc	r22, r14
    6e46:	7f 09       	sbc	r23, r15
    6e48:	80 0b       	sbc	r24, r16
    6e4a:	91 0b       	sbc	r25, r17
    6e4c:	08 95       	ret

00006e4e <__cmpdi2_s8>:
    6e4e:	00 24       	eor	r0, r0
    6e50:	a7 fd       	sbrc	r26, 7
    6e52:	00 94       	com	r0
    6e54:	2a 17       	cp	r18, r26
    6e56:	30 05       	cpc	r19, r0
    6e58:	40 05       	cpc	r20, r0
    6e5a:	50 05       	cpc	r21, r0
    6e5c:	60 05       	cpc	r22, r0
    6e5e:	70 05       	cpc	r23, r0
    6e60:	80 05       	cpc	r24, r0
    6e62:	90 05       	cpc	r25, r0
    6e64:	08 95       	ret

00006e66 <__udivmodhi4>:
    6e66:	aa 1b       	sub	r26, r26
    6e68:	bb 1b       	sub	r27, r27
    6e6a:	51 e1       	ldi	r21, 0x11	; 17
    6e6c:	07 c0       	rjmp	.+14     	; 0x6e7c <__udivmodhi4_ep>

00006e6e <__udivmodhi4_loop>:
    6e6e:	aa 1f       	adc	r26, r26
    6e70:	bb 1f       	adc	r27, r27
    6e72:	a6 17       	cp	r26, r22
    6e74:	b7 07       	cpc	r27, r23
    6e76:	10 f0       	brcs	.+4      	; 0x6e7c <__udivmodhi4_ep>
    6e78:	a6 1b       	sub	r26, r22
    6e7a:	b7 0b       	sbc	r27, r23

00006e7c <__udivmodhi4_ep>:
    6e7c:	88 1f       	adc	r24, r24
    6e7e:	99 1f       	adc	r25, r25
    6e80:	5a 95       	dec	r21
    6e82:	a9 f7       	brne	.-22     	; 0x6e6e <__udivmodhi4_loop>
    6e84:	80 95       	com	r24
    6e86:	90 95       	com	r25
    6e88:	bc 01       	movw	r22, r24
    6e8a:	cd 01       	movw	r24, r26
    6e8c:	08 95       	ret

00006e8e <__ftoa_engine>:
    6e8e:	28 30       	cpi	r18, 0x08	; 8
    6e90:	08 f0       	brcs	.+2      	; 0x6e94 <__ftoa_engine+0x6>
    6e92:	27 e0       	ldi	r18, 0x07	; 7
    6e94:	33 27       	eor	r19, r19
    6e96:	da 01       	movw	r26, r20
    6e98:	99 0f       	add	r25, r25
    6e9a:	31 1d       	adc	r19, r1
    6e9c:	87 fd       	sbrc	r24, 7
    6e9e:	91 60       	ori	r25, 0x01	; 1
    6ea0:	00 96       	adiw	r24, 0x00	; 0
    6ea2:	61 05       	cpc	r22, r1
    6ea4:	71 05       	cpc	r23, r1
    6ea6:	39 f4       	brne	.+14     	; 0x6eb6 <__ftoa_engine+0x28>
    6ea8:	32 60       	ori	r19, 0x02	; 2
    6eaa:	2e 5f       	subi	r18, 0xFE	; 254
    6eac:	3d 93       	st	X+, r19
    6eae:	30 e3       	ldi	r19, 0x30	; 48
    6eb0:	2a 95       	dec	r18
    6eb2:	e1 f7       	brne	.-8      	; 0x6eac <__ftoa_engine+0x1e>
    6eb4:	08 95       	ret
    6eb6:	9f 3f       	cpi	r25, 0xFF	; 255
    6eb8:	30 f0       	brcs	.+12     	; 0x6ec6 <__ftoa_engine+0x38>
    6eba:	80 38       	cpi	r24, 0x80	; 128
    6ebc:	71 05       	cpc	r23, r1
    6ebe:	61 05       	cpc	r22, r1
    6ec0:	09 f0       	breq	.+2      	; 0x6ec4 <__ftoa_engine+0x36>
    6ec2:	3c 5f       	subi	r19, 0xFC	; 252
    6ec4:	3c 5f       	subi	r19, 0xFC	; 252
    6ec6:	3d 93       	st	X+, r19
    6ec8:	91 30       	cpi	r25, 0x01	; 1
    6eca:	08 f0       	brcs	.+2      	; 0x6ece <__ftoa_engine+0x40>
    6ecc:	80 68       	ori	r24, 0x80	; 128
    6ece:	91 1d       	adc	r25, r1
    6ed0:	df 93       	push	r29
    6ed2:	cf 93       	push	r28
    6ed4:	1f 93       	push	r17
    6ed6:	0f 93       	push	r16
    6ed8:	ff 92       	push	r15
    6eda:	ef 92       	push	r14
    6edc:	19 2f       	mov	r17, r25
    6ede:	98 7f       	andi	r25, 0xF8	; 248
    6ee0:	96 95       	lsr	r25
    6ee2:	e9 2f       	mov	r30, r25
    6ee4:	96 95       	lsr	r25
    6ee6:	96 95       	lsr	r25
    6ee8:	e9 0f       	add	r30, r25
    6eea:	ff 27       	eor	r31, r31
    6eec:	e2 57       	subi	r30, 0x72	; 114
    6eee:	f8 4f       	sbci	r31, 0xF8	; 248
    6ef0:	99 27       	eor	r25, r25
    6ef2:	33 27       	eor	r19, r19
    6ef4:	ee 24       	eor	r14, r14
    6ef6:	ff 24       	eor	r15, r15
    6ef8:	a7 01       	movw	r20, r14
    6efa:	e7 01       	movw	r28, r14
    6efc:	05 90       	lpm	r0, Z+
    6efe:	08 94       	sec
    6f00:	07 94       	ror	r0
    6f02:	28 f4       	brcc	.+10     	; 0x6f0e <__ftoa_engine+0x80>
    6f04:	36 0f       	add	r19, r22
    6f06:	e7 1e       	adc	r14, r23
    6f08:	f8 1e       	adc	r15, r24
    6f0a:	49 1f       	adc	r20, r25
    6f0c:	51 1d       	adc	r21, r1
    6f0e:	66 0f       	add	r22, r22
    6f10:	77 1f       	adc	r23, r23
    6f12:	88 1f       	adc	r24, r24
    6f14:	99 1f       	adc	r25, r25
    6f16:	06 94       	lsr	r0
    6f18:	a1 f7       	brne	.-24     	; 0x6f02 <__ftoa_engine+0x74>
    6f1a:	05 90       	lpm	r0, Z+
    6f1c:	07 94       	ror	r0
    6f1e:	28 f4       	brcc	.+10     	; 0x6f2a <__ftoa_engine+0x9c>
    6f20:	e7 0e       	add	r14, r23
    6f22:	f8 1e       	adc	r15, r24
    6f24:	49 1f       	adc	r20, r25
    6f26:	56 1f       	adc	r21, r22
    6f28:	c1 1d       	adc	r28, r1
    6f2a:	77 0f       	add	r23, r23
    6f2c:	88 1f       	adc	r24, r24
    6f2e:	99 1f       	adc	r25, r25
    6f30:	66 1f       	adc	r22, r22
    6f32:	06 94       	lsr	r0
    6f34:	a1 f7       	brne	.-24     	; 0x6f1e <__ftoa_engine+0x90>
    6f36:	05 90       	lpm	r0, Z+
    6f38:	07 94       	ror	r0
    6f3a:	28 f4       	brcc	.+10     	; 0x6f46 <__ftoa_engine+0xb8>
    6f3c:	f8 0e       	add	r15, r24
    6f3e:	49 1f       	adc	r20, r25
    6f40:	56 1f       	adc	r21, r22
    6f42:	c7 1f       	adc	r28, r23
    6f44:	d1 1d       	adc	r29, r1
    6f46:	88 0f       	add	r24, r24
    6f48:	99 1f       	adc	r25, r25
    6f4a:	66 1f       	adc	r22, r22
    6f4c:	77 1f       	adc	r23, r23
    6f4e:	06 94       	lsr	r0
    6f50:	a1 f7       	brne	.-24     	; 0x6f3a <__ftoa_engine+0xac>
    6f52:	05 90       	lpm	r0, Z+
    6f54:	07 94       	ror	r0
    6f56:	20 f4       	brcc	.+8      	; 0x6f60 <__ftoa_engine+0xd2>
    6f58:	49 0f       	add	r20, r25
    6f5a:	56 1f       	adc	r21, r22
    6f5c:	c7 1f       	adc	r28, r23
    6f5e:	d8 1f       	adc	r29, r24
    6f60:	99 0f       	add	r25, r25
    6f62:	66 1f       	adc	r22, r22
    6f64:	77 1f       	adc	r23, r23
    6f66:	88 1f       	adc	r24, r24
    6f68:	06 94       	lsr	r0
    6f6a:	a9 f7       	brne	.-22     	; 0x6f56 <__ftoa_engine+0xc8>
    6f6c:	84 91       	lpm	r24, Z
    6f6e:	10 95       	com	r17
    6f70:	17 70       	andi	r17, 0x07	; 7
    6f72:	41 f0       	breq	.+16     	; 0x6f84 <__ftoa_engine+0xf6>
    6f74:	d6 95       	lsr	r29
    6f76:	c7 95       	ror	r28
    6f78:	57 95       	ror	r21
    6f7a:	47 95       	ror	r20
    6f7c:	f7 94       	ror	r15
    6f7e:	e7 94       	ror	r14
    6f80:	1a 95       	dec	r17
    6f82:	c1 f7       	brne	.-16     	; 0x6f74 <__ftoa_engine+0xe6>
    6f84:	e4 e3       	ldi	r30, 0x34	; 52
    6f86:	f7 e0       	ldi	r31, 0x07	; 7
    6f88:	68 94       	set
    6f8a:	15 90       	lpm	r1, Z+
    6f8c:	15 91       	lpm	r17, Z+
    6f8e:	35 91       	lpm	r19, Z+
    6f90:	65 91       	lpm	r22, Z+
    6f92:	95 91       	lpm	r25, Z+
    6f94:	05 90       	lpm	r0, Z+
    6f96:	7f e2       	ldi	r23, 0x2F	; 47
    6f98:	73 95       	inc	r23
    6f9a:	e1 18       	sub	r14, r1
    6f9c:	f1 0a       	sbc	r15, r17
    6f9e:	43 0b       	sbc	r20, r19
    6fa0:	56 0b       	sbc	r21, r22
    6fa2:	c9 0b       	sbc	r28, r25
    6fa4:	d0 09       	sbc	r29, r0
    6fa6:	c0 f7       	brcc	.-16     	; 0x6f98 <__ftoa_engine+0x10a>
    6fa8:	e1 0c       	add	r14, r1
    6faa:	f1 1e       	adc	r15, r17
    6fac:	43 1f       	adc	r20, r19
    6fae:	56 1f       	adc	r21, r22
    6fb0:	c9 1f       	adc	r28, r25
    6fb2:	d0 1d       	adc	r29, r0
    6fb4:	7e f4       	brtc	.+30     	; 0x6fd4 <__ftoa_engine+0x146>
    6fb6:	70 33       	cpi	r23, 0x30	; 48
    6fb8:	11 f4       	brne	.+4      	; 0x6fbe <__ftoa_engine+0x130>
    6fba:	8a 95       	dec	r24
    6fbc:	e6 cf       	rjmp	.-52     	; 0x6f8a <__ftoa_engine+0xfc>
    6fbe:	e8 94       	clt
    6fc0:	01 50       	subi	r16, 0x01	; 1
    6fc2:	30 f0       	brcs	.+12     	; 0x6fd0 <__ftoa_engine+0x142>
    6fc4:	08 0f       	add	r16, r24
    6fc6:	0a f4       	brpl	.+2      	; 0x6fca <__ftoa_engine+0x13c>
    6fc8:	00 27       	eor	r16, r16
    6fca:	02 17       	cp	r16, r18
    6fcc:	08 f4       	brcc	.+2      	; 0x6fd0 <__ftoa_engine+0x142>
    6fce:	20 2f       	mov	r18, r16
    6fd0:	23 95       	inc	r18
    6fd2:	02 2f       	mov	r16, r18
    6fd4:	7a 33       	cpi	r23, 0x3A	; 58
    6fd6:	28 f0       	brcs	.+10     	; 0x6fe2 <__ftoa_engine+0x154>
    6fd8:	79 e3       	ldi	r23, 0x39	; 57
    6fda:	7d 93       	st	X+, r23
    6fdc:	2a 95       	dec	r18
    6fde:	e9 f7       	brne	.-6      	; 0x6fda <__ftoa_engine+0x14c>
    6fe0:	10 c0       	rjmp	.+32     	; 0x7002 <__ftoa_engine+0x174>
    6fe2:	7d 93       	st	X+, r23
    6fe4:	2a 95       	dec	r18
    6fe6:	89 f6       	brne	.-94     	; 0x6f8a <__ftoa_engine+0xfc>
    6fe8:	06 94       	lsr	r0
    6fea:	97 95       	ror	r25
    6fec:	67 95       	ror	r22
    6fee:	37 95       	ror	r19
    6ff0:	17 95       	ror	r17
    6ff2:	17 94       	ror	r1
    6ff4:	e1 18       	sub	r14, r1
    6ff6:	f1 0a       	sbc	r15, r17
    6ff8:	43 0b       	sbc	r20, r19
    6ffa:	56 0b       	sbc	r21, r22
    6ffc:	c9 0b       	sbc	r28, r25
    6ffe:	d0 09       	sbc	r29, r0
    7000:	98 f0       	brcs	.+38     	; 0x7028 <__ftoa_engine+0x19a>
    7002:	23 95       	inc	r18
    7004:	7e 91       	ld	r23, -X
    7006:	73 95       	inc	r23
    7008:	7a 33       	cpi	r23, 0x3A	; 58
    700a:	08 f0       	brcs	.+2      	; 0x700e <__ftoa_engine+0x180>
    700c:	70 e3       	ldi	r23, 0x30	; 48
    700e:	7c 93       	st	X, r23
    7010:	20 13       	cpse	r18, r16
    7012:	b8 f7       	brcc	.-18     	; 0x7002 <__ftoa_engine+0x174>
    7014:	7e 91       	ld	r23, -X
    7016:	70 61       	ori	r23, 0x10	; 16
    7018:	7d 93       	st	X+, r23
    701a:	30 f0       	brcs	.+12     	; 0x7028 <__ftoa_engine+0x19a>
    701c:	83 95       	inc	r24
    701e:	71 e3       	ldi	r23, 0x31	; 49
    7020:	7d 93       	st	X+, r23
    7022:	70 e3       	ldi	r23, 0x30	; 48
    7024:	2a 95       	dec	r18
    7026:	e1 f7       	brne	.-8      	; 0x7020 <__ftoa_engine+0x192>
    7028:	11 24       	eor	r1, r1
    702a:	ef 90       	pop	r14
    702c:	ff 90       	pop	r15
    702e:	0f 91       	pop	r16
    7030:	1f 91       	pop	r17
    7032:	cf 91       	pop	r28
    7034:	df 91       	pop	r29
    7036:	99 27       	eor	r25, r25
    7038:	87 fd       	sbrc	r24, 7
    703a:	90 95       	com	r25
    703c:	08 95       	ret

0000703e <strnlen_P>:
    703e:	fc 01       	movw	r30, r24
    7040:	05 90       	lpm	r0, Z+
    7042:	61 50       	subi	r22, 0x01	; 1
    7044:	70 40       	sbci	r23, 0x00	; 0
    7046:	01 10       	cpse	r0, r1
    7048:	d8 f7       	brcc	.-10     	; 0x7040 <strnlen_P+0x2>
    704a:	80 95       	com	r24
    704c:	90 95       	com	r25
    704e:	8e 0f       	add	r24, r30
    7050:	9f 1f       	adc	r25, r31
    7052:	08 95       	ret

00007054 <strnlen>:
    7054:	fc 01       	movw	r30, r24
    7056:	61 50       	subi	r22, 0x01	; 1
    7058:	70 40       	sbci	r23, 0x00	; 0
    705a:	01 90       	ld	r0, Z+
    705c:	01 10       	cpse	r0, r1
    705e:	d8 f7       	brcc	.-10     	; 0x7056 <strnlen+0x2>
    7060:	80 95       	com	r24
    7062:	90 95       	com	r25
    7064:	8e 0f       	add	r24, r30
    7066:	9f 1f       	adc	r25, r31
    7068:	08 95       	ret

0000706a <fdevopen>:
    706a:	0f 93       	push	r16
    706c:	1f 93       	push	r17
    706e:	cf 93       	push	r28
    7070:	df 93       	push	r29
    7072:	00 97       	sbiw	r24, 0x00	; 0
    7074:	31 f4       	brne	.+12     	; 0x7082 <fdevopen+0x18>
    7076:	61 15       	cp	r22, r1
    7078:	71 05       	cpc	r23, r1
    707a:	19 f4       	brne	.+6      	; 0x7082 <fdevopen+0x18>
    707c:	80 e0       	ldi	r24, 0x00	; 0
    707e:	90 e0       	ldi	r25, 0x00	; 0
    7080:	3a c0       	rjmp	.+116    	; 0x70f6 <fdevopen+0x8c>
    7082:	8b 01       	movw	r16, r22
    7084:	ec 01       	movw	r28, r24
    7086:	6e e0       	ldi	r22, 0x0E	; 14
    7088:	70 e0       	ldi	r23, 0x00	; 0
    708a:	81 e0       	ldi	r24, 0x01	; 1
    708c:	90 e0       	ldi	r25, 0x00	; 0
    708e:	0e 94 5e 39 	call	0x72bc	; 0x72bc <calloc>
    7092:	fc 01       	movw	r30, r24
    7094:	89 2b       	or	r24, r25
    7096:	91 f3       	breq	.-28     	; 0x707c <fdevopen+0x12>
    7098:	80 e8       	ldi	r24, 0x80	; 128
    709a:	83 83       	std	Z+3, r24	; 0x03
    709c:	01 15       	cp	r16, r1
    709e:	11 05       	cpc	r17, r1
    70a0:	71 f0       	breq	.+28     	; 0x70be <fdevopen+0x54>
    70a2:	02 87       	std	Z+10, r16	; 0x0a
    70a4:	13 87       	std	Z+11, r17	; 0x0b
    70a6:	81 e8       	ldi	r24, 0x81	; 129
    70a8:	83 83       	std	Z+3, r24	; 0x03
    70aa:	80 91 14 4c 	lds	r24, 0x4C14	; 0x804c14 <__iob>
    70ae:	90 91 15 4c 	lds	r25, 0x4C15	; 0x804c15 <__iob+0x1>
    70b2:	89 2b       	or	r24, r25
    70b4:	21 f4       	brne	.+8      	; 0x70be <fdevopen+0x54>
    70b6:	e0 93 14 4c 	sts	0x4C14, r30	; 0x804c14 <__iob>
    70ba:	f0 93 15 4c 	sts	0x4C15, r31	; 0x804c15 <__iob+0x1>
    70be:	20 97       	sbiw	r28, 0x00	; 0
    70c0:	c9 f0       	breq	.+50     	; 0x70f4 <fdevopen+0x8a>
    70c2:	c0 87       	std	Z+8, r28	; 0x08
    70c4:	d1 87       	std	Z+9, r29	; 0x09
    70c6:	83 81       	ldd	r24, Z+3	; 0x03
    70c8:	82 60       	ori	r24, 0x02	; 2
    70ca:	83 83       	std	Z+3, r24	; 0x03
    70cc:	80 91 16 4c 	lds	r24, 0x4C16	; 0x804c16 <__iob+0x2>
    70d0:	90 91 17 4c 	lds	r25, 0x4C17	; 0x804c17 <__iob+0x3>
    70d4:	89 2b       	or	r24, r25
    70d6:	71 f4       	brne	.+28     	; 0x70f4 <fdevopen+0x8a>
    70d8:	e0 93 16 4c 	sts	0x4C16, r30	; 0x804c16 <__iob+0x2>
    70dc:	f0 93 17 4c 	sts	0x4C17, r31	; 0x804c17 <__iob+0x3>
    70e0:	80 91 18 4c 	lds	r24, 0x4C18	; 0x804c18 <__iob+0x4>
    70e4:	90 91 19 4c 	lds	r25, 0x4C19	; 0x804c19 <__iob+0x5>
    70e8:	89 2b       	or	r24, r25
    70ea:	21 f4       	brne	.+8      	; 0x70f4 <fdevopen+0x8a>
    70ec:	e0 93 18 4c 	sts	0x4C18, r30	; 0x804c18 <__iob+0x4>
    70f0:	f0 93 19 4c 	sts	0x4C19, r31	; 0x804c19 <__iob+0x5>
    70f4:	cf 01       	movw	r24, r30
    70f6:	df 91       	pop	r29
    70f8:	cf 91       	pop	r28
    70fa:	1f 91       	pop	r17
    70fc:	0f 91       	pop	r16
    70fe:	08 95       	ret

00007100 <fputc>:
    7100:	0f 93       	push	r16
    7102:	1f 93       	push	r17
    7104:	cf 93       	push	r28
    7106:	df 93       	push	r29
    7108:	fb 01       	movw	r30, r22
    710a:	23 81       	ldd	r18, Z+3	; 0x03
    710c:	21 fd       	sbrc	r18, 1
    710e:	03 c0       	rjmp	.+6      	; 0x7116 <fputc+0x16>
    7110:	8f ef       	ldi	r24, 0xFF	; 255
    7112:	9f ef       	ldi	r25, 0xFF	; 255
    7114:	2c c0       	rjmp	.+88     	; 0x716e <fputc+0x6e>
    7116:	22 ff       	sbrs	r18, 2
    7118:	16 c0       	rjmp	.+44     	; 0x7146 <fputc+0x46>
    711a:	46 81       	ldd	r20, Z+6	; 0x06
    711c:	57 81       	ldd	r21, Z+7	; 0x07
    711e:	24 81       	ldd	r18, Z+4	; 0x04
    7120:	35 81       	ldd	r19, Z+5	; 0x05
    7122:	42 17       	cp	r20, r18
    7124:	53 07       	cpc	r21, r19
    7126:	44 f4       	brge	.+16     	; 0x7138 <fputc+0x38>
    7128:	a0 81       	ld	r26, Z
    712a:	b1 81       	ldd	r27, Z+1	; 0x01
    712c:	9d 01       	movw	r18, r26
    712e:	2f 5f       	subi	r18, 0xFF	; 255
    7130:	3f 4f       	sbci	r19, 0xFF	; 255
    7132:	20 83       	st	Z, r18
    7134:	31 83       	std	Z+1, r19	; 0x01
    7136:	8c 93       	st	X, r24
    7138:	26 81       	ldd	r18, Z+6	; 0x06
    713a:	37 81       	ldd	r19, Z+7	; 0x07
    713c:	2f 5f       	subi	r18, 0xFF	; 255
    713e:	3f 4f       	sbci	r19, 0xFF	; 255
    7140:	26 83       	std	Z+6, r18	; 0x06
    7142:	37 83       	std	Z+7, r19	; 0x07
    7144:	14 c0       	rjmp	.+40     	; 0x716e <fputc+0x6e>
    7146:	8b 01       	movw	r16, r22
    7148:	ec 01       	movw	r28, r24
    714a:	fb 01       	movw	r30, r22
    714c:	00 84       	ldd	r0, Z+8	; 0x08
    714e:	f1 85       	ldd	r31, Z+9	; 0x09
    7150:	e0 2d       	mov	r30, r0
    7152:	09 95       	icall
    7154:	89 2b       	or	r24, r25
    7156:	e1 f6       	brne	.-72     	; 0x7110 <fputc+0x10>
    7158:	d8 01       	movw	r26, r16
    715a:	16 96       	adiw	r26, 0x06	; 6
    715c:	8d 91       	ld	r24, X+
    715e:	9c 91       	ld	r25, X
    7160:	17 97       	sbiw	r26, 0x07	; 7
    7162:	01 96       	adiw	r24, 0x01	; 1
    7164:	16 96       	adiw	r26, 0x06	; 6
    7166:	8d 93       	st	X+, r24
    7168:	9c 93       	st	X, r25
    716a:	17 97       	sbiw	r26, 0x07	; 7
    716c:	ce 01       	movw	r24, r28
    716e:	df 91       	pop	r29
    7170:	cf 91       	pop	r28
    7172:	1f 91       	pop	r17
    7174:	0f 91       	pop	r16
    7176:	08 95       	ret

00007178 <printf>:
    7178:	cf 93       	push	r28
    717a:	df 93       	push	r29
    717c:	cd b7       	in	r28, 0x3d	; 61
    717e:	de b7       	in	r29, 0x3e	; 62
    7180:	ae 01       	movw	r20, r28
    7182:	4b 5f       	subi	r20, 0xFB	; 251
    7184:	5f 4f       	sbci	r21, 0xFF	; 255
    7186:	fa 01       	movw	r30, r20
    7188:	61 91       	ld	r22, Z+
    718a:	71 91       	ld	r23, Z+
    718c:	af 01       	movw	r20, r30
    718e:	80 91 16 4c 	lds	r24, 0x4C16	; 0x804c16 <__iob+0x2>
    7192:	90 91 17 4c 	lds	r25, 0x4C17	; 0x804c17 <__iob+0x3>
    7196:	0e 94 20 32 	call	0x6440	; 0x6440 <vfprintf>
    719a:	df 91       	pop	r29
    719c:	cf 91       	pop	r28
    719e:	08 95       	ret

000071a0 <puts>:
    71a0:	0f 93       	push	r16
    71a2:	1f 93       	push	r17
    71a4:	cf 93       	push	r28
    71a6:	df 93       	push	r29
    71a8:	e0 91 16 4c 	lds	r30, 0x4C16	; 0x804c16 <__iob+0x2>
    71ac:	f0 91 17 4c 	lds	r31, 0x4C17	; 0x804c17 <__iob+0x3>
    71b0:	23 81       	ldd	r18, Z+3	; 0x03
    71b2:	21 ff       	sbrs	r18, 1
    71b4:	1b c0       	rjmp	.+54     	; 0x71ec <puts+0x4c>
    71b6:	8c 01       	movw	r16, r24
    71b8:	d0 e0       	ldi	r29, 0x00	; 0
    71ba:	c0 e0       	ldi	r28, 0x00	; 0
    71bc:	f8 01       	movw	r30, r16
    71be:	81 91       	ld	r24, Z+
    71c0:	8f 01       	movw	r16, r30
    71c2:	60 91 16 4c 	lds	r22, 0x4C16	; 0x804c16 <__iob+0x2>
    71c6:	70 91 17 4c 	lds	r23, 0x4C17	; 0x804c17 <__iob+0x3>
    71ca:	db 01       	movw	r26, r22
    71cc:	18 96       	adiw	r26, 0x08	; 8
    71ce:	ed 91       	ld	r30, X+
    71d0:	fc 91       	ld	r31, X
    71d2:	19 97       	sbiw	r26, 0x09	; 9
    71d4:	88 23       	and	r24, r24
    71d6:	31 f0       	breq	.+12     	; 0x71e4 <puts+0x44>
    71d8:	09 95       	icall
    71da:	89 2b       	or	r24, r25
    71dc:	79 f3       	breq	.-34     	; 0x71bc <puts+0x1c>
    71de:	df ef       	ldi	r29, 0xFF	; 255
    71e0:	cf ef       	ldi	r28, 0xFF	; 255
    71e2:	ec cf       	rjmp	.-40     	; 0x71bc <puts+0x1c>
    71e4:	8a e0       	ldi	r24, 0x0A	; 10
    71e6:	09 95       	icall
    71e8:	89 2b       	or	r24, r25
    71ea:	19 f0       	breq	.+6      	; 0x71f2 <puts+0x52>
    71ec:	8f ef       	ldi	r24, 0xFF	; 255
    71ee:	9f ef       	ldi	r25, 0xFF	; 255
    71f0:	02 c0       	rjmp	.+4      	; 0x71f6 <puts+0x56>
    71f2:	8d 2f       	mov	r24, r29
    71f4:	9c 2f       	mov	r25, r28
    71f6:	df 91       	pop	r29
    71f8:	cf 91       	pop	r28
    71fa:	1f 91       	pop	r17
    71fc:	0f 91       	pop	r16
    71fe:	08 95       	ret

00007200 <__ultoa_invert>:
    7200:	fa 01       	movw	r30, r20
    7202:	aa 27       	eor	r26, r26
    7204:	28 30       	cpi	r18, 0x08	; 8
    7206:	51 f1       	breq	.+84     	; 0x725c <__ultoa_invert+0x5c>
    7208:	20 31       	cpi	r18, 0x10	; 16
    720a:	81 f1       	breq	.+96     	; 0x726c <__ultoa_invert+0x6c>
    720c:	e8 94       	clt
    720e:	6f 93       	push	r22
    7210:	6e 7f       	andi	r22, 0xFE	; 254
    7212:	6e 5f       	subi	r22, 0xFE	; 254
    7214:	7f 4f       	sbci	r23, 0xFF	; 255
    7216:	8f 4f       	sbci	r24, 0xFF	; 255
    7218:	9f 4f       	sbci	r25, 0xFF	; 255
    721a:	af 4f       	sbci	r26, 0xFF	; 255
    721c:	b1 e0       	ldi	r27, 0x01	; 1
    721e:	3e d0       	rcall	.+124    	; 0x729c <__ultoa_invert+0x9c>
    7220:	b4 e0       	ldi	r27, 0x04	; 4
    7222:	3c d0       	rcall	.+120    	; 0x729c <__ultoa_invert+0x9c>
    7224:	67 0f       	add	r22, r23
    7226:	78 1f       	adc	r23, r24
    7228:	89 1f       	adc	r24, r25
    722a:	9a 1f       	adc	r25, r26
    722c:	a1 1d       	adc	r26, r1
    722e:	68 0f       	add	r22, r24
    7230:	79 1f       	adc	r23, r25
    7232:	8a 1f       	adc	r24, r26
    7234:	91 1d       	adc	r25, r1
    7236:	a1 1d       	adc	r26, r1
    7238:	6a 0f       	add	r22, r26
    723a:	71 1d       	adc	r23, r1
    723c:	81 1d       	adc	r24, r1
    723e:	91 1d       	adc	r25, r1
    7240:	a1 1d       	adc	r26, r1
    7242:	20 d0       	rcall	.+64     	; 0x7284 <__ultoa_invert+0x84>
    7244:	09 f4       	brne	.+2      	; 0x7248 <__ultoa_invert+0x48>
    7246:	68 94       	set
    7248:	3f 91       	pop	r19
    724a:	2a e0       	ldi	r18, 0x0A	; 10
    724c:	26 9f       	mul	r18, r22
    724e:	11 24       	eor	r1, r1
    7250:	30 19       	sub	r19, r0
    7252:	30 5d       	subi	r19, 0xD0	; 208
    7254:	31 93       	st	Z+, r19
    7256:	de f6       	brtc	.-74     	; 0x720e <__ultoa_invert+0xe>
    7258:	cf 01       	movw	r24, r30
    725a:	08 95       	ret
    725c:	46 2f       	mov	r20, r22
    725e:	47 70       	andi	r20, 0x07	; 7
    7260:	40 5d       	subi	r20, 0xD0	; 208
    7262:	41 93       	st	Z+, r20
    7264:	b3 e0       	ldi	r27, 0x03	; 3
    7266:	0f d0       	rcall	.+30     	; 0x7286 <__ultoa_invert+0x86>
    7268:	c9 f7       	brne	.-14     	; 0x725c <__ultoa_invert+0x5c>
    726a:	f6 cf       	rjmp	.-20     	; 0x7258 <__ultoa_invert+0x58>
    726c:	46 2f       	mov	r20, r22
    726e:	4f 70       	andi	r20, 0x0F	; 15
    7270:	40 5d       	subi	r20, 0xD0	; 208
    7272:	4a 33       	cpi	r20, 0x3A	; 58
    7274:	18 f0       	brcs	.+6      	; 0x727c <__ultoa_invert+0x7c>
    7276:	49 5d       	subi	r20, 0xD9	; 217
    7278:	31 fd       	sbrc	r19, 1
    727a:	40 52       	subi	r20, 0x20	; 32
    727c:	41 93       	st	Z+, r20
    727e:	02 d0       	rcall	.+4      	; 0x7284 <__ultoa_invert+0x84>
    7280:	a9 f7       	brne	.-22     	; 0x726c <__ultoa_invert+0x6c>
    7282:	ea cf       	rjmp	.-44     	; 0x7258 <__ultoa_invert+0x58>
    7284:	b4 e0       	ldi	r27, 0x04	; 4
    7286:	a6 95       	lsr	r26
    7288:	97 95       	ror	r25
    728a:	87 95       	ror	r24
    728c:	77 95       	ror	r23
    728e:	67 95       	ror	r22
    7290:	ba 95       	dec	r27
    7292:	c9 f7       	brne	.-14     	; 0x7286 <__ultoa_invert+0x86>
    7294:	00 97       	sbiw	r24, 0x00	; 0
    7296:	61 05       	cpc	r22, r1
    7298:	71 05       	cpc	r23, r1
    729a:	08 95       	ret
    729c:	9b 01       	movw	r18, r22
    729e:	ac 01       	movw	r20, r24
    72a0:	0a 2e       	mov	r0, r26
    72a2:	06 94       	lsr	r0
    72a4:	57 95       	ror	r21
    72a6:	47 95       	ror	r20
    72a8:	37 95       	ror	r19
    72aa:	27 95       	ror	r18
    72ac:	ba 95       	dec	r27
    72ae:	c9 f7       	brne	.-14     	; 0x72a2 <__ultoa_invert+0xa2>
    72b0:	62 0f       	add	r22, r18
    72b2:	73 1f       	adc	r23, r19
    72b4:	84 1f       	adc	r24, r20
    72b6:	95 1f       	adc	r25, r21
    72b8:	a0 1d       	adc	r26, r0
    72ba:	08 95       	ret

000072bc <calloc>:
    72bc:	0f 93       	push	r16
    72be:	1f 93       	push	r17
    72c0:	cf 93       	push	r28
    72c2:	df 93       	push	r29
    72c4:	86 9f       	mul	r24, r22
    72c6:	80 01       	movw	r16, r0
    72c8:	87 9f       	mul	r24, r23
    72ca:	10 0d       	add	r17, r0
    72cc:	96 9f       	mul	r25, r22
    72ce:	10 0d       	add	r17, r0
    72d0:	11 24       	eor	r1, r1
    72d2:	c8 01       	movw	r24, r16
    72d4:	0e 94 7a 39 	call	0x72f4	; 0x72f4 <malloc>
    72d8:	ec 01       	movw	r28, r24
    72da:	00 97       	sbiw	r24, 0x00	; 0
    72dc:	29 f0       	breq	.+10     	; 0x72e8 <calloc+0x2c>
    72de:	a8 01       	movw	r20, r16
    72e0:	60 e0       	ldi	r22, 0x00	; 0
    72e2:	70 e0       	ldi	r23, 0x00	; 0
    72e4:	0e 94 9b 3a 	call	0x7536	; 0x7536 <memset>
    72e8:	ce 01       	movw	r24, r28
    72ea:	df 91       	pop	r29
    72ec:	cf 91       	pop	r28
    72ee:	1f 91       	pop	r17
    72f0:	0f 91       	pop	r16
    72f2:	08 95       	ret

000072f4 <malloc>:
    72f4:	0f 93       	push	r16
    72f6:	1f 93       	push	r17
    72f8:	cf 93       	push	r28
    72fa:	df 93       	push	r29
    72fc:	82 30       	cpi	r24, 0x02	; 2
    72fe:	91 05       	cpc	r25, r1
    7300:	10 f4       	brcc	.+4      	; 0x7306 <malloc+0x12>
    7302:	82 e0       	ldi	r24, 0x02	; 2
    7304:	90 e0       	ldi	r25, 0x00	; 0
    7306:	e0 91 1c 4c 	lds	r30, 0x4C1C	; 0x804c1c <__flp>
    730a:	f0 91 1d 4c 	lds	r31, 0x4C1D	; 0x804c1d <__flp+0x1>
    730e:	20 e0       	ldi	r18, 0x00	; 0
    7310:	30 e0       	ldi	r19, 0x00	; 0
    7312:	a0 e0       	ldi	r26, 0x00	; 0
    7314:	b0 e0       	ldi	r27, 0x00	; 0
    7316:	30 97       	sbiw	r30, 0x00	; 0
    7318:	19 f1       	breq	.+70     	; 0x7360 <malloc+0x6c>
    731a:	40 81       	ld	r20, Z
    731c:	51 81       	ldd	r21, Z+1	; 0x01
    731e:	02 81       	ldd	r16, Z+2	; 0x02
    7320:	13 81       	ldd	r17, Z+3	; 0x03
    7322:	48 17       	cp	r20, r24
    7324:	59 07       	cpc	r21, r25
    7326:	c8 f0       	brcs	.+50     	; 0x735a <malloc+0x66>
    7328:	84 17       	cp	r24, r20
    732a:	95 07       	cpc	r25, r21
    732c:	69 f4       	brne	.+26     	; 0x7348 <malloc+0x54>
    732e:	10 97       	sbiw	r26, 0x00	; 0
    7330:	31 f0       	breq	.+12     	; 0x733e <malloc+0x4a>
    7332:	12 96       	adiw	r26, 0x02	; 2
    7334:	0c 93       	st	X, r16
    7336:	12 97       	sbiw	r26, 0x02	; 2
    7338:	13 96       	adiw	r26, 0x03	; 3
    733a:	1c 93       	st	X, r17
    733c:	27 c0       	rjmp	.+78     	; 0x738c <malloc+0x98>
    733e:	00 93 1c 4c 	sts	0x4C1C, r16	; 0x804c1c <__flp>
    7342:	10 93 1d 4c 	sts	0x4C1D, r17	; 0x804c1d <__flp+0x1>
    7346:	22 c0       	rjmp	.+68     	; 0x738c <malloc+0x98>
    7348:	21 15       	cp	r18, r1
    734a:	31 05       	cpc	r19, r1
    734c:	19 f0       	breq	.+6      	; 0x7354 <malloc+0x60>
    734e:	42 17       	cp	r20, r18
    7350:	53 07       	cpc	r21, r19
    7352:	18 f4       	brcc	.+6      	; 0x735a <malloc+0x66>
    7354:	9a 01       	movw	r18, r20
    7356:	bd 01       	movw	r22, r26
    7358:	ef 01       	movw	r28, r30
    735a:	df 01       	movw	r26, r30
    735c:	f8 01       	movw	r30, r16
    735e:	db cf       	rjmp	.-74     	; 0x7316 <malloc+0x22>
    7360:	21 15       	cp	r18, r1
    7362:	31 05       	cpc	r19, r1
    7364:	f9 f0       	breq	.+62     	; 0x73a4 <malloc+0xb0>
    7366:	28 1b       	sub	r18, r24
    7368:	39 0b       	sbc	r19, r25
    736a:	24 30       	cpi	r18, 0x04	; 4
    736c:	31 05       	cpc	r19, r1
    736e:	80 f4       	brcc	.+32     	; 0x7390 <malloc+0x9c>
    7370:	8a 81       	ldd	r24, Y+2	; 0x02
    7372:	9b 81       	ldd	r25, Y+3	; 0x03
    7374:	61 15       	cp	r22, r1
    7376:	71 05       	cpc	r23, r1
    7378:	21 f0       	breq	.+8      	; 0x7382 <malloc+0x8e>
    737a:	fb 01       	movw	r30, r22
    737c:	82 83       	std	Z+2, r24	; 0x02
    737e:	93 83       	std	Z+3, r25	; 0x03
    7380:	04 c0       	rjmp	.+8      	; 0x738a <malloc+0x96>
    7382:	80 93 1c 4c 	sts	0x4C1C, r24	; 0x804c1c <__flp>
    7386:	90 93 1d 4c 	sts	0x4C1D, r25	; 0x804c1d <__flp+0x1>
    738a:	fe 01       	movw	r30, r28
    738c:	32 96       	adiw	r30, 0x02	; 2
    738e:	44 c0       	rjmp	.+136    	; 0x7418 <malloc+0x124>
    7390:	fe 01       	movw	r30, r28
    7392:	e2 0f       	add	r30, r18
    7394:	f3 1f       	adc	r31, r19
    7396:	81 93       	st	Z+, r24
    7398:	91 93       	st	Z+, r25
    739a:	22 50       	subi	r18, 0x02	; 2
    739c:	31 09       	sbc	r19, r1
    739e:	28 83       	st	Y, r18
    73a0:	39 83       	std	Y+1, r19	; 0x01
    73a2:	3a c0       	rjmp	.+116    	; 0x7418 <malloc+0x124>
    73a4:	20 91 1a 4c 	lds	r18, 0x4C1A	; 0x804c1a <__brkval>
    73a8:	30 91 1b 4c 	lds	r19, 0x4C1B	; 0x804c1b <__brkval+0x1>
    73ac:	23 2b       	or	r18, r19
    73ae:	41 f4       	brne	.+16     	; 0x73c0 <malloc+0xcc>
    73b0:	20 91 02 40 	lds	r18, 0x4002	; 0x804002 <__malloc_heap_start>
    73b4:	30 91 03 40 	lds	r19, 0x4003	; 0x804003 <__malloc_heap_start+0x1>
    73b8:	20 93 1a 4c 	sts	0x4C1A, r18	; 0x804c1a <__brkval>
    73bc:	30 93 1b 4c 	sts	0x4C1B, r19	; 0x804c1b <__brkval+0x1>
    73c0:	20 91 00 40 	lds	r18, 0x4000	; 0x804000 <__DATA_REGION_ORIGIN__>
    73c4:	30 91 01 40 	lds	r19, 0x4001	; 0x804001 <__DATA_REGION_ORIGIN__+0x1>
    73c8:	21 15       	cp	r18, r1
    73ca:	31 05       	cpc	r19, r1
    73cc:	41 f4       	brne	.+16     	; 0x73de <malloc+0xea>
    73ce:	2d b7       	in	r18, 0x3d	; 61
    73d0:	3e b7       	in	r19, 0x3e	; 62
    73d2:	40 91 04 40 	lds	r20, 0x4004	; 0x804004 <__malloc_margin>
    73d6:	50 91 05 40 	lds	r21, 0x4005	; 0x804005 <__malloc_margin+0x1>
    73da:	24 1b       	sub	r18, r20
    73dc:	35 0b       	sbc	r19, r21
    73de:	e0 91 1a 4c 	lds	r30, 0x4C1A	; 0x804c1a <__brkval>
    73e2:	f0 91 1b 4c 	lds	r31, 0x4C1B	; 0x804c1b <__brkval+0x1>
    73e6:	e2 17       	cp	r30, r18
    73e8:	f3 07       	cpc	r31, r19
    73ea:	a0 f4       	brcc	.+40     	; 0x7414 <malloc+0x120>
    73ec:	2e 1b       	sub	r18, r30
    73ee:	3f 0b       	sbc	r19, r31
    73f0:	28 17       	cp	r18, r24
    73f2:	39 07       	cpc	r19, r25
    73f4:	78 f0       	brcs	.+30     	; 0x7414 <malloc+0x120>
    73f6:	ac 01       	movw	r20, r24
    73f8:	4e 5f       	subi	r20, 0xFE	; 254
    73fa:	5f 4f       	sbci	r21, 0xFF	; 255
    73fc:	24 17       	cp	r18, r20
    73fe:	35 07       	cpc	r19, r21
    7400:	48 f0       	brcs	.+18     	; 0x7414 <malloc+0x120>
    7402:	4e 0f       	add	r20, r30
    7404:	5f 1f       	adc	r21, r31
    7406:	40 93 1a 4c 	sts	0x4C1A, r20	; 0x804c1a <__brkval>
    740a:	50 93 1b 4c 	sts	0x4C1B, r21	; 0x804c1b <__brkval+0x1>
    740e:	81 93       	st	Z+, r24
    7410:	91 93       	st	Z+, r25
    7412:	02 c0       	rjmp	.+4      	; 0x7418 <malloc+0x124>
    7414:	e0 e0       	ldi	r30, 0x00	; 0
    7416:	f0 e0       	ldi	r31, 0x00	; 0
    7418:	cf 01       	movw	r24, r30
    741a:	df 91       	pop	r29
    741c:	cf 91       	pop	r28
    741e:	1f 91       	pop	r17
    7420:	0f 91       	pop	r16
    7422:	08 95       	ret

00007424 <free>:
    7424:	cf 93       	push	r28
    7426:	df 93       	push	r29
    7428:	00 97       	sbiw	r24, 0x00	; 0
    742a:	09 f4       	brne	.+2      	; 0x742e <free+0xa>
    742c:	81 c0       	rjmp	.+258    	; 0x7530 <free+0x10c>
    742e:	fc 01       	movw	r30, r24
    7430:	32 97       	sbiw	r30, 0x02	; 2
    7432:	12 82       	std	Z+2, r1	; 0x02
    7434:	13 82       	std	Z+3, r1	; 0x03
    7436:	a0 91 1c 4c 	lds	r26, 0x4C1C	; 0x804c1c <__flp>
    743a:	b0 91 1d 4c 	lds	r27, 0x4C1D	; 0x804c1d <__flp+0x1>
    743e:	10 97       	sbiw	r26, 0x00	; 0
    7440:	81 f4       	brne	.+32     	; 0x7462 <free+0x3e>
    7442:	20 81       	ld	r18, Z
    7444:	31 81       	ldd	r19, Z+1	; 0x01
    7446:	82 0f       	add	r24, r18
    7448:	93 1f       	adc	r25, r19
    744a:	20 91 1a 4c 	lds	r18, 0x4C1A	; 0x804c1a <__brkval>
    744e:	30 91 1b 4c 	lds	r19, 0x4C1B	; 0x804c1b <__brkval+0x1>
    7452:	28 17       	cp	r18, r24
    7454:	39 07       	cpc	r19, r25
    7456:	51 f5       	brne	.+84     	; 0x74ac <free+0x88>
    7458:	e0 93 1a 4c 	sts	0x4C1A, r30	; 0x804c1a <__brkval>
    745c:	f0 93 1b 4c 	sts	0x4C1B, r31	; 0x804c1b <__brkval+0x1>
    7460:	67 c0       	rjmp	.+206    	; 0x7530 <free+0x10c>
    7462:	ed 01       	movw	r28, r26
    7464:	20 e0       	ldi	r18, 0x00	; 0
    7466:	30 e0       	ldi	r19, 0x00	; 0
    7468:	ce 17       	cp	r28, r30
    746a:	df 07       	cpc	r29, r31
    746c:	40 f4       	brcc	.+16     	; 0x747e <free+0x5a>
    746e:	4a 81       	ldd	r20, Y+2	; 0x02
    7470:	5b 81       	ldd	r21, Y+3	; 0x03
    7472:	9e 01       	movw	r18, r28
    7474:	41 15       	cp	r20, r1
    7476:	51 05       	cpc	r21, r1
    7478:	f1 f0       	breq	.+60     	; 0x74b6 <free+0x92>
    747a:	ea 01       	movw	r28, r20
    747c:	f5 cf       	rjmp	.-22     	; 0x7468 <free+0x44>
    747e:	c2 83       	std	Z+2, r28	; 0x02
    7480:	d3 83       	std	Z+3, r29	; 0x03
    7482:	40 81       	ld	r20, Z
    7484:	51 81       	ldd	r21, Z+1	; 0x01
    7486:	84 0f       	add	r24, r20
    7488:	95 1f       	adc	r25, r21
    748a:	c8 17       	cp	r28, r24
    748c:	d9 07       	cpc	r29, r25
    748e:	59 f4       	brne	.+22     	; 0x74a6 <free+0x82>
    7490:	88 81       	ld	r24, Y
    7492:	99 81       	ldd	r25, Y+1	; 0x01
    7494:	84 0f       	add	r24, r20
    7496:	95 1f       	adc	r25, r21
    7498:	02 96       	adiw	r24, 0x02	; 2
    749a:	80 83       	st	Z, r24
    749c:	91 83       	std	Z+1, r25	; 0x01
    749e:	8a 81       	ldd	r24, Y+2	; 0x02
    74a0:	9b 81       	ldd	r25, Y+3	; 0x03
    74a2:	82 83       	std	Z+2, r24	; 0x02
    74a4:	93 83       	std	Z+3, r25	; 0x03
    74a6:	21 15       	cp	r18, r1
    74a8:	31 05       	cpc	r19, r1
    74aa:	29 f4       	brne	.+10     	; 0x74b6 <free+0x92>
    74ac:	e0 93 1c 4c 	sts	0x4C1C, r30	; 0x804c1c <__flp>
    74b0:	f0 93 1d 4c 	sts	0x4C1D, r31	; 0x804c1d <__flp+0x1>
    74b4:	3d c0       	rjmp	.+122    	; 0x7530 <free+0x10c>
    74b6:	e9 01       	movw	r28, r18
    74b8:	ea 83       	std	Y+2, r30	; 0x02
    74ba:	fb 83       	std	Y+3, r31	; 0x03
    74bc:	49 91       	ld	r20, Y+
    74be:	59 91       	ld	r21, Y+
    74c0:	c4 0f       	add	r28, r20
    74c2:	d5 1f       	adc	r29, r21
    74c4:	ec 17       	cp	r30, r28
    74c6:	fd 07       	cpc	r31, r29
    74c8:	61 f4       	brne	.+24     	; 0x74e2 <free+0xbe>
    74ca:	80 81       	ld	r24, Z
    74cc:	91 81       	ldd	r25, Z+1	; 0x01
    74ce:	84 0f       	add	r24, r20
    74d0:	95 1f       	adc	r25, r21
    74d2:	02 96       	adiw	r24, 0x02	; 2
    74d4:	e9 01       	movw	r28, r18
    74d6:	88 83       	st	Y, r24
    74d8:	99 83       	std	Y+1, r25	; 0x01
    74da:	82 81       	ldd	r24, Z+2	; 0x02
    74dc:	93 81       	ldd	r25, Z+3	; 0x03
    74de:	8a 83       	std	Y+2, r24	; 0x02
    74e0:	9b 83       	std	Y+3, r25	; 0x03
    74e2:	e0 e0       	ldi	r30, 0x00	; 0
    74e4:	f0 e0       	ldi	r31, 0x00	; 0
    74e6:	12 96       	adiw	r26, 0x02	; 2
    74e8:	8d 91       	ld	r24, X+
    74ea:	9c 91       	ld	r25, X
    74ec:	13 97       	sbiw	r26, 0x03	; 3
    74ee:	00 97       	sbiw	r24, 0x00	; 0
    74f0:	19 f0       	breq	.+6      	; 0x74f8 <free+0xd4>
    74f2:	fd 01       	movw	r30, r26
    74f4:	dc 01       	movw	r26, r24
    74f6:	f7 cf       	rjmp	.-18     	; 0x74e6 <free+0xc2>
    74f8:	8d 91       	ld	r24, X+
    74fa:	9c 91       	ld	r25, X
    74fc:	11 97       	sbiw	r26, 0x01	; 1
    74fe:	9d 01       	movw	r18, r26
    7500:	2e 5f       	subi	r18, 0xFE	; 254
    7502:	3f 4f       	sbci	r19, 0xFF	; 255
    7504:	82 0f       	add	r24, r18
    7506:	93 1f       	adc	r25, r19
    7508:	20 91 1a 4c 	lds	r18, 0x4C1A	; 0x804c1a <__brkval>
    750c:	30 91 1b 4c 	lds	r19, 0x4C1B	; 0x804c1b <__brkval+0x1>
    7510:	28 17       	cp	r18, r24
    7512:	39 07       	cpc	r19, r25
    7514:	69 f4       	brne	.+26     	; 0x7530 <free+0x10c>
    7516:	30 97       	sbiw	r30, 0x00	; 0
    7518:	29 f4       	brne	.+10     	; 0x7524 <free+0x100>
    751a:	10 92 1c 4c 	sts	0x4C1C, r1	; 0x804c1c <__flp>
    751e:	10 92 1d 4c 	sts	0x4C1D, r1	; 0x804c1d <__flp+0x1>
    7522:	02 c0       	rjmp	.+4      	; 0x7528 <free+0x104>
    7524:	12 82       	std	Z+2, r1	; 0x02
    7526:	13 82       	std	Z+3, r1	; 0x03
    7528:	a0 93 1a 4c 	sts	0x4C1A, r26	; 0x804c1a <__brkval>
    752c:	b0 93 1b 4c 	sts	0x4C1B, r27	; 0x804c1b <__brkval+0x1>
    7530:	df 91       	pop	r29
    7532:	cf 91       	pop	r28
    7534:	08 95       	ret

00007536 <memset>:
    7536:	dc 01       	movw	r26, r24
    7538:	01 c0       	rjmp	.+2      	; 0x753c <memset+0x6>
    753a:	6d 93       	st	X+, r22
    753c:	41 50       	subi	r20, 0x01	; 1
    753e:	50 40       	sbci	r21, 0x00	; 0
    7540:	e0 f7       	brcc	.-8      	; 0x753a <memset+0x4>
    7542:	08 95       	ret

00007544 <_exit>:
    7544:	f8 94       	cli

00007546 <__stop_program>:
    7546:	ff cf       	rjmp	.-2      	; 0x7546 <__stop_program>
