
Pig_Scales.elf:     file format elf32-avr

Sections:
Idx Name          Size      VMA       LMA       File off  Algn
  0 .data         0000017a  00804000  00007a6a  0000751e  2**0
                  CONTENTS, ALLOC, LOAD, DATA
  1 .text         0000746a  00000600  00000600  000000b4  2**1
                  CONTENTS, ALLOC, LOAD, READONLY, CODE
  2 .bss          00000b5b  0080417a  0080417a  00007698  2**0
                  ALLOC
  3 .fuse         00000009  00820000  00820000  00007698  2**0
                  CONTENTS, ALLOC, LOAD, DATA
  4 .comment      0000005c  00000000  00000000  000076a1  2**0
                  CONTENTS, READONLY
  5 .note.gnu.avr.deviceinfo 00000040  00000000  00000000  00007700  2**2
                  CONTENTS, READONLY
  6 .debug_aranges 00000678  00000000  00000000  00007740  2**3
                  CONTENTS, READONLY, DEBUGGING
  7 .debug_info   00010832  00000000  00000000  00007db8  2**0
                  CONTENTS, READONLY, DEBUGGING
  8 .debug_abbrev 0000510a  00000000  00000000  000185ea  2**0
                  CONTENTS, READONLY, DEBUGGING
  9 .debug_line   00005c94  00000000  00000000  0001d6f4  2**0
                  CONTENTS, READONLY, DEBUGGING
 10 .debug_frame  0000104c  00000000  00000000  00023388  2**2
                  CONTENTS, READONLY, DEBUGGING
 11 .debug_str    00003dc5  00000000  00000000  000243d4  2**0
                  CONTENTS, READONLY, DEBUGGING
 12 .debug_loc    00003e54  00000000  00000000  00028199  2**0
                  CONTENTS, READONLY, DEBUGGING
 13 .debug_ranges 00000578  00000000  00000000  0002bfed  2**0
                  CONTENTS, READONLY, DEBUGGING

Disassembly of section .text:

00000600 <__vectors>:
     600:	0c 94 17 04 	jmp	0x82e	; 0x82e <__ctors_end>
     604:	0c 94 36 04 	jmp	0x86c	; 0x86c <__bad_interrupt>
     608:	0c 94 36 04 	jmp	0x86c	; 0x86c <__bad_interrupt>
     60c:	0c 94 36 04 	jmp	0x86c	; 0x86c <__bad_interrupt>
     610:	0c 94 36 04 	jmp	0x86c	; 0x86c <__bad_interrupt>
     614:	0c 94 36 04 	jmp	0x86c	; 0x86c <__bad_interrupt>
     618:	0c 94 36 04 	jmp	0x86c	; 0x86c <__bad_interrupt>
     61c:	0c 94 36 04 	jmp	0x86c	; 0x86c <__bad_interrupt>
     620:	0c 94 36 04 	jmp	0x86c	; 0x86c <__bad_interrupt>
     624:	0c 94 36 04 	jmp	0x86c	; 0x86c <__bad_interrupt>
     628:	0c 94 36 04 	jmp	0x86c	; 0x86c <__bad_interrupt>
     62c:	0c 94 36 04 	jmp	0x86c	; 0x86c <__bad_interrupt>
     630:	0c 94 36 04 	jmp	0x86c	; 0x86c <__bad_interrupt>
     634:	0c 94 36 04 	jmp	0x86c	; 0x86c <__bad_interrupt>
     638:	0c 94 36 04 	jmp	0x86c	; 0x86c <__bad_interrupt>
     63c:	0c 94 36 04 	jmp	0x86c	; 0x86c <__bad_interrupt>
     640:	0c 94 36 04 	jmp	0x86c	; 0x86c <__bad_interrupt>
     644:	0c 94 36 04 	jmp	0x86c	; 0x86c <__bad_interrupt>
     648:	0c 94 36 04 	jmp	0x86c	; 0x86c <__bad_interrupt>
     64c:	0c 94 36 04 	jmp	0x86c	; 0x86c <__bad_interrupt>
     650:	0c 94 36 04 	jmp	0x86c	; 0x86c <__bad_interrupt>
     654:	0c 94 36 04 	jmp	0x86c	; 0x86c <__bad_interrupt>
     658:	0c 94 36 04 	jmp	0x86c	; 0x86c <__bad_interrupt>
     65c:	0c 94 36 04 	jmp	0x86c	; 0x86c <__bad_interrupt>
     660:	0c 94 36 04 	jmp	0x86c	; 0x86c <__bad_interrupt>
     664:	0c 94 36 04 	jmp	0x86c	; 0x86c <__bad_interrupt>
     668:	0c 94 36 04 	jmp	0x86c	; 0x86c <__bad_interrupt>
     66c:	0c 94 36 04 	jmp	0x86c	; 0x86c <__bad_interrupt>
     670:	0c 94 36 04 	jmp	0x86c	; 0x86c <__bad_interrupt>
     674:	0c 94 36 04 	jmp	0x86c	; 0x86c <__bad_interrupt>
     678:	0c 94 36 04 	jmp	0x86c	; 0x86c <__bad_interrupt>
     67c:	0c 94 43 04 	jmp	0x886	; 0x886 <__vector_31>
     680:	0c 94 36 04 	jmp	0x86c	; 0x86c <__bad_interrupt>
     684:	0c 94 36 04 	jmp	0x86c	; 0x86c <__bad_interrupt>
     688:	0c 94 36 04 	jmp	0x86c	; 0x86c <__bad_interrupt>
     68c:	0c 94 36 04 	jmp	0x86c	; 0x86c <__bad_interrupt>
     690:	0c 94 36 04 	jmp	0x86c	; 0x86c <__bad_interrupt>
     694:	0c 94 36 04 	jmp	0x86c	; 0x86c <__bad_interrupt>
     698:	0c 94 36 04 	jmp	0x86c	; 0x86c <__bad_interrupt>
     69c:	0c 94 36 04 	jmp	0x86c	; 0x86c <__bad_interrupt>
     6a0:	0c 94 36 04 	jmp	0x86c	; 0x86c <__bad_interrupt>
     6a4:	0c 94 36 04 	jmp	0x86c	; 0x86c <__bad_interrupt>
     6a8:	0c 94 36 04 	jmp	0x86c	; 0x86c <__bad_interrupt>
     6ac:	0c 94 25 16 	jmp	0x2c4a	; 0x2c4a <__vector_43>
     6b0:	0c 94 36 04 	jmp	0x86c	; 0x86c <__bad_interrupt>
     6b4:	0c 94 36 04 	jmp	0x86c	; 0x86c <__bad_interrupt>
     6b8:	0c 94 9b 04 	jmp	0x936	; 0x936 <__vector_46>
     6bc:	0c 94 36 04 	jmp	0x86c	; 0x86c <__bad_interrupt>
     6c0:	0c 94 36 04 	jmp	0x86c	; 0x86c <__bad_interrupt>
     6c4:	0c 94 36 04 	jmp	0x86c	; 0x86c <__bad_interrupt>
     6c8:	0c 94 36 04 	jmp	0x86c	; 0x86c <__bad_interrupt>
     6cc:	0c 94 36 04 	jmp	0x86c	; 0x86c <__bad_interrupt>
     6d0:	0c 94 6f 04 	jmp	0x8de	; 0x8de <__vector_52>
     6d4:	0c 94 36 04 	jmp	0x86c	; 0x86c <__bad_interrupt>
     6d8:	0c 94 36 04 	jmp	0x86c	; 0x86c <__bad_interrupt>
     6dc:	0c 94 36 04 	jmp	0x86c	; 0x86c <__bad_interrupt>
     6e0:	0c 94 36 04 	jmp	0x86c	; 0x86c <__bad_interrupt>
     6e4:	0c 94 36 04 	jmp	0x86c	; 0x86c <__bad_interrupt>
     6e8:	0c 94 36 04 	jmp	0x86c	; 0x86c <__bad_interrupt>
     6ec:	0c 94 36 04 	jmp	0x86c	; 0x86c <__bad_interrupt>
     6f0:	0c 94 36 04 	jmp	0x86c	; 0x86c <__bad_interrupt>
     6f4:	0c 94 36 04 	jmp	0x86c	; 0x86c <__bad_interrupt>
     6f8:	0c 94 36 04 	jmp	0x86c	; 0x86c <__bad_interrupt>
     6fc:	0c 94 36 04 	jmp	0x86c	; 0x86c <__bad_interrupt>
     700:	87 26       	eor	r8, r23
     702:	16 25       	eor	r17, r6
     704:	45 25       	eor	r20, r5
     706:	75 25       	eor	r23, r5
     708:	a3 25       	eor	r26, r3
     70a:	dc 25       	eor	r29, r12
     70c:	12 26       	eor	r1, r18
     70e:	85 26       	eor	r8, r21
     710:	f9 26       	eor	r15, r25
     712:	fd 26       	eor	r15, r29
     714:	01 27       	eor	r16, r17
     716:	05 27       	eor	r16, r21
     718:	0b 27       	eor	r16, r27
     71a:	0f 27       	eor	r16, r31
     71c:	13 27       	eor	r17, r19
     71e:	d5 27       	eor	r29, r21
     720:	3f 28       	or	r3, r15
     722:	a8 28       	or	r10, r8
     724:	10 29       	or	r17, r0
     726:	7a 29       	or	r23, r10
     728:	e4 29       	or	r30, r4
     72a:	4b 2a       	or	r4, r27

0000072c <__trampolines_end>:
     72c:	6e 61       	ori	r22, 0x1E	; 30
     72e:	6e 00       	.word	0x006e	; ????

00000730 <__c.2332>:
     730:	69 6e 66 00 00 40 7a 10 f3 5a 00 a0 72 4e 18 09     inf..@z..Z..rN..
     740:	00 10 a5 d4 e8 00 00 e8 76 48 17 00 00 e4 0b 54     ........vH.....T
     750:	02 00 00 ca 9a 3b 00 00 00 e1 f5 05 00 00 80 96     .....;..........
     760:	98 00 00 00 40 42 0f 00 00 00 a0 86 01 00 00 00     ....@B..........
     770:	10 27 00 00 00 00 e8 03 00 00 00 00 64 00 00 00     .'..........d...
     780:	00 00 0a 00 00 00 00 00 01 00 00 00 00 00 2c 76     ..............,v
     790:	d8 88 dc 67 4f 08 23 df c1 df ae 59 e1 b1 b7 96     ...gO.#....Y....
     7a0:	e5 e3 e4 53 c6 3a e6 51 99 76 96 e8 e6 c2 84 26     ...S.:.Q.v.....&
     7b0:	eb 89 8c 9b 62 ed 40 7c 6f fc ef bc 9c 9f 40 f2     ....b.@|o.....@.
     7c0:	ba a5 6f a5 f4 90 05 5a 2a f7 5c 93 6b 6c f9 67     ..o....Z*.\.kl.g
     7d0:	6d c1 1b fc e0 e4 0d 47 fe f5 20 e6 b5 00 d0 ed     m......G.. .....
     7e0:	90 2e 03 00 94 35 77 05 00 80 84 1e 08 00 00 20     .....5w........ 
     7f0:	4e 0a 00 00 00 c8 0c 33 33 33 33 0f 98 6e 12 83     N......3333..n..
     800:	11 41 ef 8d 21 14 89 3b e6 55 16 cf fe e6 db 18     .A..!..;.U......
     810:	d1 84 4b 38 1b f7 7c 1d 90 1d a4 bb e4 24 20 32     ..K8..|......$ 2
     820:	84 72 5e 22 81 00 c9 f1 24 ec a1 e5 3d 27           .r^"....$...='

0000082e <__ctors_end>:
     82e:	11 24       	eor	r1, r1
     830:	1f be       	out	0x3f, r1	; 63
     832:	cf ef       	ldi	r28, 0xFF	; 255
     834:	cd bf       	out	0x3d, r28	; 61
     836:	df e7       	ldi	r29, 0x7F	; 127
     838:	de bf       	out	0x3e, r29	; 62

0000083a <__do_copy_data>:
     83a:	11 e4       	ldi	r17, 0x41	; 65
     83c:	a0 e0       	ldi	r26, 0x00	; 0
     83e:	b0 e4       	ldi	r27, 0x40	; 64
     840:	ea e6       	ldi	r30, 0x6A	; 106
     842:	fa e7       	ldi	r31, 0x7A	; 122
     844:	00 e0       	ldi	r16, 0x00	; 0
     846:	0b bf       	out	0x3b, r16	; 59
     848:	02 c0       	rjmp	.+4      	; 0x84e <__do_copy_data+0x14>
     84a:	07 90       	elpm	r0, Z+
     84c:	0d 92       	st	X+, r0
     84e:	aa 37       	cpi	r26, 0x7A	; 122
     850:	b1 07       	cpc	r27, r17
     852:	d9 f7       	brne	.-10     	; 0x84a <__do_copy_data+0x10>

00000854 <__do_clear_bss>:
     854:	2c e4       	ldi	r18, 0x4C	; 76
     856:	aa e7       	ldi	r26, 0x7A	; 122
     858:	b1 e4       	ldi	r27, 0x41	; 65
     85a:	01 c0       	rjmp	.+2      	; 0x85e <.do_clear_bss_start>

0000085c <.do_clear_bss_loop>:
     85c:	1d 92       	st	X+, r1

0000085e <.do_clear_bss_start>:
     85e:	a5 3d       	cpi	r26, 0xD5	; 213
     860:	b2 07       	cpc	r27, r18
     862:	e1 f7       	brne	.-8      	; 0x85c <.do_clear_bss_loop>
     864:	0e 94 97 0f 	call	0x1f2e	; 0x1f2e <main>
     868:	0c 94 33 3d 	jmp	0x7a66	; 0x7a66 <_exit>

0000086c <__bad_interrupt>:
     86c:	0c 94 00 03 	jmp	0x600	; 0x600 <__vectors>

00000870 <atmel_start_init>:
/**
 * Initializes MCU, drivers and middleware in the project
 **/
void atmel_start_init(void)
{
	system_init();
     870:	0e 94 b7 11 	call	0x236e	; 0x236e <system_init>
     874:	08 95       	ret

00000876 <Beep>:
#include <compiler.h>

//=================================================================================================
void Beep(uint16_t BeepTimer_1ms)
{
	Buzzer_ON;								// Buzzer on
     876:	e4 e0       	ldi	r30, 0x04	; 4
     878:	f4 e0       	ldi	r31, 0x04	; 4
     87a:	90 81       	ld	r25, Z
     87c:	92 60       	ori	r25, 0x02	; 2
     87e:	90 83       	st	Z, r25
	Beep_Timer = BeepTimer_1ms;
     880:	80 93 a8 4b 	sts	0x4BA8, r24	; 0x804ba8 <Beep_Timer>
     884:	08 95       	ret

00000886 <__vector_31>:
#endif

//=================================================================================================
#ifdef Usart_1
ISR(USART1_RXC_vect)
{
     886:	1f 92       	push	r1
     888:	0f 92       	push	r0
     88a:	0f b6       	in	r0, 0x3f	; 63
     88c:	0f 92       	push	r0
     88e:	11 24       	eor	r1, r1
     890:	0b b6       	in	r0, 0x3b	; 59
     892:	0f 92       	push	r0
     894:	8f 93       	push	r24
     896:	9f 93       	push	r25
     898:	ef 93       	push	r30
     89a:	ff 93       	push	r31
	while(!(USART1.STATUS & USART_RXCIF_bm)) ;
     89c:	80 91 24 08 	lds	r24, 0x0824	; 0x800824 <__TEXT_REGION_LENGTH__+0x7e0824>
     8a0:	88 23       	and	r24, r24
     8a2:	e4 f7       	brge	.-8      	; 0x89c <__vector_31+0x16>
	Rx1_Buff[Rx1_Cnt] = USART1.RXDATAL;
     8a4:	80 91 1e 4b 	lds	r24, 0x4B1E	; 0x804b1e <Rx1_Cnt>
     8a8:	e8 2f       	mov	r30, r24
     8aa:	f0 e0       	ldi	r31, 0x00	; 0
     8ac:	90 91 20 08 	lds	r25, 0x0820	; 0x800820 <__TEXT_REGION_LENGTH__+0x7e0820>
     8b0:	e8 5d       	subi	r30, 0xD8	; 216
     8b2:	f4 4b       	sbci	r31, 0xB4	; 180
     8b4:	90 83       	st	Z, r25
	if(Rx1_Cnt >= RX1_SIZE) {Rx1_Cnt = 0;}					// RX1_SIZE : 250
     8b6:	89 31       	cpi	r24, 0x19	; 25
     8b8:	10 f0       	brcs	.+4      	; 0x8be <__vector_31+0x38>
     8ba:	10 92 1e 4b 	sts	0x4B1E, r1	; 0x804b1e <Rx1_Cnt>
	Rx1_Cnt++;
     8be:	80 91 1e 4b 	lds	r24, 0x4B1E	; 0x804b1e <Rx1_Cnt>
     8c2:	8f 5f       	subi	r24, 0xFF	; 255
     8c4:	80 93 1e 4b 	sts	0x4B1E, r24	; 0x804b1e <Rx1_Cnt>
}
     8c8:	ff 91       	pop	r31
     8ca:	ef 91       	pop	r30
     8cc:	9f 91       	pop	r25
     8ce:	8f 91       	pop	r24
     8d0:	0f 90       	pop	r0
     8d2:	0b be       	out	0x3b, r0	; 59
     8d4:	0f 90       	pop	r0
     8d6:	0f be       	out	0x3f, r0	; 63
     8d8:	0f 90       	pop	r0
     8da:	1f 90       	pop	r1
     8dc:	18 95       	reti

000008de <__vector_52>:
#endif

//=================================================================================================
#ifdef Usart_3
ISR(USART3_RXC_vect)
{
     8de:	1f 92       	push	r1
     8e0:	0f 92       	push	r0
     8e2:	0f b6       	in	r0, 0x3f	; 63
     8e4:	0f 92       	push	r0
     8e6:	11 24       	eor	r1, r1
     8e8:	0b b6       	in	r0, 0x3b	; 59
     8ea:	0f 92       	push	r0
     8ec:	8f 93       	push	r24
     8ee:	9f 93       	push	r25
     8f0:	ef 93       	push	r30
     8f2:	ff 93       	push	r31
	while(!(USART3.STATUS & USART_RXCIF_bm)) ;
     8f4:	80 91 64 08 	lds	r24, 0x0864	; 0x800864 <__TEXT_REGION_LENGTH__+0x7e0864>
     8f8:	88 23       	and	r24, r24
     8fa:	e4 f7       	brge	.-8      	; 0x8f4 <__vector_52+0x16>
	Rx3_Buff[Rx3_Cnt] = USART3.RXDATAL;
     8fc:	80 91 b0 4b 	lds	r24, 0x4BB0	; 0x804bb0 <Rx3_Cnt>
     900:	e8 2f       	mov	r30, r24
     902:	f0 e0       	ldi	r31, 0x00	; 0
     904:	90 91 60 08 	lds	r25, 0x0860	; 0x800860 <__TEXT_REGION_LENGTH__+0x7e0860>
     908:	e9 53       	subi	r30, 0x39	; 57
     90a:	f4 4b       	sbci	r31, 0xB4	; 180
     90c:	90 83       	st	Z, r25
	if(Rx3_Cnt >= RX3_SIZE) {Rx3_Cnt = 0;}					// RX3_SIZE : 250
     90e:	8a 3f       	cpi	r24, 0xFA	; 250
     910:	10 f0       	brcs	.+4      	; 0x916 <__vector_52+0x38>
     912:	10 92 b0 4b 	sts	0x4BB0, r1	; 0x804bb0 <Rx3_Cnt>
	Rx3_Cnt++;
     916:	80 91 b0 4b 	lds	r24, 0x4BB0	; 0x804bb0 <Rx3_Cnt>
     91a:	8f 5f       	subi	r24, 0xFF	; 255
     91c:	80 93 b0 4b 	sts	0x4BB0, r24	; 0x804bb0 <Rx3_Cnt>
}
     920:	ff 91       	pop	r31
     922:	ef 91       	pop	r30
     924:	9f 91       	pop	r25
     926:	8f 91       	pop	r24
     928:	0f 90       	pop	r0
     92a:	0b be       	out	0x3b, r0	; 59
     92c:	0f 90       	pop	r0
     92e:	0f be       	out	0x3f, r0	; 63
     930:	0f 90       	pop	r0
     932:	1f 90       	pop	r1
     934:	18 95       	reti

00000936 <__vector_46>:
#endif

//=================================================================================================
#ifdef Timer_1
ISR(TCA1_OVF_vect)								// 5mSec Timer
{
     936:	1f 92       	push	r1
     938:	0f 92       	push	r0
     93a:	0f b6       	in	r0, 0x3f	; 63
     93c:	0f 92       	push	r0
     93e:	11 24       	eor	r1, r1
     940:	0b b6       	in	r0, 0x3b	; 59
     942:	0f 92       	push	r0
     944:	2f 93       	push	r18
     946:	3f 93       	push	r19
     948:	4f 93       	push	r20
     94a:	5f 93       	push	r21
     94c:	6f 93       	push	r22
     94e:	7f 93       	push	r23
     950:	8f 93       	push	r24
     952:	9f 93       	push	r25
     954:	af 93       	push	r26
     956:	bf 93       	push	r27
     958:	ef 93       	push	r30
     95a:	ff 93       	push	r31
	TCA1.SINGLE.INTFLAGS = TCA_SINGLE_OVF_bm;				// TCA1 ŅņĻŲ«√∑őŅŲ SET
     95c:	81 e0       	ldi	r24, 0x01	; 1
     95e:	80 93 4b 0a 	sts	0x0A4B, r24	; 0x800a4b <__TEXT_REGION_LENGTH__+0x7e0a4b>

	Fnd_Display();								// FND Display
     962:	0e 94 39 05 	call	0xa72	; 0xa72 <Fnd_Display>
	Key_Scan();								// key ņ‘∑¬ √ľŇ©
     966:	0e 94 dd 05 	call	0xbba	; 0xbba <Key_Scan>

	if(Timer.Input_Key == 0) {KEY.Buff = 0; KEY.Key = 0;}			// Timer.Input_Key į° 0 ņŐłť Key į™ Ļ◊ Key ņ‘∑¬ √ Ī‚»≠
     96a:	80 91 71 4b 	lds	r24, 0x4B71	; 0x804b71 <Timer>
     96e:	81 11       	cpse	r24, r1
     970:	05 c0       	rjmp	.+10     	; 0x97c <__vector_46+0x46>
     972:	ec e8       	ldi	r30, 0x8C	; 140
     974:	fb e4       	ldi	r31, 0x4B	; 75
     976:	11 82       	std	Z+1, r1	; 0x01
     978:	12 82       	std	Z+2, r1	; 0x02
     97a:	05 c0       	rjmp	.+10     	; 0x986 <__vector_46+0x50>
	else			 {Timer.Input_Key--;}				// Timer.Input_Key į° 0 ņŐ ĺ∆īŌłť Timer.Input_Key į®ľ“
     97c:	e1 e7       	ldi	r30, 0x71	; 113
     97e:	fb e4       	ldi	r31, 0x4B	; 75
     980:	80 81       	ld	r24, Z
     982:	81 50       	subi	r24, 0x01	; 1
     984:	80 83       	st	Z, r24
//-------------------------------------------------------------------------------------------------
	if(Beep_Timer == 0) {Buzzer_OFF;}					// Beep_Timer į° 0 ņŐłť Buzzer OFF
     986:	80 91 a8 4b 	lds	r24, 0x4BA8	; 0x804ba8 <Beep_Timer>
     98a:	81 11       	cpse	r24, r1
     98c:	06 c0       	rjmp	.+12     	; 0x99a <__vector_46+0x64>
     98e:	e4 e0       	ldi	r30, 0x04	; 4
     990:	f4 e0       	ldi	r31, 0x04	; 4
     992:	80 81       	ld	r24, Z
     994:	8d 7f       	andi	r24, 0xFD	; 253
     996:	80 83       	st	Z, r24
     998:	03 c0       	rjmp	.+6      	; 0x9a0 <__vector_46+0x6a>
	else		    {Beep_Timer--;}					// Beep_Timer į° 0 ņŐ ĺ∆īŌłť Beep_Timer į®ľ“
     99a:	81 50       	subi	r24, 0x01	; 1
     99c:	80 93 a8 4b 	sts	0x4BA8, r24	; 0x804ba8 <Beep_Timer>
//-------------------------------------------------------------------------------------------------
	Timer.RegExitTimer++;							// Timer.RegExitTimer Ńűį° (5mSec ł∂īŔ)
     9a0:	e1 e7       	ldi	r30, 0x71	; 113
     9a2:	fb e4       	ldi	r31, 0x4B	; 75
     9a4:	81 81       	ldd	r24, Z+1	; 0x01
     9a6:	92 81       	ldd	r25, Z+2	; 0x02
     9a8:	01 96       	adiw	r24, 0x01	; 1
     9aa:	81 83       	std	Z+1, r24	; 0x01
     9ac:	92 83       	std	Z+2, r25	; 0x02
	if(Timer.RegExitTimer >= REG_EXIT_TIME)					// Timer.RegExitTimer į° REG_EXIT_TIME įķ įįįŇ≥™ Ň©łť
     9ae:	81 81       	ldd	r24, Z+1	; 0x01
     9b0:	92 81       	ldd	r25, Z+2	; 0x02
     9b2:	80 3d       	cpi	r24, 0xD0	; 208
     9b4:	97 40       	sbci	r25, 0x07	; 7
     9b6:	20 f0       	brcs	.+8      	; 0x9c0 <__vector_46+0x8a>
	{									// ľ≥Ń§ łūĶŚ»ń ņŌŃ§Ĺ√į£(10√ ) ĻŲ∆į ņ‘∑¬ ĺÝņłłť ŇĽ√‚
		SET.Menu = 0;							// Menu łūĶŚ √ Ī‚»≠
     9b8:	e8 e4       	ldi	r30, 0x48	; 72
     9ba:	fb e4       	ldi	r31, 0x4B	; 75
     9bc:	10 82       	st	Z, r1
		SET.Select = 0;							// Select łūĶŚ √ Ī‚»≠
     9be:	11 82       	std	Z+1, r1	; 0x01
	}
//-------------------------------------------------------------------------------------------------
// 	Timer.RTC_Timer++;							// Timer.RTC_Timer Ńűį° (5mSec ł∂īŔ)
//  	Timer.Limit_Timer++;							// Ļęį‘√ÝŃ§ Ń¶«— Ĺ√į£ Ńűį° (5mSec ł∂īŔ)
//-------------------------------------------------------------------------------------------------
	Blink_Timer++;								// Blink_Timer Ńűį° (5mSec ł∂īŔ)
     9c0:	80 91 55 4b 	lds	r24, 0x4B55	; 0x804b55 <Blink_Timer>
     9c4:	8f 5f       	subi	r24, 0xFF	; 255
     9c6:	80 93 55 4b 	sts	0x4B55, r24	; 0x804b55 <Blink_Timer>
	if(Blink_Timer > 50)							// Blink_Timer ņŐ 50(0.25√ )ļłīŔ Ň©łť
     9ca:	83 33       	cpi	r24, 0x33	; 51
     9cc:	48 f0       	brcs	.+18     	; 0x9e0 <__vector_46+0xaa>
	{
		Blink = Blink ? 0 : 1;						// Blink ņŐ 1ņŐłť 0ņł∑ő 0ņŐłť 1∑ő ļĮįś
     9ce:	81 e0       	ldi	r24, 0x01	; 1
     9d0:	90 91 b9 4b 	lds	r25, 0x4BB9	; 0x804bb9 <Blink>
     9d4:	91 11       	cpse	r25, r1
     9d6:	80 e0       	ldi	r24, 0x00	; 0
     9d8:	80 93 b9 4b 	sts	0x4BB9, r24	; 0x804bb9 <Blink>
		Blink_Timer = 0;						// Blink_Timer √ Ī‚»≠
     9dc:	10 92 55 4b 	sts	0x4B55, r1	; 0x804b55 <Blink_Timer>
	}
//-------------------------------------------------------------------------------------------------
}
     9e0:	ff 91       	pop	r31
     9e2:	ef 91       	pop	r30
     9e4:	bf 91       	pop	r27
     9e6:	af 91       	pop	r26
     9e8:	9f 91       	pop	r25
     9ea:	8f 91       	pop	r24
     9ec:	7f 91       	pop	r23
     9ee:	6f 91       	pop	r22
     9f0:	5f 91       	pop	r21
     9f2:	4f 91       	pop	r20
     9f4:	3f 91       	pop	r19
     9f6:	2f 91       	pop	r18
     9f8:	0f 90       	pop	r0
     9fa:	0b be       	out	0x3b, r0	; 59
     9fc:	0f 90       	pop	r0
     9fe:	0f be       	out	0x3f, r0	; 63
     a00:	0f 90       	pop	r0
     a02:	1f 90       	pop	r1
     a04:	18 95       	reti

00000a06 <std_putchar>:
{
	for(uint8_t i = 0; i <= 2; i++)						// 0ĻÝ FND ļőŇÕ 2ĻÝ FND ĪÓŃŲ
	{
		FND_Value_Data(i, i, 10);					// FND 1 FND_OFF «•Ĺ√
	}
}
     a06:	cf 93       	push	r28
     a08:	c8 2f       	mov	r28, r24
     a0a:	80 91 8b 4b 	lds	r24, 0x4B8B	; 0x804b8b <printf_port>
     a0e:	81 30       	cpi	r24, 0x01	; 1
     a10:	19 f4       	brne	.+6      	; 0xa18 <std_putchar+0x12>
     a12:	8c 2f       	mov	r24, r28
     a14:	0e 94 8a 2a 	call	0x5514	; 0x5514 <USART1_Write>
     a18:	80 91 8b 4b 	lds	r24, 0x4B8B	; 0x804b8b <printf_port>
     a1c:	83 30       	cpi	r24, 0x03	; 3
     a1e:	19 f4       	brne	.+6      	; 0xa26 <std_putchar+0x20>
     a20:	8c 2f       	mov	r24, r28
     a22:	0e 94 9f 2a 	call	0x553e	; 0x553e <USART3_Write>
     a26:	80 e0       	ldi	r24, 0x00	; 0
     a28:	90 e0       	ldi	r25, 0x00	; 0
     a2a:	cf 91       	pop	r28
     a2c:	08 95       	ret

00000a2e <MCU_Init>:
     a2e:	8e e0       	ldi	r24, 0x0E	; 14
     a30:	80 93 00 04 	sts	0x0400, r24	; 0x800400 <__TEXT_REGION_LENGTH__+0x7e0400>
     a34:	8d e0       	ldi	r24, 0x0D	; 13
     a36:	80 93 20 04 	sts	0x0420, r24	; 0x800420 <__TEXT_REGION_LENGTH__+0x7e0420>
     a3a:	85 e5       	ldi	r24, 0x55	; 85
     a3c:	80 93 40 04 	sts	0x0440, r24	; 0x800440 <__TEXT_REGION_LENGTH__+0x7e0440>
     a40:	10 92 60 04 	sts	0x0460, r1	; 0x800460 <__TEXT_REGION_LENGTH__+0x7e0460>
     a44:	10 92 80 04 	sts	0x0480, r1	; 0x800480 <__TEXT_REGION_LENGTH__+0x7e0480>
     a48:	8c e0       	ldi	r24, 0x0C	; 12
     a4a:	80 93 a0 04 	sts	0x04A0, r24	; 0x8004a0 <__TEXT_REGION_LENGTH__+0x7e04a0>
     a4e:	87 ef       	ldi	r24, 0xF7	; 247
     a50:	80 93 c0 04 	sts	0x04C0, r24	; 0x8004c0 <__TEXT_REGION_LENGTH__+0x7e04c0>
     a54:	10 92 04 04 	sts	0x0404, r1	; 0x800404 <__TEXT_REGION_LENGTH__+0x7e0404>
     a58:	10 92 24 04 	sts	0x0424, r1	; 0x800424 <__TEXT_REGION_LENGTH__+0x7e0424>
     a5c:	10 92 44 04 	sts	0x0444, r1	; 0x800444 <__TEXT_REGION_LENGTH__+0x7e0444>
     a60:	10 92 64 04 	sts	0x0464, r1	; 0x800464 <__TEXT_REGION_LENGTH__+0x7e0464>
     a64:	10 92 84 04 	sts	0x0484, r1	; 0x800484 <__TEXT_REGION_LENGTH__+0x7e0484>
     a68:	10 92 a4 04 	sts	0x04A4, r1	; 0x8004a4 <__TEXT_REGION_LENGTH__+0x7e04a4>
     a6c:	10 92 c4 04 	sts	0x04C4, r1	; 0x8004c4 <__TEXT_REGION_LENGTH__+0x7e04c4>
     a70:	08 95       	ret

00000a72 <Fnd_Display>:
     a72:	32 e0       	ldi	r19, 0x02	; 2
     a74:	2f c0       	rjmp	.+94     	; 0xad4 <Fnd_Display+0x62>
     a76:	e4 ec       	ldi	r30, 0xC4	; 196
     a78:	f4 e0       	ldi	r31, 0x04	; 4
     a7a:	80 81       	ld	r24, Z
     a7c:	8d 7f       	andi	r24, 0xFD	; 253
     a7e:	80 83       	st	Z, r24
     a80:	80 91 7c 41 	lds	r24, 0x417C	; 0x80417c <cnt.6417>
     a84:	94 e0       	ldi	r25, 0x04	; 4
     a86:	39 02       	muls	r19, r25
     a88:	f0 01       	movw	r30, r0
     a8a:	11 24       	eor	r1, r1
     a8c:	e3 58       	subi	r30, 0x83	; 131
     a8e:	fe 4b       	sbci	r31, 0xBE	; 190
     a90:	e8 0f       	add	r30, r24
     a92:	f1 1d       	adc	r31, r1
     a94:	80 81       	ld	r24, Z
     a96:	90 e0       	ldi	r25, 0x00	; 0
     a98:	02 2e       	mov	r0, r18
     a9a:	02 c0       	rjmp	.+4      	; 0xaa0 <Fnd_Display+0x2e>
     a9c:	95 95       	asr	r25
     a9e:	87 95       	ror	r24
     aa0:	0a 94       	dec	r0
     aa2:	e2 f7       	brpl	.-8      	; 0xa9c <Fnd_Display+0x2a>
     aa4:	80 ff       	sbrs	r24, 0
     aa6:	06 c0       	rjmp	.+12     	; 0xab4 <Fnd_Display+0x42>
     aa8:	e4 ec       	ldi	r30, 0xC4	; 196
     aaa:	f4 e0       	ldi	r31, 0x04	; 4
     aac:	80 81       	ld	r24, Z
     aae:	84 60       	ori	r24, 0x04	; 4
     ab0:	80 83       	st	Z, r24
     ab2:	05 c0       	rjmp	.+10     	; 0xabe <Fnd_Display+0x4c>
     ab4:	e4 ec       	ldi	r30, 0xC4	; 196
     ab6:	f4 e0       	ldi	r31, 0x04	; 4
     ab8:	80 81       	ld	r24, Z
     aba:	8b 7f       	andi	r24, 0xFB	; 251
     abc:	80 83       	st	Z, r24
     abe:	e4 ec       	ldi	r30, 0xC4	; 196
     ac0:	f4 e0       	ldi	r31, 0x04	; 4
     ac2:	80 81       	ld	r24, Z
     ac4:	82 60       	ori	r24, 0x02	; 2
     ac6:	80 83       	st	Z, r24
     ac8:	2f 5f       	subi	r18, 0xFF	; 255
     aca:	01 c0       	rjmp	.+2      	; 0xace <Fnd_Display+0x5c>
     acc:	20 e0       	ldi	r18, 0x00	; 0
     ace:	28 30       	cpi	r18, 0x08	; 8
     ad0:	90 f2       	brcs	.-92     	; 0xa76 <Fnd_Display+0x4>
     ad2:	31 50       	subi	r19, 0x01	; 1
     ad4:	33 23       	and	r19, r19
     ad6:	d4 f7       	brge	.-12     	; 0xacc <Fnd_Display+0x5a>
     ad8:	e4 ec       	ldi	r30, 0xC4	; 196
     ada:	f4 e0       	ldi	r31, 0x04	; 4
     adc:	80 81       	ld	r24, Z
     ade:	81 60       	ori	r24, 0x01	; 1
     ae0:	80 83       	st	Z, r24
     ae2:	80 81       	ld	r24, Z
     ae4:	8e 7f       	andi	r24, 0xFE	; 254
     ae6:	80 83       	st	Z, r24
     ae8:	80 91 7c 41 	lds	r24, 0x417C	; 0x80417c <cnt.6417>
     aec:	81 30       	cpi	r24, 0x01	; 1
     aee:	a9 f0       	breq	.+42     	; 0xb1a <Fnd_Display+0xa8>
     af0:	28 f0       	brcs	.+10     	; 0xafc <Fnd_Display+0x8a>
     af2:	82 30       	cpi	r24, 0x02	; 2
     af4:	09 f1       	breq	.+66     	; 0xb38 <Fnd_Display+0xc6>
     af6:	83 30       	cpi	r24, 0x03	; 3
     af8:	71 f1       	breq	.+92     	; 0xb56 <Fnd_Display+0xe4>
     afa:	3b c0       	rjmp	.+118    	; 0xb72 <Fnd_Display+0x100>
     afc:	e4 ec       	ldi	r30, 0xC4	; 196
     afe:	f4 e0       	ldi	r31, 0x04	; 4
     b00:	80 81       	ld	r24, Z
     b02:	8f 7e       	andi	r24, 0xEF	; 239
     b04:	80 83       	st	Z, r24
     b06:	80 81       	ld	r24, Z
     b08:	8f 7d       	andi	r24, 0xDF	; 223
     b0a:	80 83       	st	Z, r24
     b0c:	80 81       	ld	r24, Z
     b0e:	8f 7b       	andi	r24, 0xBF	; 191
     b10:	80 83       	st	Z, r24
     b12:	80 81       	ld	r24, Z
     b14:	80 68       	ori	r24, 0x80	; 128
     b16:	80 83       	st	Z, r24
     b18:	2c c0       	rjmp	.+88     	; 0xb72 <Fnd_Display+0x100>
     b1a:	e4 ec       	ldi	r30, 0xC4	; 196
     b1c:	f4 e0       	ldi	r31, 0x04	; 4
     b1e:	80 81       	ld	r24, Z
     b20:	8f 7e       	andi	r24, 0xEF	; 239
     b22:	80 83       	st	Z, r24
     b24:	80 81       	ld	r24, Z
     b26:	8f 7d       	andi	r24, 0xDF	; 223
     b28:	80 83       	st	Z, r24
     b2a:	80 81       	ld	r24, Z
     b2c:	80 64       	ori	r24, 0x40	; 64
     b2e:	80 83       	st	Z, r24
     b30:	80 81       	ld	r24, Z
     b32:	8f 77       	andi	r24, 0x7F	; 127
     b34:	80 83       	st	Z, r24
     b36:	1d c0       	rjmp	.+58     	; 0xb72 <Fnd_Display+0x100>
     b38:	e4 ec       	ldi	r30, 0xC4	; 196
     b3a:	f4 e0       	ldi	r31, 0x04	; 4
     b3c:	80 81       	ld	r24, Z
     b3e:	8f 7e       	andi	r24, 0xEF	; 239
     b40:	80 83       	st	Z, r24
     b42:	80 81       	ld	r24, Z
     b44:	80 62       	ori	r24, 0x20	; 32
     b46:	80 83       	st	Z, r24
     b48:	80 81       	ld	r24, Z
     b4a:	8f 7b       	andi	r24, 0xBF	; 191
     b4c:	80 83       	st	Z, r24
     b4e:	80 81       	ld	r24, Z
     b50:	8f 77       	andi	r24, 0x7F	; 127
     b52:	80 83       	st	Z, r24
     b54:	0e c0       	rjmp	.+28     	; 0xb72 <Fnd_Display+0x100>
     b56:	e4 ec       	ldi	r30, 0xC4	; 196
     b58:	f4 e0       	ldi	r31, 0x04	; 4
     b5a:	80 81       	ld	r24, Z
     b5c:	80 61       	ori	r24, 0x10	; 16
     b5e:	80 83       	st	Z, r24
     b60:	80 81       	ld	r24, Z
     b62:	8f 7d       	andi	r24, 0xDF	; 223
     b64:	80 83       	st	Z, r24
     b66:	80 81       	ld	r24, Z
     b68:	8f 7b       	andi	r24, 0xBF	; 191
     b6a:	80 83       	st	Z, r24
     b6c:	80 81       	ld	r24, Z
     b6e:	8f 77       	andi	r24, 0x7F	; 127
     b70:	80 83       	st	Z, r24
     b72:	80 91 7c 41 	lds	r24, 0x417C	; 0x80417c <cnt.6417>
     b76:	8f 5f       	subi	r24, 0xFF	; 255
     b78:	80 93 7c 41 	sts	0x417C, r24	; 0x80417c <cnt.6417>
     b7c:	84 30       	cpi	r24, 0x04	; 4
     b7e:	10 f0       	brcs	.+4      	; 0xb84 <Fnd_Display+0x112>
     b80:	10 92 7c 41 	sts	0x417C, r1	; 0x80417c <cnt.6417>
     b84:	08 95       	ret

00000b86 <FND_Value_Data>:
     b86:	16 c0       	rjmp	.+44     	; 0xbb4 <FND_Value_Data+0x2e>
     b88:	e8 2f       	mov	r30, r24
     b8a:	f0 e0       	ldi	r31, 0x00	; 0
     b8c:	a4 2f       	mov	r26, r20
     b8e:	b0 e0       	ldi	r27, 0x00	; 0
     b90:	a9 5b       	subi	r26, 0xB9	; 185
     b92:	be 4b       	sbci	r27, 0xBE	; 190
     b94:	2c 91       	ld	r18, X
     b96:	ee 0f       	add	r30, r30
     b98:	ff 1f       	adc	r31, r31
     b9a:	ee 0f       	add	r30, r30
     b9c:	ff 1f       	adc	r31, r31
     b9e:	e3 58       	subi	r30, 0x83	; 131
     ba0:	fe 4b       	sbci	r31, 0xBE	; 190
     ba2:	e9 0f       	add	r30, r25
     ba4:	f1 1d       	adc	r31, r1
     ba6:	20 83       	st	Z, r18
     ba8:	9f 5f       	subi	r25, 0xFF	; 255
     baa:	01 c0       	rjmp	.+2      	; 0xbae <FND_Value_Data+0x28>
     bac:	90 e0       	ldi	r25, 0x00	; 0
     bae:	94 30       	cpi	r25, 0x04	; 4
     bb0:	58 f3       	brcs	.-42     	; 0xb88 <FND_Value_Data+0x2>
     bb2:	8f 5f       	subi	r24, 0xFF	; 255
     bb4:	68 17       	cp	r22, r24
     bb6:	d0 f7       	brcc	.-12     	; 0xbac <FND_Value_Data+0x26>
     bb8:	08 95       	ret

00000bba <Key_Scan>:
//=================================================================================================
//		key į™ scan
//=================================================================================================
void Key_Scan(void)								// key ņ‘∑¬ √ľŇ©
{
	if(!KEY.Buff)								// Key ņ‘∑¬ņŐ ĺÝĺķņłłť
     bba:	80 91 8d 4b 	lds	r24, 0x4B8D	; 0x804b8d <KEY+0x1>
     bbe:	81 11       	cpse	r24, r1
     bc0:	c5 c0       	rjmp	.+394    	; 0xd4c <Key_Scan+0x192>
	{
		if(keytemp & 0x10) {Beep(10); KEY.Key = 1; KEY.Buff = 1; Timer.RegExitTimer = 0;}	// +(UP)  key ņ‘∑¬ņŐ ņ÷ņłłť 
     bc2:	80 91 08 04 	lds	r24, 0x0408	; 0x800408 <__TEXT_REGION_LENGTH__+0x7e0408>
     bc6:	84 fd       	sbrc	r24, 4
     bc8:	0d c0       	rjmp	.+26     	; 0xbe4 <Key_Scan+0x2a>
     bca:	8a e0       	ldi	r24, 0x0A	; 10
     bcc:	90 e0       	ldi	r25, 0x00	; 0
     bce:	0e 94 3b 04 	call	0x876	; 0x876 <Beep>
     bd2:	ec e8       	ldi	r30, 0x8C	; 140
     bd4:	fb e4       	ldi	r31, 0x4B	; 75
     bd6:	81 e0       	ldi	r24, 0x01	; 1
     bd8:	82 83       	std	Z+2, r24	; 0x02
     bda:	81 83       	std	Z+1, r24	; 0x01
     bdc:	10 92 72 4b 	sts	0x4B72, r1	; 0x804b72 <Timer+0x1>
     be0:	10 92 73 4b 	sts	0x4B73, r1	; 0x804b73 <Timer+0x2>
		if(keytemp & 0x20) {Beep(10); KEY.Key = 2; KEY.Buff = 1; Timer.RegExitTimer = 0;}	// Select key ņ‘∑¬ņŐ ņ÷ņłłť
     be4:	80 91 08 04 	lds	r24, 0x0408	; 0x800408 <__TEXT_REGION_LENGTH__+0x7e0408>
     be8:	85 fd       	sbrc	r24, 5
     bea:	0e c0       	rjmp	.+28     	; 0xc08 <Key_Scan+0x4e>
     bec:	8a e0       	ldi	r24, 0x0A	; 10
     bee:	90 e0       	ldi	r25, 0x00	; 0
     bf0:	0e 94 3b 04 	call	0x876	; 0x876 <Beep>
     bf4:	ec e8       	ldi	r30, 0x8C	; 140
     bf6:	fb e4       	ldi	r31, 0x4B	; 75
     bf8:	82 e0       	ldi	r24, 0x02	; 2
     bfa:	82 83       	std	Z+2, r24	; 0x02
     bfc:	81 e0       	ldi	r24, 0x01	; 1
     bfe:	81 83       	std	Z+1, r24	; 0x01
     c00:	10 92 72 4b 	sts	0x4B72, r1	; 0x804b72 <Timer+0x1>
     c04:	10 92 73 4b 	sts	0x4B73, r1	; 0x804b73 <Timer+0x2>
		if(keytemp & 0x40) {Beep(10); KEY.Key = 3; KEY.Buff = 1; Timer.RegExitTimer = 0;}	// -(Down)key ņ‘∑¬ņŐ ņ÷ņłłť
     c08:	80 91 08 04 	lds	r24, 0x0408	; 0x800408 <__TEXT_REGION_LENGTH__+0x7e0408>
     c0c:	86 fd       	sbrc	r24, 6
     c0e:	0e c0       	rjmp	.+28     	; 0xc2c <Key_Scan+0x72>
     c10:	8a e0       	ldi	r24, 0x0A	; 10
     c12:	90 e0       	ldi	r25, 0x00	; 0
     c14:	0e 94 3b 04 	call	0x876	; 0x876 <Beep>
     c18:	ec e8       	ldi	r30, 0x8C	; 140
     c1a:	fb e4       	ldi	r31, 0x4B	; 75
     c1c:	83 e0       	ldi	r24, 0x03	; 3
     c1e:	82 83       	std	Z+2, r24	; 0x02
     c20:	81 e0       	ldi	r24, 0x01	; 1
     c22:	81 83       	std	Z+1, r24	; 0x01
     c24:	10 92 72 4b 	sts	0x4B72, r1	; 0x804b72 <Timer+0x1>
     c28:	10 92 73 4b 	sts	0x4B73, r1	; 0x804b73 <Timer+0x2>
		if(keytemp & 0x80) {Beep(10); KEY.Key = 4; KEY.Buff = 1; Timer.RegExitTimer = 0;}	// Menu   key ņ‘∑¬ņŐ ņ÷ņłłť
     c2c:	80 91 08 04 	lds	r24, 0x0408	; 0x800408 <__TEXT_REGION_LENGTH__+0x7e0408>
     c30:	88 23       	and	r24, r24
     c32:	74 f0       	brlt	.+28     	; 0xc50 <Key_Scan+0x96>
     c34:	8a e0       	ldi	r24, 0x0A	; 10
     c36:	90 e0       	ldi	r25, 0x00	; 0
     c38:	0e 94 3b 04 	call	0x876	; 0x876 <Beep>
     c3c:	ec e8       	ldi	r30, 0x8C	; 140
     c3e:	fb e4       	ldi	r31, 0x4B	; 75
     c40:	84 e0       	ldi	r24, 0x04	; 4
     c42:	82 83       	std	Z+2, r24	; 0x02
     c44:	81 e0       	ldi	r24, 0x01	; 1
     c46:	81 83       	std	Z+1, r24	; 0x01
     c48:	10 92 72 4b 	sts	0x4B72, r1	; 0x804b72 <Timer+0x1>
     c4c:	10 92 73 4b 	sts	0x4B73, r1	; 0x804b73 <Timer+0x2>

		if(KEY.Key == 4)						// Menu key ņ‘∑¬ņŐ ņ÷ņłłť
     c50:	80 91 8e 4b 	lds	r24, 0x4B8E	; 0x804b8e <KEY+0x2>
     c54:	84 30       	cpi	r24, 0x04	; 4
     c56:	51 f4       	brne	.+20     	; 0xc6c <Key_Scan+0xb2>
		{
			if(SET.Menu) {SET.Menu = 0;}				// łřīļłūĶŚ = 1 ņŐłť łřīļłūĶŚ «ōŃ¶
     c58:	80 91 48 4b 	lds	r24, 0x4B48	; 0x804b48 <SET>
     c5c:	88 23       	and	r24, r24
     c5e:	19 f0       	breq	.+6      	; 0xc66 <Key_Scan+0xac>
     c60:	10 92 48 4b 	sts	0x4B48, r1	; 0x804b48 <SET>
     c64:	03 c0       	rjmp	.+6      	; 0xc6c <Key_Scan+0xb2>
			else	     {SET.Menu = 1;}				// łřīļłūĶŚ = 0 ņŐłť łřīļłūĶŚ ľ≥Ń§ 
     c66:	81 e0       	ldi	r24, 0x01	; 1
     c68:	80 93 48 4b 	sts	0x4B48, r24	; 0x804b48 <SET>
		}

		if(SET.Menu && KEY.Key == 2 && !SET.Blink)			// łřīļłūĶŚ ņŐįŪ Blink = 0 ņŐįŪ ľĪŇ√ Key ņ‘∑¬ņŐ ņ÷ņłłť
     c6c:	80 91 48 4b 	lds	r24, 0x4B48	; 0x804b48 <SET>
     c70:	88 23       	and	r24, r24
     c72:	91 f0       	breq	.+36     	; 0xc98 <Key_Scan+0xde>
     c74:	80 91 8e 4b 	lds	r24, 0x4B8E	; 0x804b8e <KEY+0x2>
     c78:	82 30       	cpi	r24, 0x02	; 2
     c7a:	71 f4       	brne	.+28     	; 0xc98 <Key_Scan+0xde>
     c7c:	80 91 4b 4b 	lds	r24, 0x4B4B	; 0x804b4b <SET+0x3>
     c80:	81 11       	cpse	r24, r1
     c82:	0a c0       	rjmp	.+20     	; 0xc98 <Key_Scan+0xde>
		{
			if(SET.Select) {SET.Select = 0;}			// ľĪŇ√łūĶŚ = 1 ņŐłť ľĪŇ√łūĶŚ «ōŃ¶
     c84:	80 91 49 4b 	lds	r24, 0x4B49	; 0x804b49 <SET+0x1>
     c88:	88 23       	and	r24, r24
     c8a:	19 f0       	breq	.+6      	; 0xc92 <Key_Scan+0xd8>
     c8c:	10 92 49 4b 	sts	0x4B49, r1	; 0x804b49 <SET+0x1>
     c90:	03 c0       	rjmp	.+6      	; 0xc98 <Key_Scan+0xde>
			else	       {SET.Select = 1;}			// ľĪŇ√łūĶŚ = 0 ņŐłť ľĪŇ√łūĶŚ ľ≥Ń§
     c92:	81 e0       	ldi	r24, 0x01	; 1
     c94:	80 93 49 4b 	sts	0x4B49, r24	; 0x804b49 <SET+0x1>
		}

		if(SET.Menu && KEY.Key == 2 && SET.Blink)			// łřīļłūĶŚ ņŐįŪ Blink = 1 ņŐįŪ ľĪŇ√ Key ņ‘∑¬ņŐ ņ÷ņłłť
     c98:	80 91 48 4b 	lds	r24, 0x4B48	; 0x804b48 <SET>
     c9c:	88 23       	and	r24, r24
     c9e:	69 f0       	breq	.+26     	; 0xcba <Key_Scan+0x100>
     ca0:	80 91 8e 4b 	lds	r24, 0x4B8E	; 0x804b8e <KEY+0x2>
     ca4:	82 30       	cpi	r24, 0x02	; 2
     ca6:	49 f4       	brne	.+18     	; 0xcba <Key_Scan+0x100>
     ca8:	80 91 4b 4b 	lds	r24, 0x4B4B	; 0x804b4b <SET+0x3>
     cac:	88 23       	and	r24, r24
     cae:	29 f0       	breq	.+10     	; 0xcba <Key_Scan+0x100>
		{
			KEY.Count++;						// Key į° ī≠łį»ĹľŲ Ńűį°
     cb0:	ec e8       	ldi	r30, 0x8C	; 140
     cb2:	fb e4       	ldi	r31, 0x4B	; 75
     cb4:	80 81       	ld	r24, Z
     cb6:	8f 5f       	subi	r24, 0xFF	; 255
     cb8:	80 83       	st	Z, r24
		}

		if(!SET.Menu && !SET.NumSET && KEY.Key == 2)			// łřīļłūĶŚ ŅÕ SET.NumSET į° 1ņŐ ĺ∆īŌįŪ ľĪŇ√ Key ņ‘∑¬ņŐ ņ÷ņłłť
     cba:	80 91 48 4b 	lds	r24, 0x4B48	; 0x804b48 <SET>
     cbe:	81 11       	cpse	r24, r1
     cc0:	17 c0       	rjmp	.+46     	; 0xcf0 <Key_Scan+0x136>
     cc2:	80 91 4a 4b 	lds	r24, 0x4B4A	; 0x804b4a <SET+0x2>
     cc6:	81 11       	cpse	r24, r1
     cc8:	13 c0       	rjmp	.+38     	; 0xcf0 <Key_Scan+0x136>
     cca:	80 91 8e 4b 	lds	r24, 0x4B8E	; 0x804b8e <KEY+0x2>
     cce:	82 30       	cpi	r24, 0x02	; 2
     cd0:	79 f4       	brne	.+30     	; 0xcf0 <Key_Scan+0x136>
		{
			if(SET.Save) {SET.Save = 0;}				// ņķņŚłūĶŚ = 1 ņŐłť ņķņŚłūĶŚ «ōŃ¶
     cd2:	80 91 4c 4b 	lds	r24, 0x4B4C	; 0x804b4c <SET+0x4>
     cd6:	88 23       	and	r24, r24
     cd8:	19 f0       	breq	.+6      	; 0xce0 <Key_Scan+0x126>
     cda:	10 92 4c 4b 	sts	0x4B4C, r1	; 0x804b4c <SET+0x4>
     cde:	08 c0       	rjmp	.+16     	; 0xcf0 <Key_Scan+0x136>
			else							// ņķņŚłūĶŚ = 0 ņŐłť ņķņŚłūĶŚ ľ≥Ń§
			{
				SET.Save = 1;
     ce0:	81 e0       	ldi	r24, 0x01	; 1
     ce2:	80 93 4c 4b 	sts	0x4B4C, r24	; 0x804b4c <SET+0x4>
				FND_Value_Data(2, 2, 10);			// FND 2 FND_MINUS «•Ĺ√
     ce6:	4a e0       	ldi	r20, 0x0A	; 10
     ce8:	62 e0       	ldi	r22, 0x02	; 2
     cea:	82 e0       	ldi	r24, 0x02	; 2
     cec:	0e 94 c3 05 	call	0xb86	; 0xb86 <FND_Value_Data>
			}
		}

		if(!SET.Menu && KEY.Key == 1)					// łřīļłūĶŚį° ĺ∆īŌįŪ ľĪŇ√ Key ņ‘∑¬ņŐ ņ÷ņłłť
     cf0:	80 91 48 4b 	lds	r24, 0x4B48	; 0x804b48 <SET>
     cf4:	81 11       	cpse	r24, r1
     cf6:	0b c0       	rjmp	.+22     	; 0xd0e <Key_Scan+0x154>
     cf8:	80 91 8e 4b 	lds	r24, 0x4B8E	; 0x804b8e <KEY+0x2>
     cfc:	81 30       	cpi	r24, 0x01	; 1
     cfe:	39 f4       	brne	.+14     	; 0xd0e <Key_Scan+0x154>
		{
			if(!SET.NumSET) {SET.NumSET = 1;}			// NumSETłūĶŚ = 1 ĺ∆īŌłť NumSETłūĶŚ ľ≥Ń§
     d00:	80 91 4a 4b 	lds	r24, 0x4B4A	; 0x804b4a <SET+0x2>
     d04:	81 11       	cpse	r24, r1
     d06:	03 c0       	rjmp	.+6      	; 0xd0e <Key_Scan+0x154>
     d08:	81 e0       	ldi	r24, 0x01	; 1
     d0a:	80 93 4a 4b 	sts	0x4B4A, r24	; 0x804b4a <SET+0x2>
		}

		if(KEY.Old == KEY.Key)						// Old Key į™ņŐ New Key į™ņŐ įįņłłť
     d0e:	ec e8       	ldi	r30, 0x8C	; 140
     d10:	fb e4       	ldi	r31, 0x4B	; 75
     d12:	93 81       	ldd	r25, Z+3	; 0x03
     d14:	82 81       	ldd	r24, Z+2	; 0x02
     d16:	98 13       	cpse	r25, r24
     d18:	11 c0       	rjmp	.+34     	; 0xd3c <Key_Scan+0x182>
		{
			if(KEY.In_Count >= 2) {Timer.Input_Key = 20;}		// Ņ¨ľ”ņ‘∑¬ņŐ 2ļłīŔ łĻņłłť Ņ¨ľ”ņ‘∑¬Ĺ√į£ = 20
     d1a:	80 91 90 4b 	lds	r24, 0x4B90	; 0x804b90 <KEY+0x4>
     d1e:	82 30       	cpi	r24, 0x02	; 2
     d20:	20 f0       	brcs	.+8      	; 0xd2a <Key_Scan+0x170>
     d22:	84 e1       	ldi	r24, 0x14	; 20
     d24:	80 93 71 4b 	sts	0x4B71, r24	; 0x804b71 <Timer>
     d28:	08 95       	ret
			else {Timer.Input_Key = 50; KEY.In_Count++;}		// Ņ¨ľ”ņ‘∑¬ņŐ 2ļłīŔ ņŘņłłť Ņ¨ľ”ņ‘∑¬Ĺ√į£ = 50, Ņ¨ľ”ņ‘∑¬ Ńűį°
     d2a:	82 e3       	ldi	r24, 0x32	; 50
     d2c:	80 93 71 4b 	sts	0x4B71, r24	; 0x804b71 <Timer>
     d30:	ec e8       	ldi	r30, 0x8C	; 140
     d32:	fb e4       	ldi	r31, 0x4B	; 75
     d34:	84 81       	ldd	r24, Z+4	; 0x04
     d36:	8f 5f       	subi	r24, 0xFF	; 255
     d38:	84 83       	std	Z+4, r24	; 0x04
     d3a:	08 95       	ret
		}
		else								// Old Key į™ņŐ New Key į™ņŐ įįŃŲ ĺ ņłłť
		{
			Timer.Input_Key = 50;					// Ņ¨ľ”ņ‘∑¬ = 50
     d3c:	82 e3       	ldi	r24, 0x32	; 50
     d3e:	80 93 71 4b 	sts	0x4B71, r24	; 0x804b71 <Timer>
			KEY.Old = KEY.Key;					// Old Key Ņ° New Key ņķņŚ
     d42:	ec e8       	ldi	r30, 0x8C	; 140
     d44:	fb e4       	ldi	r31, 0x4B	; 75
     d46:	82 81       	ldd	r24, Z+2	; 0x02
     d48:	83 83       	std	Z+3, r24	; 0x03
			KEY.In_Count = 0;					// Ņ¨ľ”ņ‘∑¬ √ Ī‚»≠
     d4a:	14 82       	std	Z+4, r1	; 0x04
     d4c:	08 95       	ret

00000d4e <Read_eeprom>:
	}
}

//=================================================================================================
void Read_eeprom(void)								// EEPROM Data ņ–Ī‚
{
     d4e:	cf 92       	push	r12
     d50:	df 92       	push	r13
     d52:	ef 92       	push	r14
     d54:	ff 92       	push	r15
//-------------------------------------------------------------------------------------------------
//		į‘ņŐ∆ģŅĢņŐ ĪĻĻÝ
//-------------------------------------------------------------------------------------------------
	Gukbun = ee_read_byte(Gateway_Gukbun_Addr);				// į‘ņŐ∆ģŅĢņŐ ĪĻĻÝ ľ≥Ń§į™ ļ“∑ĮŅņĪ‚
     d56:	81 e0       	ldi	r24, 0x01	; 1
     d58:	90 e0       	ldi	r25, 0x00	; 0
     d5a:	0e 94 ce 11 	call	0x239c	; 0x239c <ee_read_byte>
     d5e:	80 93 88 4b 	sts	0x4B88, r24	; 0x804b88 <Gukbun>
	if(Gukbun > 60 || Gukbun == 0)						// į‘ņŐ∆ģŅĢņŐ ĪĻĻÝ ľ≥Ń§į™ņŐ 60ļłīŔ Ň©įŇ≥™ 0įķ įįņłłť
     d62:	81 50       	subi	r24, 0x01	; 1
     d64:	8c 33       	cpi	r24, 0x3C	; 60
     d66:	40 f0       	brcs	.+16     	; 0xd78 <Read_eeprom+0x2a>
	{
		Gukbun = 1;							// į‘ņŐ∆ģŅĢņŐ ĪĻĻÝ į™ņĽ 1∑ő √ Ī‚»≠
     d68:	81 e0       	ldi	r24, 0x01	; 1
     d6a:	80 93 88 4b 	sts	0x4B88, r24	; 0x804b88 <Gukbun>
		ee_write_byte(Gateway_Gukbun_Addr, Gukbun);			// į‘ņŐ∆ģŅĢņŐ ĪĻĻÝ į™ņĽ EEPROM Ņ° ņķņŚ
     d6e:	61 e0       	ldi	r22, 0x01	; 1
     d70:	81 e0       	ldi	r24, 0x01	; 1
     d72:	90 e0       	ldi	r25, 0x00	; 0
     d74:	0e 94 f0 11 	call	0x23e0	; 0x23e0 <ee_write_byte>
	}
//-------------------------------------------------------------------------------------------------
//		į‘ņŐ∆ģŅĢņŐ ID
//-------------------------------------------------------------------------------------------------
	Gwid = ee_read_byte(Gateway_GWID_Addr);					// į‘ņŐ∆ģŅĢņŐ ID ľ≥Ń§į™ ļ“∑ĮŅņĪ‚
     d78:	82 e0       	ldi	r24, 0x02	; 2
     d7a:	90 e0       	ldi	r25, 0x00	; 0
     d7c:	0e 94 ce 11 	call	0x239c	; 0x239c <ee_read_byte>
     d80:	80 93 92 4b 	sts	0x4B92, r24	; 0x804b92 <Gwid>
	if(Gwid > 60 || Gwid == 0)						// į‘ņŐ∆ģŅĢņŐ ID ľ≥Ń§į™ņŐ 60ļłīŔ Ň©įŇ≥™ 0įķ įįņłłť
     d84:	81 50       	subi	r24, 0x01	; 1
     d86:	8c 33       	cpi	r24, 0x3C	; 60
     d88:	40 f0       	brcs	.+16     	; 0xd9a <Read_eeprom+0x4c>
	{
		Gwid = 1;							// į‘ņŐ∆ģŅĢņŐ ID į™ņĽ 1∑ő √ Ī‚»≠
     d8a:	81 e0       	ldi	r24, 0x01	; 1
     d8c:	80 93 92 4b 	sts	0x4B92, r24	; 0x804b92 <Gwid>
		ee_write_byte(Gateway_GWID_Addr, Gwid);				// į‘ņŐ∆ģŅĢņŐ ID į™ņĽ EEPROM Ņ° ņķņŚ
     d90:	61 e0       	ldi	r22, 0x01	; 1
     d92:	82 e0       	ldi	r24, 0x02	; 2
     d94:	90 e0       	ldi	r25, 0x00	; 0
     d96:	0e 94 f0 11 	call	0x23e0	; 0x23e0 <ee_write_byte>
	}
*/
//-------------------------------------------------------------------------------------------------
//		∑őĶŚľŅ ID
//-------------------------------------------------------------------------------------------------
	Cell_ID = ee_read_byte(Cell_ID_Addr);					// ∑őĶŚľŅ ID ľ≥Ń§į™ ļ“∑ĮŅņĪ‚
     d9a:	84 e0       	ldi	r24, 0x04	; 4
     d9c:	90 e0       	ldi	r25, 0x00	; 0
     d9e:	0e 94 ce 11 	call	0x239c	; 0x239c <ee_read_byte>
     da2:	80 93 19 4b 	sts	0x4B19, r24	; 0x804b19 <Cell_ID>
	if(Cell_ID > 60 || Cell_ID < 0)						// ∑őĶŚľŅ ID ľ≥Ń§į™ņŐ 60ļłīŔ Ň©įŇ≥™ 0ļłīŔ ņŘņłłť
     da6:	8d 33       	cpi	r24, 0x3D	; 61
     da8:	40 f0       	brcs	.+16     	; 0xdba <Read_eeprom+0x6c>
	{
		Cell_ID = 1;							// ∑őĶŚľŅ ID į™ņĽ 1∑ő √ Ī‚»≠
     daa:	81 e0       	ldi	r24, 0x01	; 1
     dac:	80 93 19 4b 	sts	0x4B19, r24	; 0x804b19 <Cell_ID>
		ee_write_byte(Cell_ID_Addr, Cell_ID);				// ∑őĶŚľŅ ID į™ņĽ EEPROM Ņ° ņķņŚ
     db0:	61 e0       	ldi	r22, 0x01	; 1
     db2:	84 e0       	ldi	r24, 0x04	; 4
     db4:	90 e0       	ldi	r25, 0x00	; 0
     db6:	0e 94 f0 11 	call	0x23e0	; 0x23e0 <ee_write_byte>
	}
//-------------------------------------------------------------------------------------------------
//		∑őĶŚľŅ ID
//-------------------------------------------------------------------------------------------------
	Cell_CNT = ee_read_byte(Cell_CNT_Addr);					// ∑őĶŚľŅ įĻľŲ ľ≥Ń§į™ ļ“∑ĮŅņĪ‚
     dba:	85 e0       	ldi	r24, 0x05	; 5
     dbc:	90 e0       	ldi	r25, 0x00	; 0
     dbe:	0e 94 ce 11 	call	0x239c	; 0x239c <ee_read_byte>
     dc2:	80 93 bb 4b 	sts	0x4BBB, r24	; 0x804bbb <Cell_CNT>
	if(Cell_CNT > 4 || Cell_CNT < 1)					// ∑őĶŚľŅ įĻľŲ ľ≥Ń§į™ņŐ 8ļłīŔ Ň©įŇ≥™ 2ļłīŔ ņŘņłłť
     dc6:	81 50       	subi	r24, 0x01	; 1
     dc8:	84 30       	cpi	r24, 0x04	; 4
     dca:	40 f0       	brcs	.+16     	; 0xddc <Read_eeprom+0x8e>
	{
		Cell_CNT = 2;							// ∑őĶŚľŅ įĻľŲ ľ≥Ń§į™ņĽ 2∑ő √ Ī‚»≠
     dcc:	82 e0       	ldi	r24, 0x02	; 2
     dce:	80 93 bb 4b 	sts	0x4BBB, r24	; 0x804bbb <Cell_CNT>
		ee_write_byte(Cell_CNT_Addr, Cell_CNT);				// ∑őĶŚľŅ įĻľŲ ľ≥Ń§į™ņĽ EEPROM Ņ° ņķņŚ
     dd2:	62 e0       	ldi	r22, 0x02	; 2
     dd4:	85 e0       	ldi	r24, 0x05	; 5
     dd6:	90 e0       	ldi	r25, 0x00	; 0
     dd8:	0e 94 f0 11 	call	0x23e0	; 0x23e0 <ee_write_byte>
	}
//-------------------------------------------------------------------------------------------------
//		∑őĶŚľŅ CAPA (ŅŽ∑ģ)
//-------------------------------------------------------------------------------------------------
	Cell_Capa = ee_read_word(Cell_Capa_Addr);				// ∑őĶŚľŅ CAPA ľ≥Ń§į™ ļ“∑ĮŅņĪ‚
     ddc:	86 e0       	ldi	r24, 0x06	; 6
     dde:	90 e0       	ldi	r25, 0x00	; 0
     de0:	0e 94 d8 11 	call	0x23b0	; 0x23b0 <ee_read_word>
     de4:	a0 e0       	ldi	r26, 0x00	; 0
     de6:	b0 e0       	ldi	r27, 0x00	; 0
     de8:	80 93 aa 4b 	sts	0x4BAA, r24	; 0x804baa <Cell_Capa>
     dec:	90 93 ab 4b 	sts	0x4BAB, r25	; 0x804bab <Cell_Capa+0x1>
     df0:	a0 93 ac 4b 	sts	0x4BAC, r26	; 0x804bac <Cell_Capa+0x2>
     df4:	b0 93 ad 4b 	sts	0x4BAD, r27	; 0x804bad <Cell_Capa+0x3>
	if(Cell_Capa > 1000 || Cell_Capa < 100)					// ∑őĶŚľŅ CAPA ľ≥Ń§į™ņŐ 1000ļłīŔ Ň©įŇ≥™ 100ļłīŔ ņŘņłłť
     df8:	84 56       	subi	r24, 0x64	; 100
     dfa:	91 09       	sbc	r25, r1
     dfc:	a1 09       	sbc	r26, r1
     dfe:	b1 09       	sbc	r27, r1
     e00:	85 38       	cpi	r24, 0x85	; 133
     e02:	93 40       	sbci	r25, 0x03	; 3
     e04:	a1 05       	cpc	r26, r1
     e06:	b1 05       	cpc	r27, r1
     e08:	90 f0       	brcs	.+36     	; 0xe2e <Read_eeprom+0xe0>
	{
		Cell_Capa = 100;						// ∑őĶŚľŅ CAPA į™ņĽ 100kg∑ő √ Ī‚»≠, įŲ«ŌĪ‚ 1,000ņł∑ő įŤĽÍ 100kg = 100000g
     e0a:	84 e6       	ldi	r24, 0x64	; 100
     e0c:	90 e0       	ldi	r25, 0x00	; 0
     e0e:	a0 e0       	ldi	r26, 0x00	; 0
     e10:	b0 e0       	ldi	r27, 0x00	; 0
     e12:	80 93 aa 4b 	sts	0x4BAA, r24	; 0x804baa <Cell_Capa>
     e16:	90 93 ab 4b 	sts	0x4BAB, r25	; 0x804bab <Cell_Capa+0x1>
     e1a:	a0 93 ac 4b 	sts	0x4BAC, r26	; 0x804bac <Cell_Capa+0x2>
     e1e:	b0 93 ad 4b 	sts	0x4BAD, r27	; 0x804bad <Cell_Capa+0x3>
		ee_write_word(Cell_Capa_Addr, Cell_Capa);			// ∑őĶŚľŅ CAPA į™ņĽ EEPROM Ņ° ņķņŚ
     e22:	64 e6       	ldi	r22, 0x64	; 100
     e24:	70 e0       	ldi	r23, 0x00	; 0
     e26:	86 e0       	ldi	r24, 0x06	; 6
     e28:	90 e0       	ldi	r25, 0x00	; 0
     e2a:	0e 94 13 12 	call	0x2426	; 0x2426 <ee_write_word>
	}
//-------------------------------------------------------------------------------------------------
//		∑őĶŚľŅ RO (Ń§į›√‚∑¬)
//-------------------------------------------------------------------------------------------------
	Cell_RO = ee_read_dword(Cell_RO_Addr);					// ∑őĶŚľŅ RO ľ≥Ń§į™ ļ“∑ĮŅņĪ‚
     e2e:	8c e0       	ldi	r24, 0x0C	; 12
     e30:	90 e0       	ldi	r25, 0x00	; 0
     e32:	0e 94 e3 11 	call	0x23c6	; 0x23c6 <ee_read_dword>
     e36:	0e 94 8d 33 	call	0x671a	; 0x671a <__floatunsisf>
     e3a:	6b 01       	movw	r12, r22
     e3c:	7c 01       	movw	r14, r24
     e3e:	60 93 93 4b 	sts	0x4B93, r22	; 0x804b93 <Cell_RO>
     e42:	70 93 94 4b 	sts	0x4B94, r23	; 0x804b94 <Cell_RO+0x1>
     e46:	80 93 95 4b 	sts	0x4B95, r24	; 0x804b95 <Cell_RO+0x2>
     e4a:	90 93 96 4b 	sts	0x4B96, r25	; 0x804b96 <Cell_RO+0x3>
	if(Cell_RO > 90000 || Cell_RO < 10000)					// ∑őĶŚľŅ RO ľ≥Ń§į™ņŐ 9.000mVļłīŔ Ň©įŇ≥™ 3.000mVļłīŔ ņŘņłłť
     e4e:	20 e0       	ldi	r18, 0x00	; 0
     e50:	38 ec       	ldi	r19, 0xC8	; 200
     e52:	4f ea       	ldi	r20, 0xAF	; 175
     e54:	57 e4       	ldi	r21, 0x47	; 71
     e56:	0e 94 3f 34 	call	0x687e	; 0x687e <__gesf2>
     e5a:	18 16       	cp	r1, r24
     e5c:	54 f0       	brlt	.+20     	; 0xe72 <Read_eeprom+0x124>
     e5e:	20 e0       	ldi	r18, 0x00	; 0
     e60:	30 e4       	ldi	r19, 0x40	; 64
     e62:	4c e1       	ldi	r20, 0x1C	; 28
     e64:	56 e4       	ldi	r21, 0x46	; 70
     e66:	c7 01       	movw	r24, r14
     e68:	b6 01       	movw	r22, r12
     e6a:	0e 94 e0 32 	call	0x65c0	; 0x65c0 <__cmpsf2>
     e6e:	88 23       	and	r24, r24
     e70:	a4 f4       	brge	.+40     	; 0xe9a <Read_eeprom+0x14c>
	{
		Cell_RO = 40000;						// ∑őĶŚľŅ RO į™ņĽ 4.000mV∑ő √ Ī‚»≠, ≥™ī©Ī‚ 10,000ņł∑ő įŤĽÍ
     e72:	80 e0       	ldi	r24, 0x00	; 0
     e74:	90 e4       	ldi	r25, 0x40	; 64
     e76:	ac e1       	ldi	r26, 0x1C	; 28
     e78:	b7 e4       	ldi	r27, 0x47	; 71
     e7a:	80 93 93 4b 	sts	0x4B93, r24	; 0x804b93 <Cell_RO>
     e7e:	90 93 94 4b 	sts	0x4B94, r25	; 0x804b94 <Cell_RO+0x1>
     e82:	a0 93 95 4b 	sts	0x4B95, r26	; 0x804b95 <Cell_RO+0x2>
     e86:	b0 93 96 4b 	sts	0x4B96, r27	; 0x804b96 <Cell_RO+0x3>
		ee_write_dword(Cell_RO_Addr, Cell_RO);				// ∑őĶŚľŅ RO į™ņĽ EEPROM Ņ° ņķņŚ
     e8a:	40 e4       	ldi	r20, 0x40	; 64
     e8c:	5c e9       	ldi	r21, 0x9C	; 156
     e8e:	60 e0       	ldi	r22, 0x00	; 0
     e90:	70 e0       	ldi	r23, 0x00	; 0
     e92:	8c e0       	ldi	r24, 0x0C	; 12
     e94:	90 e0       	ldi	r25, 0x00	; 0
     e96:	0e 94 30 12 	call	0x2460	; 0x2460 <ee_write_dword>
	}
//-------------------------------------------------------------------------------------------------
//		ņ‘Īł √ľŃŖ
//-------------------------------------------------------------------------------------------------
	IN_Scales = ee_read_word(Cell_IN_S_Addr);				// ņ‘Īł √ľŃŖ ľ≥Ń§į™ ļ“∑ĮŅņĪ‚
     e9a:	88 e0       	ldi	r24, 0x08	; 8
     e9c:	90 e0       	ldi	r25, 0x00	; 0
     e9e:	0e 94 d8 11 	call	0x23b0	; 0x23b0 <ee_read_word>
     ea2:	80 93 41 4b 	sts	0x4B41, r24	; 0x804b41 <IN_Scales>
     ea6:	90 93 42 4b 	sts	0x4B42, r25	; 0x804b42 <IN_Scales+0x1>
	if(IN_Scales > 10000 || IN_Scales < 10)					// ņ‘Īł √ľŃŖ ľ≥Ń§į™ņŐ 10000g(10Kg)ļłīŔ Ň©įŇ≥™ 10gļłīŔ ņŘņłłť
     eaa:	0a 97       	sbiw	r24, 0x0a	; 10
     eac:	87 30       	cpi	r24, 0x07	; 7
     eae:	97 42       	sbci	r25, 0x27	; 39
     eb0:	60 f0       	brcs	.+24     	; 0xeca <Read_eeprom+0x17c>
	{
		IN_Scales = 500;						// ņ‘Īł √ľŃŖ į™ņĽ 500ņł∑ő √ Ī‚»≠ (500g)
     eb2:	84 ef       	ldi	r24, 0xF4	; 244
     eb4:	91 e0       	ldi	r25, 0x01	; 1
     eb6:	80 93 41 4b 	sts	0x4B41, r24	; 0x804b41 <IN_Scales>
     eba:	90 93 42 4b 	sts	0x4B42, r25	; 0x804b42 <IN_Scales+0x1>
		ee_write_word(Cell_IN_S_Addr, IN_Scales);			// ņ‘Īł √ľŃŖ į™ņĽ EEPROM Ņ° ņķņŚ
     ebe:	64 ef       	ldi	r22, 0xF4	; 244
     ec0:	71 e0       	ldi	r23, 0x01	; 1
     ec2:	88 e0       	ldi	r24, 0x08	; 8
     ec4:	90 e0       	ldi	r25, 0x00	; 0
     ec6:	0e 94 13 12 	call	0x2426	; 0x2426 <ee_write_word>
	}
//-------------------------------------------------------------------------------------------------
//		∑őĶŚľŅ ļłŃ§ į™
//-------------------------------------------------------------------------------------------------
	Interval = ee_read_word(Cell_Interval_Addr);				// ∑őĶŚľŅ ļłŃ§ į™ ļ“∑ĮŅņĪ‚
     eca:	8a e0       	ldi	r24, 0x0A	; 10
     ecc:	90 e0       	ldi	r25, 0x00	; 0
     ece:	0e 94 d8 11 	call	0x23b0	; 0x23b0 <ee_read_word>
     ed2:	80 93 a0 4b 	sts	0x4BA0, r24	; 0x804ba0 <Interval>
     ed6:	90 93 a1 4b 	sts	0x4BA1, r25	; 0x804ba1 <Interval+0x1>
	if((Interval > 99) || (Interval < -99))					// ∑őĶŚľŅ ļłŃ§ į™ņŐ 99ļłīŔ Ň©įŇ≥™ -99ļłīŔ ņŘņłłť
     eda:	8d 59       	subi	r24, 0x9D	; 157
     edc:	9f 4f       	sbci	r25, 0xFF	; 255
     ede:	87 3c       	cpi	r24, 0xC7	; 199
     ee0:	91 05       	cpc	r25, r1
     ee2:	50 f0       	brcs	.+20     	; 0xef8 <Read_eeprom+0x1aa>
	{
		Interval = 0;							// ∑őĶŚľŅ ļłŃ§ į™ņĽ 0 ņł∑ő √ Ī‚»≠
     ee4:	10 92 a0 4b 	sts	0x4BA0, r1	; 0x804ba0 <Interval>
     ee8:	10 92 a1 4b 	sts	0x4BA1, r1	; 0x804ba1 <Interval+0x1>
		ee_write_word(Cell_Interval_Addr, Interval);			// ∑őĶŚľŅ ļłŃ§ į™ņĽ EEPROM Ņ° ņķņŚ
     eec:	60 e0       	ldi	r22, 0x00	; 0
     eee:	70 e0       	ldi	r23, 0x00	; 0
     ef0:	8a e0       	ldi	r24, 0x0A	; 10
     ef2:	90 e0       	ldi	r25, 0x00	; 0
     ef4:	0e 94 13 12 	call	0x2426	; 0x2426 <ee_write_word>
	}
//-------------------------------------------------------------------------------------------------
//		RTC √ Ī‚»≠
//-------------------------------------------------------------------------------------------------
	RTC_Time_Read();
     ef8:	0e 94 b3 26 	call	0x4d66	; 0x4d66 <RTC_Time_Read>
	if(RTC_T.Sec > 59)							// √  į™ņŐ 59 ļłīŔ Ň©łť
     efc:	80 91 78 4b 	lds	r24, 0x4B78	; 0x804b78 <RTC_T>
     f00:	8c 33       	cpi	r24, 0x3C	; 60
     f02:	28 f0       	brcs	.+10     	; 0xf0e <Read_eeprom+0x1c0>
	{
		RTC_Time_Write(RTC_SECOND, 0);					// RTC Ņ° 00√  ņķņŚ
     f04:	60 e0       	ldi	r22, 0x00	; 0
     f06:	80 e0       	ldi	r24, 0x00	; 0
     f08:	0e 94 ee 26 	call	0x4ddc	; 0x4ddc <RTC_Time_Write>
     f0c:	ff cf       	rjmp	.-2      	; 0xf0c <Read_eeprom+0x1be>
		while(1);							// RTC į° √ Ī‚»≠ Ķ«ŃŲ ĺ ĺ∆ ņ÷ņłłť CPU ReSet
	}
//-------------------------------------------------------------------------------------------------
	if(RTC_T.Year == 0)							// ≥‚ į™ņŐ 00 ņŐłť
     f0e:	80 91 7e 4b 	lds	r24, 0x4B7E	; 0x804b7e <RTC_T+0x6>
     f12:	81 11       	cpse	r24, r1
     f14:	1c c0       	rjmp	.+56     	; 0xf4e <Read_eeprom+0x200>
	{
		RTC_Time_Write(RTC_YEAR,      22);				// RTC Ņ° 22≥‚   ņķņŚ
     f16:	66 e1       	ldi	r22, 0x16	; 22
     f18:	86 e0       	ldi	r24, 0x06	; 6
     f1a:	0e 94 ee 26 	call	0x4ddc	; 0x4ddc <RTC_Time_Write>
		RTC_Time_Write(RTC_MONTH,      9);				// RTC Ņ° 09Ņý   ņķņŚ
     f1e:	69 e0       	ldi	r22, 0x09	; 9
     f20:	85 e0       	ldi	r24, 0x05	; 5
     f22:	0e 94 ee 26 	call	0x4ddc	; 0x4ddc <RTC_Time_Write>
		RTC_Time_Write(RTC_DATE,      20);				// RTC Ņ° 20ņŌ   ņķņŚ
     f26:	64 e1       	ldi	r22, 0x14	; 20
     f28:	84 e0       	ldi	r24, 0x04	; 4
     f2a:	0e 94 ee 26 	call	0x4ddc	; 0x4ddc <RTC_Time_Write>
		RTC_Time_Write(RTC_DAYOFWEEK,  3);				// RTC Ņ° 03ŅšņŌ ņķņŚ
     f2e:	63 e0       	ldi	r22, 0x03	; 3
     f30:	83 e0       	ldi	r24, 0x03	; 3
     f32:	0e 94 ee 26 	call	0x4ddc	; 0x4ddc <RTC_Time_Write>
		RTC_Time_Write(RTC_HOUR,      12);				// RTC Ņ° 12Ĺ√   ņķņŚ
     f36:	6c e0       	ldi	r22, 0x0C	; 12
     f38:	82 e0       	ldi	r24, 0x02	; 2
     f3a:	0e 94 ee 26 	call	0x4ddc	; 0x4ddc <RTC_Time_Write>
		RTC_Time_Write(RTC_MINUTE,     0);				// RTC Ņ° 00ļ–   ņķņŚ
     f3e:	60 e0       	ldi	r22, 0x00	; 0
     f40:	81 e0       	ldi	r24, 0x01	; 1
     f42:	0e 94 ee 26 	call	0x4ddc	; 0x4ddc <RTC_Time_Write>
		RTC_Time_Write(RTC_SECOND,     0);				// RTC Ņ° 00√    ņķņŚ
     f46:	60 e0       	ldi	r22, 0x00	; 0
     f48:	80 e0       	ldi	r24, 0x00	; 0
     f4a:	0e 94 ee 26 	call	0x4ddc	; 0x4ddc <RTC_Time_Write>
	}
}
     f4e:	ff 90       	pop	r15
     f50:	ef 90       	pop	r14
     f52:	df 90       	pop	r13
     f54:	cf 90       	pop	r12
     f56:	08 95       	ret

00000f58 <Alarm>:

//=================================================================================================
void Alarm(void)								// ĺň∂ų(ļŮ«Ń 3ĻÝ) 
{
	Beep(15);								// 1mSec X 15 = 15mSec
     f58:	8f e0       	ldi	r24, 0x0F	; 15
     f5a:	90 e0       	ldi	r25, 0x00	; 0
     f5c:	0e 94 3b 04 	call	0x876	; 0x876 <Beep>
	#else
		//round up by default
		__ticks_dc = (uint32_t)(ceil(fabs(__tmp)));
	#endif

	__builtin_avr_delay_cycles(__ticks_dc);
     f60:	26 e6       	ldi	r18, 0x66	; 102
     f62:	86 e6       	ldi	r24, 0x66	; 102
     f64:	95 e0       	ldi	r25, 0x05	; 5
     f66:	21 50       	subi	r18, 0x01	; 1
     f68:	80 40       	sbci	r24, 0x00	; 0
     f6a:	90 40       	sbci	r25, 0x00	; 0
     f6c:	e1 f7       	brne	.-8      	; 0xf66 <Alarm+0xe>
	_delay_ms(120);								// Time Delay  120mSec
	Beep(15);								// 1mSec X 15 = 15mSec
     f6e:	8f e0       	ldi	r24, 0x0F	; 15
     f70:	90 e0       	ldi	r25, 0x00	; 0
     f72:	0e 94 3b 04 	call	0x876	; 0x876 <Beep>
     f76:	26 e6       	ldi	r18, 0x66	; 102
     f78:	86 e6       	ldi	r24, 0x66	; 102
     f7a:	95 e0       	ldi	r25, 0x05	; 5
     f7c:	21 50       	subi	r18, 0x01	; 1
     f7e:	80 40       	sbci	r24, 0x00	; 0
     f80:	90 40       	sbci	r25, 0x00	; 0
     f82:	e1 f7       	brne	.-8      	; 0xf7c <Alarm+0x24>
	_delay_ms(120);								// Time Delay  120mSec
	Beep(15);								// 1mSec X 15 = 15mSec
     f84:	8f e0       	ldi	r24, 0x0F	; 15
     f86:	90 e0       	ldi	r25, 0x00	; 0
     f88:	0e 94 3b 04 	call	0x876	; 0x876 <Beep>
     f8c:	08 95       	ret

00000f8e <Room_Desplay>:
	Alarm();
}

//=================================================================================================
void Room_Desplay(void)								// Ļś ĻÝ»£ «•Ĺ√
{
     f8e:	cf 93       	push	r28
     f90:	df 93       	push	r29
	DIGIT[1][3] = FND_OFF;							// FND 1 Ņ° Ļś ĻÝ»£ «•Ĺ√
     f92:	ad e7       	ldi	r26, 0x7D	; 125
     f94:	b1 e4       	ldi	r27, 0x41	; 65
     f96:	17 96       	adiw	r26, 0x07	; 7
     f98:	1c 92       	st	X, r1
     f9a:	17 97       	sbiw	r26, 0x07	; 7
	DIGIT[1][2] = fnd_tbl[SAVE.RoomNum / 100];
     f9c:	cf e0       	ldi	r28, 0x0F	; 15
     f9e:	d4 e4       	ldi	r29, 0x44	; 68
     fa0:	98 81       	ld	r25, Y
     fa2:	89 e2       	ldi	r24, 0x29	; 41
     fa4:	98 02       	muls	r25, r24
     fa6:	e1 2d       	mov	r30, r1
     fa8:	11 24       	eor	r1, r1
     faa:	e5 95       	asr	r30
     fac:	e5 95       	asr	r30
     fae:	e5 95       	asr	r30
     fb0:	e5 95       	asr	r30
     fb2:	97 fd       	sbrc	r25, 7
     fb4:	e3 95       	inc	r30
     fb6:	0e 2e       	mov	r0, r30
     fb8:	00 0c       	add	r0, r0
     fba:	ff 0b       	sbc	r31, r31
     fbc:	e9 5b       	subi	r30, 0xB9	; 185
     fbe:	fe 4b       	sbci	r31, 0xBE	; 190
     fc0:	90 81       	ld	r25, Z
     fc2:	16 96       	adiw	r26, 0x06	; 6
     fc4:	9c 93       	st	X, r25
     fc6:	16 97       	sbiw	r26, 0x06	; 6
	DIGIT[1][1] = fnd_tbl[SAVE.RoomNum % 100 / 10];
     fc8:	98 81       	ld	r25, Y
     fca:	98 02       	muls	r25, r24
     fcc:	81 2d       	mov	r24, r1
     fce:	11 24       	eor	r1, r1
     fd0:	85 95       	asr	r24
     fd2:	85 95       	asr	r24
     fd4:	85 95       	asr	r24
     fd6:	85 95       	asr	r24
     fd8:	97 fd       	sbrc	r25, 7
     fda:	83 95       	inc	r24
     fdc:	24 e6       	ldi	r18, 0x64	; 100
     fde:	82 9f       	mul	r24, r18
     fe0:	90 19       	sub	r25, r0
     fe2:	11 24       	eor	r1, r1
     fe4:	87 e6       	ldi	r24, 0x67	; 103
     fe6:	98 02       	muls	r25, r24
     fe8:	e1 2d       	mov	r30, r1
     fea:	11 24       	eor	r1, r1
     fec:	e5 95       	asr	r30
     fee:	e5 95       	asr	r30
     ff0:	97 fd       	sbrc	r25, 7
     ff2:	e3 95       	inc	r30
     ff4:	0e 2e       	mov	r0, r30
     ff6:	00 0c       	add	r0, r0
     ff8:	ff 0b       	sbc	r31, r31
     ffa:	e9 5b       	subi	r30, 0xB9	; 185
     ffc:	fe 4b       	sbci	r31, 0xBE	; 190
     ffe:	90 81       	ld	r25, Z
    1000:	15 96       	adiw	r26, 0x05	; 5
    1002:	9c 93       	st	X, r25
    1004:	15 97       	sbiw	r26, 0x05	; 5
	DIGIT[1][0] = fnd_tbl[SAVE.RoomNum % 10];
    1006:	e8 81       	ld	r30, Y
    1008:	e8 02       	muls	r30, r24
    100a:	81 2d       	mov	r24, r1
    100c:	11 24       	eor	r1, r1
    100e:	85 95       	asr	r24
    1010:	85 95       	asr	r24
    1012:	e7 fd       	sbrc	r30, 7
    1014:	83 95       	inc	r24
    1016:	88 0f       	add	r24, r24
    1018:	98 2f       	mov	r25, r24
    101a:	99 0f       	add	r25, r25
    101c:	99 0f       	add	r25, r25
    101e:	89 0f       	add	r24, r25
    1020:	e8 1b       	sub	r30, r24
    1022:	0e 2e       	mov	r0, r30
    1024:	00 0c       	add	r0, r0
    1026:	ff 0b       	sbc	r31, r31
    1028:	e9 5b       	subi	r30, 0xB9	; 185
    102a:	fe 4b       	sbci	r31, 0xBE	; 190
    102c:	80 81       	ld	r24, Z
    102e:	14 96       	adiw	r26, 0x04	; 4
    1030:	8c 93       	st	X, r24
}
    1032:	df 91       	pop	r29
    1034:	cf 91       	pop	r28
    1036:	08 95       	ret

00001038 <Stal_Desplay>:
//-------------------------------------------------------------------------------------------------
void Stal_Desplay(void)								// ĹļŇÁ ĻÝ»£ «•Ĺ√
{
    1038:	cf 93       	push	r28
    103a:	df 93       	push	r29
	DIGIT[2][3] = FND_OFF;							// FND 2 Ņ° ĹļŇÁ ĻÝ»£ «•Ĺ√
    103c:	ad e7       	ldi	r26, 0x7D	; 125
    103e:	b1 e4       	ldi	r27, 0x41	; 65
    1040:	1b 96       	adiw	r26, 0x0b	; 11
    1042:	1c 92       	st	X, r1
    1044:	1b 97       	sbiw	r26, 0x0b	; 11
	DIGIT[2][2] = fnd_tbl[SAVE.StalNum / 100];
    1046:	c0 e1       	ldi	r28, 0x10	; 16
    1048:	d4 e4       	ldi	r29, 0x44	; 68
    104a:	98 81       	ld	r25, Y
    104c:	89 e2       	ldi	r24, 0x29	; 41
    104e:	98 02       	muls	r25, r24
    1050:	e1 2d       	mov	r30, r1
    1052:	11 24       	eor	r1, r1
    1054:	e5 95       	asr	r30
    1056:	e5 95       	asr	r30
    1058:	e5 95       	asr	r30
    105a:	e5 95       	asr	r30
    105c:	97 fd       	sbrc	r25, 7
    105e:	e3 95       	inc	r30
    1060:	0e 2e       	mov	r0, r30
    1062:	00 0c       	add	r0, r0
    1064:	ff 0b       	sbc	r31, r31
    1066:	e9 5b       	subi	r30, 0xB9	; 185
    1068:	fe 4b       	sbci	r31, 0xBE	; 190
    106a:	90 81       	ld	r25, Z
    106c:	1a 96       	adiw	r26, 0x0a	; 10
    106e:	9c 93       	st	X, r25
    1070:	1a 97       	sbiw	r26, 0x0a	; 10
	DIGIT[2][1] = fnd_tbl[SAVE.StalNum % 100 / 10];
    1072:	98 81       	ld	r25, Y
    1074:	98 02       	muls	r25, r24
    1076:	81 2d       	mov	r24, r1
    1078:	11 24       	eor	r1, r1
    107a:	85 95       	asr	r24
    107c:	85 95       	asr	r24
    107e:	85 95       	asr	r24
    1080:	85 95       	asr	r24
    1082:	97 fd       	sbrc	r25, 7
    1084:	83 95       	inc	r24
    1086:	24 e6       	ldi	r18, 0x64	; 100
    1088:	82 9f       	mul	r24, r18
    108a:	90 19       	sub	r25, r0
    108c:	11 24       	eor	r1, r1
    108e:	87 e6       	ldi	r24, 0x67	; 103
    1090:	98 02       	muls	r25, r24
    1092:	e1 2d       	mov	r30, r1
    1094:	11 24       	eor	r1, r1
    1096:	e5 95       	asr	r30
    1098:	e5 95       	asr	r30
    109a:	97 fd       	sbrc	r25, 7
    109c:	e3 95       	inc	r30
    109e:	0e 2e       	mov	r0, r30
    10a0:	00 0c       	add	r0, r0
    10a2:	ff 0b       	sbc	r31, r31
    10a4:	e9 5b       	subi	r30, 0xB9	; 185
    10a6:	fe 4b       	sbci	r31, 0xBE	; 190
    10a8:	90 81       	ld	r25, Z
    10aa:	19 96       	adiw	r26, 0x09	; 9
    10ac:	9c 93       	st	X, r25
    10ae:	19 97       	sbiw	r26, 0x09	; 9
	DIGIT[2][0] = fnd_tbl[SAVE.StalNum % 10];
    10b0:	e8 81       	ld	r30, Y
    10b2:	e8 02       	muls	r30, r24
    10b4:	81 2d       	mov	r24, r1
    10b6:	11 24       	eor	r1, r1
    10b8:	85 95       	asr	r24
    10ba:	85 95       	asr	r24
    10bc:	e7 fd       	sbrc	r30, 7
    10be:	83 95       	inc	r24
    10c0:	88 0f       	add	r24, r24
    10c2:	98 2f       	mov	r25, r24
    10c4:	99 0f       	add	r25, r25
    10c6:	99 0f       	add	r25, r25
    10c8:	89 0f       	add	r24, r25
    10ca:	e8 1b       	sub	r30, r24
    10cc:	0e 2e       	mov	r0, r30
    10ce:	00 0c       	add	r0, r0
    10d0:	ff 0b       	sbc	r31, r31
    10d2:	e9 5b       	subi	r30, 0xB9	; 185
    10d4:	fe 4b       	sbci	r31, 0xBE	; 190
    10d6:	80 81       	ld	r24, Z
    10d8:	18 96       	adiw	r26, 0x08	; 8
    10da:	8c 93       	st	X, r24
}
    10dc:	df 91       	pop	r29
    10de:	cf 91       	pop	r28
    10e0:	08 95       	ret

000010e2 <Check_Value>:

//=================================================================================================
void Check_Value(void)								// ∑őĶŚľŅ √ľŃŖ√ÝŃ§
{
    10e2:	8f 92       	push	r8
    10e4:	9f 92       	push	r9
    10e6:	af 92       	push	r10
    10e8:	bf 92       	push	r11
    10ea:	cf 92       	push	r12
    10ec:	df 92       	push	r13
    10ee:	ef 92       	push	r14
    10f0:	ff 92       	push	r15
    10f2:	0f 93       	push	r16
    10f4:	1f 93       	push	r17
    10f6:	cf 93       	push	r28
    10f8:	df 93       	push	r29
	uint32_t Value = Read_Load_Cell();					// ∑őĶŚľŅ √ÝŃ§į™ ņ–Ī‚
    10fa:	0e 94 a2 18 	call	0x3144	; 0x3144 <Read_Load_Cell>
    10fe:	ec 01       	movw	r28, r24
    1100:	6c 01       	movw	r12, r24
    1102:	e1 2c       	mov	r14, r1
    1104:	f1 2c       	mov	r15, r1
	uint32_t Old_Value = CELL.Old_Value;					// ∑őĶŚľŅ Old_Value į™
    1106:	80 91 5f 4b 	lds	r24, 0x4B5F	; 0x804b5f <CELL+0x5>
    110a:	90 91 60 4b 	lds	r25, 0x4B60	; 0x804b60 <CELL+0x6>
    110e:	a0 91 61 4b 	lds	r26, 0x4B61	; 0x804b61 <CELL+0x7>
    1112:	b0 91 62 4b 	lds	r27, 0x4B62	; 0x804b62 <CELL+0x8>
//-------------------------------------------------------------------------------------------------
	if(Value)								// √ÝŃ§√ľŃŖņŐ ņ÷ņłłť
    1116:	c1 14       	cp	r12, r1
    1118:	d1 04       	cpc	r13, r1
    111a:	e1 04       	cpc	r14, r1
    111c:	f1 04       	cpc	r15, r1
    111e:	09 f4       	brne	.+2      	; 0x1122 <Check_Value+0x40>
    1120:	12 c1       	rjmp	.+548    	; 0x1346 <Check_Value+0x264>
	{
// 		if((Timer.Limit_Timer >= 500) & ((Value <= Old_Value + Admit_Weight) & (Value >= Old_Value - Admit_Weight)))
		if((Value <= Old_Value + Admit_Weight) & (Value >= Old_Value - Admit_Weight))
    1122:	ac 01       	movw	r20, r24
    1124:	bd 01       	movw	r22, r26
    1126:	4e 5c       	subi	r20, 0xCE	; 206
    1128:	5f 4f       	sbci	r21, 0xFF	; 255
    112a:	6f 4f       	sbci	r22, 0xFF	; 255
    112c:	7f 4f       	sbci	r23, 0xFF	; 255
    112e:	c2 97       	sbiw	r24, 0x32	; 50
    1130:	a1 09       	sbc	r26, r1
    1132:	b1 09       	sbc	r27, r1
    1134:	31 e0       	ldi	r19, 0x01	; 1
    1136:	4c 15       	cp	r20, r12
    1138:	5d 05       	cpc	r21, r13
    113a:	6e 05       	cpc	r22, r14
    113c:	7f 05       	cpc	r23, r15
    113e:	08 f4       	brcc	.+2      	; 0x1142 <Check_Value+0x60>
    1140:	30 e0       	ldi	r19, 0x00	; 0
    1142:	21 e0       	ldi	r18, 0x01	; 1
    1144:	c8 16       	cp	r12, r24
    1146:	d9 06       	cpc	r13, r25
    1148:	ea 06       	cpc	r14, r26
    114a:	fb 06       	cpc	r15, r27
    114c:	08 f4       	brcc	.+2      	; 0x1150 <Check_Value+0x6e>
    114e:	20 e0       	ldi	r18, 0x00	; 0
    1150:	23 23       	and	r18, r19
    1152:	09 f4       	brne	.+2      	; 0x1156 <Check_Value+0x74>
    1154:	d6 c0       	rjmp	.+428    	; 0x1302 <Check_Value+0x220>
		{								// ņŐņŁ√ľŃŖņŐ √ÝŃ§√ľŃŖįķ ņőŃű√ľŃŖ(50x10g)ņĽ īű«—į™įķ įįįŇ≥™ ņŘįŪ ņőŃű√ľŃŖ(50x10g)ņĽ Ľęį™įķ įįįŇ≥™ Ň©łťľ≠ ņŐņŁ√ľŃŖįķ įįņłłť
			OK_Count++;						// √ÝŃ§√ľŃŖ OK Count Ńűį°
    1156:	80 91 91 4b 	lds	r24, 0x4B91	; 0x804b91 <OK_Count>
    115a:	8f 5f       	subi	r24, 0xFF	; 255
    115c:	80 93 91 4b 	sts	0x4B91, r24	; 0x804b91 <OK_Count>
			if(OK_Count > 3)					// √ÝŃ§√ľŃŖ OK Count į° 3ļłīŔ Ň©łť
    1160:	84 30       	cpi	r24, 0x04	; 4
    1162:	08 f4       	brcc	.+2      	; 0x1166 <Check_Value+0x84>
    1164:	b2 c0       	rjmp	.+356    	; 0x12ca <Check_Value+0x1e8>
			{
				FND_Value_Data(1, 1, 10);			// FND 1 FND_MINUS «•Ĺ√
    1166:	4a e0       	ldi	r20, 0x0A	; 10
    1168:	61 e0       	ldi	r22, 0x01	; 1
    116a:	81 e0       	ldi	r24, 0x01	; 1
    116c:	0e 94 c3 05 	call	0xb86	; 0xb86 <FND_Value_Data>

				if(SET.Save)					// ņķņŚ Key į° ī≠∑»ņłłť
    1170:	80 91 4c 4b 	lds	r24, 0x4B4C	; 0x804b4c <SET+0x4>
    1174:	88 23       	and	r24, r24
    1176:	09 f4       	brne	.+2      	; 0x117a <Check_Value+0x98>
    1178:	88 c0       	rjmp	.+272    	; 0x128a <Check_Value+0x1a8>
				{
					if(SAVE.Count < 299) {SAVE.Count++;}	// ņķņŚ»ĹľŲ į° 0 ~ 299(300į≥)ļłīŔ ņŘņłłť ņķņŚ»ĹľŲ Ńűį°
    117a:	80 91 b5 41 	lds	r24, 0x41B5	; 0x8041b5 <SAVE>
    117e:	90 91 b6 41 	lds	r25, 0x41B6	; 0x8041b6 <SAVE+0x1>
    1182:	8b 32       	cpi	r24, 0x2B	; 43
    1184:	91 40       	sbci	r25, 0x01	; 1
    1186:	40 f4       	brcc	.+16     	; 0x1198 <Check_Value+0xb6>
    1188:	e5 eb       	ldi	r30, 0xB5	; 181
    118a:	f1 e4       	ldi	r31, 0x41	; 65
    118c:	80 81       	ld	r24, Z
    118e:	91 81       	ldd	r25, Z+1	; 0x01
    1190:	01 96       	adiw	r24, 0x01	; 1
    1192:	80 83       	st	Z, r24
    1194:	91 83       	std	Z+1, r25	; 0x01
    1196:	04 c0       	rjmp	.+8      	; 0x11a0 <Check_Value+0xbe>
					else                 {SAVE.Count = 0;}	// ĺ∆īŌłť ņķņŚ»ĹľŲ Ńűį°
    1198:	10 92 b5 41 	sts	0x41B5, r1	; 0x8041b5 <SAVE>
    119c:	10 92 b6 41 	sts	0x41B6, r1	; 0x8041b6 <SAVE+0x1>

					SAVE.Data [SAVE.Count] = CELL.Value = Value + Interval;
    11a0:	05 eb       	ldi	r16, 0xB5	; 181
    11a2:	11 e4       	ldi	r17, 0x41	; 65
    11a4:	d8 01       	movw	r26, r16
    11a6:	2d 91       	ld	r18, X+
    11a8:	3c 91       	ld	r19, X
    11aa:	80 91 a0 4b 	lds	r24, 0x4BA0	; 0x804ba0 <Interval>
    11ae:	90 91 a1 4b 	lds	r25, 0x4BA1	; 0x804ba1 <Interval+0x1>
    11b2:	09 2e       	mov	r0, r25
    11b4:	00 0c       	add	r0, r0
    11b6:	aa 0b       	sbc	r26, r26
    11b8:	bb 0b       	sbc	r27, r27
    11ba:	8c 0d       	add	r24, r12
    11bc:	9d 1d       	adc	r25, r13
    11be:	ae 1d       	adc	r26, r14
    11c0:	bf 1d       	adc	r27, r15
    11c2:	0f 2e       	mov	r0, r31
    11c4:	fa e5       	ldi	r31, 0x5A	; 90
    11c6:	8f 2e       	mov	r8, r31
    11c8:	fb e4       	ldi	r31, 0x4B	; 75
    11ca:	9f 2e       	mov	r9, r31
    11cc:	f0 2d       	mov	r31, r0
    11ce:	f4 01       	movw	r30, r8
    11d0:	81 83       	std	Z+1, r24	; 0x01
    11d2:	92 83       	std	Z+2, r25	; 0x02
    11d4:	a3 83       	std	Z+3, r26	; 0x03
    11d6:	b4 83       	std	Z+4, r27	; 0x04
    11d8:	f9 01       	movw	r30, r18
    11da:	31 96       	adiw	r30, 0x01	; 1
    11dc:	ee 0f       	add	r30, r30
    11de:	ff 1f       	adc	r31, r31
    11e0:	eb 54       	subi	r30, 0x4B	; 75
    11e2:	fe 4b       	sbci	r31, 0xBE	; 190
    11e4:	80 83       	st	Z, r24
    11e6:	91 83       	std	Z+1, r25	; 0x01
					SAVE.Year [SAVE.Count] = RTC_Single_Read(RTC_YEAR);	// YEAR
    11e8:	d8 01       	movw	r26, r16
    11ea:	ad 90       	ld	r10, X+
    11ec:	bc 90       	ld	r11, X
    11ee:	86 e0       	ldi	r24, 0x06	; 6
    11f0:	0e 94 a4 26 	call	0x4d48	; 0x4d48 <RTC_Single_Read>
    11f4:	f5 01       	movw	r30, r10
    11f6:	ef 5e       	subi	r30, 0xEF	; 239
    11f8:	fb 4b       	sbci	r31, 0xBB	; 187
    11fa:	80 83       	st	Z, r24
					SAVE.Month[SAVE.Count] = RTC_Single_Read(RTC_MONTH);	// MONTH
    11fc:	f8 01       	movw	r30, r16
    11fe:	a0 80       	ld	r10, Z
    1200:	b1 80       	ldd	r11, Z+1	; 0x01
    1202:	85 e0       	ldi	r24, 0x05	; 5
    1204:	0e 94 a4 26 	call	0x4d48	; 0x4d48 <RTC_Single_Read>
    1208:	f5 01       	movw	r30, r10
    120a:	e3 5c       	subi	r30, 0xC3	; 195
    120c:	fa 4b       	sbci	r31, 0xBA	; 186
    120e:	80 83       	st	Z, r24
					SAVE.Date [SAVE.Count] = RTC_Single_Read(RTC_DATE);	// DATE
    1210:	d8 01       	movw	r26, r16
    1212:	ad 90       	ld	r10, X+
    1214:	bc 90       	ld	r11, X
    1216:	84 e0       	ldi	r24, 0x04	; 4
    1218:	0e 94 a4 26 	call	0x4d48	; 0x4d48 <RTC_Single_Read>
    121c:	f5 01       	movw	r30, r10
    121e:	e7 59       	subi	r30, 0x97	; 151
    1220:	f9 4b       	sbci	r31, 0xB9	; 185
    1222:	80 83       	st	Z, r24
					SAVE.Hour [SAVE.Count] = RTC_Single_Read(RTC_HOUR);	// HOUR
    1224:	f8 01       	movw	r30, r16
    1226:	a0 80       	ld	r10, Z
    1228:	b1 80       	ldd	r11, Z+1	; 0x01
    122a:	82 e0       	ldi	r24, 0x02	; 2
    122c:	0e 94 a4 26 	call	0x4d48	; 0x4d48 <RTC_Single_Read>
    1230:	f5 01       	movw	r30, r10
    1232:	eb 56       	subi	r30, 0x6B	; 107
    1234:	f8 4b       	sbci	r31, 0xB8	; 184
    1236:	80 83       	st	Z, r24
					SAVE.Min  [SAVE.Count] = RTC_Single_Read(RTC_MINUTE);	// MINUTE
    1238:	d8 01       	movw	r26, r16
    123a:	ad 90       	ld	r10, X+
    123c:	bc 90       	ld	r11, X
    123e:	81 e0       	ldi	r24, 0x01	; 1
    1240:	0e 94 a4 26 	call	0x4d48	; 0x4d48 <RTC_Single_Read>
    1244:	f5 01       	movw	r30, r10
    1246:	ef 53       	subi	r30, 0x3F	; 63
    1248:	f7 4b       	sbci	r31, 0xB7	; 183
    124a:	80 83       	st	Z, r24
					SAVE.Sec  [SAVE.Count] = RTC_Single_Read(RTC_SECOND);	// SECOND
    124c:	f8 01       	movw	r30, r16
    124e:	a0 80       	ld	r10, Z
    1250:	b1 80       	ldd	r11, Z+1	; 0x01
    1252:	80 e0       	ldi	r24, 0x00	; 0
    1254:	0e 94 a4 26 	call	0x4d48	; 0x4d48 <RTC_Single_Read>
    1258:	f5 01       	movw	r30, r10
    125a:	e3 51       	subi	r30, 0x13	; 19
    125c:	f6 4b       	sbci	r31, 0xB6	; 182
    125e:	80 83       	st	Z, r24

					CELL.Zero_Buff = 0;
    1260:	d4 01       	movw	r26, r8
    1262:	1c 92       	st	X, r1
					SET.Save = 0;
    1264:	10 92 4c 4b 	sts	0x4B4C, r1	; 0x804b4c <SET+0x4>
					printf("SAVE.Count = %d \r\n", SAVE.Count);
    1268:	f8 01       	movw	r30, r16
    126a:	80 81       	ld	r24, Z
    126c:	91 81       	ldd	r25, Z+1	; 0x01
    126e:	9f 93       	push	r25
    1270:	8f 93       	push	r24
    1272:	88 e4       	ldi	r24, 0x48	; 72
    1274:	90 e4       	ldi	r25, 0x40	; 64
    1276:	9f 93       	push	r25
    1278:	8f 93       	push	r24
    127a:	0e 94 4d 3b 	call	0x769a	; 0x769a <printf>

					Alarm();
    127e:	0e 94 ac 07 	call	0xf58	; 0xf58 <Alarm>
    1282:	0f 90       	pop	r0
    1284:	0f 90       	pop	r0
    1286:	0f 90       	pop	r0
    1288:	0f 90       	pop	r0
				}

				OK_Count = 0;					// √ÝŃ§√ľŃŖ OK Count √ Ī‚»≠
    128a:	10 92 91 4b 	sts	0x4B91, r1	; 0x804b91 <OK_Count>
				Stal_Desplay();					// ĹļŇÁ ĻÝ»£ «•Ĺ√
    128e:	0e 94 1c 08 	call	0x1038	; 0x1038 <Stal_Desplay>
				printf("Value %ld \r\n", Value + Interval);
    1292:	80 91 a0 4b 	lds	r24, 0x4BA0	; 0x804ba0 <Interval>
    1296:	90 91 a1 4b 	lds	r25, 0x4BA1	; 0x804ba1 <Interval+0x1>
    129a:	09 2e       	mov	r0, r25
    129c:	00 0c       	add	r0, r0
    129e:	aa 0b       	sbc	r26, r26
    12a0:	bb 0b       	sbc	r27, r27
    12a2:	8c 0d       	add	r24, r12
    12a4:	9d 1d       	adc	r25, r13
    12a6:	ae 1d       	adc	r26, r14
    12a8:	bf 1d       	adc	r27, r15
    12aa:	bf 93       	push	r27
    12ac:	af 93       	push	r26
    12ae:	9f 93       	push	r25
    12b0:	8f 93       	push	r24
    12b2:	8b e5       	ldi	r24, 0x5B	; 91
    12b4:	90 e4       	ldi	r25, 0x40	; 64
    12b6:	9f 93       	push	r25
    12b8:	8f 93       	push	r24
    12ba:	0e 94 4d 3b 	call	0x769a	; 0x769a <printf>
    12be:	0f 90       	pop	r0
    12c0:	0f 90       	pop	r0
    12c2:	0f 90       	pop	r0
    12c4:	0f 90       	pop	r0
    12c6:	0f 90       	pop	r0
    12c8:	0f 90       	pop	r0
			}
			CELL.Old_Value = Old_Value = Value;
    12ca:	ce 01       	movw	r24, r28
    12cc:	a0 e0       	ldi	r26, 0x00	; 0
    12ce:	b0 e0       	ldi	r27, 0x00	; 0
    12d0:	ea e5       	ldi	r30, 0x5A	; 90
    12d2:	fb e4       	ldi	r31, 0x4B	; 75
    12d4:	85 83       	std	Z+5, r24	; 0x05
    12d6:	96 83       	std	Z+6, r25	; 0x06
    12d8:	a7 83       	std	Z+7, r26	; 0x07
    12da:	b0 87       	std	Z+8, r27	; 0x08
			CELL.Value = Value + Interval;
    12dc:	80 91 a0 4b 	lds	r24, 0x4BA0	; 0x804ba0 <Interval>
    12e0:	90 91 a1 4b 	lds	r25, 0x4BA1	; 0x804ba1 <Interval+0x1>
    12e4:	09 2e       	mov	r0, r25
    12e6:	00 0c       	add	r0, r0
    12e8:	aa 0b       	sbc	r26, r26
    12ea:	bb 0b       	sbc	r27, r27
    12ec:	c8 0e       	add	r12, r24
    12ee:	d9 1e       	adc	r13, r25
    12f0:	ea 1e       	adc	r14, r26
    12f2:	fb 1e       	adc	r15, r27
    12f4:	c1 82       	std	Z+1, r12	; 0x01
    12f6:	d2 82       	std	Z+2, r13	; 0x02
    12f8:	e3 82       	std	Z+3, r14	; 0x03
    12fa:	f4 82       	std	Z+4, r15	; 0x04
			Cell_Desplay();
    12fc:	0e 94 eb 16 	call	0x2dd6	; 0x2dd6 <Cell_Desplay>
    1300:	45 c0       	rjmp	.+138    	; 0x138c <Check_Value+0x2aa>
		}
		else	// ņŐņŁ√ľŃŖņŐ √ÝŃ§√ľŃŖįķ ņőŃű√ľŃŖ(50x10g)ņĽ īű«—į™įķ įįįŇ≥™ ņŘįŪ ņőŃű√ľŃŖ(50x10g)ņĽ Ľęį™įķ įįįŇ≥™ Ň©łťľ≠ ņŐņŁ√ľŃŖįķ įįŃŲ ĺ ņłłť
		{
			CELL.Old_Value = Old_Value = Value;			// ņŐņŁ√ľŃŖŅ° √ÝŃ§√ľŃŖ ņķņŚ
    1302:	ce 01       	movw	r24, r28
    1304:	a0 e0       	ldi	r26, 0x00	; 0
    1306:	b0 e0       	ldi	r27, 0x00	; 0
    1308:	ea e5       	ldi	r30, 0x5A	; 90
    130a:	fb e4       	ldi	r31, 0x4B	; 75
    130c:	85 83       	std	Z+5, r24	; 0x05
    130e:	96 83       	std	Z+6, r25	; 0x06
    1310:	a7 83       	std	Z+7, r26	; 0x07
    1312:	b0 87       	std	Z+8, r27	; 0x08
			CELL.Value = Value + Interval;
    1314:	80 91 a0 4b 	lds	r24, 0x4BA0	; 0x804ba0 <Interval>
    1318:	90 91 a1 4b 	lds	r25, 0x4BA1	; 0x804ba1 <Interval+0x1>
    131c:	09 2e       	mov	r0, r25
    131e:	00 0c       	add	r0, r0
    1320:	aa 0b       	sbc	r26, r26
    1322:	bb 0b       	sbc	r27, r27
    1324:	c8 0e       	add	r12, r24
    1326:	d9 1e       	adc	r13, r25
    1328:	ea 1e       	adc	r14, r26
    132a:	fb 1e       	adc	r15, r27
    132c:	c1 82       	std	Z+1, r12	; 0x01
    132e:	d2 82       	std	Z+2, r13	; 0x02
    1330:	e3 82       	std	Z+3, r14	; 0x03
    1332:	f4 82       	std	Z+4, r15	; 0x04
			Zero_Count = 0;
    1334:	10 92 ae 4b 	sts	0x4BAE, r1	; 0x804bae <Zero_Count>

			OK_Count = 0;						// √ÝŃ§√ľŃŖ OK Count √ Ī‚»≠
    1338:	10 92 91 4b 	sts	0x4B91, r1	; 0x804b91 <OK_Count>
			Room_Desplay();						// Ļś ĻÝ»£ «•Ĺ√
    133c:	0e 94 c7 07 	call	0xf8e	; 0xf8e <Room_Desplay>
			Cell_Desplay();						// ∑őĶŚľŅ Ļęį‘ «•Ĺ√
    1340:	0e 94 eb 16 	call	0x2dd6	; 0x2dd6 <Cell_Desplay>
    1344:	23 c0       	rjmp	.+70     	; 0x138c <Check_Value+0x2aa>
		}
	}
	else									// √ÝŃ§√ľŃŖņŐ ĺÝłť
	{
		Zero_Count++;							// Zero_Count Ńűį°
    1346:	80 91 ae 4b 	lds	r24, 0x4BAE	; 0x804bae <Zero_Count>
    134a:	8f 5f       	subi	r24, 0xFF	; 255
    134c:	80 93 ae 4b 	sts	0x4BAE, r24	; 0x804bae <Zero_Count>
		if(Zero_Count > 3)						// Zero_Count ņŐ 2ļłīŔ Ň©łť
    1350:	84 30       	cpi	r24, 0x04	; 4
    1352:	e0 f0       	brcs	.+56     	; 0x138c <Check_Value+0x2aa>
		{
			CELL.Old_Value = 0;					// ņŐņŁ√ÝŃ§√ľŃŖ √ Ī‚»≠
    1354:	ea e5       	ldi	r30, 0x5A	; 90
    1356:	fb e4       	ldi	r31, 0x4B	; 75
    1358:	15 82       	std	Z+5, r1	; 0x05
    135a:	16 82       	std	Z+6, r1	; 0x06
    135c:	17 82       	std	Z+7, r1	; 0x07
    135e:	10 86       	std	Z+8, r1	; 0x08
			CELL.Value = Value;
    1360:	ce 01       	movw	r24, r28
    1362:	a0 e0       	ldi	r26, 0x00	; 0
    1364:	b0 e0       	ldi	r27, 0x00	; 0
    1366:	81 83       	std	Z+1, r24	; 0x01
    1368:	92 83       	std	Z+2, r25	; 0x02
    136a:	a3 83       	std	Z+3, r26	; 0x03
    136c:	b4 83       	std	Z+4, r27	; 0x04
			CELL.Zero_Buff = 0;					// CELL.Zero_Buff √ Ī‚»≠
    136e:	10 82       	st	Z, r1
			Zero_Count = 0;						// Zero_Count √ Ī‚»≠
    1370:	10 92 ae 4b 	sts	0x4BAE, r1	; 0x804bae <Zero_Count>
			OK_Count = 0;						// OK_Count √ Ī‚»≠
    1374:	10 92 91 4b 	sts	0x4B91, r1	; 0x804b91 <OK_Count>
			
			if(!SET.Save) {Stal_Desplay();}				// Save łūĶŚį° ĺ∆īŌłť ĹļŇÁ ĻÝ»£ «•Ĺ√
    1378:	80 91 4c 4b 	lds	r24, 0x4B4C	; 0x804b4c <SET+0x4>
    137c:	81 11       	cpse	r24, r1
    137e:	02 c0       	rjmp	.+4      	; 0x1384 <Check_Value+0x2a2>
    1380:	0e 94 1c 08 	call	0x1038	; 0x1038 <Stal_Desplay>
			Room_Desplay();						// Ļś ĻÝ»£ «•Ĺ√
    1384:	0e 94 c7 07 	call	0xf8e	; 0xf8e <Room_Desplay>
			Cell_Desplay();						// √ÝŃ§√ľŃŖ «•Ĺ√
    1388:	0e 94 eb 16 	call	0x2dd6	; 0x2dd6 <Cell_Desplay>
		}
	}
}
    138c:	df 91       	pop	r29
    138e:	cf 91       	pop	r28
    1390:	1f 91       	pop	r17
    1392:	0f 91       	pop	r16
    1394:	ff 90       	pop	r15
    1396:	ef 90       	pop	r14
    1398:	df 90       	pop	r13
    139a:	cf 90       	pop	r12
    139c:	bf 90       	pop	r11
    139e:	af 90       	pop	r10
    13a0:	9f 90       	pop	r9
    13a2:	8f 90       	pop	r8
    13a4:	08 95       	ret

000013a6 <Send_To_Server_0>:
//=================================================================================================
//		PC∑ő Ķ•ņŐŇÕ ņŁľŘ (20į≥ √ÝŃ§√ľŃŖ Data)
//=================================================================================================
// void Send_To_Server(uint8_t Number, uint8_t id)				// PC∑ő Ķ•ņŐŇÕ ņŁľŘ (20į≥ √ÝŃ§√ľŃŖ Data)
void Send_To_Server_0(void)							// PC∑ő Ķ•ņŐŇÕ ņŁľŘ (1»ł 1į≥ĺŅ ņŁľŘ : √ÝŃ§√ľŃŖ Data)
{
    13a6:	1f 93       	push	r17
    13a8:	cf 93       	push	r28
    13aa:	df 93       	push	r29
    13ac:	cd b7       	in	r28, 0x3d	; 61
    13ae:	de b7       	in	r29, 0x3e	; 62
    13b0:	6e 97       	sbiw	r28, 0x1e	; 30
    13b2:	cd bf       	out	0x3d, r28	; 61
    13b4:	de bf       	out	0x3e, r29	; 62
	uint8_t cnt = 0;							// cnt ļĮľŲ √ Ī‚»≠
	uint8_t ChkSum = 0;							// ChkSum ļĮľŲ √ Ī‚»≠
	char SerialData[30] = {0};						// SerialData[30] ĻŲ∆Ř ľĪĺū
    13b6:	8e e1       	ldi	r24, 0x1E	; 30
    13b8:	fe 01       	movw	r30, r28
    13ba:	31 96       	adiw	r30, 0x01	; 1
    13bc:	df 01       	movw	r26, r30
    13be:	98 2f       	mov	r25, r24
    13c0:	1d 92       	st	X+, r1
    13c2:	9a 95       	dec	r25
    13c4:	e9 f7       	brne	.-6      	; 0x13c0 <Send_To_Server_0+0x1a>
	static uint16_t CommCnt	= 0;

	memset(SerialData, 0x00, sizeof(SerialData));				// ĻŲ∆Ř √ Ī‚»≠
    13c6:	df 01       	movw	r26, r30
    13c8:	1d 92       	st	X+, r1
    13ca:	8a 95       	dec	r24
    13cc:	e9 f7       	brne	.-6      	; 0x13c8 <Send_To_Server_0+0x22>
// 	GetWeightHistoryRecord_EEPROM(commCnt++);

	if(CommCnt < SAVE.Count) {CommCnt++;}
    13ce:	20 91 b5 41 	lds	r18, 0x41B5	; 0x8041b5 <SAVE>
    13d2:	30 91 b6 41 	lds	r19, 0x41B6	; 0x8041b6 <SAVE+0x1>
    13d6:	80 91 7a 41 	lds	r24, 0x417A	; 0x80417a <__data_end>
    13da:	90 91 7b 41 	lds	r25, 0x417B	; 0x80417b <__data_end+0x1>
    13de:	82 17       	cp	r24, r18
    13e0:	93 07       	cpc	r25, r19
    13e2:	30 f4       	brcc	.+12     	; 0x13f0 <Send_To_Server_0+0x4a>
    13e4:	01 96       	adiw	r24, 0x01	; 1
    13e6:	80 93 7a 41 	sts	0x417A, r24	; 0x80417a <__data_end>
    13ea:	90 93 7b 41 	sts	0x417B, r25	; 0x80417b <__data_end+0x1>
    13ee:	04 c0       	rjmp	.+8      	; 0x13f8 <Send_To_Server_0+0x52>
	else			 {CommCnt = 0;}
    13f0:	10 92 7a 41 	sts	0x417A, r1	; 0x80417a <__data_end>
    13f4:	10 92 7b 41 	sts	0x417B, r1	; 0x80417b <__data_end+0x1>

//-------------------------------------------------------------------------------------------------
//		Serial Protocol Start
//-------------------------------------------------------------------------------------------------
	SerialData[cnt++] = STX_Iontec;						// STX_Iontec : 0xF0			// 0
    13f8:	80 ef       	ldi	r24, 0xF0	; 240
    13fa:	89 83       	std	Y+1, r24	; 0x01
	SerialData[cnt++] = CTL2PC;						// Ķ•ņŐŇÕĻś«‚
	SerialData[cnt++] = SORTING_MOVE;					// 21 ņŚļŮĪ‚Ńĺ : ņŐĶŅ«Ł ľĪļįĪ‚(∆ųņĮņŕĶ∑, ļŮņįĶ∑)
    13fc:	85 e1       	ldi	r24, 0x15	; 21
    13fe:	8b 83       	std	Y+3, r24	; 0x03
	SerialData[cnt++] = Cell_ID;						// ņŚļŮid (Cell_ID)
    1400:	80 91 19 4b 	lds	r24, 0x4B19	; 0x804b19 <Cell_ID>
    1404:	8c 83       	std	Y+4, r24	; 0x04
	SerialData[cnt++] = CD_STATUS;						// 0 : Īłļ–ńŕĶŚ (Ĺ«Ĺ√į£ĽůŇ¬ Ń§ļł) 

	SerialData[cnt++] = FW_VER;						// Protocol Version			// 5
    1406:	89 e2       	ldi	r24, 0x29	; 41
    1408:	8e 83       	std	Y+6, r24	; 0x06
	SerialData[cnt++] = Gwid;						// GWID
    140a:	80 91 92 4b 	lds	r24, 0x4B92	; 0x804b92 <Gwid>
    140e:	8f 83       	std	Y+7, r24	; 0x07
	SerialData[cnt++] = 0x00;						// į≥√ľľÝĻÝ
	SerialData[cnt++] = 0x00;						// ņŕĶŅ 1 / ľŲĶŅ 0
	SerialData[cnt++] = 0x02;						// Ļęį‘ ľ“ľŲŃ° ĽÁŅŽ:1, Ļęį‘ ľ“ľŲŃ° ĻŐĽÁŅŽ:0, 10gī‹ņß:2
    1410:	82 e0       	ldi	r24, 0x02	; 2
    1412:	8a 87       	std	Y+10, r24	; 0x0a

	SerialData[cnt++] = SAVE.Count / 256;					// √ÝŃ§»ĹľŲ Ľůņß			// 10
    1414:	e5 eb       	ldi	r30, 0xB5	; 181
    1416:	f1 e4       	ldi	r31, 0x41	; 65
    1418:	80 81       	ld	r24, Z
    141a:	91 81       	ldd	r25, Z+1	; 0x01
    141c:	9b 87       	std	Y+11, r25	; 0x0b
	SerialData[cnt++] = SAVE.Count % 256;					// √ÝŃ§»ĹľŲ «Ōņß
    141e:	80 81       	ld	r24, Z
    1420:	91 81       	ldd	r25, Z+1	; 0x01
    1422:	8c 87       	std	Y+12, r24	; 0x0c
	SerialData[cnt++] = SAVE.Data[CommCnt] / 256;				// √ÝŃ§Ļęį‘ [CommCnt] Ľůņß
    1424:	20 91 7a 41 	lds	r18, 0x417A	; 0x80417a <__data_end>
    1428:	30 91 7b 41 	lds	r19, 0x417B	; 0x80417b <__data_end+0x1>
    142c:	f9 01       	movw	r30, r18
    142e:	31 96       	adiw	r30, 0x01	; 1
    1430:	ee 0f       	add	r30, r30
    1432:	ff 1f       	adc	r31, r31
    1434:	eb 54       	subi	r30, 0x4B	; 75
    1436:	fe 4b       	sbci	r31, 0xBE	; 190
    1438:	80 81       	ld	r24, Z
    143a:	91 81       	ldd	r25, Z+1	; 0x01
    143c:	9d 87       	std	Y+13, r25	; 0x0d
	SerialData[cnt++] = SAVE.Data[CommCnt] % 256;				// √ÝŃ§Ļęį‘ [CommCnt] «Ōņß
    143e:	80 81       	ld	r24, Z
    1440:	91 81       	ldd	r25, Z+1	; 0x01
    1442:	8e 87       	std	Y+14, r24	; 0x0e

	SerialData[cnt++] = SAVE.RoomNum;					// Ļś ĻÝ»£
    1444:	80 91 0f 44 	lds	r24, 0x440F	; 0x80440f <SAVE+0x25a>
    1448:	8f 87       	std	Y+15, r24	; 0x0f
	SerialData[cnt++] = SAVE.StalNum;					// ĹļŇÁ ĻÝ»£				// 15
    144a:	80 91 10 44 	lds	r24, 0x4410	; 0x804410 <SAVE+0x25b>
    144e:	88 8b       	std	Y+16, r24	; 0x10

	SerialData[cnt++] = SAVE.Year[CommCnt];					// √ÝŃ§ ≥‚ [CommCnt]
    1450:	c9 01       	movw	r24, r18
    1452:	8b 54       	subi	r24, 0x4B	; 75
    1454:	9e 4b       	sbci	r25, 0xBE	; 190
    1456:	fc 01       	movw	r30, r24
    1458:	e4 5a       	subi	r30, 0xA4	; 164
    145a:	fd 4f       	sbci	r31, 0xFD	; 253
    145c:	40 81       	ld	r20, Z
    145e:	49 8b       	std	Y+17, r20	; 0x11
	SerialData[cnt++] = SAVE.Month[CommCnt];				// √ÝŃ§ Ņý [CommCnt]
    1460:	e4 5d       	subi	r30, 0xD4	; 212
    1462:	fe 4f       	sbci	r31, 0xFE	; 254
    1464:	40 81       	ld	r20, Z
    1466:	4a 8b       	std	Y+18, r20	; 0x12
	SerialData[cnt++] = SAVE.Date[CommCnt];					// √ÝŃ§ ņŌ [CommCnt]
    1468:	e4 5d       	subi	r30, 0xD4	; 212
    146a:	fe 4f       	sbci	r31, 0xFE	; 254
    146c:	40 81       	ld	r20, Z
    146e:	4b 8b       	std	Y+19, r20	; 0x13
	SerialData[cnt++] = SAVE.Hour[CommCnt];					// √ÝŃ§ Ĺ√ [CommCnt]
    1470:	e4 5d       	subi	r30, 0xD4	; 212
    1472:	fe 4f       	sbci	r31, 0xFE	; 254
    1474:	40 81       	ld	r20, Z
    1476:	4c 8b       	std	Y+20, r20	; 0x14
	SerialData[cnt++] = SAVE.Min[CommCnt];					// √ÝŃ§ ļ– [CommCnt]			// 20
    1478:	e4 5d       	subi	r30, 0xD4	; 212
    147a:	fe 4f       	sbci	r31, 0xFE	; 254
    147c:	40 81       	ld	r20, Z
    147e:	4d 8b       	std	Y+21, r20	; 0x15
	SerialData[cnt++] = SAVE.Sec[CommCnt];					// √ÝŃ§ √  [CommCnt]
    1480:	e4 5d       	subi	r30, 0xD4	; 212
    1482:	fe 4f       	sbci	r31, 0xFE	; 254
    1484:	80 81       	ld	r24, Z
    1486:	8e 8b       	std	Y+22, r24	; 0x16

	SerialData[cnt++] = CommCnt / 256;					// Data ľÝĻÝ Ľůņß
    1488:	3f 8b       	std	Y+23, r19	; 0x17
	SerialData[cnt++] = CommCnt % 256;					// Data ľÝĻÝ «Ōņß
    148a:	28 8f       	std	Y+24, r18	; 0x18
	SerialData[cnt++] = 0x00;						// ŅĻļŮ
	SerialData[cnt++] = 0x00;						// ŅĻļŮ					// 25
	SerialData[cnt++] = 0x00;						// ŅĻļŮ
	SerialData[cnt++] = 0x00;						// ŅĻļŮ

	for(uint8_t icnt2 = 1; icnt2 < cnt; icnt2++) {ChkSum += SerialData[icnt2];}	// √ľŇ©Ĺś įŤĽÍ
    148c:	81 e0       	ldi	r24, 0x01	; 1
//=================================================================================================
// void Send_To_Server(uint8_t Number, uint8_t id)				// PC∑ő Ķ•ņŐŇÕ ņŁľŘ (20į≥ √ÝŃ§√ľŃŖ Data)
void Send_To_Server_0(void)							// PC∑ő Ķ•ņŐŇÕ ņŁľŘ (1»ł 1į≥ĺŅ ņŁľŘ : √ÝŃ§√ľŃŖ Data)
{
	uint8_t cnt = 0;							// cnt ļĮľŲ √ Ī‚»≠
	uint8_t ChkSum = 0;							// ChkSum ļĮľŲ √ Ī‚»≠
    148e:	90 e0       	ldi	r25, 0x00	; 0
	SerialData[cnt++] = 0x00;						// ŅĻļŮ
	SerialData[cnt++] = 0x00;						// ŅĻļŮ					// 25
	SerialData[cnt++] = 0x00;						// ŅĻļŮ
	SerialData[cnt++] = 0x00;						// ŅĻļŮ

	for(uint8_t icnt2 = 1; icnt2 < cnt; icnt2++) {ChkSum += SerialData[icnt2];}	// √ľŇ©Ĺś įŤĽÍ
    1490:	09 c0       	rjmp	.+18     	; 0x14a4 <Send_To_Server_0+0xfe>
    1492:	e1 e0       	ldi	r30, 0x01	; 1
    1494:	f0 e0       	ldi	r31, 0x00	; 0
    1496:	ec 0f       	add	r30, r28
    1498:	fd 1f       	adc	r31, r29
    149a:	e8 0f       	add	r30, r24
    149c:	f1 1d       	adc	r31, r1
    149e:	20 81       	ld	r18, Z
    14a0:	92 0f       	add	r25, r18
    14a2:	8f 5f       	subi	r24, 0xFF	; 255
    14a4:	8c 31       	cpi	r24, 0x1C	; 28
    14a6:	a8 f3       	brcs	.-22     	; 0x1492 <Send_To_Server_0+0xec>
	SerialData[cnt++] = ChkSum;						// √ľŇ©Ĺś				// 28
    14a8:	9d 8f       	std	Y+29, r25	; 0x1d
	SerialData[cnt++] = ETX_Iontec;						// ETX_Iontec : 0xF1			// 29
    14aa:	81 ef       	ldi	r24, 0xF1	; 241
    14ac:	8e 8f       	std	Y+30, r24	; 0x1e
//-------------------------------------------------------------------------------------------------
//		Serial Protocol End
//-------------------------------------------------------------------------------------------------
	for(uint8_t j = 0; j < cnt; j++) {USART3_Write(SerialData[j]);}		// SerialData ľŲłłŇ≠ ľŘĹŇ
    14ae:	10 e0       	ldi	r17, 0x00	; 0
    14b0:	0a c0       	rjmp	.+20     	; 0x14c6 <Send_To_Server_0+0x120>
    14b2:	e1 e0       	ldi	r30, 0x01	; 1
    14b4:	f0 e0       	ldi	r31, 0x00	; 0
    14b6:	ec 0f       	add	r30, r28
    14b8:	fd 1f       	adc	r31, r29
    14ba:	e1 0f       	add	r30, r17
    14bc:	f1 1d       	adc	r31, r1
    14be:	80 81       	ld	r24, Z
    14c0:	0e 94 9f 2a 	call	0x553e	; 0x553e <USART3_Write>
    14c4:	1f 5f       	subi	r17, 0xFF	; 255
    14c6:	1e 31       	cpi	r17, 0x1E	; 30
    14c8:	a0 f3       	brcs	.-24     	; 0x14b2 <Send_To_Server_0+0x10c>
}
    14ca:	6e 96       	adiw	r28, 0x1e	; 30
    14cc:	cd bf       	out	0x3d, r28	; 61
    14ce:	de bf       	out	0x3e, r29	; 62
    14d0:	df 91       	pop	r29
    14d2:	cf 91       	pop	r28
    14d4:	1f 91       	pop	r17
    14d6:	08 95       	ret

000014d8 <Send_To_Server_1>:
//=================================================================================================
//		PC∑ő Ķ•ņŐŇÕ ņŁľŘ (ľ≥Ń§Ń§ļł īšļĮ)
//=================================================================================================
// void Send_To_Server_1(uint8_t ID, uint8_t Code)				// PC∑ő Ķ•ņŐŇÕ ņŁľŘ (ľ≥Ń§Ń§ļł īšļĮ)
void Send_To_Server_1(uint8_t Code)						// PC∑ő Ķ•ņŐŇÕ ņŁľŘ (ľ≥Ń§Ń§ļł īšļĮ)
{
    14d8:	1f 93       	push	r17
    14da:	cf 93       	push	r28
    14dc:	df 93       	push	r29
    14de:	cd b7       	in	r28, 0x3d	; 61
    14e0:	de b7       	in	r29, 0x3e	; 62
    14e2:	2a 97       	sbiw	r28, 0x0a	; 10
    14e4:	cd bf       	out	0x3d, r28	; 61
    14e6:	de bf       	out	0x3e, r29	; 62
	uint8_t cnt = 0;							// cnt ļĮľŲ √ Ī‚»≠
	uint8_t ChkSum = 0;							// ChkSum ļĮľŲ √ Ī‚»≠
	char SerialData[10] = {};						// SerialData[10] ĻŲ∆Ř ľĪĺū
    14e8:	9a e0       	ldi	r25, 0x0A	; 10
    14ea:	fe 01       	movw	r30, r28
    14ec:	31 96       	adiw	r30, 0x01	; 1
    14ee:	df 01       	movw	r26, r30
    14f0:	29 2f       	mov	r18, r25
    14f2:	1d 92       	st	X+, r1
    14f4:	2a 95       	dec	r18
    14f6:	e9 f7       	brne	.-6      	; 0x14f2 <Send_To_Server_1+0x1a>
	memset(SerialData, 0x00, sizeof(SerialData));				// ĻŲ∆Ř √ Ī‚»≠
    14f8:	df 01       	movw	r26, r30
    14fa:	1d 92       	st	X+, r1
    14fc:	9a 95       	dec	r25
    14fe:	e9 f7       	brne	.-6      	; 0x14fa <Send_To_Server_1+0x22>
//-------------------------------------------------------------------------------------------------
//		Serial Protocol Start
//-------------------------------------------------------------------------------------------------
	SerialData[cnt++] = STX_Iontec;						// STX_Iontec : 0xF0			// 0
    1500:	90 ef       	ldi	r25, 0xF0	; 240
    1502:	99 83       	std	Y+1, r25	; 0x01
	SerialData[cnt++] = CTL2PC;						// Ķ•ņŐŇÕĻś«‚
	SerialData[cnt++] = SORTING_MOVE;					// 21 ņŚļŮĪ‚Ńĺ : ņŐĶŅ«Ł ľĪļįĪ‚(∆ųņĮņŕĶ∑, ļŮņįĶ∑)
    1504:	95 e1       	ldi	r25, 0x15	; 21
    1506:	9b 83       	std	Y+3, r25	; 0x03
	SerialData[cnt++] = Cell_ID;						// ņŚļŮid (Cell_ID)
    1508:	90 91 19 4b 	lds	r25, 0x4B19	; 0x804b19 <Cell_ID>
    150c:	9c 83       	std	Y+4, r25	; 0x04
	SerialData[cnt++] = Code;						// Īłļ–ńŕĶŚ
    150e:	8d 83       	std	Y+5, r24	; 0x05

	SerialData[cnt++] = FW_VER;						// Protocol Version			// 5
    1510:	89 e2       	ldi	r24, 0x29	; 41
    1512:	8e 83       	std	Y+6, r24	; 0x06
	SerialData[cnt++] = Gwid;						// GWID
    1514:	80 91 92 4b 	lds	r24, 0x4B92	; 0x804b92 <Gwid>
    1518:	8f 83       	std	Y+7, r24	; 0x07
	SerialData[cnt++] = 0x00;						// res
	for(uint8_t icnt2 = 1; icnt2 < cnt; icnt2++) {ChkSum += SerialData[icnt2];}	// √ľŇ©Ĺś įŤĽÍ
    151a:	81 e0       	ldi	r24, 0x01	; 1
//=================================================================================================
// void Send_To_Server_1(uint8_t ID, uint8_t Code)				// PC∑ő Ķ•ņŐŇÕ ņŁľŘ (ľ≥Ń§Ń§ļł īšļĮ)
void Send_To_Server_1(uint8_t Code)						// PC∑ő Ķ•ņŐŇÕ ņŁľŘ (ľ≥Ń§Ń§ļł īšļĮ)
{
	uint8_t cnt = 0;							// cnt ļĮľŲ √ Ī‚»≠
	uint8_t ChkSum = 0;							// ChkSum ļĮľŲ √ Ī‚»≠
    151c:	90 e0       	ldi	r25, 0x00	; 0
	SerialData[cnt++] = Code;						// Īłļ–ńŕĶŚ

	SerialData[cnt++] = FW_VER;						// Protocol Version			// 5
	SerialData[cnt++] = Gwid;						// GWID
	SerialData[cnt++] = 0x00;						// res
	for(uint8_t icnt2 = 1; icnt2 < cnt; icnt2++) {ChkSum += SerialData[icnt2];}	// √ľŇ©Ĺś įŤĽÍ
    151e:	09 c0       	rjmp	.+18     	; 0x1532 <Send_To_Server_1+0x5a>
    1520:	e1 e0       	ldi	r30, 0x01	; 1
    1522:	f0 e0       	ldi	r31, 0x00	; 0
    1524:	ec 0f       	add	r30, r28
    1526:	fd 1f       	adc	r31, r29
    1528:	e8 0f       	add	r30, r24
    152a:	f1 1d       	adc	r31, r1
    152c:	20 81       	ld	r18, Z
    152e:	92 0f       	add	r25, r18
    1530:	8f 5f       	subi	r24, 0xFF	; 255
    1532:	88 30       	cpi	r24, 0x08	; 8
    1534:	a8 f3       	brcs	.-22     	; 0x1520 <Send_To_Server_1+0x48>
	SerialData[cnt++] = ChkSum;											// 8
    1536:	99 87       	std	Y+9, r25	; 0x09
	SerialData[cnt++] = ETX_Iontec;						// ETX_Iontec : 0xF1			// 9
    1538:	81 ef       	ldi	r24, 0xF1	; 241
    153a:	8a 87       	std	Y+10, r24	; 0x0a
//-------------------------------------------------------------------------------------------------
//		Serial Protocol End
//-------------------------------------------------------------------------------------------------
	for(uint8_t j = 0; j < cnt; j++) {USART3_Write(SerialData[j]);}		// SerialData ľŲłłŇ≠ ľŘĹŇ
    153c:	10 e0       	ldi	r17, 0x00	; 0
    153e:	0a c0       	rjmp	.+20     	; 0x1554 <Send_To_Server_1+0x7c>
    1540:	e1 e0       	ldi	r30, 0x01	; 1
    1542:	f0 e0       	ldi	r31, 0x00	; 0
    1544:	ec 0f       	add	r30, r28
    1546:	fd 1f       	adc	r31, r29
    1548:	e1 0f       	add	r30, r17
    154a:	f1 1d       	adc	r31, r1
    154c:	80 81       	ld	r24, Z
    154e:	0e 94 9f 2a 	call	0x553e	; 0x553e <USART3_Write>
    1552:	1f 5f       	subi	r17, 0xFF	; 255
    1554:	1a 30       	cpi	r17, 0x0A	; 10
    1556:	a0 f3       	brcs	.-24     	; 0x1540 <Send_To_Server_1+0x68>
}
    1558:	2a 96       	adiw	r28, 0x0a	; 10
    155a:	cd bf       	out	0x3d, r28	; 61
    155c:	de bf       	out	0x3e, r29	; 62
    155e:	df 91       	pop	r29
    1560:	cf 91       	pop	r28
    1562:	1f 91       	pop	r17
    1564:	08 95       	ret

00001566 <Receiv_PC>:

//=================================================================================================
//		PC∑ő ļőŇÕ Ķ•ņŐŇÕľŲĹŇ
//=================================================================================================
void Receiv_PC(void)								// PC∑ő ļőŇÕ Ķ•ņŐŇÕľŲĹŇ
{
    1566:	ef 92       	push	r14
    1568:	ff 92       	push	r15
    156a:	0f 93       	push	r16
    156c:	1f 93       	push	r17
    156e:	cf 93       	push	r28
    1570:	df 93       	push	r29
	uint8_t cnt1;								// cnt1 ļĮľŲ √ Ī‚»≠
	uint8_t ChkSum = 0;							// ChkSum ļĮľŲ √ Ī‚»≠

	for(uint8_t cnt = 0; cnt < RX3_SIZE; cnt++)				// RX3_SIZE łłŇ≠ Ļ›ļĻ
    1572:	c0 e0       	ldi	r28, 0x00	; 0
    1574:	67 c1       	rjmp	.+718    	; 0x1844 <Receiv_PC+0x2de>
	{
		if(Rx3_Buff[cnt] == STX_Iontec && Rx3_Buff[cnt + 1] == PC2CTL && Rx3_Buff[cnt + 2] == 0x01 && Rx3_Buff[cnt + 4] == 1 && Rx3_Buff[cnt + 9] == ETX_Iontec)
    1576:	0c 2f       	mov	r16, r28
    1578:	10 e0       	ldi	r17, 0x00	; 0
    157a:	f8 01       	movw	r30, r16
    157c:	e9 53       	subi	r30, 0x39	; 57
    157e:	f4 4b       	sbci	r31, 0xB4	; 180
    1580:	80 81       	ld	r24, Z
    1582:	80 3f       	cpi	r24, 0xF0	; 240
    1584:	09 f0       	breq	.+2      	; 0x1588 <Receiv_PC+0x22>
    1586:	52 c0       	rjmp	.+164    	; 0x162c <Receiv_PC+0xc6>
    1588:	f8 01       	movw	r30, r16
    158a:	e8 53       	subi	r30, 0x38	; 56
    158c:	f4 4b       	sbci	r31, 0xB4	; 180
    158e:	90 81       	ld	r25, Z
    1590:	91 30       	cpi	r25, 0x01	; 1
    1592:	09 f0       	breq	.+2      	; 0x1596 <Receiv_PC+0x30>
    1594:	4b c0       	rjmp	.+150    	; 0x162c <Receiv_PC+0xc6>
    1596:	f8 01       	movw	r30, r16
    1598:	e7 53       	subi	r30, 0x37	; 55
    159a:	f4 4b       	sbci	r31, 0xB4	; 180
    159c:	90 81       	ld	r25, Z
    159e:	91 30       	cpi	r25, 0x01	; 1
    15a0:	09 f0       	breq	.+2      	; 0x15a4 <Receiv_PC+0x3e>
    15a2:	44 c0       	rjmp	.+136    	; 0x162c <Receiv_PC+0xc6>
    15a4:	f8 01       	movw	r30, r16
    15a6:	e5 53       	subi	r30, 0x35	; 53
    15a8:	f4 4b       	sbci	r31, 0xB4	; 180
    15aa:	90 81       	ld	r25, Z
    15ac:	91 30       	cpi	r25, 0x01	; 1
    15ae:	f1 f5       	brne	.+124    	; 0x162c <Receiv_PC+0xc6>
    15b0:	f8 01       	movw	r30, r16
    15b2:	e0 53       	subi	r30, 0x30	; 48
    15b4:	f4 4b       	sbci	r31, 0xB4	; 180
    15b6:	90 81       	ld	r25, Z
    15b8:	91 3f       	cpi	r25, 0xF1	; 241
    15ba:	c1 f5       	brne	.+112    	; 0x162c <Receiv_PC+0xc6>
		{//			STX			       PC2CTL			     ľĪļįĪ‚			Ĺ«Ĺ√į£Ń§ļł			ETX
			Rx_LED_ON;						// RX LED ON
    15bc:	e4 e2       	ldi	r30, 0x24	; 36
    15be:	f4 e0       	ldi	r31, 0x04	; 4
    15c0:	80 81       	ld	r24, Z
    15c2:	88 60       	ori	r24, 0x08	; 8
    15c4:	80 83       	st	Z, r24
			ChkSum = 0;						// ChkSum √ Ī‚»≠
    15c6:	90 e0       	ldi	r25, 0x00	; 0

			for(cnt1 = 1; cnt1 < 8; cnt1++) {ChkSum += Rx3_Buff[cnt + cnt1];}	// √ľŇ©Ĺś įŤĽÍ
    15c8:	81 e0       	ldi	r24, 0x01	; 1
    15ca:	08 c0       	rjmp	.+16     	; 0x15dc <Receiv_PC+0x76>
    15cc:	f8 01       	movw	r30, r16
    15ce:	e8 0f       	add	r30, r24
    15d0:	f1 1d       	adc	r31, r1
    15d2:	e9 53       	subi	r30, 0x39	; 57
    15d4:	f4 4b       	sbci	r31, 0xB4	; 180
    15d6:	20 81       	ld	r18, Z
    15d8:	92 0f       	add	r25, r18
    15da:	8f 5f       	subi	r24, 0xFF	; 255
    15dc:	88 30       	cpi	r24, 0x08	; 8
    15de:	b0 f3       	brcs	.-20     	; 0x15cc <Receiv_PC+0x66>

			if(ChkSum == Rx3_Buff[cnt + 8])				// √ľŇ©Ĺś »ģņő
    15e0:	f8 01       	movw	r30, r16
    15e2:	e1 53       	subi	r30, 0x31	; 49
    15e4:	f4 4b       	sbci	r31, 0xB4	; 180
    15e6:	80 81       	ld	r24, Z
    15e8:	98 13       	cpse	r25, r24
    15ea:	18 c0       	rjmp	.+48     	; 0x161c <Receiv_PC+0xb6>
			{
				if(Rx3_Buff[cnt + 3] == Cell_ID)		// ID 1ĻÝ ņŐłť
    15ec:	f8 01       	movw	r30, r16
    15ee:	e6 53       	subi	r30, 0x36	; 54
    15f0:	f4 4b       	sbci	r31, 0xB4	; 180
    15f2:	90 81       	ld	r25, Z
    15f4:	80 91 19 4b 	lds	r24, 0x4B19	; 0x804b19 <Cell_ID>
    15f8:	98 13       	cpse	r25, r24
    15fa:	10 c0       	rjmp	.+32     	; 0x161c <Receiv_PC+0xb6>
				{						// Ĺ«Ĺ√į£ Ń§ļł
					Tx_LED_ON;				// TX LED ON
    15fc:	c4 e2       	ldi	r28, 0x24	; 36
    15fe:	d4 e0       	ldi	r29, 0x04	; 4
    1600:	88 81       	ld	r24, Y
    1602:	84 60       	ori	r24, 0x04	; 4
    1604:	88 83       	st	Y, r24
					Send_To_Server_0();			// Ļęį‘ Data PC∑ő ņŁľŘ
    1606:	0e 94 d3 09 	call	0x13a6	; 0x13a6 <Send_To_Server_0>
    160a:	8c ec       	ldi	r24, 0xCC	; 204
    160c:	9c e1       	ldi	r25, 0x1C	; 28
    160e:	01 97       	sbiw	r24, 0x01	; 1
    1610:	f1 f7       	brne	.-4      	; 0x160e <Receiv_PC+0xa8>
    1612:	00 c0       	rjmp	.+0      	; 0x1614 <Receiv_PC+0xae>
    1614:	00 00       	nop
					_delay_ms(2);
					Tx_LED_OFF;				// TX LED OFF
    1616:	88 81       	ld	r24, Y
    1618:	8b 7f       	andi	r24, 0xFB	; 251
    161a:	88 83       	st	Y, r24
				}
			}
			Rx3_Buff_Clear();					// Rx3 Buff Clear
    161c:	0e 94 c6 2a 	call	0x558c	; 0x558c <Rx3_Buff_Clear>
			Rx_LED_OFF;						// RX LED OFF
    1620:	e4 e2       	ldi	r30, 0x24	; 36
    1622:	f4 e0       	ldi	r31, 0x04	; 4
    1624:	80 81       	ld	r24, Z
    1626:	87 7f       	andi	r24, 0xF7	; 247
    1628:	80 83       	st	Z, r24
			break;							// for Ļģ ļŁŃģ ≥™į°Ī‚
    162a:	0f c1       	rjmp	.+542    	; 0x184a <Receiv_PC+0x2e4>
		}

		else if(Rx3_Buff[cnt] == STX_Iontec && Rx3_Buff[cnt + 1] == PC2CTL && Rx3_Buff[cnt + 4] == 9 && Rx3_Buff[cnt + 15] == ETX_Iontec)
    162c:	80 3f       	cpi	r24, 0xF0	; 240
    162e:	09 f0       	breq	.+2      	; 0x1632 <Receiv_PC+0xcc>
    1630:	a1 c0       	rjmp	.+322    	; 0x1774 <Receiv_PC+0x20e>
    1632:	f8 01       	movw	r30, r16
    1634:	e8 53       	subi	r30, 0x38	; 56
    1636:	f4 4b       	sbci	r31, 0xB4	; 180
    1638:	90 81       	ld	r25, Z
    163a:	91 30       	cpi	r25, 0x01	; 1
    163c:	09 f0       	breq	.+2      	; 0x1640 <Receiv_PC+0xda>
    163e:	9a c0       	rjmp	.+308    	; 0x1774 <Receiv_PC+0x20e>
    1640:	f8 01       	movw	r30, r16
    1642:	e5 53       	subi	r30, 0x35	; 53
    1644:	f4 4b       	sbci	r31, 0xB4	; 180
    1646:	90 81       	ld	r25, Z
    1648:	99 30       	cpi	r25, 0x09	; 9
    164a:	09 f0       	breq	.+2      	; 0x164e <Receiv_PC+0xe8>
    164c:	93 c0       	rjmp	.+294    	; 0x1774 <Receiv_PC+0x20e>
    164e:	f8 01       	movw	r30, r16
    1650:	ea 52       	subi	r30, 0x2A	; 42
    1652:	f4 4b       	sbci	r31, 0xB4	; 180
    1654:	90 81       	ld	r25, Z
    1656:	91 3f       	cpi	r25, 0xF1	; 241
    1658:	09 f0       	breq	.+2      	; 0x165c <Receiv_PC+0xf6>
    165a:	8c c0       	rjmp	.+280    	; 0x1774 <Receiv_PC+0x20e>
		{//			    STX				    PC2CTL		    Ĺ√į£Ń§ļłļĮįś			        ETX
			Rx_LED_ON;						// RX LED ON
    165c:	e4 e2       	ldi	r30, 0x24	; 36
    165e:	f4 e0       	ldi	r31, 0x04	; 4
    1660:	80 81       	ld	r24, Z
    1662:	88 60       	ori	r24, 0x08	; 8
    1664:	80 83       	st	Z, r24
			ChkSum = 0;						// ChkSum √ Ī‚»≠
    1666:	90 e0       	ldi	r25, 0x00	; 0

			for(cnt1 = 1; cnt1 < 14; cnt1++) {ChkSum += Rx3_Buff[cnt + cnt1];}	// √ľŇ©Ĺś įŤĽÍ
    1668:	81 e0       	ldi	r24, 0x01	; 1
    166a:	08 c0       	rjmp	.+16     	; 0x167c <Receiv_PC+0x116>
    166c:	f8 01       	movw	r30, r16
    166e:	e8 0f       	add	r30, r24
    1670:	f1 1d       	adc	r31, r1
    1672:	e9 53       	subi	r30, 0x39	; 57
    1674:	f4 4b       	sbci	r31, 0xB4	; 180
    1676:	20 81       	ld	r18, Z
    1678:	92 0f       	add	r25, r18
    167a:	8f 5f       	subi	r24, 0xFF	; 255
    167c:	8e 30       	cpi	r24, 0x0E	; 14
    167e:	b0 f3       	brcs	.-20     	; 0x166c <Receiv_PC+0x106>

			if(ChkSum == Rx3_Buff[cnt + 14])			// √ľŇ©Ĺś »ģņő
    1680:	f8 01       	movw	r30, r16
    1682:	eb 52       	subi	r30, 0x2B	; 43
    1684:	f4 4b       	sbci	r31, 0xB4	; 180
    1686:	80 81       	ld	r24, Z
    1688:	98 13       	cpse	r25, r24
    168a:	6c c0       	rjmp	.+216    	; 0x1764 <Receiv_PC+0x1fe>
			{
				RTC_Time_Write(RTC_YEAR,  ((Rx3_Buff[cnt+ 8]&0xF0)>>4)*10+(Rx3_Buff[cnt+ 8]&0x0F));	// RTC Ņ° ≥‚ ņķņŚ
    168c:	f8 01       	movw	r30, r16
    168e:	e1 53       	subi	r30, 0x31	; 49
    1690:	f4 4b       	sbci	r31, 0xB4	; 180
    1692:	80 81       	ld	r24, Z
    1694:	98 2f       	mov	r25, r24
    1696:	92 95       	swap	r25
    1698:	9f 70       	andi	r25, 0x0F	; 15
    169a:	99 0f       	add	r25, r25
    169c:	69 2f       	mov	r22, r25
    169e:	66 0f       	add	r22, r22
    16a0:	66 0f       	add	r22, r22
    16a2:	96 0f       	add	r25, r22
    16a4:	8f 70       	andi	r24, 0x0F	; 15
    16a6:	69 2f       	mov	r22, r25
    16a8:	68 0f       	add	r22, r24
    16aa:	86 e0       	ldi	r24, 0x06	; 6
    16ac:	0e 94 ee 26 	call	0x4ddc	; 0x4ddc <RTC_Time_Write>
				RTC_Time_Write(RTC_MONTH, ((Rx3_Buff[cnt+ 9]&0xF0)>>4)*10+(Rx3_Buff[cnt+ 9]&0x0F));	// RTC Ņ° Ņý ņķņŚ
    16b0:	f8 01       	movw	r30, r16
    16b2:	e0 53       	subi	r30, 0x30	; 48
    16b4:	f4 4b       	sbci	r31, 0xB4	; 180
    16b6:	80 81       	ld	r24, Z
    16b8:	98 2f       	mov	r25, r24
    16ba:	92 95       	swap	r25
    16bc:	9f 70       	andi	r25, 0x0F	; 15
    16be:	99 0f       	add	r25, r25
    16c0:	69 2f       	mov	r22, r25
    16c2:	66 0f       	add	r22, r22
    16c4:	66 0f       	add	r22, r22
    16c6:	96 0f       	add	r25, r22
    16c8:	8f 70       	andi	r24, 0x0F	; 15
    16ca:	69 2f       	mov	r22, r25
    16cc:	68 0f       	add	r22, r24
    16ce:	85 e0       	ldi	r24, 0x05	; 5
    16d0:	0e 94 ee 26 	call	0x4ddc	; 0x4ddc <RTC_Time_Write>
				RTC_Time_Write(RTC_DATE,  ((Rx3_Buff[cnt+10]&0xF0)>>4)*10+(Rx3_Buff[cnt+10]&0x0F));	// RTC Ņ° ņŌ ņķņŚ
    16d4:	f8 01       	movw	r30, r16
    16d6:	ef 52       	subi	r30, 0x2F	; 47
    16d8:	f4 4b       	sbci	r31, 0xB4	; 180
    16da:	80 81       	ld	r24, Z
    16dc:	98 2f       	mov	r25, r24
    16de:	92 95       	swap	r25
    16e0:	9f 70       	andi	r25, 0x0F	; 15
    16e2:	99 0f       	add	r25, r25
    16e4:	69 2f       	mov	r22, r25
    16e6:	66 0f       	add	r22, r22
    16e8:	66 0f       	add	r22, r22
    16ea:	96 0f       	add	r25, r22
    16ec:	8f 70       	andi	r24, 0x0F	; 15
    16ee:	69 2f       	mov	r22, r25
    16f0:	68 0f       	add	r22, r24
    16f2:	84 e0       	ldi	r24, 0x04	; 4
    16f4:	0e 94 ee 26 	call	0x4ddc	; 0x4ddc <RTC_Time_Write>
				RTC_Time_Write(RTC_HOUR,  ((Rx3_Buff[cnt+11]&0xF0)>>4)*10+(Rx3_Buff[cnt+11]&0x0F));	// RTC Ņ° Ĺ√ ņķņŚ
    16f8:	f8 01       	movw	r30, r16
    16fa:	ee 52       	subi	r30, 0x2E	; 46
    16fc:	f4 4b       	sbci	r31, 0xB4	; 180
    16fe:	80 81       	ld	r24, Z
    1700:	98 2f       	mov	r25, r24
    1702:	92 95       	swap	r25
    1704:	9f 70       	andi	r25, 0x0F	; 15
    1706:	99 0f       	add	r25, r25
    1708:	69 2f       	mov	r22, r25
    170a:	66 0f       	add	r22, r22
    170c:	66 0f       	add	r22, r22
    170e:	96 0f       	add	r25, r22
    1710:	8f 70       	andi	r24, 0x0F	; 15
    1712:	69 2f       	mov	r22, r25
    1714:	68 0f       	add	r22, r24
    1716:	82 e0       	ldi	r24, 0x02	; 2
    1718:	0e 94 ee 26 	call	0x4ddc	; 0x4ddc <RTC_Time_Write>
				RTC_Time_Write(RTC_MINUTE,((Rx3_Buff[cnt+12]&0xF0)>>4)*10+(Rx3_Buff[cnt+12]&0x0F));	// RTC Ņ° ļ– ņķņŚ
    171c:	f8 01       	movw	r30, r16
    171e:	ed 52       	subi	r30, 0x2D	; 45
    1720:	f4 4b       	sbci	r31, 0xB4	; 180
    1722:	80 81       	ld	r24, Z
    1724:	98 2f       	mov	r25, r24
    1726:	92 95       	swap	r25
    1728:	9f 70       	andi	r25, 0x0F	; 15
    172a:	99 0f       	add	r25, r25
    172c:	69 2f       	mov	r22, r25
    172e:	66 0f       	add	r22, r22
    1730:	66 0f       	add	r22, r22
    1732:	96 0f       	add	r25, r22
    1734:	8f 70       	andi	r24, 0x0F	; 15
    1736:	69 2f       	mov	r22, r25
    1738:	68 0f       	add	r22, r24
    173a:	81 e0       	ldi	r24, 0x01	; 1
    173c:	0e 94 ee 26 	call	0x4ddc	; 0x4ddc <RTC_Time_Write>
				RTC_Time_Write(RTC_SECOND,((Rx3_Buff[cnt+13]&0xF0)>>4)*10+(Rx3_Buff[cnt+13]&0x0F));	// RTC Ņ° √  ņķņŚ
    1740:	f8 01       	movw	r30, r16
    1742:	ec 52       	subi	r30, 0x2C	; 44
    1744:	f4 4b       	sbci	r31, 0xB4	; 180
    1746:	80 81       	ld	r24, Z
    1748:	98 2f       	mov	r25, r24
    174a:	92 95       	swap	r25
    174c:	9f 70       	andi	r25, 0x0F	; 15
    174e:	99 0f       	add	r25, r25
    1750:	69 2f       	mov	r22, r25
    1752:	66 0f       	add	r22, r22
    1754:	66 0f       	add	r22, r22
    1756:	96 0f       	add	r25, r22
    1758:	8f 70       	andi	r24, 0x0F	; 15
    175a:	69 2f       	mov	r22, r25
    175c:	68 0f       	add	r22, r24
    175e:	80 e0       	ldi	r24, 0x00	; 0
    1760:	0e 94 ee 26 	call	0x4ddc	; 0x4ddc <RTC_Time_Write>
			}
			Rx3_Buff_Clear();					// Rx3 Buff Clear
    1764:	0e 94 c6 2a 	call	0x558c	; 0x558c <Rx3_Buff_Clear>
			Rx_LED_OFF;						// RX LED OFF
    1768:	e4 e2       	ldi	r30, 0x24	; 36
    176a:	f4 e0       	ldi	r31, 0x04	; 4
    176c:	80 81       	ld	r24, Z
    176e:	87 7f       	andi	r24, 0xF7	; 247
    1770:	80 83       	st	Z, r24
			break;							// for Ļģ ļŁŃģ ≥™į°Ī‚
    1772:	6b c0       	rjmp	.+214    	; 0x184a <Receiv_PC+0x2e4>
		}

		else if(Rx3_Buff[cnt] == STX_Iontec && Rx3_Buff[cnt + 1] == PC2CTL && Rx3_Buff[cnt + 2] == 0x01 && Rx3_Buff[cnt + 4] == 7 && Rx3_Buff[cnt + 31] == ETX_Iontec)
    1774:	80 3f       	cpi	r24, 0xF0	; 240
    1776:	09 f0       	breq	.+2      	; 0x177a <Receiv_PC+0x214>
    1778:	64 c0       	rjmp	.+200    	; 0x1842 <Receiv_PC+0x2dc>
    177a:	f8 01       	movw	r30, r16
    177c:	e8 53       	subi	r30, 0x38	; 56
    177e:	f4 4b       	sbci	r31, 0xB4	; 180
    1780:	80 81       	ld	r24, Z
    1782:	81 30       	cpi	r24, 0x01	; 1
    1784:	09 f0       	breq	.+2      	; 0x1788 <Receiv_PC+0x222>
    1786:	5d c0       	rjmp	.+186    	; 0x1842 <Receiv_PC+0x2dc>
    1788:	f8 01       	movw	r30, r16
    178a:	e7 53       	subi	r30, 0x37	; 55
    178c:	f4 4b       	sbci	r31, 0xB4	; 180
    178e:	80 81       	ld	r24, Z
    1790:	81 30       	cpi	r24, 0x01	; 1
    1792:	09 f0       	breq	.+2      	; 0x1796 <Receiv_PC+0x230>
    1794:	56 c0       	rjmp	.+172    	; 0x1842 <Receiv_PC+0x2dc>
    1796:	78 01       	movw	r14, r16
    1798:	94 e0       	ldi	r25, 0x04	; 4
    179a:	e9 0e       	add	r14, r25
    179c:	f1 1c       	adc	r15, r1
    179e:	f7 01       	movw	r30, r14
    17a0:	e9 53       	subi	r30, 0x39	; 57
    17a2:	f4 4b       	sbci	r31, 0xB4	; 180
    17a4:	80 81       	ld	r24, Z
    17a6:	87 30       	cpi	r24, 0x07	; 7
    17a8:	09 f0       	breq	.+2      	; 0x17ac <Receiv_PC+0x246>
    17aa:	4b c0       	rjmp	.+150    	; 0x1842 <Receiv_PC+0x2dc>
    17ac:	f8 01       	movw	r30, r16
    17ae:	ea 51       	subi	r30, 0x1A	; 26
    17b0:	f4 4b       	sbci	r31, 0xB4	; 180
    17b2:	80 81       	ld	r24, Z
    17b4:	81 3f       	cpi	r24, 0xF1	; 241
    17b6:	09 f0       	breq	.+2      	; 0x17ba <Receiv_PC+0x254>
    17b8:	44 c0       	rjmp	.+136    	; 0x1842 <Receiv_PC+0x2dc>
		{//			     STX			    PC2CTL			  ľĪļįĪ‚		ľ≥Ń§Ń§ļł(ņ‘Īł√ľŃŖ)		       ETX
			Rx_LED_ON;							// RX LED ON
    17ba:	e4 e2       	ldi	r30, 0x24	; 36
    17bc:	f4 e0       	ldi	r31, 0x04	; 4
    17be:	80 81       	ld	r24, Z
    17c0:	88 60       	ori	r24, 0x08	; 8
    17c2:	80 83       	st	Z, r24
			ChkSum = 0;							// ChkSum √ Ī‚»≠
    17c4:	90 e0       	ldi	r25, 0x00	; 0

			for(cnt1 = 1; cnt1 < 30; cnt1++) {ChkSum += Rx3_Buff[cnt + cnt1];}	// √ľŇ©Ĺś įŤĽÍ
    17c6:	81 e0       	ldi	r24, 0x01	; 1
    17c8:	08 c0       	rjmp	.+16     	; 0x17da <Receiv_PC+0x274>
    17ca:	f8 01       	movw	r30, r16
    17cc:	e8 0f       	add	r30, r24
    17ce:	f1 1d       	adc	r31, r1
    17d0:	e9 53       	subi	r30, 0x39	; 57
    17d2:	f4 4b       	sbci	r31, 0xB4	; 180
    17d4:	20 81       	ld	r18, Z
    17d6:	92 0f       	add	r25, r18
    17d8:	8f 5f       	subi	r24, 0xFF	; 255
    17da:	8e 31       	cpi	r24, 0x1E	; 30
    17dc:	b0 f3       	brcs	.-20     	; 0x17ca <Receiv_PC+0x264>

			if(ChkSum == Rx3_Buff[cnt + 30])				// √ľŇ©Ĺś »ģņő
    17de:	f8 01       	movw	r30, r16
    17e0:	eb 51       	subi	r30, 0x1B	; 27
    17e2:	f4 4b       	sbci	r31, 0xB4	; 180
    17e4:	80 81       	ld	r24, Z
    17e6:	98 13       	cpse	r25, r24
    17e8:	2c c0       	rjmp	.+88     	; 0x1842 <Receiv_PC+0x2dc>
			{
				IN_S = Rx3_Buff[cnt + 8] << 8 & Rx3_Buff[cnt + 8];	// ņ‘Īł√ľŃŖ į™ ļĮ»Į
    17ea:	60 e0       	ldi	r22, 0x00	; 0
    17ec:	70 e0       	ldi	r23, 0x00	; 0
    17ee:	60 93 c1 4c 	sts	0x4CC1, r22	; 0x804cc1 <IN_S>
    17f2:	70 93 c2 4c 	sts	0x4CC2, r23	; 0x804cc2 <IN_S+0x1>

				if(Rx3_Buff[cnt + 3] == Cell_ID)			// Cell ID 1ĻÝ ņŐłť
    17f6:	f8 01       	movw	r30, r16
    17f8:	e6 53       	subi	r30, 0x36	; 54
    17fa:	f4 4b       	sbci	r31, 0xB4	; 180
    17fc:	90 81       	ld	r25, Z
    17fe:	80 91 19 4b 	lds	r24, 0x4B19	; 0x804b19 <Cell_ID>
    1802:	98 13       	cpse	r25, r24
    1804:	1e c0       	rjmp	.+60     	; 0x1842 <Receiv_PC+0x2dc>
				{
					IN_Scales = IN_S;				// ņ‘Īł√ľŃŖ į™ņĽ ∑őĶŚľŅ 1ĻÝŅ° ņŻŅŽ
    1806:	60 93 41 4b 	sts	0x4B41, r22	; 0x804b41 <IN_Scales>
    180a:	70 93 42 4b 	sts	0x4B42, r23	; 0x804b42 <IN_Scales+0x1>
					ee_write_word(Cell_IN_S_Addr, IN_S);		// ņ‘Īł√ľŃŖ į™ņĽ EEPROMŅ° ņķņŚ
    180e:	88 e0       	ldi	r24, 0x08	; 8
    1810:	90 e0       	ldi	r25, 0x00	; 0
    1812:	0e 94 13 12 	call	0x2426	; 0x2426 <ee_write_word>
					Tx_LED_ON;					// TX LED ON
    1816:	04 e2       	ldi	r16, 0x24	; 36
    1818:	14 e0       	ldi	r17, 0x04	; 4
    181a:	f8 01       	movw	r30, r16
    181c:	80 81       	ld	r24, Z
    181e:	84 60       	ori	r24, 0x04	; 4
    1820:	80 83       	st	Z, r24
					Send_To_Server_1(Rx3_Buff[cnt + 4]);		// ľ≥Ń§Ń§ļł PC∑ő ņŁľŘ
    1822:	f7 01       	movw	r30, r14
    1824:	e9 53       	subi	r30, 0x39	; 57
    1826:	f4 4b       	sbci	r31, 0xB4	; 180
    1828:	80 81       	ld	r24, Z
    182a:	0e 94 6c 0a 	call	0x14d8	; 0x14d8 <Send_To_Server_1>
    182e:	8c ec       	ldi	r24, 0xCC	; 204
    1830:	9c e1       	ldi	r25, 0x1C	; 28
    1832:	01 97       	sbiw	r24, 0x01	; 1
    1834:	f1 f7       	brne	.-4      	; 0x1832 <Receiv_PC+0x2cc>
    1836:	00 c0       	rjmp	.+0      	; 0x1838 <Receiv_PC+0x2d2>
    1838:	00 00       	nop
					_delay_ms(2);
					Tx_LED_OFF;					// TX LED OFF
    183a:	f8 01       	movw	r30, r16
    183c:	80 81       	ld	r24, Z
    183e:	8b 7f       	andi	r24, 0xFB	; 251
    1840:	80 83       	st	Z, r24
void Receiv_PC(void)								// PC∑ő ļőŇÕ Ķ•ņŐŇÕľŲĹŇ
{
	uint8_t cnt1;								// cnt1 ļĮľŲ √ Ī‚»≠
	uint8_t ChkSum = 0;							// ChkSum ļĮľŲ √ Ī‚»≠

	for(uint8_t cnt = 0; cnt < RX3_SIZE; cnt++)				// RX3_SIZE łłŇ≠ Ļ›ļĻ
    1842:	cf 5f       	subi	r28, 0xFF	; 255
    1844:	ca 3f       	cpi	r28, 0xFA	; 250
    1846:	08 f4       	brcc	.+2      	; 0x184a <Receiv_PC+0x2e4>
    1848:	96 ce       	rjmp	.-724    	; 0x1576 <Receiv_PC+0x10>
					Tx_LED_OFF;					// TX LED OFF
				}
			}
		}
	}
}
    184a:	df 91       	pop	r29
    184c:	cf 91       	pop	r28
    184e:	1f 91       	pop	r17
    1850:	0f 91       	pop	r16
    1852:	ff 90       	pop	r15
    1854:	ef 90       	pop	r14
    1856:	08 95       	ret

00001858 <ADC_Check>:
// 	}
// }

//=================================================================================================
void ADC_Check(void)								// ADC √ľŇ© (∑őĶŚľŅ ĹŇ»£)
{
    1858:	cf 93       	push	r28
	AD_Channel = 0;								// AD Channel ļĮľŲ √ Ī‚»≠
    185a:	10 92 1a 4b 	sts	0x4B1A, r1	; 0x804b1a <AD_Channel>
    185e:	10 92 1b 4b 	sts	0x4B1B, r1	; 0x804b1b <AD_Channel+0x1>
    1862:	10 92 1c 4b 	sts	0x4B1C, r1	; 0x804b1c <AD_Channel+0x2>
    1866:	10 92 1d 4b 	sts	0x4B1D, r1	; 0x804b1d <AD_Channel+0x3>
	for(uint8_t i = 0; i < 50; i++)						// 50ĻÝ Ļ›ļĻ √ÝŃ§
    186a:	c0 e0       	ldi	r28, 0x00	; 0
    186c:	18 c0       	rjmp	.+48     	; 0x189e <ADC_Check+0x46>
	{
		AD_Channel += ADC_get_conversion(0);				// ADC 0 Conversion
    186e:	80 e0       	ldi	r24, 0x00	; 0
    1870:	0e 94 e6 10 	call	0x21cc	; 0x21cc <ADC_get_conversion>
    1874:	40 91 1a 4b 	lds	r20, 0x4B1A	; 0x804b1a <AD_Channel>
    1878:	50 91 1b 4b 	lds	r21, 0x4B1B	; 0x804b1b <AD_Channel+0x1>
    187c:	60 91 1c 4b 	lds	r22, 0x4B1C	; 0x804b1c <AD_Channel+0x2>
    1880:	70 91 1d 4b 	lds	r23, 0x4B1D	; 0x804b1d <AD_Channel+0x3>
    1884:	48 0f       	add	r20, r24
    1886:	59 1f       	adc	r21, r25
    1888:	61 1d       	adc	r22, r1
    188a:	71 1d       	adc	r23, r1
    188c:	40 93 1a 4b 	sts	0x4B1A, r20	; 0x804b1a <AD_Channel>
    1890:	50 93 1b 4b 	sts	0x4B1B, r21	; 0x804b1b <AD_Channel+0x1>
    1894:	60 93 1c 4b 	sts	0x4B1C, r22	; 0x804b1c <AD_Channel+0x2>
    1898:	70 93 1d 4b 	sts	0x4B1D, r23	; 0x804b1d <AD_Channel+0x3>

//=================================================================================================
void ADC_Check(void)								// ADC √ľŇ© (∑őĶŚľŅ ĹŇ»£)
{
	AD_Channel = 0;								// AD Channel ļĮľŲ √ Ī‚»≠
	for(uint8_t i = 0; i < 50; i++)						// 50ĻÝ Ļ›ļĻ √ÝŃ§
    189c:	cf 5f       	subi	r28, 0xFF	; 255
    189e:	c2 33       	cpi	r28, 0x32	; 50
    18a0:	30 f3       	brcs	.-52     	; 0x186e <ADC_Check+0x16>
	{
		AD_Channel += ADC_get_conversion(0);				// ADC 0 Conversion
	}
	AD_Channel = AD_Channel / 50;						// 50ĻÝ √ÝŃ§ »ń ∆ÚĪ’
    18a2:	60 91 1a 4b 	lds	r22, 0x4B1A	; 0x804b1a <AD_Channel>
    18a6:	70 91 1b 4b 	lds	r23, 0x4B1B	; 0x804b1b <AD_Channel+0x1>
    18aa:	80 91 1c 4b 	lds	r24, 0x4B1C	; 0x804b1c <AD_Channel+0x2>
    18ae:	90 91 1d 4b 	lds	r25, 0x4B1D	; 0x804b1d <AD_Channel+0x3>
    18b2:	22 e3       	ldi	r18, 0x32	; 50
    18b4:	30 e0       	ldi	r19, 0x00	; 0
    18b6:	40 e0       	ldi	r20, 0x00	; 0
    18b8:	50 e0       	ldi	r21, 0x00	; 0
    18ba:	0e 94 65 38 	call	0x70ca	; 0x70ca <__udivmodsi4>
    18be:	20 93 1a 4b 	sts	0x4B1A, r18	; 0x804b1a <AD_Channel>
    18c2:	30 93 1b 4b 	sts	0x4B1B, r19	; 0x804b1b <AD_Channel+0x1>
    18c6:	40 93 1c 4b 	sts	0x4B1C, r20	; 0x804b1c <AD_Channel+0x2>
    18ca:	50 93 1d 4b 	sts	0x4B1D, r21	; 0x804b1d <AD_Channel+0x3>
	ADC_Value  = AD_Channel * 0.001221;					// 5V ≥™ī©Ī‚ 12Bit : 5/4095 = 0.00122100...
    18ce:	ca 01       	movw	r24, r20
    18d0:	b9 01       	movw	r22, r18
    18d2:	0e 94 8d 33 	call	0x671a	; 0x671a <__floatunsisf>
    18d6:	26 ef       	ldi	r18, 0xF6	; 246
    18d8:	39 e0       	ldi	r19, 0x09	; 9
    18da:	40 ea       	ldi	r20, 0xA0	; 160
    18dc:	5a e3       	ldi	r21, 0x3A	; 58
    18de:	0e 94 44 34 	call	0x6888	; 0x6888 <__mulsf3>
    18e2:	60 93 74 4b 	sts	0x4B74, r22	; 0x804b74 <ADC_Value>
    18e6:	70 93 75 4b 	sts	0x4B75, r23	; 0x804b75 <ADC_Value+0x1>
    18ea:	80 93 76 4b 	sts	0x4B76, r24	; 0x804b76 <ADC_Value+0x2>
    18ee:	90 93 77 4b 	sts	0x4B77, r25	; 0x804b77 <ADC_Value+0x3>
}
    18f2:	cf 91       	pop	r28
    18f4:	08 95       	ret

000018f6 <Proportion_Set>:

//=================================================================================================
void Proportion_Set(void)							// ∑őĶŚľŅ ļŮņ≤ ľ≥Ń§ Ļ◊ √ Ī‚»≠
{
    18f6:	cf 92       	push	r12
    18f8:	df 92       	push	r13
    18fa:	ef 92       	push	r14
    18fc:	ff 92       	push	r15
	CELL.Proportion = (Cell_RO / 10000000 / (ADC_Value + 0.48) * 128 / 0.5 * 8388608 / (Cell_Capa * 1000)) / Cell_CNT;
    18fe:	20 e8       	ldi	r18, 0x80	; 128
    1900:	36 e9       	ldi	r19, 0x96	; 150
    1902:	48 e1       	ldi	r20, 0x18	; 24
    1904:	5b e4       	ldi	r21, 0x4B	; 75
    1906:	60 91 93 4b 	lds	r22, 0x4B93	; 0x804b93 <Cell_RO>
    190a:	70 91 94 4b 	lds	r23, 0x4B94	; 0x804b94 <Cell_RO+0x1>
    190e:	80 91 95 4b 	lds	r24, 0x4B95	; 0x804b95 <Cell_RO+0x2>
    1912:	90 91 96 4b 	lds	r25, 0x4B96	; 0x804b96 <Cell_RO+0x3>
    1916:	0e 94 e5 32 	call	0x65ca	; 0x65ca <__divsf3>
    191a:	6b 01       	movw	r12, r22
    191c:	7c 01       	movw	r14, r24
    191e:	2f e8       	ldi	r18, 0x8F	; 143
    1920:	32 ec       	ldi	r19, 0xC2	; 194
    1922:	45 ef       	ldi	r20, 0xF5	; 245
    1924:	5e e3       	ldi	r21, 0x3E	; 62
    1926:	60 91 74 4b 	lds	r22, 0x4B74	; 0x804b74 <ADC_Value>
    192a:	70 91 75 4b 	lds	r23, 0x4B75	; 0x804b75 <ADC_Value+0x1>
    192e:	80 91 76 4b 	lds	r24, 0x4B76	; 0x804b76 <ADC_Value+0x2>
    1932:	90 91 77 4b 	lds	r25, 0x4B77	; 0x804b77 <ADC_Value+0x3>
    1936:	0e 94 74 32 	call	0x64e8	; 0x64e8 <__addsf3>
    193a:	9b 01       	movw	r18, r22
    193c:	ac 01       	movw	r20, r24
    193e:	c7 01       	movw	r24, r14
    1940:	b6 01       	movw	r22, r12
    1942:	0e 94 e5 32 	call	0x65ca	; 0x65ca <__divsf3>
    1946:	20 e0       	ldi	r18, 0x00	; 0
    1948:	30 e0       	ldi	r19, 0x00	; 0
    194a:	40 e0       	ldi	r20, 0x00	; 0
    194c:	53 e4       	ldi	r21, 0x43	; 67
    194e:	0e 94 44 34 	call	0x6888	; 0x6888 <__mulsf3>
    1952:	9b 01       	movw	r18, r22
    1954:	ac 01       	movw	r20, r24
    1956:	0e 94 74 32 	call	0x64e8	; 0x64e8 <__addsf3>
    195a:	20 e0       	ldi	r18, 0x00	; 0
    195c:	30 e0       	ldi	r19, 0x00	; 0
    195e:	40 e0       	ldi	r20, 0x00	; 0
    1960:	5b e4       	ldi	r21, 0x4B	; 75
    1962:	0e 94 44 34 	call	0x6888	; 0x6888 <__mulsf3>
    1966:	6b 01       	movw	r12, r22
    1968:	7c 01       	movw	r14, r24
    196a:	20 91 aa 4b 	lds	r18, 0x4BAA	; 0x804baa <Cell_Capa>
    196e:	30 91 ab 4b 	lds	r19, 0x4BAB	; 0x804bab <Cell_Capa+0x1>
    1972:	40 91 ac 4b 	lds	r20, 0x4BAC	; 0x804bac <Cell_Capa+0x2>
    1976:	50 91 ad 4b 	lds	r21, 0x4BAD	; 0x804bad <Cell_Capa+0x3>
    197a:	a8 ee       	ldi	r26, 0xE8	; 232
    197c:	b3 e0       	ldi	r27, 0x03	; 3
    197e:	0e 94 be 38 	call	0x717c	; 0x717c <__muluhisi3>
    1982:	0e 94 8d 33 	call	0x671a	; 0x671a <__floatunsisf>
    1986:	9b 01       	movw	r18, r22
    1988:	ac 01       	movw	r20, r24
    198a:	c7 01       	movw	r24, r14
    198c:	b6 01       	movw	r22, r12
    198e:	0e 94 e5 32 	call	0x65ca	; 0x65ca <__divsf3>
    1992:	6b 01       	movw	r12, r22
    1994:	7c 01       	movw	r14, r24
    1996:	60 91 bb 4b 	lds	r22, 0x4BBB	; 0x804bbb <Cell_CNT>
    199a:	70 e0       	ldi	r23, 0x00	; 0
    199c:	80 e0       	ldi	r24, 0x00	; 0
    199e:	90 e0       	ldi	r25, 0x00	; 0
    19a0:	0e 94 8f 33 	call	0x671e	; 0x671e <__floatsisf>
    19a4:	9b 01       	movw	r18, r22
    19a6:	ac 01       	movw	r20, r24
    19a8:	c7 01       	movw	r24, r14
    19aa:	b6 01       	movw	r22, r12
    19ac:	0e 94 e5 32 	call	0x65ca	; 0x65ca <__divsf3>
    19b0:	60 93 6b 4b 	sts	0x4B6B, r22	; 0x804b6b <CELL+0x11>
    19b4:	70 93 6c 4b 	sts	0x4B6C, r23	; 0x804b6c <CELL+0x12>
    19b8:	80 93 6d 4b 	sts	0x4B6D, r24	; 0x804b6d <CELL+0x13>
    19bc:	90 93 6e 4b 	sts	0x4B6E, r25	; 0x804b6e <CELL+0x14>
}
    19c0:	ff 90       	pop	r15
    19c2:	ef 90       	pop	r14
    19c4:	df 90       	pop	r13
    19c6:	cf 90       	pop	r12
    19c8:	08 95       	ret

000019ca <Var_Init>:

//=================================================================================================
void Var_Init(void)								// ļĮľŲ Ļ◊ ∑őĶŚľŅ √ Ī‚»≠
{
	FND_Value_Data(0, 2, 10);						// FND 0 ~ 2 FND_MINUS
    19ca:	4a e0       	ldi	r20, 0x0A	; 10
    19cc:	62 e0       	ldi	r22, 0x02	; 2
    19ce:	80 e0       	ldi	r24, 0x00	; 0
    19d0:	0e 94 c3 05 	call	0xb86	; 0xb86 <FND_Value_Data>

	SET.Menu = 0;								// Menu   łūĶŚ √ Ī‚»≠
    19d4:	e8 e4       	ldi	r30, 0x48	; 72
    19d6:	fb e4       	ldi	r31, 0x4B	; 75
    19d8:	10 82       	st	Z, r1
	SET.Select = 0;								// Select łūĶŚ √ Ī‚»≠
    19da:	11 82       	std	Z+1, r1	; 0x01
	SET.Blink = 0;								// ņŕłīľŲ ĪŰĻŕņ” √ Ī‚»≠
    19dc:	13 82       	std	Z+3, r1	; 0x03
	KEY.Count = 0;								// Key į° ī≠łį»ĹľŲ √ Ī‚»≠
    19de:	10 92 8c 4b 	sts	0x4B8C, r1	; 0x804b8c <KEY>

	Read_eeprom();								// EEPROM Data ņ–Ī‚
    19e2:	0e 94 a7 06 	call	0xd4e	; 0xd4e <Read_eeprom>
    19e6:	8f ef       	ldi	r24, 0xFF	; 255
    19e8:	9f e8       	ldi	r25, 0x8F	; 143
    19ea:	01 97       	sbiw	r24, 0x01	; 1
    19ec:	f1 f7       	brne	.-4      	; 0x19ea <Var_Init+0x20>
    19ee:	00 c0       	rjmp	.+0      	; 0x19f0 <Var_Init+0x26>
    19f0:	00 00       	nop
	_delay_ms(10);

	ADC_Check();								// ADC √ľŇ© (∑őĶŚľŅ ĹŇ»£)
    19f2:	0e 94 2c 0c 	call	0x1858	; 0x1858 <ADC_Check>
	Proportion_Set();							// ∑őĶŚľŅ ļŮņ≤ ľ≥Ń§ Ļ◊ √ Ī‚»≠
    19f6:	0e 94 7b 0c 	call	0x18f6	; 0x18f6 <Proportion_Set>
    19fa:	8f ef       	ldi	r24, 0xFF	; 255
    19fc:	9f e8       	ldi	r25, 0x8F	; 143
    19fe:	01 97       	sbiw	r24, 0x01	; 1
    1a00:	f1 f7       	brne	.-4      	; 0x19fe <Var_Init+0x34>
    1a02:	00 c0       	rjmp	.+0      	; 0x1a04 <Var_Init+0x3a>
    1a04:	00 00       	nop
	_delay_ms(10);

	Cell_Zero_Set();							// ∑őĶŚľŅ 0 į™ √£Ī‚ 2»ł Ļ›ļĻ
    1a06:	0e 94 58 18 	call	0x30b0	; 0x30b0 <Cell_Zero_Set>
    1a0a:	8f ef       	ldi	r24, 0xFF	; 255
    1a0c:	9f e8       	ldi	r25, 0x8F	; 143
    1a0e:	01 97       	sbiw	r24, 0x01	; 1
    1a10:	f1 f7       	brne	.-4      	; 0x1a0e <Var_Init+0x44>
    1a12:	00 c0       	rjmp	.+0      	; 0x1a14 <Var_Init+0x4a>
    1a14:	00 00       	nop
	_delay_ms(10);
	Cell_Zero_Set();							
    1a16:	0e 94 58 18 	call	0x30b0	; 0x30b0 <Cell_Zero_Set>
	Alarm();								// ĺň∂ų(ļŮ«Ń 3ĻÝ)
    1a1a:	0e 94 ac 07 	call	0xf58	; 0xf58 <Alarm>

	CELL.Zero_Buff = 0;							// √ÝŃ§ į™ Zero Buff √ Ī‚»≠
    1a1e:	10 92 5a 4b 	sts	0x4B5A, r1	; 0x804b5a <CELL>

	FND_Value_Data(0, 2, 12);						// FND 0 ~ 2 FND_MINUS
    1a22:	4c e0       	ldi	r20, 0x0C	; 12
    1a24:	62 e0       	ldi	r22, 0x02	; 2
    1a26:	80 e0       	ldi	r24, 0x00	; 0
    1a28:	0e 94 c3 05 	call	0xb86	; 0xb86 <FND_Value_Data>
    1a2c:	08 95       	ret

00001a2e <wdt_reset>:
#endif

//=================================================================================================
void wdt_reset(void)								// Reset WDT
{
	asm("WDR");								// Reset WDT
    1a2e:	a8 95       	wdr
    1a30:	08 95       	ret

00001a32 <Seting_Mode_0>:
	Beep(15);								// 1mSec X 15 = 15mSec
}

//=================================================================================================
void Seting_Mode_0(void)							// ľ¬∆√łūĶŚ 0
{
    1a32:	cf 93       	push	r28
	uint8_t Count = 1;							// Count ļĮľŲ √ Ī‚»≠
	SET.Select = 0;								// Select ĻŲ∆į √ Ī‚»≠
    1a34:	10 92 49 4b 	sts	0x4B49, r1	; 0x804b49 <SET+0x1>

	FND_Value_Data(0, 2, 12);						// FND 0 ~ 2 FND_OFF
    1a38:	4c e0       	ldi	r20, 0x0C	; 12
    1a3a:	62 e0       	ldi	r22, 0x02	; 2
    1a3c:	80 e0       	ldi	r24, 0x00	; 0
    1a3e:	0e 94 c3 05 	call	0xb86	; 0xb86 <FND_Value_Data>
}

//=================================================================================================
void Seting_Mode_0(void)							// ľ¬∆√łūĶŚ 0
{
	uint8_t Count = 1;							// Count ļĮľŲ √ Ī‚»≠
    1a42:	c1 e0       	ldi	r28, 0x01	; 1
	SET.Select = 0;								// Select ĻŲ∆į √ Ī‚»≠

	FND_Value_Data(0, 2, 12);						// FND 0 ~ 2 FND_OFF

	while(SET.Menu)								// Seting_Mode ņŐłť Ļę«— Ļ›ļĻ
    1a44:	91 c0       	rjmp	.+290    	; 0x1b68 <Seting_Mode_0+0x136>
	{
		if(KEY.Buff)							// Key ņ‘∑¬ņŐ ņ÷ņłłť
    1a46:	80 91 8d 4b 	lds	r24, 0x4B8D	; 0x804b8d <KEY+0x1>
    1a4a:	88 23       	and	r24, r24
    1a4c:	99 f0       	breq	.+38     	; 0x1a74 <Seting_Mode_0+0x42>
		{
			if     (KEY.Key == 1 && Count < 5) {Count++; KEY.Key = 0;}	// ĺų  ĻŲ∆į ņŐłť Count Ńűį°
    1a4e:	80 91 8e 4b 	lds	r24, 0x4B8E	; 0x804b8e <KEY+0x2>
    1a52:	81 30       	cpi	r24, 0x01	; 1
    1a54:	31 f4       	brne	.+12     	; 0x1a62 <Seting_Mode_0+0x30>
    1a56:	c5 30       	cpi	r28, 0x05	; 5
    1a58:	20 f4       	brcc	.+8      	; 0x1a62 <Seting_Mode_0+0x30>
    1a5a:	cf 5f       	subi	r28, 0xFF	; 255
    1a5c:	10 92 8e 4b 	sts	0x4B8E, r1	; 0x804b8e <KEY+0x2>
    1a60:	09 c0       	rjmp	.+18     	; 0x1a74 <Seting_Mode_0+0x42>
			else if(KEY.Key == 3 && Count > 0) {Count--; KEY.Key = 0;}	// īŔŅÓĻŲ∆į ņŐłť Count į®ľ“
    1a62:	80 91 8e 4b 	lds	r24, 0x4B8E	; 0x804b8e <KEY+0x2>
    1a66:	83 30       	cpi	r24, 0x03	; 3
    1a68:	29 f4       	brne	.+10     	; 0x1a74 <Seting_Mode_0+0x42>
    1a6a:	cc 23       	and	r28, r28
    1a6c:	19 f0       	breq	.+6      	; 0x1a74 <Seting_Mode_0+0x42>
    1a6e:	c1 50       	subi	r28, 0x01	; 1
    1a70:	10 92 8e 4b 	sts	0x4B8E, r1	; 0x804b8e <KEY+0x2>
		}
		DIGIT[2][3] = FND_OFF;
    1a74:	ed e7       	ldi	r30, 0x7D	; 125
    1a76:	f1 e4       	ldi	r31, 0x41	; 65
    1a78:	13 86       	std	Z+11, r1	; 0x0b
		DIGIT[2][2] = FND_OFF;
    1a7a:	12 86       	std	Z+10, r1	; 0x0a
		DIGIT[2][1] = FND_OFF;
    1a7c:	11 86       	std	Z+9, r1	; 0x09
		DIGIT[2][0] = fnd_tbl[Count];					// FND 2.0 Ņ° Count «•Ĺ√
    1a7e:	ac 2f       	mov	r26, r28
    1a80:	b0 e0       	ldi	r27, 0x00	; 0
    1a82:	a9 5b       	subi	r26, 0xB9	; 185
    1a84:	be 4b       	sbci	r27, 0xBE	; 190
    1a86:	8c 91       	ld	r24, X
    1a88:	80 87       	std	Z+8, r24	; 0x08
//-------------------------------------------------------------------------------------------------
		switch(Count)							// Count
    1a8a:	c2 30       	cpi	r28, 0x02	; 2
    1a8c:	31 f1       	breq	.+76     	; 0x1ada <Seting_Mode_0+0xa8>
    1a8e:	30 f4       	brcc	.+12     	; 0x1a9c <Seting_Mode_0+0x6a>
    1a90:	cc 23       	and	r28, r28
    1a92:	09 f4       	brne	.+2      	; 0x1a96 <Seting_Mode_0+0x64>
    1a94:	66 c0       	rjmp	.+204    	; 0x1b62 <Seting_Mode_0+0x130>
    1a96:	c1 30       	cpi	r28, 0x01	; 1
    1a98:	49 f0       	breq	.+18     	; 0x1aac <Seting_Mode_0+0x7a>
    1a9a:	64 c0       	rjmp	.+200    	; 0x1b64 <Seting_Mode_0+0x132>
    1a9c:	c4 30       	cpi	r28, 0x04	; 4
    1a9e:	09 f4       	brne	.+2      	; 0x1aa2 <Seting_Mode_0+0x70>
    1aa0:	48 c0       	rjmp	.+144    	; 0x1b32 <Seting_Mode_0+0x100>
    1aa2:	88 f1       	brcs	.+98     	; 0x1b06 <Seting_Mode_0+0xd4>
    1aa4:	c5 30       	cpi	r28, 0x05	; 5
    1aa6:	09 f4       	brne	.+2      	; 0x1aaa <Seting_Mode_0+0x78>
    1aa8:	5a c0       	rjmp	.+180    	; 0x1b5e <Seting_Mode_0+0x12c>
    1aaa:	5c c0       	rjmp	.+184    	; 0x1b64 <Seting_Mode_0+0x132>
			case 0:							// Count = 0 ņŐłť
				Count = 4;					// Ļ›ļĻņĽ ņß«ō Countł¶ √÷įŪ∑ő Ńűį° Ĺ√Ňī
			break;

			case 1:							// Count = 1 ņŐłť
				DIGIT[0][3] = FND_c;				// cell «•Ĺ√
    1aac:	ed e7       	ldi	r30, 0x7D	; 125
    1aae:	f1 e4       	ldi	r31, 0x41	; 65
    1ab0:	8a e1       	ldi	r24, 0x1A	; 26
    1ab2:	83 83       	std	Z+3, r24	; 0x03
				DIGIT[0][2] = FND_e;
    1ab4:	8e ed       	ldi	r24, 0xDE	; 222
    1ab6:	82 83       	std	Z+2, r24	; 0x02
				DIGIT[0][1] = FND_l;
    1ab8:	90 e6       	ldi	r25, 0x60	; 96
    1aba:	91 83       	std	Z+1, r25	; 0x01
				DIGIT[0][0] = FND_l;
    1abc:	90 83       	st	Z, r25

				DIGIT[1][3] = FND_OFF;				// Set «•Ĺ√
    1abe:	17 82       	std	Z+7, r1	; 0x07
				DIGIT[1][2] = FND_S;
    1ac0:	96 eb       	ldi	r25, 0xB6	; 182
    1ac2:	96 83       	std	Z+6, r25	; 0x06
				DIGIT[1][1] = FND_e;
    1ac4:	85 83       	std	Z+5, r24	; 0x05
				DIGIT[1][0] = FND_t;
    1ac6:	8e e1       	ldi	r24, 0x1E	; 30
    1ac8:	84 83       	std	Z+4, r24	; 0x04

				if(SET.Select) {Loadcell_Set();}		// ∑őĶŚľŅ ľ≥Ń§ łūĶŚ
    1aca:	80 91 49 4b 	lds	r24, 0x4B49	; 0x804b49 <SET+0x1>
    1ace:	88 23       	and	r24, r24
    1ad0:	09 f4       	brne	.+2      	; 0x1ad4 <Seting_Mode_0+0xa2>
    1ad2:	48 c0       	rjmp	.+144    	; 0x1b64 <Seting_Mode_0+0x132>
    1ad4:	0e 94 76 23 	call	0x46ec	; 0x46ec <Loadcell_Set>
    1ad8:	45 c0       	rjmp	.+138    	; 0x1b64 <Seting_Mode_0+0x132>
			break;

			case 2:							// Count = 2 ņŐłť
				DIGIT[0][3] = FND_OFF;				// gat «•Ĺ√
    1ada:	ed e7       	ldi	r30, 0x7D	; 125
    1adc:	f1 e4       	ldi	r31, 0x41	; 65
    1ade:	13 82       	std	Z+3, r1	; 0x03
				DIGIT[0][2] = FND_g;
    1ae0:	86 ef       	ldi	r24, 0xF6	; 246
    1ae2:	82 83       	std	Z+2, r24	; 0x02
				DIGIT[0][1] = FND_a;
    1ae4:	8a ef       	ldi	r24, 0xFA	; 250
    1ae6:	81 83       	std	Z+1, r24	; 0x01
				DIGIT[0][0] = FND_t;
    1ae8:	8e e1       	ldi	r24, 0x1E	; 30
    1aea:	80 83       	st	Z, r24

				DIGIT[1][3] = FND_OFF;				// Set «•Ĺ√
    1aec:	17 82       	std	Z+7, r1	; 0x07
				DIGIT[1][2] = FND_S;
    1aee:	96 eb       	ldi	r25, 0xB6	; 182
    1af0:	96 83       	std	Z+6, r25	; 0x06
				DIGIT[1][1] = FND_e;
    1af2:	9e ed       	ldi	r25, 0xDE	; 222
    1af4:	95 83       	std	Z+5, r25	; 0x05
				DIGIT[1][0] = FND_t;
    1af6:	84 83       	std	Z+4, r24	; 0x04

				if(SET.Select) {Gateway_Set();}			// į‘ņŐ∆ģ ŅĢņŐ ľ≥Ń§
    1af8:	80 91 49 4b 	lds	r24, 0x4B49	; 0x804b49 <SET+0x1>
    1afc:	88 23       	and	r24, r24
    1afe:	91 f1       	breq	.+100    	; 0x1b64 <Seting_Mode_0+0x132>
    1b00:	0e 94 06 13 	call	0x260c	; 0x260c <Gateway_Set>
    1b04:	2f c0       	rjmp	.+94     	; 0x1b64 <Seting_Mode_0+0x132>
			break;

			case 3:							// Count = 3 ņŐłť
				DIGIT[0][3] = FND_OFF;				// Zbe «•Ĺ√
    1b06:	ed e7       	ldi	r30, 0x7D	; 125
    1b08:	f1 e4       	ldi	r31, 0x41	; 65
    1b0a:	13 82       	std	Z+3, r1	; 0x03
				DIGIT[0][2] = FND_Z;
    1b0c:	8a ed       	ldi	r24, 0xDA	; 218
    1b0e:	82 83       	std	Z+2, r24	; 0x02
				DIGIT[0][1] = FND_b;
    1b10:	8e e3       	ldi	r24, 0x3E	; 62
    1b12:	81 83       	std	Z+1, r24	; 0x01
				DIGIT[0][0] = FND_e;
    1b14:	8e ed       	ldi	r24, 0xDE	; 222
    1b16:	80 83       	st	Z, r24

				DIGIT[1][3] = FND_OFF;				// Set «•Ĺ√
    1b18:	17 82       	std	Z+7, r1	; 0x07
				DIGIT[1][2] = FND_S;
    1b1a:	96 eb       	ldi	r25, 0xB6	; 182
    1b1c:	96 83       	std	Z+6, r25	; 0x06
				DIGIT[1][1] = FND_e;
    1b1e:	85 83       	std	Z+5, r24	; 0x05
				DIGIT[1][0] = FND_t;
    1b20:	8e e1       	ldi	r24, 0x1E	; 30
    1b22:	84 83       	std	Z+4, r24	; 0x04

				if(SET.Select) {ZigBee_Set();}			// ŃŲĪ◊ļŮ ľ≥Ń§ łūĶŚ
    1b24:	80 91 49 4b 	lds	r24, 0x4B49	; 0x804b49 <SET+0x1>
    1b28:	88 23       	and	r24, r24
    1b2a:	e1 f0       	breq	.+56     	; 0x1b64 <Seting_Mode_0+0x132>
    1b2c:	0e 94 10 31 	call	0x6220	; 0x6220 <ZigBee_Set>
    1b30:	19 c0       	rjmp	.+50     	; 0x1b64 <Seting_Mode_0+0x132>
			break;

			case 4:							// Count = 5 ņŐłť
				DIGIT[0][3] = FND_OFF;				// rtc «•Ĺ√
    1b32:	ed e7       	ldi	r30, 0x7D	; 125
    1b34:	f1 e4       	ldi	r31, 0x41	; 65
    1b36:	13 82       	std	Z+3, r1	; 0x03
				DIGIT[0][2] = FND_r;
    1b38:	8a e0       	ldi	r24, 0x0A	; 10
    1b3a:	82 83       	std	Z+2, r24	; 0x02
				DIGIT[0][1] = FND_t;
    1b3c:	8e e1       	ldi	r24, 0x1E	; 30
    1b3e:	81 83       	std	Z+1, r24	; 0x01
				DIGIT[0][0] = FND_c;
    1b40:	9a e1       	ldi	r25, 0x1A	; 26
    1b42:	90 83       	st	Z, r25

				DIGIT[1][3] = FND_OFF;				// Set «•Ĺ√
    1b44:	17 82       	std	Z+7, r1	; 0x07
				DIGIT[1][2] = FND_S;
    1b46:	96 eb       	ldi	r25, 0xB6	; 182
    1b48:	96 83       	std	Z+6, r25	; 0x06
				DIGIT[1][1] = FND_e;
    1b4a:	9e ed       	ldi	r25, 0xDE	; 222
    1b4c:	95 83       	std	Z+5, r25	; 0x05
				DIGIT[1][0] = FND_t;
    1b4e:	84 83       	std	Z+4, r24	; 0x04

				if(SET.Select) {RTC_Set();}			// RTC ľ≥Ń§ łūĶŚ
    1b50:	80 91 49 4b 	lds	r24, 0x4B49	; 0x804b49 <SET+0x1>
    1b54:	88 23       	and	r24, r24
    1b56:	31 f0       	breq	.+12     	; 0x1b64 <Seting_Mode_0+0x132>
    1b58:	0e 94 1c 27 	call	0x4e38	; 0x4e38 <RTC_Set>
    1b5c:	03 c0       	rjmp	.+6      	; 0x1b64 <Seting_Mode_0+0x132>
			break;

			case 5:							// Count = 5 ņŐłť
				Count = 1;					// Ļ›ļĻņĽ ņß«ō Countł¶ √÷ņķ∑ő į®ľ“ Ĺ√Ňī
    1b5e:	c1 e0       	ldi	r28, 0x01	; 1
			break;
    1b60:	01 c0       	rjmp	.+2      	; 0x1b64 <Seting_Mode_0+0x132>
		DIGIT[2][0] = fnd_tbl[Count];					// FND 2.0 Ņ° Count «•Ĺ√
//-------------------------------------------------------------------------------------------------
		switch(Count)							// Count
		{
			case 0:							// Count = 0 ņŐłť
				Count = 4;					// Ļ›ļĻņĽ ņß«ō Countł¶ √÷įŪ∑ő Ńűį° Ĺ√Ňī
    1b62:	c4 e0       	ldi	r28, 0x04	; 4

			case 5:							// Count = 5 ņŐłť
				Count = 1;					// Ļ›ļĻņĽ ņß«ō Countł¶ √÷ņķ∑ő į®ľ“ Ĺ√Ňī
			break;
		}
		wdt_reset();							// ŅŲń°Ķ∂ łģľ¬
    1b64:	0e 94 17 0d 	call	0x1a2e	; 0x1a2e <wdt_reset>
	uint8_t Count = 1;							// Count ļĮľŲ √ Ī‚»≠
	SET.Select = 0;								// Select ĻŲ∆į √ Ī‚»≠

	FND_Value_Data(0, 2, 12);						// FND 0 ~ 2 FND_OFF

	while(SET.Menu)								// Seting_Mode ņŐłť Ļę«— Ļ›ļĻ
    1b68:	80 91 48 4b 	lds	r24, 0x4B48	; 0x804b48 <SET>
    1b6c:	81 11       	cpse	r24, r1
    1b6e:	6b cf       	rjmp	.-298    	; 0x1a46 <Seting_Mode_0+0x14>
				Count = 1;					// Ļ›ļĻņĽ ņß«ō Countł¶ √÷ņķ∑ő į®ľ“ Ĺ√Ňī
			break;
		}
		wdt_reset();							// ŅŲń°Ķ∂ łģľ¬
	}
	Var_Init();								// ļĮľŲ √ Ī‚»≠
    1b70:	0e 94 e5 0c 	call	0x19ca	; 0x19ca <Var_Init>
}
    1b74:	cf 91       	pop	r28
    1b76:	08 95       	ret

00001b78 <Seting_Mode_1>:

//=================================================================================================
void Seting_Mode_1(void)							// ľ¬∆√łūĶŚ 1
{
    1b78:	cf 93       	push	r28
    1b7a:	2f ef       	ldi	r18, 0xFF	; 255
    1b7c:	4f e7       	ldi	r20, 0x7F	; 127
    1b7e:	86 e1       	ldi	r24, 0x16	; 22
    1b80:	21 50       	subi	r18, 0x01	; 1
    1b82:	40 40       	sbci	r20, 0x00	; 0
    1b84:	80 40       	sbci	r24, 0x00	; 0
    1b86:	e1 f7       	brne	.-8      	; 0x1b80 <Seting_Mode_1+0x8>
    1b88:	00 c0       	rjmp	.+0      	; 0x1b8a <Seting_Mode_1+0x12>
    1b8a:	00 00       	nop
	uint8_t cnt = 0;
    1b8c:	c0 e0       	ldi	r28, 0x00	; 0
    1b8e:	c6 c1       	rjmp	.+908    	; 0x1f1c <Seting_Mode_1+0x3a4>
	_delay_ms(500);								// łūĶŚ ŃÝņ‘ Ĺ√ Ņ¨ľ” ĶŅņŘ ĻśŃŲł¶ ņß«— ĶŰ∑ĻņŐ

	while(cnt != 2)								// łřīļ ŅÕ ľĪŇ√ ņŐ łūĶő 1 ņŐłť Ļ›ļĻ
	{
		if(cnt == 0)
    1b90:	c1 11       	cpse	r28, r1
    1b92:	e0 c0       	rjmp	.+448    	; 0x1d54 <Seting_Mode_1+0x1dc>
		{
			if(KEY.Buff)						// Key ņ‘∑¬ņŐ ņ÷ņłłť
    1b94:	80 91 8d 4b 	lds	r24, 0x4B8D	; 0x804b8d <KEY+0x1>
    1b98:	88 23       	and	r24, r24
    1b9a:	49 f1       	breq	.+82     	; 0x1bee <Seting_Mode_1+0x76>
			{
				if     (KEY.Key == 1 && SAVE.RoomNum < 100) {SAVE.RoomNum++; KEY.Key = 0;}	// ĺų  ĻŲ∆į ņŐłť įĻľŲ ľ≥Ń§į™ Ńűį°
    1b9c:	80 91 8e 4b 	lds	r24, 0x4B8E	; 0x804b8e <KEY+0x2>
    1ba0:	81 30       	cpi	r24, 0x01	; 1
    1ba2:	61 f4       	brne	.+24     	; 0x1bbc <Seting_Mode_1+0x44>
    1ba4:	80 91 0f 44 	lds	r24, 0x440F	; 0x80440f <SAVE+0x25a>
    1ba8:	84 36       	cpi	r24, 0x64	; 100
    1baa:	44 f4       	brge	.+16     	; 0x1bbc <Seting_Mode_1+0x44>
    1bac:	ef e0       	ldi	r30, 0x0F	; 15
    1bae:	f4 e4       	ldi	r31, 0x44	; 68
    1bb0:	80 81       	ld	r24, Z
    1bb2:	8f 5f       	subi	r24, 0xFF	; 255
    1bb4:	80 83       	st	Z, r24
    1bb6:	10 92 8e 4b 	sts	0x4B8E, r1	; 0x804b8e <KEY+0x2>
    1bba:	19 c0       	rjmp	.+50     	; 0x1bee <Seting_Mode_1+0x76>
				else if(KEY.Key == 3 && SAVE.RoomNum > 1)   {SAVE.RoomNum--; KEY.Key = 0;}	// īŔŅÓĻŲ∆į ņŐłť įĻľŲ ľ≥Ń§į™ į®ľ“
    1bbc:	80 91 8e 4b 	lds	r24, 0x4B8E	; 0x804b8e <KEY+0x2>
    1bc0:	83 30       	cpi	r24, 0x03	; 3
    1bc2:	61 f4       	brne	.+24     	; 0x1bdc <Seting_Mode_1+0x64>
    1bc4:	80 91 0f 44 	lds	r24, 0x440F	; 0x80440f <SAVE+0x25a>
    1bc8:	82 30       	cpi	r24, 0x02	; 2
    1bca:	44 f0       	brlt	.+16     	; 0x1bdc <Seting_Mode_1+0x64>
    1bcc:	ef e0       	ldi	r30, 0x0F	; 15
    1bce:	f4 e4       	ldi	r31, 0x44	; 68
    1bd0:	80 81       	ld	r24, Z
    1bd2:	81 50       	subi	r24, 0x01	; 1
    1bd4:	80 83       	st	Z, r24
    1bd6:	10 92 8e 4b 	sts	0x4B8E, r1	; 0x804b8e <KEY+0x2>
    1bda:	09 c0       	rjmp	.+18     	; 0x1bee <Seting_Mode_1+0x76>
				else if(KEY.Key == 2)                       {cnt++; SET.Save = 0; KEY.Key = 0;}	// ľĪŇ√ĻŲ∆į ņŐłť SET.Room √ Ī‚»≠
    1bdc:	80 91 8e 4b 	lds	r24, 0x4B8E	; 0x804b8e <KEY+0x2>
    1be0:	82 30       	cpi	r24, 0x02	; 2
    1be2:	29 f4       	brne	.+10     	; 0x1bee <Seting_Mode_1+0x76>
    1be4:	cf 5f       	subi	r28, 0xFF	; 255
    1be6:	10 92 4c 4b 	sts	0x4B4C, r1	; 0x804b4c <SET+0x4>
    1bea:	10 92 8e 4b 	sts	0x4B8E, r1	; 0x804b8e <KEY+0x2>
			}

			if(Blink) {FND_Value_Data(1,1,12);}			// Blink = 1 ņŐłť FND 1 OFF
    1bee:	80 91 b9 4b 	lds	r24, 0x4BB9	; 0x804bb9 <Blink>
    1bf2:	88 23       	and	r24, r24
    1bf4:	31 f0       	breq	.+12     	; 0x1c02 <Seting_Mode_1+0x8a>
    1bf6:	4c e0       	ldi	r20, 0x0C	; 12
    1bf8:	61 e0       	ldi	r22, 0x01	; 1
    1bfa:	81 e0       	ldi	r24, 0x01	; 1
    1bfc:	0e 94 c3 05 	call	0xb86	; 0xb86 <FND_Value_Data>
    1c00:	54 c0       	rjmp	.+168    	; 0x1caa <Seting_Mode_1+0x132>
			else							// Blink = 0 ņŐłť FND 1 Ņ° Ļś ĻÝ»£ «•Ĺ√
			{
				DIGIT[1][3] = FND_OFF;				// FND 1 Ņ° Ļś ĻÝ»£ «•Ĺ√
    1c02:	ad e7       	ldi	r26, 0x7D	; 125
    1c04:	b1 e4       	ldi	r27, 0x41	; 65
    1c06:	17 96       	adiw	r26, 0x07	; 7
    1c08:	1c 92       	st	X, r1
    1c0a:	17 97       	sbiw	r26, 0x07	; 7
				DIGIT[1][2] = fnd_tbl[SAVE.RoomNum / 100];
    1c0c:	2f e0       	ldi	r18, 0x0F	; 15
    1c0e:	34 e4       	ldi	r19, 0x44	; 68
    1c10:	f9 01       	movw	r30, r18
    1c12:	90 81       	ld	r25, Z
    1c14:	89 e2       	ldi	r24, 0x29	; 41
    1c16:	98 02       	muls	r25, r24
    1c18:	e1 2d       	mov	r30, r1
    1c1a:	11 24       	eor	r1, r1
    1c1c:	e5 95       	asr	r30
    1c1e:	e5 95       	asr	r30
    1c20:	e5 95       	asr	r30
    1c22:	e5 95       	asr	r30
    1c24:	97 fd       	sbrc	r25, 7
    1c26:	e3 95       	inc	r30
    1c28:	0e 2e       	mov	r0, r30
    1c2a:	00 0c       	add	r0, r0
    1c2c:	ff 0b       	sbc	r31, r31
    1c2e:	e9 5b       	subi	r30, 0xB9	; 185
    1c30:	fe 4b       	sbci	r31, 0xBE	; 190
    1c32:	90 81       	ld	r25, Z
    1c34:	16 96       	adiw	r26, 0x06	; 6
    1c36:	9c 93       	st	X, r25
    1c38:	16 97       	sbiw	r26, 0x06	; 6
				DIGIT[1][1] = fnd_tbl[SAVE.RoomNum % 100 / 10];
    1c3a:	f9 01       	movw	r30, r18
    1c3c:	90 81       	ld	r25, Z
    1c3e:	98 02       	muls	r25, r24
    1c40:	81 2d       	mov	r24, r1
    1c42:	11 24       	eor	r1, r1
    1c44:	85 95       	asr	r24
    1c46:	85 95       	asr	r24
    1c48:	85 95       	asr	r24
    1c4a:	85 95       	asr	r24
    1c4c:	97 fd       	sbrc	r25, 7
    1c4e:	83 95       	inc	r24
    1c50:	f4 e6       	ldi	r31, 0x64	; 100
    1c52:	8f 9f       	mul	r24, r31
    1c54:	90 19       	sub	r25, r0
    1c56:	11 24       	eor	r1, r1
    1c58:	87 e6       	ldi	r24, 0x67	; 103
    1c5a:	98 02       	muls	r25, r24
    1c5c:	e1 2d       	mov	r30, r1
    1c5e:	11 24       	eor	r1, r1
    1c60:	e5 95       	asr	r30
    1c62:	e5 95       	asr	r30
    1c64:	97 fd       	sbrc	r25, 7
    1c66:	e3 95       	inc	r30
    1c68:	0e 2e       	mov	r0, r30
    1c6a:	00 0c       	add	r0, r0
    1c6c:	ff 0b       	sbc	r31, r31
    1c6e:	e9 5b       	subi	r30, 0xB9	; 185
    1c70:	fe 4b       	sbci	r31, 0xBE	; 190
    1c72:	90 81       	ld	r25, Z
    1c74:	15 96       	adiw	r26, 0x05	; 5
    1c76:	9c 93       	st	X, r25
    1c78:	15 97       	sbiw	r26, 0x05	; 5
				DIGIT[1][0] = fnd_tbl[SAVE.RoomNum % 10];
    1c7a:	f9 01       	movw	r30, r18
    1c7c:	20 81       	ld	r18, Z
    1c7e:	28 02       	muls	r18, r24
    1c80:	81 2d       	mov	r24, r1
    1c82:	11 24       	eor	r1, r1
    1c84:	85 95       	asr	r24
    1c86:	85 95       	asr	r24
    1c88:	27 fd       	sbrc	r18, 7
    1c8a:	83 95       	inc	r24
    1c8c:	88 0f       	add	r24, r24
    1c8e:	98 2f       	mov	r25, r24
    1c90:	99 0f       	add	r25, r25
    1c92:	99 0f       	add	r25, r25
    1c94:	89 0f       	add	r24, r25
    1c96:	e2 2f       	mov	r30, r18
    1c98:	e8 1b       	sub	r30, r24
    1c9a:	0e 2e       	mov	r0, r30
    1c9c:	00 0c       	add	r0, r0
    1c9e:	ff 0b       	sbc	r31, r31
    1ca0:	e9 5b       	subi	r30, 0xB9	; 185
    1ca2:	fe 4b       	sbci	r31, 0xBE	; 190
    1ca4:	80 81       	ld	r24, Z
    1ca6:	14 96       	adiw	r26, 0x04	; 4
    1ca8:	8c 93       	st	X, r24
			}

			DIGIT[2][3] = FND_OFF;					// FND 2 Ņ° ĹļŇÁ ĻÝ»£ «•Ĺ√
    1caa:	ad e7       	ldi	r26, 0x7D	; 125
    1cac:	b1 e4       	ldi	r27, 0x41	; 65
    1cae:	1b 96       	adiw	r26, 0x0b	; 11
    1cb0:	1c 92       	st	X, r1
    1cb2:	1b 97       	sbiw	r26, 0x0b	; 11
			DIGIT[2][2] = fnd_tbl[SAVE.StalNum / 100];
    1cb4:	20 e1       	ldi	r18, 0x10	; 16
    1cb6:	34 e4       	ldi	r19, 0x44	; 68
    1cb8:	f9 01       	movw	r30, r18
    1cba:	90 81       	ld	r25, Z
    1cbc:	89 e2       	ldi	r24, 0x29	; 41
    1cbe:	98 02       	muls	r25, r24
    1cc0:	e1 2d       	mov	r30, r1
    1cc2:	11 24       	eor	r1, r1
    1cc4:	e5 95       	asr	r30
    1cc6:	e5 95       	asr	r30
    1cc8:	e5 95       	asr	r30
    1cca:	e5 95       	asr	r30
    1ccc:	97 fd       	sbrc	r25, 7
    1cce:	e3 95       	inc	r30
    1cd0:	0e 2e       	mov	r0, r30
    1cd2:	00 0c       	add	r0, r0
    1cd4:	ff 0b       	sbc	r31, r31
    1cd6:	e9 5b       	subi	r30, 0xB9	; 185
    1cd8:	fe 4b       	sbci	r31, 0xBE	; 190
    1cda:	90 81       	ld	r25, Z
    1cdc:	1a 96       	adiw	r26, 0x0a	; 10
    1cde:	9c 93       	st	X, r25
    1ce0:	1a 97       	sbiw	r26, 0x0a	; 10
			DIGIT[2][1] = fnd_tbl[SAVE.StalNum % 100 / 10];
    1ce2:	f9 01       	movw	r30, r18
    1ce4:	90 81       	ld	r25, Z
    1ce6:	98 02       	muls	r25, r24
    1ce8:	81 2d       	mov	r24, r1
    1cea:	11 24       	eor	r1, r1
    1cec:	85 95       	asr	r24
    1cee:	85 95       	asr	r24
    1cf0:	85 95       	asr	r24
    1cf2:	85 95       	asr	r24
    1cf4:	97 fd       	sbrc	r25, 7
    1cf6:	83 95       	inc	r24
    1cf8:	f4 e6       	ldi	r31, 0x64	; 100
    1cfa:	8f 9f       	mul	r24, r31
    1cfc:	90 19       	sub	r25, r0
    1cfe:	11 24       	eor	r1, r1
    1d00:	87 e6       	ldi	r24, 0x67	; 103
    1d02:	98 02       	muls	r25, r24
    1d04:	e1 2d       	mov	r30, r1
    1d06:	11 24       	eor	r1, r1
    1d08:	e5 95       	asr	r30
    1d0a:	e5 95       	asr	r30
    1d0c:	97 fd       	sbrc	r25, 7
    1d0e:	e3 95       	inc	r30
    1d10:	0e 2e       	mov	r0, r30
    1d12:	00 0c       	add	r0, r0
    1d14:	ff 0b       	sbc	r31, r31
    1d16:	e9 5b       	subi	r30, 0xB9	; 185
    1d18:	fe 4b       	sbci	r31, 0xBE	; 190
    1d1a:	90 81       	ld	r25, Z
    1d1c:	19 96       	adiw	r26, 0x09	; 9
    1d1e:	9c 93       	st	X, r25
    1d20:	19 97       	sbiw	r26, 0x09	; 9
			DIGIT[2][0] = fnd_tbl[SAVE.StalNum % 10];
    1d22:	f9 01       	movw	r30, r18
    1d24:	20 81       	ld	r18, Z
    1d26:	28 02       	muls	r18, r24
    1d28:	81 2d       	mov	r24, r1
    1d2a:	11 24       	eor	r1, r1
    1d2c:	85 95       	asr	r24
    1d2e:	85 95       	asr	r24
    1d30:	27 fd       	sbrc	r18, 7
    1d32:	83 95       	inc	r24
    1d34:	88 0f       	add	r24, r24
    1d36:	98 2f       	mov	r25, r24
    1d38:	99 0f       	add	r25, r25
    1d3a:	99 0f       	add	r25, r25
    1d3c:	89 0f       	add	r24, r25
    1d3e:	e2 2f       	mov	r30, r18
    1d40:	e8 1b       	sub	r30, r24
    1d42:	0e 2e       	mov	r0, r30
    1d44:	00 0c       	add	r0, r0
    1d46:	ff 0b       	sbc	r31, r31
    1d48:	e9 5b       	subi	r30, 0xB9	; 185
    1d4a:	fe 4b       	sbci	r31, 0xBE	; 190
    1d4c:	80 81       	ld	r24, Z
    1d4e:	18 96       	adiw	r26, 0x08	; 8
    1d50:	8c 93       	st	X, r24
    1d52:	e2 c0       	rjmp	.+452    	; 0x1f18 <Seting_Mode_1+0x3a0>
		}
		else if(cnt == 1)
    1d54:	c1 30       	cpi	r28, 0x01	; 1
    1d56:	09 f0       	breq	.+2      	; 0x1d5a <Seting_Mode_1+0x1e2>
    1d58:	df c0       	rjmp	.+446    	; 0x1f18 <Seting_Mode_1+0x3a0>
		{
			if(KEY.Buff)						// Key ņ‘∑¬ņŐ ņ÷ņłłť
    1d5a:	80 91 8d 4b 	lds	r24, 0x4B8D	; 0x804b8d <KEY+0x1>
    1d5e:	88 23       	and	r24, r24
    1d60:	49 f1       	breq	.+82     	; 0x1db4 <Seting_Mode_1+0x23c>
			{
				if     (KEY.Key == 1 && SAVE.StalNum < 100) {SAVE.StalNum++; KEY.Key = 0;}	// ĺų  ĻŲ∆į ņŐłť įĻľŲ ľ≥Ń§į™ Ńűį°
    1d62:	80 91 8e 4b 	lds	r24, 0x4B8E	; 0x804b8e <KEY+0x2>
    1d66:	81 30       	cpi	r24, 0x01	; 1
    1d68:	61 f4       	brne	.+24     	; 0x1d82 <Seting_Mode_1+0x20a>
    1d6a:	80 91 10 44 	lds	r24, 0x4410	; 0x804410 <SAVE+0x25b>
    1d6e:	84 36       	cpi	r24, 0x64	; 100
    1d70:	44 f4       	brge	.+16     	; 0x1d82 <Seting_Mode_1+0x20a>
    1d72:	e0 e1       	ldi	r30, 0x10	; 16
    1d74:	f4 e4       	ldi	r31, 0x44	; 68
    1d76:	80 81       	ld	r24, Z
    1d78:	8f 5f       	subi	r24, 0xFF	; 255
    1d7a:	80 83       	st	Z, r24
    1d7c:	10 92 8e 4b 	sts	0x4B8E, r1	; 0x804b8e <KEY+0x2>
    1d80:	19 c0       	rjmp	.+50     	; 0x1db4 <Seting_Mode_1+0x23c>
				else if(KEY.Key == 3 && SAVE.StalNum > 1)   {SAVE.StalNum--; KEY.Key = 0;}	// īŔŅÓĻŲ∆į ņŐłť įĻľŲ ľ≥Ń§į™ į®ľ“
    1d82:	80 91 8e 4b 	lds	r24, 0x4B8E	; 0x804b8e <KEY+0x2>
    1d86:	83 30       	cpi	r24, 0x03	; 3
    1d88:	61 f4       	brne	.+24     	; 0x1da2 <Seting_Mode_1+0x22a>
    1d8a:	80 91 10 44 	lds	r24, 0x4410	; 0x804410 <SAVE+0x25b>
    1d8e:	82 30       	cpi	r24, 0x02	; 2
    1d90:	44 f0       	brlt	.+16     	; 0x1da2 <Seting_Mode_1+0x22a>
    1d92:	e0 e1       	ldi	r30, 0x10	; 16
    1d94:	f4 e4       	ldi	r31, 0x44	; 68
    1d96:	80 81       	ld	r24, Z
    1d98:	81 50       	subi	r24, 0x01	; 1
    1d9a:	80 83       	st	Z, r24
    1d9c:	10 92 8e 4b 	sts	0x4B8E, r1	; 0x804b8e <KEY+0x2>
    1da0:	09 c0       	rjmp	.+18     	; 0x1db4 <Seting_Mode_1+0x23c>
				else if(KEY.Key == 2)			    {cnt++; SET.Save = 0; KEY.Key = 0;}	// ľĪŇ√ĻŲ∆į ņŐłť SET.Room √ Ī‚»≠
    1da2:	80 91 8e 4b 	lds	r24, 0x4B8E	; 0x804b8e <KEY+0x2>
    1da6:	82 30       	cpi	r24, 0x02	; 2
    1da8:	29 f4       	brne	.+10     	; 0x1db4 <Seting_Mode_1+0x23c>
    1daa:	cf 5f       	subi	r28, 0xFF	; 255
    1dac:	10 92 4c 4b 	sts	0x4B4C, r1	; 0x804b4c <SET+0x4>
    1db0:	10 92 8e 4b 	sts	0x4B8E, r1	; 0x804b8e <KEY+0x2>
			}

			if(Blink) {FND_Value_Data(2,2,12);}			// Blink = 1 ņŐłť FND 2 OFF
    1db4:	80 91 b9 4b 	lds	r24, 0x4BB9	; 0x804bb9 <Blink>
    1db8:	88 23       	and	r24, r24
    1dba:	31 f0       	breq	.+12     	; 0x1dc8 <Seting_Mode_1+0x250>
    1dbc:	4c e0       	ldi	r20, 0x0C	; 12
    1dbe:	62 e0       	ldi	r22, 0x02	; 2
    1dc0:	82 e0       	ldi	r24, 0x02	; 2
    1dc2:	0e 94 c3 05 	call	0xb86	; 0xb86 <FND_Value_Data>
    1dc6:	54 c0       	rjmp	.+168    	; 0x1e70 <Seting_Mode_1+0x2f8>
			else							// Blink = 0 ņŐłť FND 2Ņ° ĹļŇÁ ĻÝ»£ «•Ĺ√
			{
				DIGIT[2][3] = FND_OFF;				// FND 2 Ņ° ĹļŇÁ ĻÝ»£ «•Ĺ√
    1dc8:	ad e7       	ldi	r26, 0x7D	; 125
    1dca:	b1 e4       	ldi	r27, 0x41	; 65
    1dcc:	1b 96       	adiw	r26, 0x0b	; 11
    1dce:	1c 92       	st	X, r1
    1dd0:	1b 97       	sbiw	r26, 0x0b	; 11
				DIGIT[2][2] = fnd_tbl[SAVE.StalNum / 100];
    1dd2:	20 e1       	ldi	r18, 0x10	; 16
    1dd4:	34 e4       	ldi	r19, 0x44	; 68
    1dd6:	f9 01       	movw	r30, r18
    1dd8:	90 81       	ld	r25, Z
    1dda:	89 e2       	ldi	r24, 0x29	; 41
    1ddc:	98 02       	muls	r25, r24
    1dde:	e1 2d       	mov	r30, r1
    1de0:	11 24       	eor	r1, r1
    1de2:	e5 95       	asr	r30
    1de4:	e5 95       	asr	r30
    1de6:	e5 95       	asr	r30
    1de8:	e5 95       	asr	r30
    1dea:	97 fd       	sbrc	r25, 7
    1dec:	e3 95       	inc	r30
    1dee:	0e 2e       	mov	r0, r30
    1df0:	00 0c       	add	r0, r0
    1df2:	ff 0b       	sbc	r31, r31
    1df4:	e9 5b       	subi	r30, 0xB9	; 185
    1df6:	fe 4b       	sbci	r31, 0xBE	; 190
    1df8:	90 81       	ld	r25, Z
    1dfa:	1a 96       	adiw	r26, 0x0a	; 10
    1dfc:	9c 93       	st	X, r25
    1dfe:	1a 97       	sbiw	r26, 0x0a	; 10
				DIGIT[2][1] = fnd_tbl[SAVE.StalNum % 100 / 10];
    1e00:	f9 01       	movw	r30, r18
    1e02:	90 81       	ld	r25, Z
    1e04:	98 02       	muls	r25, r24
    1e06:	81 2d       	mov	r24, r1
    1e08:	11 24       	eor	r1, r1
    1e0a:	85 95       	asr	r24
    1e0c:	85 95       	asr	r24
    1e0e:	85 95       	asr	r24
    1e10:	85 95       	asr	r24
    1e12:	97 fd       	sbrc	r25, 7
    1e14:	83 95       	inc	r24
    1e16:	f4 e6       	ldi	r31, 0x64	; 100
    1e18:	8f 9f       	mul	r24, r31
    1e1a:	90 19       	sub	r25, r0
    1e1c:	11 24       	eor	r1, r1
    1e1e:	87 e6       	ldi	r24, 0x67	; 103
    1e20:	98 02       	muls	r25, r24
    1e22:	e1 2d       	mov	r30, r1
    1e24:	11 24       	eor	r1, r1
    1e26:	e5 95       	asr	r30
    1e28:	e5 95       	asr	r30
    1e2a:	97 fd       	sbrc	r25, 7
    1e2c:	e3 95       	inc	r30
    1e2e:	0e 2e       	mov	r0, r30
    1e30:	00 0c       	add	r0, r0
    1e32:	ff 0b       	sbc	r31, r31
    1e34:	e9 5b       	subi	r30, 0xB9	; 185
    1e36:	fe 4b       	sbci	r31, 0xBE	; 190
    1e38:	90 81       	ld	r25, Z
    1e3a:	19 96       	adiw	r26, 0x09	; 9
    1e3c:	9c 93       	st	X, r25
    1e3e:	19 97       	sbiw	r26, 0x09	; 9
				DIGIT[2][0] = fnd_tbl[SAVE.StalNum % 10];
    1e40:	f9 01       	movw	r30, r18
    1e42:	20 81       	ld	r18, Z
    1e44:	28 02       	muls	r18, r24
    1e46:	81 2d       	mov	r24, r1
    1e48:	11 24       	eor	r1, r1
    1e4a:	85 95       	asr	r24
    1e4c:	85 95       	asr	r24
    1e4e:	27 fd       	sbrc	r18, 7
    1e50:	83 95       	inc	r24
    1e52:	88 0f       	add	r24, r24
    1e54:	98 2f       	mov	r25, r24
    1e56:	99 0f       	add	r25, r25
    1e58:	99 0f       	add	r25, r25
    1e5a:	89 0f       	add	r24, r25
    1e5c:	e2 2f       	mov	r30, r18
    1e5e:	e8 1b       	sub	r30, r24
    1e60:	0e 2e       	mov	r0, r30
    1e62:	00 0c       	add	r0, r0
    1e64:	ff 0b       	sbc	r31, r31
    1e66:	e9 5b       	subi	r30, 0xB9	; 185
    1e68:	fe 4b       	sbci	r31, 0xBE	; 190
    1e6a:	80 81       	ld	r24, Z
    1e6c:	18 96       	adiw	r26, 0x08	; 8
    1e6e:	8c 93       	st	X, r24
			}

			DIGIT[1][3] = FND_OFF;					// FND 1 Ņ° Ļś ĻÝ»£ «•Ĺ√
    1e70:	ad e7       	ldi	r26, 0x7D	; 125
    1e72:	b1 e4       	ldi	r27, 0x41	; 65
    1e74:	17 96       	adiw	r26, 0x07	; 7
    1e76:	1c 92       	st	X, r1
    1e78:	17 97       	sbiw	r26, 0x07	; 7
			DIGIT[1][2] = fnd_tbl[SAVE.RoomNum / 100];
    1e7a:	2f e0       	ldi	r18, 0x0F	; 15
    1e7c:	34 e4       	ldi	r19, 0x44	; 68
    1e7e:	f9 01       	movw	r30, r18
    1e80:	90 81       	ld	r25, Z
    1e82:	89 e2       	ldi	r24, 0x29	; 41
    1e84:	98 02       	muls	r25, r24
    1e86:	e1 2d       	mov	r30, r1
    1e88:	11 24       	eor	r1, r1
    1e8a:	e5 95       	asr	r30
    1e8c:	e5 95       	asr	r30
    1e8e:	e5 95       	asr	r30
    1e90:	e5 95       	asr	r30
    1e92:	97 fd       	sbrc	r25, 7
    1e94:	e3 95       	inc	r30
    1e96:	0e 2e       	mov	r0, r30
    1e98:	00 0c       	add	r0, r0
    1e9a:	ff 0b       	sbc	r31, r31
    1e9c:	e9 5b       	subi	r30, 0xB9	; 185
    1e9e:	fe 4b       	sbci	r31, 0xBE	; 190
    1ea0:	90 81       	ld	r25, Z
    1ea2:	16 96       	adiw	r26, 0x06	; 6
    1ea4:	9c 93       	st	X, r25
    1ea6:	16 97       	sbiw	r26, 0x06	; 6
			DIGIT[1][1] = fnd_tbl[SAVE.RoomNum % 100 / 10];
    1ea8:	f9 01       	movw	r30, r18
    1eaa:	90 81       	ld	r25, Z
    1eac:	98 02       	muls	r25, r24
    1eae:	81 2d       	mov	r24, r1
    1eb0:	11 24       	eor	r1, r1
    1eb2:	85 95       	asr	r24
    1eb4:	85 95       	asr	r24
    1eb6:	85 95       	asr	r24
    1eb8:	85 95       	asr	r24
    1eba:	97 fd       	sbrc	r25, 7
    1ebc:	83 95       	inc	r24
    1ebe:	f4 e6       	ldi	r31, 0x64	; 100
    1ec0:	8f 9f       	mul	r24, r31
    1ec2:	90 19       	sub	r25, r0
    1ec4:	11 24       	eor	r1, r1
    1ec6:	87 e6       	ldi	r24, 0x67	; 103
    1ec8:	98 02       	muls	r25, r24
    1eca:	e1 2d       	mov	r30, r1
    1ecc:	11 24       	eor	r1, r1
    1ece:	e5 95       	asr	r30
    1ed0:	e5 95       	asr	r30
    1ed2:	97 fd       	sbrc	r25, 7
    1ed4:	e3 95       	inc	r30
    1ed6:	0e 2e       	mov	r0, r30
    1ed8:	00 0c       	add	r0, r0
    1eda:	ff 0b       	sbc	r31, r31
    1edc:	e9 5b       	subi	r30, 0xB9	; 185
    1ede:	fe 4b       	sbci	r31, 0xBE	; 190
    1ee0:	90 81       	ld	r25, Z
    1ee2:	15 96       	adiw	r26, 0x05	; 5
    1ee4:	9c 93       	st	X, r25
    1ee6:	15 97       	sbiw	r26, 0x05	; 5
			DIGIT[1][0] = fnd_tbl[SAVE.RoomNum % 10];
    1ee8:	f9 01       	movw	r30, r18
    1eea:	20 81       	ld	r18, Z
    1eec:	28 02       	muls	r18, r24
    1eee:	81 2d       	mov	r24, r1
    1ef0:	11 24       	eor	r1, r1
    1ef2:	85 95       	asr	r24
    1ef4:	85 95       	asr	r24
    1ef6:	27 fd       	sbrc	r18, 7
    1ef8:	83 95       	inc	r24
    1efa:	88 0f       	add	r24, r24
    1efc:	98 2f       	mov	r25, r24
    1efe:	99 0f       	add	r25, r25
    1f00:	99 0f       	add	r25, r25
    1f02:	89 0f       	add	r24, r25
    1f04:	e2 2f       	mov	r30, r18
    1f06:	e8 1b       	sub	r30, r24
    1f08:	0e 2e       	mov	r0, r30
    1f0a:	00 0c       	add	r0, r0
    1f0c:	ff 0b       	sbc	r31, r31
    1f0e:	e9 5b       	subi	r30, 0xB9	; 185
    1f10:	fe 4b       	sbci	r31, 0xBE	; 190
    1f12:	80 81       	ld	r24, Z
    1f14:	14 96       	adiw	r26, 0x04	; 4
    1f16:	8c 93       	st	X, r24
		}

		wdt_reset();							// ŅŲń°Ķ∂ łģľ¬
    1f18:	0e 94 17 0d 	call	0x1a2e	; 0x1a2e <wdt_reset>
void Seting_Mode_1(void)							// ľ¬∆√łūĶŚ 1
{
	uint8_t cnt = 0;
	_delay_ms(500);								// łūĶŚ ŃÝņ‘ Ĺ√ Ņ¨ľ” ĶŅņŘ ĻśŃŲł¶ ņß«— ĶŰ∑ĻņŐ

	while(cnt != 2)								// łřīļ ŅÕ ľĪŇ√ ņŐ łūĶő 1 ņŐłť Ļ›ļĻ
    1f1c:	c2 30       	cpi	r28, 0x02	; 2
    1f1e:	09 f0       	breq	.+2      	; 0x1f22 <Seting_Mode_1+0x3aa>
    1f20:	37 ce       	rjmp	.-914    	; 0x1b90 <Seting_Mode_1+0x18>
			DIGIT[1][0] = fnd_tbl[SAVE.RoomNum % 10];
		}

		wdt_reset();							// ŅŲń°Ķ∂ łģľ¬
	}
	SET.NumSET = 0;
    1f22:	10 92 4a 4b 	sts	0x4B4A, r1	; 0x804b4a <SET+0x2>
	Alarm();
    1f26:	0e 94 ac 07 	call	0xf58	; 0xf58 <Alarm>
}
    1f2a:	cf 91       	pop	r28
    1f2c:	08 95       	ret

00001f2e <main>:
}

//=================================================================================================
int main(void)
{
	atmel_start_init();
    1f2e:	0e 94 38 04 	call	0x870	; 0x870 <atmel_start_init>
	MCU_Init();								// MCU Port √ Ī‚»≠
    1f32:	0e 94 17 05 	call	0xa2e	; 0xa2e <MCU_Init>
//-------------------------------------------------------------------------------------------------
#ifdef USART_SET								// USART ĽÁŅŽľ≥Ń§
	fdevopen(std_putchar, NULL);						// printf «‘ľŲĽÁŅŽ ľ≥Ń§
    1f36:	60 e0       	ldi	r22, 0x00	; 0
    1f38:	70 e0       	ldi	r23, 0x00	; 0
    1f3a:	83 e0       	ldi	r24, 0x03	; 3
    1f3c:	95 e0       	ldi	r25, 0x05	; 5
    1f3e:	0e 94 c6 3a 	call	0x758c	; 0x758c <fdevopen>
	printf_port = 1;							// Usart Port 1 ĽÁŅŽ
    1f42:	81 e0       	ldi	r24, 0x01	; 1
    1f44:	80 93 8b 4b 	sts	0x4B8B, r24	; 0x804b8b <printf_port>
    1f48:	2f ef       	ldi	r18, 0xFF	; 255
    1f4a:	8f e3       	ldi	r24, 0x3F	; 63
    1f4c:	92 e0       	ldi	r25, 0x02	; 2
    1f4e:	21 50       	subi	r18, 0x01	; 1
    1f50:	80 40       	sbci	r24, 0x00	; 0
    1f52:	90 40       	sbci	r25, 0x00	; 0
    1f54:	e1 f7       	brne	.-8      	; 0x1f4e <main+0x20>
    1f56:	00 c0       	rjmp	.+0      	; 0x1f58 <main+0x2a>
    1f58:	00 00       	nop
	_delay_ms(50);								// ŇŽĹŇ Port ĺ»Ń§»≠ Time

	printf("\r\n");
    1f5a:	88 e0       	ldi	r24, 0x08	; 8
    1f5c:	91 e4       	ldi	r25, 0x41	; 65
    1f5e:	0e 94 61 3b 	call	0x76c2	; 0x76c2 <puts>
	printf("//================================================//\r\n");
    1f62:	88 e6       	ldi	r24, 0x68	; 104
    1f64:	90 e4       	ldi	r25, 0x40	; 64
    1f66:	0e 94 61 3b 	call	0x76c2	; 0x76c2 <puts>
	printf("//===  Product Name : Pig Scales V4.1(SC-500)  ===//\r\n");	// ProductName
    1f6a:	8e e9       	ldi	r24, 0x9E	; 158
    1f6c:	90 e4       	ldi	r25, 0x40	; 64
    1f6e:	0e 94 61 3b 	call	0x76c2	; 0x76c2 <puts>
	printf("//===  File Content : Moving Weight Scales     ===//\r\n");	// File ≥ĽŅŽ : ņŐĶŅ«Ł √ľŃŖ √ÝŃ§Ī‚ 
    1f72:	84 ed       	ldi	r24, 0xD4	; 212
    1f74:	90 e4       	ldi	r25, 0x40	; 64
    1f76:	0e 94 61 3b 	call	0x76c2	; 0x76c2 <puts>
	printf("//===  Compiled     : %s, %s    ===//\r\n", __DATE__, __TIME__);// Compiled : ≥Į¬•, Ĺ√į£ «•Ĺ√
    1f7a:	8a e0       	ldi	r24, 0x0A	; 10
    1f7c:	91 e4       	ldi	r25, 0x41	; 65
    1f7e:	9f 93       	push	r25
    1f80:	8f 93       	push	r24
    1f82:	83 e1       	ldi	r24, 0x13	; 19
    1f84:	91 e4       	ldi	r25, 0x41	; 65
    1f86:	9f 93       	push	r25
    1f88:	8f 93       	push	r24
    1f8a:	8f e1       	ldi	r24, 0x1F	; 31
    1f8c:	91 e4       	ldi	r25, 0x41	; 65
    1f8e:	9f 93       	push	r25
    1f90:	8f 93       	push	r24
    1f92:	0e 94 4d 3b 	call	0x769a	; 0x769a <printf>
	printf("//================================================//\r\n");
    1f96:	88 e6       	ldi	r24, 0x68	; 104
    1f98:	90 e4       	ldi	r25, 0x40	; 64
    1f9a:	0e 94 61 3b 	call	0x76c2	; 0x76c2 <puts>
	printf("\r\n");
    1f9e:	88 e0       	ldi	r24, 0x08	; 8
    1fa0:	91 e4       	ldi	r25, 0x41	; 65
    1fa2:	0e 94 61 3b 	call	0x76c2	; 0x76c2 <puts>
#endif
//-------------------------------------------------------------------------------------------------
#ifdef ADC_SET									// ADC ĽÁŅŽľ≥Ń§
	ADC_init();								// ADC √ Ī‚»≠ Ļ◊ ľ≥Ń§
    1fa6:	0e 94 cc 10 	call	0x2198	; 0x2198 <ADC_init>
	VREF_ADC_init();
    1faa:	0e 94 f4 10 	call	0x21e8	; 0x21e8 <VREF_ADC_init>
	ADC_is_conversion_done();
    1fae:	0e 94 dd 10 	call	0x21ba	; 0x21ba <ADC_is_conversion_done>
#ifdef PWM_SET									// PWM ĽÁŅŽľ≥Ń§
	PWM_0_enable();								// PWM 0 √ Ī‚»≠ Ļ◊ ľ≥Ń§
	PWM_0_enable_output_ch0();
#endif
//-------------------------------------------------------------------------------------------------
	sei();									// ņŁ√ľ ņőŇÕ∑īŇÕ Ĺ√ņŘ
    1fb2:	78 94       	sei
	Alarm();								// ĺň∂ų(ļŮ«Ń 3ĻÝ)
    1fb4:	0e 94 ac 07 	call	0xf58	; 0xf58 <Alarm>
	Rx_LED_OFF;								// RX LED OFF
    1fb8:	e4 e2       	ldi	r30, 0x24	; 36
    1fba:	f4 e0       	ldi	r31, 0x04	; 4
    1fbc:	80 81       	ld	r24, Z
    1fbe:	87 7f       	andi	r24, 0xF7	; 247
    1fc0:	80 83       	st	Z, r24
	Tx_LED_OFF;								// TX LED OFF
    1fc2:	80 81       	ld	r24, Z
    1fc4:	8b 7f       	andi	r24, 0xFB	; 251
    1fc6:	80 83       	st	Z, r24
//-------------------------------------------------------------------------------------------------
	uint8_t Time_Count = 5;							// Ĺ√į£ «•Ĺ√ ŅŽ ļĮľŲ ľ≥Ń§
	uint8_t SECOND = 0;							// ņŐņŁ Ĺ√į£(√ )ŅŽ ļĮľŲ ľ≥Ń§
	Read_eeprom();
    1fc8:	0e 94 a7 06 	call	0xd4e	; 0xd4e <Read_eeprom>
//-------------------------------------------------------------------------------------------------
	DIGIT[0][3] = FND_OFF;							// Ver 3.1 «•Ĺ√
    1fcc:	ed e7       	ldi	r30, 0x7D	; 125
    1fce:	f1 e4       	ldi	r31, 0x41	; 65
    1fd0:	13 82       	std	Z+3, r1	; 0x03
	DIGIT[0][2] = FND_4 + FND_Point;					
    1fd2:	87 e6       	ldi	r24, 0x67	; 103
    1fd4:	82 83       	std	Z+2, r24	; 0x02
	DIGIT[0][1] = FND_1;						
    1fd6:	80 e6       	ldi	r24, 0x60	; 96
    1fd8:	81 83       	std	Z+1, r24	; 0x01
	DIGIT[0][0] = FND_OFF;
    1fda:	10 82       	st	Z, r1
    1fdc:	2f ef       	ldi	r18, 0xFF	; 255
    1fde:	8f ef       	ldi	r24, 0xFF	; 255
    1fe0:	9c e2       	ldi	r25, 0x2C	; 44
    1fe2:	21 50       	subi	r18, 0x01	; 1
    1fe4:	80 40       	sbci	r24, 0x00	; 0
    1fe6:	90 40       	sbci	r25, 0x00	; 0
    1fe8:	e1 f7       	brne	.-8      	; 0x1fe2 <main+0xb4>
    1fea:	00 c0       	rjmp	.+0      	; 0x1fec <main+0xbe>
    1fec:	00 00       	nop
	_delay_ms(1000);							// 1√  ĶŅĺ» «•Ĺ√	
	wdt_reset();								// Reset WT
    1fee:	0e 94 17 0d 	call	0x1a2e	; 0x1a2e <wdt_reset>
//-------------------------------------------------------------------------------------------------
	while(Time_Count)							// Time_Count į° 0ņŐ ĺ∆īŌłť Ļ›ļĻ(5√ ĶŅĺ» Ĺ√į£«•Ĺ√)
    1ff2:	0f 90       	pop	r0
    1ff4:	0f 90       	pop	r0
    1ff6:	0f 90       	pop	r0
    1ff8:	0f 90       	pop	r0
    1ffa:	0f 90       	pop	r0
    1ffc:	0f 90       	pop	r0
	Alarm();								// ĺň∂ų(ļŮ«Ń 3ĻÝ)
	Rx_LED_OFF;								// RX LED OFF
	Tx_LED_OFF;								// TX LED OFF
//-------------------------------------------------------------------------------------------------
	uint8_t Time_Count = 5;							// Ĺ√į£ «•Ĺ√ ŅŽ ļĮľŲ ľ≥Ń§
	uint8_t SECOND = 0;							// ņŐņŁ Ĺ√į£(√ )ŅŽ ļĮľŲ ľ≥Ń§
    1ffe:	10 e0       	ldi	r17, 0x00	; 0
	sei();									// ņŁ√ľ ņőŇÕ∑īŇÕ Ĺ√ņŘ
	Alarm();								// ĺň∂ų(ļŮ«Ń 3ĻÝ)
	Rx_LED_OFF;								// RX LED OFF
	Tx_LED_OFF;								// TX LED OFF
//-------------------------------------------------------------------------------------------------
	uint8_t Time_Count = 5;							// Ĺ√į£ «•Ĺ√ ŅŽ ļĮľŲ ľ≥Ń§
    2000:	0f 2e       	mov	r0, r31
    2002:	f5 e0       	ldi	r31, 0x05	; 5
    2004:	ff 2e       	mov	r15, r31
    2006:	f0 2d       	mov	r31, r0
	DIGIT[0][1] = FND_1;						
	DIGIT[0][0] = FND_OFF;
	_delay_ms(1000);							// 1√  ĶŅĺ» «•Ĺ√	
	wdt_reset();								// Reset WT
//-------------------------------------------------------------------------------------------------
	while(Time_Count)							// Time_Count į° 0ņŐ ĺ∆īŌłť Ļ›ļĻ(5√ ĶŅĺ» Ĺ√į£«•Ĺ√)
    2008:	a6 c0       	rjmp	.+332    	; 0x2156 <main+0x228>
	{
		RTC_Time_Read();						// RTC Data ņ–Ī‚
    200a:	0e 94 b3 26 	call	0x4d66	; 0x4d66 <RTC_Time_Read>

		DIGIT[0][3] = fnd_tbl[RTC_T.Year / 10];				// ≥‚ «•Ĺ√
    200e:	c8 e7       	ldi	r28, 0x78	; 120
    2010:	db e4       	ldi	r29, 0x4B	; 75
    2012:	9e 81       	ldd	r25, Y+6	; 0x06
    2014:	8d ec       	ldi	r24, 0xCD	; 205
    2016:	98 9f       	mul	r25, r24
    2018:	41 2d       	mov	r20, r1
    201a:	11 24       	eor	r1, r1
    201c:	46 95       	lsr	r20
    201e:	46 95       	lsr	r20
    2020:	46 95       	lsr	r20
    2022:	e4 2f       	mov	r30, r20
    2024:	f0 e0       	ldi	r31, 0x00	; 0
    2026:	e9 5b       	subi	r30, 0xB9	; 185
    2028:	fe 4b       	sbci	r31, 0xBE	; 190
    202a:	50 81       	ld	r21, Z
    202c:	ed e7       	ldi	r30, 0x7D	; 125
    202e:	f1 e4       	ldi	r31, 0x41	; 65
    2030:	53 83       	std	Z+3, r21	; 0x03
		DIGIT[0][2] = fnd_tbl[RTC_T.Year % 10];
    2032:	44 0f       	add	r20, r20
    2034:	54 2f       	mov	r21, r20
    2036:	55 0f       	add	r21, r21
    2038:	55 0f       	add	r21, r21
    203a:	45 0f       	add	r20, r21
    203c:	a9 2f       	mov	r26, r25
    203e:	a4 1b       	sub	r26, r20
    2040:	b0 e0       	ldi	r27, 0x00	; 0
    2042:	a9 5b       	subi	r26, 0xB9	; 185
    2044:	be 4b       	sbci	r27, 0xBE	; 190
    2046:	9c 91       	ld	r25, X
    2048:	92 83       	std	Z+2, r25	; 0x02

		DIGIT[0][1] = fnd_tbl[RTC_T.Month / 10];			// Ņý «•Ĺ√
    204a:	9d 81       	ldd	r25, Y+5	; 0x05
    204c:	98 9f       	mul	r25, r24
    204e:	41 2d       	mov	r20, r1
    2050:	11 24       	eor	r1, r1
    2052:	46 95       	lsr	r20
    2054:	46 95       	lsr	r20
    2056:	46 95       	lsr	r20
    2058:	a4 2f       	mov	r26, r20
    205a:	b0 e0       	ldi	r27, 0x00	; 0
    205c:	a9 5b       	subi	r26, 0xB9	; 185
    205e:	be 4b       	sbci	r27, 0xBE	; 190
    2060:	5c 91       	ld	r21, X
    2062:	51 83       	std	Z+1, r21	; 0x01
		DIGIT[0][0] = fnd_tbl[RTC_T.Month % 10];
    2064:	44 0f       	add	r20, r20
    2066:	54 2f       	mov	r21, r20
    2068:	55 0f       	add	r21, r21
    206a:	55 0f       	add	r21, r21
    206c:	45 0f       	add	r20, r21
    206e:	a9 2f       	mov	r26, r25
    2070:	a4 1b       	sub	r26, r20
    2072:	b0 e0       	ldi	r27, 0x00	; 0
    2074:	a9 5b       	subi	r26, 0xB9	; 185
    2076:	be 4b       	sbci	r27, 0xBE	; 190
    2078:	9c 91       	ld	r25, X
    207a:	90 83       	st	Z, r25

		DIGIT[1][3] = fnd_tbl[RTC_T.Date / 10];				// ņŌ «•Ĺ√
    207c:	9c 81       	ldd	r25, Y+4	; 0x04
    207e:	98 9f       	mul	r25, r24
    2080:	41 2d       	mov	r20, r1
    2082:	11 24       	eor	r1, r1
    2084:	46 95       	lsr	r20
    2086:	46 95       	lsr	r20
    2088:	46 95       	lsr	r20
    208a:	a4 2f       	mov	r26, r20
    208c:	b0 e0       	ldi	r27, 0x00	; 0
    208e:	a9 5b       	subi	r26, 0xB9	; 185
    2090:	be 4b       	sbci	r27, 0xBE	; 190
    2092:	5c 91       	ld	r21, X
    2094:	57 83       	std	Z+7, r21	; 0x07
		DIGIT[1][2] = fnd_tbl[RTC_T.Date % 10];
    2096:	44 0f       	add	r20, r20
    2098:	54 2f       	mov	r21, r20
    209a:	55 0f       	add	r21, r21
    209c:	55 0f       	add	r21, r21
    209e:	45 0f       	add	r20, r21
    20a0:	a9 2f       	mov	r26, r25
    20a2:	a4 1b       	sub	r26, r20
    20a4:	b0 e0       	ldi	r27, 0x00	; 0
    20a6:	a9 5b       	subi	r26, 0xB9	; 185
    20a8:	be 4b       	sbci	r27, 0xBE	; 190
    20aa:	9c 91       	ld	r25, X
    20ac:	96 83       	std	Z+6, r25	; 0x06

		DIGIT[1][1] = fnd_tbl[RTC_T.Hour / 10];				// Ĺ√ «•Ĺ√
    20ae:	9a 81       	ldd	r25, Y+2	; 0x02
    20b0:	98 9f       	mul	r25, r24
    20b2:	41 2d       	mov	r20, r1
    20b4:	11 24       	eor	r1, r1
    20b6:	46 95       	lsr	r20
    20b8:	46 95       	lsr	r20
    20ba:	46 95       	lsr	r20
    20bc:	a4 2f       	mov	r26, r20
    20be:	b0 e0       	ldi	r27, 0x00	; 0
    20c0:	a9 5b       	subi	r26, 0xB9	; 185
    20c2:	be 4b       	sbci	r27, 0xBE	; 190
    20c4:	5c 91       	ld	r21, X
    20c6:	55 83       	std	Z+5, r21	; 0x05
		DIGIT[1][0] = fnd_tbl[RTC_T.Hour % 10];
    20c8:	44 0f       	add	r20, r20
    20ca:	54 2f       	mov	r21, r20
    20cc:	55 0f       	add	r21, r21
    20ce:	55 0f       	add	r21, r21
    20d0:	45 0f       	add	r20, r21
    20d2:	a9 2f       	mov	r26, r25
    20d4:	a4 1b       	sub	r26, r20
    20d6:	b0 e0       	ldi	r27, 0x00	; 0
    20d8:	a9 5b       	subi	r26, 0xB9	; 185
    20da:	be 4b       	sbci	r27, 0xBE	; 190
    20dc:	9c 91       	ld	r25, X
    20de:	94 83       	std	Z+4, r25	; 0x04

		DIGIT[2][3] = fnd_tbl[RTC_T.Min / 10];				// ļ– «•Ĺ√
    20e0:	99 81       	ldd	r25, Y+1	; 0x01
    20e2:	98 9f       	mul	r25, r24
    20e4:	41 2d       	mov	r20, r1
    20e6:	11 24       	eor	r1, r1
    20e8:	46 95       	lsr	r20
    20ea:	46 95       	lsr	r20
    20ec:	46 95       	lsr	r20
    20ee:	a4 2f       	mov	r26, r20
    20f0:	b0 e0       	ldi	r27, 0x00	; 0
    20f2:	a9 5b       	subi	r26, 0xB9	; 185
    20f4:	be 4b       	sbci	r27, 0xBE	; 190
    20f6:	5c 91       	ld	r21, X
    20f8:	53 87       	std	Z+11, r21	; 0x0b
		DIGIT[2][2] = fnd_tbl[RTC_T.Min % 10];
    20fa:	44 0f       	add	r20, r20
    20fc:	54 2f       	mov	r21, r20
    20fe:	55 0f       	add	r21, r21
    2100:	55 0f       	add	r21, r21
    2102:	45 0f       	add	r20, r21
    2104:	a9 2f       	mov	r26, r25
    2106:	a4 1b       	sub	r26, r20
    2108:	b0 e0       	ldi	r27, 0x00	; 0
    210a:	a9 5b       	subi	r26, 0xB9	; 185
    210c:	be 4b       	sbci	r27, 0xBE	; 190
    210e:	9c 91       	ld	r25, X
    2110:	92 87       	std	Z+10, r25	; 0x0a

		DIGIT[2][1] = fnd_tbl[RTC_T.Sec / 10];				// √  «•Ĺ√
    2112:	18 81       	ld	r17, Y
    2114:	18 9f       	mul	r17, r24
    2116:	81 2d       	mov	r24, r1
    2118:	11 24       	eor	r1, r1
    211a:	86 95       	lsr	r24
    211c:	86 95       	lsr	r24
    211e:	86 95       	lsr	r24
    2120:	a8 2f       	mov	r26, r24
    2122:	b0 e0       	ldi	r27, 0x00	; 0
    2124:	a9 5b       	subi	r26, 0xB9	; 185
    2126:	be 4b       	sbci	r27, 0xBE	; 190
    2128:	9c 91       	ld	r25, X
    212a:	91 87       	std	Z+9, r25	; 0x09
		DIGIT[2][0] = fnd_tbl[RTC_T.Sec % 10];
    212c:	88 0f       	add	r24, r24
    212e:	98 2f       	mov	r25, r24
    2130:	99 0f       	add	r25, r25
    2132:	99 0f       	add	r25, r25
    2134:	89 0f       	add	r24, r25
    2136:	a1 2f       	mov	r26, r17
    2138:	a8 1b       	sub	r26, r24
    213a:	b0 e0       	ldi	r27, 0x00	; 0
    213c:	a9 5b       	subi	r26, 0xB9	; 185
    213e:	be 4b       	sbci	r27, 0xBE	; 190
    2140:	8c 91       	ld	r24, X
    2142:	80 87       	std	Z+8, r24	; 0x08
		
		if(SECOND != RTC_T.Sec)						// ņŐņŁ Ĺ√į£(√ )ņŐ «ŲņÁĹ√į£(√ )ŅÕ įįŃŲ ĺ ņłłť
    2144:	01 17       	cp	r16, r17
    2146:	41 f0       	breq	.+16     	; 0x2158 <main+0x22a>
		{
			SECOND = RTC_T.Sec;					// ņŐņŁ Ĺ√į£(√ )Ņ° «ŲņÁĹ√į£(√ ) ņķņŚ	
			Beep(10);						// ļŮ«Ń(1√ Ņ° 1ĻÝĺŅ)
    2148:	8a e0       	ldi	r24, 0x0A	; 10
    214a:	90 e0       	ldi	r25, 0x00	; 0
    214c:	0e 94 3b 04 	call	0x876	; 0x876 <Beep>
			wdt_reset();						// Reset WDT
    2150:	0e 94 17 0d 	call	0x1a2e	; 0x1a2e <wdt_reset>
			Time_Count--;						// Time_Count į®ľ“
    2154:	fa 94       	dec	r15
	sei();									// ņŁ√ľ ņőŇÕ∑īŇÕ Ĺ√ņŘ
	Alarm();								// ĺň∂ų(ļŮ«Ń 3ĻÝ)
	Rx_LED_OFF;								// RX LED OFF
	Tx_LED_OFF;								// TX LED OFF
//-------------------------------------------------------------------------------------------------
	uint8_t Time_Count = 5;							// Ĺ√į£ «•Ĺ√ ŅŽ ļĮľŲ ľ≥Ń§
    2156:	01 2f       	mov	r16, r17
	DIGIT[0][1] = FND_1;						
	DIGIT[0][0] = FND_OFF;
	_delay_ms(1000);							// 1√  ĶŅĺ» «•Ĺ√	
	wdt_reset();								// Reset WT
//-------------------------------------------------------------------------------------------------
	while(Time_Count)							// Time_Count į° 0ņŐ ĺ∆īŌłť Ļ›ļĻ(5√ ĶŅĺ» Ĺ√į£«•Ĺ√)
    2158:	f1 10       	cpse	r15, r1
    215a:	57 cf       	rjmp	.-338    	; 0x200a <main+0xdc>
			Beep(10);						// ļŮ«Ń(1√ Ņ° 1ĻÝĺŅ)
			wdt_reset();						// Reset WDT
			Time_Count--;						// Time_Count į®ľ“
		}
	}
	Var_Init();								// ļĮľŲ Ļ◊ ∑őĶŚľŅ √ Ī‚»≠
    215c:	0e 94 e5 0c 	call	0x19ca	; 0x19ca <Var_Init>
	wdt_reset();								// Reset WDT
    2160:	0e 94 17 0d 	call	0x1a2e	; 0x1a2e <wdt_reset>
//-------------------------------------------------------------------------------------------------
	while(1)
	{
		if(SET.Menu)   {Seting_Mode_0();}				// SET Menu   į° ľ≥Ń§Ķ«ĺÓ ņ÷ņłłť Seting_Mode_0 ŃÝņ‘
    2164:	80 91 48 4b 	lds	r24, 0x4B48	; 0x804b48 <SET>
    2168:	81 11       	cpse	r24, r1
    216a:	0e 94 19 0d 	call	0x1a32	; 0x1a32 <Seting_Mode_0>
		if(SET.NumSET) {Seting_Mode_1();}				// SET.NumSET į° ľ≥Ń§Ķ«ĺÓ ņ÷ņłłť Seting_Mode_1 ŃÝņ‘
    216e:	80 91 4a 4b 	lds	r24, 0x4B4A	; 0x804b4a <SET+0x2>
    2172:	81 11       	cpse	r24, r1
    2174:	0e 94 bc 0d 	call	0x1b78	; 0x1b78 <Seting_Mode_1>
		Check_Value();
    2178:	0e 94 71 08 	call	0x10e2	; 0x10e2 <Check_Value>
		Receiv_PC();							// PC∑ő ļőŇÕ Ķ•ņŐŇÕľŲĹŇ »ģņő
    217c:	0e 94 b3 0a 	call	0x1566	; 0x1566 <Receiv_PC>
// 		Time_Check();							// Ĺ√į£ √ľŇ©(≥Į¬•ļĮįś »ģņő)
		wdt_reset();							// Reset WDT
    2180:	0e 94 17 0d 	call	0x1a2e	; 0x1a2e <wdt_reset>
    2184:	2f ef       	ldi	r18, 0xFF	; 255
    2186:	8f e7       	ldi	r24, 0x7F	; 127
    2188:	94 e0       	ldi	r25, 0x04	; 4
    218a:	21 50       	subi	r18, 0x01	; 1
    218c:	80 40       	sbci	r24, 0x00	; 0
    218e:	90 40       	sbci	r25, 0x00	; 0
    2190:	e1 f7       	brne	.-8      	; 0x218a <main+0x25c>
    2192:	00 c0       	rjmp	.+0      	; 0x2194 <main+0x266>
    2194:	00 00       	nop
    2196:	e6 cf       	rjmp	.-52     	; 0x2164 <main+0x236>

00002198 <ADC_init>:
 */
//=================================================================================================
#ifdef ADC_SET							// ADC žā¨žö© žĄ§ž†ē
void ADC_disable()
{
	ADC0.CTRLA &= ~ADC_ENABLE_bm;
    2198:	e0 e0       	ldi	r30, 0x00	; 0
    219a:	f6 e0       	ldi	r31, 0x06	; 6
    219c:	86 e0       	ldi	r24, 0x06	; 6
    219e:	82 83       	std	Z+2, r24	; 0x02
    21a0:	81 e0       	ldi	r24, 0x01	; 1
    21a2:	80 83       	st	Z, r24
    21a4:	80 e0       	ldi	r24, 0x00	; 0
    21a6:	08 95       	ret

000021a8 <ADC_start_conversion>:
 */
//=================================================================================================
#ifdef ADC_SET								// ADC žā¨žö© žĄ§ž†ē
void ADC_start_conversion(adc_channel_t channel)
{
	ADC0.CTRLA  &= ~ADC_CONVMODE_bm;
    21a8:	e0 e0       	ldi	r30, 0x00	; 0
    21aa:	f6 e0       	ldi	r31, 0x06	; 6
    21ac:	90 81       	ld	r25, Z
    21ae:	9f 7d       	andi	r25, 0xDF	; 223
    21b0:	90 83       	st	Z, r25
	ADC0.MUXPOS  = channel;
    21b2:	80 87       	std	Z+8, r24	; 0x08
	ADC0.COMMAND = ADC_STCONV_bm;
    21b4:	81 e0       	ldi	r24, 0x01	; 1
    21b6:	82 87       	std	Z+10, r24	; 0x0a
    21b8:	08 95       	ret

000021ba <ADC_is_conversion_done>:
   */
//=================================================================================================
#ifdef ADC_SET								// ADC žā¨žö© žĄ§ž†ē
bool ADC_is_conversion_done()
{
	return (ADC0.INTFLAGS & ADC_RESRDY_bm);
    21ba:	80 91 0d 06 	lds	r24, 0x060D	; 0x80060d <__TEXT_REGION_LENGTH__+0x7e060d>
}
    21be:	81 70       	andi	r24, 0x01	; 1
    21c0:	08 95       	ret

000021c2 <ADC_get_conversion_result>:
 */
//=================================================================================================
#ifdef ADC_SET								// ADC žā¨žö© žĄ§ž†ē
adc_result_t ADC_get_conversion_result(void)
{
	return (ADC0.RES);
    21c2:	80 91 10 06 	lds	r24, 0x0610	; 0x800610 <__TEXT_REGION_LENGTH__+0x7e0610>
    21c6:	90 91 11 06 	lds	r25, 0x0611	; 0x800611 <__TEXT_REGION_LENGTH__+0x7e0611>
}
    21ca:	08 95       	ret

000021cc <ADC_get_conversion>:
#ifdef ADC_SET								// ADC žā¨žö© žĄ§ž†ē
adc_result_t ADC_get_conversion(adc_channel_t channel)
{
	adc_result_t res;

	ADC_start_conversion(channel);
    21cc:	0e 94 d4 10 	call	0x21a8	; 0x21a8 <ADC_start_conversion>
	while (!ADC_is_conversion_done());
    21d0:	0e 94 dd 10 	call	0x21ba	; 0x21ba <ADC_is_conversion_done>
    21d4:	88 23       	and	r24, r24
    21d6:	e1 f3       	breq	.-8      	; 0x21d0 <ADC_get_conversion+0x4>
	res = ADC_get_conversion_result();
    21d8:	0e 94 e1 10 	call	0x21c2	; 0x21c2 <ADC_get_conversion_result>
	ADC0.INTFLAGS |= ADC_RESRDY_bm;
    21dc:	e0 e0       	ldi	r30, 0x00	; 0
    21de:	f6 e0       	ldi	r31, 0x06	; 6
    21e0:	25 85       	ldd	r18, Z+13	; 0x0d
    21e2:	21 60       	ori	r18, 0x01	; 1
    21e4:	25 87       	std	Z+13, r18	; 0x0d
	return res;
}
    21e6:	08 95       	ret

000021e8 <VREF_ADC_init>:

//=================================================================================================
#ifdef ADC_SET								// ADC žā¨žö© žĄ§ž†ē
void VREF_ADC_init(void)
{
	VREF.ADC0REF = VREF_REFSEL_VDD_gc;				// VDD as reference
    21e8:	85 e0       	ldi	r24, 0x05	; 5
    21ea:	80 93 a0 00 	sts	0x00A0, r24	; 0x8000a0 <__TEXT_REGION_LENGTH__+0x7e00a0>
	#else
		//round up by default
		__ticks_dc = (uint32_t)(ceil(fabs(__tmp)));
	#endif

	__builtin_avr_delay_cycles(__ticks_dc);
    21ee:	86 ef       	ldi	r24, 0xF6	; 246
    21f0:	8a 95       	dec	r24
    21f2:	f1 f7       	brne	.-4      	; 0x21f0 <VREF_ADC_init+0x8>
    21f4:	08 95       	ret

000021f6 <BOD_init>:
    21f6:	10 92 89 00 	sts	0x0089, r1	; 0x800089 <__TEXT_REGION_LENGTH__+0x7e0089>
    21fa:	80 e0       	ldi	r24, 0x00	; 0
    21fc:	08 95       	ret

000021fe <CLKCTRL_init>:
    21fe:	43 e0       	ldi	r20, 0x03	; 3
    2200:	68 ed       	ldi	r22, 0xD8	; 216
    2202:	80 e6       	ldi	r24, 0x60	; 96
    2204:	90 e0       	ldi	r25, 0x00	; 0
    2206:	0e 94 9f 26 	call	0x4d3e	; 0x4d3e <protected_write_io>
    220a:	80 91 63 00 	lds	r24, 0x0063	; 0x800063 <__TEXT_REGION_LENGTH__+0x7e0063>
    220e:	80 fd       	sbrc	r24, 0
    2210:	fc cf       	rjmp	.-8      	; 0x220a <CLKCTRL_init+0xc>
    2212:	80 e0       	ldi	r24, 0x00	; 0
    2214:	08 95       	ret

00002216 <CPUINT_init>:
    2216:	80 e0       	ldi	r24, 0x00	; 0
    2218:	08 95       	ret

0000221a <mcu_init>:
	 * disables all peripherals to save power. Driver shall enable
	 * peripheral if used */

	/* Set all pins to low power mode */

	for (uint8_t i = 0; i < 8; i++) {
    221a:	80 e0       	ldi	r24, 0x00	; 0
    221c:	08 c0       	rjmp	.+16     	; 0x222e <mcu_init+0x14>
		*((uint8_t *)&PORTA + 0x10 + i) |= 1 << PORT_PULLUPEN_bp;
    221e:	e8 2f       	mov	r30, r24
    2220:	f0 e0       	ldi	r31, 0x00	; 0
    2222:	e0 5f       	subi	r30, 0xF0	; 240
    2224:	fb 4f       	sbci	r31, 0xFB	; 251
    2226:	90 81       	ld	r25, Z
    2228:	98 60       	ori	r25, 0x08	; 8
    222a:	90 83       	st	Z, r25
	 * disables all peripherals to save power. Driver shall enable
	 * peripheral if used */

	/* Set all pins to low power mode */

	for (uint8_t i = 0; i < 8; i++) {
    222c:	8f 5f       	subi	r24, 0xFF	; 255
    222e:	88 30       	cpi	r24, 0x08	; 8
    2230:	b0 f3       	brcs	.-20     	; 0x221e <mcu_init+0x4>
    2232:	80 e0       	ldi	r24, 0x00	; 0
    2234:	08 c0       	rjmp	.+16     	; 0x2246 <mcu_init+0x2c>
		*((uint8_t *)&PORTA + 0x10 + i) |= 1 << PORT_PULLUPEN_bp;
	}

	for (uint8_t i = 0; i < 8; i++) {
		*((uint8_t *)&PORTB + 0x10 + i) |= 1 << PORT_PULLUPEN_bp;
    2236:	e8 2f       	mov	r30, r24
    2238:	f0 e0       	ldi	r31, 0x00	; 0
    223a:	e0 5d       	subi	r30, 0xD0	; 208
    223c:	fb 4f       	sbci	r31, 0xFB	; 251
    223e:	90 81       	ld	r25, Z
    2240:	98 60       	ori	r25, 0x08	; 8
    2242:	90 83       	st	Z, r25

	for (uint8_t i = 0; i < 8; i++) {
		*((uint8_t *)&PORTA + 0x10 + i) |= 1 << PORT_PULLUPEN_bp;
	}

	for (uint8_t i = 0; i < 8; i++) {
    2244:	8f 5f       	subi	r24, 0xFF	; 255
    2246:	88 30       	cpi	r24, 0x08	; 8
    2248:	b0 f3       	brcs	.-20     	; 0x2236 <mcu_init+0x1c>
    224a:	80 e0       	ldi	r24, 0x00	; 0
    224c:	08 c0       	rjmp	.+16     	; 0x225e <mcu_init+0x44>
		*((uint8_t *)&PORTB + 0x10 + i) |= 1 << PORT_PULLUPEN_bp;
	}

	for (uint8_t i = 0; i < 8; i++) {
		*((uint8_t *)&PORTC + 0x10 + i) |= 1 << PORT_PULLUPEN_bp;
    224e:	e8 2f       	mov	r30, r24
    2250:	f0 e0       	ldi	r31, 0x00	; 0
    2252:	e0 5b       	subi	r30, 0xB0	; 176
    2254:	fb 4f       	sbci	r31, 0xFB	; 251
    2256:	90 81       	ld	r25, Z
    2258:	98 60       	ori	r25, 0x08	; 8
    225a:	90 83       	st	Z, r25

	for (uint8_t i = 0; i < 8; i++) {
		*((uint8_t *)&PORTB + 0x10 + i) |= 1 << PORT_PULLUPEN_bp;
	}

	for (uint8_t i = 0; i < 8; i++) {
    225c:	8f 5f       	subi	r24, 0xFF	; 255
    225e:	88 30       	cpi	r24, 0x08	; 8
    2260:	b0 f3       	brcs	.-20     	; 0x224e <mcu_init+0x34>
    2262:	80 e0       	ldi	r24, 0x00	; 0
    2264:	08 c0       	rjmp	.+16     	; 0x2276 <mcu_init+0x5c>
		*((uint8_t *)&PORTC + 0x10 + i) |= 1 << PORT_PULLUPEN_bp;
	}

	for (uint8_t i = 0; i < 8; i++) {
		*((uint8_t *)&PORTD + 0x10 + i) |= 1 << PORT_PULLUPEN_bp;
    2266:	e8 2f       	mov	r30, r24
    2268:	f0 e0       	ldi	r31, 0x00	; 0
    226a:	e0 59       	subi	r30, 0x90	; 144
    226c:	fb 4f       	sbci	r31, 0xFB	; 251
    226e:	90 81       	ld	r25, Z
    2270:	98 60       	ori	r25, 0x08	; 8
    2272:	90 83       	st	Z, r25

	for (uint8_t i = 0; i < 8; i++) {
		*((uint8_t *)&PORTC + 0x10 + i) |= 1 << PORT_PULLUPEN_bp;
	}

	for (uint8_t i = 0; i < 8; i++) {
    2274:	8f 5f       	subi	r24, 0xFF	; 255
    2276:	88 30       	cpi	r24, 0x08	; 8
    2278:	b0 f3       	brcs	.-20     	; 0x2266 <mcu_init+0x4c>
    227a:	80 e0       	ldi	r24, 0x00	; 0
    227c:	08 c0       	rjmp	.+16     	; 0x228e <mcu_init+0x74>
		*((uint8_t *)&PORTD + 0x10 + i) |= 1 << PORT_PULLUPEN_bp;
	}

	for (uint8_t i = 0; i < 8; i++) {
		*((uint8_t *)&PORTE + 0x10 + i) |= 1 << PORT_PULLUPEN_bp;
    227e:	e8 2f       	mov	r30, r24
    2280:	f0 e0       	ldi	r31, 0x00	; 0
    2282:	e0 57       	subi	r30, 0x70	; 112
    2284:	fb 4f       	sbci	r31, 0xFB	; 251
    2286:	90 81       	ld	r25, Z
    2288:	98 60       	ori	r25, 0x08	; 8
    228a:	90 83       	st	Z, r25

	for (uint8_t i = 0; i < 8; i++) {
		*((uint8_t *)&PORTD + 0x10 + i) |= 1 << PORT_PULLUPEN_bp;
	}

	for (uint8_t i = 0; i < 8; i++) {
    228c:	8f 5f       	subi	r24, 0xFF	; 255
    228e:	88 30       	cpi	r24, 0x08	; 8
    2290:	b0 f3       	brcs	.-20     	; 0x227e <mcu_init+0x64>
    2292:	80 e0       	ldi	r24, 0x00	; 0
    2294:	08 c0       	rjmp	.+16     	; 0x22a6 <mcu_init+0x8c>
		*((uint8_t *)&PORTE + 0x10 + i) |= 1 << PORT_PULLUPEN_bp;
	}

	for (uint8_t i = 0; i < 8; i++) {
		*((uint8_t *)&PORTF + 0x10 + i) |= 1 << PORT_PULLUPEN_bp;
    2296:	e8 2f       	mov	r30, r24
    2298:	f0 e0       	ldi	r31, 0x00	; 0
    229a:	e0 55       	subi	r30, 0x50	; 80
    229c:	fb 4f       	sbci	r31, 0xFB	; 251
    229e:	90 81       	ld	r25, Z
    22a0:	98 60       	ori	r25, 0x08	; 8
    22a2:	90 83       	st	Z, r25

	for (uint8_t i = 0; i < 8; i++) {
		*((uint8_t *)&PORTE + 0x10 + i) |= 1 << PORT_PULLUPEN_bp;
	}

	for (uint8_t i = 0; i < 8; i++) {
    22a4:	8f 5f       	subi	r24, 0xFF	; 255
    22a6:	88 30       	cpi	r24, 0x08	; 8
    22a8:	b0 f3       	brcs	.-20     	; 0x2296 <mcu_init+0x7c>
    22aa:	80 e0       	ldi	r24, 0x00	; 0
    22ac:	08 c0       	rjmp	.+16     	; 0x22be <mcu_init+0xa4>
		*((uint8_t *)&PORTF + 0x10 + i) |= 1 << PORT_PULLUPEN_bp;
	}

	for (uint8_t i = 0; i < 8; i++) {
		*((uint8_t *)&PORTG + 0x10 + i) |= 1 << PORT_PULLUPEN_bp;
    22ae:	e8 2f       	mov	r30, r24
    22b0:	f0 e0       	ldi	r31, 0x00	; 0
    22b2:	e0 53       	subi	r30, 0x30	; 48
    22b4:	fb 4f       	sbci	r31, 0xFB	; 251
    22b6:	90 81       	ld	r25, Z
    22b8:	98 60       	ori	r25, 0x08	; 8
    22ba:	90 83       	st	Z, r25

	for (uint8_t i = 0; i < 8; i++) {
		*((uint8_t *)&PORTF + 0x10 + i) |= 1 << PORT_PULLUPEN_bp;
	}

	for (uint8_t i = 0; i < 8; i++) {
    22bc:	8f 5f       	subi	r24, 0xFF	; 255
    22be:	88 30       	cpi	r24, 0x08	; 8
    22c0:	b0 f3       	brcs	.-20     	; 0x22ae <mcu_init+0x94>
		*((uint8_t *)&PORTG + 0x10 + i) |= 1 << PORT_PULLUPEN_bp;
	}
}
    22c2:	08 95       	ret

000022c4 <I2C_0_initialization>:
static inline void PORTF_set_pin_level(const uint8_t pin, const bool level)
{
	if (level == true) {
		VPORTF.OUT |= (1 << pin);
	} else {
		VPORTF.OUT &= ~(1 << pin);
    22c4:	85 b3       	in	r24, 0x15	; 21
    22c6:	87 7f       	andi	r24, 0xF7	; 247
    22c8:	85 bb       	out	0x15, r24	; 21
	switch (dir) {
	case PORT_DIR_IN:
		VPORTF.DIR &= ~(1 << pin);
		break;
	case PORT_DIR_OUT:
		VPORTF.DIR |= (1 << pin);
    22ca:	84 b3       	in	r24, 0x14	; 20
    22cc:	88 60       	ori	r24, 0x08	; 8
    22ce:	84 bb       	out	0x14, r24	; 20
	volatile uint8_t *port_pin_ctrl = ((uint8_t *)&PORTF + 0x10 + pin);

	if (pull_mode == PORT_PULL_UP) {
		*port_pin_ctrl |= PORT_PULLUPEN_bm;
	} else if (pull_mode == PORT_PULL_OFF) {
		*port_pin_ctrl &= ~PORT_PULLUPEN_bm;
    22d0:	e3 eb       	ldi	r30, 0xB3	; 179
    22d2:	f4 e0       	ldi	r31, 0x04	; 4
    22d4:	80 81       	ld	r24, Z
    22d6:	87 7f       	andi	r24, 0xF7	; 247
    22d8:	80 83       	st	Z, r24
	volatile uint8_t *port_pin_ctrl = ((uint8_t *)&PORTF + 0x10 + pin);

	if (inverted) {
		*port_pin_ctrl |= PORT_INVEN_bm;
	} else {
		*port_pin_ctrl &= ~PORT_INVEN_bm;
    22da:	80 81       	ld	r24, Z
    22dc:	8f 77       	andi	r24, 0x7F	; 127
    22de:	80 83       	st	Z, r24
 */
static inline void PORTF_pin_set_isc(const uint8_t pin, const PORT_ISC_t isc)
{
	volatile uint8_t *port_pin_ctrl = ((uint8_t *)&PORTF + 0x10 + pin);

	*port_pin_ctrl = (*port_pin_ctrl & ~PORT_ISC_gm) | isc;
    22e0:	80 81       	ld	r24, Z
    22e2:	88 7f       	andi	r24, 0xF8	; 248
    22e4:	80 83       	st	Z, r24
static inline void PORTF_set_pin_level(const uint8_t pin, const bool level)
{
	if (level == true) {
		VPORTF.OUT |= (1 << pin);
	} else {
		VPORTF.OUT &= ~(1 << pin);
    22e6:	85 b3       	in	r24, 0x15	; 21
    22e8:	8b 7f       	andi	r24, 0xFB	; 251
    22ea:	85 bb       	out	0x15, r24	; 21
	switch (dir) {
	case PORT_DIR_IN:
		VPORTF.DIR &= ~(1 << pin);
		break;
	case PORT_DIR_OUT:
		VPORTF.DIR |= (1 << pin);
    22ec:	84 b3       	in	r24, 0x14	; 20
    22ee:	84 60       	ori	r24, 0x04	; 4
    22f0:	84 bb       	out	0x14, r24	; 20
	volatile uint8_t *port_pin_ctrl = ((uint8_t *)&PORTF + 0x10 + pin);

	if (pull_mode == PORT_PULL_UP) {
		*port_pin_ctrl |= PORT_PULLUPEN_bm;
	} else if (pull_mode == PORT_PULL_OFF) {
		*port_pin_ctrl &= ~PORT_PULLUPEN_bm;
    22f2:	e2 eb       	ldi	r30, 0xB2	; 178
    22f4:	f4 e0       	ldi	r31, 0x04	; 4
    22f6:	80 81       	ld	r24, Z
    22f8:	87 7f       	andi	r24, 0xF7	; 247
    22fa:	80 83       	st	Z, r24
	volatile uint8_t *port_pin_ctrl = ((uint8_t *)&PORTF + 0x10 + pin);

	if (inverted) {
		*port_pin_ctrl |= PORT_INVEN_bm;
	} else {
		*port_pin_ctrl &= ~PORT_INVEN_bm;
    22fc:	80 81       	ld	r24, Z
    22fe:	8f 77       	andi	r24, 0x7F	; 127
    2300:	80 83       	st	Z, r24
 */
static inline void PORTF_pin_set_isc(const uint8_t pin, const PORT_ISC_t isc)
{
	volatile uint8_t *port_pin_ctrl = ((uint8_t *)&PORTF + 0x10 + pin);

	*port_pin_ctrl = (*port_pin_ctrl & ~PORT_ISC_gm) | isc;
    2302:	80 81       	ld	r24, Z
    2304:	88 7f       	andi	r24, 0xF8	; 248
    2306:	80 83       	st	Z, r24
	// <PORT_ISC_FALLING_gc"> Sense Falling Edge
	// <PORT_ISC_INPUT_DISABLE_gc"> Digital Input Buffer disabled
	// <PORT_ISC_LEVEL_gc"> Sense low Level
	PORT_ISC_INTDISABLE_gc);

	I2C_0_init();
    2308:	0e 94 8f 15 	call	0x2b1e	; 0x2b1e <I2C_0_init>
    230c:	08 95       	ret

0000230e <USART_1_initialization>:
//=================================================================================================
#ifdef Usart_1
void USART_1_initialization(void)			// USART 1 ņ« «…ņĽ ľ≥Ń§«ŌįŪ ∑ĻŃŲĹļŇÕł¶ √ Ī‚»≠
{
	#if Usart_1 == 0
	PORTMUX.USARTROUTEA &= ~PORTMUX_USART10_bm;	// USART 1 ľŘ,ľŲĹŇ : Pin PC0, PC1 ∑ő ļĮįś
    230e:	e0 ee       	ldi	r30, 0xE0	; 224
    2310:	f5 e0       	ldi	r31, 0x05	; 5
    2312:	82 81       	ldd	r24, Z+2	; 0x02
    2314:	8b 7f       	andi	r24, 0xFB	; 251
    2316:	82 83       	std	Z+2, r24	; 0x02
	PORTC.DIR |=  PIN0_bm;				// set pin 0 of	PORT C (TXd) as	output (PORT C (TXd)ņ« 0ĻÝ «…ņĽ √‚∑¬ņł∑ő ľ≥Ń§)
    2318:	e0 e4       	ldi	r30, 0x40	; 64
    231a:	f4 e0       	ldi	r31, 0x04	; 4
    231c:	80 81       	ld	r24, Z
    231e:	81 60       	ori	r24, 0x01	; 1
    2320:	80 83       	st	Z, r24
	PORTC.DIR &= ~PIN1_bm;				// set pin 1 of	PORT C (RXd) as	input  (PORT C (RXd)ņ« 1ĻÝ «…ņĽ ņ‘∑¬ņł∑ő ľ≥Ń§)
    2322:	80 81       	ld	r24, Z
    2324:	8d 7f       	andi	r24, 0xFD	; 253
    2326:	80 83       	st	Z, r24
	#elif Usart_1 == 1
	PORTMUX.USARTROUTEA |= PORTMUX_USART10_bm;	// USART 1 ľŘ,ľŲĹŇ : Pin PC4, PC5 ∑ő ļĮįś
	PORTC.DIR |=  PIN4_bm;				// set pin 4 of	PORT C (TXd) as	output (PORT C (TXd)ņ« 4ĻÝ «…ņĽ √‚∑¬ņł∑ő ľ≥Ń§)
	PORTC.DIR &= ~PIN5_bm;				// set pin 5 of	PORT C (RXd) as	input  (PORT C (RXd)ņ« 5ĻÝ «…ņĽ ņ‘∑¬ņł∑ő ľ≥Ń§)
	#endif
	USART_1_init();
    2328:	0e 94 7e 2a 	call	0x54fc	; 0x54fc <USART_1_init>
    232c:	08 95       	ret

0000232e <USART_3_initialization>:
//=================================================================================================
#ifdef Usart_3
void USART_3_initialization(void)			// USART 3 ņ« «…ņĽ ľ≥Ń§«ŌįŪ ∑ĻŃŲĹļŇÕł¶ √ Ī‚»≠
{
	#if Usart_3 == 0
	PORTMUX.USARTROUTEA &= ~PORTMUX_USART30_bm;	// USART 3 ľŘ,ľŲĹŇ : Pin PB0, PB1 ∑ő ļĮįś
    232e:	e0 ee       	ldi	r30, 0xE0	; 224
    2330:	f5 e0       	ldi	r31, 0x05	; 5
    2332:	82 81       	ldd	r24, Z+2	; 0x02
    2334:	8f 7b       	andi	r24, 0xBF	; 191
    2336:	82 83       	std	Z+2, r24	; 0x02
	PORTB.DIR |=  PIN0_bm;				// set pin 0 of	PORT B (TXd) as	output (PORT B (TXd)ņ« 0ĻÝ «…ņĽ √‚∑¬ņł∑ő ľ≥Ń§)
    2338:	e0 e2       	ldi	r30, 0x20	; 32
    233a:	f4 e0       	ldi	r31, 0x04	; 4
    233c:	80 81       	ld	r24, Z
    233e:	81 60       	ori	r24, 0x01	; 1
    2340:	80 83       	st	Z, r24
	PORTB.DIR &= ~PIN1_bm;				// set pin 1 of	PORT B (RXd) as	input  (PORT B (RXd)ņ« 1ĻÝ «…ņĽ ņ‘∑¬ņł∑ő ľ≥Ń§)
    2342:	80 81       	ld	r24, Z
    2344:	8d 7f       	andi	r24, 0xFD	; 253
    2346:	80 83       	st	Z, r24
	#elif Usart_3 == 1
	PORTMUX.USARTROUTEA |= PORTMUX_USART30_bm;	// USART 3 ľŘ,ľŲĹŇ : Pin PB4, PB5 ∑ő ļĮįś
	PORTB.DIR |=  PIN4_bm;				// set pin 4 of	PORT B (TXd) as output (PORT B (TXd)ņ« 4ĻÝ «…ņĽ √‚∑¬ņł∑ő ľ≥Ń§)
	PORTB.DIR &= ~PIN5_bm;				// set pin 5 of	PORT B (RXd) as input  (PORT B (RXd)ņ« 5ĻÝ «…ņĽ ņ‘∑¬ņł∑ő ľ≥Ń§)
	#endif
	USART_3_init();
    2348:	0e 94 93 2a 	call	0x5526	; 0x5526 <USART_3_init>
    234c:	08 95       	ret

0000234e <ADC_initialization>:

//=================================================================================================
#ifdef ADC_SET
void ADC_initialization(void)
{
	ADC0.MUXPOS = ADC_MUXPOS_AIN0_gc;		// ADC input pin 0
    234e:	10 92 08 06 	sts	0x0608, r1	; 0x800608 <__TEXT_REGION_LENGTH__+0x7e0608>

	/* Disable interrupt and digital input buffer on PD0 */
	PORTD.PIN0CTRL &= ~PORT_ISC_gm;
    2352:	e0 e6       	ldi	r30, 0x60	; 96
    2354:	f4 e0       	ldi	r31, 0x04	; 4
    2356:	80 89       	ldd	r24, Z+16	; 0x10
    2358:	88 7f       	andi	r24, 0xF8	; 248
    235a:	80 8b       	std	Z+16, r24	; 0x10
	PORTD.PIN0CTRL |= PORT_ISC_INPUT_DISABLE_gc;
    235c:	80 89       	ldd	r24, Z+16	; 0x10
    235e:	84 60       	ori	r24, 0x04	; 4
    2360:	80 8b       	std	Z+16, r24	; 0x10

	/* Disable pull-up resistor */
	PORTD.PIN0CTRL &= ~PORT_PULLUPEN_bm;
    2362:	80 89       	ldd	r24, Z+16	; 0x10
    2364:	87 7f       	andi	r24, 0xF7	; 247
    2366:	80 8b       	std	Z+16, r24	; 0x10
	
	ADC_init();
    2368:	0e 94 cc 10 	call	0x2198	; 0x2198 <ADC_init>
    236c:	08 95       	ret

0000236e <system_init>:
#endif

//=================================================================================================
void system_init()
{
	mcu_init();
    236e:	0e 94 0d 11 	call	0x221a	; 0x221a <mcu_init>
//-------------------------------------------------------------------------------------------------
	CLKCTRL_init();
    2372:	0e 94 ff 10 	call	0x21fe	; 0x21fe <CLKCTRL_init>
#ifdef Usart_0
	USART_0_initialization();			// USART 0 ņ« «…ņĽ ľ≥Ń§«ŌįŪ ∑ĻŃŲĹļŇÕł¶ √ Ī‚»≠
#endif
//-------------------------------------------------------------------------------------------------
#ifdef Usart_1
	USART_1_initialization();			// USART 1 ņ« «…ņĽ ľ≥Ń§«ŌįŪ ∑ĻŃŲĹļŇÕł¶ √ Ī‚»≠
    2376:	0e 94 87 11 	call	0x230e	; 0x230e <USART_1_initialization>
#ifdef Usart_2
	USART_2_initialization();			// USART 2 ņ« «…ņĽ ľ≥Ń§«ŌįŪ ∑ĻŃŲĹļŇÕł¶ √ Ī‚»≠
#endif
//-------------------------------------------------------------------------------------------------
#ifdef Usart_3
 	USART_3_initialization();			// USART 3 ņ« «…ņĽ ľ≥Ń§«ŌįŪ ∑ĻŃŲĹļŇÕł¶ √ Ī‚»≠
    237a:	0e 94 97 11 	call	0x232e	; 0x232e <USART_3_initialization>
#ifdef Usart_5
 	USART_5_initialization();			// USART 5 ņ« «…ņĽ ľ≥Ń§«ŌįŪ ∑ĻŃŲĹļŇÕł¶ √ Ī‚»≠
#endif
//-------------------------------------------------------------------------------------------------
#ifdef ADC_SET
	ADC_initialization();				// ACD ņ« «…ņĽ ľ≥Ń§«ŌįŪ ∑ĻŃŲĹļŇÕł¶ √ Ī‚»≠
    237e:	0e 94 a7 11 	call	0x234e	; 0x234e <ADC_initialization>
//-------------------------------------------------------------------------------------------------
#ifdef PWM_SET
	PWM_0_initialization();					// PWM0 ņ« «…ņĽ ľ≥Ń§«ŌįŪ ∑ĻŃŲĹļŇÕł¶ √ Ī‚»≠
#endif
//-------------------------------------------------------------------------------------------------
	SLPCTRL_init();
    2382:	0e 94 70 2a 	call	0x54e0	; 0x54e0 <SLPCTRL_init>
//-------------------------------------------------------------------------------------------------
	CPUINT_init();
    2386:	0e 94 0b 11 	call	0x2216	; 0x2216 <CPUINT_init>
#ifdef Timer_0
	TIMER_0_init();
#endif
//-------------------------------------------------------------------------------------------------
#ifdef Timer_1
	TIMER_1_init();
    238a:	0e 94 72 2a 	call	0x54e4	; 0x54e4 <TIMER_1_init>
#endif
//-------------------------------------------------------------------------------------------------
	BOD_init();
    238e:	0e 94 fb 10 	call	0x21f6	; 0x21f6 <BOD_init>
//-------------------------------------------------------------------------------------------------
	WDT_init();
    2392:	0e 94 d0 2a 	call	0x55a0	; 0x55a0 <WDT_init>
//-------------------------------------------------------------------------------------------------
	I2C_0_initialization();
    2396:	0e 94 62 11 	call	0x22c4	; 0x22c4 <I2C_0_initialization>
    239a:	08 95       	ret

0000239c <ee_read_byte>:
    239c:	81 15       	cp	r24, r1
    239e:	22 e0       	ldi	r18, 0x02	; 2
    23a0:	92 07       	cpc	r25, r18
    23a2:	10 f0       	brcs	.+4      	; 0x23a8 <ee_read_byte+0xc>
    23a4:	8f ef       	ldi	r24, 0xFF	; 255
    23a6:	91 e0       	ldi	r25, 0x01	; 1
    23a8:	fc 01       	movw	r30, r24
    23aa:	fc 5e       	subi	r31, 0xEC	; 236
    23ac:	80 81       	ld	r24, Z
    23ae:	08 95       	ret

000023b0 <ee_read_word>:
    23b0:	8f 3f       	cpi	r24, 0xFF	; 255
    23b2:	21 e0       	ldi	r18, 0x01	; 1
    23b4:	92 07       	cpc	r25, r18
    23b6:	10 f0       	brcs	.+4      	; 0x23bc <ee_read_word+0xc>
    23b8:	8e ef       	ldi	r24, 0xFE	; 254
    23ba:	91 e0       	ldi	r25, 0x01	; 1
    23bc:	fc 01       	movw	r30, r24
    23be:	fc 5e       	subi	r31, 0xEC	; 236
    23c0:	80 81       	ld	r24, Z
    23c2:	91 81       	ldd	r25, Z+1	; 0x01
    23c4:	08 95       	ret

000023c6 <ee_read_dword>:
    23c6:	8d 3f       	cpi	r24, 0xFD	; 253
    23c8:	21 e0       	ldi	r18, 0x01	; 1
    23ca:	92 07       	cpc	r25, r18
    23cc:	10 f0       	brcs	.+4      	; 0x23d2 <ee_read_dword+0xc>
    23ce:	8c ef       	ldi	r24, 0xFC	; 252
    23d0:	91 e0       	ldi	r25, 0x01	; 1
    23d2:	fc 01       	movw	r30, r24
    23d4:	fc 5e       	subi	r31, 0xEC	; 236
    23d6:	60 81       	ld	r22, Z
    23d8:	71 81       	ldd	r23, Z+1	; 0x01
    23da:	82 81       	ldd	r24, Z+2	; 0x02
    23dc:	93 81       	ldd	r25, Z+3	; 0x03
    23de:	08 95       	ret

000023e0 <ee_write_byte>:
    23e0:	1f 93       	push	r17
    23e2:	cf 93       	push	r28
    23e4:	df 93       	push	r29
    23e6:	9c 01       	movw	r18, r24
    23e8:	21 15       	cp	r18, r1
    23ea:	82 e0       	ldi	r24, 0x02	; 2
    23ec:	38 07       	cpc	r19, r24
    23ee:	b0 f4       	brcc	.+44     	; 0x241c <ee_write_byte+0x3c>
    23f0:	90 91 02 10 	lds	r25, 0x1002	; 0x801002 <__TEXT_REGION_LENGTH__+0x7e1002>
    23f4:	93 70       	andi	r25, 0x03	; 3
    23f6:	e1 f7       	brne	.-8      	; 0x23f0 <ee_write_byte+0x10>
    23f8:	16 2f       	mov	r17, r22
    23fa:	e9 01       	movw	r28, r18
    23fc:	43 e1       	ldi	r20, 0x13	; 19
    23fe:	6d e9       	ldi	r22, 0x9D	; 157
    2400:	80 e0       	ldi	r24, 0x00	; 0
    2402:	90 e1       	ldi	r25, 0x10	; 16
    2404:	0e 94 9f 26 	call	0x4d3e	; 0x4d3e <protected_write_io>
    2408:	dc 5e       	subi	r29, 0xEC	; 236
    240a:	18 83       	st	Y, r17
    240c:	40 e0       	ldi	r20, 0x00	; 0
    240e:	6d e9       	ldi	r22, 0x9D	; 157
    2410:	80 e0       	ldi	r24, 0x00	; 0
    2412:	90 e1       	ldi	r25, 0x10	; 16
    2414:	0e 94 9f 26 	call	0x4d3e	; 0x4d3e <protected_write_io>
    2418:	81 e0       	ldi	r24, 0x01	; 1
    241a:	01 c0       	rjmp	.+2      	; 0x241e <ee_write_byte+0x3e>
    241c:	80 e0       	ldi	r24, 0x00	; 0
    241e:	df 91       	pop	r29
    2420:	cf 91       	pop	r28
    2422:	1f 91       	pop	r17
    2424:	08 95       	ret

00002426 <ee_write_word>:
    2426:	cf 92       	push	r12
    2428:	df 92       	push	r13
    242a:	ef 92       	push	r14
    242c:	ff 92       	push	r15
    242e:	cf 93       	push	r28
    2430:	df 93       	push	r29
    2432:	8f 3f       	cpi	r24, 0xFF	; 255
    2434:	21 e0       	ldi	r18, 0x01	; 1
    2436:	92 07       	cpc	r25, r18
    2438:	58 f4       	brcc	.+22     	; 0x2450 <ee_write_word+0x2a>
    243a:	ec 01       	movw	r28, r24
    243c:	6b 01       	movw	r12, r22
    243e:	0e 94 f0 11 	call	0x23e0	; 0x23e0 <ee_write_byte>
    2442:	6d 2d       	mov	r22, r13
    2444:	ce 01       	movw	r24, r28
    2446:	01 96       	adiw	r24, 0x01	; 1
    2448:	0e 94 f0 11 	call	0x23e0	; 0x23e0 <ee_write_byte>
    244c:	81 e0       	ldi	r24, 0x01	; 1
    244e:	01 c0       	rjmp	.+2      	; 0x2452 <ee_write_word+0x2c>
    2450:	80 e0       	ldi	r24, 0x00	; 0
    2452:	df 91       	pop	r29
    2454:	cf 91       	pop	r28
    2456:	ff 90       	pop	r15
    2458:	ef 90       	pop	r14
    245a:	df 90       	pop	r13
    245c:	cf 90       	pop	r12
    245e:	08 95       	ret

00002460 <ee_write_dword>:
    2460:	ff 92       	push	r15
    2462:	0f 93       	push	r16
    2464:	1f 93       	push	r17
    2466:	cf 93       	push	r28
    2468:	df 93       	push	r29
    246a:	8d 3f       	cpi	r24, 0xFD	; 253
    246c:	21 e0       	ldi	r18, 0x01	; 1
    246e:	92 07       	cpc	r25, r18
    2470:	c0 f4       	brcc	.+48     	; 0x24a2 <ee_write_dword+0x42>
    2472:	17 2f       	mov	r17, r23
    2474:	06 2f       	mov	r16, r22
    2476:	f5 2e       	mov	r15, r21
    2478:	64 2f       	mov	r22, r20
    247a:	ec 01       	movw	r28, r24
    247c:	0e 94 f0 11 	call	0x23e0	; 0x23e0 <ee_write_byte>
    2480:	6f 2d       	mov	r22, r15
    2482:	ce 01       	movw	r24, r28
    2484:	01 96       	adiw	r24, 0x01	; 1
    2486:	0e 94 f0 11 	call	0x23e0	; 0x23e0 <ee_write_byte>
    248a:	60 2f       	mov	r22, r16
    248c:	ce 01       	movw	r24, r28
    248e:	02 96       	adiw	r24, 0x02	; 2
    2490:	0e 94 f0 11 	call	0x23e0	; 0x23e0 <ee_write_byte>
    2494:	61 2f       	mov	r22, r17
    2496:	ce 01       	movw	r24, r28
    2498:	03 96       	adiw	r24, 0x03	; 3
    249a:	0e 94 f0 11 	call	0x23e0	; 0x23e0 <ee_write_byte>
    249e:	81 e0       	ldi	r24, 0x01	; 1
    24a0:	01 c0       	rjmp	.+2      	; 0x24a4 <ee_write_dword+0x44>
    24a2:	80 e0       	ldi	r24, 0x00	; 0
    24a4:	df 91       	pop	r29
    24a6:	cf 91       	pop	r28
    24a8:	1f 91       	pop	r17
    24aa:	0f 91       	pop	r16
    24ac:	ff 90       	pop	r15
    24ae:	08 95       	ret

000024b0 <Gukbun_Set>:
#include <gateway.h> 

//=================================================================================================
void Gukbun_Set(void)								// į‘ņŐ∆ģ ŅĢņŐ ĪĻĻÝ ľ≥Ń§
{
	FND_Value_Data(0, 2, 12);						// FND 0 ~ 2 FND_OFF
    24b0:	4c e0       	ldi	r20, 0x0C	; 12
    24b2:	62 e0       	ldi	r22, 0x02	; 2
    24b4:	80 e0       	ldi	r24, 0x00	; 0
    24b6:	0e 94 c3 05 	call	0xb86	; 0xb86 <FND_Value_Data>

	while(SET.Menu && SET.Select)						// łřīļ ŅÕ ľĪŇ√ ņŐ łūĶő 1 ņŐłť Ļ›ļĻ
    24ba:	42 c0       	rjmp	.+132    	; 0x2540 <Gukbun_Set+0x90>
	{
		DIGIT[0][3] = FND_G;						// FND 0 Ņ° G-no (ĪĻĻÝ)«•Ĺ√
    24bc:	ed e7       	ldi	r30, 0x7D	; 125
    24be:	f1 e4       	ldi	r31, 0x41	; 65
    24c0:	8e eb       	ldi	r24, 0xBE	; 190
    24c2:	83 83       	std	Z+3, r24	; 0x03
		DIGIT[0][2] = FND_MINUS;
    24c4:	82 e0       	ldi	r24, 0x02	; 2
    24c6:	82 83       	std	Z+2, r24	; 0x02
		DIGIT[0][1] = FND_n;
    24c8:	8a e2       	ldi	r24, 0x2A	; 42
    24ca:	81 83       	std	Z+1, r24	; 0x01
		DIGIT[0][0] = FND_o;
    24cc:	8a e3       	ldi	r24, 0x3A	; 58
    24ce:	80 83       	st	Z, r24

		DIGIT[1][1] = fnd_tbl[Gukbun / 10];				// FND 1 Ņ° ĪĻĻÝ ĻÝ»£ «•Ĺ√
    24d0:	20 91 88 4b 	lds	r18, 0x4B88	; 0x804b88 <Gukbun>
    24d4:	8d ec       	ldi	r24, 0xCD	; 205
    24d6:	28 9f       	mul	r18, r24
    24d8:	81 2d       	mov	r24, r1
    24da:	11 24       	eor	r1, r1
    24dc:	86 95       	lsr	r24
    24de:	86 95       	lsr	r24
    24e0:	86 95       	lsr	r24
    24e2:	a8 2f       	mov	r26, r24
    24e4:	b0 e0       	ldi	r27, 0x00	; 0
    24e6:	a9 5b       	subi	r26, 0xB9	; 185
    24e8:	be 4b       	sbci	r27, 0xBE	; 190
    24ea:	9c 91       	ld	r25, X
    24ec:	95 83       	std	Z+5, r25	; 0x05
		DIGIT[1][0] = fnd_tbl[Gukbun % 10];
    24ee:	88 0f       	add	r24, r24
    24f0:	98 2f       	mov	r25, r24
    24f2:	99 0f       	add	r25, r25
    24f4:	99 0f       	add	r25, r25
    24f6:	89 0f       	add	r24, r25
    24f8:	a2 2f       	mov	r26, r18
    24fa:	a8 1b       	sub	r26, r24
    24fc:	b0 e0       	ldi	r27, 0x00	; 0
    24fe:	a9 5b       	subi	r26, 0xB9	; 185
    2500:	be 4b       	sbci	r27, 0xBE	; 190
    2502:	8c 91       	ld	r24, X
    2504:	84 83       	std	Z+4, r24	; 0x04

		if(KEY.Buff)							// Key ņ‘∑¬ņŐ ņ÷ņłłť
    2506:	80 91 8d 4b 	lds	r24, 0x4B8D	; 0x804b8d <KEY+0x1>
    250a:	88 23       	and	r24, r24
    250c:	b9 f0       	breq	.+46     	; 0x253c <Gukbun_Set+0x8c>
		{
			if     (KEY.Key == 1 && Gukbun < 60) {Gukbun++; KEY.Key = 0;}	// ĺų  ĻŲ∆į ņŐłť ĪĻĻÝ 60ĪÓŃŲ Ńűį°
    250e:	80 91 8e 4b 	lds	r24, 0x4B8E	; 0x804b8e <KEY+0x2>
    2512:	81 30       	cpi	r24, 0x01	; 1
    2514:	41 f4       	brne	.+16     	; 0x2526 <Gukbun_Set+0x76>
    2516:	2c 33       	cpi	r18, 0x3C	; 60
    2518:	30 f4       	brcc	.+12     	; 0x2526 <Gukbun_Set+0x76>
    251a:	2f 5f       	subi	r18, 0xFF	; 255
    251c:	20 93 88 4b 	sts	0x4B88, r18	; 0x804b88 <Gukbun>
    2520:	10 92 8e 4b 	sts	0x4B8E, r1	; 0x804b8e <KEY+0x2>
    2524:	0b c0       	rjmp	.+22     	; 0x253c <Gukbun_Set+0x8c>
			else if(KEY.Key == 3 && Gukbun > 1)  {Gukbun--; KEY.Key = 0;}	// īŔŅÓĻŲ∆į ņŐłť ĪĻĻÝ  0ĪÓŃŲ į®ľ“
    2526:	80 91 8e 4b 	lds	r24, 0x4B8E	; 0x804b8e <KEY+0x2>
    252a:	83 30       	cpi	r24, 0x03	; 3
    252c:	39 f4       	brne	.+14     	; 0x253c <Gukbun_Set+0x8c>
    252e:	22 30       	cpi	r18, 0x02	; 2
    2530:	28 f0       	brcs	.+10     	; 0x253c <Gukbun_Set+0x8c>
    2532:	21 50       	subi	r18, 0x01	; 1
    2534:	20 93 88 4b 	sts	0x4B88, r18	; 0x804b88 <Gukbun>
    2538:	10 92 8e 4b 	sts	0x4B8E, r1	; 0x804b8e <KEY+0x2>
		}
		wdt_reset();							// ŅŲń°Ķ∂ łģľ¬
    253c:	0e 94 17 0d 	call	0x1a2e	; 0x1a2e <wdt_reset>
//=================================================================================================
void Gukbun_Set(void)								// į‘ņŐ∆ģ ŅĢņŐ ĪĻĻÝ ľ≥Ń§
{
	FND_Value_Data(0, 2, 12);						// FND 0 ~ 2 FND_OFF

	while(SET.Menu && SET.Select)						// łřīļ ŅÕ ľĪŇ√ ņŐ łūĶő 1 ņŐłť Ļ›ļĻ
    2540:	80 91 48 4b 	lds	r24, 0x4B48	; 0x804b48 <SET>
    2544:	88 23       	and	r24, r24
    2546:	21 f0       	breq	.+8      	; 0x2550 <Gukbun_Set+0xa0>
    2548:	80 91 49 4b 	lds	r24, 0x4B49	; 0x804b49 <SET+0x1>
    254c:	81 11       	cpse	r24, r1
    254e:	b6 cf       	rjmp	.-148    	; 0x24bc <Gukbun_Set+0xc>
			if     (KEY.Key == 1 && Gukbun < 60) {Gukbun++; KEY.Key = 0;}	// ĺų  ĻŲ∆į ņŐłť ĪĻĻÝ 60ĪÓŃŲ Ńűį°
			else if(KEY.Key == 3 && Gukbun > 1)  {Gukbun--; KEY.Key = 0;}	// īŔŅÓĻŲ∆į ņŐłť ĪĻĻÝ  0ĪÓŃŲ į®ľ“
		}
		wdt_reset();							// ŅŲń°Ķ∂ łģľ¬
	}
	ee_write_byte(Gateway_Gukbun_Addr, Gukbun);				// ĪĻĻÝ ĻÝ»£ł¶ EEPROM Ņ° ņķņŚ
    2550:	60 91 88 4b 	lds	r22, 0x4B88	; 0x804b88 <Gukbun>
    2554:	81 e0       	ldi	r24, 0x01	; 1
    2556:	90 e0       	ldi	r25, 0x00	; 0
    2558:	0e 94 f0 11 	call	0x23e0	; 0x23e0 <ee_write_byte>
    255c:	08 95       	ret

0000255e <Gwid_Set>:
}

//=================================================================================================
void Gwid_Set(void)								// į‘ņŐ∆ģ ŅĢņŐ ID ľ≥Ń§
{
	FND_Value_Data(0, 2, 12);						// FND 0 ~ 2 FND_OFF
    255e:	4c e0       	ldi	r20, 0x0C	; 12
    2560:	62 e0       	ldi	r22, 0x02	; 2
    2562:	80 e0       	ldi	r24, 0x00	; 0
    2564:	0e 94 c3 05 	call	0xb86	; 0xb86 <FND_Value_Data>

	while(SET.Menu && SET.Select)						// łřīļ ŅÕ ľĪŇ√ ņŐ łūĶő 1 ņŐłť Ļ›ļĻ
    2568:	42 c0       	rjmp	.+132    	; 0x25ee <Gwid_Set+0x90>
	{
		DIGIT[0][3] = FND_G;						// FND 0 Ņ° G-Id (ĪĻĻÝ)«•Ĺ√
    256a:	ed e7       	ldi	r30, 0x7D	; 125
    256c:	f1 e4       	ldi	r31, 0x41	; 65
    256e:	8e eb       	ldi	r24, 0xBE	; 190
    2570:	83 83       	std	Z+3, r24	; 0x03
		DIGIT[0][2] = FND_MINUS;
    2572:	82 e0       	ldi	r24, 0x02	; 2
    2574:	82 83       	std	Z+2, r24	; 0x02
		DIGIT[0][1] = FND_I;
    2576:	80 e6       	ldi	r24, 0x60	; 96
    2578:	81 83       	std	Z+1, r24	; 0x01
		DIGIT[0][0] = FND_d;
    257a:	8a e7       	ldi	r24, 0x7A	; 122
    257c:	80 83       	st	Z, r24

		DIGIT[1][1] = fnd_tbl[Gwid / 10];				// FND 1 Ņ° į‘ņŐ∆ģ ŅĢņŐ ID «•Ĺ√
    257e:	20 91 92 4b 	lds	r18, 0x4B92	; 0x804b92 <Gwid>
    2582:	8d ec       	ldi	r24, 0xCD	; 205
    2584:	28 9f       	mul	r18, r24
    2586:	81 2d       	mov	r24, r1
    2588:	11 24       	eor	r1, r1
    258a:	86 95       	lsr	r24
    258c:	86 95       	lsr	r24
    258e:	86 95       	lsr	r24
    2590:	a8 2f       	mov	r26, r24
    2592:	b0 e0       	ldi	r27, 0x00	; 0
    2594:	a9 5b       	subi	r26, 0xB9	; 185
    2596:	be 4b       	sbci	r27, 0xBE	; 190
    2598:	9c 91       	ld	r25, X
    259a:	95 83       	std	Z+5, r25	; 0x05
		DIGIT[1][0] = fnd_tbl[Gwid % 10];
    259c:	88 0f       	add	r24, r24
    259e:	98 2f       	mov	r25, r24
    25a0:	99 0f       	add	r25, r25
    25a2:	99 0f       	add	r25, r25
    25a4:	89 0f       	add	r24, r25
    25a6:	a2 2f       	mov	r26, r18
    25a8:	a8 1b       	sub	r26, r24
    25aa:	b0 e0       	ldi	r27, 0x00	; 0
    25ac:	a9 5b       	subi	r26, 0xB9	; 185
    25ae:	be 4b       	sbci	r27, 0xBE	; 190
    25b0:	8c 91       	ld	r24, X
    25b2:	84 83       	std	Z+4, r24	; 0x04

		if(KEY.Buff)							// Key ņ‘∑¬ņŐ ņ÷ņłłť
    25b4:	80 91 8d 4b 	lds	r24, 0x4B8D	; 0x804b8d <KEY+0x1>
    25b8:	88 23       	and	r24, r24
    25ba:	b9 f0       	breq	.+46     	; 0x25ea <Gwid_Set+0x8c>
		{
			if     (KEY.Key == 1 && Gwid < 60) {Gwid++; KEY.Key = 0;}	// ĺų  ĻŲ∆į ņŐłť ID 60ĪÓŃŲ Ńűį°
    25bc:	80 91 8e 4b 	lds	r24, 0x4B8E	; 0x804b8e <KEY+0x2>
    25c0:	81 30       	cpi	r24, 0x01	; 1
    25c2:	41 f4       	brne	.+16     	; 0x25d4 <Gwid_Set+0x76>
    25c4:	2c 33       	cpi	r18, 0x3C	; 60
    25c6:	30 f4       	brcc	.+12     	; 0x25d4 <Gwid_Set+0x76>
    25c8:	2f 5f       	subi	r18, 0xFF	; 255
    25ca:	20 93 92 4b 	sts	0x4B92, r18	; 0x804b92 <Gwid>
    25ce:	10 92 8e 4b 	sts	0x4B8E, r1	; 0x804b8e <KEY+0x2>
    25d2:	0b c0       	rjmp	.+22     	; 0x25ea <Gwid_Set+0x8c>
			else if(KEY.Key == 3 && Gwid > 1)  {Gwid--; KEY.Key = 0;}	// īŔŅÓĻŲ∆į ņŐłť ID  0ĪÓŃŲ į®ľ“
    25d4:	80 91 8e 4b 	lds	r24, 0x4B8E	; 0x804b8e <KEY+0x2>
    25d8:	83 30       	cpi	r24, 0x03	; 3
    25da:	39 f4       	brne	.+14     	; 0x25ea <Gwid_Set+0x8c>
    25dc:	22 30       	cpi	r18, 0x02	; 2
    25de:	28 f0       	brcs	.+10     	; 0x25ea <Gwid_Set+0x8c>
    25e0:	21 50       	subi	r18, 0x01	; 1
    25e2:	20 93 92 4b 	sts	0x4B92, r18	; 0x804b92 <Gwid>
    25e6:	10 92 8e 4b 	sts	0x4B8E, r1	; 0x804b8e <KEY+0x2>
		}
		wdt_reset();							// ŅŲń°Ķ∂ łģľ¬
    25ea:	0e 94 17 0d 	call	0x1a2e	; 0x1a2e <wdt_reset>
//=================================================================================================
void Gwid_Set(void)								// į‘ņŐ∆ģ ŅĢņŐ ID ľ≥Ń§
{
	FND_Value_Data(0, 2, 12);						// FND 0 ~ 2 FND_OFF

	while(SET.Menu && SET.Select)						// łřīļ ŅÕ ľĪŇ√ ņŐ łūĶő 1 ņŐłť Ļ›ļĻ
    25ee:	80 91 48 4b 	lds	r24, 0x4B48	; 0x804b48 <SET>
    25f2:	88 23       	and	r24, r24
    25f4:	21 f0       	breq	.+8      	; 0x25fe <Gwid_Set+0xa0>
    25f6:	80 91 49 4b 	lds	r24, 0x4B49	; 0x804b49 <SET+0x1>
    25fa:	81 11       	cpse	r24, r1
    25fc:	b6 cf       	rjmp	.-148    	; 0x256a <Gwid_Set+0xc>
			if     (KEY.Key == 1 && Gwid < 60) {Gwid++; KEY.Key = 0;}	// ĺų  ĻŲ∆į ņŐłť ID 60ĪÓŃŲ Ńűį°
			else if(KEY.Key == 3 && Gwid > 1)  {Gwid--; KEY.Key = 0;}	// īŔŅÓĻŲ∆į ņŐłť ID  0ĪÓŃŲ į®ľ“
		}
		wdt_reset();							// ŅŲń°Ķ∂ łģľ¬
	}
	ee_write_byte(Gateway_GWID_Addr, Gwid);					// į‘ņŐ∆ģ ŅĢņŐ ID ł¶ EEPROM Ņ° ņķņŚ
    25fe:	60 91 92 4b 	lds	r22, 0x4B92	; 0x804b92 <Gwid>
    2602:	82 e0       	ldi	r24, 0x02	; 2
    2604:	90 e0       	ldi	r25, 0x00	; 0
    2606:	0e 94 f0 11 	call	0x23e0	; 0x23e0 <ee_write_byte>
    260a:	08 95       	ret

0000260c <Gateway_Set>:
}

//=================================================================================================
void Gateway_Set(void)								// į‘ņŐ∆ģ ŅĢņŐ ľ≥Ń§
{
    260c:	cf 93       	push	r28
	uint8_t count = 1;							// ńęŅÓ∆ģ ļĮľŲ √ Ī‚»≠
	SET.Select = 0;								// Select ĻŲ∆į √ Ī‚»≠
    260e:	10 92 49 4b 	sts	0x4B49, r1	; 0x804b49 <SET+0x1>

	FND_Value_Data(0, 2, 12);						// FND 0 ~ 2 FND_OFF
    2612:	4c e0       	ldi	r20, 0x0C	; 12
    2614:	62 e0       	ldi	r22, 0x02	; 2
    2616:	80 e0       	ldi	r24, 0x00	; 0
    2618:	0e 94 c3 05 	call	0xb86	; 0xb86 <FND_Value_Data>
}

//=================================================================================================
void Gateway_Set(void)								// į‘ņŐ∆ģ ŅĢņŐ ľ≥Ń§
{
	uint8_t count = 1;							// ńęŅÓ∆ģ ļĮľŲ √ Ī‚»≠
    261c:	c1 e0       	ldi	r28, 0x01	; 1
	SET.Select = 0;								// Select ĻŲ∆į √ Ī‚»≠

	FND_Value_Data(0, 2, 12);						// FND 0 ~ 2 FND_OFF
	
	while(SET.Menu)								// łřīļį° 1 ņŐłť Ļ›ļĻ
    261e:	8b c0       	rjmp	.+278    	; 0x2736 <Gateway_Set+0x12a>
	{
		if(KEY.Buff)							// Key ņ‘∑¬ņŐ ņ÷ņłłť
    2620:	80 91 8d 4b 	lds	r24, 0x4B8D	; 0x804b8d <KEY+0x1>
    2624:	88 23       	and	r24, r24
    2626:	99 f0       	breq	.+38     	; 0x264e <Gateway_Set+0x42>
		{
			if     (KEY.Key == 1 && count < 3) {count++; KEY.Key = 0;}	// ĺų  ĻŲ∆į ņŐłť Count Ńűį°
    2628:	80 91 8e 4b 	lds	r24, 0x4B8E	; 0x804b8e <KEY+0x2>
    262c:	81 30       	cpi	r24, 0x01	; 1
    262e:	31 f4       	brne	.+12     	; 0x263c <Gateway_Set+0x30>
    2630:	c3 30       	cpi	r28, 0x03	; 3
    2632:	20 f4       	brcc	.+8      	; 0x263c <Gateway_Set+0x30>
    2634:	cf 5f       	subi	r28, 0xFF	; 255
    2636:	10 92 8e 4b 	sts	0x4B8E, r1	; 0x804b8e <KEY+0x2>
    263a:	09 c0       	rjmp	.+18     	; 0x264e <Gateway_Set+0x42>
			else if(KEY.Key == 3 && count > 0) {count--; KEY.Key = 0;}	// īŔŅÓĻŲ∆į ņŐłť Count į®ľ“
    263c:	80 91 8e 4b 	lds	r24, 0x4B8E	; 0x804b8e <KEY+0x2>
    2640:	83 30       	cpi	r24, 0x03	; 3
    2642:	29 f4       	brne	.+10     	; 0x264e <Gateway_Set+0x42>
    2644:	cc 23       	and	r28, r28
    2646:	19 f0       	breq	.+6      	; 0x264e <Gateway_Set+0x42>
    2648:	c1 50       	subi	r28, 0x01	; 1
    264a:	10 92 8e 4b 	sts	0x4B8E, r1	; 0x804b8e <KEY+0x2>
		}
		DIGIT[2][0] = fnd_tbl[count];					// FND 2.0 Ņ° Count «•Ĺ√
    264e:	ec 2f       	mov	r30, r28
    2650:	f0 e0       	ldi	r31, 0x00	; 0
    2652:	e9 5b       	subi	r30, 0xB9	; 185
    2654:	fe 4b       	sbci	r31, 0xBE	; 190
    2656:	80 81       	ld	r24, Z
    2658:	80 93 85 41 	sts	0x4185, r24	; 0x804185 <DIGIT+0x8>

		switch(count)							// count
    265c:	c1 30       	cpi	r28, 0x01	; 1
    265e:	41 f0       	breq	.+16     	; 0x2670 <Gateway_Set+0x64>
    2660:	08 f4       	brcc	.+2      	; 0x2664 <Gateway_Set+0x58>
    2662:	66 c0       	rjmp	.+204    	; 0x2730 <Gateway_Set+0x124>
    2664:	c2 30       	cpi	r28, 0x02	; 2
    2666:	99 f1       	breq	.+102    	; 0x26ce <Gateway_Set+0xc2>
    2668:	c3 30       	cpi	r28, 0x03	; 3
    266a:	09 f4       	brne	.+2      	; 0x266e <Gateway_Set+0x62>
    266c:	5f c0       	rjmp	.+190    	; 0x272c <Gateway_Set+0x120>
    266e:	61 c0       	rjmp	.+194    	; 0x2732 <Gateway_Set+0x126>
			case 0:							// Count = 0 ņŐłť
				count = 2;					// Ļ›ļĻņĽ ņß«ō Countł¶ √÷įŪ∑ő Ńűį° Ĺ√Ňī
			break;

			case 1:							// Count = 1 ņŐłť
				DIGIT[0][3] = FND_G;				// FND 0 Ņ° G-no (ĪĻĻÝ)«•Ĺ√
    2670:	ed e7       	ldi	r30, 0x7D	; 125
    2672:	f1 e4       	ldi	r31, 0x41	; 65
    2674:	8e eb       	ldi	r24, 0xBE	; 190
    2676:	83 83       	std	Z+3, r24	; 0x03
				DIGIT[0][2] = FND_MINUS;
    2678:	82 e0       	ldi	r24, 0x02	; 2
    267a:	82 83       	std	Z+2, r24	; 0x02
				DIGIT[0][1] = FND_n;
    267c:	8a e2       	ldi	r24, 0x2A	; 42
    267e:	81 83       	std	Z+1, r24	; 0x01
				DIGIT[0][0] = FND_o;
    2680:	8a e3       	ldi	r24, 0x3A	; 58
    2682:	80 83       	st	Z, r24

				DIGIT[1][3] = FND_OFF;				// FND 1 Ņ° ĪĻĻÝ ĻÝ»£ «•Ĺ√
    2684:	17 82       	std	Z+7, r1	; 0x07
				DIGIT[1][2] = FND_OFF;
    2686:	16 82       	std	Z+6, r1	; 0x06
				DIGIT[1][1] = fnd_tbl[Gukbun / 10];
    2688:	40 91 88 4b 	lds	r20, 0x4B88	; 0x804b88 <Gukbun>
    268c:	8d ec       	ldi	r24, 0xCD	; 205
    268e:	48 9f       	mul	r20, r24
    2690:	81 2d       	mov	r24, r1
    2692:	11 24       	eor	r1, r1
    2694:	86 95       	lsr	r24
    2696:	86 95       	lsr	r24
    2698:	86 95       	lsr	r24
    269a:	28 2f       	mov	r18, r24
    269c:	30 e0       	ldi	r19, 0x00	; 0
    269e:	29 5b       	subi	r18, 0xB9	; 185
    26a0:	3e 4b       	sbci	r19, 0xBE	; 190
    26a2:	d9 01       	movw	r26, r18
    26a4:	9c 91       	ld	r25, X
    26a6:	95 83       	std	Z+5, r25	; 0x05
				DIGIT[1][0] = fnd_tbl[Gukbun % 10];
    26a8:	88 0f       	add	r24, r24
    26aa:	98 2f       	mov	r25, r24
    26ac:	99 0f       	add	r25, r25
    26ae:	99 0f       	add	r25, r25
    26b0:	89 0f       	add	r24, r25
    26b2:	a4 2f       	mov	r26, r20
    26b4:	a8 1b       	sub	r26, r24
    26b6:	b0 e0       	ldi	r27, 0x00	; 0
    26b8:	a9 5b       	subi	r26, 0xB9	; 185
    26ba:	be 4b       	sbci	r27, 0xBE	; 190
    26bc:	8c 91       	ld	r24, X
    26be:	84 83       	std	Z+4, r24	; 0x04

				if(SET.Select) {Gukbun_Set();}			// į‘ņŐ∆ģ ŅĢņŐ ĪĻĻÝ ľ≥Ń§
    26c0:	80 91 49 4b 	lds	r24, 0x4B49	; 0x804b49 <SET+0x1>
    26c4:	88 23       	and	r24, r24
    26c6:	a9 f1       	breq	.+106    	; 0x2732 <Gateway_Set+0x126>
    26c8:	0e 94 58 12 	call	0x24b0	; 0x24b0 <Gukbun_Set>
    26cc:	32 c0       	rjmp	.+100    	; 0x2732 <Gateway_Set+0x126>
			break;

			case 2:							// Count = 2 ņŐłť
				DIGIT[0][3] = FND_G;				// FND 0 Ņ° G-Id «•Ĺ√
    26ce:	ed e7       	ldi	r30, 0x7D	; 125
    26d0:	f1 e4       	ldi	r31, 0x41	; 65
    26d2:	8e eb       	ldi	r24, 0xBE	; 190
    26d4:	83 83       	std	Z+3, r24	; 0x03
				DIGIT[0][2] = FND_MINUS;
    26d6:	82 e0       	ldi	r24, 0x02	; 2
    26d8:	82 83       	std	Z+2, r24	; 0x02
				DIGIT[0][1] = FND_I;
    26da:	80 e6       	ldi	r24, 0x60	; 96
    26dc:	81 83       	std	Z+1, r24	; 0x01
				DIGIT[0][0] = FND_d;
    26de:	8a e7       	ldi	r24, 0x7A	; 122
    26e0:	80 83       	st	Z, r24

				DIGIT[1][3] = FND_OFF;				// FND 1 Ņ° į‘ņŐ∆ģ ŅĢņŐ ID «•Ĺ√
    26e2:	17 82       	std	Z+7, r1	; 0x07
				DIGIT[1][2] = FND_OFF;
    26e4:	16 82       	std	Z+6, r1	; 0x06
				DIGIT[1][1] = fnd_tbl[Gwid / 10];
    26e6:	40 91 92 4b 	lds	r20, 0x4B92	; 0x804b92 <Gwid>
    26ea:	8d ec       	ldi	r24, 0xCD	; 205
    26ec:	48 9f       	mul	r20, r24
    26ee:	81 2d       	mov	r24, r1
    26f0:	11 24       	eor	r1, r1
    26f2:	86 95       	lsr	r24
    26f4:	86 95       	lsr	r24
    26f6:	86 95       	lsr	r24
    26f8:	28 2f       	mov	r18, r24
    26fa:	30 e0       	ldi	r19, 0x00	; 0
    26fc:	29 5b       	subi	r18, 0xB9	; 185
    26fe:	3e 4b       	sbci	r19, 0xBE	; 190
    2700:	d9 01       	movw	r26, r18
    2702:	9c 91       	ld	r25, X
    2704:	95 83       	std	Z+5, r25	; 0x05
				DIGIT[1][0] = fnd_tbl[Gwid % 10];
    2706:	88 0f       	add	r24, r24
    2708:	98 2f       	mov	r25, r24
    270a:	99 0f       	add	r25, r25
    270c:	99 0f       	add	r25, r25
    270e:	89 0f       	add	r24, r25
    2710:	a4 2f       	mov	r26, r20
    2712:	a8 1b       	sub	r26, r24
    2714:	b0 e0       	ldi	r27, 0x00	; 0
    2716:	a9 5b       	subi	r26, 0xB9	; 185
    2718:	be 4b       	sbci	r27, 0xBE	; 190
    271a:	8c 91       	ld	r24, X
    271c:	84 83       	std	Z+4, r24	; 0x04

				if(SET.Select) {Gwid_Set();}			// į‘ņŐ∆ģ ŅĢņŐ ID ľ≥Ń§
    271e:	80 91 49 4b 	lds	r24, 0x4B49	; 0x804b49 <SET+0x1>
    2722:	88 23       	and	r24, r24
    2724:	31 f0       	breq	.+12     	; 0x2732 <Gateway_Set+0x126>
    2726:	0e 94 af 12 	call	0x255e	; 0x255e <Gwid_Set>
    272a:	03 c0       	rjmp	.+6      	; 0x2732 <Gateway_Set+0x126>
			break;

			case 3:							// Count = 3 ņŐłť
				count = 1;					// Ļ›ļĻņĽ ņß«ō Countł¶ √÷ņķ∑ő į®ľ“ Ĺ√Ňī
    272c:	c1 e0       	ldi	r28, 0x01	; 1
			break;
    272e:	01 c0       	rjmp	.+2      	; 0x2732 <Gateway_Set+0x126>
		DIGIT[2][0] = fnd_tbl[count];					// FND 2.0 Ņ° Count «•Ĺ√

		switch(count)							// count
		{
			case 0:							// Count = 0 ņŐłť
				count = 2;					// Ļ›ļĻņĽ ņß«ō Countł¶ √÷įŪ∑ő Ńűį° Ĺ√Ňī
    2730:	c2 e0       	ldi	r28, 0x02	; 2

			case 3:							// Count = 3 ņŐłť
				count = 1;					// Ļ›ļĻņĽ ņß«ō Countł¶ √÷ņķ∑ő į®ľ“ Ĺ√Ňī
			break;
		}
		wdt_reset();							// ŅŲń°Ķ∂ łģľ¬
    2732:	0e 94 17 0d 	call	0x1a2e	; 0x1a2e <wdt_reset>
	uint8_t count = 1;							// ńęŅÓ∆ģ ļĮľŲ √ Ī‚»≠
	SET.Select = 0;								// Select ĻŲ∆į √ Ī‚»≠

	FND_Value_Data(0, 2, 12);						// FND 0 ~ 2 FND_OFF
	
	while(SET.Menu)								// łřīļį° 1 ņŐłť Ļ›ļĻ
    2736:	80 91 48 4b 	lds	r24, 0x4B48	; 0x804b48 <SET>
    273a:	81 11       	cpse	r24, r1
    273c:	71 cf       	rjmp	.-286    	; 0x2620 <Gateway_Set+0x14>
				count = 1;					// Ļ›ļĻņĽ ņß«ō Countł¶ √÷ņķ∑ő į®ľ“ Ĺ√Ňī
			break;
		}
		wdt_reset();							// ŅŲń°Ķ∂ łģľ¬
	}
}
    273e:	cf 91       	pop	r28
    2740:	08 95       	ret

00002742 <I2C_0_do_I2C_RESET>:
 * \brief Identical to I2C_0_master_operation(true);
 */
i2c_error_t I2C_0_master_read(void)
{
	return I2C_0_master_operation(true);
}
    2742:	e0 e2       	ldi	r30, 0x20	; 32
    2744:	f9 e0       	ldi	r31, 0x09	; 9
    2746:	84 81       	ldd	r24, Z+4	; 0x04
    2748:	88 60       	ori	r24, 0x08	; 8
    274a:	84 83       	std	Z+4, r24	; 0x04
    274c:	85 81       	ldd	r24, Z+5	; 0x05
    274e:	81 60       	ori	r24, 0x01	; 1
    2750:	85 83       	std	Z+5, r24	; 0x05
    2752:	e9 e8       	ldi	r30, 0x89	; 137
    2754:	f1 e4       	ldi	r31, 0x41	; 65
    2756:	80 81       	ld	r24, Z
    2758:	8e 7f       	andi	r24, 0xFE	; 254
    275a:	80 83       	st	Z, r24
    275c:	13 86       	std	Z+11, r1	; 0x0b
    275e:	8e e0       	ldi	r24, 0x0E	; 14
    2760:	08 95       	ret

00002762 <I2C_0_do_I2C_IDLE>:
    2762:	e9 e8       	ldi	r30, 0x89	; 137
    2764:	f1 e4       	ldi	r31, 0x41	; 65
    2766:	80 81       	ld	r24, Z
    2768:	8e 7f       	andi	r24, 0xFE	; 254
    276a:	80 83       	st	Z, r24
    276c:	13 86       	std	Z+11, r1	; 0x0b
    276e:	80 e0       	ldi	r24, 0x00	; 0
    2770:	08 95       	ret

00002772 <I2C_0_do_I2C_SEND_STOP>:
    2772:	e0 e2       	ldi	r30, 0x20	; 32
    2774:	f9 e0       	ldi	r31, 0x09	; 9
    2776:	84 81       	ldd	r24, Z+4	; 0x04
    2778:	83 60       	ori	r24, 0x03	; 3
    277a:	84 83       	std	Z+4, r24	; 0x04
    277c:	0e 94 b1 13 	call	0x2762	; 0x2762 <I2C_0_do_I2C_IDLE>
    2780:	08 95       	ret

00002782 <I2C_0_do_I2C_SEND_ADR_READ>:
    2782:	e9 e8       	ldi	r30, 0x89	; 137
    2784:	f1 e4       	ldi	r31, 0x41	; 65
    2786:	80 81       	ld	r24, Z
    2788:	88 60       	ori	r24, 0x08	; 8
    278a:	80 83       	st	Z, r24
    278c:	81 81       	ldd	r24, Z+1	; 0x01
    278e:	90 e0       	ldi	r25, 0x00	; 0
    2790:	88 0f       	add	r24, r24
    2792:	99 1f       	adc	r25, r25
    2794:	81 60       	ori	r24, 0x01	; 1
    2796:	80 93 27 09 	sts	0x0927, r24	; 0x800927 <__TEXT_REGION_LENGTH__+0x7e0927>
    279a:	84 e0       	ldi	r24, 0x04	; 4
    279c:	08 95       	ret

0000279e <I2C_0_do_I2C_SEND_RESTART>:
    279e:	0e 94 c1 13 	call	0x2782	; 0x2782 <I2C_0_do_I2C_SEND_ADR_READ>
    27a2:	08 95       	ret

000027a4 <I2C_0_do_I2C_SEND_RESTART_READ>:
    27a4:	0e 94 c1 13 	call	0x2782	; 0x2782 <I2C_0_do_I2C_SEND_ADR_READ>
    27a8:	08 95       	ret

000027aa <I2C_0_do_I2C_SEND_ADR_WRITE>:
    27aa:	e9 e8       	ldi	r30, 0x89	; 137
    27ac:	f1 e4       	ldi	r31, 0x41	; 65
    27ae:	80 81       	ld	r24, Z
    27b0:	88 60       	ori	r24, 0x08	; 8
    27b2:	80 83       	st	Z, r24
    27b4:	81 81       	ldd	r24, Z+1	; 0x01
    27b6:	88 0f       	add	r24, r24
    27b8:	80 93 27 09 	sts	0x0927, r24	; 0x800927 <__TEXT_REGION_LENGTH__+0x7e0927>
    27bc:	83 e0       	ldi	r24, 0x03	; 3
    27be:	08 95       	ret

000027c0 <I2C_0_do_I2C_SEND_RESTART_WRITE>:
    27c0:	0e 94 d5 13 	call	0x27aa	; 0x27aa <I2C_0_do_I2C_SEND_ADR_WRITE>
    27c4:	08 95       	ret

000027c6 <I2C_0_do_I2C_DO_ADDRESS_NACK>:
    27c6:	a9 e8       	ldi	r26, 0x89	; 137
    27c8:	b1 e4       	ldi	r27, 0x41	; 65
    27ca:	8c 91       	ld	r24, X
    27cc:	87 7f       	andi	r24, 0xF7	; 247
    27ce:	8c 93       	st	X, r24
    27d0:	82 e0       	ldi	r24, 0x02	; 2
    27d2:	1b 96       	adiw	r26, 0x0b	; 11
    27d4:	8c 93       	st	X, r24
    27d6:	1b 97       	sbiw	r26, 0x0b	; 11
    27d8:	50 96       	adiw	r26, 0x10	; 16
    27da:	ed 91       	ld	r30, X+
    27dc:	fc 91       	ld	r31, X
    27de:	51 97       	sbiw	r26, 0x11	; 17
    27e0:	5c 96       	adiw	r26, 0x1c	; 28
    27e2:	8d 91       	ld	r24, X+
    27e4:	9c 91       	ld	r25, X
    27e6:	5d 97       	sbiw	r26, 0x1d	; 29
    27e8:	09 95       	icall
    27ea:	82 30       	cpi	r24, 0x02	; 2
    27ec:	19 f0       	breq	.+6      	; 0x27f4 <I2C_0_do_I2C_DO_ADDRESS_NACK+0x2e>
    27ee:	83 30       	cpi	r24, 0x03	; 3
    27f0:	21 f0       	breq	.+8      	; 0x27fa <I2C_0_do_I2C_DO_ADDRESS_NACK+0x34>
    27f2:	06 c0       	rjmp	.+12     	; 0x2800 <I2C_0_do_I2C_DO_ADDRESS_NACK+0x3a>
    27f4:	0e 94 d2 13 	call	0x27a4	; 0x27a4 <I2C_0_do_I2C_SEND_RESTART_READ>
    27f8:	08 95       	ret
    27fa:	0e 94 e0 13 	call	0x27c0	; 0x27c0 <I2C_0_do_I2C_SEND_RESTART_WRITE>
    27fe:	08 95       	ret
    2800:	0e 94 b9 13 	call	0x2772	; 0x2772 <I2C_0_do_I2C_SEND_STOP>
    2804:	08 95       	ret

00002806 <I2C_0_do_I2C_RX_DO_ACK>:
    2806:	e0 e2       	ldi	r30, 0x20	; 32
    2808:	f9 e0       	ldi	r31, 0x09	; 9
    280a:	84 81       	ldd	r24, Z+4	; 0x04
    280c:	8b 7f       	andi	r24, 0xFB	; 251
    280e:	84 83       	std	Z+4, r24	; 0x04
    2810:	84 e0       	ldi	r24, 0x04	; 4
    2812:	08 95       	ret

00002814 <I2C_0_do_I2C_TX_DO_ACK>:
    2814:	e0 e2       	ldi	r30, 0x20	; 32
    2816:	f9 e0       	ldi	r31, 0x09	; 9
    2818:	84 81       	ldd	r24, Z+4	; 0x04
    281a:	8b 7f       	andi	r24, 0xFB	; 251
    281c:	84 83       	std	Z+4, r24	; 0x04
    281e:	83 e0       	ldi	r24, 0x03	; 3
    2820:	08 95       	ret

00002822 <I2C_0_do_I2C_DO_NACK_STOP>:
    2822:	e0 e2       	ldi	r30, 0x20	; 32
    2824:	f9 e0       	ldi	r31, 0x09	; 9
    2826:	84 81       	ldd	r24, Z+4	; 0x04
    2828:	84 60       	ori	r24, 0x04	; 4
    282a:	84 83       	std	Z+4, r24	; 0x04
    282c:	84 81       	ldd	r24, Z+4	; 0x04
    282e:	83 60       	ori	r24, 0x03	; 3
    2830:	84 83       	std	Z+4, r24	; 0x04
    2832:	0e 94 b1 13 	call	0x2762	; 0x2762 <I2C_0_do_I2C_IDLE>
    2836:	08 95       	ret

00002838 <I2C_0_do_I2C_DO_NACK_RESTART>:
    2838:	e0 e2       	ldi	r30, 0x20	; 32
    283a:	f9 e0       	ldi	r31, 0x09	; 9
    283c:	84 81       	ldd	r24, Z+4	; 0x04
    283e:	84 60       	ori	r24, 0x04	; 4
    2840:	84 83       	std	Z+4, r24	; 0x04
    2842:	88 e0       	ldi	r24, 0x08	; 8
    2844:	08 95       	ret

00002846 <I2C_0_do_I2C_TX>:
    2846:	80 91 25 09 	lds	r24, 0x0925	; 0x800925 <__TEXT_REGION_LENGTH__+0x7e0925>
    284a:	84 ff       	sbrs	r24, 4
    284c:	19 c0       	rjmp	.+50     	; 0x2880 <I2C_0_do_I2C_TX+0x3a>
    284e:	a9 e8       	ldi	r26, 0x89	; 137
    2850:	b1 e4       	ldi	r27, 0x41	; 65
    2852:	52 96       	adiw	r26, 0x12	; 18
    2854:	ed 91       	ld	r30, X+
    2856:	fc 91       	ld	r31, X
    2858:	53 97       	sbiw	r26, 0x13	; 19
    285a:	5e 96       	adiw	r26, 0x1e	; 30
    285c:	8d 91       	ld	r24, X+
    285e:	9c 91       	ld	r25, X
    2860:	5f 97       	sbiw	r26, 0x1f	; 31
    2862:	09 95       	icall
    2864:	82 30       	cpi	r24, 0x02	; 2
    2866:	19 f0       	breq	.+6      	; 0x286e <I2C_0_do_I2C_TX+0x28>
    2868:	83 30       	cpi	r24, 0x03	; 3
    286a:	21 f0       	breq	.+8      	; 0x2874 <I2C_0_do_I2C_TX+0x2e>
    286c:	06 c0       	rjmp	.+12     	; 0x287a <I2C_0_do_I2C_TX+0x34>
    286e:	0e 94 d2 13 	call	0x27a4	; 0x27a4 <I2C_0_do_I2C_SEND_RESTART_READ>
    2872:	08 95       	ret
    2874:	0e 94 e0 13 	call	0x27c0	; 0x27c0 <I2C_0_do_I2C_SEND_RESTART_WRITE>
    2878:	08 95       	ret
    287a:	0e 94 b9 13 	call	0x2772	; 0x2772 <I2C_0_do_I2C_SEND_STOP>
    287e:	08 95       	ret
    2880:	e9 e8       	ldi	r30, 0x89	; 137
    2882:	f1 e4       	ldi	r31, 0x41	; 65
    2884:	80 81       	ld	r24, Z
    2886:	87 7f       	andi	r24, 0xF7	; 247
    2888:	80 83       	st	Z, r24
    288a:	a2 81       	ldd	r26, Z+2	; 0x02
    288c:	b3 81       	ldd	r27, Z+3	; 0x03
    288e:	cd 01       	movw	r24, r26
    2890:	01 96       	adiw	r24, 0x01	; 1
    2892:	82 83       	std	Z+2, r24	; 0x02
    2894:	93 83       	std	Z+3, r25	; 0x03
    2896:	8c 91       	ld	r24, X
    2898:	80 93 28 09 	sts	0x0928, r24	; 0x800928 <__TEXT_REGION_LENGTH__+0x7e0928>
    289c:	84 81       	ldd	r24, Z+4	; 0x04
    289e:	95 81       	ldd	r25, Z+5	; 0x05
    28a0:	01 97       	sbiw	r24, 0x01	; 1
    28a2:	84 83       	std	Z+4, r24	; 0x04
    28a4:	95 83       	std	Z+5, r25	; 0x05
    28a6:	89 2b       	or	r24, r25
    28a8:	11 f0       	breq	.+4      	; 0x28ae <I2C_0_do_I2C_TX+0x68>
    28aa:	83 e0       	ldi	r24, 0x03	; 3
    28ac:	08 95       	ret
    28ae:	85 e0       	ldi	r24, 0x05	; 5
    28b0:	08 95       	ret

000028b2 <I2C_0_do_I2C_RX>:
    28b2:	cf 93       	push	r28
    28b4:	df 93       	push	r29
    28b6:	e9 e8       	ldi	r30, 0x89	; 137
    28b8:	f1 e4       	ldi	r31, 0x41	; 65
    28ba:	80 81       	ld	r24, Z
    28bc:	87 7f       	andi	r24, 0xF7	; 247
    28be:	80 83       	st	Z, r24
    28c0:	84 81       	ldd	r24, Z+4	; 0x04
    28c2:	95 81       	ldd	r25, Z+5	; 0x05
    28c4:	01 97       	sbiw	r24, 0x01	; 1
    28c6:	31 f4       	brne	.+12     	; 0x28d4 <I2C_0_do_I2C_RX+0x22>
    28c8:	e0 e2       	ldi	r30, 0x20	; 32
    28ca:	f9 e0       	ldi	r31, 0x09	; 9
    28cc:	84 81       	ldd	r24, Z+4	; 0x04
    28ce:	84 60       	ori	r24, 0x04	; 4
    28d0:	84 83       	std	Z+4, r24	; 0x04
    28d2:	05 c0       	rjmp	.+10     	; 0x28de <I2C_0_do_I2C_RX+0x2c>
    28d4:	e0 e2       	ldi	r30, 0x20	; 32
    28d6:	f9 e0       	ldi	r31, 0x09	; 9
    28d8:	84 81       	ldd	r24, Z+4	; 0x04
    28da:	8b 7f       	andi	r24, 0xFB	; 251
    28dc:	84 83       	std	Z+4, r24	; 0x04
    28de:	e9 e8       	ldi	r30, 0x89	; 137
    28e0:	f1 e4       	ldi	r31, 0x41	; 65
    28e2:	84 81       	ldd	r24, Z+4	; 0x04
    28e4:	95 81       	ldd	r25, Z+5	; 0x05
    28e6:	01 97       	sbiw	r24, 0x01	; 1
    28e8:	84 83       	std	Z+4, r24	; 0x04
    28ea:	95 83       	std	Z+5, r25	; 0x05
    28ec:	89 2b       	or	r24, r25
    28ee:	a9 f0       	breq	.+42     	; 0x291a <I2C_0_do_I2C_RX+0x68>
    28f0:	df 01       	movw	r26, r30
    28f2:	c2 81       	ldd	r28, Z+2	; 0x02
    28f4:	d3 81       	ldd	r29, Z+3	; 0x03
    28f6:	e0 e2       	ldi	r30, 0x20	; 32
    28f8:	f9 e0       	ldi	r31, 0x09	; 9
    28fa:	80 85       	ldd	r24, Z+8	; 0x08
    28fc:	88 83       	st	Y, r24
    28fe:	12 96       	adiw	r26, 0x02	; 2
    2900:	8d 91       	ld	r24, X+
    2902:	9c 91       	ld	r25, X
    2904:	13 97       	sbiw	r26, 0x03	; 3
    2906:	01 96       	adiw	r24, 0x01	; 1
    2908:	12 96       	adiw	r26, 0x02	; 2
    290a:	8d 93       	st	X+, r24
    290c:	9c 93       	st	X, r25
    290e:	13 97       	sbiw	r26, 0x03	; 3
    2910:	84 81       	ldd	r24, Z+4	; 0x04
    2912:	82 60       	ori	r24, 0x02	; 2
    2914:	84 83       	std	Z+4, r24	; 0x04
    2916:	84 e0       	ldi	r24, 0x04	; 4
    2918:	26 c0       	rjmp	.+76     	; 0x2966 <I2C_0_do_I2C_RX+0xb4>
    291a:	a9 e8       	ldi	r26, 0x89	; 137
    291c:	b1 e4       	ldi	r27, 0x41	; 65
    291e:	12 96       	adiw	r26, 0x02	; 2
    2920:	ed 91       	ld	r30, X+
    2922:	fc 91       	ld	r31, X
    2924:	13 97       	sbiw	r26, 0x03	; 3
    2926:	80 91 28 09 	lds	r24, 0x0928	; 0x800928 <__TEXT_REGION_LENGTH__+0x7e0928>
    292a:	80 83       	st	Z, r24
    292c:	12 96       	adiw	r26, 0x02	; 2
    292e:	8d 91       	ld	r24, X+
    2930:	9c 91       	ld	r25, X
    2932:	13 97       	sbiw	r26, 0x03	; 3
    2934:	01 96       	adiw	r24, 0x01	; 1
    2936:	12 96       	adiw	r26, 0x02	; 2
    2938:	8d 93       	st	X+, r24
    293a:	9c 93       	st	X, r25
    293c:	13 97       	sbiw	r26, 0x03	; 3
    293e:	8c 91       	ld	r24, X
    2940:	84 60       	ori	r24, 0x04	; 4
    2942:	8c 93       	st	X, r24
    2944:	1c 96       	adiw	r26, 0x0c	; 12
    2946:	ed 91       	ld	r30, X+
    2948:	fc 91       	ld	r31, X
    294a:	1d 97       	sbiw	r26, 0x0d	; 13
    294c:	58 96       	adiw	r26, 0x18	; 24
    294e:	8d 91       	ld	r24, X+
    2950:	9c 91       	ld	r25, X
    2952:	59 97       	sbiw	r26, 0x19	; 25
    2954:	09 95       	icall
    2956:	82 50       	subi	r24, 0x02	; 2
    2958:	82 30       	cpi	r24, 0x02	; 2
    295a:	18 f4       	brcc	.+6      	; 0x2962 <I2C_0_do_I2C_RX+0xb0>
    295c:	0e 94 1c 14 	call	0x2838	; 0x2838 <I2C_0_do_I2C_DO_NACK_RESTART>
    2960:	02 c0       	rjmp	.+4      	; 0x2966 <I2C_0_do_I2C_RX+0xb4>
    2962:	0e 94 11 14 	call	0x2822	; 0x2822 <I2C_0_do_I2C_DO_NACK_STOP>
    2966:	df 91       	pop	r29
    2968:	cf 91       	pop	r28
    296a:	08 95       	ret

0000296c <I2C_0_do_I2C_TX_EMPTY>:
    296c:	80 91 25 09 	lds	r24, 0x0925	; 0x800925 <__TEXT_REGION_LENGTH__+0x7e0925>
    2970:	84 ff       	sbrs	r24, 4
    2972:	19 c0       	rjmp	.+50     	; 0x29a6 <I2C_0_do_I2C_TX_EMPTY+0x3a>
    2974:	a9 e8       	ldi	r26, 0x89	; 137
    2976:	b1 e4       	ldi	r27, 0x41	; 65
    2978:	52 96       	adiw	r26, 0x12	; 18
    297a:	ed 91       	ld	r30, X+
    297c:	fc 91       	ld	r31, X
    297e:	53 97       	sbiw	r26, 0x13	; 19
    2980:	5e 96       	adiw	r26, 0x1e	; 30
    2982:	8d 91       	ld	r24, X+
    2984:	9c 91       	ld	r25, X
    2986:	5f 97       	sbiw	r26, 0x1f	; 31
    2988:	09 95       	icall
    298a:	82 30       	cpi	r24, 0x02	; 2
    298c:	19 f0       	breq	.+6      	; 0x2994 <I2C_0_do_I2C_TX_EMPTY+0x28>
    298e:	83 30       	cpi	r24, 0x03	; 3
    2990:	21 f0       	breq	.+8      	; 0x299a <I2C_0_do_I2C_TX_EMPTY+0x2e>
    2992:	06 c0       	rjmp	.+12     	; 0x29a0 <I2C_0_do_I2C_TX_EMPTY+0x34>
    2994:	0e 94 d2 13 	call	0x27a4	; 0x27a4 <I2C_0_do_I2C_SEND_RESTART_READ>
    2998:	08 95       	ret
    299a:	0e 94 e0 13 	call	0x27c0	; 0x27c0 <I2C_0_do_I2C_SEND_RESTART_WRITE>
    299e:	08 95       	ret
    29a0:	0e 94 b9 13 	call	0x2772	; 0x2772 <I2C_0_do_I2C_SEND_STOP>
    29a4:	08 95       	ret
    29a6:	a9 e8       	ldi	r26, 0x89	; 137
    29a8:	b1 e4       	ldi	r27, 0x41	; 65
    29aa:	8c 91       	ld	r24, X
    29ac:	84 60       	ori	r24, 0x04	; 4
    29ae:	8c 93       	st	X, r24
    29b0:	1c 96       	adiw	r26, 0x0c	; 12
    29b2:	ed 91       	ld	r30, X+
    29b4:	fc 91       	ld	r31, X
    29b6:	1d 97       	sbiw	r26, 0x0d	; 13
    29b8:	58 96       	adiw	r26, 0x18	; 24
    29ba:	8d 91       	ld	r24, X+
    29bc:	9c 91       	ld	r25, X
    29be:	59 97       	sbiw	r26, 0x19	; 25
    29c0:	09 95       	icall
    29c2:	83 30       	cpi	r24, 0x03	; 3
    29c4:	39 f0       	breq	.+14     	; 0x29d4 <I2C_0_do_I2C_TX_EMPTY+0x68>
    29c6:	84 30       	cpi	r24, 0x04	; 4
    29c8:	41 f0       	breq	.+16     	; 0x29da <I2C_0_do_I2C_TX_EMPTY+0x6e>
    29ca:	82 30       	cpi	r24, 0x02	; 2
    29cc:	49 f4       	brne	.+18     	; 0x29e0 <I2C_0_do_I2C_TX_EMPTY+0x74>
    29ce:	0e 94 d2 13 	call	0x27a4	; 0x27a4 <I2C_0_do_I2C_SEND_RESTART_READ>
    29d2:	08 95       	ret
    29d4:	0e 94 e0 13 	call	0x27c0	; 0x27c0 <I2C_0_do_I2C_SEND_RESTART_WRITE>
    29d8:	08 95       	ret
    29da:	0e 94 23 14 	call	0x2846	; 0x2846 <I2C_0_do_I2C_TX>
    29de:	08 95       	ret
    29e0:	0e 94 b9 13 	call	0x2772	; 0x2772 <I2C_0_do_I2C_SEND_STOP>
    29e4:	08 95       	ret

000029e6 <I2C_0_do_I2C_BUS_COLLISION>:
    29e6:	e0 e2       	ldi	r30, 0x20	; 32
    29e8:	f9 e0       	ldi	r31, 0x09	; 9
    29ea:	85 81       	ldd	r24, Z+5	; 0x05
    29ec:	88 60       	ori	r24, 0x08	; 8
    29ee:	85 83       	std	Z+5, r24	; 0x05
    29f0:	a9 e8       	ldi	r26, 0x89	; 137
    29f2:	b1 e4       	ldi	r27, 0x41	; 65
    29f4:	82 e0       	ldi	r24, 0x02	; 2
    29f6:	1b 96       	adiw	r26, 0x0b	; 11
    29f8:	8c 93       	st	X, r24
    29fa:	1b 97       	sbiw	r26, 0x0b	; 11
    29fc:	1e 96       	adiw	r26, 0x0e	; 14
    29fe:	ed 91       	ld	r30, X+
    2a00:	fc 91       	ld	r31, X
    2a02:	1f 97       	sbiw	r26, 0x0f	; 15
    2a04:	5a 96       	adiw	r26, 0x1a	; 26
    2a06:	8d 91       	ld	r24, X+
    2a08:	9c 91       	ld	r25, X
    2a0a:	5b 97       	sbiw	r26, 0x1b	; 27
    2a0c:	09 95       	icall
    2a0e:	82 30       	cpi	r24, 0x02	; 2
    2a10:	19 f0       	breq	.+6      	; 0x2a18 <I2C_0_do_I2C_BUS_COLLISION+0x32>
    2a12:	83 30       	cpi	r24, 0x03	; 3
    2a14:	21 f0       	breq	.+8      	; 0x2a1e <I2C_0_do_I2C_BUS_COLLISION+0x38>
    2a16:	06 c0       	rjmp	.+12     	; 0x2a24 <I2C_0_do_I2C_BUS_COLLISION+0x3e>
    2a18:	0e 94 d2 13 	call	0x27a4	; 0x27a4 <I2C_0_do_I2C_SEND_RESTART_READ>
    2a1c:	08 95       	ret
    2a1e:	0e 94 e0 13 	call	0x27c0	; 0x27c0 <I2C_0_do_I2C_SEND_RESTART_WRITE>
    2a22:	08 95       	ret
    2a24:	0e 94 a1 13 	call	0x2742	; 0x2742 <I2C_0_do_I2C_RESET>
    2a28:	08 95       	ret

00002a2a <I2C_0_do_I2C_BUS_ERROR>:
    2a2a:	e0 e2       	ldi	r30, 0x20	; 32
    2a2c:	f9 e0       	ldi	r31, 0x09	; 9
    2a2e:	84 81       	ldd	r24, Z+4	; 0x04
    2a30:	88 60       	ori	r24, 0x08	; 8
    2a32:	84 83       	std	Z+4, r24	; 0x04
    2a34:	85 81       	ldd	r24, Z+5	; 0x05
    2a36:	81 60       	ori	r24, 0x01	; 1
    2a38:	85 83       	std	Z+5, r24	; 0x05
    2a3a:	e9 e8       	ldi	r30, 0x89	; 137
    2a3c:	f1 e4       	ldi	r31, 0x41	; 65
    2a3e:	80 81       	ld	r24, Z
    2a40:	8e 7f       	andi	r24, 0xFE	; 254
    2a42:	80 83       	st	Z, r24
    2a44:	82 e0       	ldi	r24, 0x02	; 2
    2a46:	83 87       	std	Z+11, r24	; 0x0b
    2a48:	8e e0       	ldi	r24, 0x0E	; 14
    2a4a:	08 95       	ret

00002a4c <I2C_0_master_isr>:
    2a4c:	cf 93       	push	r28
    2a4e:	df 93       	push	r29
    2a50:	e0 e2       	ldi	r30, 0x20	; 32
    2a52:	f9 e0       	ldi	r31, 0x09	; 9
    2a54:	85 81       	ldd	r24, Z+5	; 0x05
    2a56:	80 6c       	ori	r24, 0xC0	; 192
    2a58:	85 83       	std	Z+5, r24	; 0x05
    2a5a:	80 91 89 41 	lds	r24, 0x4189	; 0x804189 <I2C_0_status>
    2a5e:	83 ff       	sbrs	r24, 3
    2a60:	07 c0       	rjmp	.+14     	; 0x2a70 <I2C_0_master_isr+0x24>
    2a62:	80 91 25 09 	lds	r24, 0x0925	; 0x800925 <__TEXT_REGION_LENGTH__+0x7e0925>
    2a66:	84 ff       	sbrs	r24, 4
    2a68:	03 c0       	rjmp	.+6      	; 0x2a70 <I2C_0_master_isr+0x24>
    2a6a:	8f e0       	ldi	r24, 0x0F	; 15
    2a6c:	80 93 93 41 	sts	0x4193, r24	; 0x804193 <I2C_0_status+0xa>
    2a70:	80 91 25 09 	lds	r24, 0x0925	; 0x800925 <__TEXT_REGION_LENGTH__+0x7e0925>
    2a74:	83 ff       	sbrs	r24, 3
    2a76:	03 c0       	rjmp	.+6      	; 0x2a7e <I2C_0_master_isr+0x32>
    2a78:	80 e1       	ldi	r24, 0x10	; 16
    2a7a:	80 93 93 41 	sts	0x4193, r24	; 0x804193 <I2C_0_status+0xa>
    2a7e:	80 91 25 09 	lds	r24, 0x0925	; 0x800925 <__TEXT_REGION_LENGTH__+0x7e0925>
    2a82:	82 ff       	sbrs	r24, 2
    2a84:	03 c0       	rjmp	.+6      	; 0x2a8c <I2C_0_master_isr+0x40>
    2a86:	81 e1       	ldi	r24, 0x11	; 17
    2a88:	80 93 93 41 	sts	0x4193, r24	; 0x804193 <I2C_0_status+0xa>
    2a8c:	c9 e8       	ldi	r28, 0x89	; 137
    2a8e:	d1 e4       	ldi	r29, 0x41	; 65
    2a90:	ea 85       	ldd	r30, Y+10	; 0x0a
    2a92:	f0 e0       	ldi	r31, 0x00	; 0
    2a94:	ee 0f       	add	r30, r30
    2a96:	ff 1f       	adc	r31, r31
    2a98:	ea 5f       	subi	r30, 0xFA	; 250
    2a9a:	ff 4b       	sbci	r31, 0xBF	; 191
    2a9c:	01 90       	ld	r0, Z+
    2a9e:	f0 81       	ld	r31, Z
    2aa0:	e0 2d       	mov	r30, r0
    2aa2:	09 95       	icall
    2aa4:	8a 87       	std	Y+10, r24	; 0x0a
    2aa6:	df 91       	pop	r29
    2aa8:	cf 91       	pop	r28
    2aaa:	08 95       	ret

00002aac <I2C_0_return_stop>:
    2aac:	81 e0       	ldi	r24, 0x01	; 1
    2aae:	08 95       	ret

00002ab0 <I2C_0_return_reset>:
    2ab0:	85 e0       	ldi	r24, 0x05	; 5
    2ab2:	08 95       	ret

00002ab4 <I2C_0_set_callback>:
    2ab4:	61 15       	cp	r22, r1
    2ab6:	71 05       	cpc	r23, r1
    2ab8:	91 f0       	breq	.+36     	; 0x2ade <I2C_0_set_callback+0x2a>
    2aba:	90 e0       	ldi	r25, 0x00	; 0
    2abc:	fc 01       	movw	r30, r24
    2abe:	36 96       	adiw	r30, 0x06	; 6
    2ac0:	ee 0f       	add	r30, r30
    2ac2:	ff 1f       	adc	r31, r31
    2ac4:	e7 57       	subi	r30, 0x77	; 119
    2ac6:	fe 4b       	sbci	r31, 0xBE	; 190
    2ac8:	60 83       	st	Z, r22
    2aca:	71 83       	std	Z+1, r23	; 0x01
    2acc:	fc 01       	movw	r30, r24
    2ace:	3c 96       	adiw	r30, 0x0c	; 12
    2ad0:	ee 0f       	add	r30, r30
    2ad2:	ff 1f       	adc	r31, r31
    2ad4:	e7 57       	subi	r30, 0x77	; 119
    2ad6:	fe 4b       	sbci	r31, 0xBE	; 190
    2ad8:	40 83       	st	Z, r20
    2ada:	51 83       	std	Z+1, r21	; 0x01
    2adc:	08 95       	ret
    2ade:	90 e0       	ldi	r25, 0x00	; 0
    2ae0:	fc 01       	movw	r30, r24
    2ae2:	36 96       	adiw	r30, 0x06	; 6
    2ae4:	ee 0f       	add	r30, r30
    2ae6:	ff 1f       	adc	r31, r31
    2ae8:	e7 57       	subi	r30, 0x77	; 119
    2aea:	fe 4b       	sbci	r31, 0xBE	; 190
    2aec:	26 e5       	ldi	r18, 0x56	; 86
    2aee:	35 e1       	ldi	r19, 0x15	; 21
    2af0:	20 83       	st	Z, r18
    2af2:	31 83       	std	Z+1, r19	; 0x01
    2af4:	fc 01       	movw	r30, r24
    2af6:	3c 96       	adiw	r30, 0x0c	; 12
    2af8:	ee 0f       	add	r30, r30
    2afa:	ff 1f       	adc	r31, r31
    2afc:	e7 57       	subi	r30, 0x77	; 119
    2afe:	fe 4b       	sbci	r31, 0xBE	; 190
    2b00:	10 82       	st	Z, r1
    2b02:	11 82       	std	Z+1, r1	; 0x01
    2b04:	08 95       	ret

00002b06 <I2C_0_set_data_complete_callback>:
    2b06:	ab 01       	movw	r20, r22
    2b08:	bc 01       	movw	r22, r24
    2b0a:	80 e0       	ldi	r24, 0x00	; 0
    2b0c:	0e 94 5a 15 	call	0x2ab4	; 0x2ab4 <I2C_0_set_callback>
    2b10:	08 95       	ret

00002b12 <I2C_0_set_address_nack_callback>:
    2b12:	ab 01       	movw	r20, r22
    2b14:	bc 01       	movw	r22, r24
    2b16:	82 e0       	ldi	r24, 0x02	; 2
    2b18:	0e 94 5a 15 	call	0x2ab4	; 0x2ab4 <I2C_0_set_callback>
    2b1c:	08 95       	ret

00002b1e <I2C_0_init>:
    2b1e:	e0 e2       	ldi	r30, 0x20	; 32
    2b20:	f9 e0       	ldi	r31, 0x09	; 9
    2b22:	84 e4       	ldi	r24, 0x44	; 68
    2b24:	86 83       	std	Z+6, r24	; 0x06
    2b26:	81 ec       	ldi	r24, 0xC1	; 193
    2b28:	83 83       	std	Z+3, r24	; 0x03
    2b2a:	08 95       	ret

00002b2c <I2C_0_open>:
    2b2c:	90 91 89 41 	lds	r25, 0x4189	; 0x804189 <I2C_0_status>
    2b30:	91 fd       	sbrc	r25, 1
    2b32:	37 c0       	rjmp	.+110    	; 0x2ba2 <I2C_0_open+0x76>
    2b34:	e9 e8       	ldi	r30, 0x89	; 137
    2b36:	f1 e4       	ldi	r31, 0x41	; 65
    2b38:	81 83       	std	Z+1, r24	; 0x01
    2b3a:	89 2f       	mov	r24, r25
    2b3c:	8e 7f       	andi	r24, 0xFE	; 254
    2b3e:	82 60       	ori	r24, 0x02	; 2
    2b40:	9e e0       	ldi	r25, 0x0E	; 14
    2b42:	92 87       	std	Z+10, r25	; 0x0a
    2b44:	24 ef       	ldi	r18, 0xF4	; 244
    2b46:	31 e0       	ldi	r19, 0x01	; 1
    2b48:	20 87       	std	Z+8, r18	; 0x08
    2b4a:	31 87       	std	Z+9, r19	; 0x09
    2b4c:	87 7f       	andi	r24, 0xF7	; 247
    2b4e:	84 60       	ori	r24, 0x04	; 4
    2b50:	80 83       	st	Z, r24
    2b52:	86 e5       	ldi	r24, 0x56	; 86
    2b54:	95 e1       	ldi	r25, 0x15	; 21
    2b56:	84 87       	std	Z+12, r24	; 0x0c
    2b58:	95 87       	std	Z+13, r25	; 0x0d
    2b5a:	10 8e       	std	Z+24, r1	; 0x18
    2b5c:	11 8e       	std	Z+25, r1	; 0x19
    2b5e:	86 87       	std	Z+14, r24	; 0x0e
    2b60:	97 87       	std	Z+15, r25	; 0x0f
    2b62:	12 8e       	std	Z+26, r1	; 0x1a
    2b64:	13 8e       	std	Z+27, r1	; 0x1b
    2b66:	80 8b       	std	Z+16, r24	; 0x10
    2b68:	91 8b       	std	Z+17, r25	; 0x11
    2b6a:	14 8e       	std	Z+28, r1	; 0x1c
    2b6c:	15 8e       	std	Z+29, r1	; 0x1d
    2b6e:	82 8b       	std	Z+18, r24	; 0x12
    2b70:	93 8b       	std	Z+19, r25	; 0x13
    2b72:	16 8e       	std	Z+30, r1	; 0x1e
    2b74:	17 8e       	std	Z+31, r1	; 0x1f
    2b76:	88 e5       	ldi	r24, 0x58	; 88
    2b78:	95 e1       	ldi	r25, 0x15	; 21
    2b7a:	84 8b       	std	Z+20, r24	; 0x14
    2b7c:	95 8b       	std	Z+21, r25	; 0x15
    2b7e:	10 a2       	std	Z+32, r1	; 0x20
    2b80:	11 a2       	std	Z+33, r1	; 0x21
    2b82:	e0 e2       	ldi	r30, 0x20	; 32
    2b84:	f9 e0       	ldi	r31, 0x09	; 9
    2b86:	84 81       	ldd	r24, Z+4	; 0x04
    2b88:	88 60       	ori	r24, 0x08	; 8
    2b8a:	84 83       	std	Z+4, r24	; 0x04
    2b8c:	85 81       	ldd	r24, Z+5	; 0x05
    2b8e:	81 60       	ori	r24, 0x01	; 1
    2b90:	85 83       	std	Z+5, r24	; 0x05
    2b92:	85 81       	ldd	r24, Z+5	; 0x05
    2b94:	80 6c       	ori	r24, 0xC0	; 192
    2b96:	85 83       	std	Z+5, r24	; 0x05
    2b98:	83 81       	ldd	r24, Z+3	; 0x03
    2b9a:	80 6c       	ori	r24, 0xC0	; 192
    2b9c:	83 83       	std	Z+3, r24	; 0x03
    2b9e:	80 e0       	ldi	r24, 0x00	; 0
    2ba0:	08 95       	ret
    2ba2:	81 e0       	ldi	r24, 0x01	; 1
    2ba4:	08 95       	ret

00002ba6 <I2C_0_close>:
    2ba6:	80 91 25 09 	lds	r24, 0x0925	; 0x800925 <__TEXT_REGION_LENGTH__+0x7e0925>
    2baa:	82 ff       	sbrs	r24, 2
    2bac:	07 c0       	rjmp	.+14     	; 0x2bbc <I2C_0_close+0x16>
    2bae:	e9 e8       	ldi	r30, 0x89	; 137
    2bb0:	f1 e4       	ldi	r31, 0x41	; 65
    2bb2:	80 81       	ld	r24, Z
    2bb4:	8e 7f       	andi	r24, 0xFE	; 254
    2bb6:	80 83       	st	Z, r24
    2bb8:	82 e0       	ldi	r24, 0x02	; 2
    2bba:	83 87       	std	Z+11, r24	; 0x0b
    2bbc:	80 91 89 41 	lds	r24, 0x4189	; 0x804189 <I2C_0_status>
    2bc0:	80 fd       	sbrc	r24, 0
    2bc2:	17 c0       	rjmp	.+46     	; 0x2bf2 <I2C_0_close+0x4c>
    2bc4:	e9 e8       	ldi	r30, 0x89	; 137
    2bc6:	f1 e4       	ldi	r31, 0x41	; 65
    2bc8:	8d 7f       	andi	r24, 0xFD	; 253
    2bca:	80 83       	st	Z, r24
    2bcc:	8f ef       	ldi	r24, 0xFF	; 255
    2bce:	81 83       	std	Z+1, r24	; 0x01
    2bd0:	a0 e2       	ldi	r26, 0x20	; 32
    2bd2:	b9 e0       	ldi	r27, 0x09	; 9
    2bd4:	15 96       	adiw	r26, 0x05	; 5
    2bd6:	8c 91       	ld	r24, X
    2bd8:	15 97       	sbiw	r26, 0x05	; 5
    2bda:	80 6c       	ori	r24, 0xC0	; 192
    2bdc:	15 96       	adiw	r26, 0x05	; 5
    2bde:	8c 93       	st	X, r24
    2be0:	15 97       	sbiw	r26, 0x05	; 5
    2be2:	13 96       	adiw	r26, 0x03	; 3
    2be4:	8c 91       	ld	r24, X
    2be6:	13 97       	sbiw	r26, 0x03	; 3
    2be8:	8f 73       	andi	r24, 0x3F	; 63
    2bea:	13 96       	adiw	r26, 0x03	; 3
    2bec:	8c 93       	st	X, r24
    2bee:	83 85       	ldd	r24, Z+11	; 0x0b
    2bf0:	08 95       	ret
    2bf2:	81 e0       	ldi	r24, 0x01	; 1
    2bf4:	08 95       	ret

00002bf6 <I2C_0_set_buffer>:
    2bf6:	9c 01       	movw	r18, r24
    2bf8:	90 91 89 41 	lds	r25, 0x4189	; 0x804189 <I2C_0_status>
    2bfc:	92 ff       	sbrs	r25, 2
    2bfe:	09 c0       	rjmp	.+18     	; 0x2c12 <I2C_0_set_buffer+0x1c>
    2c00:	e9 e8       	ldi	r30, 0x89	; 137
    2c02:	f1 e4       	ldi	r31, 0x41	; 65
    2c04:	22 83       	std	Z+2, r18	; 0x02
    2c06:	33 83       	std	Z+3, r19	; 0x03
    2c08:	64 83       	std	Z+4, r22	; 0x04
    2c0a:	75 83       	std	Z+5, r23	; 0x05
    2c0c:	89 2f       	mov	r24, r25
    2c0e:	8b 7f       	andi	r24, 0xFB	; 251
    2c10:	80 83       	st	Z, r24
    2c12:	08 95       	ret

00002c14 <I2C_0_master_operation>:
    2c14:	90 91 89 41 	lds	r25, 0x4189	; 0x804189 <I2C_0_status>
    2c18:	90 fd       	sbrc	r25, 0
    2c1a:	11 c0       	rjmp	.+34     	; 0x2c3e <I2C_0_master_operation+0x2a>
    2c1c:	e9 e8       	ldi	r30, 0x89	; 137
    2c1e:	f1 e4       	ldi	r31, 0x41	; 65
    2c20:	91 60       	ori	r25, 0x01	; 1
    2c22:	90 83       	st	Z, r25
    2c24:	88 23       	and	r24, r24
    2c26:	21 f0       	breq	.+8      	; 0x2c30 <I2C_0_master_operation+0x1c>
    2c28:	81 e0       	ldi	r24, 0x01	; 1
    2c2a:	80 93 93 41 	sts	0x4193, r24	; 0x804193 <I2C_0_status+0xa>
    2c2e:	03 c0       	rjmp	.+6      	; 0x2c36 <I2C_0_master_operation+0x22>
    2c30:	82 e0       	ldi	r24, 0x02	; 2
    2c32:	80 93 93 41 	sts	0x4193, r24	; 0x804193 <I2C_0_status+0xa>
    2c36:	0e 94 26 15 	call	0x2a4c	; 0x2a4c <I2C_0_master_isr>
    2c3a:	80 e0       	ldi	r24, 0x00	; 0
    2c3c:	08 95       	ret
    2c3e:	81 e0       	ldi	r24, 0x01	; 1
    2c40:	08 95       	ret

00002c42 <I2C_0_master_write>:
/**
 * \brief Identical to I2C_0_master_operation(false);
 */
i2c_error_t I2C_0_master_write(void)
{
	return I2C_0_master_operation(false);
    2c42:	80 e0       	ldi	r24, 0x00	; 0
    2c44:	0e 94 0a 16 	call	0x2c14	; 0x2c14 <I2C_0_master_operation>
}
    2c48:	08 95       	ret

00002c4a <__vector_43>:
    I2C_0_do_I2C_BUS_COLLISION,      // I2C_BUS_COLLISION
    I2C_0_do_I2C_BUS_ERROR           // I2C_BUS_ERROR
};

ISR(TWI1_TWIM_vect)
{
    2c4a:	1f 92       	push	r1
    2c4c:	0f 92       	push	r0
    2c4e:	0f b6       	in	r0, 0x3f	; 63
    2c50:	0f 92       	push	r0
    2c52:	11 24       	eor	r1, r1
    2c54:	0b b6       	in	r0, 0x3b	; 59
    2c56:	0f 92       	push	r0
    2c58:	2f 93       	push	r18
    2c5a:	3f 93       	push	r19
    2c5c:	4f 93       	push	r20
    2c5e:	5f 93       	push	r21
    2c60:	6f 93       	push	r22
    2c62:	7f 93       	push	r23
    2c64:	8f 93       	push	r24
    2c66:	9f 93       	push	r25
    2c68:	af 93       	push	r26
    2c6a:	bf 93       	push	r27
    2c6c:	ef 93       	push	r30
    2c6e:	ff 93       	push	r31
	I2C_0_master_isr();
    2c70:	0e 94 26 15 	call	0x2a4c	; 0x2a4c <I2C_0_master_isr>
}
    2c74:	ff 91       	pop	r31
    2c76:	ef 91       	pop	r30
    2c78:	bf 91       	pop	r27
    2c7a:	af 91       	pop	r26
    2c7c:	9f 91       	pop	r25
    2c7e:	8f 91       	pop	r24
    2c80:	7f 91       	pop	r23
    2c82:	6f 91       	pop	r22
    2c84:	5f 91       	pop	r21
    2c86:	4f 91       	pop	r20
    2c88:	3f 91       	pop	r19
    2c8a:	2f 91       	pop	r18
    2c8c:	0f 90       	pop	r0
    2c8e:	0b be       	out	0x3b, r0	; 59
    2c90:	0f 90       	pop	r0
    2c92:	0f be       	out	0x3f, r0	; 63
    2c94:	0f 90       	pop	r0
    2c96:	1f 90       	pop	r1
    2c98:	18 95       	reti

00002c9a <I2C_0_wr1RegCompleteHandler>:
    2c9a:	61 e0       	ldi	r22, 0x01	; 1
    2c9c:	70 e0       	ldi	r23, 0x00	; 0
    2c9e:	0e 94 fb 15 	call	0x2bf6	; 0x2bf6 <I2C_0_set_buffer>
    2ca2:	60 e0       	ldi	r22, 0x00	; 0
    2ca4:	70 e0       	ldi	r23, 0x00	; 0
    2ca6:	80 e0       	ldi	r24, 0x00	; 0
    2ca8:	90 e0       	ldi	r25, 0x00	; 0
    2caa:	0e 94 83 15 	call	0x2b06	; 0x2b06 <I2C_0_set_data_complete_callback>
    2cae:	84 e0       	ldi	r24, 0x04	; 4
    2cb0:	08 95       	ret

00002cb2 <I2C_0_rd1RegCompleteHandler>:
    2cb2:	61 e0       	ldi	r22, 0x01	; 1
    2cb4:	70 e0       	ldi	r23, 0x00	; 0
    2cb6:	0e 94 fb 15 	call	0x2bf6	; 0x2bf6 <I2C_0_set_buffer>
    2cba:	60 e0       	ldi	r22, 0x00	; 0
    2cbc:	70 e0       	ldi	r23, 0x00	; 0
    2cbe:	80 e0       	ldi	r24, 0x00	; 0
    2cc0:	90 e0       	ldi	r25, 0x00	; 0
    2cc2:	0e 94 83 15 	call	0x2b06	; 0x2b06 <I2C_0_set_data_complete_callback>
    2cc6:	82 e0       	ldi	r24, 0x02	; 2
    2cc8:	08 95       	ret

00002cca <I2C_0_write1ByteRegister>:
    2cca:	ff 92       	push	r15
    2ccc:	0f 93       	push	r16
    2cce:	1f 93       	push	r17
    2cd0:	cf 93       	push	r28
    2cd2:	df 93       	push	r29
    2cd4:	00 d0       	rcall	.+0      	; 0x2cd6 <I2C_0_write1ByteRegister+0xc>
    2cd6:	cd b7       	in	r28, 0x3d	; 61
    2cd8:	de b7       	in	r29, 0x3e	; 62
    2cda:	f8 2e       	mov	r15, r24
    2cdc:	69 83       	std	Y+1, r22	; 0x01
    2cde:	4a 83       	std	Y+2, r20	; 0x02
    2ce0:	00 e1       	ldi	r16, 0x10	; 16
    2ce2:	17 e2       	ldi	r17, 0x27	; 39
    2ce4:	8f 2d       	mov	r24, r15
    2ce6:	0e 94 96 15 	call	0x2b2c	; 0x2b2c <I2C_0_open>
    2cea:	81 30       	cpi	r24, 0x01	; 1
    2cec:	19 f4       	brne	.+6      	; 0x2cf4 <I2C_0_write1ByteRegister+0x2a>
    2cee:	01 50       	subi	r16, 0x01	; 1
    2cf0:	11 09       	sbc	r17, r1
    2cf2:	c1 f7       	brne	.-16     	; 0x2ce4 <I2C_0_write1ByteRegister+0x1a>
    2cf4:	01 2b       	or	r16, r17
    2cf6:	11 f1       	breq	.+68     	; 0x2d3c <I2C_0_write1ByteRegister+0x72>
    2cf8:	be 01       	movw	r22, r28
    2cfa:	6e 5f       	subi	r22, 0xFE	; 254
    2cfc:	7f 4f       	sbci	r23, 0xFF	; 255
    2cfe:	8d e4       	ldi	r24, 0x4D	; 77
    2d00:	96 e1       	ldi	r25, 0x16	; 22
    2d02:	0e 94 83 15 	call	0x2b06	; 0x2b06 <I2C_0_set_data_complete_callback>
    2d06:	61 e0       	ldi	r22, 0x01	; 1
    2d08:	70 e0       	ldi	r23, 0x00	; 0
    2d0a:	ce 01       	movw	r24, r28
    2d0c:	01 96       	adiw	r24, 0x01	; 1
    2d0e:	0e 94 fb 15 	call	0x2bf6	; 0x2bf6 <I2C_0_set_buffer>
    2d12:	60 e0       	ldi	r22, 0x00	; 0
    2d14:	70 e0       	ldi	r23, 0x00	; 0
    2d16:	89 ee       	ldi	r24, 0xE9	; 233
    2d18:	96 e1       	ldi	r25, 0x16	; 22
    2d1a:	0e 94 89 15 	call	0x2b12	; 0x2b12 <I2C_0_set_address_nack_callback>
    2d1e:	0e 94 21 16 	call	0x2c42	; 0x2c42 <I2C_0_master_write>
    2d22:	00 e1       	ldi	r16, 0x10	; 16
    2d24:	17 e2       	ldi	r17, 0x27	; 39
    2d26:	0e 94 d3 15 	call	0x2ba6	; 0x2ba6 <I2C_0_close>
    2d2a:	81 30       	cpi	r24, 0x01	; 1
    2d2c:	19 f4       	brne	.+6      	; 0x2d34 <I2C_0_write1ByteRegister+0x6a>
    2d2e:	01 50       	subi	r16, 0x01	; 1
    2d30:	11 09       	sbc	r17, r1
    2d32:	c9 f7       	brne	.-14     	; 0x2d26 <I2C_0_write1ByteRegister+0x5c>
    2d34:	01 2b       	or	r16, r17
    2d36:	21 f4       	brne	.+8      	; 0x2d40 <I2C_0_write1ByteRegister+0x76>
    2d38:	82 e0       	ldi	r24, 0x02	; 2
    2d3a:	03 c0       	rjmp	.+6      	; 0x2d42 <I2C_0_write1ByteRegister+0x78>
    2d3c:	81 e0       	ldi	r24, 0x01	; 1
    2d3e:	01 c0       	rjmp	.+2      	; 0x2d42 <I2C_0_write1ByteRegister+0x78>
    2d40:	80 e0       	ldi	r24, 0x00	; 0
    2d42:	0f 90       	pop	r0
    2d44:	0f 90       	pop	r0
    2d46:	df 91       	pop	r29
    2d48:	cf 91       	pop	r28
    2d4a:	1f 91       	pop	r17
    2d4c:	0f 91       	pop	r16
    2d4e:	ff 90       	pop	r15
    2d50:	08 95       	ret

00002d52 <I2C_0_read1ByteRegister>:
    2d52:	ef 92       	push	r14
    2d54:	ff 92       	push	r15
    2d56:	1f 93       	push	r17
    2d58:	cf 93       	push	r28
    2d5a:	df 93       	push	r29
    2d5c:	00 d0       	rcall	.+0      	; 0x2d5e <I2C_0_read1ByteRegister+0xc>
    2d5e:	cd b7       	in	r28, 0x3d	; 61
    2d60:	de b7       	in	r29, 0x3e	; 62
    2d62:	18 2f       	mov	r17, r24
    2d64:	6a 83       	std	Y+2, r22	; 0x02
    2d66:	8a e2       	ldi	r24, 0x2A	; 42
    2d68:	89 83       	std	Y+1, r24	; 0x01
    2d6a:	68 94       	set
    2d6c:	ee 24       	eor	r14, r14
    2d6e:	e1 f8       	bld	r14, 1
    2d70:	f1 2c       	mov	r15, r1
    2d72:	23 c0       	rjmp	.+70     	; 0x2dba <I2C_0_read1ByteRegister+0x68>
    2d74:	81 2f       	mov	r24, r17
    2d76:	0e 94 96 15 	call	0x2b2c	; 0x2b2c <I2C_0_open>
    2d7a:	88 23       	and	r24, r24
    2d7c:	d9 f3       	breq	.-10     	; 0x2d74 <I2C_0_read1ByteRegister+0x22>
    2d7e:	be 01       	movw	r22, r28
    2d80:	6f 5f       	subi	r22, 0xFF	; 255
    2d82:	7f 4f       	sbci	r23, 0xFF	; 255
    2d84:	89 e5       	ldi	r24, 0x59	; 89
    2d86:	96 e1       	ldi	r25, 0x16	; 22
    2d88:	0e 94 83 15 	call	0x2b06	; 0x2b06 <I2C_0_set_data_complete_callback>
    2d8c:	61 e0       	ldi	r22, 0x01	; 1
    2d8e:	70 e0       	ldi	r23, 0x00	; 0
    2d90:	ce 01       	movw	r24, r28
    2d92:	02 96       	adiw	r24, 0x02	; 2
    2d94:	0e 94 fb 15 	call	0x2bf6	; 0x2bf6 <I2C_0_set_buffer>
    2d98:	60 e0       	ldi	r22, 0x00	; 0
    2d9a:	70 e0       	ldi	r23, 0x00	; 0
    2d9c:	89 ee       	ldi	r24, 0xE9	; 233
    2d9e:	96 e1       	ldi	r25, 0x16	; 22
    2da0:	0e 94 89 15 	call	0x2b12	; 0x2b12 <I2C_0_set_address_nack_callback>
    2da4:	0e 94 21 16 	call	0x2c42	; 0x2c42 <I2C_0_master_write>
    2da8:	0e 94 d3 15 	call	0x2ba6	; 0x2ba6 <I2C_0_close>
    2dac:	81 30       	cpi	r24, 0x01	; 1
    2dae:	e1 f3       	breq	.-8      	; 0x2da8 <I2C_0_read1ByteRegister+0x56>
    2db0:	88 23       	and	r24, r24
    2db2:	31 f0       	breq	.+12     	; 0x2dc0 <I2C_0_read1ByteRegister+0x6e>
    2db4:	81 e0       	ldi	r24, 0x01	; 1
    2db6:	e8 1a       	sub	r14, r24
    2db8:	f1 08       	sbc	r15, r1
    2dba:	e1 14       	cp	r14, r1
    2dbc:	f1 04       	cpc	r15, r1
    2dbe:	d1 f6       	brne	.-76     	; 0x2d74 <I2C_0_read1ByteRegister+0x22>
    2dc0:	89 81       	ldd	r24, Y+1	; 0x01
    2dc2:	0f 90       	pop	r0
    2dc4:	0f 90       	pop	r0
    2dc6:	df 91       	pop	r29
    2dc8:	cf 91       	pop	r28
    2dca:	1f 91       	pop	r17
    2dcc:	ff 90       	pop	r15
    2dce:	ef 90       	pop	r14
    2dd0:	08 95       	ret

00002dd2 <i2c_cb_restart_write>:
    2dd2:	83 e0       	ldi	r24, 0x03	; 3
    2dd4:	08 95       	ret

00002dd6 <Cell_Desplay>:
//=================================================================================================
#include <loadcell.h>

//=================================================================================================
void Cell_Desplay(void)								// Ž°úŽďúžÖÄ Ž¨īÍ≤Ć ŪĎúžčú
{
    2dd6:	8f 92       	push	r8
    2dd8:	9f 92       	push	r9
    2dda:	af 92       	push	r10
    2ddc:	bf 92       	push	r11
    2dde:	ef 92       	push	r14
    2de0:	ff 92       	push	r15
    2de2:	0f 93       	push	r16
    2de4:	1f 93       	push	r17
    2de6:	cf 93       	push	r28
    2de8:	df 93       	push	r29
	Weight_10000 = CELL.Value / 10000;					// žł°ž†ēŽ¨īÍ≤Ć 100.00žĚė žěźŽ¶¨ 100.00kg
    2dea:	ca e5       	ldi	r28, 0x5A	; 90
    2dec:	db e4       	ldi	r29, 0x4B	; 75
    2dee:	69 81       	ldd	r22, Y+1	; 0x01
    2df0:	7a 81       	ldd	r23, Y+2	; 0x02
    2df2:	8b 81       	ldd	r24, Y+3	; 0x03
    2df4:	9c 81       	ldd	r25, Y+4	; 0x04
    2df6:	0f 2e       	mov	r0, r31
    2df8:	f0 e1       	ldi	r31, 0x10	; 16
    2dfa:	8f 2e       	mov	r8, r31
    2dfc:	f7 e2       	ldi	r31, 0x27	; 39
    2dfe:	9f 2e       	mov	r9, r31
    2e00:	a1 2c       	mov	r10, r1
    2e02:	b1 2c       	mov	r11, r1
    2e04:	f0 2d       	mov	r31, r0
    2e06:	a5 01       	movw	r20, r10
    2e08:	94 01       	movw	r18, r8
    2e0a:	0e 94 87 38 	call	0x710e	; 0x710e <__divmodsi4>
    2e0e:	e2 2e       	mov	r14, r18
    2e10:	20 93 ae 41 	sts	0x41AE, r18	; 0x8041ae <Weight_10000>
	Weight_1000  = CELL.Value % 10000 / 1000;				// žł°ž†ēŽ¨īÍ≤Ć  10.00žĚė žěźŽ¶¨  10.00kg
    2e14:	69 81       	ldd	r22, Y+1	; 0x01
    2e16:	7a 81       	ldd	r23, Y+2	; 0x02
    2e18:	8b 81       	ldd	r24, Y+3	; 0x03
    2e1a:	9c 81       	ldd	r25, Y+4	; 0x04
    2e1c:	a5 01       	movw	r20, r10
    2e1e:	94 01       	movw	r18, r8
    2e20:	0e 94 87 38 	call	0x710e	; 0x710e <__divmodsi4>
    2e24:	0f 2e       	mov	r0, r31
    2e26:	f8 ee       	ldi	r31, 0xE8	; 232
    2e28:	8f 2e       	mov	r8, r31
    2e2a:	f3 e0       	ldi	r31, 0x03	; 3
    2e2c:	9f 2e       	mov	r9, r31
    2e2e:	a1 2c       	mov	r10, r1
    2e30:	b1 2c       	mov	r11, r1
    2e32:	f0 2d       	mov	r31, r0
    2e34:	a5 01       	movw	r20, r10
    2e36:	94 01       	movw	r18, r8
    2e38:	0e 94 87 38 	call	0x710e	; 0x710e <__divmodsi4>
    2e3c:	f2 2e       	mov	r15, r18
    2e3e:	20 93 bd 4b 	sts	0x4BBD, r18	; 0x804bbd <Weight_1000>
	Weight_100   = CELL.Value % 1000 / 100;					// žł°ž†ēŽ¨īÍ≤Ć   1.00žĚė žěźŽ¶¨   1.00kg
    2e42:	69 81       	ldd	r22, Y+1	; 0x01
    2e44:	7a 81       	ldd	r23, Y+2	; 0x02
    2e46:	8b 81       	ldd	r24, Y+3	; 0x03
    2e48:	9c 81       	ldd	r25, Y+4	; 0x04
    2e4a:	a5 01       	movw	r20, r10
    2e4c:	94 01       	movw	r18, r8
    2e4e:	0e 94 87 38 	call	0x710e	; 0x710e <__divmodsi4>
    2e52:	0f 2e       	mov	r0, r31
    2e54:	f4 e6       	ldi	r31, 0x64	; 100
    2e56:	8f 2e       	mov	r8, r31
    2e58:	91 2c       	mov	r9, r1
    2e5a:	a1 2c       	mov	r10, r1
    2e5c:	b1 2c       	mov	r11, r1
    2e5e:	f0 2d       	mov	r31, r0
    2e60:	a5 01       	movw	r20, r10
    2e62:	94 01       	movw	r18, r8
    2e64:	0e 94 87 38 	call	0x710e	; 0x710e <__divmodsi4>
    2e68:	02 2f       	mov	r16, r18
    2e6a:	20 93 af 4b 	sts	0x4BAF, r18	; 0x804baf <Weight_100>
	Weight_10    = CELL.Value % 100 / 10;					// žł°ž†ēŽ¨īÍ≤Ć   0.10žĚė žěźŽ¶¨   0.10Kg
    2e6e:	69 81       	ldd	r22, Y+1	; 0x01
    2e70:	7a 81       	ldd	r23, Y+2	; 0x02
    2e72:	8b 81       	ldd	r24, Y+3	; 0x03
    2e74:	9c 81       	ldd	r25, Y+4	; 0x04
    2e76:	a5 01       	movw	r20, r10
    2e78:	94 01       	movw	r18, r8
    2e7a:	0e 94 87 38 	call	0x710e	; 0x710e <__divmodsi4>
    2e7e:	0f 2e       	mov	r0, r31
    2e80:	fa e0       	ldi	r31, 0x0A	; 10
    2e82:	8f 2e       	mov	r8, r31
    2e84:	91 2c       	mov	r9, r1
    2e86:	a1 2c       	mov	r10, r1
    2e88:	b1 2c       	mov	r11, r1
    2e8a:	f0 2d       	mov	r31, r0
    2e8c:	a5 01       	movw	r20, r10
    2e8e:	94 01       	movw	r18, r8
    2e90:	0e 94 87 38 	call	0x710e	; 0x710e <__divmodsi4>
    2e94:	12 2f       	mov	r17, r18
    2e96:	20 93 87 4b 	sts	0x4B87, r18	; 0x804b87 <Weight_10>
	Weight_1     = CELL.Value % 10 / 1;					// žł°ž†ēŽ¨īÍ≤Ć   0.01žĚė žěźŽ¶¨   0.01Kg
    2e9a:	69 81       	ldd	r22, Y+1	; 0x01
    2e9c:	7a 81       	ldd	r23, Y+2	; 0x02
    2e9e:	8b 81       	ldd	r24, Y+3	; 0x03
    2ea0:	9c 81       	ldd	r25, Y+4	; 0x04
    2ea2:	a5 01       	movw	r20, r10
    2ea4:	94 01       	movw	r18, r8
    2ea6:	0e 94 87 38 	call	0x710e	; 0x710e <__divmodsi4>
    2eaa:	60 93 a4 4b 	sts	0x4BA4, r22	; 0x804ba4 <Weight_1>

	if(CELL.Value > 10000)							// žł°ž†ēŽ¨īÍ≤Ć 100Kg Ž≥īŽč§ ŪĀ¨Ž©ī
    2eae:	89 81       	ldd	r24, Y+1	; 0x01
    2eb0:	9a 81       	ldd	r25, Y+2	; 0x02
    2eb2:	ab 81       	ldd	r26, Y+3	; 0x03
    2eb4:	bc 81       	ldd	r27, Y+4	; 0x04
    2eb6:	81 31       	cpi	r24, 0x11	; 17
    2eb8:	97 42       	sbci	r25, 0x27	; 39
    2eba:	a1 05       	cpc	r26, r1
    2ebc:	b1 05       	cpc	r27, r1
    2ebe:	14 f1       	brlt	.+68     	; 0x2f04 <Cell_Desplay+0x12e>
	{
		DIGIT[0][3] = fnd_tbl[Weight_10000];				// žł°ž†ēŽ¨īÍ≤Ć 100.00žĚė žěźŽ¶¨
    2ec0:	ee 2d       	mov	r30, r14
    2ec2:	f0 e0       	ldi	r31, 0x00	; 0
    2ec4:	e9 5b       	subi	r30, 0xB9	; 185
    2ec6:	fe 4b       	sbci	r31, 0xBE	; 190
    2ec8:	80 81       	ld	r24, Z
    2eca:	ad e7       	ldi	r26, 0x7D	; 125
    2ecc:	b1 e4       	ldi	r27, 0x41	; 65
    2ece:	13 96       	adiw	r26, 0x03	; 3
    2ed0:	8c 93       	st	X, r24
    2ed2:	13 97       	sbiw	r26, 0x03	; 3
		DIGIT[0][2] = fnd_tbl[Weight_1000];				// žł°ž†ēŽ¨īÍ≤Ć  10.00žĚė žěźŽ¶¨
    2ed4:	ef 2d       	mov	r30, r15
    2ed6:	f0 e0       	ldi	r31, 0x00	; 0
    2ed8:	e9 5b       	subi	r30, 0xB9	; 185
    2eda:	fe 4b       	sbci	r31, 0xBE	; 190
    2edc:	80 81       	ld	r24, Z
    2ede:	12 96       	adiw	r26, 0x02	; 2
    2ee0:	8c 93       	st	X, r24
    2ee2:	12 97       	sbiw	r26, 0x02	; 2
		DIGIT[0][1] = fnd_tbl[Weight_100]+FND_Point;			// žł°ž†ēŽ¨īÍ≤Ć   1.00žĚė žěźŽ¶¨
    2ee4:	e0 2f       	mov	r30, r16
    2ee6:	f0 e0       	ldi	r31, 0x00	; 0
    2ee8:	e9 5b       	subi	r30, 0xB9	; 185
    2eea:	fe 4b       	sbci	r31, 0xBE	; 190
    2eec:	80 81       	ld	r24, Z
    2eee:	8f 5f       	subi	r24, 0xFF	; 255
    2ef0:	11 96       	adiw	r26, 0x01	; 1
    2ef2:	8c 93       	st	X, r24
    2ef4:	11 97       	sbiw	r26, 0x01	; 1
		DIGIT[0][0] = fnd_tbl[Weight_10];				// žł°ž†ēŽ¨īÍ≤Ć   0.10žĚė žěźŽ¶¨
    2ef6:	e1 2f       	mov	r30, r17
    2ef8:	f0 e0       	ldi	r31, 0x00	; 0
    2efa:	e9 5b       	subi	r30, 0xB9	; 185
    2efc:	fe 4b       	sbci	r31, 0xBE	; 190
    2efe:	80 81       	ld	r24, Z
    2f00:	8c 93       	st	X, r24
    2f02:	58 c0       	rjmp	.+176    	; 0x2fb4 <Cell_Desplay+0x1de>
	}
	else if(CELL.Value > 1000)						// žł°ž†ēŽ¨īÍ≤Ć 10Kg Ž≥īŽč§ ŪĀ¨Ž©ī
    2f04:	80 91 5b 4b 	lds	r24, 0x4B5B	; 0x804b5b <CELL+0x1>
    2f08:	90 91 5c 4b 	lds	r25, 0x4B5C	; 0x804b5c <CELL+0x2>
    2f0c:	a0 91 5d 4b 	lds	r26, 0x4B5D	; 0x804b5d <CELL+0x3>
    2f10:	b0 91 5e 4b 	lds	r27, 0x4B5E	; 0x804b5e <CELL+0x4>
    2f14:	89 3e       	cpi	r24, 0xE9	; 233
    2f16:	93 40       	sbci	r25, 0x03	; 3
    2f18:	a1 05       	cpc	r26, r1
    2f1a:	b1 05       	cpc	r27, r1
    2f1c:	14 f1       	brlt	.+68     	; 0x2f62 <Cell_Desplay+0x18c>
	{
		DIGIT[0][3] = fnd_tbl[Weight_1000];				// žł°ž†ēŽ¨īÍ≤Ć 10.00žĚė žěźŽ¶¨
    2f1e:	ef 2d       	mov	r30, r15
    2f20:	f0 e0       	ldi	r31, 0x00	; 0
    2f22:	e9 5b       	subi	r30, 0xB9	; 185
    2f24:	fe 4b       	sbci	r31, 0xBE	; 190
    2f26:	80 81       	ld	r24, Z
    2f28:	ad e7       	ldi	r26, 0x7D	; 125
    2f2a:	b1 e4       	ldi	r27, 0x41	; 65
    2f2c:	13 96       	adiw	r26, 0x03	; 3
    2f2e:	8c 93       	st	X, r24
    2f30:	13 97       	sbiw	r26, 0x03	; 3
		DIGIT[0][2] = fnd_tbl[Weight_100]+FND_Point;			// žł°ž†ēŽ¨īÍ≤Ć  1.00žĚė žěźŽ¶¨
    2f32:	e0 2f       	mov	r30, r16
    2f34:	f0 e0       	ldi	r31, 0x00	; 0
    2f36:	e9 5b       	subi	r30, 0xB9	; 185
    2f38:	fe 4b       	sbci	r31, 0xBE	; 190
    2f3a:	80 81       	ld	r24, Z
    2f3c:	8f 5f       	subi	r24, 0xFF	; 255
    2f3e:	12 96       	adiw	r26, 0x02	; 2
    2f40:	8c 93       	st	X, r24
    2f42:	12 97       	sbiw	r26, 0x02	; 2
		DIGIT[0][1] = fnd_tbl[Weight_10];				// žł°ž†ēŽ¨īÍ≤Ć  0.10žĚė žěźŽ¶¨
    2f44:	e1 2f       	mov	r30, r17
    2f46:	f0 e0       	ldi	r31, 0x00	; 0
    2f48:	e9 5b       	subi	r30, 0xB9	; 185
    2f4a:	fe 4b       	sbci	r31, 0xBE	; 190
    2f4c:	80 81       	ld	r24, Z
    2f4e:	11 96       	adiw	r26, 0x01	; 1
    2f50:	8c 93       	st	X, r24
    2f52:	11 97       	sbiw	r26, 0x01	; 1
		DIGIT[0][0] = fnd_tbl[Weight_1];				// žł°ž†ēŽ¨īÍ≤Ć  0.01žĚė žěźŽ¶¨
    2f54:	e6 2f       	mov	r30, r22
    2f56:	f0 e0       	ldi	r31, 0x00	; 0
    2f58:	e9 5b       	subi	r30, 0xB9	; 185
    2f5a:	fe 4b       	sbci	r31, 0xBE	; 190
    2f5c:	80 81       	ld	r24, Z
    2f5e:	8c 93       	st	X, r24
    2f60:	29 c0       	rjmp	.+82     	; 0x2fb4 <Cell_Desplay+0x1de>
	}
	else if(CELL.Value < 1000)						// žł°ž†ēŽ¨īÍ≤Ć 10Kg Ž≥īŽč§ žěĎžúľŽ©ī
    2f62:	80 91 5b 4b 	lds	r24, 0x4B5B	; 0x804b5b <CELL+0x1>
    2f66:	90 91 5c 4b 	lds	r25, 0x4B5C	; 0x804b5c <CELL+0x2>
    2f6a:	a0 91 5d 4b 	lds	r26, 0x4B5D	; 0x804b5d <CELL+0x3>
    2f6e:	b0 91 5e 4b 	lds	r27, 0x4B5E	; 0x804b5e <CELL+0x4>
    2f72:	88 3e       	cpi	r24, 0xE8	; 232
    2f74:	93 40       	sbci	r25, 0x03	; 3
    2f76:	a1 05       	cpc	r26, r1
    2f78:	b1 05       	cpc	r27, r1
    2f7a:	e4 f4       	brge	.+56     	; 0x2fb4 <Cell_Desplay+0x1de>
	{
		DIGIT[0][3] = FND_OFF;						// žł°ž†ēŽ¨īÍ≤Ć 10.00žĚė žěźŽ¶¨ OFF
    2f7c:	ad e7       	ldi	r26, 0x7D	; 125
    2f7e:	b1 e4       	ldi	r27, 0x41	; 65
    2f80:	13 96       	adiw	r26, 0x03	; 3
    2f82:	1c 92       	st	X, r1
    2f84:	13 97       	sbiw	r26, 0x03	; 3
		DIGIT[0][2] = fnd_tbl[Weight_100]+FND_Point;			// žł°ž†ēŽ¨īÍ≤Ć  1.00žĚė žěźŽ¶¨
    2f86:	e0 2f       	mov	r30, r16
    2f88:	f0 e0       	ldi	r31, 0x00	; 0
    2f8a:	e9 5b       	subi	r30, 0xB9	; 185
    2f8c:	fe 4b       	sbci	r31, 0xBE	; 190
    2f8e:	80 81       	ld	r24, Z
    2f90:	8f 5f       	subi	r24, 0xFF	; 255
    2f92:	12 96       	adiw	r26, 0x02	; 2
    2f94:	8c 93       	st	X, r24
    2f96:	12 97       	sbiw	r26, 0x02	; 2
		DIGIT[0][1] = fnd_tbl[Weight_10];				// žł°ž†ēŽ¨īÍ≤Ć  0.10žĚė žěźŽ¶¨
    2f98:	e1 2f       	mov	r30, r17
    2f9a:	f0 e0       	ldi	r31, 0x00	; 0
    2f9c:	e9 5b       	subi	r30, 0xB9	; 185
    2f9e:	fe 4b       	sbci	r31, 0xBE	; 190
    2fa0:	80 81       	ld	r24, Z
    2fa2:	11 96       	adiw	r26, 0x01	; 1
    2fa4:	8c 93       	st	X, r24
    2fa6:	11 97       	sbiw	r26, 0x01	; 1
		DIGIT[0][0] = fnd_tbl[Weight_1];				// žł°ž†ēŽ¨īÍ≤Ć  0.01žĚė žěźŽ¶¨
    2fa8:	e6 2f       	mov	r30, r22
    2faa:	f0 e0       	ldi	r31, 0x00	; 0
    2fac:	e9 5b       	subi	r30, 0xB9	; 185
    2fae:	fe 4b       	sbci	r31, 0xBE	; 190
    2fb0:	80 81       	ld	r24, Z
    2fb2:	8c 93       	st	X, r24
	}
}
    2fb4:	df 91       	pop	r29
    2fb6:	cf 91       	pop	r28
    2fb8:	1f 91       	pop	r17
    2fba:	0f 91       	pop	r16
    2fbc:	ff 90       	pop	r15
    2fbe:	ef 90       	pop	r14
    2fc0:	bf 90       	pop	r11
    2fc2:	af 90       	pop	r10
    2fc4:	9f 90       	pop	r9
    2fc6:	8f 90       	pop	r8
    2fc8:	08 95       	ret

00002fca <Load_Cell_Read>:

//=================================================================================================
int32_t Load_Cell_Read(void)							// Ž°úŽďúžÖÄ Data žĚĹÍłį, HX711 ž†úžĖī
{
    2fca:	cf 92       	push	r12
    2fcc:	df 92       	push	r13
    2fce:	ef 92       	push	r14
    2fd0:	ff 92       	push	r15
	int32_t Value = 0;							// Data ž†Äžě•žö© Ž≥Äžąė žīąÍłįŪôĒ

	SCK_LOW_1;								// HX711 SCk LOW
    2fd2:	e4 e4       	ldi	r30, 0x44	; 68
    2fd4:	f4 e0       	ldi	r31, 0x04	; 4
    2fd6:	80 81       	ld	r24, Z
    2fd8:	8b 7f       	andi	r24, 0xFB	; 251
    2fda:	80 83       	st	Z, r24
	while(DO1);								// HX711 SDAÍįÄ HIGH žĚīŽ©ī ŽĆÄÍłį
    2fdc:	80 91 48 04 	lds	r24, 0x0448	; 0x800448 <__TEXT_REGION_LENGTH__+0x7e0448>
    2fe0:	83 ff       	sbrs	r24, 3
    2fe2:	fc cf       	rjmp	.-8      	; 0x2fdc <Load_Cell_Read+0x12>
    2fe4:	90 e0       	ldi	r25, 0x00	; 0
    2fe6:	40 e0       	ldi	r20, 0x00	; 0
    2fe8:	50 e0       	ldi	r21, 0x00	; 0
    2fea:	ba 01       	movw	r22, r20
    2fec:	1d c0       	rjmp	.+58     	; 0x3028 <Load_Cell_Read+0x5e>
	for(uint8_t i = 0; i < 24; i++)						// 24bit Data ŽßĆŪĀľ ŽįėŽ≥Ķ
	{
		Value = Value << 1;						// Data 1žěźŽ¶¨ žČ¨ŪĒĄŪäł
    2fee:	44 0f       	add	r20, r20
    2ff0:	55 1f       	adc	r21, r21
    2ff2:	66 1f       	adc	r22, r22
    2ff4:	77 1f       	adc	r23, r23
		SCK_HIGH_1;							// HX711 SCk HIGH
    2ff6:	e4 e4       	ldi	r30, 0x44	; 68
    2ff8:	f4 e0       	ldi	r31, 0x04	; 4
    2ffa:	80 81       	ld	r24, Z
    2ffc:	84 60       	ori	r24, 0x04	; 4
    2ffe:	80 83       	st	Z, r24
    3000:	22 e6       	ldi	r18, 0x62	; 98
    3002:	2a 95       	dec	r18
    3004:	f1 f7       	brne	.-4      	; 0x3002 <Load_Cell_Read+0x38>
    3006:	00 00       	nop
		_delay_us(20);
		SCK_LOW_1;							// HX711 SCk LOW
    3008:	80 81       	ld	r24, Z
    300a:	8b 7f       	andi	r24, 0xFB	; 251
    300c:	80 83       	st	Z, r24
    300e:	82 e6       	ldi	r24, 0x62	; 98
    3010:	8a 95       	dec	r24
    3012:	f1 f7       	brne	.-4      	; 0x3010 <Load_Cell_Read+0x46>
    3014:	00 00       	nop
		_delay_us(20);
		if(DO1) {Value++;}						// HX711 SDAÍįÄ HIGH žĚīŽ©ī Bit Data ŽćĒŪēėÍłį
    3016:	80 91 48 04 	lds	r24, 0x0448	; 0x800448 <__TEXT_REGION_LENGTH__+0x7e0448>
    301a:	83 fd       	sbrc	r24, 3
    301c:	04 c0       	rjmp	.+8      	; 0x3026 <Load_Cell_Read+0x5c>
    301e:	4f 5f       	subi	r20, 0xFF	; 255
    3020:	5f 4f       	sbci	r21, 0xFF	; 255
    3022:	6f 4f       	sbci	r22, 0xFF	; 255
    3024:	7f 4f       	sbci	r23, 0xFF	; 255
{
	int32_t Value = 0;							// Data ž†Äžě•žö© Ž≥Äžąė žīąÍłįŪôĒ

	SCK_LOW_1;								// HX711 SCk LOW
	while(DO1);								// HX711 SDAÍįÄ HIGH žĚīŽ©ī ŽĆÄÍłį
	for(uint8_t i = 0; i < 24; i++)						// 24bit Data ŽßĆŪĀľ ŽįėŽ≥Ķ
    3026:	9f 5f       	subi	r25, 0xFF	; 255
    3028:	98 31       	cpi	r25, 0x18	; 24
    302a:	08 f3       	brcs	.-62     	; 0x2fee <Load_Cell_Read+0x24>
		_delay_us(20);
		SCK_LOW_1;							// HX711 SCk LOW
		_delay_us(20);
		if(DO1) {Value++;}						// HX711 SDAÍįÄ HIGH žĚīŽ©ī Bit Data ŽćĒŪēėÍłį
	}
	SCK_HIGH_1;								// HX711 SCk HIGH
    302c:	e4 e4       	ldi	r30, 0x44	; 68
    302e:	f4 e0       	ldi	r31, 0x04	; 4
    3030:	80 81       	ld	r24, Z
    3032:	84 60       	ori	r24, 0x04	; 4
    3034:	80 83       	st	Z, r24
    3036:	92 e6       	ldi	r25, 0x62	; 98
    3038:	9a 95       	dec	r25
    303a:	f1 f7       	brne	.-4      	; 0x3038 <Load_Cell_Read+0x6e>
    303c:	00 00       	nop
	_delay_us(20);
	SCK_LOW_1;								// HX711 SCk LOW
    303e:	80 81       	ld	r24, Z
    3040:	8b 7f       	andi	r24, 0xFB	; 251
    3042:	80 83       	st	Z, r24
	#else
		//round up by default
		__ticks_dc = (uint32_t)(ceil(fabs(__tmp)));
	#endif

	__builtin_avr_delay_cycles(__ticks_dc);
    3044:	2f ef       	ldi	r18, 0xFF	; 255
    3046:	8f e7       	ldi	r24, 0x7F	; 127
    3048:	94 e0       	ldi	r25, 0x04	; 4
    304a:	21 50       	subi	r18, 0x01	; 1
    304c:	80 40       	sbci	r24, 0x00	; 0
    304e:	90 40       	sbci	r25, 0x00	; 0
    3050:	e1 f7       	brne	.-8      	; 0x304a <Load_Cell_Read+0x80>
    3052:	00 c0       	rjmp	.+0      	; 0x3054 <Load_Cell_Read+0x8a>
    3054:	00 00       	nop
	_delay_ms(100);
	Value = Value ^ 0x400000;						// ž†Ąž≤ī Data žĚė 2žĚė Ž≥īžąė Íįí ÍĶ¨ŪēėÍłį
    3056:	cb 01       	movw	r24, r22
    3058:	ba 01       	movw	r22, r20
    305a:	20 e4       	ldi	r18, 0x40	; 64
    305c:	82 27       	eor	r24, r18
	if(Value > 0x7FF000) {Value = 0;}					// ž†Ąž≤ī Data ÍįÄ žÉĀŪēúÍįí žĚīžÉĀžĚīŽ©ī Data žīąÍłįŪôĒ
    305e:	61 30       	cpi	r22, 0x01	; 1
    3060:	20 ef       	ldi	r18, 0xF0	; 240
    3062:	72 07       	cpc	r23, r18
    3064:	2f e7       	ldi	r18, 0x7F	; 127
    3066:	82 07       	cpc	r24, r18
    3068:	91 05       	cpc	r25, r1
    306a:	1c f0       	brlt	.+6      	; 0x3072 <Load_Cell_Read+0xa8>
    306c:	60 e0       	ldi	r22, 0x00	; 0
    306e:	70 e0       	ldi	r23, 0x00	; 0
    3070:	cb 01       	movw	r24, r22
	Value = Value / 1000;							// ŽāģžĚÄ Data Íįí žßÄžöįÍłį
    3072:	28 ee       	ldi	r18, 0xE8	; 232
    3074:	33 e0       	ldi	r19, 0x03	; 3
    3076:	40 e0       	ldi	r20, 0x00	; 0
    3078:	50 e0       	ldi	r21, 0x00	; 0
    307a:	0e 94 87 38 	call	0x710e	; 0x710e <__divmodsi4>
	Value = Value * 1000;							// ŽāģžĚÄ Data Íįí žßÄžöįÍłį
    307e:	a8 ee       	ldi	r26, 0xE8	; 232
    3080:	b3 e0       	ldi	r27, 0x03	; 3
    3082:	0e 94 be 38 	call	0x717c	; 0x717c <__muluhisi3>
	Value = Value / CELL.Proportion;					// Data / ŽĻĄžú® = Ž¨īÍ≤Ć
    3086:	c0 90 6b 4b 	lds	r12, 0x4B6B	; 0x804b6b <CELL+0x11>
    308a:	d0 90 6c 4b 	lds	r13, 0x4B6C	; 0x804b6c <CELL+0x12>
    308e:	e0 90 6d 4b 	lds	r14, 0x4B6D	; 0x804b6d <CELL+0x13>
    3092:	f0 90 6e 4b 	lds	r15, 0x4B6E	; 0x804b6e <CELL+0x14>
    3096:	0e 94 8f 33 	call	0x671e	; 0x671e <__floatsisf>
    309a:	a7 01       	movw	r20, r14
    309c:	96 01       	movw	r18, r12
    309e:	0e 94 e5 32 	call	0x65ca	; 0x65ca <__divsf3>
    30a2:	0e 94 57 33 	call	0x66ae	; 0x66ae <__fixsfsi>
	return(Value);								// Ž¶¨ŪĄī Ž¨īÍ≤Ć Data
}
    30a6:	ff 90       	pop	r15
    30a8:	ef 90       	pop	r14
    30aa:	df 90       	pop	r13
    30ac:	cf 90       	pop	r12
    30ae:	08 95       	ret

000030b0 <Cell_Zero_Set>:
	return(ValSum);								// Ž¶¨ŪĄī ValSum
}

//=================================================================================================
void Cell_Zero_Set(void)							// Ž°úŽďúžÖÄ 0 Íįí žįĺÍłį
{
    30b0:	0f 93       	push	r16
    30b2:	1f 93       	push	r17
	int32_t Value = 0;							// žł°ž†ē Íįí Ž≥Äžąė žīąÍłįŪôĒ
	int32_t Value_Sum = 0;							// žł°ž†ē Íįí Í≥Ąžāį Ž≥Äžąė žīąÍłįŪôĒ

	Value = Load_Cell_Read();						// Ž°úŽďúžÖÄ Data žĚĹÍłį
    30b4:	0e 94 e5 17 	call	0x2fca	; 0x2fca <Load_Cell_Read>
    30b8:	8b 01       	movw	r16, r22
    30ba:	9c 01       	movw	r18, r24
	do{
		Value_Sum = CELL.OFF_Set - Value;				// Ž°úŽďúžÖÄ OFF_Set žīąÍłįÍįí(20Kg) - Data = Value_Sum
    30bc:	80 91 67 4b 	lds	r24, 0x4B67	; 0x804b67 <CELL+0xd>
    30c0:	90 91 68 4b 	lds	r25, 0x4B68	; 0x804b68 <CELL+0xe>
    30c4:	a0 91 69 4b 	lds	r26, 0x4B69	; 0x804b69 <CELL+0xf>
    30c8:	b0 91 6a 4b 	lds	r27, 0x4B6A	; 0x804b6a <CELL+0x10>
    30cc:	80 1b       	sub	r24, r16
    30ce:	91 0b       	sbc	r25, r17
    30d0:	a2 0b       	sbc	r26, r18
    30d2:	b3 0b       	sbc	r27, r19
		if     (Value_Sum > 0) {CELL.OFF_Set = CELL.OFF_Set - Value_Sum;}	// Value_Sum ÍįížĚī 0 Ž≥īŽč§   ŪĀ¨Ž©ī OFF_Set - Value_Sum ŪēīžĄú OFF_Setžóź ž†Äžě•
    30d4:	18 16       	cp	r1, r24
    30d6:	19 06       	cpc	r1, r25
    30d8:	1a 06       	cpc	r1, r26
    30da:	1b 06       	cpc	r1, r27
    30dc:	7c f4       	brge	.+30     	; 0x30fc <Cell_Zero_Set+0x4c>
    30de:	ea e5       	ldi	r30, 0x5A	; 90
    30e0:	fb e4       	ldi	r31, 0x4B	; 75
    30e2:	45 85       	ldd	r20, Z+13	; 0x0d
    30e4:	56 85       	ldd	r21, Z+14	; 0x0e
    30e6:	67 85       	ldd	r22, Z+15	; 0x0f
    30e8:	70 89       	ldd	r23, Z+16	; 0x10
    30ea:	48 1b       	sub	r20, r24
    30ec:	59 0b       	sbc	r21, r25
    30ee:	6a 0b       	sbc	r22, r26
    30f0:	7b 0b       	sbc	r23, r27
    30f2:	45 87       	std	Z+13, r20	; 0x0d
    30f4:	56 87       	std	Z+14, r21	; 0x0e
    30f6:	67 87       	std	Z+15, r22	; 0x0f
    30f8:	70 8b       	std	Z+16, r23	; 0x10
    30fa:	10 c0       	rjmp	.+32     	; 0x311c <Cell_Zero_Set+0x6c>
		else if(Value_Sum < 0) {CELL.OFF_Set = CELL.OFF_Set + Value_Sum;}	// Value_Sum ÍįížĚī 0 Ž≥īŽč§ žěĎžúľŽ©ī OFF_Set + Value_Sum ŪēīžĄú OFF_Setžóź ž†Äžě•
    30fc:	bb 23       	and	r27, r27
    30fe:	74 f4       	brge	.+28     	; 0x311c <Cell_Zero_Set+0x6c>
    3100:	ea e5       	ldi	r30, 0x5A	; 90
    3102:	fb e4       	ldi	r31, 0x4B	; 75
    3104:	45 85       	ldd	r20, Z+13	; 0x0d
    3106:	56 85       	ldd	r21, Z+14	; 0x0e
    3108:	67 85       	ldd	r22, Z+15	; 0x0f
    310a:	70 89       	ldd	r23, Z+16	; 0x10
    310c:	48 0f       	add	r20, r24
    310e:	59 1f       	adc	r21, r25
    3110:	6a 1f       	adc	r22, r26
    3112:	7b 1f       	adc	r23, r27
    3114:	45 87       	std	Z+13, r20	; 0x0d
    3116:	56 87       	std	Z+14, r21	; 0x0e
    3118:	67 87       	std	Z+15, r22	; 0x0f
    311a:	70 8b       	std	Z+16, r23	; 0x10
	}while(Value_Sum != 0);							// !Value_Sum žĚī 0 žĚľŽēĆÍĻĆžßÄ ŽįėŽ≥Ķ
    311c:	89 2b       	or	r24, r25
    311e:	8a 2b       	or	r24, r26
    3120:	8b 2b       	or	r24, r27
    3122:	61 f6       	brne	.-104    	; 0x30bc <Cell_Zero_Set+0xc>
	Beep(10);
    3124:	8a e0       	ldi	r24, 0x0A	; 10
    3126:	90 e0       	ldi	r25, 0x00	; 0
    3128:	0e 94 3b 04 	call	0x876	; 0x876 <Beep>
    312c:	26 e6       	ldi	r18, 0x66	; 102
    312e:	86 ee       	ldi	r24, 0xE6	; 230
    3130:	90 e0       	ldi	r25, 0x00	; 0
    3132:	21 50       	subi	r18, 0x01	; 1
    3134:	80 40       	sbci	r24, 0x00	; 0
    3136:	90 40       	sbci	r25, 0x00	; 0
    3138:	e1 f7       	brne	.-8      	; 0x3132 <Cell_Zero_Set+0x82>
	_delay_ms(20);
	wdt_reset();								// Reset WDT
    313a:	0e 94 17 0d 	call	0x1a2e	; 0x1a2e <wdt_reset>
}
    313e:	1f 91       	pop	r17
    3140:	0f 91       	pop	r16
    3142:	08 95       	ret

00003144 <Read_Load_Cell>:
	return(Value);								// Ž¶¨ŪĄī Ž¨īÍ≤Ć Data
}

//=================================================================================================
uint16_t Read_Load_Cell(void)							// Ž°úŽďúžÖÄ žł°ž†ēÍįí žĚĹÍłį
{
    3144:	4f 92       	push	r4
    3146:	5f 92       	push	r5
    3148:	6f 92       	push	r6
    314a:	7f 92       	push	r7
    314c:	8f 92       	push	r8
    314e:	9f 92       	push	r9
    3150:	af 92       	push	r10
    3152:	bf 92       	push	r11
    3154:	cf 92       	push	r12
    3156:	df 92       	push	r13
    3158:	ef 92       	push	r14
    315a:	ff 92       	push	r15
	int32_t Value = 0;							// žł°ž†ēÍįí ž†Äžě•žö© Ž≥Äžąė žīąÍłįŪôĒ
	int32_t ValSum = 0;							// OFF-Set Í≥ĄžāįÍįí ž†Äžě•žö© Ž≥Äžąė žīąÍłįŪôĒ
	uint8_t Set_cnt = 5;							// žīąÍłįŪôĒ žĻīžöīŪĄį
	uint32_t CAPA;								// Cell_Capa * 1000
	int32_t OFF_SET = CELL.OFF_Set;						// Ž°úŽďúžÖÄ OFF_Set(žěÖŽ†•ÍįížĚĄ 0Íįí žúľŽ°ú ŽßĆŽď§ÍłįžúĄŪēú Íįí)
    315c:	80 90 67 4b 	lds	r8, 0x4B67	; 0x804b67 <CELL+0xd>
    3160:	90 90 68 4b 	lds	r9, 0x4B68	; 0x804b68 <CELL+0xe>
    3164:	a0 90 69 4b 	lds	r10, 0x4B69	; 0x804b69 <CELL+0xf>
    3168:	b0 90 6a 4b 	lds	r11, 0x4B6A	; 0x804b6a <CELL+0x10>
//-------------------------------------------------------------------------------------------------
	Value = Load_Cell_Read();						// Ž°úŽďúžÖÄ žł°ž†ēÍįí žĚĹÍłį
    316c:	0e 94 e5 17 	call	0x2fca	; 0x2fca <Load_Cell_Read>
    3170:	2b 01       	movw	r4, r22
    3172:	3c 01       	movw	r6, r24
	CAPA = Cell_Capa * 1000;
    3174:	20 91 aa 4b 	lds	r18, 0x4BAA	; 0x804baa <Cell_Capa>
    3178:	30 91 ab 4b 	lds	r19, 0x4BAB	; 0x804bab <Cell_Capa+0x1>
    317c:	40 91 ac 4b 	lds	r20, 0x4BAC	; 0x804bac <Cell_Capa+0x2>
    3180:	50 91 ad 4b 	lds	r21, 0x4BAD	; 0x804bad <Cell_Capa+0x3>
    3184:	a8 ee       	ldi	r26, 0xE8	; 232
    3186:	b3 e0       	ldi	r27, 0x03	; 3
    3188:	0e 94 be 38 	call	0x717c	; 0x717c <__muluhisi3>
    318c:	6b 01       	movw	r12, r22
    318e:	7c 01       	movw	r14, r24
//-------------------------------------------------------------------------------------------------
	if(Value > 0)								// Ž¨īÍ≤Ć Data ÍįÄ žěąžúľŽ©ī
    3190:	14 14       	cp	r1, r4
    3192:	15 04       	cpc	r1, r5
    3194:	16 04       	cpc	r1, r6
    3196:	17 04       	cpc	r1, r7
    3198:	0c f0       	brlt	.+2      	; 0x319c <Read_Load_Cell+0x58>
    319a:	66 c0       	rjmp	.+204    	; 0x3268 <Read_Load_Cell+0x124>
	{
		ValSum = Value - CELL.OFF_Set;					// Ž¨īÍ≤Ć Data - OFF_Set
    319c:	80 91 67 4b 	lds	r24, 0x4B67	; 0x804b67 <CELL+0xd>
    31a0:	90 91 68 4b 	lds	r25, 0x4B68	; 0x804b68 <CELL+0xe>
    31a4:	a0 91 69 4b 	lds	r26, 0x4B69	; 0x804b69 <CELL+0xf>
    31a8:	b0 91 6a 4b 	lds	r27, 0x4B6A	; 0x804b6a <CELL+0x10>
    31ac:	a3 01       	movw	r20, r6
    31ae:	92 01       	movw	r18, r4
    31b0:	28 1b       	sub	r18, r24
    31b2:	39 0b       	sbc	r19, r25
    31b4:	4a 0b       	sbc	r20, r26
    31b6:	5b 0b       	sbc	r21, r27
    31b8:	ca 01       	movw	r24, r20
    31ba:	b9 01       	movw	r22, r18
// 				}
// 			}
// 			else {CELL.Old_ValSum = ValSum;}			// Old_ValSum žĚĄ ValSum Ž°ú ž†Äžě•
// 		}

		if(ValSum == 0)	{Value_Count = 0;}				// Value_Count žīąÍłįŪôĒ
    31bc:	11 f4       	brne	.+4      	; 0x31c2 <Read_Load_Cell+0x7e>
    31be:	10 92 70 4b 	sts	0x4B70, r1	; 0x804b70 <Value_Count>
//-------------------------------------------------------------------------------------------------
//		printf("ValSum %ld \r\n", ValSum);
 		if(ValSum < 0 || ValSum > 10000000)				// ValSum žĚī 0 Ž≥īŽč§ žěĎÍĪįŽāė 1Ton Ž≥īŽč§ ŪĀ¨Ž©ī žĶúÍłįŪôĒ žĻīžöīŪĄį 
    31c2:	61 38       	cpi	r22, 0x81	; 129
    31c4:	36 e9       	ldi	r19, 0x96	; 150
    31c6:	73 07       	cpc	r23, r19
    31c8:	38 e9       	ldi	r19, 0x98	; 152
    31ca:	83 07       	cpc	r24, r19
    31cc:	91 05       	cpc	r25, r1
    31ce:	c0 f0       	brcs	.+48     	; 0x3200 <Read_Load_Cell+0xbc>
		{
			Value_Count++;						// Value_Count ž¶ĚÍįÄ
    31d0:	80 91 70 4b 	lds	r24, 0x4B70	; 0x804b70 <Value_Count>
    31d4:	8f 5f       	subi	r24, 0xFF	; 255
    31d6:	80 93 70 4b 	sts	0x4B70, r24	; 0x804b70 <Value_Count>
			if(Value_Count > Set_cnt)				// Value_Count ÍįÄ žīąÍłįŪôĒ Íįí Ž≥īŽč§ ŪĀ¨Ž©ī
    31da:	86 30       	cpi	r24, 0x06	; 6
    31dc:	70 f0       	brcs	.+28     	; 0x31fa <Read_Load_Cell+0xb6>
			{
				Cell_Zero_Set();				// Ž°úŽďúžÖÄ 0 Íįí žįĺÍłį 2ŪöĆ ŽįėŽ≥Ķ
    31de:	0e 94 58 18 	call	0x30b0	; 0x30b0 <Cell_Zero_Set>
    31e2:	8f ef       	ldi	r24, 0xFF	; 255
    31e4:	9f e8       	ldi	r25, 0x8F	; 143
    31e6:	01 97       	sbiw	r24, 0x01	; 1
    31e8:	f1 f7       	brne	.-4      	; 0x31e6 <Read_Load_Cell+0xa2>
    31ea:	00 c0       	rjmp	.+0      	; 0x31ec <Read_Load_Cell+0xa8>
    31ec:	00 00       	nop
				_delay_ms(10);
				Cell_Zero_Set();
    31ee:	0e 94 58 18 	call	0x30b0	; 0x30b0 <Cell_Zero_Set>
			}
			ValSum = 0;						// ValSum žĚĄ 0žúľŽ°ú žīąÍłįŪôĒ
    31f2:	60 e0       	ldi	r22, 0x00	; 0
    31f4:	70 e0       	ldi	r23, 0x00	; 0
    31f6:	cb 01       	movw	r24, r22
    31f8:	03 c0       	rjmp	.+6      	; 0x3200 <Read_Load_Cell+0xbc>
    31fa:	60 e0       	ldi	r22, 0x00	; 0
    31fc:	70 e0       	ldi	r23, 0x00	; 0
    31fe:	cb 01       	movw	r24, r22
		}

 		if(ValSum > 0 && IN_Scales > ValSum)				// ValSum žĚī 0 ŪĀ¨Í≥† žěÖÍĶ¨ž≤īž§Ď Ž≥īŽč§ žěĎžúľŽ©ī
    3200:	16 16       	cp	r1, r22
    3202:	17 06       	cpc	r1, r23
    3204:	18 06       	cpc	r1, r24
    3206:	19 06       	cpc	r1, r25
    3208:	4c f5       	brge	.+82     	; 0x325c <Read_Load_Cell+0x118>
    320a:	40 90 41 4b 	lds	r4, 0x4B41	; 0x804b41 <IN_Scales>
    320e:	50 90 42 4b 	lds	r5, 0x4B42	; 0x804b42 <IN_Scales+0x1>
    3212:	05 2c       	mov	r0, r5
    3214:	00 0c       	add	r0, r0
    3216:	66 08       	sbc	r6, r6
    3218:	77 08       	sbc	r7, r7
    321a:	64 15       	cp	r22, r4
    321c:	75 05       	cpc	r23, r5
    321e:	86 05       	cpc	r24, r6
    3220:	97 05       	cpc	r25, r7
    3222:	e4 f4       	brge	.+56     	; 0x325c <Read_Load_Cell+0x118>
 		{
			Value_Count++;						// Value_Count ž¶ĚÍįÄ
    3224:	20 91 70 4b 	lds	r18, 0x4B70	; 0x804b70 <Value_Count>
    3228:	2f 5f       	subi	r18, 0xFF	; 255
    322a:	20 93 70 4b 	sts	0x4B70, r18	; 0x804b70 <Value_Count>
			if(Value_Count > Set_cnt)				// Value_Count ÍįÄ žīąÍłįŪôĒ Íįí Ž≥īŽč§ ŪĀ¨Ž©ī
    322e:	26 30       	cpi	r18, 0x06	; 6
    3230:	90 f0       	brcs	.+36     	; 0x3256 <Read_Load_Cell+0x112>
			{
	 			CELL.OFF_Set = OFF_SET + ValSum;				// OFF_Set + 25
    3232:	dc 01       	movw	r26, r24
    3234:	cb 01       	movw	r24, r22
    3236:	88 0d       	add	r24, r8
    3238:	99 1d       	adc	r25, r9
    323a:	aa 1d       	adc	r26, r10
    323c:	bb 1d       	adc	r27, r11
    323e:	80 93 67 4b 	sts	0x4B67, r24	; 0x804b67 <CELL+0xd>
    3242:	90 93 68 4b 	sts	0x4B68, r25	; 0x804b68 <CELL+0xe>
    3246:	a0 93 69 4b 	sts	0x4B69, r26	; 0x804b69 <CELL+0xf>
    324a:	b0 93 6a 4b 	sts	0x4B6A, r27	; 0x804b6a <CELL+0x10>
			}
			ValSum = 0;						// ValSum žĚĄ 0žúľŽ°ú žīąÍłįŪôĒ
    324e:	60 e0       	ldi	r22, 0x00	; 0
    3250:	70 e0       	ldi	r23, 0x00	; 0
    3252:	cb 01       	movw	r24, r22
    3254:	03 c0       	rjmp	.+6      	; 0x325c <Read_Load_Cell+0x118>
    3256:	60 e0       	ldi	r22, 0x00	; 0
    3258:	70 e0       	ldi	r23, 0x00	; 0
    325a:	cb 01       	movw	r24, r22
 		}

		if(ValSum > CAPA) {ValSum = 0;}					// ValSum žĚī CAPA(200Kg) Ž≥īŽč§ ŪĀ¨Ž©ī
    325c:	c6 16       	cp	r12, r22
    325e:	d7 06       	cpc	r13, r23
    3260:	e8 06       	cpc	r14, r24
    3262:	f9 06       	cpc	r15, r25
    3264:	28 f0       	brcs	.+10     	; 0x3270 <Read_Load_Cell+0x12c>
    3266:	07 c0       	rjmp	.+14     	; 0x3276 <Read_Load_Cell+0x132>

//=================================================================================================
uint16_t Read_Load_Cell(void)							// Ž°úŽďúžÖÄ žł°ž†ēÍįí žĚĹÍłį
{
	int32_t Value = 0;							// žł°ž†ēÍįí ž†Äžě•žö© Ž≥Äžąė žīąÍłįŪôĒ
	int32_t ValSum = 0;							// OFF-Set Í≥ĄžāįÍįí ž†Äžě•žö© Ž≥Äžąė žīąÍłįŪôĒ
    3268:	60 e0       	ldi	r22, 0x00	; 0
    326a:	70 e0       	ldi	r23, 0x00	; 0
    326c:	cb 01       	movw	r24, r22
    326e:	03 c0       	rjmp	.+6      	; 0x3276 <Read_Load_Cell+0x132>
	 			CELL.OFF_Set = OFF_SET + ValSum;				// OFF_Set + 25
			}
			ValSum = 0;						// ValSum žĚĄ 0žúľŽ°ú žīąÍłįŪôĒ
 		}

		if(ValSum > CAPA) {ValSum = 0;}					// ValSum žĚī CAPA(200Kg) Ž≥īŽč§ ŪĀ¨Ž©ī
    3270:	60 e0       	ldi	r22, 0x00	; 0
    3272:	70 e0       	ldi	r23, 0x00	; 0
    3274:	cb 01       	movw	r24, r22
	}
	ValSum = ValSum / 10;							// ValSum Ž•ľ 10žúľŽ°ú ŽāėŽąĒ
    3276:	2a e0       	ldi	r18, 0x0A	; 10
    3278:	30 e0       	ldi	r19, 0x00	; 0
    327a:	40 e0       	ldi	r20, 0x00	; 0
    327c:	50 e0       	ldi	r21, 0x00	; 0
    327e:	0e 94 87 38 	call	0x710e	; 0x710e <__divmodsi4>
	return(ValSum);								// Ž¶¨ŪĄī ValSum
}
    3282:	c9 01       	movw	r24, r18
    3284:	ff 90       	pop	r15
    3286:	ef 90       	pop	r14
    3288:	df 90       	pop	r13
    328a:	cf 90       	pop	r12
    328c:	bf 90       	pop	r11
    328e:	af 90       	pop	r10
    3290:	9f 90       	pop	r9
    3292:	8f 90       	pop	r8
    3294:	7f 90       	pop	r7
    3296:	6f 90       	pop	r6
    3298:	5f 90       	pop	r5
    329a:	4f 90       	pop	r4
    329c:	08 95       	ret

0000329e <IN_Scales_Set>:
}

//=================================================================================================
void IN_Scales_Set(void)							// IN_Scales žĄ§ž†ē
{
	DIGIT[2][0] = FND_OFF;							// Ž°úŽďúžÖÄ RO, žěÖÍĶ¨ž≤īž§Ď 1žĚė žěźŽ¶¨ žßÄžöįÍłį
    329e:	10 92 85 41 	sts	0x4185, r1	; 0x804185 <DIGIT+0x8>

	IN_Scales = ee_read_word(Cell_IN_S_Addr);				// Ž°úŽďúžÖÄ žĚīŽ©ī žěÖÍĶ¨ž≤īž§ĎÍįí Ž∂ąŽü¨žė§Íłį
    32a2:	88 e0       	ldi	r24, 0x08	; 8
    32a4:	90 e0       	ldi	r25, 0x00	; 0
    32a6:	0e 94 d8 11 	call	0x23b0	; 0x23b0 <ee_read_word>
    32aa:	9c 01       	movw	r18, r24
    32ac:	80 93 41 4b 	sts	0x4B41, r24	; 0x804b41 <IN_Scales>
    32b0:	90 93 42 4b 	sts	0x4B42, r25	; 0x804b42 <IN_Scales+0x1>
//-------------------------------------------------------------------------------------------------
	IN_S_10000 = IN_Scales / 10000;						// Ž°úŽďúžÖÄ žěÖÍĶ¨ž≤īž§Ď 10000žĚė žěźŽ¶¨
    32b4:	60 e1       	ldi	r22, 0x10	; 16
    32b6:	77 e2       	ldi	r23, 0x27	; 39
    32b8:	0e 94 51 38 	call	0x70a2	; 0x70a2 <__divmodhi4>
    32bc:	60 93 43 4b 	sts	0x4B43, r22	; 0x804b43 <IN_S_10000>
	IN_S_1000  = IN_Scales % 10000/ 1000;					// Ž°úŽďúžÖÄ žěÖÍĶ¨ž≤īž§Ď  1000žĚė žěźŽ¶¨
    32c0:	e8 ee       	ldi	r30, 0xE8	; 232
    32c2:	f3 e0       	ldi	r31, 0x03	; 3
    32c4:	bf 01       	movw	r22, r30
    32c6:	0e 94 51 38 	call	0x70a2	; 0x70a2 <__divmodhi4>
    32ca:	60 93 ba 4b 	sts	0x4BBA, r22	; 0x804bba <IN_S_1000>
	IN_S_100   = IN_Scales % 1000 / 100;					// Ž°úŽďúžÖÄ žěÖÍĶ¨ž≤īž§Ď   100žĚė žěźŽ¶¨
    32ce:	c9 01       	movw	r24, r18
    32d0:	bf 01       	movw	r22, r30
    32d2:	0e 94 51 38 	call	0x70a2	; 0x70a2 <__divmodhi4>
    32d6:	e4 e6       	ldi	r30, 0x64	; 100
    32d8:	f0 e0       	ldi	r31, 0x00	; 0
    32da:	bf 01       	movw	r22, r30
    32dc:	0e 94 51 38 	call	0x70a2	; 0x70a2 <__divmodhi4>
    32e0:	60 93 44 4b 	sts	0x4B44, r22	; 0x804b44 <IN_S_100>
	IN_S_10    = IN_Scales % 100 / 10;					// Ž°úŽďúžÖÄ žěÖÍĶ¨ž≤īž§Ď    10žĚė žěźŽ¶¨
    32e4:	c9 01       	movw	r24, r18
    32e6:	bf 01       	movw	r22, r30
    32e8:	0e 94 51 38 	call	0x70a2	; 0x70a2 <__divmodhi4>
    32ec:	ea e0       	ldi	r30, 0x0A	; 10
    32ee:	f0 e0       	ldi	r31, 0x00	; 0
    32f0:	bf 01       	movw	r22, r30
    32f2:	0e 94 51 38 	call	0x70a2	; 0x70a2 <__divmodhi4>
    32f6:	60 93 23 4b 	sts	0x4B23, r22	; 0x804b23 <IN_S_10>
	IN_S_1     = IN_Scales % 10;						// Ž°úŽďúžÖÄ žěÖÍĶ¨ž≤īž§Ď     1žĚė žěźŽ¶¨
    32fa:	c9 01       	movw	r24, r18
    32fc:	bf 01       	movw	r22, r30
    32fe:	0e 94 51 38 	call	0x70a2	; 0x70a2 <__divmodhi4>
    3302:	80 93 a5 4b 	sts	0x4BA5, r24	; 0x804ba5 <IN_S_1>
//-------------------------------------------------------------------------------------------------
	while(SET.Menu)								// Ž©ĒŽČīŽ™®Žďú žĚīŽ©ī ŽįėŽ≥Ķ
    3306:	3d c1       	rjmp	.+634    	; 0x3582 <IN_Scales_Set+0x2e4>
	{
		SET.Blink = 1;							// žěźŽ¶Ņžąė ÍĻúŽįēžěĄ žĄ§ž†ē
    3308:	81 e0       	ldi	r24, 0x01	; 1
    330a:	80 93 4b 4b 	sts	0x4B4B, r24	; 0x804b4b <SET+0x3>

		switch(KEY.Count)						// žĄ†ŪÉĚ Key ÍįÄ ŽąĆŽ¶įŪöüžąė
    330e:	80 91 8c 4b 	lds	r24, 0x4B8C	; 0x804b8c <KEY>
    3312:	82 30       	cpi	r24, 0x02	; 2
    3314:	09 f4       	brne	.+2      	; 0x3318 <IN_Scales_Set+0x7a>
    3316:	85 c0       	rjmp	.+266    	; 0x3422 <IN_Scales_Set+0x184>
    3318:	30 f4       	brcc	.+12     	; 0x3326 <IN_Scales_Set+0x88>
    331a:	88 23       	and	r24, r24
    331c:	69 f0       	breq	.+26     	; 0x3338 <IN_Scales_Set+0x9a>
    331e:	81 30       	cpi	r24, 0x01	; 1
    3320:	09 f4       	brne	.+2      	; 0x3324 <IN_Scales_Set+0x86>
    3322:	44 c0       	rjmp	.+136    	; 0x33ac <IN_Scales_Set+0x10e>
    3324:	2c c1       	rjmp	.+600    	; 0x357e <IN_Scales_Set+0x2e0>
    3326:	84 30       	cpi	r24, 0x04	; 4
    3328:	09 f4       	brne	.+2      	; 0x332c <IN_Scales_Set+0x8e>
    332a:	f0 c0       	rjmp	.+480    	; 0x350c <IN_Scales_Set+0x26e>
    332c:	08 f4       	brcc	.+2      	; 0x3330 <IN_Scales_Set+0x92>
    332e:	b4 c0       	rjmp	.+360    	; 0x3498 <IN_Scales_Set+0x1fa>
    3330:	85 30       	cpi	r24, 0x05	; 5
    3332:	09 f4       	brne	.+2      	; 0x3336 <IN_Scales_Set+0x98>
    3334:	22 c1       	rjmp	.+580    	; 0x357a <IN_Scales_Set+0x2dc>
    3336:	23 c1       	rjmp	.+582    	; 0x357e <IN_Scales_Set+0x2e0>
		{
			case 0:							// Ž°úŽďúžÖÄ žěÖÍĶ¨ž≤īž§Ď 10000žĚė žěźŽ¶¨
				DIGIT[2][3] = fnd_tbl[IN_S_1];			// Ž°úŽďúžÖÄ žěÖÍĶ¨ž≤īž§Ď 1žĚė žěźŽ¶¨ ŪĎúžčú
    3338:	e0 91 a5 4b 	lds	r30, 0x4BA5	; 0x804ba5 <IN_S_1>
    333c:	f0 e0       	ldi	r31, 0x00	; 0
    333e:	e9 5b       	subi	r30, 0xB9	; 185
    3340:	fe 4b       	sbci	r31, 0xBE	; 190
    3342:	80 81       	ld	r24, Z
    3344:	80 93 88 41 	sts	0x4188, r24	; 0x804188 <DIGIT+0xb>
				if(Blink) {DIGIT[1][3] = FND_OFF;}		// Blink = 1 žĚīŽ©ī Ž°úŽďúžÖÄ žěÖÍĶ¨ž≤īž§Ď 10000žĚė žěźŽ¶¨ OFF
    3348:	80 91 b9 4b 	lds	r24, 0x4BB9	; 0x804bb9 <Blink>
    334c:	88 23       	and	r24, r24
    334e:	19 f0       	breq	.+6      	; 0x3356 <IN_Scales_Set+0xb8>
    3350:	10 92 84 41 	sts	0x4184, r1	; 0x804184 <DIGIT+0x7>
    3354:	08 c0       	rjmp	.+16     	; 0x3366 <IN_Scales_Set+0xc8>
				else	  {DIGIT[1][3] = fnd_tbl[IN_S_10000];}	// Blink = 0 žĚīŽ©ī Ž°úŽďúžÖÄ žěÖÍĶ¨ž≤īž§Ď 10000žĚė žěźŽ¶¨ ŪĎúžčú
    3356:	e0 91 43 4b 	lds	r30, 0x4B43	; 0x804b43 <IN_S_10000>
    335a:	f0 e0       	ldi	r31, 0x00	; 0
    335c:	e9 5b       	subi	r30, 0xB9	; 185
    335e:	fe 4b       	sbci	r31, 0xBE	; 190
    3360:	80 81       	ld	r24, Z
    3362:	80 93 84 41 	sts	0x4184, r24	; 0x804184 <DIGIT+0x7>

				if(KEY.Buff)					// Key žěÖŽ†•žĚī žěąžúľŽ©ī
    3366:	80 91 8d 4b 	lds	r24, 0x4B8D	; 0x804b8d <KEY+0x1>
    336a:	88 23       	and	r24, r24
    336c:	09 f4       	brne	.+2      	; 0x3370 <IN_Scales_Set+0xd2>
    336e:	07 c1       	rjmp	.+526    	; 0x357e <IN_Scales_Set+0x2e0>
				{
					if     (KEY.Key == 1 && IN_S_10000 < 1) {IN_S_10000++; KEY.Key = 0;}	// žóÖ  Ž≤ĄŪäľ žĚīŽ©ī žěÖÍĶ¨ž≤īž§Ď 10000žĚė žěźŽ¶¨ ž¶ĚÍįÄ
    3370:	80 91 8e 4b 	lds	r24, 0x4B8E	; 0x804b8e <KEY+0x2>
    3374:	81 30       	cpi	r24, 0x01	; 1
    3376:	51 f4       	brne	.+20     	; 0x338c <IN_Scales_Set+0xee>
    3378:	80 91 43 4b 	lds	r24, 0x4B43	; 0x804b43 <IN_S_10000>
    337c:	81 11       	cpse	r24, r1
    337e:	06 c0       	rjmp	.+12     	; 0x338c <IN_Scales_Set+0xee>
    3380:	8f 5f       	subi	r24, 0xFF	; 255
    3382:	80 93 43 4b 	sts	0x4B43, r24	; 0x804b43 <IN_S_10000>
    3386:	10 92 8e 4b 	sts	0x4B8E, r1	; 0x804b8e <KEY+0x2>
    338a:	f9 c0       	rjmp	.+498    	; 0x357e <IN_Scales_Set+0x2e0>
					else if(KEY.Key == 3 && IN_S_10000 > 0) {IN_S_10000--; KEY.Key = 0;}	// Žč§žöīŽ≤ĄŪäľ žĚīŽ©ī žěÖÍĶ¨ž≤īž§Ď 10000žĚė žěźŽ¶¨ ÍįźžÜĆ
    338c:	80 91 8e 4b 	lds	r24, 0x4B8E	; 0x804b8e <KEY+0x2>
    3390:	83 30       	cpi	r24, 0x03	; 3
    3392:	09 f0       	breq	.+2      	; 0x3396 <IN_Scales_Set+0xf8>
    3394:	f4 c0       	rjmp	.+488    	; 0x357e <IN_Scales_Set+0x2e0>
    3396:	80 91 43 4b 	lds	r24, 0x4B43	; 0x804b43 <IN_S_10000>
    339a:	88 23       	and	r24, r24
    339c:	09 f4       	brne	.+2      	; 0x33a0 <IN_Scales_Set+0x102>
    339e:	ef c0       	rjmp	.+478    	; 0x357e <IN_Scales_Set+0x2e0>
    33a0:	81 50       	subi	r24, 0x01	; 1
    33a2:	80 93 43 4b 	sts	0x4B43, r24	; 0x804b43 <IN_S_10000>
    33a6:	10 92 8e 4b 	sts	0x4B8E, r1	; 0x804b8e <KEY+0x2>
    33aa:	e9 c0       	rjmp	.+466    	; 0x357e <IN_Scales_Set+0x2e0>
				}
			break;

			case 1:							// Ž°úŽďúžÖÄ žěÖÍĶ¨ž≤īž§Ď 1000žĚė žěźŽ¶¨
				DIGIT[1][3] = fnd_tbl[IN_S_10000];		// Ž°úŽďúžÖÄ žěÖÍĶ¨ž≤īž§Ď 10000žĚė žěźŽ¶¨ ŪĎúžčú
    33ac:	e0 91 43 4b 	lds	r30, 0x4B43	; 0x804b43 <IN_S_10000>
    33b0:	f0 e0       	ldi	r31, 0x00	; 0
    33b2:	e9 5b       	subi	r30, 0xB9	; 185
    33b4:	fe 4b       	sbci	r31, 0xBE	; 190
    33b6:	80 81       	ld	r24, Z
    33b8:	80 93 84 41 	sts	0x4184, r24	; 0x804184 <DIGIT+0x7>
				if(Blink) {DIGIT[1][2] = FND_OFF;}			// Blink = 1 žĚīŽ©ī Ž°úŽďúžÖÄ žěÖÍĶ¨ž≤īž§Ď 1000žĚė žěźŽ¶¨ OFF
    33bc:	80 91 b9 4b 	lds	r24, 0x4BB9	; 0x804bb9 <Blink>
    33c0:	88 23       	and	r24, r24
    33c2:	19 f0       	breq	.+6      	; 0x33ca <IN_Scales_Set+0x12c>
    33c4:	10 92 83 41 	sts	0x4183, r1	; 0x804183 <DIGIT+0x6>
    33c8:	09 c0       	rjmp	.+18     	; 0x33dc <IN_Scales_Set+0x13e>
				else	  {DIGIT[1][2] = fnd_tbl[IN_S_1000]+FND_Point;}	// Blink = 0 žĚīŽ©ī Ž°úŽďúžÖÄ žěÖÍĶ¨ž≤īž§Ď 1000žĚė žěźŽ¶¨ ŪĎúžčú
    33ca:	e0 91 ba 4b 	lds	r30, 0x4BBA	; 0x804bba <IN_S_1000>
    33ce:	f0 e0       	ldi	r31, 0x00	; 0
    33d0:	e9 5b       	subi	r30, 0xB9	; 185
    33d2:	fe 4b       	sbci	r31, 0xBE	; 190
    33d4:	80 81       	ld	r24, Z
    33d6:	8f 5f       	subi	r24, 0xFF	; 255
    33d8:	80 93 83 41 	sts	0x4183, r24	; 0x804183 <DIGIT+0x6>

				if(KEY.Buff)					// Key žěÖŽ†•žĚī žěąžúľŽ©ī
    33dc:	80 91 8d 4b 	lds	r24, 0x4B8D	; 0x804b8d <KEY+0x1>
    33e0:	88 23       	and	r24, r24
    33e2:	09 f4       	brne	.+2      	; 0x33e6 <IN_Scales_Set+0x148>
    33e4:	cc c0       	rjmp	.+408    	; 0x357e <IN_Scales_Set+0x2e0>
				{
					if     (KEY.Key == 1 && IN_S_1000 < 9) {IN_S_1000++; KEY.Key = 0;}	// žóÖ  Ž≤ĄŪäľ žĚīŽ©ī žěÖÍĶ¨ž≤īž§Ď 1000žĚė žěźŽ¶¨ ž¶ĚÍįÄ
    33e6:	80 91 8e 4b 	lds	r24, 0x4B8E	; 0x804b8e <KEY+0x2>
    33ea:	81 30       	cpi	r24, 0x01	; 1
    33ec:	51 f4       	brne	.+20     	; 0x3402 <IN_Scales_Set+0x164>
    33ee:	80 91 ba 4b 	lds	r24, 0x4BBA	; 0x804bba <IN_S_1000>
    33f2:	89 30       	cpi	r24, 0x09	; 9
    33f4:	30 f4       	brcc	.+12     	; 0x3402 <IN_Scales_Set+0x164>
    33f6:	8f 5f       	subi	r24, 0xFF	; 255
    33f8:	80 93 ba 4b 	sts	0x4BBA, r24	; 0x804bba <IN_S_1000>
    33fc:	10 92 8e 4b 	sts	0x4B8E, r1	; 0x804b8e <KEY+0x2>
    3400:	be c0       	rjmp	.+380    	; 0x357e <IN_Scales_Set+0x2e0>
					else if(KEY.Key == 3 && IN_S_1000 > 0) {IN_S_1000--; KEY.Key = 0;}	// Žč§žöīŽ≤ĄŪäľ žĚīŽ©ī žěÖÍĶ¨ž≤īž§Ď 1000žĚė žěźŽ¶¨ ÍįźžÜĆ
    3402:	80 91 8e 4b 	lds	r24, 0x4B8E	; 0x804b8e <KEY+0x2>
    3406:	83 30       	cpi	r24, 0x03	; 3
    3408:	09 f0       	breq	.+2      	; 0x340c <IN_Scales_Set+0x16e>
    340a:	b9 c0       	rjmp	.+370    	; 0x357e <IN_Scales_Set+0x2e0>
    340c:	80 91 ba 4b 	lds	r24, 0x4BBA	; 0x804bba <IN_S_1000>
    3410:	88 23       	and	r24, r24
    3412:	09 f4       	brne	.+2      	; 0x3416 <IN_Scales_Set+0x178>
    3414:	b4 c0       	rjmp	.+360    	; 0x357e <IN_Scales_Set+0x2e0>
    3416:	81 50       	subi	r24, 0x01	; 1
    3418:	80 93 ba 4b 	sts	0x4BBA, r24	; 0x804bba <IN_S_1000>
    341c:	10 92 8e 4b 	sts	0x4B8E, r1	; 0x804b8e <KEY+0x2>
    3420:	ae c0       	rjmp	.+348    	; 0x357e <IN_Scales_Set+0x2e0>
				}
			break;

			case 2:							// Ž°úŽďúžÖÄ žěÖÍĶ¨ž≤īž§Ď 100žĚė žěźŽ¶¨
				DIGIT[1][2] = fnd_tbl[IN_S_1000]+FND_Point;	// Ž°úŽďúžÖÄ žěÖÍĶ¨ž≤īž§Ď 1000žĚė žěźŽ¶¨ ŪĎúžčú
    3422:	e0 91 ba 4b 	lds	r30, 0x4BBA	; 0x804bba <IN_S_1000>
    3426:	f0 e0       	ldi	r31, 0x00	; 0
    3428:	e9 5b       	subi	r30, 0xB9	; 185
    342a:	fe 4b       	sbci	r31, 0xBE	; 190
    342c:	80 81       	ld	r24, Z
    342e:	8f 5f       	subi	r24, 0xFF	; 255
    3430:	80 93 83 41 	sts	0x4183, r24	; 0x804183 <DIGIT+0x6>
				if(Blink) {DIGIT[1][1] = FND_OFF;}		// Blink = 1 žĚīŽ©ī Ž°úŽďúžÖÄ žěÖÍĶ¨ž≤īž§Ď 100žĚė žěźŽ¶¨ OFF
    3434:	80 91 b9 4b 	lds	r24, 0x4BB9	; 0x804bb9 <Blink>
    3438:	88 23       	and	r24, r24
    343a:	19 f0       	breq	.+6      	; 0x3442 <IN_Scales_Set+0x1a4>
    343c:	10 92 82 41 	sts	0x4182, r1	; 0x804182 <DIGIT+0x5>
    3440:	08 c0       	rjmp	.+16     	; 0x3452 <IN_Scales_Set+0x1b4>
				else	  {DIGIT[1][1] = fnd_tbl[IN_S_100];}	// Blink = 0 žĚīŽ©ī Ž°úŽďúžÖÄ žěÖÍĶ¨ž≤īž§Ď 100žĚė žěźŽ¶¨ ŪĎúžčú
    3442:	e0 91 44 4b 	lds	r30, 0x4B44	; 0x804b44 <IN_S_100>
    3446:	f0 e0       	ldi	r31, 0x00	; 0
    3448:	e9 5b       	subi	r30, 0xB9	; 185
    344a:	fe 4b       	sbci	r31, 0xBE	; 190
    344c:	80 81       	ld	r24, Z
    344e:	80 93 82 41 	sts	0x4182, r24	; 0x804182 <DIGIT+0x5>

				if(KEY.Buff)					// Key žěÖŽ†•žĚī žěąžúľŽ©ī
    3452:	80 91 8d 4b 	lds	r24, 0x4B8D	; 0x804b8d <KEY+0x1>
    3456:	88 23       	and	r24, r24
    3458:	09 f4       	brne	.+2      	; 0x345c <IN_Scales_Set+0x1be>
    345a:	91 c0       	rjmp	.+290    	; 0x357e <IN_Scales_Set+0x2e0>
				{
					if     (KEY.Key == 1 && IN_S_100 < 9) {IN_S_100++; KEY.Key = 0;}	// žóÖ  Ž≤ĄŪäľ žĚīŽ©ī žěÖÍĶ¨ž≤īž§Ď 100žĚė žěźŽ¶¨ ž¶ĚÍįÄ
    345c:	80 91 8e 4b 	lds	r24, 0x4B8E	; 0x804b8e <KEY+0x2>
    3460:	81 30       	cpi	r24, 0x01	; 1
    3462:	51 f4       	brne	.+20     	; 0x3478 <IN_Scales_Set+0x1da>
    3464:	80 91 44 4b 	lds	r24, 0x4B44	; 0x804b44 <IN_S_100>
    3468:	89 30       	cpi	r24, 0x09	; 9
    346a:	30 f4       	brcc	.+12     	; 0x3478 <IN_Scales_Set+0x1da>
    346c:	8f 5f       	subi	r24, 0xFF	; 255
    346e:	80 93 44 4b 	sts	0x4B44, r24	; 0x804b44 <IN_S_100>
    3472:	10 92 8e 4b 	sts	0x4B8E, r1	; 0x804b8e <KEY+0x2>
    3476:	83 c0       	rjmp	.+262    	; 0x357e <IN_Scales_Set+0x2e0>
					else if(KEY.Key == 3 && IN_S_100 > 0) {IN_S_100--; KEY.Key = 0;}	// Žč§žöīŽ≤ĄŪäľ žĚīŽ©ī žěÖÍĶ¨ž≤īž§Ď 100žĚė žěźŽ¶¨ ÍįźžÜĆ
    3478:	80 91 8e 4b 	lds	r24, 0x4B8E	; 0x804b8e <KEY+0x2>
    347c:	83 30       	cpi	r24, 0x03	; 3
    347e:	09 f0       	breq	.+2      	; 0x3482 <IN_Scales_Set+0x1e4>
    3480:	7e c0       	rjmp	.+252    	; 0x357e <IN_Scales_Set+0x2e0>
    3482:	80 91 44 4b 	lds	r24, 0x4B44	; 0x804b44 <IN_S_100>
    3486:	88 23       	and	r24, r24
    3488:	09 f4       	brne	.+2      	; 0x348c <IN_Scales_Set+0x1ee>
    348a:	79 c0       	rjmp	.+242    	; 0x357e <IN_Scales_Set+0x2e0>
    348c:	81 50       	subi	r24, 0x01	; 1
    348e:	80 93 44 4b 	sts	0x4B44, r24	; 0x804b44 <IN_S_100>
    3492:	10 92 8e 4b 	sts	0x4B8E, r1	; 0x804b8e <KEY+0x2>
    3496:	73 c0       	rjmp	.+230    	; 0x357e <IN_Scales_Set+0x2e0>
				}
			break;

			case 3:							// Ž°úŽďúžÖÄ žěÖÍĶ¨ž≤īž§Ď 10žĚė žěźŽ¶¨
				DIGIT[1][1] = fnd_tbl[IN_S_100];		// Ž°úŽďúžÖÄ žěÖÍĶ¨ž≤īž§Ď 100žĚė žěźŽ¶¨ ŪĎúžčú
    3498:	e0 91 44 4b 	lds	r30, 0x4B44	; 0x804b44 <IN_S_100>
    349c:	f0 e0       	ldi	r31, 0x00	; 0
    349e:	e9 5b       	subi	r30, 0xB9	; 185
    34a0:	fe 4b       	sbci	r31, 0xBE	; 190
    34a2:	80 81       	ld	r24, Z
    34a4:	80 93 82 41 	sts	0x4182, r24	; 0x804182 <DIGIT+0x5>
				if(Blink) {DIGIT[1][0] = FND_OFF;}		// Blink = 1 žĚīŽ©ī Ž°úŽďúžÖÄ žěÖÍĶ¨ž≤īž§Ď 10žĚė žěźŽ¶¨ OFF
    34a8:	80 91 b9 4b 	lds	r24, 0x4BB9	; 0x804bb9 <Blink>
    34ac:	88 23       	and	r24, r24
    34ae:	19 f0       	breq	.+6      	; 0x34b6 <IN_Scales_Set+0x218>
    34b0:	10 92 81 41 	sts	0x4181, r1	; 0x804181 <DIGIT+0x4>
    34b4:	08 c0       	rjmp	.+16     	; 0x34c6 <IN_Scales_Set+0x228>
				else	  {DIGIT[1][0] = fnd_tbl[IN_S_10];}	// Blink = 0 žĚīŽ©ī Ž°úŽďúžÖÄ žěÖÍĶ¨ž≤īž§Ď 10žĚė žěźŽ¶¨ ŪĎúžčú
    34b6:	e0 91 23 4b 	lds	r30, 0x4B23	; 0x804b23 <IN_S_10>
    34ba:	f0 e0       	ldi	r31, 0x00	; 0
    34bc:	e9 5b       	subi	r30, 0xB9	; 185
    34be:	fe 4b       	sbci	r31, 0xBE	; 190
    34c0:	80 81       	ld	r24, Z
    34c2:	80 93 81 41 	sts	0x4181, r24	; 0x804181 <DIGIT+0x4>

				if(KEY.Buff)					// Key žěÖŽ†•žĚī žěąžúľŽ©ī
    34c6:	80 91 8d 4b 	lds	r24, 0x4B8D	; 0x804b8d <KEY+0x1>
    34ca:	88 23       	and	r24, r24
    34cc:	09 f4       	brne	.+2      	; 0x34d0 <IN_Scales_Set+0x232>
    34ce:	57 c0       	rjmp	.+174    	; 0x357e <IN_Scales_Set+0x2e0>
				{
					if     (KEY.Key == 1 && IN_S_10 < 9) {IN_S_10++; KEY.Key = 0;}		// žóÖ  Ž≤ĄŪäľ žĚīŽ©ī žěÖÍĶ¨ž≤īž§Ď 10žĚė žěźŽ¶¨ ž¶ĚÍįÄ
    34d0:	80 91 8e 4b 	lds	r24, 0x4B8E	; 0x804b8e <KEY+0x2>
    34d4:	81 30       	cpi	r24, 0x01	; 1
    34d6:	51 f4       	brne	.+20     	; 0x34ec <IN_Scales_Set+0x24e>
    34d8:	80 91 23 4b 	lds	r24, 0x4B23	; 0x804b23 <IN_S_10>
    34dc:	89 30       	cpi	r24, 0x09	; 9
    34de:	30 f4       	brcc	.+12     	; 0x34ec <IN_Scales_Set+0x24e>
    34e0:	8f 5f       	subi	r24, 0xFF	; 255
    34e2:	80 93 23 4b 	sts	0x4B23, r24	; 0x804b23 <IN_S_10>
    34e6:	10 92 8e 4b 	sts	0x4B8E, r1	; 0x804b8e <KEY+0x2>
    34ea:	49 c0       	rjmp	.+146    	; 0x357e <IN_Scales_Set+0x2e0>
					else if(KEY.Key == 3 && IN_S_10 > 0) {IN_S_10--; KEY.Key = 0;}		// Žč§žöīŽ≤ĄŪäľ žĚīŽ©ī žěÖÍĶ¨ž≤īž§Ď 10žĚė žěźŽ¶¨ ÍįźžÜĆ
    34ec:	80 91 8e 4b 	lds	r24, 0x4B8E	; 0x804b8e <KEY+0x2>
    34f0:	83 30       	cpi	r24, 0x03	; 3
    34f2:	09 f0       	breq	.+2      	; 0x34f6 <IN_Scales_Set+0x258>
    34f4:	44 c0       	rjmp	.+136    	; 0x357e <IN_Scales_Set+0x2e0>
    34f6:	80 91 23 4b 	lds	r24, 0x4B23	; 0x804b23 <IN_S_10>
    34fa:	88 23       	and	r24, r24
    34fc:	09 f4       	brne	.+2      	; 0x3500 <IN_Scales_Set+0x262>
    34fe:	3f c0       	rjmp	.+126    	; 0x357e <IN_Scales_Set+0x2e0>
    3500:	81 50       	subi	r24, 0x01	; 1
    3502:	80 93 23 4b 	sts	0x4B23, r24	; 0x804b23 <IN_S_10>
    3506:	10 92 8e 4b 	sts	0x4B8E, r1	; 0x804b8e <KEY+0x2>
    350a:	39 c0       	rjmp	.+114    	; 0x357e <IN_Scales_Set+0x2e0>
				}
			break;

			case 4:							// Ž°úŽďúžÖÄ žěÖÍĶ¨ž≤īž§Ď 1žĚė žěźŽ¶¨
				DIGIT[1][0] = fnd_tbl[IN_S_10];			// Ž°úŽďúžÖÄ žěÖÍĶ¨ž≤īž§Ď 10žĚė žěźŽ¶¨ ŪĎúžčú
    350c:	e0 91 23 4b 	lds	r30, 0x4B23	; 0x804b23 <IN_S_10>
    3510:	f0 e0       	ldi	r31, 0x00	; 0
    3512:	e9 5b       	subi	r30, 0xB9	; 185
    3514:	fe 4b       	sbci	r31, 0xBE	; 190
    3516:	80 81       	ld	r24, Z
    3518:	80 93 81 41 	sts	0x4181, r24	; 0x804181 <DIGIT+0x4>
				if(Blink) {DIGIT[2][3] = FND_OFF;}		// Blink = 1 žĚīŽ©ī Ž°úŽďúžÖÄ žěÖÍĶ¨ž≤īž§Ď 1žĚė žěźŽ¶¨ OFF
    351c:	80 91 b9 4b 	lds	r24, 0x4BB9	; 0x804bb9 <Blink>
    3520:	88 23       	and	r24, r24
    3522:	19 f0       	breq	.+6      	; 0x352a <IN_Scales_Set+0x28c>
    3524:	10 92 88 41 	sts	0x4188, r1	; 0x804188 <DIGIT+0xb>
    3528:	08 c0       	rjmp	.+16     	; 0x353a <IN_Scales_Set+0x29c>
				else	  {DIGIT[2][3] = fnd_tbl[IN_S_1];}	// Blink = 0 žĚīŽ©ī Ž°úŽďúžÖÄ žěÖÍĶ¨ž≤īž§Ď 1žĚė žěźŽ¶¨ ŪĎúžčú
    352a:	e0 91 a5 4b 	lds	r30, 0x4BA5	; 0x804ba5 <IN_S_1>
    352e:	f0 e0       	ldi	r31, 0x00	; 0
    3530:	e9 5b       	subi	r30, 0xB9	; 185
    3532:	fe 4b       	sbci	r31, 0xBE	; 190
    3534:	80 81       	ld	r24, Z
    3536:	80 93 88 41 	sts	0x4188, r24	; 0x804188 <DIGIT+0xb>

				if(KEY.Buff)					// Key žěÖŽ†•žĚī žěąžúľŽ©ī
    353a:	80 91 8d 4b 	lds	r24, 0x4B8D	; 0x804b8d <KEY+0x1>
    353e:	88 23       	and	r24, r24
    3540:	f1 f0       	breq	.+60     	; 0x357e <IN_Scales_Set+0x2e0>
				{
					if     (KEY.Key == 1 && IN_S_1 < 9) {IN_S_1++; KEY.Key = 0;}		// žóÖ  Ž≤ĄŪäľ žĚīŽ©ī žěÖÍĶ¨ž≤īž§Ď 1žĚė žěźŽ¶¨ ž¶ĚÍįÄ
    3542:	80 91 8e 4b 	lds	r24, 0x4B8E	; 0x804b8e <KEY+0x2>
    3546:	81 30       	cpi	r24, 0x01	; 1
    3548:	51 f4       	brne	.+20     	; 0x355e <IN_Scales_Set+0x2c0>
    354a:	80 91 a5 4b 	lds	r24, 0x4BA5	; 0x804ba5 <IN_S_1>
    354e:	89 30       	cpi	r24, 0x09	; 9
    3550:	30 f4       	brcc	.+12     	; 0x355e <IN_Scales_Set+0x2c0>
    3552:	8f 5f       	subi	r24, 0xFF	; 255
    3554:	80 93 a5 4b 	sts	0x4BA5, r24	; 0x804ba5 <IN_S_1>
    3558:	10 92 8e 4b 	sts	0x4B8E, r1	; 0x804b8e <KEY+0x2>
    355c:	10 c0       	rjmp	.+32     	; 0x357e <IN_Scales_Set+0x2e0>
					else if(KEY.Key == 3 && IN_S_1 > 0) {IN_S_1--; KEY.Key = 0;}		// Žč§žöīŽ≤ĄŪäľ žĚīŽ©ī žěÖÍĶ¨ž≤īž§Ď 1žĚė žěźŽ¶¨ ÍįźžÜĆ
    355e:	80 91 8e 4b 	lds	r24, 0x4B8E	; 0x804b8e <KEY+0x2>
    3562:	83 30       	cpi	r24, 0x03	; 3
    3564:	61 f4       	brne	.+24     	; 0x357e <IN_Scales_Set+0x2e0>
    3566:	80 91 a5 4b 	lds	r24, 0x4BA5	; 0x804ba5 <IN_S_1>
    356a:	88 23       	and	r24, r24
    356c:	41 f0       	breq	.+16     	; 0x357e <IN_Scales_Set+0x2e0>
    356e:	81 50       	subi	r24, 0x01	; 1
    3570:	80 93 a5 4b 	sts	0x4BA5, r24	; 0x804ba5 <IN_S_1>
    3574:	10 92 8e 4b 	sts	0x4B8E, r1	; 0x804b8e <KEY+0x2>
    3578:	02 c0       	rjmp	.+4      	; 0x357e <IN_Scales_Set+0x2e0>
				}
			break;

			case 5:
				KEY.Count = 0;					// ŽįėŽ≥ĶžĚĄ žúĄŪēī KEY.Count Ž•ľ žīąÍłįŪôĒ žčúŪāī
    357a:	10 92 8c 4b 	sts	0x4B8C, r1	; 0x804b8c <KEY>
			break;
		}
		wdt_reset();							// žõĆžĻėŽŹÖ Ž¶¨žÖč
    357e:	0e 94 17 0d 	call	0x1a2e	; 0x1a2e <wdt_reset>
	IN_S_1000  = IN_Scales % 10000/ 1000;					// Ž°úŽďúžÖÄ žěÖÍĶ¨ž≤īž§Ď  1000žĚė žěźŽ¶¨
	IN_S_100   = IN_Scales % 1000 / 100;					// Ž°úŽďúžÖÄ žěÖÍĶ¨ž≤īž§Ď   100žĚė žěźŽ¶¨
	IN_S_10    = IN_Scales % 100 / 10;					// Ž°úŽďúžÖÄ žěÖÍĶ¨ž≤īž§Ď    10žĚė žěźŽ¶¨
	IN_S_1     = IN_Scales % 10;						// Ž°úŽďúžÖÄ žěÖÍĶ¨ž≤īž§Ď     1žĚė žěźŽ¶¨
//-------------------------------------------------------------------------------------------------
	while(SET.Menu)								// Ž©ĒŽČīŽ™®Žďú žĚīŽ©ī ŽįėŽ≥Ķ
    3582:	80 91 48 4b 	lds	r24, 0x4B48	; 0x804b48 <SET>
    3586:	81 11       	cpse	r24, r1
    3588:	bf ce       	rjmp	.-642    	; 0x3308 <IN_Scales_Set+0x6a>
		}
		wdt_reset();							// žõĆžĻėŽŹÖ Ž¶¨žÖč
	}
//-------------------------------------------------------------------------------------------------
	IN_Scales = 0;								// Ž°úŽďúžÖÄ žěÖÍĶ¨ž≤īž§Ď žīąÍłįŪôĒ
	IN_Scales += (IN_S_10000 * 10000);						// Ž°úŽďúžÖÄ žěÖÍĶ¨ž≤īž§Ď 10000žĚė žěźŽ¶¨
    358a:	20 91 43 4b 	lds	r18, 0x4B43	; 0x804b43 <IN_S_10000>
    358e:	80 e1       	ldi	r24, 0x10	; 16
    3590:	97 e2       	ldi	r25, 0x27	; 39
    3592:	28 9f       	mul	r18, r24
    3594:	b0 01       	movw	r22, r0
    3596:	29 9f       	mul	r18, r25
    3598:	70 0d       	add	r23, r0
    359a:	11 24       	eor	r1, r1
	IN_Scales += (IN_S_1000  * 1000);						// Ž°úŽďúžÖÄ žěÖÍĶ¨ž≤īž§Ď  1000žĚė žěźŽ¶¨
    359c:	40 91 ba 4b 	lds	r20, 0x4BBA	; 0x804bba <IN_S_1000>
    35a0:	28 ee       	ldi	r18, 0xE8	; 232
    35a2:	33 e0       	ldi	r19, 0x03	; 3
    35a4:	42 9f       	mul	r20, r18
    35a6:	c0 01       	movw	r24, r0
    35a8:	43 9f       	mul	r20, r19
    35aa:	90 0d       	add	r25, r0
    35ac:	11 24       	eor	r1, r1
    35ae:	68 0f       	add	r22, r24
    35b0:	79 1f       	adc	r23, r25
	IN_Scales += (IN_S_100   * 100);						// Ž°úŽďúžÖÄ žěÖÍĶ¨ž≤īž§Ď   100žĚė žěźŽ¶¨
    35b2:	80 91 44 4b 	lds	r24, 0x4B44	; 0x804b44 <IN_S_100>
    35b6:	94 e6       	ldi	r25, 0x64	; 100
    35b8:	89 9f       	mul	r24, r25
    35ba:	60 0d       	add	r22, r0
    35bc:	71 1d       	adc	r23, r1
    35be:	11 24       	eor	r1, r1
	IN_Scales += (IN_S_10    * 10);						// Ž°úŽďúžÖÄ žěÖÍĶ¨ž≤īž§Ď    10žĚė žěźŽ¶¨
    35c0:	80 91 23 4b 	lds	r24, 0x4B23	; 0x804b23 <IN_S_10>
    35c4:	90 e0       	ldi	r25, 0x00	; 0
    35c6:	9c 01       	movw	r18, r24
    35c8:	22 0f       	add	r18, r18
    35ca:	33 1f       	adc	r19, r19
    35cc:	88 0f       	add	r24, r24
    35ce:	99 1f       	adc	r25, r25
    35d0:	88 0f       	add	r24, r24
    35d2:	99 1f       	adc	r25, r25
    35d4:	88 0f       	add	r24, r24
    35d6:	99 1f       	adc	r25, r25
    35d8:	82 0f       	add	r24, r18
    35da:	93 1f       	adc	r25, r19
    35dc:	68 0f       	add	r22, r24
    35de:	79 1f       	adc	r23, r25
	IN_Scales += (IN_S_1     * 1);						// Ž°úŽďúžÖÄ žěÖÍĶ¨ž≤īž§Ď     1žĚė žěźŽ¶¨
    35e0:	80 91 a5 4b 	lds	r24, 0x4BA5	; 0x804ba5 <IN_S_1>
    35e4:	68 0f       	add	r22, r24
    35e6:	71 1d       	adc	r23, r1
    35e8:	60 93 41 4b 	sts	0x4B41, r22	; 0x804b41 <IN_Scales>
    35ec:	70 93 42 4b 	sts	0x4B42, r23	; 0x804b42 <IN_Scales+0x1>
//-------------------------------------------------------------------------------------------------
	ee_write_word(Cell_IN_S_Addr, IN_Scales);					// Ž°úŽďúžÖÄ žĚīŽ©ī žěÖÍĶ¨ž≤īž§ĎÍįí ž†Äžě•
    35f0:	88 e0       	ldi	r24, 0x08	; 8
    35f2:	90 e0       	ldi	r25, 0x00	; 0
    35f4:	0e 94 13 12 	call	0x2426	; 0x2426 <ee_write_word>

	SET.Menu = 1;								// Menu Ž™®Žďú žú†žßÄ
    35f8:	e8 e4       	ldi	r30, 0x48	; 72
    35fa:	fb e4       	ldi	r31, 0x4B	; 75
    35fc:	81 e0       	ldi	r24, 0x01	; 1
    35fe:	80 83       	st	Z, r24
	SET.Select = 0;								// Select Ž≤ĄŪäľ žīąÍłįŪôĒ
    3600:	11 82       	std	Z+1, r1	; 0x01
	SET.Blink = 0;								// žěźŽ¶Ņžąė ÍĻúŽįēžěĄ žīąÍłįŪôĒ
    3602:	13 82       	std	Z+3, r1	; 0x03
	KEY.Count = 0;								// žĄ†ŪÉĚ Key ÍįÄ ŽąĆŽ¶įŪöüžąė žīąÍłįŪôĒ
    3604:	10 92 8c 4b 	sts	0x4B8C, r1	; 0x804b8c <KEY>
    3608:	08 95       	ret

0000360a <RO_Set>:
}

//=================================================================================================
void RO_Set(void)								// RO žĄ§ž†ē
{
    360a:	2f 92       	push	r2
    360c:	3f 92       	push	r3
    360e:	4f 92       	push	r4
    3610:	5f 92       	push	r5
    3612:	6f 92       	push	r6
    3614:	7f 92       	push	r7
    3616:	8f 92       	push	r8
    3618:	9f 92       	push	r9
    361a:	af 92       	push	r10
    361c:	bf 92       	push	r11
    361e:	cf 92       	push	r12
    3620:	df 92       	push	r13
    3622:	ef 92       	push	r14
    3624:	ff 92       	push	r15
    3626:	0f 93       	push	r16
    3628:	1f 93       	push	r17
    362a:	cf 93       	push	r28
    362c:	df 93       	push	r29
    362e:	cd b7       	in	r28, 0x3d	; 61
    3630:	de b7       	in	r29, 0x3e	; 62
    3632:	25 97       	sbiw	r28, 0x05	; 5
    3634:	cd bf       	out	0x3d, r28	; 61
    3636:	de bf       	out	0x3e, r29	; 62
	DIGIT[2][0] = FND_OFF;							// Ž°úŽďúžÖÄ RO, žěÖÍĶ¨ž≤īž§Ď 1žĚė žěźŽ¶¨ žßÄžöįÍłį
    3638:	10 92 85 41 	sts	0x4185, r1	; 0x804185 <DIGIT+0x8>

	RO = ee_read_dword(Cell_RO_Addr);					// Ž°úŽďúžÖÄ žĚīŽ©ī ROÍįí Ž∂ąŽü¨žė§Íłį
    363c:	8c e0       	ldi	r24, 0x0C	; 12
    363e:	90 e0       	ldi	r25, 0x00	; 0
    3640:	0e 94 e3 11 	call	0x23c6	; 0x23c6 <ee_read_dword>
    3644:	1b 01       	movw	r2, r22
    3646:	2c 01       	movw	r4, r24
    3648:	60 93 4d 4b 	sts	0x4B4D, r22	; 0x804b4d <RO>
    364c:	30 92 4e 4b 	sts	0x4B4E, r3	; 0x804b4e <RO+0x1>
    3650:	40 92 4f 4b 	sts	0x4B4F, r4	; 0x804b4f <RO+0x2>
    3654:	50 92 50 4b 	sts	0x4B50, r5	; 0x804b50 <RO+0x3>
    3658:	10 92 51 4b 	sts	0x4B51, r1	; 0x804b51 <RO+0x4>
    365c:	10 92 52 4b 	sts	0x4B52, r1	; 0x804b52 <RO+0x5>
    3660:	10 92 53 4b 	sts	0x4B53, r1	; 0x804b53 <RO+0x6>
    3664:	10 92 54 4b 	sts	0x4B54, r1	; 0x804b54 <RO+0x7>
//-------------------------------------------------------------------------------------------------
	RO_10000 = RO / 10000;							// Ž°úŽďúžÖÄ RO 10000žĚė žěźŽ¶¨
    3668:	68 94       	set
    366a:	aa 24       	eor	r10, r10
    366c:	a4 f8       	bld	r10, 4
    366e:	0f 2e       	mov	r0, r31
    3670:	f7 e2       	ldi	r31, 0x27	; 39
    3672:	bf 2e       	mov	r11, r31
    3674:	f0 2d       	mov	r31, r0
    3676:	c1 2c       	mov	r12, r1
    3678:	d1 2c       	mov	r13, r1
    367a:	e1 2c       	mov	r14, r1
    367c:	f1 2c       	mov	r15, r1
    367e:	00 e0       	ldi	r16, 0x00	; 0
    3680:	10 e0       	ldi	r17, 0x00	; 0
    3682:	26 2f       	mov	r18, r22
    3684:	33 2d       	mov	r19, r3
    3686:	44 2d       	mov	r20, r4
    3688:	55 2d       	mov	r21, r5
    368a:	60 e0       	ldi	r22, 0x00	; 0
    368c:	70 e0       	ldi	r23, 0x00	; 0
    368e:	80 e0       	ldi	r24, 0x00	; 0
    3690:	90 e0       	ldi	r25, 0x00	; 0
    3692:	0e 94 24 39 	call	0x7248	; 0x7248 <__udivdi3>
    3696:	20 93 97 4b 	sts	0x4B97, r18	; 0x804b97 <RO_10000>
    369a:	30 93 98 4b 	sts	0x4B98, r19	; 0x804b98 <RO_10000+0x1>
    369e:	40 93 99 4b 	sts	0x4B99, r20	; 0x804b99 <RO_10000+0x2>
    36a2:	50 93 9a 4b 	sts	0x4B9A, r21	; 0x804b9a <RO_10000+0x3>
    36a6:	60 93 9b 4b 	sts	0x4B9B, r22	; 0x804b9b <RO_10000+0x4>
    36aa:	70 93 9c 4b 	sts	0x4B9C, r23	; 0x804b9c <RO_10000+0x5>
    36ae:	80 93 9d 4b 	sts	0x4B9D, r24	; 0x804b9d <RO_10000+0x6>
    36b2:	90 93 9e 4b 	sts	0x4B9E, r25	; 0x804b9e <RO_10000+0x7>
	RO_1000  = RO % 10000 / 1000;						// Ž°úŽďúžÖÄ RO  1000žĚė žěźŽ¶¨
    36b6:	22 2d       	mov	r18, r2
    36b8:	33 2d       	mov	r19, r3
    36ba:	44 2d       	mov	r20, r4
    36bc:	55 2d       	mov	r21, r5
    36be:	60 e0       	ldi	r22, 0x00	; 0
    36c0:	70 e0       	ldi	r23, 0x00	; 0
    36c2:	80 e0       	ldi	r24, 0x00	; 0
    36c4:	90 e0       	ldi	r25, 0x00	; 0
    36c6:	0e 94 22 39 	call	0x7244	; 0x7244 <__umoddi3>
    36ca:	0f 2e       	mov	r0, r31
    36cc:	f8 ee       	ldi	r31, 0xE8	; 232
    36ce:	af 2e       	mov	r10, r31
    36d0:	f0 2d       	mov	r31, r0
    36d2:	0f 2e       	mov	r0, r31
    36d4:	f3 e0       	ldi	r31, 0x03	; 3
    36d6:	bf 2e       	mov	r11, r31
    36d8:	f0 2d       	mov	r31, r0
    36da:	0e 94 24 39 	call	0x7248	; 0x7248 <__udivdi3>
    36de:	20 93 c3 4c 	sts	0x4CC3, r18	; 0x804cc3 <RO_1000>
    36e2:	30 93 c4 4c 	sts	0x4CC4, r19	; 0x804cc4 <RO_1000+0x1>
    36e6:	40 93 c5 4c 	sts	0x4CC5, r20	; 0x804cc5 <RO_1000+0x2>
    36ea:	50 93 c6 4c 	sts	0x4CC6, r21	; 0x804cc6 <RO_1000+0x3>
    36ee:	60 93 c7 4c 	sts	0x4CC7, r22	; 0x804cc7 <RO_1000+0x4>
    36f2:	70 93 c8 4c 	sts	0x4CC8, r23	; 0x804cc8 <RO_1000+0x5>
    36f6:	80 93 c9 4c 	sts	0x4CC9, r24	; 0x804cc9 <RO_1000+0x6>
    36fa:	90 93 ca 4c 	sts	0x4CCA, r25	; 0x804cca <RO_1000+0x7>
	RO_100   = RO % 1000 / 100;						// Ž°úŽďúžÖÄ RO   100žĚė žěźŽ¶¨
    36fe:	22 2d       	mov	r18, r2
    3700:	33 2d       	mov	r19, r3
    3702:	44 2d       	mov	r20, r4
    3704:	55 2d       	mov	r21, r5
    3706:	60 e0       	ldi	r22, 0x00	; 0
    3708:	70 e0       	ldi	r23, 0x00	; 0
    370a:	80 e0       	ldi	r24, 0x00	; 0
    370c:	90 e0       	ldi	r25, 0x00	; 0
    370e:	0e 94 22 39 	call	0x7244	; 0x7244 <__umoddi3>
    3712:	0f 2e       	mov	r0, r31
    3714:	f4 e6       	ldi	r31, 0x64	; 100
    3716:	af 2e       	mov	r10, r31
    3718:	f0 2d       	mov	r31, r0
    371a:	b1 2c       	mov	r11, r1
    371c:	0e 94 24 39 	call	0x7248	; 0x7248 <__udivdi3>
    3720:	20 93 b1 4b 	sts	0x4BB1, r18	; 0x804bb1 <RO_100>
    3724:	30 93 b2 4b 	sts	0x4BB2, r19	; 0x804bb2 <RO_100+0x1>
    3728:	40 93 b3 4b 	sts	0x4BB3, r20	; 0x804bb3 <RO_100+0x2>
    372c:	50 93 b4 4b 	sts	0x4BB4, r21	; 0x804bb4 <RO_100+0x3>
    3730:	60 93 b5 4b 	sts	0x4BB5, r22	; 0x804bb5 <RO_100+0x4>
    3734:	70 93 b6 4b 	sts	0x4BB6, r23	; 0x804bb6 <RO_100+0x5>
    3738:	80 93 b7 4b 	sts	0x4BB7, r24	; 0x804bb7 <RO_100+0x6>
    373c:	90 93 b8 4b 	sts	0x4BB8, r25	; 0x804bb8 <RO_100+0x7>
	RO_10    = RO % 100 / 10;						// Ž°úŽďúžÖÄ RO    10žĚė žěźŽ¶¨
    3740:	22 2d       	mov	r18, r2
    3742:	33 2d       	mov	r19, r3
    3744:	44 2d       	mov	r20, r4
    3746:	55 2d       	mov	r21, r5
    3748:	60 e0       	ldi	r22, 0x00	; 0
    374a:	70 e0       	ldi	r23, 0x00	; 0
    374c:	80 e0       	ldi	r24, 0x00	; 0
    374e:	90 e0       	ldi	r25, 0x00	; 0
    3750:	0e 94 22 39 	call	0x7244	; 0x7244 <__umoddi3>
    3754:	0f 2e       	mov	r0, r31
    3756:	fa e0       	ldi	r31, 0x0A	; 10
    3758:	af 2e       	mov	r10, r31
    375a:	f0 2d       	mov	r31, r0
    375c:	0e 94 24 39 	call	0x7248	; 0x7248 <__udivdi3>
    3760:	20 93 7f 4b 	sts	0x4B7F, r18	; 0x804b7f <RO_10>
    3764:	30 93 80 4b 	sts	0x4B80, r19	; 0x804b80 <RO_10+0x1>
    3768:	40 93 81 4b 	sts	0x4B81, r20	; 0x804b81 <RO_10+0x2>
    376c:	50 93 82 4b 	sts	0x4B82, r21	; 0x804b82 <RO_10+0x3>
    3770:	60 93 83 4b 	sts	0x4B83, r22	; 0x804b83 <RO_10+0x4>
    3774:	70 93 84 4b 	sts	0x4B84, r23	; 0x804b84 <RO_10+0x5>
    3778:	80 93 85 4b 	sts	0x4B85, r24	; 0x804b85 <RO_10+0x6>
    377c:	90 93 86 4b 	sts	0x4B86, r25	; 0x804b86 <RO_10+0x7>
	RO_1     = RO % 10;							// Ž°úŽďúžÖÄ RO     1žĚė žěźŽ¶¨
    3780:	22 2d       	mov	r18, r2
    3782:	33 2d       	mov	r19, r3
    3784:	44 2d       	mov	r20, r4
    3786:	55 2d       	mov	r21, r5
    3788:	60 e0       	ldi	r22, 0x00	; 0
    378a:	70 e0       	ldi	r23, 0x00	; 0
    378c:	80 e0       	ldi	r24, 0x00	; 0
    378e:	90 e0       	ldi	r25, 0x00	; 0
    3790:	0e 94 22 39 	call	0x7244	; 0x7244 <__umoddi3>
    3794:	20 93 be 4b 	sts	0x4BBE, r18	; 0x804bbe <RO_1>
    3798:	30 93 bf 4b 	sts	0x4BBF, r19	; 0x804bbf <RO_1+0x1>
    379c:	40 93 c0 4b 	sts	0x4BC0, r20	; 0x804bc0 <RO_1+0x2>
    37a0:	50 93 c1 4b 	sts	0x4BC1, r21	; 0x804bc1 <RO_1+0x3>
    37a4:	60 93 c2 4b 	sts	0x4BC2, r22	; 0x804bc2 <RO_1+0x4>
    37a8:	70 93 c3 4b 	sts	0x4BC3, r23	; 0x804bc3 <RO_1+0x5>
    37ac:	80 93 c4 4b 	sts	0x4BC4, r24	; 0x804bc4 <RO_1+0x6>
    37b0:	90 93 c5 4b 	sts	0x4BC5, r25	; 0x804bc5 <RO_1+0x7>
//-------------------------------------------------------------------------------------------------
	while(SET.Menu)								// Ž©ĒŽČīÍįÄ 1 žĚīŽ©ī ŽįėŽ≥Ķ
    37b4:	f2 c2       	rjmp	.+1508   	; 0x3d9a <RO_Set+0x790>
	{
		SET.Blink = 1;							// žěźŽ¶Ņžąė ÍĻúŽįēžěĄ žĄ§ž†ē
    37b6:	81 e0       	ldi	r24, 0x01	; 1
    37b8:	80 93 4b 4b 	sts	0x4B4B, r24	; 0x804b4b <SET+0x3>

		switch(KEY.Count)						// žĄ†ŪÉĚ Key ÍįÄ ŽąĆŽ¶įŪöüžąė
    37bc:	80 91 8c 4b 	lds	r24, 0x4B8C	; 0x804b8c <KEY>
    37c0:	82 30       	cpi	r24, 0x02	; 2
    37c2:	09 f4       	brne	.+2      	; 0x37c6 <RO_Set+0x1bc>
    37c4:	35 c1       	rjmp	.+618    	; 0x3a30 <RO_Set+0x426>
    37c6:	30 f4       	brcc	.+12     	; 0x37d4 <RO_Set+0x1ca>
    37c8:	88 23       	and	r24, r24
    37ca:	69 f0       	breq	.+26     	; 0x37e6 <RO_Set+0x1dc>
    37cc:	81 30       	cpi	r24, 0x01	; 1
    37ce:	09 f4       	brne	.+2      	; 0x37d2 <RO_Set+0x1c8>
    37d0:	9d c0       	rjmp	.+314    	; 0x390c <RO_Set+0x302>
    37d2:	e1 c2       	rjmp	.+1474   	; 0x3d96 <RO_Set+0x78c>
    37d4:	84 30       	cpi	r24, 0x04	; 4
    37d6:	09 f4       	brne	.+2      	; 0x37da <RO_Set+0x1d0>
    37d8:	4d c2       	rjmp	.+1178   	; 0x3c74 <RO_Set+0x66a>
    37da:	08 f4       	brcc	.+2      	; 0x37de <RO_Set+0x1d4>
    37dc:	ba c1       	rjmp	.+884    	; 0x3b52 <RO_Set+0x548>
    37de:	85 30       	cpi	r24, 0x05	; 5
    37e0:	09 f4       	brne	.+2      	; 0x37e4 <RO_Set+0x1da>
    37e2:	d7 c2       	rjmp	.+1454   	; 0x3d92 <RO_Set+0x788>
    37e4:	d8 c2       	rjmp	.+1456   	; 0x3d96 <RO_Set+0x78c>
		{
			case 0:							// Ž°úŽďúžÖÄ RO 10000žĚė žěźŽ¶¨
				DIGIT[2][3] = fnd_tbl[RO_1];			// Ž°úŽďúžÖÄ RO 1žĚė žěźŽ¶¨ ŪĎúžčú
    37e6:	e0 91 be 4b 	lds	r30, 0x4BBE	; 0x804bbe <RO_1>
    37ea:	f0 91 bf 4b 	lds	r31, 0x4BBF	; 0x804bbf <RO_1+0x1>
    37ee:	e9 5b       	subi	r30, 0xB9	; 185
    37f0:	fe 4b       	sbci	r31, 0xBE	; 190
    37f2:	80 81       	ld	r24, Z
    37f4:	80 93 88 41 	sts	0x4188, r24	; 0x804188 <DIGIT+0xb>
				if(Blink) {DIGIT[1][3] = FND_OFF;}				// Blink = 1 žĚīŽ©ī Ž°úŽďúžÖÄ RO 10000žĚė žěźŽ¶¨ OFF
    37f8:	80 91 b9 4b 	lds	r24, 0x4BB9	; 0x804bb9 <Blink>
    37fc:	88 23       	and	r24, r24
    37fe:	19 f0       	breq	.+6      	; 0x3806 <RO_Set+0x1fc>
    3800:	10 92 84 41 	sts	0x4184, r1	; 0x804184 <DIGIT+0x7>
    3804:	0a c0       	rjmp	.+20     	; 0x381a <RO_Set+0x210>
				else	  {DIGIT[1][3] = fnd_tbl[RO_10000] + FND_Point;}	// Blink = 0 žĚīŽ©ī Ž°úŽďúžÖÄ RO 10000žĚė žěźŽ¶¨ ŪĎúžčú
    3806:	e0 91 97 4b 	lds	r30, 0x4B97	; 0x804b97 <RO_10000>
    380a:	f0 91 98 4b 	lds	r31, 0x4B98	; 0x804b98 <RO_10000+0x1>
    380e:	e9 5b       	subi	r30, 0xB9	; 185
    3810:	fe 4b       	sbci	r31, 0xBE	; 190
    3812:	80 81       	ld	r24, Z
    3814:	8f 5f       	subi	r24, 0xFF	; 255
    3816:	80 93 84 41 	sts	0x4184, r24	; 0x804184 <DIGIT+0x7>

				if(KEY.Buff)					// Key žěÖŽ†•žĚī žěąžúľŽ©ī
    381a:	80 91 8d 4b 	lds	r24, 0x4B8D	; 0x804b8d <KEY+0x1>
    381e:	88 23       	and	r24, r24
    3820:	09 f4       	brne	.+2      	; 0x3824 <RO_Set+0x21a>
    3822:	b9 c2       	rjmp	.+1394   	; 0x3d96 <RO_Set+0x78c>
				{
					if     (KEY.Key == 1 && RO_10000 < 8) {RO_10000++; KEY.Key = 0;}	// žóÖ  Ž≤ĄŪäľ žĚīŽ©ī ROÍįí 10000žĚė žěźŽ¶¨ ž¶ĚÍįÄ
    3824:	80 91 8e 4b 	lds	r24, 0x4B8E	; 0x804b8e <KEY+0x2>
    3828:	81 30       	cpi	r24, 0x01	; 1
    382a:	a9 f5       	brne	.+106    	; 0x3896 <RO_Set+0x28c>
    382c:	f0 90 97 4b 	lds	r15, 0x4B97	; 0x804b97 <RO_10000>
    3830:	00 91 98 4b 	lds	r16, 0x4B98	; 0x804b98 <RO_10000+0x1>
    3834:	10 91 99 4b 	lds	r17, 0x4B99	; 0x804b99 <RO_10000+0x2>
    3838:	80 91 9a 4b 	lds	r24, 0x4B9A	; 0x804b9a <RO_10000+0x3>
    383c:	8a 83       	std	Y+2, r24	; 0x02
    383e:	80 91 9b 4b 	lds	r24, 0x4B9B	; 0x804b9b <RO_10000+0x4>
    3842:	89 83       	std	Y+1, r24	; 0x01
    3844:	b0 91 9c 4b 	lds	r27, 0x4B9C	; 0x804b9c <RO_10000+0x5>
    3848:	f0 91 9d 4b 	lds	r31, 0x4B9D	; 0x804b9d <RO_10000+0x6>
    384c:	e0 91 9e 4b 	lds	r30, 0x4B9E	; 0x804b9e <RO_10000+0x7>
    3850:	2f 2d       	mov	r18, r15
    3852:	30 2f       	mov	r19, r16
    3854:	41 2f       	mov	r20, r17
    3856:	5a 81       	ldd	r21, Y+2	; 0x02
    3858:	68 2f       	mov	r22, r24
    385a:	7b 2f       	mov	r23, r27
    385c:	8f 2f       	mov	r24, r31
    385e:	9e 2f       	mov	r25, r30
    3860:	a7 e0       	ldi	r26, 0x07	; 7
    3862:	0e 94 b8 39 	call	0x7370	; 0x7370 <__cmpdi2_s8>
    3866:	09 f0       	breq	.+2      	; 0x386a <RO_Set+0x260>
    3868:	b0 f4       	brcc	.+44     	; 0x3896 <RO_Set+0x28c>
    386a:	a1 e0       	ldi	r26, 0x01	; 1
    386c:	0e 94 a3 39 	call	0x7346	; 0x7346 <__adddi3_s8>
    3870:	20 93 97 4b 	sts	0x4B97, r18	; 0x804b97 <RO_10000>
    3874:	30 93 98 4b 	sts	0x4B98, r19	; 0x804b98 <RO_10000+0x1>
    3878:	40 93 99 4b 	sts	0x4B99, r20	; 0x804b99 <RO_10000+0x2>
    387c:	50 93 9a 4b 	sts	0x4B9A, r21	; 0x804b9a <RO_10000+0x3>
    3880:	60 93 9b 4b 	sts	0x4B9B, r22	; 0x804b9b <RO_10000+0x4>
    3884:	70 93 9c 4b 	sts	0x4B9C, r23	; 0x804b9c <RO_10000+0x5>
    3888:	80 93 9d 4b 	sts	0x4B9D, r24	; 0x804b9d <RO_10000+0x6>
    388c:	90 93 9e 4b 	sts	0x4B9E, r25	; 0x804b9e <RO_10000+0x7>
    3890:	10 92 8e 4b 	sts	0x4B8E, r1	; 0x804b8e <KEY+0x2>
    3894:	80 c2       	rjmp	.+1280   	; 0x3d96 <RO_Set+0x78c>
					else if(KEY.Key == 3 && RO_10000 > 1) {RO_10000--; KEY.Key = 0;}	// Žč§žöīŽ≤ĄŪäľ žĚīŽ©ī ROÍįí 10000žĚė žěźŽ¶¨ ÍįźžÜĆ
    3896:	80 91 8e 4b 	lds	r24, 0x4B8E	; 0x804b8e <KEY+0x2>
    389a:	83 30       	cpi	r24, 0x03	; 3
    389c:	09 f0       	breq	.+2      	; 0x38a0 <RO_Set+0x296>
    389e:	7b c2       	rjmp	.+1270   	; 0x3d96 <RO_Set+0x78c>
    38a0:	f0 90 97 4b 	lds	r15, 0x4B97	; 0x804b97 <RO_10000>
    38a4:	00 91 98 4b 	lds	r16, 0x4B98	; 0x804b98 <RO_10000+0x1>
    38a8:	10 91 99 4b 	lds	r17, 0x4B99	; 0x804b99 <RO_10000+0x2>
    38ac:	80 91 9a 4b 	lds	r24, 0x4B9A	; 0x804b9a <RO_10000+0x3>
    38b0:	8a 83       	std	Y+2, r24	; 0x02
    38b2:	80 91 9b 4b 	lds	r24, 0x4B9B	; 0x804b9b <RO_10000+0x4>
    38b6:	89 83       	std	Y+1, r24	; 0x01
    38b8:	b0 91 9c 4b 	lds	r27, 0x4B9C	; 0x804b9c <RO_10000+0x5>
    38bc:	f0 91 9d 4b 	lds	r31, 0x4B9D	; 0x804b9d <RO_10000+0x6>
    38c0:	e0 91 9e 4b 	lds	r30, 0x4B9E	; 0x804b9e <RO_10000+0x7>
    38c4:	2f 2d       	mov	r18, r15
    38c6:	30 2f       	mov	r19, r16
    38c8:	41 2f       	mov	r20, r17
    38ca:	5a 81       	ldd	r21, Y+2	; 0x02
    38cc:	68 2f       	mov	r22, r24
    38ce:	7b 2f       	mov	r23, r27
    38d0:	8f 2f       	mov	r24, r31
    38d2:	9e 2f       	mov	r25, r30
    38d4:	a1 e0       	ldi	r26, 0x01	; 1
    38d6:	0e 94 b8 39 	call	0x7370	; 0x7370 <__cmpdi2_s8>
    38da:	09 f0       	breq	.+2      	; 0x38de <RO_Set+0x2d4>
    38dc:	08 f4       	brcc	.+2      	; 0x38e0 <RO_Set+0x2d6>
    38de:	5b c2       	rjmp	.+1206   	; 0x3d96 <RO_Set+0x78c>
    38e0:	af ef       	ldi	r26, 0xFF	; 255
    38e2:	0e 94 a3 39 	call	0x7346	; 0x7346 <__adddi3_s8>
    38e6:	20 93 97 4b 	sts	0x4B97, r18	; 0x804b97 <RO_10000>
    38ea:	30 93 98 4b 	sts	0x4B98, r19	; 0x804b98 <RO_10000+0x1>
    38ee:	40 93 99 4b 	sts	0x4B99, r20	; 0x804b99 <RO_10000+0x2>
    38f2:	50 93 9a 4b 	sts	0x4B9A, r21	; 0x804b9a <RO_10000+0x3>
    38f6:	60 93 9b 4b 	sts	0x4B9B, r22	; 0x804b9b <RO_10000+0x4>
    38fa:	70 93 9c 4b 	sts	0x4B9C, r23	; 0x804b9c <RO_10000+0x5>
    38fe:	80 93 9d 4b 	sts	0x4B9D, r24	; 0x804b9d <RO_10000+0x6>
    3902:	90 93 9e 4b 	sts	0x4B9E, r25	; 0x804b9e <RO_10000+0x7>
    3906:	10 92 8e 4b 	sts	0x4B8E, r1	; 0x804b8e <KEY+0x2>
    390a:	45 c2       	rjmp	.+1162   	; 0x3d96 <RO_Set+0x78c>
				}
			break;

			case 1:							// Ž°úŽďúžÖÄ RO 1000žĚė žěźŽ¶¨
				DIGIT[1][3] = fnd_tbl[RO_10000] + FND_Point;	// Ž°úŽďúžÖÄ RO 10000žĚė žěźŽ¶¨ ŪĎúžčú
    390c:	e0 91 97 4b 	lds	r30, 0x4B97	; 0x804b97 <RO_10000>
    3910:	f0 91 98 4b 	lds	r31, 0x4B98	; 0x804b98 <RO_10000+0x1>
    3914:	e9 5b       	subi	r30, 0xB9	; 185
    3916:	fe 4b       	sbci	r31, 0xBE	; 190
    3918:	80 81       	ld	r24, Z
    391a:	8f 5f       	subi	r24, 0xFF	; 255
    391c:	80 93 84 41 	sts	0x4184, r24	; 0x804184 <DIGIT+0x7>
				if(Blink) {DIGIT[1][2] = FND_OFF;}		// Blink = 1 žĚīŽ©ī Ž°úŽďúžÖÄ RO 1000žĚė žěźŽ¶¨ OFF
    3920:	80 91 b9 4b 	lds	r24, 0x4BB9	; 0x804bb9 <Blink>
    3924:	88 23       	and	r24, r24
    3926:	19 f0       	breq	.+6      	; 0x392e <RO_Set+0x324>
    3928:	10 92 83 41 	sts	0x4183, r1	; 0x804183 <DIGIT+0x6>
    392c:	09 c0       	rjmp	.+18     	; 0x3940 <RO_Set+0x336>
				else	  {DIGIT[1][2] = fnd_tbl[RO_1000];}	// Blink = 0 žĚīŽ©ī Ž°úŽďúžÖÄ RO 1000žĚė žěźŽ¶¨ ŪĎúžčú
    392e:	e0 91 c3 4c 	lds	r30, 0x4CC3	; 0x804cc3 <RO_1000>
    3932:	f0 91 c4 4c 	lds	r31, 0x4CC4	; 0x804cc4 <RO_1000+0x1>
    3936:	e9 5b       	subi	r30, 0xB9	; 185
    3938:	fe 4b       	sbci	r31, 0xBE	; 190
    393a:	80 81       	ld	r24, Z
    393c:	80 93 83 41 	sts	0x4183, r24	; 0x804183 <DIGIT+0x6>

				if(KEY.Buff)					// Key žěÖŽ†•žĚī žěąžúľŽ©ī
    3940:	80 91 8d 4b 	lds	r24, 0x4B8D	; 0x804b8d <KEY+0x1>
    3944:	88 23       	and	r24, r24
    3946:	09 f4       	brne	.+2      	; 0x394a <RO_Set+0x340>
    3948:	26 c2       	rjmp	.+1100   	; 0x3d96 <RO_Set+0x78c>
				{
					if     (KEY.Key == 1 && RO_1000 < 9) {RO_1000++; KEY.Key = 0;}		// žóÖ  Ž≤ĄŪäľ žĚīŽ©ī ROÍįí 1000žĚė žěźŽ¶¨ ž¶ĚÍįÄ
    394a:	80 91 8e 4b 	lds	r24, 0x4B8E	; 0x804b8e <KEY+0x2>
    394e:	81 30       	cpi	r24, 0x01	; 1
    3950:	a9 f5       	brne	.+106    	; 0x39bc <RO_Set+0x3b2>
    3952:	f0 90 c3 4c 	lds	r15, 0x4CC3	; 0x804cc3 <RO_1000>
    3956:	00 91 c4 4c 	lds	r16, 0x4CC4	; 0x804cc4 <RO_1000+0x1>
    395a:	10 91 c5 4c 	lds	r17, 0x4CC5	; 0x804cc5 <RO_1000+0x2>
    395e:	80 91 c6 4c 	lds	r24, 0x4CC6	; 0x804cc6 <RO_1000+0x3>
    3962:	8a 83       	std	Y+2, r24	; 0x02
    3964:	80 91 c7 4c 	lds	r24, 0x4CC7	; 0x804cc7 <RO_1000+0x4>
    3968:	89 83       	std	Y+1, r24	; 0x01
    396a:	b0 91 c8 4c 	lds	r27, 0x4CC8	; 0x804cc8 <RO_1000+0x5>
    396e:	f0 91 c9 4c 	lds	r31, 0x4CC9	; 0x804cc9 <RO_1000+0x6>
    3972:	e0 91 ca 4c 	lds	r30, 0x4CCA	; 0x804cca <RO_1000+0x7>
    3976:	2f 2d       	mov	r18, r15
    3978:	30 2f       	mov	r19, r16
    397a:	41 2f       	mov	r20, r17
    397c:	5a 81       	ldd	r21, Y+2	; 0x02
    397e:	68 2f       	mov	r22, r24
    3980:	7b 2f       	mov	r23, r27
    3982:	8f 2f       	mov	r24, r31
    3984:	9e 2f       	mov	r25, r30
    3986:	a8 e0       	ldi	r26, 0x08	; 8
    3988:	0e 94 b8 39 	call	0x7370	; 0x7370 <__cmpdi2_s8>
    398c:	09 f0       	breq	.+2      	; 0x3990 <RO_Set+0x386>
    398e:	b0 f4       	brcc	.+44     	; 0x39bc <RO_Set+0x3b2>
    3990:	a1 e0       	ldi	r26, 0x01	; 1
    3992:	0e 94 a3 39 	call	0x7346	; 0x7346 <__adddi3_s8>
    3996:	20 93 c3 4c 	sts	0x4CC3, r18	; 0x804cc3 <RO_1000>
    399a:	30 93 c4 4c 	sts	0x4CC4, r19	; 0x804cc4 <RO_1000+0x1>
    399e:	40 93 c5 4c 	sts	0x4CC5, r20	; 0x804cc5 <RO_1000+0x2>
    39a2:	50 93 c6 4c 	sts	0x4CC6, r21	; 0x804cc6 <RO_1000+0x3>
    39a6:	60 93 c7 4c 	sts	0x4CC7, r22	; 0x804cc7 <RO_1000+0x4>
    39aa:	70 93 c8 4c 	sts	0x4CC8, r23	; 0x804cc8 <RO_1000+0x5>
    39ae:	80 93 c9 4c 	sts	0x4CC9, r24	; 0x804cc9 <RO_1000+0x6>
    39b2:	90 93 ca 4c 	sts	0x4CCA, r25	; 0x804cca <RO_1000+0x7>
    39b6:	10 92 8e 4b 	sts	0x4B8E, r1	; 0x804b8e <KEY+0x2>
    39ba:	ed c1       	rjmp	.+986    	; 0x3d96 <RO_Set+0x78c>
					else if(KEY.Key == 3 && RO_1000 > 0) {RO_1000--; KEY.Key = 0;}		// Žč§žöīŽ≤ĄŪäľ žĚīŽ©ī ROÍįí 1000žĚė žěźŽ¶¨ ÍįźžÜĆ
    39bc:	80 91 8e 4b 	lds	r24, 0x4B8E	; 0x804b8e <KEY+0x2>
    39c0:	83 30       	cpi	r24, 0x03	; 3
    39c2:	09 f0       	breq	.+2      	; 0x39c6 <RO_Set+0x3bc>
    39c4:	e8 c1       	rjmp	.+976    	; 0x3d96 <RO_Set+0x78c>
    39c6:	f0 90 c3 4c 	lds	r15, 0x4CC3	; 0x804cc3 <RO_1000>
    39ca:	00 91 c4 4c 	lds	r16, 0x4CC4	; 0x804cc4 <RO_1000+0x1>
    39ce:	10 91 c5 4c 	lds	r17, 0x4CC5	; 0x804cc5 <RO_1000+0x2>
    39d2:	80 91 c6 4c 	lds	r24, 0x4CC6	; 0x804cc6 <RO_1000+0x3>
    39d6:	8a 83       	std	Y+2, r24	; 0x02
    39d8:	80 91 c7 4c 	lds	r24, 0x4CC7	; 0x804cc7 <RO_1000+0x4>
    39dc:	89 83       	std	Y+1, r24	; 0x01
    39de:	b0 91 c8 4c 	lds	r27, 0x4CC8	; 0x804cc8 <RO_1000+0x5>
    39e2:	f0 91 c9 4c 	lds	r31, 0x4CC9	; 0x804cc9 <RO_1000+0x6>
    39e6:	e0 91 ca 4c 	lds	r30, 0x4CCA	; 0x804cca <RO_1000+0x7>
    39ea:	2f 2d       	mov	r18, r15
    39ec:	30 2f       	mov	r19, r16
    39ee:	41 2f       	mov	r20, r17
    39f0:	5a 81       	ldd	r21, Y+2	; 0x02
    39f2:	68 2f       	mov	r22, r24
    39f4:	7b 2f       	mov	r23, r27
    39f6:	8f 2f       	mov	r24, r31
    39f8:	9e 2f       	mov	r25, r30
    39fa:	a0 e0       	ldi	r26, 0x00	; 0
    39fc:	0e 94 b8 39 	call	0x7370	; 0x7370 <__cmpdi2_s8>
    3a00:	09 f4       	brne	.+2      	; 0x3a04 <RO_Set+0x3fa>
    3a02:	c9 c1       	rjmp	.+914    	; 0x3d96 <RO_Set+0x78c>
    3a04:	af ef       	ldi	r26, 0xFF	; 255
    3a06:	0e 94 a3 39 	call	0x7346	; 0x7346 <__adddi3_s8>
    3a0a:	20 93 c3 4c 	sts	0x4CC3, r18	; 0x804cc3 <RO_1000>
    3a0e:	30 93 c4 4c 	sts	0x4CC4, r19	; 0x804cc4 <RO_1000+0x1>
    3a12:	40 93 c5 4c 	sts	0x4CC5, r20	; 0x804cc5 <RO_1000+0x2>
    3a16:	50 93 c6 4c 	sts	0x4CC6, r21	; 0x804cc6 <RO_1000+0x3>
    3a1a:	60 93 c7 4c 	sts	0x4CC7, r22	; 0x804cc7 <RO_1000+0x4>
    3a1e:	70 93 c8 4c 	sts	0x4CC8, r23	; 0x804cc8 <RO_1000+0x5>
    3a22:	80 93 c9 4c 	sts	0x4CC9, r24	; 0x804cc9 <RO_1000+0x6>
    3a26:	90 93 ca 4c 	sts	0x4CCA, r25	; 0x804cca <RO_1000+0x7>
    3a2a:	10 92 8e 4b 	sts	0x4B8E, r1	; 0x804b8e <KEY+0x2>
    3a2e:	b3 c1       	rjmp	.+870    	; 0x3d96 <RO_Set+0x78c>
				}
			break;

			case 2:							// Ž°úŽďúžÖÄ RO 100žĚė žěźŽ¶¨
				DIGIT[1][2] = fnd_tbl[RO_1000];			// Ž°úŽďúžÖÄ RO 1000žĚė žěźŽ¶¨ ŪĎúžčú
    3a30:	e0 91 c3 4c 	lds	r30, 0x4CC3	; 0x804cc3 <RO_1000>
    3a34:	f0 91 c4 4c 	lds	r31, 0x4CC4	; 0x804cc4 <RO_1000+0x1>
    3a38:	e9 5b       	subi	r30, 0xB9	; 185
    3a3a:	fe 4b       	sbci	r31, 0xBE	; 190
    3a3c:	80 81       	ld	r24, Z
    3a3e:	80 93 83 41 	sts	0x4183, r24	; 0x804183 <DIGIT+0x6>
				if(Blink) {DIGIT[1][1] = FND_OFF;}		// Blink = 1 žĚīŽ©ī Ž°úŽďúžÖÄ RO 100žĚė žěźŽ¶¨ OFF
    3a42:	80 91 b9 4b 	lds	r24, 0x4BB9	; 0x804bb9 <Blink>
    3a46:	88 23       	and	r24, r24
    3a48:	19 f0       	breq	.+6      	; 0x3a50 <RO_Set+0x446>
    3a4a:	10 92 82 41 	sts	0x4182, r1	; 0x804182 <DIGIT+0x5>
    3a4e:	09 c0       	rjmp	.+18     	; 0x3a62 <RO_Set+0x458>
				else	  {DIGIT[1][1] = fnd_tbl[RO_100];}	// Blink = 0 žĚīŽ©ī Ž°úŽďúžÖÄ RO 100žĚė žěźŽ¶¨ ŪĎúžčú
    3a50:	e0 91 b1 4b 	lds	r30, 0x4BB1	; 0x804bb1 <RO_100>
    3a54:	f0 91 b2 4b 	lds	r31, 0x4BB2	; 0x804bb2 <RO_100+0x1>
    3a58:	e9 5b       	subi	r30, 0xB9	; 185
    3a5a:	fe 4b       	sbci	r31, 0xBE	; 190
    3a5c:	80 81       	ld	r24, Z
    3a5e:	80 93 82 41 	sts	0x4182, r24	; 0x804182 <DIGIT+0x5>

				if(KEY.Buff)					// Key žěÖŽ†•žĚī žěąžúľŽ©ī
    3a62:	80 91 8d 4b 	lds	r24, 0x4B8D	; 0x804b8d <KEY+0x1>
    3a66:	88 23       	and	r24, r24
    3a68:	09 f4       	brne	.+2      	; 0x3a6c <RO_Set+0x462>
    3a6a:	95 c1       	rjmp	.+810    	; 0x3d96 <RO_Set+0x78c>
				{
					if     (KEY.Key == 1 && RO_100 < 9) {RO_100++; KEY.Key = 0;}		// žóÖ  Ž≤ĄŪäľ žĚīŽ©ī ROÍįí 100žĚė žěźŽ¶¨ ž¶ĚÍįÄ
    3a6c:	80 91 8e 4b 	lds	r24, 0x4B8E	; 0x804b8e <KEY+0x2>
    3a70:	81 30       	cpi	r24, 0x01	; 1
    3a72:	a9 f5       	brne	.+106    	; 0x3ade <RO_Set+0x4d4>
    3a74:	f0 90 b1 4b 	lds	r15, 0x4BB1	; 0x804bb1 <RO_100>
    3a78:	00 91 b2 4b 	lds	r16, 0x4BB2	; 0x804bb2 <RO_100+0x1>
    3a7c:	10 91 b3 4b 	lds	r17, 0x4BB3	; 0x804bb3 <RO_100+0x2>
    3a80:	80 91 b4 4b 	lds	r24, 0x4BB4	; 0x804bb4 <RO_100+0x3>
    3a84:	8a 83       	std	Y+2, r24	; 0x02
    3a86:	80 91 b5 4b 	lds	r24, 0x4BB5	; 0x804bb5 <RO_100+0x4>
    3a8a:	89 83       	std	Y+1, r24	; 0x01
    3a8c:	b0 91 b6 4b 	lds	r27, 0x4BB6	; 0x804bb6 <RO_100+0x5>
    3a90:	f0 91 b7 4b 	lds	r31, 0x4BB7	; 0x804bb7 <RO_100+0x6>
    3a94:	e0 91 b8 4b 	lds	r30, 0x4BB8	; 0x804bb8 <RO_100+0x7>
    3a98:	2f 2d       	mov	r18, r15
    3a9a:	30 2f       	mov	r19, r16
    3a9c:	41 2f       	mov	r20, r17
    3a9e:	5a 81       	ldd	r21, Y+2	; 0x02
    3aa0:	68 2f       	mov	r22, r24
    3aa2:	7b 2f       	mov	r23, r27
    3aa4:	8f 2f       	mov	r24, r31
    3aa6:	9e 2f       	mov	r25, r30
    3aa8:	a8 e0       	ldi	r26, 0x08	; 8
    3aaa:	0e 94 b8 39 	call	0x7370	; 0x7370 <__cmpdi2_s8>
    3aae:	09 f0       	breq	.+2      	; 0x3ab2 <RO_Set+0x4a8>
    3ab0:	b0 f4       	brcc	.+44     	; 0x3ade <RO_Set+0x4d4>
    3ab2:	a1 e0       	ldi	r26, 0x01	; 1
    3ab4:	0e 94 a3 39 	call	0x7346	; 0x7346 <__adddi3_s8>
    3ab8:	20 93 b1 4b 	sts	0x4BB1, r18	; 0x804bb1 <RO_100>
    3abc:	30 93 b2 4b 	sts	0x4BB2, r19	; 0x804bb2 <RO_100+0x1>
    3ac0:	40 93 b3 4b 	sts	0x4BB3, r20	; 0x804bb3 <RO_100+0x2>
    3ac4:	50 93 b4 4b 	sts	0x4BB4, r21	; 0x804bb4 <RO_100+0x3>
    3ac8:	60 93 b5 4b 	sts	0x4BB5, r22	; 0x804bb5 <RO_100+0x4>
    3acc:	70 93 b6 4b 	sts	0x4BB6, r23	; 0x804bb6 <RO_100+0x5>
    3ad0:	80 93 b7 4b 	sts	0x4BB7, r24	; 0x804bb7 <RO_100+0x6>
    3ad4:	90 93 b8 4b 	sts	0x4BB8, r25	; 0x804bb8 <RO_100+0x7>
    3ad8:	10 92 8e 4b 	sts	0x4B8E, r1	; 0x804b8e <KEY+0x2>
    3adc:	5c c1       	rjmp	.+696    	; 0x3d96 <RO_Set+0x78c>
					else if(KEY.Key == 3 && RO_100 > 0) {RO_100--; KEY.Key = 0;}		// Žč§žöīŽ≤ĄŪäľ žĚīŽ©ī ROÍįí 100žĚė žěźŽ¶¨ ÍįźžÜĆ
    3ade:	80 91 8e 4b 	lds	r24, 0x4B8E	; 0x804b8e <KEY+0x2>
    3ae2:	83 30       	cpi	r24, 0x03	; 3
    3ae4:	09 f0       	breq	.+2      	; 0x3ae8 <RO_Set+0x4de>
    3ae6:	57 c1       	rjmp	.+686    	; 0x3d96 <RO_Set+0x78c>
    3ae8:	f0 90 b1 4b 	lds	r15, 0x4BB1	; 0x804bb1 <RO_100>
    3aec:	00 91 b2 4b 	lds	r16, 0x4BB2	; 0x804bb2 <RO_100+0x1>
    3af0:	10 91 b3 4b 	lds	r17, 0x4BB3	; 0x804bb3 <RO_100+0x2>
    3af4:	80 91 b4 4b 	lds	r24, 0x4BB4	; 0x804bb4 <RO_100+0x3>
    3af8:	8a 83       	std	Y+2, r24	; 0x02
    3afa:	80 91 b5 4b 	lds	r24, 0x4BB5	; 0x804bb5 <RO_100+0x4>
    3afe:	89 83       	std	Y+1, r24	; 0x01
    3b00:	b0 91 b6 4b 	lds	r27, 0x4BB6	; 0x804bb6 <RO_100+0x5>
    3b04:	f0 91 b7 4b 	lds	r31, 0x4BB7	; 0x804bb7 <RO_100+0x6>
    3b08:	e0 91 b8 4b 	lds	r30, 0x4BB8	; 0x804bb8 <RO_100+0x7>
    3b0c:	2f 2d       	mov	r18, r15
    3b0e:	30 2f       	mov	r19, r16
    3b10:	41 2f       	mov	r20, r17
    3b12:	5a 81       	ldd	r21, Y+2	; 0x02
    3b14:	68 2f       	mov	r22, r24
    3b16:	7b 2f       	mov	r23, r27
    3b18:	8f 2f       	mov	r24, r31
    3b1a:	9e 2f       	mov	r25, r30
    3b1c:	a0 e0       	ldi	r26, 0x00	; 0
    3b1e:	0e 94 b8 39 	call	0x7370	; 0x7370 <__cmpdi2_s8>
    3b22:	09 f4       	brne	.+2      	; 0x3b26 <RO_Set+0x51c>
    3b24:	38 c1       	rjmp	.+624    	; 0x3d96 <RO_Set+0x78c>
    3b26:	af ef       	ldi	r26, 0xFF	; 255
    3b28:	0e 94 a3 39 	call	0x7346	; 0x7346 <__adddi3_s8>
    3b2c:	20 93 b1 4b 	sts	0x4BB1, r18	; 0x804bb1 <RO_100>
    3b30:	30 93 b2 4b 	sts	0x4BB2, r19	; 0x804bb2 <RO_100+0x1>
    3b34:	40 93 b3 4b 	sts	0x4BB3, r20	; 0x804bb3 <RO_100+0x2>
    3b38:	50 93 b4 4b 	sts	0x4BB4, r21	; 0x804bb4 <RO_100+0x3>
    3b3c:	60 93 b5 4b 	sts	0x4BB5, r22	; 0x804bb5 <RO_100+0x4>
    3b40:	70 93 b6 4b 	sts	0x4BB6, r23	; 0x804bb6 <RO_100+0x5>
    3b44:	80 93 b7 4b 	sts	0x4BB7, r24	; 0x804bb7 <RO_100+0x6>
    3b48:	90 93 b8 4b 	sts	0x4BB8, r25	; 0x804bb8 <RO_100+0x7>
    3b4c:	10 92 8e 4b 	sts	0x4B8E, r1	; 0x804b8e <KEY+0x2>
    3b50:	22 c1       	rjmp	.+580    	; 0x3d96 <RO_Set+0x78c>
				}
			break;

			case 3:							// Ž°úŽďúžÖÄ RO 10žĚė žěźŽ¶¨
				DIGIT[1][1] = fnd_tbl[RO_100];			// Ž°úŽďúžÖÄ RO 100žĚė žěźŽ¶¨ ŪĎúžčú
    3b52:	e0 91 b1 4b 	lds	r30, 0x4BB1	; 0x804bb1 <RO_100>
    3b56:	f0 91 b2 4b 	lds	r31, 0x4BB2	; 0x804bb2 <RO_100+0x1>
    3b5a:	e9 5b       	subi	r30, 0xB9	; 185
    3b5c:	fe 4b       	sbci	r31, 0xBE	; 190
    3b5e:	80 81       	ld	r24, Z
    3b60:	80 93 82 41 	sts	0x4182, r24	; 0x804182 <DIGIT+0x5>
				if(Blink) {DIGIT[1][0] = FND_OFF;}		// Blink = 1 žĚīŽ©ī Ž°úŽďúžÖÄ RO 10žĚė žěźŽ¶¨ OFF
    3b64:	80 91 b9 4b 	lds	r24, 0x4BB9	; 0x804bb9 <Blink>
    3b68:	88 23       	and	r24, r24
    3b6a:	19 f0       	breq	.+6      	; 0x3b72 <RO_Set+0x568>
    3b6c:	10 92 81 41 	sts	0x4181, r1	; 0x804181 <DIGIT+0x4>
    3b70:	09 c0       	rjmp	.+18     	; 0x3b84 <RO_Set+0x57a>
				else	  {DIGIT[1][0] = fnd_tbl[RO_10];}	// Blink = 0 žĚīŽ©ī Ž°úŽďúžÖÄ RO 10žĚė žěźŽ¶¨ ŪĎúžčú
    3b72:	e0 91 7f 4b 	lds	r30, 0x4B7F	; 0x804b7f <RO_10>
    3b76:	f0 91 80 4b 	lds	r31, 0x4B80	; 0x804b80 <RO_10+0x1>
    3b7a:	e9 5b       	subi	r30, 0xB9	; 185
    3b7c:	fe 4b       	sbci	r31, 0xBE	; 190
    3b7e:	80 81       	ld	r24, Z
    3b80:	80 93 81 41 	sts	0x4181, r24	; 0x804181 <DIGIT+0x4>

				if(KEY.Buff)					// Key žěÖŽ†•žĚī žěąžúľŽ©ī
    3b84:	80 91 8d 4b 	lds	r24, 0x4B8D	; 0x804b8d <KEY+0x1>
    3b88:	88 23       	and	r24, r24
    3b8a:	09 f4       	brne	.+2      	; 0x3b8e <RO_Set+0x584>
    3b8c:	04 c1       	rjmp	.+520    	; 0x3d96 <RO_Set+0x78c>
				{
					if     (KEY.Key == 1 && RO_10 < 9) {RO_10++; KEY.Key = 0;}		// žóÖ  Ž≤ĄŪäľ žĚīŽ©ī ROÍįí 10žĚė žěźŽ¶¨ ž¶ĚÍįÄ
    3b8e:	80 91 8e 4b 	lds	r24, 0x4B8E	; 0x804b8e <KEY+0x2>
    3b92:	81 30       	cpi	r24, 0x01	; 1
    3b94:	a9 f5       	brne	.+106    	; 0x3c00 <RO_Set+0x5f6>
    3b96:	f0 90 7f 4b 	lds	r15, 0x4B7F	; 0x804b7f <RO_10>
    3b9a:	00 91 80 4b 	lds	r16, 0x4B80	; 0x804b80 <RO_10+0x1>
    3b9e:	10 91 81 4b 	lds	r17, 0x4B81	; 0x804b81 <RO_10+0x2>
    3ba2:	80 91 82 4b 	lds	r24, 0x4B82	; 0x804b82 <RO_10+0x3>
    3ba6:	8a 83       	std	Y+2, r24	; 0x02
    3ba8:	80 91 83 4b 	lds	r24, 0x4B83	; 0x804b83 <RO_10+0x4>
    3bac:	89 83       	std	Y+1, r24	; 0x01
    3bae:	b0 91 84 4b 	lds	r27, 0x4B84	; 0x804b84 <RO_10+0x5>
    3bb2:	f0 91 85 4b 	lds	r31, 0x4B85	; 0x804b85 <RO_10+0x6>
    3bb6:	e0 91 86 4b 	lds	r30, 0x4B86	; 0x804b86 <RO_10+0x7>
    3bba:	2f 2d       	mov	r18, r15
    3bbc:	30 2f       	mov	r19, r16
    3bbe:	41 2f       	mov	r20, r17
    3bc0:	5a 81       	ldd	r21, Y+2	; 0x02
    3bc2:	68 2f       	mov	r22, r24
    3bc4:	7b 2f       	mov	r23, r27
    3bc6:	8f 2f       	mov	r24, r31
    3bc8:	9e 2f       	mov	r25, r30
    3bca:	a8 e0       	ldi	r26, 0x08	; 8
    3bcc:	0e 94 b8 39 	call	0x7370	; 0x7370 <__cmpdi2_s8>
    3bd0:	09 f0       	breq	.+2      	; 0x3bd4 <RO_Set+0x5ca>
    3bd2:	b0 f4       	brcc	.+44     	; 0x3c00 <RO_Set+0x5f6>
    3bd4:	a1 e0       	ldi	r26, 0x01	; 1
    3bd6:	0e 94 a3 39 	call	0x7346	; 0x7346 <__adddi3_s8>
    3bda:	20 93 7f 4b 	sts	0x4B7F, r18	; 0x804b7f <RO_10>
    3bde:	30 93 80 4b 	sts	0x4B80, r19	; 0x804b80 <RO_10+0x1>
    3be2:	40 93 81 4b 	sts	0x4B81, r20	; 0x804b81 <RO_10+0x2>
    3be6:	50 93 82 4b 	sts	0x4B82, r21	; 0x804b82 <RO_10+0x3>
    3bea:	60 93 83 4b 	sts	0x4B83, r22	; 0x804b83 <RO_10+0x4>
    3bee:	70 93 84 4b 	sts	0x4B84, r23	; 0x804b84 <RO_10+0x5>
    3bf2:	80 93 85 4b 	sts	0x4B85, r24	; 0x804b85 <RO_10+0x6>
    3bf6:	90 93 86 4b 	sts	0x4B86, r25	; 0x804b86 <RO_10+0x7>
    3bfa:	10 92 8e 4b 	sts	0x4B8E, r1	; 0x804b8e <KEY+0x2>
    3bfe:	cb c0       	rjmp	.+406    	; 0x3d96 <RO_Set+0x78c>
					else if(KEY.Key == 3 && RO_10 > 0) {RO_10--; KEY.Key = 0;}		// Žč§žöīŽ≤ĄŪäľ žĚīŽ©ī ROÍįí 10žĚė žěźŽ¶¨ ÍįźžÜĆ
    3c00:	80 91 8e 4b 	lds	r24, 0x4B8E	; 0x804b8e <KEY+0x2>
    3c04:	83 30       	cpi	r24, 0x03	; 3
    3c06:	09 f0       	breq	.+2      	; 0x3c0a <RO_Set+0x600>
    3c08:	c6 c0       	rjmp	.+396    	; 0x3d96 <RO_Set+0x78c>
    3c0a:	f0 90 7f 4b 	lds	r15, 0x4B7F	; 0x804b7f <RO_10>
    3c0e:	00 91 80 4b 	lds	r16, 0x4B80	; 0x804b80 <RO_10+0x1>
    3c12:	10 91 81 4b 	lds	r17, 0x4B81	; 0x804b81 <RO_10+0x2>
    3c16:	80 91 82 4b 	lds	r24, 0x4B82	; 0x804b82 <RO_10+0x3>
    3c1a:	8a 83       	std	Y+2, r24	; 0x02
    3c1c:	80 91 83 4b 	lds	r24, 0x4B83	; 0x804b83 <RO_10+0x4>
    3c20:	89 83       	std	Y+1, r24	; 0x01
    3c22:	b0 91 84 4b 	lds	r27, 0x4B84	; 0x804b84 <RO_10+0x5>
    3c26:	f0 91 85 4b 	lds	r31, 0x4B85	; 0x804b85 <RO_10+0x6>
    3c2a:	e0 91 86 4b 	lds	r30, 0x4B86	; 0x804b86 <RO_10+0x7>
    3c2e:	2f 2d       	mov	r18, r15
    3c30:	30 2f       	mov	r19, r16
    3c32:	41 2f       	mov	r20, r17
    3c34:	5a 81       	ldd	r21, Y+2	; 0x02
    3c36:	68 2f       	mov	r22, r24
    3c38:	7b 2f       	mov	r23, r27
    3c3a:	8f 2f       	mov	r24, r31
    3c3c:	9e 2f       	mov	r25, r30
    3c3e:	a0 e0       	ldi	r26, 0x00	; 0
    3c40:	0e 94 b8 39 	call	0x7370	; 0x7370 <__cmpdi2_s8>
    3c44:	09 f4       	brne	.+2      	; 0x3c48 <RO_Set+0x63e>
    3c46:	a7 c0       	rjmp	.+334    	; 0x3d96 <RO_Set+0x78c>
    3c48:	af ef       	ldi	r26, 0xFF	; 255
    3c4a:	0e 94 a3 39 	call	0x7346	; 0x7346 <__adddi3_s8>
    3c4e:	20 93 7f 4b 	sts	0x4B7F, r18	; 0x804b7f <RO_10>
    3c52:	30 93 80 4b 	sts	0x4B80, r19	; 0x804b80 <RO_10+0x1>
    3c56:	40 93 81 4b 	sts	0x4B81, r20	; 0x804b81 <RO_10+0x2>
    3c5a:	50 93 82 4b 	sts	0x4B82, r21	; 0x804b82 <RO_10+0x3>
    3c5e:	60 93 83 4b 	sts	0x4B83, r22	; 0x804b83 <RO_10+0x4>
    3c62:	70 93 84 4b 	sts	0x4B84, r23	; 0x804b84 <RO_10+0x5>
    3c66:	80 93 85 4b 	sts	0x4B85, r24	; 0x804b85 <RO_10+0x6>
    3c6a:	90 93 86 4b 	sts	0x4B86, r25	; 0x804b86 <RO_10+0x7>
    3c6e:	10 92 8e 4b 	sts	0x4B8E, r1	; 0x804b8e <KEY+0x2>
    3c72:	91 c0       	rjmp	.+290    	; 0x3d96 <RO_Set+0x78c>
				}
			break;

			case 4:							// Ž°úŽďúžÖÄ RO 1žĚė žěźŽ¶¨
				DIGIT[1][0] = fnd_tbl[RO_10];			// Ž°úŽďúžÖÄ RO 10žĚė žěźŽ¶¨ ŪĎúžčú
    3c74:	e0 91 7f 4b 	lds	r30, 0x4B7F	; 0x804b7f <RO_10>
    3c78:	f0 91 80 4b 	lds	r31, 0x4B80	; 0x804b80 <RO_10+0x1>
    3c7c:	e9 5b       	subi	r30, 0xB9	; 185
    3c7e:	fe 4b       	sbci	r31, 0xBE	; 190
    3c80:	80 81       	ld	r24, Z
    3c82:	80 93 81 41 	sts	0x4181, r24	; 0x804181 <DIGIT+0x4>
				if(Blink) {DIGIT[2][3] = FND_OFF;}		// Blink = 1 žĚīŽ©ī Ž°úŽďúžÖÄ RO 1žĚė žěźŽ¶¨ OFF
    3c86:	80 91 b9 4b 	lds	r24, 0x4BB9	; 0x804bb9 <Blink>
    3c8a:	88 23       	and	r24, r24
    3c8c:	19 f0       	breq	.+6      	; 0x3c94 <RO_Set+0x68a>
    3c8e:	10 92 88 41 	sts	0x4188, r1	; 0x804188 <DIGIT+0xb>
    3c92:	09 c0       	rjmp	.+18     	; 0x3ca6 <RO_Set+0x69c>
				else	  {DIGIT[2][3] = fnd_tbl[RO_1];}	// Blink = 0 žĚīŽ©ī Ž°úŽďúžÖÄ RO 1žĚė žěźŽ¶¨ ŪĎúžčú
    3c94:	e0 91 be 4b 	lds	r30, 0x4BBE	; 0x804bbe <RO_1>
    3c98:	f0 91 bf 4b 	lds	r31, 0x4BBF	; 0x804bbf <RO_1+0x1>
    3c9c:	e9 5b       	subi	r30, 0xB9	; 185
    3c9e:	fe 4b       	sbci	r31, 0xBE	; 190
    3ca0:	80 81       	ld	r24, Z
    3ca2:	80 93 88 41 	sts	0x4188, r24	; 0x804188 <DIGIT+0xb>

				if(KEY.Buff)					// Key žěÖŽ†•žĚī žěąžúľŽ©ī
    3ca6:	80 91 8d 4b 	lds	r24, 0x4B8D	; 0x804b8d <KEY+0x1>
    3caa:	88 23       	and	r24, r24
    3cac:	09 f4       	brne	.+2      	; 0x3cb0 <RO_Set+0x6a6>
    3cae:	73 c0       	rjmp	.+230    	; 0x3d96 <RO_Set+0x78c>
				{
					if     (KEY.Key == 1 && RO_1 < 9) {RO_1++; KEY.Key = 0;}		// žóÖ  Ž≤ĄŪäľ žĚīŽ©ī ROÍįí 1žĚė žěźŽ¶¨ ž¶ĚÍįÄ
    3cb0:	80 91 8e 4b 	lds	r24, 0x4B8E	; 0x804b8e <KEY+0x2>
    3cb4:	81 30       	cpi	r24, 0x01	; 1
    3cb6:	a9 f5       	brne	.+106    	; 0x3d22 <RO_Set+0x718>
    3cb8:	f0 90 be 4b 	lds	r15, 0x4BBE	; 0x804bbe <RO_1>
    3cbc:	00 91 bf 4b 	lds	r16, 0x4BBF	; 0x804bbf <RO_1+0x1>
    3cc0:	10 91 c0 4b 	lds	r17, 0x4BC0	; 0x804bc0 <RO_1+0x2>
    3cc4:	80 91 c1 4b 	lds	r24, 0x4BC1	; 0x804bc1 <RO_1+0x3>
    3cc8:	8a 83       	std	Y+2, r24	; 0x02
    3cca:	80 91 c2 4b 	lds	r24, 0x4BC2	; 0x804bc2 <RO_1+0x4>
    3cce:	89 83       	std	Y+1, r24	; 0x01
    3cd0:	b0 91 c3 4b 	lds	r27, 0x4BC3	; 0x804bc3 <RO_1+0x5>
    3cd4:	f0 91 c4 4b 	lds	r31, 0x4BC4	; 0x804bc4 <RO_1+0x6>
    3cd8:	e0 91 c5 4b 	lds	r30, 0x4BC5	; 0x804bc5 <RO_1+0x7>
    3cdc:	2f 2d       	mov	r18, r15
    3cde:	30 2f       	mov	r19, r16
    3ce0:	41 2f       	mov	r20, r17
    3ce2:	5a 81       	ldd	r21, Y+2	; 0x02
    3ce4:	68 2f       	mov	r22, r24
    3ce6:	7b 2f       	mov	r23, r27
    3ce8:	8f 2f       	mov	r24, r31
    3cea:	9e 2f       	mov	r25, r30
    3cec:	a8 e0       	ldi	r26, 0x08	; 8
    3cee:	0e 94 b8 39 	call	0x7370	; 0x7370 <__cmpdi2_s8>
    3cf2:	09 f0       	breq	.+2      	; 0x3cf6 <RO_Set+0x6ec>
    3cf4:	b0 f4       	brcc	.+44     	; 0x3d22 <RO_Set+0x718>
    3cf6:	a1 e0       	ldi	r26, 0x01	; 1
    3cf8:	0e 94 a3 39 	call	0x7346	; 0x7346 <__adddi3_s8>
    3cfc:	20 93 be 4b 	sts	0x4BBE, r18	; 0x804bbe <RO_1>
    3d00:	30 93 bf 4b 	sts	0x4BBF, r19	; 0x804bbf <RO_1+0x1>
    3d04:	40 93 c0 4b 	sts	0x4BC0, r20	; 0x804bc0 <RO_1+0x2>
    3d08:	50 93 c1 4b 	sts	0x4BC1, r21	; 0x804bc1 <RO_1+0x3>
    3d0c:	60 93 c2 4b 	sts	0x4BC2, r22	; 0x804bc2 <RO_1+0x4>
    3d10:	70 93 c3 4b 	sts	0x4BC3, r23	; 0x804bc3 <RO_1+0x5>
    3d14:	80 93 c4 4b 	sts	0x4BC4, r24	; 0x804bc4 <RO_1+0x6>
    3d18:	90 93 c5 4b 	sts	0x4BC5, r25	; 0x804bc5 <RO_1+0x7>
    3d1c:	10 92 8e 4b 	sts	0x4B8E, r1	; 0x804b8e <KEY+0x2>
    3d20:	3a c0       	rjmp	.+116    	; 0x3d96 <RO_Set+0x78c>
					else if(KEY.Key == 3 && RO_1 > 0) {RO_1--; KEY.Key = 0;}		// Žč§žöīŽ≤ĄŪäľ žĚīŽ©ī ROÍįí 1žĚė žěźŽ¶¨ ÍįźžÜĆ
    3d22:	80 91 8e 4b 	lds	r24, 0x4B8E	; 0x804b8e <KEY+0x2>
    3d26:	83 30       	cpi	r24, 0x03	; 3
    3d28:	b1 f5       	brne	.+108    	; 0x3d96 <RO_Set+0x78c>
    3d2a:	f0 90 be 4b 	lds	r15, 0x4BBE	; 0x804bbe <RO_1>
    3d2e:	00 91 bf 4b 	lds	r16, 0x4BBF	; 0x804bbf <RO_1+0x1>
    3d32:	10 91 c0 4b 	lds	r17, 0x4BC0	; 0x804bc0 <RO_1+0x2>
    3d36:	80 91 c1 4b 	lds	r24, 0x4BC1	; 0x804bc1 <RO_1+0x3>
    3d3a:	8a 83       	std	Y+2, r24	; 0x02
    3d3c:	80 91 c2 4b 	lds	r24, 0x4BC2	; 0x804bc2 <RO_1+0x4>
    3d40:	89 83       	std	Y+1, r24	; 0x01
    3d42:	b0 91 c3 4b 	lds	r27, 0x4BC3	; 0x804bc3 <RO_1+0x5>
    3d46:	f0 91 c4 4b 	lds	r31, 0x4BC4	; 0x804bc4 <RO_1+0x6>
    3d4a:	e0 91 c5 4b 	lds	r30, 0x4BC5	; 0x804bc5 <RO_1+0x7>
    3d4e:	2f 2d       	mov	r18, r15
    3d50:	30 2f       	mov	r19, r16
    3d52:	41 2f       	mov	r20, r17
    3d54:	5a 81       	ldd	r21, Y+2	; 0x02
    3d56:	68 2f       	mov	r22, r24
    3d58:	7b 2f       	mov	r23, r27
    3d5a:	8f 2f       	mov	r24, r31
    3d5c:	9e 2f       	mov	r25, r30
    3d5e:	a0 e0       	ldi	r26, 0x00	; 0
    3d60:	0e 94 b8 39 	call	0x7370	; 0x7370 <__cmpdi2_s8>
    3d64:	c1 f0       	breq	.+48     	; 0x3d96 <RO_Set+0x78c>
    3d66:	af ef       	ldi	r26, 0xFF	; 255
    3d68:	0e 94 a3 39 	call	0x7346	; 0x7346 <__adddi3_s8>
    3d6c:	20 93 be 4b 	sts	0x4BBE, r18	; 0x804bbe <RO_1>
    3d70:	30 93 bf 4b 	sts	0x4BBF, r19	; 0x804bbf <RO_1+0x1>
    3d74:	40 93 c0 4b 	sts	0x4BC0, r20	; 0x804bc0 <RO_1+0x2>
    3d78:	50 93 c1 4b 	sts	0x4BC1, r21	; 0x804bc1 <RO_1+0x3>
    3d7c:	60 93 c2 4b 	sts	0x4BC2, r22	; 0x804bc2 <RO_1+0x4>
    3d80:	70 93 c3 4b 	sts	0x4BC3, r23	; 0x804bc3 <RO_1+0x5>
    3d84:	80 93 c4 4b 	sts	0x4BC4, r24	; 0x804bc4 <RO_1+0x6>
    3d88:	90 93 c5 4b 	sts	0x4BC5, r25	; 0x804bc5 <RO_1+0x7>
    3d8c:	10 92 8e 4b 	sts	0x4B8E, r1	; 0x804b8e <KEY+0x2>
    3d90:	02 c0       	rjmp	.+4      	; 0x3d96 <RO_Set+0x78c>
				}
			break;

			case 5:
				KEY.Count = 0;					// ŽįėŽ≥ĶžĚĄ žúĄŪēī KEY.Count Ž•ľ žīąÍłįŪôĒ žčúŪāī
    3d92:	10 92 8c 4b 	sts	0x4B8C, r1	; 0x804b8c <KEY>
			break;
		}
		wdt_reset();							// žõĆžĻėŽŹÖ Ž¶¨žÖč
    3d96:	0e 94 17 0d 	call	0x1a2e	; 0x1a2e <wdt_reset>
	RO_1000  = RO % 10000 / 1000;						// Ž°úŽďúžÖÄ RO  1000žĚė žěźŽ¶¨
	RO_100   = RO % 1000 / 100;						// Ž°úŽďúžÖÄ RO   100žĚė žěźŽ¶¨
	RO_10    = RO % 100 / 10;						// Ž°úŽďúžÖÄ RO    10žĚė žěźŽ¶¨
	RO_1     = RO % 10;							// Ž°úŽďúžÖÄ RO     1žĚė žěźŽ¶¨
//-------------------------------------------------------------------------------------------------
	while(SET.Menu)								// Ž©ĒŽČīÍįÄ 1 žĚīŽ©ī ŽįėŽ≥Ķ
    3d9a:	80 91 48 4b 	lds	r24, 0x4B48	; 0x804b48 <SET>
    3d9e:	81 11       	cpse	r24, r1
    3da0:	0a cd       	rjmp	.-1516   	; 0x37b6 <RO_Set+0x1ac>
		}
		wdt_reset();							// žõĆžĻėŽŹÖ Ž¶¨žÖč
	}
//-------------------------------------------------------------------------------------------------
	RO = 0;
	RO += (RO_10000 * 10000);						// Ž°úŽďúžÖÄ RO 10000žĚė žěźŽ¶¨
    3da2:	68 94       	set
    3da4:	aa 24       	eor	r10, r10
    3da6:	a4 f8       	bld	r10, 4
    3da8:	0f 2e       	mov	r0, r31
    3daa:	f7 e2       	ldi	r31, 0x27	; 39
    3dac:	bf 2e       	mov	r11, r31
    3dae:	f0 2d       	mov	r31, r0
    3db0:	c1 2c       	mov	r12, r1
    3db2:	d1 2c       	mov	r13, r1
    3db4:	e1 2c       	mov	r14, r1
    3db6:	f1 2c       	mov	r15, r1
    3db8:	00 e0       	ldi	r16, 0x00	; 0
    3dba:	10 e0       	ldi	r17, 0x00	; 0
    3dbc:	20 91 97 4b 	lds	r18, 0x4B97	; 0x804b97 <RO_10000>
    3dc0:	30 91 98 4b 	lds	r19, 0x4B98	; 0x804b98 <RO_10000+0x1>
    3dc4:	40 91 99 4b 	lds	r20, 0x4B99	; 0x804b99 <RO_10000+0x2>
    3dc8:	50 91 9a 4b 	lds	r21, 0x4B9A	; 0x804b9a <RO_10000+0x3>
    3dcc:	60 91 9b 4b 	lds	r22, 0x4B9B	; 0x804b9b <RO_10000+0x4>
    3dd0:	70 91 9c 4b 	lds	r23, 0x4B9C	; 0x804b9c <RO_10000+0x5>
    3dd4:	80 91 9d 4b 	lds	r24, 0x4B9D	; 0x804b9d <RO_10000+0x6>
    3dd8:	90 91 9e 4b 	lds	r25, 0x4B9E	; 0x804b9e <RO_10000+0x7>
    3ddc:	0e 94 c9 38 	call	0x7192	; 0x7192 <__muldi3>
    3de0:	62 2e       	mov	r6, r18
    3de2:	73 2e       	mov	r7, r19
    3de4:	84 2e       	mov	r8, r20
    3de6:	95 2e       	mov	r9, r21
    3de8:	6d 83       	std	Y+5, r22	; 0x05
    3dea:	79 83       	std	Y+1, r23	; 0x01
    3dec:	8a 83       	std	Y+2, r24	; 0x02
    3dee:	9b 83       	std	Y+3, r25	; 0x03
	RO += (RO_1000  * 1000);						// Ž°úŽďúžÖÄ RO  1000žĚė žěźŽ¶¨
    3df0:	e0 91 c3 4c 	lds	r30, 0x4CC3	; 0x804cc3 <RO_1000>
    3df4:	50 90 c4 4c 	lds	r5, 0x4CC4	; 0x804cc4 <RO_1000+0x1>
    3df8:	40 90 c5 4c 	lds	r4, 0x4CC5	; 0x804cc5 <RO_1000+0x2>
    3dfc:	30 90 c6 4c 	lds	r3, 0x4CC6	; 0x804cc6 <RO_1000+0x3>
    3e00:	20 90 c7 4c 	lds	r2, 0x4CC7	; 0x804cc7 <RO_1000+0x4>
    3e04:	80 91 c8 4c 	lds	r24, 0x4CC8	; 0x804cc8 <RO_1000+0x5>
    3e08:	8c 83       	std	Y+4, r24	; 0x04
    3e0a:	b0 91 c9 4c 	lds	r27, 0x4CC9	; 0x804cc9 <RO_1000+0x6>
    3e0e:	a0 91 ca 4c 	lds	r26, 0x4CCA	; 0x804cca <RO_1000+0x7>
    3e12:	2e 2f       	mov	r18, r30
    3e14:	35 2d       	mov	r19, r5
    3e16:	44 2d       	mov	r20, r4
    3e18:	53 2d       	mov	r21, r3
    3e1a:	62 2d       	mov	r22, r2
    3e1c:	78 2f       	mov	r23, r24
    3e1e:	8b 2f       	mov	r24, r27
    3e20:	9a 2f       	mov	r25, r26
    3e22:	02 e0       	ldi	r16, 0x02	; 2
    3e24:	0e 94 81 39 	call	0x7302	; 0x7302 <__ashldi3>
    3e28:	a2 2e       	mov	r10, r18
    3e2a:	b3 2e       	mov	r11, r19
    3e2c:	c4 2e       	mov	r12, r20
    3e2e:	d5 2e       	mov	r13, r21
    3e30:	e6 2e       	mov	r14, r22
    3e32:	f7 2e       	mov	r15, r23
    3e34:	f8 2f       	mov	r31, r24
    3e36:	19 2f       	mov	r17, r25
    3e38:	05 e0       	ldi	r16, 0x05	; 5
    3e3a:	0e 94 81 39 	call	0x7302	; 0x7302 <__ashldi3>
    3e3e:	0f 2f       	mov	r16, r31
    3e40:	0e 94 af 39 	call	0x735e	; 0x735e <__subdi3>
    3e44:	ae 2e       	mov	r10, r30
    3e46:	b5 2c       	mov	r11, r5
    3e48:	c4 2c       	mov	r12, r4
    3e4a:	d3 2c       	mov	r13, r3
    3e4c:	e2 2c       	mov	r14, r2
    3e4e:	fc 80       	ldd	r15, Y+4	; 0x04
    3e50:	0b 2f       	mov	r16, r27
    3e52:	1a 2f       	mov	r17, r26
    3e54:	0e 94 9a 39 	call	0x7334	; 0x7334 <__adddi3>
    3e58:	03 e0       	ldi	r16, 0x03	; 3
    3e5a:	0e 94 81 39 	call	0x7302	; 0x7302 <__ashldi3>
    3e5e:	a2 2e       	mov	r10, r18
    3e60:	b3 2e       	mov	r11, r19
    3e62:	c4 2e       	mov	r12, r20
    3e64:	d5 2e       	mov	r13, r21
    3e66:	e6 2e       	mov	r14, r22
    3e68:	f7 2e       	mov	r15, r23
    3e6a:	08 2f       	mov	r16, r24
    3e6c:	19 2f       	mov	r17, r25
    3e6e:	26 2d       	mov	r18, r6
    3e70:	37 2d       	mov	r19, r7
    3e72:	48 2d       	mov	r20, r8
    3e74:	59 2d       	mov	r21, r9
    3e76:	6d 81       	ldd	r22, Y+5	; 0x05
    3e78:	79 81       	ldd	r23, Y+1	; 0x01
    3e7a:	8a 81       	ldd	r24, Y+2	; 0x02
    3e7c:	9b 81       	ldd	r25, Y+3	; 0x03
    3e7e:	0e 94 9a 39 	call	0x7334	; 0x7334 <__adddi3>
    3e82:	22 2e       	mov	r2, r18
    3e84:	33 2e       	mov	r3, r19
    3e86:	44 2e       	mov	r4, r20
    3e88:	55 2e       	mov	r5, r21
    3e8a:	66 2e       	mov	r6, r22
    3e8c:	77 2e       	mov	r7, r23
    3e8e:	89 83       	std	Y+1, r24	; 0x01
    3e90:	9a 83       	std	Y+2, r25	; 0x02
	RO += (RO_100   * 100);							// Ž°úŽďúžÖÄ RO   100žĚė žěźŽ¶¨
    3e92:	20 91 b1 4b 	lds	r18, 0x4BB1	; 0x804bb1 <RO_100>
    3e96:	30 91 b2 4b 	lds	r19, 0x4BB2	; 0x804bb2 <RO_100+0x1>
    3e9a:	40 91 b3 4b 	lds	r20, 0x4BB3	; 0x804bb3 <RO_100+0x2>
    3e9e:	50 91 b4 4b 	lds	r21, 0x4BB4	; 0x804bb4 <RO_100+0x3>
    3ea2:	60 91 b5 4b 	lds	r22, 0x4BB5	; 0x804bb5 <RO_100+0x4>
    3ea6:	70 91 b6 4b 	lds	r23, 0x4BB6	; 0x804bb6 <RO_100+0x5>
    3eaa:	80 91 b7 4b 	lds	r24, 0x4BB7	; 0x804bb7 <RO_100+0x6>
    3eae:	90 91 b8 4b 	lds	r25, 0x4BB8	; 0x804bb8 <RO_100+0x7>
    3eb2:	02 e0       	ldi	r16, 0x02	; 2
    3eb4:	0e 94 81 39 	call	0x7302	; 0x7302 <__ashldi3>
    3eb8:	82 2e       	mov	r8, r18
    3eba:	93 2e       	mov	r9, r19
    3ebc:	4c 83       	std	Y+4, r20	; 0x04
    3ebe:	5b 83       	std	Y+3, r21	; 0x03
    3ec0:	b6 2f       	mov	r27, r22
    3ec2:	a7 2f       	mov	r26, r23
    3ec4:	f8 2f       	mov	r31, r24
    3ec6:	e9 2f       	mov	r30, r25
    3ec8:	0e 94 81 39 	call	0x7302	; 0x7302 <__ashldi3>
    3ecc:	a2 2e       	mov	r10, r18
    3ece:	b3 2e       	mov	r11, r19
    3ed0:	c4 2e       	mov	r12, r20
    3ed2:	d5 2e       	mov	r13, r21
    3ed4:	e6 2e       	mov	r14, r22
    3ed6:	f7 2e       	mov	r15, r23
    3ed8:	08 2f       	mov	r16, r24
    3eda:	19 2f       	mov	r17, r25
    3edc:	28 2d       	mov	r18, r8
    3ede:	39 2d       	mov	r19, r9
    3ee0:	4c 81       	ldd	r20, Y+4	; 0x04
    3ee2:	5b 81       	ldd	r21, Y+3	; 0x03
    3ee4:	6b 2f       	mov	r22, r27
    3ee6:	7a 2f       	mov	r23, r26
    3ee8:	8f 2f       	mov	r24, r31
    3eea:	9e 2f       	mov	r25, r30
    3eec:	0e 94 9a 39 	call	0x7334	; 0x7334 <__adddi3>
    3ef0:	82 2e       	mov	r8, r18
    3ef2:	93 2e       	mov	r9, r19
    3ef4:	4c 83       	std	Y+4, r20	; 0x04
    3ef6:	5b 83       	std	Y+3, r21	; 0x03
    3ef8:	b6 2f       	mov	r27, r22
    3efa:	a7 2f       	mov	r26, r23
    3efc:	f8 2f       	mov	r31, r24
    3efe:	e9 2f       	mov	r30, r25
    3f00:	02 e0       	ldi	r16, 0x02	; 2
    3f02:	0e 94 81 39 	call	0x7302	; 0x7302 <__ashldi3>
    3f06:	a2 2e       	mov	r10, r18
    3f08:	b3 2e       	mov	r11, r19
    3f0a:	c4 2e       	mov	r12, r20
    3f0c:	d5 2e       	mov	r13, r21
    3f0e:	e6 2e       	mov	r14, r22
    3f10:	f7 2e       	mov	r15, r23
    3f12:	08 2f       	mov	r16, r24
    3f14:	19 2f       	mov	r17, r25
    3f16:	28 2d       	mov	r18, r8
    3f18:	39 2d       	mov	r19, r9
    3f1a:	4c 81       	ldd	r20, Y+4	; 0x04
    3f1c:	5b 81       	ldd	r21, Y+3	; 0x03
    3f1e:	6b 2f       	mov	r22, r27
    3f20:	7a 2f       	mov	r23, r26
    3f22:	8f 2f       	mov	r24, r31
    3f24:	9e 2f       	mov	r25, r30
    3f26:	0e 94 9a 39 	call	0x7334	; 0x7334 <__adddi3>
    3f2a:	a2 2e       	mov	r10, r18
    3f2c:	b3 2e       	mov	r11, r19
    3f2e:	c4 2e       	mov	r12, r20
    3f30:	d5 2e       	mov	r13, r21
    3f32:	e6 2e       	mov	r14, r22
    3f34:	f7 2e       	mov	r15, r23
    3f36:	08 2f       	mov	r16, r24
    3f38:	19 2f       	mov	r17, r25
    3f3a:	22 2d       	mov	r18, r2
    3f3c:	33 2d       	mov	r19, r3
    3f3e:	44 2d       	mov	r20, r4
    3f40:	55 2d       	mov	r21, r5
    3f42:	66 2d       	mov	r22, r6
    3f44:	77 2d       	mov	r23, r7
    3f46:	89 81       	ldd	r24, Y+1	; 0x01
    3f48:	9a 81       	ldd	r25, Y+2	; 0x02
    3f4a:	0e 94 9a 39 	call	0x7334	; 0x7334 <__adddi3>
    3f4e:	22 2e       	mov	r2, r18
    3f50:	33 2e       	mov	r3, r19
    3f52:	44 2e       	mov	r4, r20
    3f54:	55 2e       	mov	r5, r21
    3f56:	66 2e       	mov	r6, r22
    3f58:	77 2e       	mov	r7, r23
    3f5a:	89 83       	std	Y+1, r24	; 0x01
    3f5c:	9a 83       	std	Y+2, r25	; 0x02
	RO += (RO_10    * 10);							// Ž°úŽďúžÖÄ RO    10žĚė žěźŽ¶¨
    3f5e:	20 91 7f 4b 	lds	r18, 0x4B7F	; 0x804b7f <RO_10>
    3f62:	30 91 80 4b 	lds	r19, 0x4B80	; 0x804b80 <RO_10+0x1>
    3f66:	40 91 81 4b 	lds	r20, 0x4B81	; 0x804b81 <RO_10+0x2>
    3f6a:	50 91 82 4b 	lds	r21, 0x4B82	; 0x804b82 <RO_10+0x3>
    3f6e:	60 91 83 4b 	lds	r22, 0x4B83	; 0x804b83 <RO_10+0x4>
    3f72:	70 91 84 4b 	lds	r23, 0x4B84	; 0x804b84 <RO_10+0x5>
    3f76:	80 91 85 4b 	lds	r24, 0x4B85	; 0x804b85 <RO_10+0x6>
    3f7a:	90 91 86 4b 	lds	r25, 0x4B86	; 0x804b86 <RO_10+0x7>
    3f7e:	01 e0       	ldi	r16, 0x01	; 1
    3f80:	0e 94 81 39 	call	0x7302	; 0x7302 <__ashldi3>
    3f84:	82 2e       	mov	r8, r18
    3f86:	93 2e       	mov	r9, r19
    3f88:	4c 83       	std	Y+4, r20	; 0x04
    3f8a:	5b 83       	std	Y+3, r21	; 0x03
    3f8c:	b6 2f       	mov	r27, r22
    3f8e:	a7 2f       	mov	r26, r23
    3f90:	f8 2f       	mov	r31, r24
    3f92:	e9 2f       	mov	r30, r25
    3f94:	02 e0       	ldi	r16, 0x02	; 2
    3f96:	0e 94 81 39 	call	0x7302	; 0x7302 <__ashldi3>
    3f9a:	a2 2e       	mov	r10, r18
    3f9c:	b3 2e       	mov	r11, r19
    3f9e:	c4 2e       	mov	r12, r20
    3fa0:	d5 2e       	mov	r13, r21
    3fa2:	e6 2e       	mov	r14, r22
    3fa4:	f7 2e       	mov	r15, r23
    3fa6:	08 2f       	mov	r16, r24
    3fa8:	19 2f       	mov	r17, r25
    3faa:	28 2d       	mov	r18, r8
    3fac:	39 2d       	mov	r19, r9
    3fae:	4c 81       	ldd	r20, Y+4	; 0x04
    3fb0:	5b 81       	ldd	r21, Y+3	; 0x03
    3fb2:	6b 2f       	mov	r22, r27
    3fb4:	7a 2f       	mov	r23, r26
    3fb6:	8f 2f       	mov	r24, r31
    3fb8:	9e 2f       	mov	r25, r30
    3fba:	0e 94 9a 39 	call	0x7334	; 0x7334 <__adddi3>
    3fbe:	a2 2e       	mov	r10, r18
    3fc0:	b3 2e       	mov	r11, r19
    3fc2:	c4 2e       	mov	r12, r20
    3fc4:	d5 2e       	mov	r13, r21
    3fc6:	e6 2e       	mov	r14, r22
    3fc8:	f7 2e       	mov	r15, r23
    3fca:	08 2f       	mov	r16, r24
    3fcc:	19 2f       	mov	r17, r25
    3fce:	22 2d       	mov	r18, r2
    3fd0:	33 2d       	mov	r19, r3
    3fd2:	44 2d       	mov	r20, r4
    3fd4:	55 2d       	mov	r21, r5
    3fd6:	66 2d       	mov	r22, r6
    3fd8:	77 2d       	mov	r23, r7
    3fda:	89 81       	ldd	r24, Y+1	; 0x01
    3fdc:	9a 81       	ldd	r25, Y+2	; 0x02
    3fde:	0e 94 9a 39 	call	0x7334	; 0x7334 <__adddi3>
	RO += (RO_1     * 1);							// Ž°úŽďúžÖÄ RO     1žĚė žěźŽ¶¨
    3fe2:	a0 90 be 4b 	lds	r10, 0x4BBE	; 0x804bbe <RO_1>
    3fe6:	b0 90 bf 4b 	lds	r11, 0x4BBF	; 0x804bbf <RO_1+0x1>
    3fea:	c0 90 c0 4b 	lds	r12, 0x4BC0	; 0x804bc0 <RO_1+0x2>
    3fee:	d0 90 c1 4b 	lds	r13, 0x4BC1	; 0x804bc1 <RO_1+0x3>
    3ff2:	e0 90 c2 4b 	lds	r14, 0x4BC2	; 0x804bc2 <RO_1+0x4>
    3ff6:	f0 90 c3 4b 	lds	r15, 0x4BC3	; 0x804bc3 <RO_1+0x5>
    3ffa:	00 91 c4 4b 	lds	r16, 0x4BC4	; 0x804bc4 <RO_1+0x6>
    3ffe:	10 91 c5 4b 	lds	r17, 0x4BC5	; 0x804bc5 <RO_1+0x7>
    4002:	0e 94 9a 39 	call	0x7334	; 0x7334 <__adddi3>
    4006:	20 93 4d 4b 	sts	0x4B4D, r18	; 0x804b4d <RO>
    400a:	30 93 4e 4b 	sts	0x4B4E, r19	; 0x804b4e <RO+0x1>
    400e:	40 93 4f 4b 	sts	0x4B4F, r20	; 0x804b4f <RO+0x2>
    4012:	50 93 50 4b 	sts	0x4B50, r21	; 0x804b50 <RO+0x3>
    4016:	60 93 51 4b 	sts	0x4B51, r22	; 0x804b51 <RO+0x4>
    401a:	70 93 52 4b 	sts	0x4B52, r23	; 0x804b52 <RO+0x5>
    401e:	80 93 53 4b 	sts	0x4B53, r24	; 0x804b53 <RO+0x6>
    4022:	90 93 54 4b 	sts	0x4B54, r25	; 0x804b54 <RO+0x7>
//-------------------------------------------------------------------------------------------------
	ee_write_dword(Cell_RO_Addr, RO);					// Ž°úŽďúžÖÄ žĚīŽ©ī ž†ēÍ≤©ž∂úŽ†•Íįí ž†Äžě•
    4026:	64 2f       	mov	r22, r20
    4028:	75 2f       	mov	r23, r21
    402a:	42 2f       	mov	r20, r18
    402c:	53 2f       	mov	r21, r19
    402e:	8c e0       	ldi	r24, 0x0C	; 12
    4030:	90 e0       	ldi	r25, 0x00	; 0
    4032:	0e 94 30 12 	call	0x2460	; 0x2460 <ee_write_dword>

	SET.Menu = 1;								// Menu Ž™®Žďú žú†žßÄ
    4036:	e8 e4       	ldi	r30, 0x48	; 72
    4038:	fb e4       	ldi	r31, 0x4B	; 75
    403a:	81 e0       	ldi	r24, 0x01	; 1
    403c:	80 83       	st	Z, r24
	SET.Select = 0;								// Select Ž≤ĄŪäľ žīąÍłįŪôĒ
    403e:	11 82       	std	Z+1, r1	; 0x01
	SET.Blink = 0;								// žěźŽ¶Ņžąė ÍĻúŽįēžěĄ žīąÍłįŪôĒ
    4040:	13 82       	std	Z+3, r1	; 0x03
	KEY.Count = 0;								// žĄ†ŪÉĚ Key ÍįÄ ŽąĆŽ¶įŪöüžąė žīąÍłįŪôĒ
    4042:	10 92 8c 4b 	sts	0x4B8C, r1	; 0x804b8c <KEY>
}
    4046:	25 96       	adiw	r28, 0x05	; 5
    4048:	cd bf       	out	0x3d, r28	; 61
    404a:	de bf       	out	0x3e, r29	; 62
    404c:	df 91       	pop	r29
    404e:	cf 91       	pop	r28
    4050:	1f 91       	pop	r17
    4052:	0f 91       	pop	r16
    4054:	ff 90       	pop	r15
    4056:	ef 90       	pop	r14
    4058:	df 90       	pop	r13
    405a:	cf 90       	pop	r12
    405c:	bf 90       	pop	r11
    405e:	af 90       	pop	r10
    4060:	9f 90       	pop	r9
    4062:	8f 90       	pop	r8
    4064:	7f 90       	pop	r7
    4066:	6f 90       	pop	r6
    4068:	5f 90       	pop	r5
    406a:	4f 90       	pop	r4
    406c:	3f 90       	pop	r3
    406e:	2f 90       	pop	r2
    4070:	08 95       	ret

00004072 <Interval_Set>:

//=================================================================================================
void Interval_Set(void)								// Interval žĄ§ž†ē
{
    4072:	cf 93       	push	r28
    4074:	df 93       	push	r29
	uint32_t Value = 0;							// Value Ž≥Äžąė žīąÍłįŪôĒ
	int8_t cnt = 0;

	while(SET.Menu && SET.Select)						// Ž©ĒŽČīÍįÄ 1 žĚīŽ©ī ŽįėŽ≥Ķ
    4076:	d2 c0       	rjmp	.+420    	; 0x421c <Interval_Set+0x1aa>
	{
		Timer.RegExitTimer = 0;						// Ž¨īÍ≤ĆžĚė žóįžÜć žł°ž†ēžĚĄ žúĄŪēī RegExitTimer žīąÍłįŪôĒ 
    4078:	10 92 72 4b 	sts	0x4B72, r1	; 0x804b72 <Timer+0x1>
    407c:	10 92 73 4b 	sts	0x4B73, r1	; 0x804b73 <Timer+0x2>

		Value_Count = 0;
    4080:	10 92 70 4b 	sts	0x4B70, r1	; 0x804b70 <Value_Count>

		if(KEY.Buff)							// Key žěÖŽ†•žĚī žěąžúľŽ©ī
    4084:	80 91 8d 4b 	lds	r24, 0x4B8D	; 0x804b8d <KEY+0x1>
    4088:	88 23       	and	r24, r24
    408a:	09 f4       	brne	.+2      	; 0x408e <Interval_Set+0x1c>
    408c:	8e c0       	rjmp	.+284    	; 0x41aa <Interval_Set+0x138>
		{
			if     (KEY.Key == 1) {INT++; KEY.Key = 0;}		// žóÖ  Ž≤ĄŪäľ žĚīŽ©ī ROÍįí 1žĚė žěźŽ¶¨ ž¶ĚÍįÄ
    408e:	80 91 8e 4b 	lds	r24, 0x4B8E	; 0x804b8e <KEY+0x2>
    4092:	81 30       	cpi	r24, 0x01	; 1
    4094:	61 f4       	brne	.+24     	; 0x40ae <Interval_Set+0x3c>
    4096:	80 91 a6 4b 	lds	r24, 0x4BA6	; 0x804ba6 <INT>
    409a:	90 91 a7 4b 	lds	r25, 0x4BA7	; 0x804ba7 <INT+0x1>
    409e:	01 96       	adiw	r24, 0x01	; 1
    40a0:	80 93 a6 4b 	sts	0x4BA6, r24	; 0x804ba6 <INT>
    40a4:	90 93 a7 4b 	sts	0x4BA7, r25	; 0x804ba7 <INT+0x1>
    40a8:	10 92 8e 4b 	sts	0x4B8E, r1	; 0x804b8e <KEY+0x2>
    40ac:	0f c0       	rjmp	.+30     	; 0x40cc <Interval_Set+0x5a>
			else if(KEY.Key == 3) {INT--; KEY.Key = 0;}		// Žč§žöīŽ≤ĄŪäľ žĚīŽ©ī ROÍįí 1žĚė žěźŽ¶¨ ÍįźžÜĆ
    40ae:	80 91 8e 4b 	lds	r24, 0x4B8E	; 0x804b8e <KEY+0x2>
    40b2:	83 30       	cpi	r24, 0x03	; 3
    40b4:	59 f4       	brne	.+22     	; 0x40cc <Interval_Set+0x5a>
    40b6:	80 91 a6 4b 	lds	r24, 0x4BA6	; 0x804ba6 <INT>
    40ba:	90 91 a7 4b 	lds	r25, 0x4BA7	; 0x804ba7 <INT+0x1>
    40be:	01 97       	sbiw	r24, 0x01	; 1
    40c0:	80 93 a6 4b 	sts	0x4BA6, r24	; 0x804ba6 <INT>
    40c4:	90 93 a7 4b 	sts	0x4BA7, r25	; 0x804ba7 <INT+0x1>
    40c8:	10 92 8e 4b 	sts	0x4B8E, r1	; 0x804b8e <KEY+0x2>

			if(INT >= 0)
    40cc:	20 91 a6 4b 	lds	r18, 0x4BA6	; 0x804ba6 <INT>
    40d0:	30 91 a7 4b 	lds	r19, 0x4BA7	; 0x804ba7 <INT+0x1>
    40d4:	33 23       	and	r19, r19
    40d6:	0c f1       	brlt	.+66     	; 0x411a <Interval_Set+0xa8>
			{
				DIGIT[1][3] = FND_OFF;				// Ž°úŽďúžÖÄ Ž≥īž†ē 100žĚė žěźŽ¶¨
    40d8:	ed e7       	ldi	r30, 0x7D	; 125
    40da:	f1 e4       	ldi	r31, 0x41	; 65
    40dc:	17 82       	std	Z+7, r1	; 0x07
				DIGIT[1][2] = fnd_tbl[INT / 100];		// Ž°úŽďúžÖÄ Ž≥īž†ē 100žĚė žěźŽ¶¨
    40de:	c9 01       	movw	r24, r18
    40e0:	64 e6       	ldi	r22, 0x64	; 100
    40e2:	70 e0       	ldi	r23, 0x00	; 0
    40e4:	0e 94 51 38 	call	0x70a2	; 0x70a2 <__divmodhi4>
    40e8:	db 01       	movw	r26, r22
    40ea:	a9 5b       	subi	r26, 0xB9	; 185
    40ec:	be 4b       	sbci	r27, 0xBE	; 190
    40ee:	4c 91       	ld	r20, X
    40f0:	46 83       	std	Z+6, r20	; 0x06
				DIGIT[1][1] = fnd_tbl[INT % 100 / 10 ];		// Ž°úŽďúžÖÄ Ž≥īž†ē  10žĚė žěźŽ¶¨
    40f2:	ca e0       	ldi	r28, 0x0A	; 10
    40f4:	d0 e0       	ldi	r29, 0x00	; 0
    40f6:	be 01       	movw	r22, r28
    40f8:	0e 94 51 38 	call	0x70a2	; 0x70a2 <__divmodhi4>
    40fc:	db 01       	movw	r26, r22
    40fe:	a9 5b       	subi	r26, 0xB9	; 185
    4100:	be 4b       	sbci	r27, 0xBE	; 190
    4102:	8c 91       	ld	r24, X
    4104:	85 83       	std	Z+5, r24	; 0x05
				DIGIT[1][0] = fnd_tbl[INT % 10 ];		// Ž°úŽďúžÖÄ Ž≥īž†ē   1žĚė žěźŽ¶¨
    4106:	c9 01       	movw	r24, r18
    4108:	be 01       	movw	r22, r28
    410a:	0e 94 51 38 	call	0x70a2	; 0x70a2 <__divmodhi4>
    410e:	dc 01       	movw	r26, r24
    4110:	a9 5b       	subi	r26, 0xB9	; 185
    4112:	be 4b       	sbci	r27, 0xBE	; 190
    4114:	8c 91       	ld	r24, X
    4116:	84 83       	std	Z+4, r24	; 0x04
    4118:	48 c0       	rjmp	.+144    	; 0x41aa <Interval_Set+0x138>
			}
			else
			{
				cnt = ~INT + 1;
    411a:	21 95       	neg	r18
				DIGIT[1][3] = FND_MINUS;			// Ž°úŽďúžÖÄ Ž≥īž†ē -      žěźŽ¶¨
    411c:	ad e7       	ldi	r26, 0x7D	; 125
    411e:	b1 e4       	ldi	r27, 0x41	; 65
    4120:	82 e0       	ldi	r24, 0x02	; 2
    4122:	17 96       	adiw	r26, 0x07	; 7
    4124:	8c 93       	st	X, r24
    4126:	17 97       	sbiw	r26, 0x07	; 7
				DIGIT[1][2] = fnd_tbl[cnt / 100];		// Ž°úŽďúžÖÄ Ž≥īž†ē  100žĚė žěźŽ¶¨
    4128:	89 e2       	ldi	r24, 0x29	; 41
    412a:	28 02       	muls	r18, r24
    412c:	81 2d       	mov	r24, r1
    412e:	11 24       	eor	r1, r1
    4130:	85 95       	asr	r24
    4132:	85 95       	asr	r24
    4134:	85 95       	asr	r24
    4136:	85 95       	asr	r24
    4138:	92 2f       	mov	r25, r18
    413a:	99 0f       	add	r25, r25
    413c:	99 0b       	sbc	r25, r25
    413e:	89 1b       	sub	r24, r25
    4140:	e8 2f       	mov	r30, r24
    4142:	08 2e       	mov	r0, r24
    4144:	00 0c       	add	r0, r0
    4146:	ff 0b       	sbc	r31, r31
    4148:	e9 5b       	subi	r30, 0xB9	; 185
    414a:	fe 4b       	sbci	r31, 0xBE	; 190
    414c:	30 81       	ld	r19, Z
    414e:	16 96       	adiw	r26, 0x06	; 6
    4150:	3c 93       	st	X, r19
    4152:	16 97       	sbiw	r26, 0x06	; 6
				DIGIT[1][1] = fnd_tbl[cnt % 100 / 10 ];		// Ž°úŽďúžÖÄ Ž≥īž†ē   10žĚė žěźŽ¶¨
    4154:	32 2f       	mov	r19, r18
    4156:	44 e6       	ldi	r20, 0x64	; 100
    4158:	84 9f       	mul	r24, r20
    415a:	30 19       	sub	r19, r0
    415c:	11 24       	eor	r1, r1
    415e:	87 e6       	ldi	r24, 0x67	; 103
    4160:	38 02       	muls	r19, r24
    4162:	e1 2d       	mov	r30, r1
    4164:	11 24       	eor	r1, r1
    4166:	e5 95       	asr	r30
    4168:	e5 95       	asr	r30
    416a:	37 fd       	sbrc	r19, 7
    416c:	e3 95       	inc	r30
    416e:	0e 2e       	mov	r0, r30
    4170:	00 0c       	add	r0, r0
    4172:	ff 0b       	sbc	r31, r31
    4174:	e9 5b       	subi	r30, 0xB9	; 185
    4176:	fe 4b       	sbci	r31, 0xBE	; 190
    4178:	30 81       	ld	r19, Z
    417a:	15 96       	adiw	r26, 0x05	; 5
    417c:	3c 93       	st	X, r19
    417e:	15 97       	sbiw	r26, 0x05	; 5
				DIGIT[1][0] = fnd_tbl[cnt %10 ];		// Ž°úŽďúžÖÄ Ž≥īž†ē    1žĚė žěźŽ¶¨
    4180:	28 02       	muls	r18, r24
    4182:	81 2d       	mov	r24, r1
    4184:	11 24       	eor	r1, r1
    4186:	85 95       	asr	r24
    4188:	85 95       	asr	r24
    418a:	89 1b       	sub	r24, r25
    418c:	88 0f       	add	r24, r24
    418e:	98 2f       	mov	r25, r24
    4190:	99 0f       	add	r25, r25
    4192:	99 0f       	add	r25, r25
    4194:	89 0f       	add	r24, r25
    4196:	e2 2f       	mov	r30, r18
    4198:	e8 1b       	sub	r30, r24
    419a:	0e 2e       	mov	r0, r30
    419c:	00 0c       	add	r0, r0
    419e:	ff 0b       	sbc	r31, r31
    41a0:	e9 5b       	subi	r30, 0xB9	; 185
    41a2:	fe 4b       	sbci	r31, 0xBE	; 190
    41a4:	80 81       	ld	r24, Z
    41a6:	14 96       	adiw	r26, 0x04	; 4
    41a8:	8c 93       	st	X, r24
			}
		}
 
 		Interval = INT;
    41aa:	80 91 a6 4b 	lds	r24, 0x4BA6	; 0x804ba6 <INT>
    41ae:	90 91 a7 4b 	lds	r25, 0x4BA7	; 0x804ba7 <INT+0x1>
    41b2:	80 93 a0 4b 	sts	0x4BA0, r24	; 0x804ba0 <Interval>
    41b6:	90 93 a1 4b 	sts	0x4BA1, r25	; 0x804ba1 <Interval+0x1>
		Value = CELL.Value = Read_Load_Cell();				// Ž°úŽďúžÖÄ žł°ž†ēÍįí
    41ba:	0e 94 a2 18 	call	0x3144	; 0x3144 <Read_Load_Cell>
    41be:	a0 e0       	ldi	r26, 0x00	; 0
    41c0:	b0 e0       	ldi	r27, 0x00	; 0
    41c2:	80 93 5b 4b 	sts	0x4B5B, r24	; 0x804b5b <CELL+0x1>
    41c6:	90 93 5c 4b 	sts	0x4B5C, r25	; 0x804b5c <CELL+0x2>
    41ca:	a0 93 5d 4b 	sts	0x4B5D, r26	; 0x804b5d <CELL+0x3>
    41ce:	b0 93 5e 4b 	sts	0x4B5E, r27	; 0x804b5e <CELL+0x4>

		if(Value)							// žł°ž†ēž≤īž§ĎžĚī žěąžúľŽ©ī
    41d2:	00 97       	sbiw	r24, 0x00	; 0
    41d4:	a1 05       	cpc	r26, r1
    41d6:	b1 05       	cpc	r27, r1
    41d8:	c9 f0       	breq	.+50     	; 0x420c <Interval_Set+0x19a>
		{
			CELL.Value = CELL.Value + Interval;
    41da:	ea e5       	ldi	r30, 0x5A	; 90
    41dc:	fb e4       	ldi	r31, 0x4B	; 75
    41de:	41 81       	ldd	r20, Z+1	; 0x01
    41e0:	52 81       	ldd	r21, Z+2	; 0x02
    41e2:	63 81       	ldd	r22, Z+3	; 0x03
    41e4:	74 81       	ldd	r23, Z+4	; 0x04
    41e6:	80 91 a0 4b 	lds	r24, 0x4BA0	; 0x804ba0 <Interval>
    41ea:	90 91 a1 4b 	lds	r25, 0x4BA1	; 0x804ba1 <Interval+0x1>
    41ee:	09 2e       	mov	r0, r25
    41f0:	00 0c       	add	r0, r0
    41f2:	aa 0b       	sbc	r26, r26
    41f4:	bb 0b       	sbc	r27, r27
    41f6:	84 0f       	add	r24, r20
    41f8:	95 1f       	adc	r25, r21
    41fa:	a6 1f       	adc	r26, r22
    41fc:	b7 1f       	adc	r27, r23
    41fe:	81 83       	std	Z+1, r24	; 0x01
    4200:	92 83       	std	Z+2, r25	; 0x02
    4202:	a3 83       	std	Z+3, r26	; 0x03
    4204:	b4 83       	std	Z+4, r27	; 0x04
			Cell_Desplay();
    4206:	0e 94 eb 16 	call	0x2dd6	; 0x2dd6 <Cell_Desplay>
    420a:	06 c0       	rjmp	.+12     	; 0x4218 <Interval_Set+0x1a6>
		}
		else if(Value == 0) {Cell_Desplay();}				// žł°ž†ēž≤īž§ĎžĚī 0 žĚīŽ©ī
    420c:	89 2b       	or	r24, r25
    420e:	8a 2b       	or	r24, r26
    4210:	8b 2b       	or	r24, r27
    4212:	11 f4       	brne	.+4      	; 0x4218 <Interval_Set+0x1a6>
    4214:	0e 94 eb 16 	call	0x2dd6	; 0x2dd6 <Cell_Desplay>
		wdt_reset();							// žõĆžĻėŽŹÖ Ž¶¨žÖč
    4218:	0e 94 17 0d 	call	0x1a2e	; 0x1a2e <wdt_reset>
void Interval_Set(void)								// Interval žĄ§ž†ē
{
	uint32_t Value = 0;							// Value Ž≥Äžąė žīąÍłįŪôĒ
	int8_t cnt = 0;

	while(SET.Menu && SET.Select)						// Ž©ĒŽČīÍįÄ 1 žĚīŽ©ī ŽįėŽ≥Ķ
    421c:	80 91 48 4b 	lds	r24, 0x4B48	; 0x804b48 <SET>
    4220:	88 23       	and	r24, r24
    4222:	21 f0       	breq	.+8      	; 0x422c <Interval_Set+0x1ba>
    4224:	80 91 49 4b 	lds	r24, 0x4B49	; 0x804b49 <SET+0x1>
    4228:	81 11       	cpse	r24, r1
    422a:	26 cf       	rjmp	.-436    	; 0x4078 <Interval_Set+0x6>
			Cell_Desplay();
		}
		else if(Value == 0) {Cell_Desplay();}				// žł°ž†ēž≤īž§ĎžĚī 0 žĚīŽ©ī
		wdt_reset();							// žõĆžĻėŽŹÖ Ž¶¨žÖč
	}
	ee_write_word(Cell_Interval_Addr, INT);					// Ž°úŽďúžÖÄ Ž≥īž†ē ÍįížĚĄ EEPROM žóź ž†Äžě•
    422c:	60 91 a6 4b 	lds	r22, 0x4BA6	; 0x804ba6 <INT>
    4230:	70 91 a7 4b 	lds	r23, 0x4BA7	; 0x804ba7 <INT+0x1>
    4234:	8a e0       	ldi	r24, 0x0A	; 10
    4236:	90 e0       	ldi	r25, 0x00	; 0
    4238:	0e 94 13 12 	call	0x2426	; 0x2426 <ee_write_word>
}
    423c:	df 91       	pop	r29
    423e:	cf 91       	pop	r28
    4240:	08 95       	ret

00004242 <CAPA_Set>:

//=================================================================================================
void CAPA_Set(void)								// CAPA žĄ§ž†ē
{
    4242:	8f 92       	push	r8
    4244:	9f 92       	push	r9
    4246:	af 92       	push	r10
    4248:	bf 92       	push	r11
    424a:	cf 92       	push	r12
    424c:	df 92       	push	r13
    424e:	ef 92       	push	r14
    4250:	ff 92       	push	r15
	DIGIT[2][0] = FND_OFF;							// Ž°úŽďúžÖÄ RO, žěÖÍĶ¨ž≤īž§Ď 1žĚė žěźŽ¶¨ žßÄžöįÍłį
    4252:	10 92 85 41 	sts	0x4185, r1	; 0x804185 <DIGIT+0x8>

	Cell_Capa = ee_read_word(Cell_Capa_Addr);				// 1Ž≤ą Ž°úŽďúžÖÄ žĚīŽ©ī žö©ŽüČÍįí Ž∂ąŽü¨žė§Íłį
    4256:	86 e0       	ldi	r24, 0x06	; 6
    4258:	90 e0       	ldi	r25, 0x00	; 0
    425a:	0e 94 d8 11 	call	0x23b0	; 0x23b0 <ee_read_word>
    425e:	6c 01       	movw	r12, r24
    4260:	e1 2c       	mov	r14, r1
    4262:	f1 2c       	mov	r15, r1
    4264:	c0 92 aa 4b 	sts	0x4BAA, r12	; 0x804baa <Cell_Capa>
    4268:	d0 92 ab 4b 	sts	0x4BAB, r13	; 0x804bab <Cell_Capa+0x1>
    426c:	e0 92 ac 4b 	sts	0x4BAC, r14	; 0x804bac <Cell_Capa+0x2>
    4270:	f0 92 ad 4b 	sts	0x4BAD, r15	; 0x804bad <Cell_Capa+0x3>
//-------------------------------------------------------------------------------------------------
	CAPA_1000 = Cell_Capa / 1000;						// Ž°úŽďúžÖÄ CAPA 1000žĚė žěźŽ¶¨
    4274:	c7 01       	movw	r24, r14
    4276:	b6 01       	movw	r22, r12
    4278:	28 ee       	ldi	r18, 0xE8	; 232
    427a:	33 e0       	ldi	r19, 0x03	; 3
    427c:	40 e0       	ldi	r20, 0x00	; 0
    427e:	50 e0       	ldi	r21, 0x00	; 0
    4280:	0e 94 65 38 	call	0x70ca	; 0x70ca <__udivmodsi4>
    4284:	20 93 ad 41 	sts	0x41AD, r18	; 0x8041ad <CAPA_1000>
	CAPA_100  = Cell_Capa % 1000 / 100;					// Ž°úŽďúžÖÄ CAPA 100žĚė žěźŽ¶¨
    4288:	0f 2e       	mov	r0, r31
    428a:	f4 e6       	ldi	r31, 0x64	; 100
    428c:	8f 2e       	mov	r8, r31
    428e:	91 2c       	mov	r9, r1
    4290:	a1 2c       	mov	r10, r1
    4292:	b1 2c       	mov	r11, r1
    4294:	f0 2d       	mov	r31, r0
    4296:	a5 01       	movw	r20, r10
    4298:	94 01       	movw	r18, r8
    429a:	0e 94 65 38 	call	0x70ca	; 0x70ca <__udivmodsi4>
    429e:	20 93 9f 4b 	sts	0x4B9F, r18	; 0x804b9f <CAPA_100>
	CAPA_10   = Cell_Capa % 100 / 10;					// Ž°úŽďúžÖÄ CAPA  10žĚė žěźŽ¶¨
    42a2:	c7 01       	movw	r24, r14
    42a4:	b6 01       	movw	r22, r12
    42a6:	a5 01       	movw	r20, r10
    42a8:	94 01       	movw	r18, r8
    42aa:	0e 94 65 38 	call	0x70ca	; 0x70ca <__udivmodsi4>
    42ae:	0f 2e       	mov	r0, r31
    42b0:	fa e0       	ldi	r31, 0x0A	; 10
    42b2:	8f 2e       	mov	r8, r31
    42b4:	91 2c       	mov	r9, r1
    42b6:	a1 2c       	mov	r10, r1
    42b8:	b1 2c       	mov	r11, r1
    42ba:	f0 2d       	mov	r31, r0
    42bc:	a5 01       	movw	r20, r10
    42be:	94 01       	movw	r18, r8
    42c0:	0e 94 65 38 	call	0x70ca	; 0x70ca <__udivmodsi4>
    42c4:	20 93 a9 4b 	sts	0x4BA9, r18	; 0x804ba9 <CAPA_10>
	CAPA_1    = Cell_Capa % 10;						// Ž°úŽďúžÖÄ CAPA   1žĚė žěźŽ¶¨
    42c8:	c7 01       	movw	r24, r14
    42ca:	b6 01       	movw	r22, r12
    42cc:	a5 01       	movw	r20, r10
    42ce:	94 01       	movw	r18, r8
    42d0:	0e 94 65 38 	call	0x70ca	; 0x70ca <__udivmodsi4>
    42d4:	60 93 6f 4b 	sts	0x4B6F, r22	; 0x804b6f <CAPA_1>
//-------------------------------------------------------------------------------------------------
	while(SET.Menu)								// Ž©ĒŽČīÍįÄ 1 žĚīŽ©ī ŽįėŽ≥Ķ
    42d8:	ff c0       	rjmp	.+510    	; 0x44d8 <CAPA_Set+0x296>
	{
		SET.Blink = 1;							// žěźŽ¶Ņžąė ÍĻúŽįēžěĄ žĄ§ž†ē
    42da:	81 e0       	ldi	r24, 0x01	; 1
    42dc:	80 93 4b 4b 	sts	0x4B4B, r24	; 0x804b4b <SET+0x3>

		switch(KEY.Count)						// žĄ†ŪÉĚ Key ÍįÄ ŽąĆŽ¶įŪöüžąė
    42e0:	80 91 8c 4b 	lds	r24, 0x4B8C	; 0x804b8c <KEY>
    42e4:	82 30       	cpi	r24, 0x02	; 2
    42e6:	09 f4       	brne	.+2      	; 0x42ea <CAPA_Set+0xa8>
    42e8:	82 c0       	rjmp	.+260    	; 0x43ee <CAPA_Set+0x1ac>
    42ea:	30 f4       	brcc	.+12     	; 0x42f8 <CAPA_Set+0xb6>
    42ec:	88 23       	and	r24, r24
    42ee:	59 f0       	breq	.+22     	; 0x4306 <CAPA_Set+0xc4>
    42f0:	81 30       	cpi	r24, 0x01	; 1
    42f2:	09 f4       	brne	.+2      	; 0x42f6 <CAPA_Set+0xb4>
    42f4:	42 c0       	rjmp	.+132    	; 0x437a <CAPA_Set+0x138>
    42f6:	ee c0       	rjmp	.+476    	; 0x44d4 <CAPA_Set+0x292>
    42f8:	83 30       	cpi	r24, 0x03	; 3
    42fa:	09 f4       	brne	.+2      	; 0x42fe <CAPA_Set+0xbc>
    42fc:	b2 c0       	rjmp	.+356    	; 0x4462 <CAPA_Set+0x220>
    42fe:	84 30       	cpi	r24, 0x04	; 4
    4300:	09 f4       	brne	.+2      	; 0x4304 <CAPA_Set+0xc2>
    4302:	e6 c0       	rjmp	.+460    	; 0x44d0 <CAPA_Set+0x28e>
    4304:	e7 c0       	rjmp	.+462    	; 0x44d4 <CAPA_Set+0x292>
		{
			case 0:							// Ž°úŽďúžÖÄ CAPA 1000žĚė žěźŽ¶¨
				DIGIT[1][0] = fnd_tbl[CAPA_1];			// Ž°úŽďúžÖÄ CAPA    1žĚė žěźŽ¶¨ ŪĎúžčú
    4306:	e0 91 6f 4b 	lds	r30, 0x4B6F	; 0x804b6f <CAPA_1>
    430a:	f0 e0       	ldi	r31, 0x00	; 0
    430c:	e9 5b       	subi	r30, 0xB9	; 185
    430e:	fe 4b       	sbci	r31, 0xBE	; 190
    4310:	80 81       	ld	r24, Z
    4312:	80 93 81 41 	sts	0x4181, r24	; 0x804181 <DIGIT+0x4>
				if(Blink) {DIGIT[1][3] = FND_OFF;}		// Blink = 1 žĚīŽ©ī Ž°úŽďúžÖÄ CAPA 100žĚė žěźŽ¶¨ OFF
    4316:	80 91 b9 4b 	lds	r24, 0x4BB9	; 0x804bb9 <Blink>
    431a:	88 23       	and	r24, r24
    431c:	19 f0       	breq	.+6      	; 0x4324 <CAPA_Set+0xe2>
    431e:	10 92 84 41 	sts	0x4184, r1	; 0x804184 <DIGIT+0x7>
    4322:	08 c0       	rjmp	.+16     	; 0x4334 <CAPA_Set+0xf2>
				else	  {DIGIT[1][3] = fnd_tbl[CAPA_1000];}	// Blink = 0 žĚīŽ©ī Ž°úŽďúžÖÄ CAPA 100žĚė žěźŽ¶¨ ŪĎúžčú
    4324:	e0 91 ad 41 	lds	r30, 0x41AD	; 0x8041ad <CAPA_1000>
    4328:	f0 e0       	ldi	r31, 0x00	; 0
    432a:	e9 5b       	subi	r30, 0xB9	; 185
    432c:	fe 4b       	sbci	r31, 0xBE	; 190
    432e:	80 81       	ld	r24, Z
    4330:	80 93 84 41 	sts	0x4184, r24	; 0x804184 <DIGIT+0x7>

				if(KEY.Buff)					// Key žěÖŽ†•žĚī žěąžúľŽ©ī
    4334:	80 91 8d 4b 	lds	r24, 0x4B8D	; 0x804b8d <KEY+0x1>
    4338:	88 23       	and	r24, r24
    433a:	09 f4       	brne	.+2      	; 0x433e <CAPA_Set+0xfc>
    433c:	cb c0       	rjmp	.+406    	; 0x44d4 <CAPA_Set+0x292>
				{
					if     (KEY.Key == 1 && CAPA_1000 < 1) {CAPA_1000++; KEY.Key = 0;}	// žóÖ  Ž≤ĄŪäľ žĚīŽ©ī CAPAÍįí 1000žĚė žěźŽ¶¨ ž¶ĚÍįÄ
    433e:	80 91 8e 4b 	lds	r24, 0x4B8E	; 0x804b8e <KEY+0x2>
    4342:	81 30       	cpi	r24, 0x01	; 1
    4344:	51 f4       	brne	.+20     	; 0x435a <CAPA_Set+0x118>
    4346:	80 91 ad 41 	lds	r24, 0x41AD	; 0x8041ad <CAPA_1000>
    434a:	81 11       	cpse	r24, r1
    434c:	06 c0       	rjmp	.+12     	; 0x435a <CAPA_Set+0x118>
    434e:	8f 5f       	subi	r24, 0xFF	; 255
    4350:	80 93 ad 41 	sts	0x41AD, r24	; 0x8041ad <CAPA_1000>
    4354:	10 92 8e 4b 	sts	0x4B8E, r1	; 0x804b8e <KEY+0x2>
    4358:	bd c0       	rjmp	.+378    	; 0x44d4 <CAPA_Set+0x292>
					else if(KEY.Key == 3 && CAPA_1000 > 0) {CAPA_1000--; KEY.Key = 0;}	// Žč§žöīŽ≤ĄŪäľ žĚīŽ©ī CAPAÍįí 1000žĚė žěźŽ¶¨ ÍįźžÜĆ
    435a:	80 91 8e 4b 	lds	r24, 0x4B8E	; 0x804b8e <KEY+0x2>
    435e:	83 30       	cpi	r24, 0x03	; 3
    4360:	09 f0       	breq	.+2      	; 0x4364 <CAPA_Set+0x122>
    4362:	b8 c0       	rjmp	.+368    	; 0x44d4 <CAPA_Set+0x292>
    4364:	80 91 ad 41 	lds	r24, 0x41AD	; 0x8041ad <CAPA_1000>
    4368:	88 23       	and	r24, r24
    436a:	09 f4       	brne	.+2      	; 0x436e <CAPA_Set+0x12c>
    436c:	b3 c0       	rjmp	.+358    	; 0x44d4 <CAPA_Set+0x292>
    436e:	81 50       	subi	r24, 0x01	; 1
    4370:	80 93 ad 41 	sts	0x41AD, r24	; 0x8041ad <CAPA_1000>
    4374:	10 92 8e 4b 	sts	0x4B8E, r1	; 0x804b8e <KEY+0x2>
    4378:	ad c0       	rjmp	.+346    	; 0x44d4 <CAPA_Set+0x292>
				}
			break;

			case 1:							// Ž°úŽďúžÖÄ CAPA  100žĚė žěźŽ¶¨
				DIGIT[1][3] = fnd_tbl[CAPA_1000];		// Ž°úŽďúžÖÄ CAPA 1000žĚė žěźŽ¶¨ ŪĎúžčú
    437a:	e0 91 ad 41 	lds	r30, 0x41AD	; 0x8041ad <CAPA_1000>
    437e:	f0 e0       	ldi	r31, 0x00	; 0
    4380:	e9 5b       	subi	r30, 0xB9	; 185
    4382:	fe 4b       	sbci	r31, 0xBE	; 190
    4384:	80 81       	ld	r24, Z
    4386:	80 93 84 41 	sts	0x4184, r24	; 0x804184 <DIGIT+0x7>
				if(Blink) {DIGIT[1][2] = FND_OFF;}		// Blink = 1 žĚīŽ©ī Ž°úŽďúžÖÄ CAPA 100žĚė žěźŽ¶¨ OFF
    438a:	80 91 b9 4b 	lds	r24, 0x4BB9	; 0x804bb9 <Blink>
    438e:	88 23       	and	r24, r24
    4390:	19 f0       	breq	.+6      	; 0x4398 <CAPA_Set+0x156>
    4392:	10 92 83 41 	sts	0x4183, r1	; 0x804183 <DIGIT+0x6>
    4396:	08 c0       	rjmp	.+16     	; 0x43a8 <CAPA_Set+0x166>
				else	  {DIGIT[1][2] = fnd_tbl[CAPA_100];}	// Blink = 0 žĚīŽ©ī Ž°úŽďúžÖÄ CAPA 100žĚė žěźŽ¶¨ ŪĎúžčú
    4398:	e0 91 9f 4b 	lds	r30, 0x4B9F	; 0x804b9f <CAPA_100>
    439c:	f0 e0       	ldi	r31, 0x00	; 0
    439e:	e9 5b       	subi	r30, 0xB9	; 185
    43a0:	fe 4b       	sbci	r31, 0xBE	; 190
    43a2:	80 81       	ld	r24, Z
    43a4:	80 93 83 41 	sts	0x4183, r24	; 0x804183 <DIGIT+0x6>

				if(KEY.Buff)					// Key žěÖŽ†•žĚī žěąžúľŽ©ī
    43a8:	80 91 8d 4b 	lds	r24, 0x4B8D	; 0x804b8d <KEY+0x1>
    43ac:	88 23       	and	r24, r24
    43ae:	09 f4       	brne	.+2      	; 0x43b2 <CAPA_Set+0x170>
    43b0:	91 c0       	rjmp	.+290    	; 0x44d4 <CAPA_Set+0x292>
				{
					if     (KEY.Key == 1 && CAPA_100 < 5) {CAPA_100++; KEY.Key = 0;}	// žóÖ  Ž≤ĄŪäľ žĚīŽ©ī CAPAÍįí 100žĚė žěźŽ¶¨ ž¶ĚÍįÄ
    43b2:	80 91 8e 4b 	lds	r24, 0x4B8E	; 0x804b8e <KEY+0x2>
    43b6:	81 30       	cpi	r24, 0x01	; 1
    43b8:	51 f4       	brne	.+20     	; 0x43ce <CAPA_Set+0x18c>
    43ba:	80 91 9f 4b 	lds	r24, 0x4B9F	; 0x804b9f <CAPA_100>
    43be:	85 30       	cpi	r24, 0x05	; 5
    43c0:	30 f4       	brcc	.+12     	; 0x43ce <CAPA_Set+0x18c>
    43c2:	8f 5f       	subi	r24, 0xFF	; 255
    43c4:	80 93 9f 4b 	sts	0x4B9F, r24	; 0x804b9f <CAPA_100>
    43c8:	10 92 8e 4b 	sts	0x4B8E, r1	; 0x804b8e <KEY+0x2>
    43cc:	83 c0       	rjmp	.+262    	; 0x44d4 <CAPA_Set+0x292>
					else if(KEY.Key == 3 && CAPA_100 > 0) {CAPA_100--; KEY.Key = 0;}	// Žč§žöīŽ≤ĄŪäľ žĚīŽ©ī CAPAÍįí 100žĚė žěźŽ¶¨ ÍįźžÜĆ
    43ce:	80 91 8e 4b 	lds	r24, 0x4B8E	; 0x804b8e <KEY+0x2>
    43d2:	83 30       	cpi	r24, 0x03	; 3
    43d4:	09 f0       	breq	.+2      	; 0x43d8 <CAPA_Set+0x196>
    43d6:	7e c0       	rjmp	.+252    	; 0x44d4 <CAPA_Set+0x292>
    43d8:	80 91 9f 4b 	lds	r24, 0x4B9F	; 0x804b9f <CAPA_100>
    43dc:	88 23       	and	r24, r24
    43de:	09 f4       	brne	.+2      	; 0x43e2 <CAPA_Set+0x1a0>
    43e0:	79 c0       	rjmp	.+242    	; 0x44d4 <CAPA_Set+0x292>
    43e2:	81 50       	subi	r24, 0x01	; 1
    43e4:	80 93 9f 4b 	sts	0x4B9F, r24	; 0x804b9f <CAPA_100>
    43e8:	10 92 8e 4b 	sts	0x4B8E, r1	; 0x804b8e <KEY+0x2>
    43ec:	73 c0       	rjmp	.+230    	; 0x44d4 <CAPA_Set+0x292>
				}
			break;

			case 2:							// Ž°úŽďúžÖÄ CAPA 10žĚė žěźŽ¶¨
				DIGIT[1][2] = fnd_tbl[CAPA_100];		// Ž°úŽďúžÖÄ CAPA 100žĚė žěźŽ¶¨ ŪĎúžčú
    43ee:	e0 91 9f 4b 	lds	r30, 0x4B9F	; 0x804b9f <CAPA_100>
    43f2:	f0 e0       	ldi	r31, 0x00	; 0
    43f4:	e9 5b       	subi	r30, 0xB9	; 185
    43f6:	fe 4b       	sbci	r31, 0xBE	; 190
    43f8:	80 81       	ld	r24, Z
    43fa:	80 93 83 41 	sts	0x4183, r24	; 0x804183 <DIGIT+0x6>
				if(Blink) {DIGIT[1][1] = FND_OFF;}		// Blink = 1 žĚīŽ©ī Ž°úŽďúžÖÄ CAPA 10žĚė žěźŽ¶¨ OFF
    43fe:	80 91 b9 4b 	lds	r24, 0x4BB9	; 0x804bb9 <Blink>
    4402:	88 23       	and	r24, r24
    4404:	19 f0       	breq	.+6      	; 0x440c <CAPA_Set+0x1ca>
    4406:	10 92 82 41 	sts	0x4182, r1	; 0x804182 <DIGIT+0x5>
    440a:	08 c0       	rjmp	.+16     	; 0x441c <CAPA_Set+0x1da>
				else	  {DIGIT[1][1] = fnd_tbl[CAPA_10];}	// Blink = 0 žĚīŽ©ī Ž°úŽďúžÖÄ CAPA 10žĚė žěźŽ¶¨ ŪĎúžčú
    440c:	e0 91 a9 4b 	lds	r30, 0x4BA9	; 0x804ba9 <CAPA_10>
    4410:	f0 e0       	ldi	r31, 0x00	; 0
    4412:	e9 5b       	subi	r30, 0xB9	; 185
    4414:	fe 4b       	sbci	r31, 0xBE	; 190
    4416:	80 81       	ld	r24, Z
    4418:	80 93 82 41 	sts	0x4182, r24	; 0x804182 <DIGIT+0x5>

				if(KEY.Buff)					// Key žěÖŽ†•žĚī žěąžúľŽ©ī
    441c:	80 91 8d 4b 	lds	r24, 0x4B8D	; 0x804b8d <KEY+0x1>
    4420:	88 23       	and	r24, r24
    4422:	09 f4       	brne	.+2      	; 0x4426 <CAPA_Set+0x1e4>
    4424:	57 c0       	rjmp	.+174    	; 0x44d4 <CAPA_Set+0x292>
				{
					if     (KEY.Key == 1 && CAPA_10 < 9) {CAPA_10++; KEY.Key = 0;}	// žóÖ  Ž≤ĄŪäľ žĚīŽ©ī CAPAÍįí 10žĚė žěźŽ¶¨ ž¶ĚÍįÄ
    4426:	80 91 8e 4b 	lds	r24, 0x4B8E	; 0x804b8e <KEY+0x2>
    442a:	81 30       	cpi	r24, 0x01	; 1
    442c:	51 f4       	brne	.+20     	; 0x4442 <CAPA_Set+0x200>
    442e:	80 91 a9 4b 	lds	r24, 0x4BA9	; 0x804ba9 <CAPA_10>
    4432:	89 30       	cpi	r24, 0x09	; 9
    4434:	30 f4       	brcc	.+12     	; 0x4442 <CAPA_Set+0x200>
    4436:	8f 5f       	subi	r24, 0xFF	; 255
    4438:	80 93 a9 4b 	sts	0x4BA9, r24	; 0x804ba9 <CAPA_10>
    443c:	10 92 8e 4b 	sts	0x4B8E, r1	; 0x804b8e <KEY+0x2>
    4440:	49 c0       	rjmp	.+146    	; 0x44d4 <CAPA_Set+0x292>
					else if(KEY.Key == 3 && CAPA_10 > 0) {CAPA_10--; KEY.Key = 0;}	// Žč§žöīŽ≤ĄŪäľ žĚīŽ©ī CAPAÍįí 10žĚė žěźŽ¶¨ ÍįźžÜĆ
    4442:	80 91 8e 4b 	lds	r24, 0x4B8E	; 0x804b8e <KEY+0x2>
    4446:	83 30       	cpi	r24, 0x03	; 3
    4448:	09 f0       	breq	.+2      	; 0x444c <CAPA_Set+0x20a>
    444a:	44 c0       	rjmp	.+136    	; 0x44d4 <CAPA_Set+0x292>
    444c:	80 91 a9 4b 	lds	r24, 0x4BA9	; 0x804ba9 <CAPA_10>
    4450:	88 23       	and	r24, r24
    4452:	09 f4       	brne	.+2      	; 0x4456 <CAPA_Set+0x214>
    4454:	3f c0       	rjmp	.+126    	; 0x44d4 <CAPA_Set+0x292>
    4456:	81 50       	subi	r24, 0x01	; 1
    4458:	80 93 a9 4b 	sts	0x4BA9, r24	; 0x804ba9 <CAPA_10>
    445c:	10 92 8e 4b 	sts	0x4B8E, r1	; 0x804b8e <KEY+0x2>
    4460:	39 c0       	rjmp	.+114    	; 0x44d4 <CAPA_Set+0x292>
				}
			break;

			case 3:							// Ž°úŽďúžÖÄ CAPA 1žĚė žěźŽ¶¨
				DIGIT[1][1] = fnd_tbl[CAPA_10];			// Ž°úŽďúžÖÄ CAPA 10žĚė žěźŽ¶¨ ŪĎúžčú
    4462:	e0 91 a9 4b 	lds	r30, 0x4BA9	; 0x804ba9 <CAPA_10>
    4466:	f0 e0       	ldi	r31, 0x00	; 0
    4468:	e9 5b       	subi	r30, 0xB9	; 185
    446a:	fe 4b       	sbci	r31, 0xBE	; 190
    446c:	80 81       	ld	r24, Z
    446e:	80 93 82 41 	sts	0x4182, r24	; 0x804182 <DIGIT+0x5>
				if(Blink) {DIGIT[1][0] = FND_OFF;}		// Blink = 1 žĚīŽ©ī Ž°úŽďúžÖÄ CAPA 1žĚė žěźŽ¶¨ OFF
    4472:	80 91 b9 4b 	lds	r24, 0x4BB9	; 0x804bb9 <Blink>
    4476:	88 23       	and	r24, r24
    4478:	19 f0       	breq	.+6      	; 0x4480 <CAPA_Set+0x23e>
    447a:	10 92 81 41 	sts	0x4181, r1	; 0x804181 <DIGIT+0x4>
    447e:	08 c0       	rjmp	.+16     	; 0x4490 <CAPA_Set+0x24e>
				else	  {DIGIT[1][0] = fnd_tbl[CAPA_1];}	// Blink = 0 žĚīŽ©ī Ž°úŽďúžÖÄ CAPA 1žĚė žěźŽ¶¨ ŪĎúžčú
    4480:	e0 91 6f 4b 	lds	r30, 0x4B6F	; 0x804b6f <CAPA_1>
    4484:	f0 e0       	ldi	r31, 0x00	; 0
    4486:	e9 5b       	subi	r30, 0xB9	; 185
    4488:	fe 4b       	sbci	r31, 0xBE	; 190
    448a:	80 81       	ld	r24, Z
    448c:	80 93 81 41 	sts	0x4181, r24	; 0x804181 <DIGIT+0x4>

				if(KEY.Buff)					// Key žěÖŽ†•žĚī žěąžúľŽ©ī
    4490:	80 91 8d 4b 	lds	r24, 0x4B8D	; 0x804b8d <KEY+0x1>
    4494:	88 23       	and	r24, r24
    4496:	f1 f0       	breq	.+60     	; 0x44d4 <CAPA_Set+0x292>
				{
					if     (KEY.Key == 1 && CAPA_1 < 9) {CAPA_1++; KEY.Key = 0;}	// žóÖ  Ž≤ĄŪäľ žĚīŽ©ī CAPAÍįí 1žĚė žěźŽ¶¨ ž¶ĚÍįÄ
    4498:	80 91 8e 4b 	lds	r24, 0x4B8E	; 0x804b8e <KEY+0x2>
    449c:	81 30       	cpi	r24, 0x01	; 1
    449e:	51 f4       	brne	.+20     	; 0x44b4 <CAPA_Set+0x272>
    44a0:	80 91 6f 4b 	lds	r24, 0x4B6F	; 0x804b6f <CAPA_1>
    44a4:	89 30       	cpi	r24, 0x09	; 9
    44a6:	30 f4       	brcc	.+12     	; 0x44b4 <CAPA_Set+0x272>
    44a8:	8f 5f       	subi	r24, 0xFF	; 255
    44aa:	80 93 6f 4b 	sts	0x4B6F, r24	; 0x804b6f <CAPA_1>
    44ae:	10 92 8e 4b 	sts	0x4B8E, r1	; 0x804b8e <KEY+0x2>
    44b2:	10 c0       	rjmp	.+32     	; 0x44d4 <CAPA_Set+0x292>
					else if(KEY.Key == 3 && CAPA_1 > 0) {CAPA_1--; KEY.Key = 0;}	// Žč§žöīŽ≤ĄŪäľ žĚīŽ©ī CAPAÍįí 1žĚė žěźŽ¶¨ ÍįźžÜĆ
    44b4:	80 91 8e 4b 	lds	r24, 0x4B8E	; 0x804b8e <KEY+0x2>
    44b8:	83 30       	cpi	r24, 0x03	; 3
    44ba:	61 f4       	brne	.+24     	; 0x44d4 <CAPA_Set+0x292>
    44bc:	80 91 6f 4b 	lds	r24, 0x4B6F	; 0x804b6f <CAPA_1>
    44c0:	88 23       	and	r24, r24
    44c2:	41 f0       	breq	.+16     	; 0x44d4 <CAPA_Set+0x292>
    44c4:	81 50       	subi	r24, 0x01	; 1
    44c6:	80 93 6f 4b 	sts	0x4B6F, r24	; 0x804b6f <CAPA_1>
    44ca:	10 92 8e 4b 	sts	0x4B8E, r1	; 0x804b8e <KEY+0x2>
    44ce:	02 c0       	rjmp	.+4      	; 0x44d4 <CAPA_Set+0x292>
				}
			break;

			case 4:
				KEY.Count = 0;					// ŽįėŽ≥ĶžĚĄ žúĄŪēī CountŽ•ľ žĶúž†ÄŽ°ú ÍįźžÜĆ žčúŪāī
    44d0:	10 92 8c 4b 	sts	0x4B8C, r1	; 0x804b8c <KEY>
			break;
		}
		wdt_reset();							// žõĆžĻėŽŹÖ Ž¶¨žÖč
    44d4:	0e 94 17 0d 	call	0x1a2e	; 0x1a2e <wdt_reset>
	CAPA_1000 = Cell_Capa / 1000;						// Ž°úŽďúžÖÄ CAPA 1000žĚė žěźŽ¶¨
	CAPA_100  = Cell_Capa % 1000 / 100;					// Ž°úŽďúžÖÄ CAPA 100žĚė žěźŽ¶¨
	CAPA_10   = Cell_Capa % 100 / 10;					// Ž°úŽďúžÖÄ CAPA  10žĚė žěźŽ¶¨
	CAPA_1    = Cell_Capa % 10;						// Ž°úŽďúžÖÄ CAPA   1žĚė žěźŽ¶¨
//-------------------------------------------------------------------------------------------------
	while(SET.Menu)								// Ž©ĒŽČīÍįÄ 1 žĚīŽ©ī ŽįėŽ≥Ķ
    44d8:	80 91 48 4b 	lds	r24, 0x4B48	; 0x804b48 <SET>
    44dc:	81 11       	cpse	r24, r1
    44de:	fd ce       	rjmp	.-518    	; 0x42da <CAPA_Set+0x98>
		}
		wdt_reset();							// žõĆžĻėŽŹÖ Ž¶¨žÖč
	}
//-------------------------------------------------------------------------------------------------
	Cell_Capa = 0;
	Cell_Capa += (CAPA_1000 * 1000);					// Ž°úŽďúžÖÄ CAPA 1000žĚė žěźŽ¶¨
    44e0:	40 91 ad 41 	lds	r20, 0x41AD	; 0x8041ad <CAPA_1000>
    44e4:	28 ee       	ldi	r18, 0xE8	; 232
    44e6:	33 e0       	ldi	r19, 0x03	; 3
    44e8:	42 9f       	mul	r20, r18
    44ea:	c0 01       	movw	r24, r0
    44ec:	43 9f       	mul	r20, r19
    44ee:	90 0d       	add	r25, r0
    44f0:	11 24       	eor	r1, r1
    44f2:	ac 01       	movw	r20, r24
    44f4:	99 0f       	add	r25, r25
    44f6:	66 0b       	sbc	r22, r22
    44f8:	77 0b       	sbc	r23, r23
	Cell_Capa += (CAPA_100  * 100);						// Ž°úŽďúžÖÄ CAPA  100žĚė žěźŽ¶¨
    44fa:	80 91 9f 4b 	lds	r24, 0x4B9F	; 0x804b9f <CAPA_100>
    44fe:	24 e6       	ldi	r18, 0x64	; 100
    4500:	82 9f       	mul	r24, r18
    4502:	c0 01       	movw	r24, r0
    4504:	11 24       	eor	r1, r1
    4506:	09 2e       	mov	r0, r25
    4508:	00 0c       	add	r0, r0
    450a:	aa 0b       	sbc	r26, r26
    450c:	bb 0b       	sbc	r27, r27
    450e:	84 0f       	add	r24, r20
    4510:	95 1f       	adc	r25, r21
    4512:	a6 1f       	adc	r26, r22
    4514:	b7 1f       	adc	r27, r23
	Cell_Capa += (CAPA_10   * 10);						// Ž°úŽďúžÖÄ CAPA   10žĚė žěźŽ¶¨
    4516:	20 91 a9 4b 	lds	r18, 0x4BA9	; 0x804ba9 <CAPA_10>
    451a:	30 e0       	ldi	r19, 0x00	; 0
    451c:	b9 01       	movw	r22, r18
    451e:	66 0f       	add	r22, r22
    4520:	77 1f       	adc	r23, r23
    4522:	22 0f       	add	r18, r18
    4524:	33 1f       	adc	r19, r19
    4526:	22 0f       	add	r18, r18
    4528:	33 1f       	adc	r19, r19
    452a:	22 0f       	add	r18, r18
    452c:	33 1f       	adc	r19, r19
    452e:	62 0f       	add	r22, r18
    4530:	73 1f       	adc	r23, r19
    4532:	ab 01       	movw	r20, r22
    4534:	77 0f       	add	r23, r23
    4536:	66 0b       	sbc	r22, r22
    4538:	77 0b       	sbc	r23, r23
    453a:	84 0f       	add	r24, r20
    453c:	95 1f       	adc	r25, r21
    453e:	a6 1f       	adc	r26, r22
    4540:	b7 1f       	adc	r27, r23
	Cell_Capa += (CAPA_1    * 1);						// Ž°úŽďúžÖÄ CAPA    1žĚė žěźŽ¶¨
    4542:	20 91 6f 4b 	lds	r18, 0x4B6F	; 0x804b6f <CAPA_1>
    4546:	bc 01       	movw	r22, r24
    4548:	cd 01       	movw	r24, r26
    454a:	62 0f       	add	r22, r18
    454c:	71 1d       	adc	r23, r1
    454e:	81 1d       	adc	r24, r1
    4550:	91 1d       	adc	r25, r1
    4552:	60 93 aa 4b 	sts	0x4BAA, r22	; 0x804baa <Cell_Capa>
    4556:	70 93 ab 4b 	sts	0x4BAB, r23	; 0x804bab <Cell_Capa+0x1>
    455a:	80 93 ac 4b 	sts	0x4BAC, r24	; 0x804bac <Cell_Capa+0x2>
    455e:	90 93 ad 4b 	sts	0x4BAD, r25	; 0x804bad <Cell_Capa+0x3>
//-------------------------------------------------------------------------------------------------
	ee_write_word(Cell_Capa_Addr, Cell_Capa);				// Ž°úŽďúžÖÄ žĚīŽ©ī žö©ŽüČÍįí ž†Äžě•
    4562:	86 e0       	ldi	r24, 0x06	; 6
    4564:	90 e0       	ldi	r25, 0x00	; 0
    4566:	0e 94 13 12 	call	0x2426	; 0x2426 <ee_write_word>

	SET.Menu = 1;								// Menu Ž™®Žďú žú†žßÄ
    456a:	e8 e4       	ldi	r30, 0x48	; 72
    456c:	fb e4       	ldi	r31, 0x4B	; 75
    456e:	81 e0       	ldi	r24, 0x01	; 1
    4570:	80 83       	st	Z, r24
	SET.Select = 0;								// Select Ž≤ĄŪäľ žīąÍłįŪôĒ
    4572:	11 82       	std	Z+1, r1	; 0x01
	SET.Blink = 0;								// žěźŽ¶Ņžąė ÍĻúŽįēžěĄ žīąÍłįŪôĒ
    4574:	13 82       	std	Z+3, r1	; 0x03
	KEY.Count = 0;								// žĄ†ŪÉĚ Key ÍįÄ ŽąĆŽ¶įŪöüžąė žīąÍłįŪôĒ
    4576:	10 92 8c 4b 	sts	0x4B8C, r1	; 0x804b8c <KEY>
}
    457a:	ff 90       	pop	r15
    457c:	ef 90       	pop	r14
    457e:	df 90       	pop	r13
    4580:	cf 90       	pop	r12
    4582:	bf 90       	pop	r11
    4584:	af 90       	pop	r10
    4586:	9f 90       	pop	r9
    4588:	8f 90       	pop	r8
    458a:	08 95       	ret

0000458c <CNT_Set>:

//=================================================================================================
void CNT_Set(void)								// Ž°úŽďúžÖÄ ÍįĮžąė žĄ§ž†ē
{
	FND_Value_Data(0, 2, 12);						// FND 0 ~ 2 FND_OFF
    458c:	4c e0       	ldi	r20, 0x0C	; 12
    458e:	62 e0       	ldi	r22, 0x02	; 2
    4590:	80 e0       	ldi	r24, 0x00	; 0
    4592:	0e 94 c3 05 	call	0xb86	; 0xb86 <FND_Value_Data>

	while(SET.Menu && SET.Select)						// Ž©ĒŽČī žôÄ žĄ†ŪÉĚ žĚī Ž™®ŽĎź 1 žĚīŽ©ī ŽįėŽ≥Ķ
    4596:	43 c0       	rjmp	.+134    	; 0x461e <CNT_Set+0x92>
	{
		DIGIT[1][3] = FND_OFF;						// FND 0 žóź cnt ŪĎúžčú
    4598:	ed e7       	ldi	r30, 0x7D	; 125
    459a:	f1 e4       	ldi	r31, 0x41	; 65
    459c:	17 82       	std	Z+7, r1	; 0x07
		DIGIT[0][2] = FND_c;
    459e:	8a e1       	ldi	r24, 0x1A	; 26
    45a0:	82 83       	std	Z+2, r24	; 0x02
		DIGIT[0][1] = FND_n;
    45a2:	8a e2       	ldi	r24, 0x2A	; 42
    45a4:	81 83       	std	Z+1, r24	; 0x01
		DIGIT[0][0] = FND_t;
    45a6:	8e e1       	ldi	r24, 0x1E	; 30
    45a8:	80 83       	st	Z, r24

		DIGIT[1][3] = FND_OFF;						// FND 1 OFF
		DIGIT[1][2] = FND_OFF;
    45aa:	16 82       	std	Z+6, r1	; 0x06
		DIGIT[1][1] = fnd_tbl[Cell_CNT / 10];				// FND 1 žóź CNT Ž≤ąŪėł ŪĎúžčú
    45ac:	20 91 bb 4b 	lds	r18, 0x4BBB	; 0x804bbb <Cell_CNT>
    45b0:	8d ec       	ldi	r24, 0xCD	; 205
    45b2:	28 9f       	mul	r18, r24
    45b4:	81 2d       	mov	r24, r1
    45b6:	11 24       	eor	r1, r1
    45b8:	86 95       	lsr	r24
    45ba:	86 95       	lsr	r24
    45bc:	86 95       	lsr	r24
    45be:	a8 2f       	mov	r26, r24
    45c0:	b0 e0       	ldi	r27, 0x00	; 0
    45c2:	a9 5b       	subi	r26, 0xB9	; 185
    45c4:	be 4b       	sbci	r27, 0xBE	; 190
    45c6:	9c 91       	ld	r25, X
    45c8:	95 83       	std	Z+5, r25	; 0x05
		DIGIT[1][0] = fnd_tbl[Cell_CNT % 10];
    45ca:	88 0f       	add	r24, r24
    45cc:	98 2f       	mov	r25, r24
    45ce:	99 0f       	add	r25, r25
    45d0:	99 0f       	add	r25, r25
    45d2:	89 0f       	add	r24, r25
    45d4:	a2 2f       	mov	r26, r18
    45d6:	a8 1b       	sub	r26, r24
    45d8:	b0 e0       	ldi	r27, 0x00	; 0
    45da:	a9 5b       	subi	r26, 0xB9	; 185
    45dc:	be 4b       	sbci	r27, 0xBE	; 190
    45de:	8c 91       	ld	r24, X
    45e0:	84 83       	std	Z+4, r24	; 0x04

		DIGIT[2][0] = FND_OFF;						// Ž°úŽďúžÖÄ RO, žěÖÍĶ¨ž≤īž§Ď 1žĚė žěźŽ¶¨ žßÄžöįÍłį
    45e2:	10 86       	std	Z+8, r1	; 0x08

		if(KEY.Buff)							// Key žěÖŽ†•žĚī žěąžúľŽ©ī
    45e4:	80 91 8d 4b 	lds	r24, 0x4B8D	; 0x804b8d <KEY+0x1>
    45e8:	88 23       	and	r24, r24
    45ea:	b9 f0       	breq	.+46     	; 0x461a <CNT_Set+0x8e>
		{
			if     (KEY.Key == 1 && Cell_CNT < 4) {Cell_CNT = Cell_CNT * 2; KEY.Key = 0;}	// žóÖ  Ž≤ĄŪäľ žĚīŽ©ī ÍįĮžąė žĄ§ž†ēÍįí ž¶ĚÍįÄ
    45ec:	80 91 8e 4b 	lds	r24, 0x4B8E	; 0x804b8e <KEY+0x2>
    45f0:	81 30       	cpi	r24, 0x01	; 1
    45f2:	41 f4       	brne	.+16     	; 0x4604 <CNT_Set+0x78>
    45f4:	24 30       	cpi	r18, 0x04	; 4
    45f6:	30 f4       	brcc	.+12     	; 0x4604 <CNT_Set+0x78>
    45f8:	22 0f       	add	r18, r18
    45fa:	20 93 bb 4b 	sts	0x4BBB, r18	; 0x804bbb <Cell_CNT>
    45fe:	10 92 8e 4b 	sts	0x4B8E, r1	; 0x804b8e <KEY+0x2>
    4602:	0b c0       	rjmp	.+22     	; 0x461a <CNT_Set+0x8e>
			else if(KEY.Key == 3 && Cell_CNT > 1) {Cell_CNT = Cell_CNT / 2; KEY.Key = 0;}	// Žč§žöīŽ≤ĄŪäľ žĚīŽ©ī ÍįĮžąė žĄ§ž†ēÍįí ÍįźžÜĆ
    4604:	80 91 8e 4b 	lds	r24, 0x4B8E	; 0x804b8e <KEY+0x2>
    4608:	83 30       	cpi	r24, 0x03	; 3
    460a:	39 f4       	brne	.+14     	; 0x461a <CNT_Set+0x8e>
    460c:	22 30       	cpi	r18, 0x02	; 2
    460e:	28 f0       	brcs	.+10     	; 0x461a <CNT_Set+0x8e>
    4610:	26 95       	lsr	r18
    4612:	20 93 bb 4b 	sts	0x4BBB, r18	; 0x804bbb <Cell_CNT>
    4616:	10 92 8e 4b 	sts	0x4B8E, r1	; 0x804b8e <KEY+0x2>
		}
		wdt_reset();							// žõĆžĻėŽŹÖ Ž¶¨žÖč
    461a:	0e 94 17 0d 	call	0x1a2e	; 0x1a2e <wdt_reset>
//=================================================================================================
void CNT_Set(void)								// Ž°úŽďúžÖÄ ÍįĮžąė žĄ§ž†ē
{
	FND_Value_Data(0, 2, 12);						// FND 0 ~ 2 FND_OFF

	while(SET.Menu && SET.Select)						// Ž©ĒŽČī žôÄ žĄ†ŪÉĚ žĚī Ž™®ŽĎź 1 žĚīŽ©ī ŽįėŽ≥Ķ
    461e:	80 91 48 4b 	lds	r24, 0x4B48	; 0x804b48 <SET>
    4622:	88 23       	and	r24, r24
    4624:	21 f0       	breq	.+8      	; 0x462e <CNT_Set+0xa2>
    4626:	80 91 49 4b 	lds	r24, 0x4B49	; 0x804b49 <SET+0x1>
    462a:	81 11       	cpse	r24, r1
    462c:	b5 cf       	rjmp	.-150    	; 0x4598 <CNT_Set+0xc>
			else if(KEY.Key == 3 && Cell_CNT > 1) {Cell_CNT = Cell_CNT / 2; KEY.Key = 0;}	// Žč§žöīŽ≤ĄŪäľ žĚīŽ©ī ÍįĮžąė žĄ§ž†ēÍįí ÍįźžÜĆ
		}
		wdt_reset();							// žõĆžĻėŽŹÖ Ž¶¨žÖč
	}
//-------------------------------------------------------------------------------------------------
	ee_write_byte(Cell_CNT_Addr, Cell_CNT);					// Ž°úŽďúžÖÄ žĚīŽ©ī ÍįĮžąė žĄ§ž†ēÍįížĚĄ EEPROM žóź ž†Äžě•
    462e:	60 91 bb 4b 	lds	r22, 0x4BBB	; 0x804bbb <Cell_CNT>
    4632:	85 e0       	ldi	r24, 0x05	; 5
    4634:	90 e0       	ldi	r25, 0x00	; 0
    4636:	0e 94 f0 11 	call	0x23e0	; 0x23e0 <ee_write_byte>
    463a:	08 95       	ret

0000463c <ID_Set>:
}

//=================================================================================================
void ID_Set(void)								// ID žĄ§ž†ē
{
	FND_Value_Data(0, 2, 12);						// FND 0 ~ 2 FND_OFF
    463c:	4c e0       	ldi	r20, 0x0C	; 12
    463e:	62 e0       	ldi	r22, 0x02	; 2
    4640:	80 e0       	ldi	r24, 0x00	; 0
    4642:	0e 94 c3 05 	call	0xb86	; 0xb86 <FND_Value_Data>

	while(SET.Menu && SET.Select)						// Ž©ĒŽČī žôÄ žĄ†ŪÉĚ žĚī Ž™®ŽĎź 1 žĚīŽ©ī ŽįėŽ≥Ķ
    4646:	43 c0       	rjmp	.+134    	; 0x46ce <ID_Set+0x92>
	{
		DIGIT[0][3] = FND_OFF;						// FND 0 žóź ID ŪĎúžčú
    4648:	ed e7       	ldi	r30, 0x7D	; 125
    464a:	f1 e4       	ldi	r31, 0x41	; 65
    464c:	13 82       	std	Z+3, r1	; 0x03
		DIGIT[0][2] = FND_I;
    464e:	80 e6       	ldi	r24, 0x60	; 96
    4650:	82 83       	std	Z+2, r24	; 0x02
		DIGIT[0][1] = FND_d;
    4652:	8a e7       	ldi	r24, 0x7A	; 122
    4654:	81 83       	std	Z+1, r24	; 0x01
		DIGIT[0][0] = FND_OFF;
    4656:	10 82       	st	Z, r1

		DIGIT[1][3] = FND_OFF;						// FND 1 OFF
    4658:	17 82       	std	Z+7, r1	; 0x07
		DIGIT[1][2] = FND_OFF;
    465a:	16 82       	std	Z+6, r1	; 0x06
		DIGIT[1][1] = fnd_tbl[Cell_ID / 10];				// FND 1 žóź ID Ž≤ąŪėł ŪĎúžčú
    465c:	20 91 19 4b 	lds	r18, 0x4B19	; 0x804b19 <Cell_ID>
    4660:	8d ec       	ldi	r24, 0xCD	; 205
    4662:	28 9f       	mul	r18, r24
    4664:	81 2d       	mov	r24, r1
    4666:	11 24       	eor	r1, r1
    4668:	86 95       	lsr	r24
    466a:	86 95       	lsr	r24
    466c:	86 95       	lsr	r24
    466e:	a8 2f       	mov	r26, r24
    4670:	b0 e0       	ldi	r27, 0x00	; 0
    4672:	a9 5b       	subi	r26, 0xB9	; 185
    4674:	be 4b       	sbci	r27, 0xBE	; 190
    4676:	9c 91       	ld	r25, X
    4678:	95 83       	std	Z+5, r25	; 0x05
		DIGIT[1][0] = fnd_tbl[Cell_ID % 10];
    467a:	88 0f       	add	r24, r24
    467c:	98 2f       	mov	r25, r24
    467e:	99 0f       	add	r25, r25
    4680:	99 0f       	add	r25, r25
    4682:	89 0f       	add	r24, r25
    4684:	a2 2f       	mov	r26, r18
    4686:	a8 1b       	sub	r26, r24
    4688:	b0 e0       	ldi	r27, 0x00	; 0
    468a:	a9 5b       	subi	r26, 0xB9	; 185
    468c:	be 4b       	sbci	r27, 0xBE	; 190
    468e:	8c 91       	ld	r24, X
    4690:	84 83       	std	Z+4, r24	; 0x04

		DIGIT[2][0] = FND_OFF;						// Ž°úŽďúžÖÄ RO, žěÖÍĶ¨ž≤īž§Ď 1žĚė žěźŽ¶¨ žßÄžöįÍłį
    4692:	10 86       	std	Z+8, r1	; 0x08

		if(KEY.Buff)							// Key žěÖŽ†•žĚī žěąžúľŽ©ī
    4694:	80 91 8d 4b 	lds	r24, 0x4B8D	; 0x804b8d <KEY+0x1>
    4698:	88 23       	and	r24, r24
    469a:	b9 f0       	breq	.+46     	; 0x46ca <ID_Set+0x8e>
		{
			if     (KEY.Key == 1 && Cell_ID < 60) {Cell_ID++; KEY.Key = 0;}	// žóÖ  Ž≤ĄŪäľ žĚīŽ©ī IDÍįí ž¶ĚÍįÄ
    469c:	80 91 8e 4b 	lds	r24, 0x4B8E	; 0x804b8e <KEY+0x2>
    46a0:	81 30       	cpi	r24, 0x01	; 1
    46a2:	41 f4       	brne	.+16     	; 0x46b4 <ID_Set+0x78>
    46a4:	2c 33       	cpi	r18, 0x3C	; 60
    46a6:	30 f4       	brcc	.+12     	; 0x46b4 <ID_Set+0x78>
    46a8:	2f 5f       	subi	r18, 0xFF	; 255
    46aa:	20 93 19 4b 	sts	0x4B19, r18	; 0x804b19 <Cell_ID>
    46ae:	10 92 8e 4b 	sts	0x4B8E, r1	; 0x804b8e <KEY+0x2>
    46b2:	0b c0       	rjmp	.+22     	; 0x46ca <ID_Set+0x8e>
			else if(KEY.Key == 3 && Cell_ID > 0)  {Cell_ID--; KEY.Key = 0;}	// Žč§žöīŽ≤ĄŪäľ žĚīŽ©ī IDÍįí ÍįźžÜĆ
    46b4:	80 91 8e 4b 	lds	r24, 0x4B8E	; 0x804b8e <KEY+0x2>
    46b8:	83 30       	cpi	r24, 0x03	; 3
    46ba:	39 f4       	brne	.+14     	; 0x46ca <ID_Set+0x8e>
    46bc:	22 23       	and	r18, r18
    46be:	29 f0       	breq	.+10     	; 0x46ca <ID_Set+0x8e>
    46c0:	21 50       	subi	r18, 0x01	; 1
    46c2:	20 93 19 4b 	sts	0x4B19, r18	; 0x804b19 <Cell_ID>
    46c6:	10 92 8e 4b 	sts	0x4B8E, r1	; 0x804b8e <KEY+0x2>
		}
		wdt_reset();							// žõĆžĻėŽŹÖ Ž¶¨žÖč
    46ca:	0e 94 17 0d 	call	0x1a2e	; 0x1a2e <wdt_reset>
//=================================================================================================
void ID_Set(void)								// ID žĄ§ž†ē
{
	FND_Value_Data(0, 2, 12);						// FND 0 ~ 2 FND_OFF

	while(SET.Menu && SET.Select)						// Ž©ĒŽČī žôÄ žĄ†ŪÉĚ žĚī Ž™®ŽĎź 1 žĚīŽ©ī ŽįėŽ≥Ķ
    46ce:	80 91 48 4b 	lds	r24, 0x4B48	; 0x804b48 <SET>
    46d2:	88 23       	and	r24, r24
    46d4:	21 f0       	breq	.+8      	; 0x46de <ID_Set+0xa2>
    46d6:	80 91 49 4b 	lds	r24, 0x4B49	; 0x804b49 <SET+0x1>
    46da:	81 11       	cpse	r24, r1
    46dc:	b5 cf       	rjmp	.-150    	; 0x4648 <ID_Set+0xc>
			else if(KEY.Key == 3 && Cell_ID > 0)  {Cell_ID--; KEY.Key = 0;}	// Žč§žöīŽ≤ĄŪäľ žĚīŽ©ī IDÍįí ÍįźžÜĆ
		}
		wdt_reset();							// žõĆžĻėŽŹÖ Ž¶¨žÖč
	}
//-------------------------------------------------------------------------------------------------
	ee_write_byte(Cell_ID_Addr, Cell_ID);					// Ž°úŽďúžÖÄ žĚīŽ©ī ID Ž•ľ EEPROM žóź ž†Äžě•
    46de:	60 91 19 4b 	lds	r22, 0x4B19	; 0x804b19 <Cell_ID>
    46e2:	84 e0       	ldi	r24, 0x04	; 4
    46e4:	90 e0       	ldi	r25, 0x00	; 0
    46e6:	0e 94 f0 11 	call	0x23e0	; 0x23e0 <ee_write_byte>
    46ea:	08 95       	ret

000046ec <Loadcell_Set>:
}

//=================================================================================================
void Loadcell_Set(void)								// Ž°úŽďúžÖÄ žĄ§ž†ē
{
    46ec:	4f 92       	push	r4
    46ee:	5f 92       	push	r5
    46f0:	6f 92       	push	r6
    46f2:	7f 92       	push	r7
    46f4:	8f 92       	push	r8
    46f6:	9f 92       	push	r9
    46f8:	af 92       	push	r10
    46fa:	bf 92       	push	r11
    46fc:	cf 92       	push	r12
    46fe:	df 92       	push	r13
    4700:	ef 92       	push	r14
    4702:	ff 92       	push	r15
    4704:	0f 93       	push	r16
    4706:	1f 93       	push	r17
    4708:	cf 93       	push	r28
    470a:	df 93       	push	r29
	uint8_t Count = 1;							// žĻīžöīŪäł Ž≥Äžąė žīąÍłįŪôĒ
	uint8_t cnt = 0;							// žĻīžöīŪäł Ž≥Äžąė žīąÍłįŪôĒ

	SET.Select = 0;								// Select Ž≤ĄŪäľ žīąÍłįŪôĒ
    470c:	10 92 49 4b 	sts	0x4B49, r1	; 0x804b49 <SET+0x1>
	FND_Value_Data(0, 2, 12);						// FND 0 ~ 2 FND_OFF
    4710:	4c e0       	ldi	r20, 0x0C	; 12
    4712:	62 e0       	ldi	r22, 0x02	; 2
    4714:	80 e0       	ldi	r24, 0x00	; 0
    4716:	0e 94 c3 05 	call	0xb86	; 0xb86 <FND_Value_Data>
//-------------------------------------------------------------------------------------------------
	Cell_ID	  = ee_read_byte(Cell_ID_Addr);					// Ž°úŽďúžÖÄ ID Íįí
    471a:	84 e0       	ldi	r24, 0x04	; 4
    471c:	90 e0       	ldi	r25, 0x00	; 0
    471e:	0e 94 ce 11 	call	0x239c	; 0x239c <ee_read_byte>
    4722:	80 93 19 4b 	sts	0x4B19, r24	; 0x804b19 <Cell_ID>
	Cell_CNT  = ee_read_byte(Cell_CNT_Addr);				// Ž°úŽďúžÖÄ ÍįĮžąė žĄ§ž†ēÍįí
    4726:	85 e0       	ldi	r24, 0x05	; 5
    4728:	90 e0       	ldi	r25, 0x00	; 0
    472a:	0e 94 ce 11 	call	0x239c	; 0x239c <ee_read_byte>
    472e:	80 93 bb 4b 	sts	0x4BBB, r24	; 0x804bbb <Cell_CNT>
	Cell_Capa = ee_read_word(Cell_Capa_Addr);				// Ž°úŽďúžÖÄ CAPA Íįí
    4732:	86 e0       	ldi	r24, 0x06	; 6
    4734:	90 e0       	ldi	r25, 0x00	; 0
    4736:	0e 94 d8 11 	call	0x23b0	; 0x23b0 <ee_read_word>
    473a:	a0 e0       	ldi	r26, 0x00	; 0
    473c:	b0 e0       	ldi	r27, 0x00	; 0
    473e:	80 93 aa 4b 	sts	0x4BAA, r24	; 0x804baa <Cell_Capa>
    4742:	90 93 ab 4b 	sts	0x4BAB, r25	; 0x804bab <Cell_Capa+0x1>
    4746:	a0 93 ac 4b 	sts	0x4BAC, r26	; 0x804bac <Cell_Capa+0x2>
    474a:	b0 93 ad 4b 	sts	0x4BAD, r27	; 0x804bad <Cell_Capa+0x3>
	RO	  = ee_read_dword(Cell_RO_Addr);				// Ž°úŽďúžÖÄ RO Íįí
    474e:	8c e0       	ldi	r24, 0x0C	; 12
    4750:	90 e0       	ldi	r25, 0x00	; 0
    4752:	0e 94 e3 11 	call	0x23c6	; 0x23c6 <ee_read_dword>
    4756:	dc 01       	movw	r26, r24
    4758:	cb 01       	movw	r24, r22
    475a:	80 93 4d 4b 	sts	0x4B4D, r24	; 0x804b4d <RO>
    475e:	90 93 4e 4b 	sts	0x4B4E, r25	; 0x804b4e <RO+0x1>
    4762:	a0 93 4f 4b 	sts	0x4B4F, r26	; 0x804b4f <RO+0x2>
    4766:	b0 93 50 4b 	sts	0x4B50, r27	; 0x804b50 <RO+0x3>
    476a:	10 92 51 4b 	sts	0x4B51, r1	; 0x804b51 <RO+0x4>
    476e:	10 92 52 4b 	sts	0x4B52, r1	; 0x804b52 <RO+0x5>
    4772:	10 92 53 4b 	sts	0x4B53, r1	; 0x804b53 <RO+0x6>
    4776:	10 92 54 4b 	sts	0x4B54, r1	; 0x804b54 <RO+0x7>
	IN_Scales = ee_read_word(Cell_IN_S_Addr);				// Ž°úŽďúžÖÄ žěÖÍĶ¨ž≤īž§Ď Íįí
    477a:	88 e0       	ldi	r24, 0x08	; 8
    477c:	90 e0       	ldi	r25, 0x00	; 0
    477e:	0e 94 d8 11 	call	0x23b0	; 0x23b0 <ee_read_word>
    4782:	80 93 41 4b 	sts	0x4B41, r24	; 0x804b41 <IN_Scales>
    4786:	90 93 42 4b 	sts	0x4B42, r25	; 0x804b42 <IN_Scales+0x1>
	INT	  = ee_read_word(Cell_Interval_Addr);				// Ž°úŽďúžÖÄ Ž≥īž†ē Íįí
    478a:	8a e0       	ldi	r24, 0x0A	; 10
    478c:	90 e0       	ldi	r25, 0x00	; 0
    478e:	0e 94 d8 11 	call	0x23b0	; 0x23b0 <ee_read_word>
    4792:	80 93 a6 4b 	sts	0x4BA6, r24	; 0x804ba6 <INT>
    4796:	90 93 a7 4b 	sts	0x4BA7, r25	; 0x804ba7 <INT+0x1>
//-------------------------------------------------------------------------------------------------
	CAPA_1000 = Cell_Capa / 1000;						// Ž°úŽďúžÖÄ CAPA 1000žĚė žěźŽ¶¨
    479a:	40 90 aa 4b 	lds	r4, 0x4BAA	; 0x804baa <Cell_Capa>
    479e:	50 90 ab 4b 	lds	r5, 0x4BAB	; 0x804bab <Cell_Capa+0x1>
    47a2:	60 90 ac 4b 	lds	r6, 0x4BAC	; 0x804bac <Cell_Capa+0x2>
    47a6:	70 90 ad 4b 	lds	r7, 0x4BAD	; 0x804bad <Cell_Capa+0x3>
    47aa:	c3 01       	movw	r24, r6
    47ac:	b2 01       	movw	r22, r4
    47ae:	28 ee       	ldi	r18, 0xE8	; 232
    47b0:	33 e0       	ldi	r19, 0x03	; 3
    47b2:	40 e0       	ldi	r20, 0x00	; 0
    47b4:	50 e0       	ldi	r21, 0x00	; 0
    47b6:	0e 94 65 38 	call	0x70ca	; 0x70ca <__udivmodsi4>
    47ba:	20 93 ad 41 	sts	0x41AD, r18	; 0x8041ad <CAPA_1000>
	CAPA_100  = Cell_Capa % 1000 / 100;					// Ž°úŽďúžÖÄ CAPA  100žĚė žěźŽ¶¨
    47be:	0f 2e       	mov	r0, r31
    47c0:	f4 e6       	ldi	r31, 0x64	; 100
    47c2:	8f 2e       	mov	r8, r31
    47c4:	91 2c       	mov	r9, r1
    47c6:	a1 2c       	mov	r10, r1
    47c8:	b1 2c       	mov	r11, r1
    47ca:	f0 2d       	mov	r31, r0
    47cc:	a5 01       	movw	r20, r10
    47ce:	94 01       	movw	r18, r8
    47d0:	0e 94 65 38 	call	0x70ca	; 0x70ca <__udivmodsi4>
    47d4:	20 93 9f 4b 	sts	0x4B9F, r18	; 0x804b9f <CAPA_100>
	CAPA_10   = Cell_Capa % 100 / 10;					// Ž°úŽďúžÖÄ CAPA   10žĚė žěźŽ¶¨
    47d8:	c3 01       	movw	r24, r6
    47da:	b2 01       	movw	r22, r4
    47dc:	a5 01       	movw	r20, r10
    47de:	94 01       	movw	r18, r8
    47e0:	0e 94 65 38 	call	0x70ca	; 0x70ca <__udivmodsi4>
    47e4:	0f 2e       	mov	r0, r31
    47e6:	fa e0       	ldi	r31, 0x0A	; 10
    47e8:	8f 2e       	mov	r8, r31
    47ea:	91 2c       	mov	r9, r1
    47ec:	a1 2c       	mov	r10, r1
    47ee:	b1 2c       	mov	r11, r1
    47f0:	f0 2d       	mov	r31, r0
    47f2:	a5 01       	movw	r20, r10
    47f4:	94 01       	movw	r18, r8
    47f6:	0e 94 65 38 	call	0x70ca	; 0x70ca <__udivmodsi4>
    47fa:	20 93 a9 4b 	sts	0x4BA9, r18	; 0x804ba9 <CAPA_10>
	CAPA_1    = Cell_Capa % 10;						// Ž°úŽďúžÖÄ CAPA    1žĚė žěźŽ¶¨
    47fe:	c3 01       	movw	r24, r6
    4800:	b2 01       	movw	r22, r4
    4802:	a5 01       	movw	r20, r10
    4804:	94 01       	movw	r18, r8
    4806:	0e 94 65 38 	call	0x70ca	; 0x70ca <__udivmodsi4>
    480a:	60 93 6f 4b 	sts	0x4B6F, r22	; 0x804b6f <CAPA_1>
//-------------------------------------------------------------------------------------------------
	RO_10000 = RO / 10000;							// Ž°úŽďúžÖÄ RO 10000žĚė žěźŽ¶¨
    480e:	40 90 4d 4b 	lds	r4, 0x4B4D	; 0x804b4d <RO>
    4812:	50 90 4e 4b 	lds	r5, 0x4B4E	; 0x804b4e <RO+0x1>
    4816:	60 90 4f 4b 	lds	r6, 0x4B4F	; 0x804b4f <RO+0x2>
    481a:	70 90 50 4b 	lds	r7, 0x4B50	; 0x804b50 <RO+0x3>
    481e:	80 90 51 4b 	lds	r8, 0x4B51	; 0x804b51 <RO+0x4>
    4822:	90 90 52 4b 	lds	r9, 0x4B52	; 0x804b52 <RO+0x5>
    4826:	d0 91 53 4b 	lds	r29, 0x4B53	; 0x804b53 <RO+0x6>
    482a:	c0 91 54 4b 	lds	r28, 0x4B54	; 0x804b54 <RO+0x7>
    482e:	68 94       	set
    4830:	aa 24       	eor	r10, r10
    4832:	a4 f8       	bld	r10, 4
    4834:	0f 2e       	mov	r0, r31
    4836:	f7 e2       	ldi	r31, 0x27	; 39
    4838:	bf 2e       	mov	r11, r31
    483a:	f0 2d       	mov	r31, r0
    483c:	c1 2c       	mov	r12, r1
    483e:	d1 2c       	mov	r13, r1
    4840:	e1 2c       	mov	r14, r1
    4842:	f1 2c       	mov	r15, r1
    4844:	00 e0       	ldi	r16, 0x00	; 0
    4846:	10 e0       	ldi	r17, 0x00	; 0
    4848:	24 2d       	mov	r18, r4
    484a:	35 2d       	mov	r19, r5
    484c:	46 2d       	mov	r20, r6
    484e:	57 2d       	mov	r21, r7
    4850:	68 2d       	mov	r22, r8
    4852:	79 2d       	mov	r23, r9
    4854:	8d 2f       	mov	r24, r29
    4856:	9c 2f       	mov	r25, r28
    4858:	0e 94 24 39 	call	0x7248	; 0x7248 <__udivdi3>
    485c:	20 93 97 4b 	sts	0x4B97, r18	; 0x804b97 <RO_10000>
    4860:	30 93 98 4b 	sts	0x4B98, r19	; 0x804b98 <RO_10000+0x1>
    4864:	40 93 99 4b 	sts	0x4B99, r20	; 0x804b99 <RO_10000+0x2>
    4868:	50 93 9a 4b 	sts	0x4B9A, r21	; 0x804b9a <RO_10000+0x3>
    486c:	60 93 9b 4b 	sts	0x4B9B, r22	; 0x804b9b <RO_10000+0x4>
    4870:	70 93 9c 4b 	sts	0x4B9C, r23	; 0x804b9c <RO_10000+0x5>
    4874:	80 93 9d 4b 	sts	0x4B9D, r24	; 0x804b9d <RO_10000+0x6>
    4878:	90 93 9e 4b 	sts	0x4B9E, r25	; 0x804b9e <RO_10000+0x7>
	RO_1000  = RO % 10000 / 1000;						// Ž°úŽďúžÖÄ RO  1000žĚė žěźŽ¶¨
    487c:	24 2d       	mov	r18, r4
    487e:	35 2d       	mov	r19, r5
    4880:	46 2d       	mov	r20, r6
    4882:	57 2d       	mov	r21, r7
    4884:	68 2d       	mov	r22, r8
    4886:	79 2d       	mov	r23, r9
    4888:	8d 2f       	mov	r24, r29
    488a:	9c 2f       	mov	r25, r28
    488c:	0e 94 22 39 	call	0x7244	; 0x7244 <__umoddi3>
    4890:	0f 2e       	mov	r0, r31
    4892:	f8 ee       	ldi	r31, 0xE8	; 232
    4894:	af 2e       	mov	r10, r31
    4896:	f0 2d       	mov	r31, r0
    4898:	0f 2e       	mov	r0, r31
    489a:	f3 e0       	ldi	r31, 0x03	; 3
    489c:	bf 2e       	mov	r11, r31
    489e:	f0 2d       	mov	r31, r0
    48a0:	0e 94 24 39 	call	0x7248	; 0x7248 <__udivdi3>
    48a4:	20 93 c3 4c 	sts	0x4CC3, r18	; 0x804cc3 <RO_1000>
    48a8:	30 93 c4 4c 	sts	0x4CC4, r19	; 0x804cc4 <RO_1000+0x1>
    48ac:	40 93 c5 4c 	sts	0x4CC5, r20	; 0x804cc5 <RO_1000+0x2>
    48b0:	50 93 c6 4c 	sts	0x4CC6, r21	; 0x804cc6 <RO_1000+0x3>
    48b4:	60 93 c7 4c 	sts	0x4CC7, r22	; 0x804cc7 <RO_1000+0x4>
    48b8:	70 93 c8 4c 	sts	0x4CC8, r23	; 0x804cc8 <RO_1000+0x5>
    48bc:	80 93 c9 4c 	sts	0x4CC9, r24	; 0x804cc9 <RO_1000+0x6>
    48c0:	90 93 ca 4c 	sts	0x4CCA, r25	; 0x804cca <RO_1000+0x7>
	RO_100   = RO % 1000 / 100;						// Ž°úŽďúžÖÄ RO   100žĚė žěźŽ¶¨
    48c4:	24 2d       	mov	r18, r4
    48c6:	35 2d       	mov	r19, r5
    48c8:	46 2d       	mov	r20, r6
    48ca:	57 2d       	mov	r21, r7
    48cc:	68 2d       	mov	r22, r8
    48ce:	79 2d       	mov	r23, r9
    48d0:	8d 2f       	mov	r24, r29
    48d2:	9c 2f       	mov	r25, r28
    48d4:	0e 94 22 39 	call	0x7244	; 0x7244 <__umoddi3>
    48d8:	0f 2e       	mov	r0, r31
    48da:	f4 e6       	ldi	r31, 0x64	; 100
    48dc:	af 2e       	mov	r10, r31
    48de:	f0 2d       	mov	r31, r0
    48e0:	b1 2c       	mov	r11, r1
    48e2:	0e 94 24 39 	call	0x7248	; 0x7248 <__udivdi3>
    48e6:	20 93 b1 4b 	sts	0x4BB1, r18	; 0x804bb1 <RO_100>
    48ea:	30 93 b2 4b 	sts	0x4BB2, r19	; 0x804bb2 <RO_100+0x1>
    48ee:	40 93 b3 4b 	sts	0x4BB3, r20	; 0x804bb3 <RO_100+0x2>
    48f2:	50 93 b4 4b 	sts	0x4BB4, r21	; 0x804bb4 <RO_100+0x3>
    48f6:	60 93 b5 4b 	sts	0x4BB5, r22	; 0x804bb5 <RO_100+0x4>
    48fa:	70 93 b6 4b 	sts	0x4BB6, r23	; 0x804bb6 <RO_100+0x5>
    48fe:	80 93 b7 4b 	sts	0x4BB7, r24	; 0x804bb7 <RO_100+0x6>
    4902:	90 93 b8 4b 	sts	0x4BB8, r25	; 0x804bb8 <RO_100+0x7>
	RO_10    = RO % 100 / 10;						// Ž°úŽďúžÖÄ RO    10žĚė žěźŽ¶¨
    4906:	24 2d       	mov	r18, r4
    4908:	35 2d       	mov	r19, r5
    490a:	46 2d       	mov	r20, r6
    490c:	57 2d       	mov	r21, r7
    490e:	68 2d       	mov	r22, r8
    4910:	79 2d       	mov	r23, r9
    4912:	8d 2f       	mov	r24, r29
    4914:	9c 2f       	mov	r25, r28
    4916:	0e 94 22 39 	call	0x7244	; 0x7244 <__umoddi3>
    491a:	0f 2e       	mov	r0, r31
    491c:	fa e0       	ldi	r31, 0x0A	; 10
    491e:	af 2e       	mov	r10, r31
    4920:	f0 2d       	mov	r31, r0
    4922:	0e 94 24 39 	call	0x7248	; 0x7248 <__udivdi3>
    4926:	20 93 7f 4b 	sts	0x4B7F, r18	; 0x804b7f <RO_10>
    492a:	30 93 80 4b 	sts	0x4B80, r19	; 0x804b80 <RO_10+0x1>
    492e:	40 93 81 4b 	sts	0x4B81, r20	; 0x804b81 <RO_10+0x2>
    4932:	50 93 82 4b 	sts	0x4B82, r21	; 0x804b82 <RO_10+0x3>
    4936:	60 93 83 4b 	sts	0x4B83, r22	; 0x804b83 <RO_10+0x4>
    493a:	70 93 84 4b 	sts	0x4B84, r23	; 0x804b84 <RO_10+0x5>
    493e:	80 93 85 4b 	sts	0x4B85, r24	; 0x804b85 <RO_10+0x6>
    4942:	90 93 86 4b 	sts	0x4B86, r25	; 0x804b86 <RO_10+0x7>
	RO_1     = RO % 10;							// Ž°úŽďúžÖÄ RO     1žĚė žěźŽ¶¨
    4946:	24 2d       	mov	r18, r4
    4948:	35 2d       	mov	r19, r5
    494a:	46 2d       	mov	r20, r6
    494c:	57 2d       	mov	r21, r7
    494e:	68 2d       	mov	r22, r8
    4950:	79 2d       	mov	r23, r9
    4952:	8d 2f       	mov	r24, r29
    4954:	9c 2f       	mov	r25, r28
    4956:	0e 94 22 39 	call	0x7244	; 0x7244 <__umoddi3>
    495a:	20 93 be 4b 	sts	0x4BBE, r18	; 0x804bbe <RO_1>
    495e:	30 93 bf 4b 	sts	0x4BBF, r19	; 0x804bbf <RO_1+0x1>
    4962:	40 93 c0 4b 	sts	0x4BC0, r20	; 0x804bc0 <RO_1+0x2>
    4966:	50 93 c1 4b 	sts	0x4BC1, r21	; 0x804bc1 <RO_1+0x3>
    496a:	60 93 c2 4b 	sts	0x4BC2, r22	; 0x804bc2 <RO_1+0x4>
    496e:	70 93 c3 4b 	sts	0x4BC3, r23	; 0x804bc3 <RO_1+0x5>
    4972:	80 93 c4 4b 	sts	0x4BC4, r24	; 0x804bc4 <RO_1+0x6>
    4976:	90 93 c5 4b 	sts	0x4BC5, r25	; 0x804bc5 <RO_1+0x7>
//-------------------------------------------------------------------------------------------------
	IN_S_10000 = IN_Scales / 10000;						// žěÖÍĶ¨ ž≤īž§Ď 10.000kgžĚė žěźŽ¶¨
    497a:	20 91 41 4b 	lds	r18, 0x4B41	; 0x804b41 <IN_Scales>
    497e:	30 91 42 4b 	lds	r19, 0x4B42	; 0x804b42 <IN_Scales+0x1>
    4982:	c9 01       	movw	r24, r18
    4984:	60 e1       	ldi	r22, 0x10	; 16
    4986:	77 e2       	ldi	r23, 0x27	; 39
    4988:	0e 94 51 38 	call	0x70a2	; 0x70a2 <__divmodhi4>
    498c:	60 93 43 4b 	sts	0x4B43, r22	; 0x804b43 <IN_S_10000>
	IN_S_1000  = IN_Scales % 10000/ 1000;					// žěÖÍĶ¨ ž≤īž§Ď  1.000kgžĚė žěźŽ¶¨
    4990:	e8 ee       	ldi	r30, 0xE8	; 232
    4992:	f3 e0       	ldi	r31, 0x03	; 3
    4994:	bf 01       	movw	r22, r30
    4996:	0e 94 51 38 	call	0x70a2	; 0x70a2 <__divmodhi4>
    499a:	60 93 ba 4b 	sts	0x4BBA, r22	; 0x804bba <IN_S_1000>
	IN_S_100   = IN_Scales % 1000 / 100;					// žěÖÍĶ¨ ž≤īž§Ď  0.100kgžĚė žěźŽ¶¨
    499e:	c9 01       	movw	r24, r18
    49a0:	bf 01       	movw	r22, r30
    49a2:	0e 94 51 38 	call	0x70a2	; 0x70a2 <__divmodhi4>
    49a6:	e4 e6       	ldi	r30, 0x64	; 100
    49a8:	f0 e0       	ldi	r31, 0x00	; 0
    49aa:	bf 01       	movw	r22, r30
    49ac:	0e 94 51 38 	call	0x70a2	; 0x70a2 <__divmodhi4>
    49b0:	60 93 44 4b 	sts	0x4B44, r22	; 0x804b44 <IN_S_100>
	IN_S_10    = IN_Scales % 100 / 10;					// žěÖÍĶ¨ ž≤īž§Ď  0.010kgžĚė žěźŽ¶¨
    49b4:	c9 01       	movw	r24, r18
    49b6:	bf 01       	movw	r22, r30
    49b8:	0e 94 51 38 	call	0x70a2	; 0x70a2 <__divmodhi4>
    49bc:	ea e0       	ldi	r30, 0x0A	; 10
    49be:	f0 e0       	ldi	r31, 0x00	; 0
    49c0:	bf 01       	movw	r22, r30
    49c2:	0e 94 51 38 	call	0x70a2	; 0x70a2 <__divmodhi4>
    49c6:	60 93 23 4b 	sts	0x4B23, r22	; 0x804b23 <IN_S_10>
	IN_S_1     = IN_Scales % 10;						// žěÖÍĶ¨ ž≤īž§Ď  0.001kgžĚė žěźŽ¶¨
    49ca:	c9 01       	movw	r24, r18
    49cc:	bf 01       	movw	r22, r30
    49ce:	0e 94 51 38 	call	0x70a2	; 0x70a2 <__divmodhi4>
    49d2:	80 93 a5 4b 	sts	0x4BA5, r24	; 0x804ba5 <IN_S_1>
}

//=================================================================================================
void Loadcell_Set(void)								// Ž°úŽďúžÖÄ žĄ§ž†ē
{
	uint8_t Count = 1;							// žĻīžöīŪäł Ž≥Äžąė žīąÍłįŪôĒ
    49d6:	c1 e0       	ldi	r28, 0x01	; 1
	IN_S_1000  = IN_Scales % 10000/ 1000;					// žěÖÍĶ¨ ž≤īž§Ď  1.000kgžĚė žěźŽ¶¨
	IN_S_100   = IN_Scales % 1000 / 100;					// žěÖÍĶ¨ ž≤īž§Ď  0.100kgžĚė žěźŽ¶¨
	IN_S_10    = IN_Scales % 100 / 10;					// žěÖÍĶ¨ ž≤īž§Ď  0.010kgžĚė žěźŽ¶¨
	IN_S_1     = IN_Scales % 10;						// žěÖÍĶ¨ ž≤īž§Ď  0.001kgžĚė žěźŽ¶¨
//-------------------------------------------------------------------------------------------------
	while(SET.Menu)								// Ž©ĒŽČīÍįÄ 1 žĚīŽ©ī ŽįėŽ≥Ķ
    49d8:	9d c1       	rjmp	.+826    	; 0x4d14 <Loadcell_Set+0x628>
	{
		if(KEY.Buff)							// Key žěÖŽ†•žĚī žěąžúľŽ©ī
    49da:	80 91 8d 4b 	lds	r24, 0x4B8D	; 0x804b8d <KEY+0x1>
    49de:	88 23       	and	r24, r24
    49e0:	99 f0       	breq	.+38     	; 0x4a08 <Loadcell_Set+0x31c>
		{
			if     (KEY.Key == 1 && Count < 7) {Count++; KEY.Key = 0;}	// žóÖ  Ž≤ĄŪäľ žĚīŽ©ī Count ž¶ĚÍįÄ
    49e2:	80 91 8e 4b 	lds	r24, 0x4B8E	; 0x804b8e <KEY+0x2>
    49e6:	81 30       	cpi	r24, 0x01	; 1
    49e8:	31 f4       	brne	.+12     	; 0x49f6 <Loadcell_Set+0x30a>
    49ea:	c7 30       	cpi	r28, 0x07	; 7
    49ec:	20 f4       	brcc	.+8      	; 0x49f6 <Loadcell_Set+0x30a>
    49ee:	cf 5f       	subi	r28, 0xFF	; 255
    49f0:	10 92 8e 4b 	sts	0x4B8E, r1	; 0x804b8e <KEY+0x2>
    49f4:	09 c0       	rjmp	.+18     	; 0x4a08 <Loadcell_Set+0x31c>
			else if(KEY.Key == 3 && Count > 0) {Count--; KEY.Key = 0;}	// Žč§žöīŽ≤ĄŪäľ žĚīŽ©ī Count ÍįźžÜĆ
    49f6:	80 91 8e 4b 	lds	r24, 0x4B8E	; 0x804b8e <KEY+0x2>
    49fa:	83 30       	cpi	r24, 0x03	; 3
    49fc:	29 f4       	brne	.+10     	; 0x4a08 <Loadcell_Set+0x31c>
    49fe:	cc 23       	and	r28, r28
    4a00:	19 f0       	breq	.+6      	; 0x4a08 <Loadcell_Set+0x31c>
    4a02:	c1 50       	subi	r28, 0x01	; 1
    4a04:	10 92 8e 4b 	sts	0x4B8E, r1	; 0x804b8e <KEY+0x2>
		}
		DIGIT[2][0] = fnd_tbl[Count];					// FND 2.0 žóź Count ŪĎúžčú
    4a08:	ec 2f       	mov	r30, r28
    4a0a:	f0 e0       	ldi	r31, 0x00	; 0
    4a0c:	e9 5b       	subi	r30, 0xB9	; 185
    4a0e:	fe 4b       	sbci	r31, 0xBE	; 190
    4a10:	80 81       	ld	r24, Z
    4a12:	80 93 85 41 	sts	0x4185, r24	; 0x804185 <DIGIT+0x8>

		switch(Count)							// Count
    4a16:	8c 2f       	mov	r24, r28
    4a18:	90 e0       	ldi	r25, 0x00	; 0
    4a1a:	88 30       	cpi	r24, 0x08	; 8
    4a1c:	91 05       	cpc	r25, r1
    4a1e:	08 f0       	brcs	.+2      	; 0x4a22 <Loadcell_Set+0x336>
    4a20:	77 c1       	rjmp	.+750    	; 0x4d10 <Loadcell_Set+0x624>
    4a22:	fc 01       	movw	r30, r24
    4a24:	e0 58       	subi	r30, 0x80	; 128
    4a26:	fc 4f       	sbci	r31, 0xFC	; 252
    4a28:	0c 94 a6 38 	jmp	0x714c	; 0x714c <__tablejump2__>
			case 0:							// Count = 0 žĚīŽ©ī
				Count = 6;					// ŽįėŽ≥ĶžĚĄ žúĄŪēī CountŽ•ľ žĶúÍ≥†Ž°ú ž¶ĚÍįÄ žčúŪāī
			break;

			case 1:							// Count = 1 žĚīŽ©ī
				DIGIT[0][3] = FND_OFF;				// FND 0 žóź id ŪĎúžčú
    4a2c:	ed e7       	ldi	r30, 0x7D	; 125
    4a2e:	f1 e4       	ldi	r31, 0x41	; 65
    4a30:	13 82       	std	Z+3, r1	; 0x03
				DIGIT[0][2] = FND_OFF;
    4a32:	12 82       	std	Z+2, r1	; 0x02
				DIGIT[0][1] = FND_I;
    4a34:	80 e6       	ldi	r24, 0x60	; 96
    4a36:	81 83       	std	Z+1, r24	; 0x01
				DIGIT[0][0] = FND_d;
    4a38:	8a e7       	ldi	r24, 0x7A	; 122
    4a3a:	80 83       	st	Z, r24

				DIGIT[1][3] = FND_OFF;				
    4a3c:	17 82       	std	Z+7, r1	; 0x07
				DIGIT[1][2] = FND_OFF;
    4a3e:	16 82       	std	Z+6, r1	; 0x06
				DIGIT[1][1] = fnd_tbl[Cell_ID / 10];		// FND 1 žóź Cell_ID Íįí ŪĎúžčú
    4a40:	40 91 19 4b 	lds	r20, 0x4B19	; 0x804b19 <Cell_ID>
    4a44:	8d ec       	ldi	r24, 0xCD	; 205
    4a46:	48 9f       	mul	r20, r24
    4a48:	81 2d       	mov	r24, r1
    4a4a:	11 24       	eor	r1, r1
    4a4c:	86 95       	lsr	r24
    4a4e:	86 95       	lsr	r24
    4a50:	86 95       	lsr	r24
    4a52:	28 2f       	mov	r18, r24
    4a54:	30 e0       	ldi	r19, 0x00	; 0
    4a56:	29 5b       	subi	r18, 0xB9	; 185
    4a58:	3e 4b       	sbci	r19, 0xBE	; 190
    4a5a:	d9 01       	movw	r26, r18
    4a5c:	9c 91       	ld	r25, X
    4a5e:	95 83       	std	Z+5, r25	; 0x05
				DIGIT[1][0] = fnd_tbl[Cell_ID % 10];
    4a60:	88 0f       	add	r24, r24
    4a62:	98 2f       	mov	r25, r24
    4a64:	99 0f       	add	r25, r25
    4a66:	99 0f       	add	r25, r25
    4a68:	89 0f       	add	r24, r25
    4a6a:	a4 2f       	mov	r26, r20
    4a6c:	a8 1b       	sub	r26, r24
    4a6e:	b0 e0       	ldi	r27, 0x00	; 0
    4a70:	a9 5b       	subi	r26, 0xB9	; 185
    4a72:	be 4b       	sbci	r27, 0xBE	; 190
    4a74:	8c 91       	ld	r24, X
    4a76:	84 83       	std	Z+4, r24	; 0x04

				DIGIT[2][3] = FND_OFF;				// Ž°úŽďúžÖÄ RO, žěÖÍĶ¨ž≤īž§Ď 1žĚė žěźŽ¶¨ žßÄžöįÍłį
    4a78:	13 86       	std	Z+11, r1	; 0x0b

				if(SET.Select) {ID_Set();}			// Cell ID žĄ§ž†ē
    4a7a:	80 91 49 4b 	lds	r24, 0x4B49	; 0x804b49 <SET+0x1>
    4a7e:	88 23       	and	r24, r24
    4a80:	09 f4       	brne	.+2      	; 0x4a84 <Loadcell_Set+0x398>
    4a82:	46 c1       	rjmp	.+652    	; 0x4d10 <Loadcell_Set+0x624>
    4a84:	0e 94 1e 23 	call	0x463c	; 0x463c <ID_Set>
    4a88:	43 c1       	rjmp	.+646    	; 0x4d10 <Loadcell_Set+0x624>
			break;

			case 2:							// Count = 2 žĚīŽ©ī
				DIGIT[0][3] = FND_OFF;				// FND 0 žóź cnt ŪĎúžčú
    4a8a:	ed e7       	ldi	r30, 0x7D	; 125
    4a8c:	f1 e4       	ldi	r31, 0x41	; 65
    4a8e:	13 82       	std	Z+3, r1	; 0x03
				DIGIT[0][2] = FND_c;
    4a90:	8a e1       	ldi	r24, 0x1A	; 26
    4a92:	82 83       	std	Z+2, r24	; 0x02
				DIGIT[0][1] = FND_n;
    4a94:	8a e2       	ldi	r24, 0x2A	; 42
    4a96:	81 83       	std	Z+1, r24	; 0x01
				DIGIT[0][0] = FND_t;
    4a98:	8e e1       	ldi	r24, 0x1E	; 30
    4a9a:	80 83       	st	Z, r24

				DIGIT[1][3] = FND_OFF;
    4a9c:	17 82       	std	Z+7, r1	; 0x07
				DIGIT[1][2] = FND_OFF;
    4a9e:	16 82       	std	Z+6, r1	; 0x06
				DIGIT[1][1] = fnd_tbl[Cell_CNT / 10];		// FND 1 žóź ÍįĮžąė žĄ§ž†ēÍįí ŪĎúžčú
    4aa0:	40 91 bb 4b 	lds	r20, 0x4BBB	; 0x804bbb <Cell_CNT>
    4aa4:	8d ec       	ldi	r24, 0xCD	; 205
    4aa6:	48 9f       	mul	r20, r24
    4aa8:	81 2d       	mov	r24, r1
    4aaa:	11 24       	eor	r1, r1
    4aac:	86 95       	lsr	r24
    4aae:	86 95       	lsr	r24
    4ab0:	86 95       	lsr	r24
    4ab2:	28 2f       	mov	r18, r24
    4ab4:	30 e0       	ldi	r19, 0x00	; 0
    4ab6:	29 5b       	subi	r18, 0xB9	; 185
    4ab8:	3e 4b       	sbci	r19, 0xBE	; 190
    4aba:	d9 01       	movw	r26, r18
    4abc:	9c 91       	ld	r25, X
    4abe:	95 83       	std	Z+5, r25	; 0x05
				DIGIT[1][0] = fnd_tbl[Cell_CNT % 10];
    4ac0:	88 0f       	add	r24, r24
    4ac2:	98 2f       	mov	r25, r24
    4ac4:	99 0f       	add	r25, r25
    4ac6:	99 0f       	add	r25, r25
    4ac8:	89 0f       	add	r24, r25
    4aca:	a4 2f       	mov	r26, r20
    4acc:	a8 1b       	sub	r26, r24
    4ace:	b0 e0       	ldi	r27, 0x00	; 0
    4ad0:	a9 5b       	subi	r26, 0xB9	; 185
    4ad2:	be 4b       	sbci	r27, 0xBE	; 190
    4ad4:	8c 91       	ld	r24, X
    4ad6:	84 83       	std	Z+4, r24	; 0x04

				DIGIT[2][3] = FND_OFF;				// Ž°úŽďúžÖÄ RO, žěÖÍĶ¨ž≤īž§Ď 1žĚė žěźŽ¶¨ žßÄžöįÍłį
    4ad8:	13 86       	std	Z+11, r1	; 0x0b

				if(SET.Select) {CNT_Set();}			// Cell ÍįĮžąė žĄ§ž†ē
    4ada:	80 91 49 4b 	lds	r24, 0x4B49	; 0x804b49 <SET+0x1>
    4ade:	88 23       	and	r24, r24
    4ae0:	09 f4       	brne	.+2      	; 0x4ae4 <Loadcell_Set+0x3f8>
    4ae2:	16 c1       	rjmp	.+556    	; 0x4d10 <Loadcell_Set+0x624>
    4ae4:	0e 94 c6 22 	call	0x458c	; 0x458c <CNT_Set>
    4ae8:	13 c1       	rjmp	.+550    	; 0x4d10 <Loadcell_Set+0x624>
			break;

			case 3:							// Count = 3 žĚīŽ©ī
				DIGIT[0][3] = FND_C;				// FND 0 žóź Capa ŪĎúžčú
    4aea:	ed e7       	ldi	r30, 0x7D	; 125
    4aec:	f1 e4       	ldi	r31, 0x41	; 65
    4aee:	8c e9       	ldi	r24, 0x9C	; 156
    4af0:	83 83       	std	Z+3, r24	; 0x03
				DIGIT[0][2] = FND_a;
    4af2:	8a ef       	ldi	r24, 0xFA	; 250
    4af4:	82 83       	std	Z+2, r24	; 0x02
				DIGIT[0][1] = FND_P;
    4af6:	9e ec       	ldi	r25, 0xCE	; 206
    4af8:	91 83       	std	Z+1, r25	; 0x01
				DIGIT[0][0] = FND_a;
    4afa:	80 83       	st	Z, r24

				DIGIT[1][3] = fnd_tbl[CAPA_1000];		// Ž°úŽďúžÖÄ CAPA 1000žĚė žěźŽ¶¨
    4afc:	a0 91 ad 41 	lds	r26, 0x41AD	; 0x8041ad <CAPA_1000>
    4b00:	b0 e0       	ldi	r27, 0x00	; 0
    4b02:	a9 5b       	subi	r26, 0xB9	; 185
    4b04:	be 4b       	sbci	r27, 0xBE	; 190
    4b06:	8c 91       	ld	r24, X
    4b08:	87 83       	std	Z+7, r24	; 0x07
				DIGIT[1][2] = fnd_tbl[CAPA_100 ];		// Ž°úŽďúžÖÄ CAPA  100žĚė žěźŽ¶¨
    4b0a:	a0 91 9f 4b 	lds	r26, 0x4B9F	; 0x804b9f <CAPA_100>
    4b0e:	b0 e0       	ldi	r27, 0x00	; 0
    4b10:	a9 5b       	subi	r26, 0xB9	; 185
    4b12:	be 4b       	sbci	r27, 0xBE	; 190
    4b14:	8c 91       	ld	r24, X
    4b16:	86 83       	std	Z+6, r24	; 0x06
				DIGIT[1][1] = fnd_tbl[CAPA_10  ];		// Ž°úŽďúžÖÄ CAPA   10žĚė žěźŽ¶¨
    4b18:	a0 91 a9 4b 	lds	r26, 0x4BA9	; 0x804ba9 <CAPA_10>
    4b1c:	b0 e0       	ldi	r27, 0x00	; 0
    4b1e:	a9 5b       	subi	r26, 0xB9	; 185
    4b20:	be 4b       	sbci	r27, 0xBE	; 190
    4b22:	8c 91       	ld	r24, X
    4b24:	85 83       	std	Z+5, r24	; 0x05
				DIGIT[1][0] = fnd_tbl[CAPA_1   ];		// Ž°úŽďúžÖÄ CAPA    1žĚė žěźŽ¶¨
    4b26:	a0 91 6f 4b 	lds	r26, 0x4B6F	; 0x804b6f <CAPA_1>
    4b2a:	b0 e0       	ldi	r27, 0x00	; 0
    4b2c:	a9 5b       	subi	r26, 0xB9	; 185
    4b2e:	be 4b       	sbci	r27, 0xBE	; 190
    4b30:	8c 91       	ld	r24, X
    4b32:	84 83       	std	Z+4, r24	; 0x04

				DIGIT[2][3] = FND_OFF;				// Ž°úŽďúžÖÄ RO, žěÖÍĶ¨ž≤īž§Ď 1žĚė žěźŽ¶¨ žßÄžöįÍłį
    4b34:	13 86       	std	Z+11, r1	; 0x0b

				if(SET.Select) {CAPA_Set();}			// Ž°úŽďúžÖÄ CAPA žĄ§ž†ē
    4b36:	80 91 49 4b 	lds	r24, 0x4B49	; 0x804b49 <SET+0x1>
    4b3a:	88 23       	and	r24, r24
    4b3c:	09 f4       	brne	.+2      	; 0x4b40 <Loadcell_Set+0x454>
    4b3e:	e8 c0       	rjmp	.+464    	; 0x4d10 <Loadcell_Set+0x624>
    4b40:	0e 94 21 21 	call	0x4242	; 0x4242 <CAPA_Set>
    4b44:	e5 c0       	rjmp	.+458    	; 0x4d10 <Loadcell_Set+0x624>
			break;

			case 4:							// Count = 4 žĚīŽ©ī
				DIGIT[0][3] = FND_OFF;				// FND 0 žóź ro ŪĎúžčú
    4b46:	ed e7       	ldi	r30, 0x7D	; 125
    4b48:	f1 e4       	ldi	r31, 0x41	; 65
    4b4a:	13 82       	std	Z+3, r1	; 0x03
				DIGIT[0][2] = FND_OFF;
    4b4c:	12 82       	std	Z+2, r1	; 0x02
				DIGIT[0][1] = FND_r;
    4b4e:	8a e0       	ldi	r24, 0x0A	; 10
    4b50:	81 83       	std	Z+1, r24	; 0x01
				DIGIT[0][0] = FND_o;
    4b52:	8a e3       	ldi	r24, 0x3A	; 58
    4b54:	80 83       	st	Z, r24

				DIGIT[1][3] = fnd_tbl[RO_10000]+FND_Point;	// Ž°úŽďúžÖÄ RO 10000žĚė žěźŽ¶¨ FND 1 žóź RO Íįí ŪĎúžčú
    4b56:	a0 91 97 4b 	lds	r26, 0x4B97	; 0x804b97 <RO_10000>
    4b5a:	b0 91 98 4b 	lds	r27, 0x4B98	; 0x804b98 <RO_10000+0x1>
    4b5e:	a9 5b       	subi	r26, 0xB9	; 185
    4b60:	be 4b       	sbci	r27, 0xBE	; 190
    4b62:	8c 91       	ld	r24, X
    4b64:	8f 5f       	subi	r24, 0xFF	; 255
    4b66:	87 83       	std	Z+7, r24	; 0x07
				DIGIT[1][2] = fnd_tbl[RO_1000 ];		// Ž°úŽďúžÖÄ RO  1000žĚė žěźŽ¶¨
    4b68:	a0 91 c3 4c 	lds	r26, 0x4CC3	; 0x804cc3 <RO_1000>
    4b6c:	b0 91 c4 4c 	lds	r27, 0x4CC4	; 0x804cc4 <RO_1000+0x1>
    4b70:	a9 5b       	subi	r26, 0xB9	; 185
    4b72:	be 4b       	sbci	r27, 0xBE	; 190
    4b74:	8c 91       	ld	r24, X
    4b76:	86 83       	std	Z+6, r24	; 0x06
				DIGIT[1][1] = fnd_tbl[RO_100  ];		// Ž°úŽďúžÖÄ RO   100žĚė žěźŽ¶¨
    4b78:	a0 91 b1 4b 	lds	r26, 0x4BB1	; 0x804bb1 <RO_100>
    4b7c:	b0 91 b2 4b 	lds	r27, 0x4BB2	; 0x804bb2 <RO_100+0x1>
    4b80:	a9 5b       	subi	r26, 0xB9	; 185
    4b82:	be 4b       	sbci	r27, 0xBE	; 190
    4b84:	8c 91       	ld	r24, X
    4b86:	85 83       	std	Z+5, r24	; 0x05
				DIGIT[1][0] = fnd_tbl[RO_10   ];		// Ž°úŽďúžÖÄ RO    10žĚė žěźŽ¶¨
    4b88:	a0 91 7f 4b 	lds	r26, 0x4B7F	; 0x804b7f <RO_10>
    4b8c:	b0 91 80 4b 	lds	r27, 0x4B80	; 0x804b80 <RO_10+0x1>
    4b90:	a9 5b       	subi	r26, 0xB9	; 185
    4b92:	be 4b       	sbci	r27, 0xBE	; 190
    4b94:	8c 91       	ld	r24, X
    4b96:	84 83       	std	Z+4, r24	; 0x04

				DIGIT[2][3] = fnd_tbl[RO_1    ];		// Ž°úŽďúžÖÄ RO     1žĚė žěźŽ¶¨ FND 2 žóź ROÍįí ŪĎúžčú
    4b98:	a0 91 be 4b 	lds	r26, 0x4BBE	; 0x804bbe <RO_1>
    4b9c:	b0 91 bf 4b 	lds	r27, 0x4BBF	; 0x804bbf <RO_1+0x1>
    4ba0:	a9 5b       	subi	r26, 0xB9	; 185
    4ba2:	be 4b       	sbci	r27, 0xBE	; 190
    4ba4:	8c 91       	ld	r24, X
    4ba6:	83 87       	std	Z+11, r24	; 0x0b

				if(SET.Select) {RO_Set();}			// Ž°úŽďúžÖÄ RO žĄ§ž†ē
    4ba8:	80 91 49 4b 	lds	r24, 0x4B49	; 0x804b49 <SET+0x1>
    4bac:	88 23       	and	r24, r24
    4bae:	09 f4       	brne	.+2      	; 0x4bb2 <Loadcell_Set+0x4c6>
    4bb0:	af c0       	rjmp	.+350    	; 0x4d10 <Loadcell_Set+0x624>
    4bb2:	0e 94 05 1b 	call	0x360a	; 0x360a <RO_Set>
    4bb6:	ac c0       	rjmp	.+344    	; 0x4d10 <Loadcell_Set+0x624>
			break;

			case 5:							// Count = 5 žĚīŽ©ī
				DIGIT[0][3] = FND_I;				// FND 0 žóź IN-S ŪĎúžčú
    4bb8:	ed e7       	ldi	r30, 0x7D	; 125
    4bba:	f1 e4       	ldi	r31, 0x41	; 65
    4bbc:	80 e6       	ldi	r24, 0x60	; 96
    4bbe:	83 83       	std	Z+3, r24	; 0x03
				DIGIT[0][2] = FND_N;
    4bc0:	8c ee       	ldi	r24, 0xEC	; 236
    4bc2:	82 83       	std	Z+2, r24	; 0x02
				DIGIT[0][1] = FND_MINUS;
    4bc4:	82 e0       	ldi	r24, 0x02	; 2
    4bc6:	81 83       	std	Z+1, r24	; 0x01
				DIGIT[0][0] = FND_S;
    4bc8:	86 eb       	ldi	r24, 0xB6	; 182
    4bca:	80 83       	st	Z, r24

				DIGIT[1][3] = fnd_tbl[IN_S_10000];		// žěÖÍĶ¨ ž≤īž§Ď 10.000kgžĚė žěźŽ¶¨ FND 1 žóź žěÖÍĶ¨ž≤īž§ĎÍįí ŪĎúžčú
    4bcc:	a0 91 43 4b 	lds	r26, 0x4B43	; 0x804b43 <IN_S_10000>
    4bd0:	b0 e0       	ldi	r27, 0x00	; 0
    4bd2:	a9 5b       	subi	r26, 0xB9	; 185
    4bd4:	be 4b       	sbci	r27, 0xBE	; 190
    4bd6:	8c 91       	ld	r24, X
    4bd8:	87 83       	std	Z+7, r24	; 0x07
				DIGIT[1][2] = fnd_tbl[IN_S_1000]+FND_Point;	// žěÖÍĶ¨ ž≤īž§Ď  1.000kgžĚė žěźŽ¶¨
    4bda:	a0 91 ba 4b 	lds	r26, 0x4BBA	; 0x804bba <IN_S_1000>
    4bde:	b0 e0       	ldi	r27, 0x00	; 0
    4be0:	a9 5b       	subi	r26, 0xB9	; 185
    4be2:	be 4b       	sbci	r27, 0xBE	; 190
    4be4:	8c 91       	ld	r24, X
    4be6:	8f 5f       	subi	r24, 0xFF	; 255
    4be8:	86 83       	std	Z+6, r24	; 0x06
				DIGIT[1][1] = fnd_tbl[IN_S_100];		// žěÖÍĶ¨ ž≤īž§Ď  0.100kgžĚė žěźŽ¶¨
    4bea:	a0 91 44 4b 	lds	r26, 0x4B44	; 0x804b44 <IN_S_100>
    4bee:	b0 e0       	ldi	r27, 0x00	; 0
    4bf0:	a9 5b       	subi	r26, 0xB9	; 185
    4bf2:	be 4b       	sbci	r27, 0xBE	; 190
    4bf4:	8c 91       	ld	r24, X
    4bf6:	85 83       	std	Z+5, r24	; 0x05
				DIGIT[1][0] = fnd_tbl[IN_S_10];			// žěÖÍĶ¨ ž≤īž§Ď  0.010kgžĚė žěźŽ¶¨
    4bf8:	a0 91 23 4b 	lds	r26, 0x4B23	; 0x804b23 <IN_S_10>
    4bfc:	b0 e0       	ldi	r27, 0x00	; 0
    4bfe:	a9 5b       	subi	r26, 0xB9	; 185
    4c00:	be 4b       	sbci	r27, 0xBE	; 190
    4c02:	8c 91       	ld	r24, X
    4c04:	84 83       	std	Z+4, r24	; 0x04
				DIGIT[2][3] = fnd_tbl[IN_S_1];			// žěÖÍĶ¨ ž≤īž§Ď  0.001kgžĚė žěźŽ¶¨ FND 2 žóź žěÖÍĶ¨ž≤īž§ĎÍįí ŪĎúžčú
    4c06:	a0 91 a5 4b 	lds	r26, 0x4BA5	; 0x804ba5 <IN_S_1>
    4c0a:	b0 e0       	ldi	r27, 0x00	; 0
    4c0c:	a9 5b       	subi	r26, 0xB9	; 185
    4c0e:	be 4b       	sbci	r27, 0xBE	; 190
    4c10:	8c 91       	ld	r24, X
    4c12:	83 87       	std	Z+11, r24	; 0x0b

				if(SET.Select) {IN_Scales_Set();}		// Ž°úŽďúžÖÄ žěÖÍĶ¨ž≤īž§Ď žĄ§ž†ē
    4c14:	80 91 49 4b 	lds	r24, 0x4B49	; 0x804b49 <SET+0x1>
    4c18:	88 23       	and	r24, r24
    4c1a:	09 f4       	brne	.+2      	; 0x4c1e <Loadcell_Set+0x532>
    4c1c:	79 c0       	rjmp	.+242    	; 0x4d10 <Loadcell_Set+0x624>
    4c1e:	0e 94 4f 19 	call	0x329e	; 0x329e <IN_Scales_Set>
    4c22:	76 c0       	rjmp	.+236    	; 0x4d10 <Loadcell_Set+0x624>
			break;

			case 6:							// Count = 6 žĚīŽ©ī
				DIGIT[0][3] = FND_S;				// FND 0 žóź Scal ŪĎúžčú
    4c24:	ed e7       	ldi	r30, 0x7D	; 125
    4c26:	f1 e4       	ldi	r31, 0x41	; 65
    4c28:	86 eb       	ldi	r24, 0xB6	; 182
    4c2a:	83 83       	std	Z+3, r24	; 0x03
				DIGIT[0][2] = FND_c;
    4c2c:	8a e1       	ldi	r24, 0x1A	; 26
    4c2e:	82 83       	std	Z+2, r24	; 0x02
				DIGIT[0][1] = FND_a;
    4c30:	8a ef       	ldi	r24, 0xFA	; 250
    4c32:	81 83       	std	Z+1, r24	; 0x01
				DIGIT[0][0] = FND_l;
    4c34:	80 e6       	ldi	r24, 0x60	; 96
    4c36:	80 83       	st	Z, r24

				if(INT >= 0)
    4c38:	20 91 a6 4b 	lds	r18, 0x4BA6	; 0x804ba6 <INT>
    4c3c:	30 91 a7 4b 	lds	r19, 0x4BA7	; 0x804ba7 <INT+0x1>
    4c40:	33 23       	and	r19, r19
    4c42:	fc f0       	brlt	.+62     	; 0x4c82 <Loadcell_Set+0x596>
				{
					DIGIT[1][3] = FND_OFF;			// Ž°úŽďúžÖÄ Ž≥īž†ē 100žĚė žěźŽ¶¨
    4c44:	17 82       	std	Z+7, r1	; 0x07
					DIGIT[1][2] = fnd_tbl[INT / 100];	// Ž°úŽďúžÖÄ Ž≥īž†ē 100žĚė žěźŽ¶¨
    4c46:	c9 01       	movw	r24, r18
    4c48:	64 e6       	ldi	r22, 0x64	; 100
    4c4a:	70 e0       	ldi	r23, 0x00	; 0
    4c4c:	0e 94 51 38 	call	0x70a2	; 0x70a2 <__divmodhi4>
    4c50:	db 01       	movw	r26, r22
    4c52:	a9 5b       	subi	r26, 0xB9	; 185
    4c54:	be 4b       	sbci	r27, 0xBE	; 190
    4c56:	4c 91       	ld	r20, X
    4c58:	46 83       	std	Z+6, r20	; 0x06
					DIGIT[1][1] = fnd_tbl[INT % 100 / 10];	// Ž°úŽďúžÖÄ Ž≥īž†ē  10žĚė žěźŽ¶¨
    4c5a:	0a e0       	ldi	r16, 0x0A	; 10
    4c5c:	10 e0       	ldi	r17, 0x00	; 0
    4c5e:	b8 01       	movw	r22, r16
    4c60:	0e 94 51 38 	call	0x70a2	; 0x70a2 <__divmodhi4>
    4c64:	db 01       	movw	r26, r22
    4c66:	a9 5b       	subi	r26, 0xB9	; 185
    4c68:	be 4b       	sbci	r27, 0xBE	; 190
    4c6a:	8c 91       	ld	r24, X
    4c6c:	85 83       	std	Z+5, r24	; 0x05
					DIGIT[1][0] = fnd_tbl[INT % 10 ];	// Ž°úŽďúžÖÄ Ž≥īž†ē   1žĚė žěźŽ¶¨
    4c6e:	c9 01       	movw	r24, r18
    4c70:	b8 01       	movw	r22, r16
    4c72:	0e 94 51 38 	call	0x70a2	; 0x70a2 <__divmodhi4>
    4c76:	dc 01       	movw	r26, r24
    4c78:	a9 5b       	subi	r26, 0xB9	; 185
    4c7a:	be 4b       	sbci	r27, 0xBE	; 190
    4c7c:	8c 91       	ld	r24, X
    4c7e:	84 83       	std	Z+4, r24	; 0x04
    4c80:	3b c0       	rjmp	.+118    	; 0x4cf8 <Loadcell_Set+0x60c>
				}
				else
				{
					cnt = ~INT + 1;
    4c82:	21 95       	neg	r18
					DIGIT[1][3] = FND_MINUS;		// Ž°úŽďúžÖÄ Ž≥īž†ē 100žĚė žěźŽ¶¨
    4c84:	ad e7       	ldi	r26, 0x7D	; 125
    4c86:	b1 e4       	ldi	r27, 0x41	; 65
    4c88:	82 e0       	ldi	r24, 0x02	; 2
    4c8a:	17 96       	adiw	r26, 0x07	; 7
    4c8c:	8c 93       	st	X, r24
    4c8e:	17 97       	sbiw	r26, 0x07	; 7
					DIGIT[1][2] = fnd_tbl[cnt / 100];	// Ž°úŽďúžÖÄ Ž≥īž†ē 100žĚė žěźŽ¶¨
    4c90:	89 e2       	ldi	r24, 0x29	; 41
    4c92:	28 9f       	mul	r18, r24
    4c94:	81 2d       	mov	r24, r1
    4c96:	11 24       	eor	r1, r1
    4c98:	82 95       	swap	r24
    4c9a:	8f 70       	andi	r24, 0x0F	; 15
    4c9c:	e8 2f       	mov	r30, r24
    4c9e:	f0 e0       	ldi	r31, 0x00	; 0
    4ca0:	e9 5b       	subi	r30, 0xB9	; 185
    4ca2:	fe 4b       	sbci	r31, 0xBE	; 190
    4ca4:	90 81       	ld	r25, Z
    4ca6:	16 96       	adiw	r26, 0x06	; 6
    4ca8:	9c 93       	st	X, r25
    4caa:	16 97       	sbiw	r26, 0x06	; 6
					DIGIT[1][1] = fnd_tbl[cnt % 100 / 10];	// Ž°úŽďúžÖÄ Ž≥īž†ē  10žĚė žěźŽ¶¨
    4cac:	e2 2f       	mov	r30, r18
    4cae:	94 e6       	ldi	r25, 0x64	; 100
    4cb0:	89 9f       	mul	r24, r25
    4cb2:	e0 19       	sub	r30, r0
    4cb4:	11 24       	eor	r1, r1
    4cb6:	8d ec       	ldi	r24, 0xCD	; 205
    4cb8:	e8 9f       	mul	r30, r24
    4cba:	e1 2d       	mov	r30, r1
    4cbc:	11 24       	eor	r1, r1
    4cbe:	e6 95       	lsr	r30
    4cc0:	e6 95       	lsr	r30
    4cc2:	e6 95       	lsr	r30
    4cc4:	f0 e0       	ldi	r31, 0x00	; 0
    4cc6:	e9 5b       	subi	r30, 0xB9	; 185
    4cc8:	fe 4b       	sbci	r31, 0xBE	; 190
    4cca:	90 81       	ld	r25, Z
    4ccc:	15 96       	adiw	r26, 0x05	; 5
    4cce:	9c 93       	st	X, r25
    4cd0:	15 97       	sbiw	r26, 0x05	; 5
					DIGIT[1][0] = fnd_tbl[cnt %10 ];	// Ž°úŽďúžÖÄ Ž≥īž†ē   1žĚė žěźŽ¶¨
    4cd2:	28 9f       	mul	r18, r24
    4cd4:	81 2d       	mov	r24, r1
    4cd6:	11 24       	eor	r1, r1
    4cd8:	86 95       	lsr	r24
    4cda:	86 95       	lsr	r24
    4cdc:	86 95       	lsr	r24
    4cde:	88 0f       	add	r24, r24
    4ce0:	98 2f       	mov	r25, r24
    4ce2:	99 0f       	add	r25, r25
    4ce4:	99 0f       	add	r25, r25
    4ce6:	89 0f       	add	r24, r25
    4ce8:	28 1b       	sub	r18, r24
    4cea:	e2 2f       	mov	r30, r18
    4cec:	f0 e0       	ldi	r31, 0x00	; 0
    4cee:	e9 5b       	subi	r30, 0xB9	; 185
    4cf0:	fe 4b       	sbci	r31, 0xBE	; 190
    4cf2:	80 81       	ld	r24, Z
    4cf4:	14 96       	adiw	r26, 0x04	; 4
    4cf6:	8c 93       	st	X, r24
				}
 				DIGIT[2][3] = FND_OFF;				// Ž°úŽďúžÖÄ RO, žěÖÍĶ¨ž≤īž§Ď 1žĚė žěźŽ¶¨ žßÄžöįÍłį
    4cf8:	10 92 88 41 	sts	0x4188, r1	; 0x804188 <DIGIT+0xb>

 				if(SET.Select) {Interval_Set();}		// Ž°úŽďúžÖÄ RO žĄ§ž†ē
    4cfc:	80 91 49 4b 	lds	r24, 0x4B49	; 0x804b49 <SET+0x1>
    4d00:	88 23       	and	r24, r24
    4d02:	31 f0       	breq	.+12     	; 0x4d10 <Loadcell_Set+0x624>
    4d04:	0e 94 39 20 	call	0x4072	; 0x4072 <Interval_Set>
    4d08:	03 c0       	rjmp	.+6      	; 0x4d10 <Loadcell_Set+0x624>
			break;


			case 7:							// Count = 7 žĚīŽ©ī
				Count = 1;					// ŽįėŽ≥ĶžĚĄ žúĄŪēī CountŽ•ľ žĶúž†ÄŽ°ú ÍįźžÜĆ žčúŪāī
    4d0a:	c1 e0       	ldi	r28, 0x01	; 1
			break;
    4d0c:	01 c0       	rjmp	.+2      	; 0x4d10 <Loadcell_Set+0x624>
		DIGIT[2][0] = fnd_tbl[Count];					// FND 2.0 žóź Count ŪĎúžčú

		switch(Count)							// Count
		{
			case 0:							// Count = 0 žĚīŽ©ī
				Count = 6;					// ŽįėŽ≥ĶžĚĄ žúĄŪēī CountŽ•ľ žĶúÍ≥†Ž°ú ž¶ĚÍįÄ žčúŪāī
    4d0e:	c6 e0       	ldi	r28, 0x06	; 6

			case 7:							// Count = 7 žĚīŽ©ī
				Count = 1;					// ŽįėŽ≥ĶžĚĄ žúĄŪēī CountŽ•ľ žĶúž†ÄŽ°ú ÍįźžÜĆ žčúŪāī
			break;
		}
		wdt_reset();							// žõĆžĻėŽŹÖ Ž¶¨žÖč
    4d10:	0e 94 17 0d 	call	0x1a2e	; 0x1a2e <wdt_reset>
	IN_S_1000  = IN_Scales % 10000/ 1000;					// žěÖÍĶ¨ ž≤īž§Ď  1.000kgžĚė žěźŽ¶¨
	IN_S_100   = IN_Scales % 1000 / 100;					// žěÖÍĶ¨ ž≤īž§Ď  0.100kgžĚė žěźŽ¶¨
	IN_S_10    = IN_Scales % 100 / 10;					// žěÖÍĶ¨ ž≤īž§Ď  0.010kgžĚė žěźŽ¶¨
	IN_S_1     = IN_Scales % 10;						// žěÖÍĶ¨ ž≤īž§Ď  0.001kgžĚė žěźŽ¶¨
//-------------------------------------------------------------------------------------------------
	while(SET.Menu)								// Ž©ĒŽČīÍįÄ 1 žĚīŽ©ī ŽįėŽ≥Ķ
    4d14:	80 91 48 4b 	lds	r24, 0x4B48	; 0x804b48 <SET>
    4d18:	81 11       	cpse	r24, r1
    4d1a:	5f ce       	rjmp	.-834    	; 0x49da <Loadcell_Set+0x2ee>
				Count = 1;					// ŽįėŽ≥ĶžĚĄ žúĄŪēī CountŽ•ľ žĶúž†ÄŽ°ú ÍįźžÜĆ žčúŪāī
			break;
		}
		wdt_reset();							// žõĆžĻėŽŹÖ Ž¶¨žÖč
	}
}
    4d1c:	df 91       	pop	r29
    4d1e:	cf 91       	pop	r28
    4d20:	1f 91       	pop	r17
    4d22:	0f 91       	pop	r16
    4d24:	ff 90       	pop	r15
    4d26:	ef 90       	pop	r14
    4d28:	df 90       	pop	r13
    4d2a:	cf 90       	pop	r12
    4d2c:	bf 90       	pop	r11
    4d2e:	af 90       	pop	r10
    4d30:	9f 90       	pop	r9
    4d32:	8f 90       	pop	r8
    4d34:	7f 90       	pop	r7
    4d36:	6f 90       	pop	r6
    4d38:	5f 90       	pop	r5
    4d3a:	4f 90       	pop	r4
    4d3c:	08 95       	ret

00004d3e <protected_write_io>:
    4d3e:	1b be       	out	0x3b, r1	; 59
    4d40:	fc 01       	movw	r30, r24
    4d42:	64 bf       	out	0x34, r22	; 52
    4d44:	40 83       	st	Z, r20
    4d46:	08 95       	ret

00004d48 <RTC_Single_Read>:
uint8_t RTC_Single_Read(uint8_t reg)					// RTC 1Byte Data ņ–Ī‚
{
	uint8_t data	= 0;						// data ļĮľŲ √ Ī‚»≠
	uint8_t retData = 0;						// retData ļĮľŲ √ Ī‚»≠

	data = I2C_0_read1ByteRegister(RTC_ADDRESS, reg);		// 1Byte Data ņ–Ī‚
    4d48:	68 2f       	mov	r22, r24
    4d4a:	88 e6       	ldi	r24, 0x68	; 104
    4d4c:	0e 94 a9 16 	call	0x2d52	; 0x2d52 <I2C_0_read1ByteRegister>
	retData = ((data >> 4) * 10) + (data & 0x0F);			// 1010ņ« ņŕłģ, 1ņ« ņŕłģ ļĮ»Į
    4d50:	98 2f       	mov	r25, r24
    4d52:	92 95       	swap	r25
    4d54:	9f 70       	andi	r25, 0x0F	; 15
    4d56:	99 0f       	add	r25, r25
    4d58:	29 2f       	mov	r18, r25
    4d5a:	22 0f       	add	r18, r18
    4d5c:	22 0f       	add	r18, r18
    4d5e:	92 0f       	add	r25, r18
    4d60:	8f 70       	andi	r24, 0x0F	; 15

	return retData;							// łģŇŌ retData
}
    4d62:	89 0f       	add	r24, r25
    4d64:	08 95       	ret

00004d66 <RTC_Time_Read>:

//=================================================================================================
void RTC_Time_Read(void)						// RTC Data ņ–Ī‚
{
    4d66:	cf 93       	push	r28
    4d68:	df 93       	push	r29
	RTC_T.Year  = RTC_Single_Read(RTC_YEAR);			// YEAR
    4d6a:	86 e0       	ldi	r24, 0x06	; 6
    4d6c:	0e 94 a4 26 	call	0x4d48	; 0x4d48 <RTC_Single_Read>
    4d70:	c8 e7       	ldi	r28, 0x78	; 120
    4d72:	db e4       	ldi	r29, 0x4B	; 75
    4d74:	8e 83       	std	Y+6, r24	; 0x06
	RTC_T.Month = RTC_Single_Read(RTC_MONTH);			// MONTH
    4d76:	85 e0       	ldi	r24, 0x05	; 5
    4d78:	0e 94 a4 26 	call	0x4d48	; 0x4d48 <RTC_Single_Read>
    4d7c:	8d 83       	std	Y+5, r24	; 0x05
	RTC_T.Date  = RTC_Single_Read(RTC_DATE);			// DATE
    4d7e:	84 e0       	ldi	r24, 0x04	; 4
    4d80:	0e 94 a4 26 	call	0x4d48	; 0x4d48 <RTC_Single_Read>
    4d84:	8c 83       	std	Y+4, r24	; 0x04
	RTC_T.Day   = RTC_Single_Read(RTC_DAYOFWEEK);			// DAYOFWEEK ŅšņŌ
    4d86:	83 e0       	ldi	r24, 0x03	; 3
    4d88:	0e 94 a4 26 	call	0x4d48	; 0x4d48 <RTC_Single_Read>
    4d8c:	8b 83       	std	Y+3, r24	; 0x03
	RTC_T.Hour  = RTC_Single_Read(RTC_HOUR);			// HOUR
    4d8e:	82 e0       	ldi	r24, 0x02	; 2
    4d90:	0e 94 a4 26 	call	0x4d48	; 0x4d48 <RTC_Single_Read>
    4d94:	8a 83       	std	Y+2, r24	; 0x02
	RTC_T.Min   = RTC_Single_Read(RTC_MINUTE);			// MINUTE
    4d96:	81 e0       	ldi	r24, 0x01	; 1
    4d98:	0e 94 a4 26 	call	0x4d48	; 0x4d48 <RTC_Single_Read>
    4d9c:	89 83       	std	Y+1, r24	; 0x01
	RTC_T.Sec   = RTC_Single_Read(RTC_SECOND);			// SECOND
    4d9e:	80 e0       	ldi	r24, 0x00	; 0
    4da0:	0e 94 a4 26 	call	0x4d48	; 0x4d48 <RTC_Single_Read>
    4da4:	88 83       	st	Y, r24
}
    4da6:	df 91       	pop	r29
    4da8:	cf 91       	pop	r28
    4daa:	08 95       	ret

00004dac <RTC_Single_Write>:

//=================================================================================================
void RTC_Single_Write(uint8_t reg, uint8_t wData)			// RTC 1Byte Data ĺ≤Ī‚
{
	uint8_t bcdData = ((wData / 10) << 4) | ((wData % 10) & 0x0F);	// 1010ņ« ņŕłģ, 1ņ« ņŕłģ ļī√d
    4dac:	9d ec       	ldi	r25, 0xCD	; 205
    4dae:	69 9f       	mul	r22, r25
    4db0:	91 2d       	mov	r25, r1
    4db2:	11 24       	eor	r1, r1
    4db4:	96 95       	lsr	r25
    4db6:	96 95       	lsr	r25
    4db8:	96 95       	lsr	r25
    4dba:	20 e1       	ldi	r18, 0x10	; 16
    4dbc:	92 9f       	mul	r25, r18
    4dbe:	a0 01       	movw	r20, r0
    4dc0:	11 24       	eor	r1, r1
    4dc2:	99 0f       	add	r25, r25
    4dc4:	29 2f       	mov	r18, r25
    4dc6:	22 0f       	add	r18, r18
    4dc8:	22 0f       	add	r18, r18
    4dca:	92 0f       	add	r25, r18
    4dcc:	69 1b       	sub	r22, r25
    4dce:	6f 70       	andi	r22, 0x0F	; 15
    4dd0:	46 2b       	or	r20, r22
	I2C_0_write1ByteRegister(RTC_ADDRESS, (uint8_t)reg, bcdData);	// 1Byte Data ĺ≤Ī‚
    4dd2:	68 2f       	mov	r22, r24
    4dd4:	88 e6       	ldi	r24, 0x68	; 104
    4dd6:	0e 94 65 16 	call	0x2cca	; 0x2cca <I2C_0_write1ByteRegister>
    4dda:	08 95       	ret

00004ddc <RTC_Time_Write>:
}

//=================================================================================================
void RTC_Time_Write(uint8_t item, uint8_t value)			// RTC Data ĺ≤Ī‚
{
    4ddc:	96 2f       	mov	r25, r22
	uint8_t data = 0;						// data ļĮľŲ √ Ī‚»≠

	switch(item)							// item
    4dde:	48 2f       	mov	r20, r24
    4de0:	50 e0       	ldi	r21, 0x00	; 0
    4de2:	47 30       	cpi	r20, 0x07	; 7
    4de4:	51 05       	cpc	r21, r1
    4de6:	18 f5       	brcc	.+70     	; 0x4e2e <RTC_Time_Write+0x52>
    4de8:	fa 01       	movw	r30, r20
    4dea:	e8 57       	subi	r30, 0x78	; 120
    4dec:	fc 4f       	sbci	r31, 0xFC	; 252
    4dee:	0c 94 a6 38 	jmp	0x714c	; 0x714c <__tablejump2__>
	{
		case RTC_SECOND:					// √ 
			if(value > 59) {data = 0;}			// 59√  ņŐĽůņŐłť 0√ ∑ő √ Ī‚»≠
    4df2:	9c 33       	cpi	r25, 0x3C	; 60
    4df4:	e8 f0       	brcs	.+58     	; 0x4e30 <RTC_Time_Write+0x54>
    4df6:	90 e0       	ldi	r25, 0x00	; 0
    4df8:	1b c0       	rjmp	.+54     	; 0x4e30 <RTC_Time_Write+0x54>
			else	       {data = value;}			// ĺ∆īŌłť value ņķņŚ
		break;

		case RTC_MINUTE:					// ļ–
			if(value > 59) {data = 0;}			// 59ļ– ņŐĽůņŐłť 0ļ–ņł∑ő √ Ī‚»≠
    4dfa:	9c 33       	cpi	r25, 0x3C	; 60
    4dfc:	c8 f0       	brcs	.+50     	; 0x4e30 <RTC_Time_Write+0x54>
    4dfe:	90 e0       	ldi	r25, 0x00	; 0
    4e00:	17 c0       	rjmp	.+46     	; 0x4e30 <RTC_Time_Write+0x54>
			else	       {data = value;}			// ĺ∆īŌłť value ņķņŚ
		break;

		case RTC_HOUR:						// Ĺ√
			if(value > 23) {data = 0;}			// 23Ĺ√ ņŐĽůņŐłť 0Ĺ√∑ő √ Ī‚»≠
    4e02:	98 31       	cpi	r25, 0x18	; 24
    4e04:	a8 f0       	brcs	.+42     	; 0x4e30 <RTC_Time_Write+0x54>
    4e06:	90 e0       	ldi	r25, 0x00	; 0
    4e08:	13 c0       	rjmp	.+38     	; 0x4e30 <RTC_Time_Write+0x54>
			else	       {data = value;}			// ĺ∆īŌłť value ņķņŚ
		break;

		case RTC_DAYOFWEEK:					// ŅšņŌ 1(ņŌŅšņŌ) ~ 7(ŇšŅšņŌ) ĽÁŅŽ
			if(value > 7 || value == 0) {data = 1;}		// 7 ņŐĽů ņŐįŇ≥™ 0 ņŐłť 1(ņŌ)∑ő √ Ī‚»≠
    4e0a:	2f ef       	ldi	r18, 0xFF	; 255
    4e0c:	29 0f       	add	r18, r25
    4e0e:	27 30       	cpi	r18, 0x07	; 7
    4e10:	78 f0       	brcs	.+30     	; 0x4e30 <RTC_Time_Write+0x54>
    4e12:	91 e0       	ldi	r25, 0x01	; 1
    4e14:	0d c0       	rjmp	.+26     	; 0x4e30 <RTC_Time_Write+0x54>
			else			    {data = value;}	// ĺ∆īŌłť value ņķņŚ
		break;

		case RTC_DATE:						// ņŌ
			if(value > 31) {data = 1;}			// 31ņŌ ņŐĽůņŐłť 1ņŌ∑ő √ Ī‚»≠
    4e16:	90 32       	cpi	r25, 0x20	; 32
    4e18:	58 f0       	brcs	.+22     	; 0x4e30 <RTC_Time_Write+0x54>
    4e1a:	91 e0       	ldi	r25, 0x01	; 1
    4e1c:	09 c0       	rjmp	.+18     	; 0x4e30 <RTC_Time_Write+0x54>
			else	       {data = value;}			// ĺ∆īŌłť value ņķņŚ
		break;

		case RTC_MONTH:						// Ņý
			if(value > 12) {data = 1;}			// 12Ņý ņŐĽůņŐłť 1Ņý∑ő √ Ī‚»≠
    4e1e:	9d 30       	cpi	r25, 0x0D	; 13
    4e20:	38 f0       	brcs	.+14     	; 0x4e30 <RTC_Time_Write+0x54>
    4e22:	91 e0       	ldi	r25, 0x01	; 1
    4e24:	05 c0       	rjmp	.+10     	; 0x4e30 <RTC_Time_Write+0x54>
			else	       {data = value;}			// ĺ∆īŌłť value ņķņŚ
		break;

		case RTC_YEAR:						// ≥‚
			if(value == 0) {data = 21;}			// 00≥‚ ņŐłť 21≥‚ ņł∑ő √ Ī‚»≠
    4e26:	91 11       	cpse	r25, r1
    4e28:	03 c0       	rjmp	.+6      	; 0x4e30 <RTC_Time_Write+0x54>
    4e2a:	95 e1       	ldi	r25, 0x15	; 21
    4e2c:	01 c0       	rjmp	.+2      	; 0x4e30 <RTC_Time_Write+0x54>
}

//=================================================================================================
void RTC_Time_Write(uint8_t item, uint8_t value)			// RTC Data ĺ≤Ī‚
{
	uint8_t data = 0;						// data ļĮľŲ √ Ī‚»≠
    4e2e:	90 e0       	ldi	r25, 0x00	; 0
		case RTC_YEAR:						// ≥‚
			if(value == 0) {data = 21;}			// 00≥‚ ņŐłť 21≥‚ ņł∑ő √ Ī‚»≠
			else	       {data = value;}			// ĺ∆īŌłť value ņķņŚ
		break;
	}
	RTC_Single_Write(item, data);					// RTC 1Byte Data ĺ≤Ī‚
    4e30:	69 2f       	mov	r22, r25
    4e32:	0e 94 d6 26 	call	0x4dac	; 0x4dac <RTC_Single_Write>
    4e36:	08 95       	ret

00004e38 <RTC_Set>:
//=================================================================================================
#include <rtc.h>

//=================================================================================================
void RTC_Set(void)							// RTC ľ≥Ń§ łūĶŚ
{
    4e38:	cf 93       	push	r28
    4e3a:	df 93       	push	r29
	SET.Select = 0;							// Select ĻŲ∆į √ Ī‚»≠
    4e3c:	10 92 49 4b 	sts	0x4B49, r1	; 0x804b49 <SET+0x1>

	FND_Value_Data(0, 2, 12);					// FND 0 ~ 2 FND_OFF
    4e40:	4c e0       	ldi	r20, 0x0C	; 12
    4e42:	62 e0       	ldi	r22, 0x02	; 2
    4e44:	80 e0       	ldi	r24, 0x00	; 0
    4e46:	0e 94 c3 05 	call	0xb86	; 0xb86 <FND_Value_Data>

	RTC_Time_Read();						// RTC Data ņ–Ī‚
    4e4a:	0e 94 b3 26 	call	0x4d66	; 0x4d66 <RTC_Time_Read>

	DIGIT[0][3] = fnd_tbl[RTC_T.Year / 10];				// ≥‚ «•Ĺ√
    4e4e:	c8 e7       	ldi	r28, 0x78	; 120
    4e50:	db e4       	ldi	r29, 0x4B	; 75
    4e52:	ae 81       	ldd	r26, Y+6	; 0x06
    4e54:	8d ec       	ldi	r24, 0xCD	; 205
    4e56:	a8 9f       	mul	r26, r24
    4e58:	91 2d       	mov	r25, r1
    4e5a:	11 24       	eor	r1, r1
    4e5c:	96 95       	lsr	r25
    4e5e:	96 95       	lsr	r25
    4e60:	96 95       	lsr	r25
    4e62:	e9 2f       	mov	r30, r25
    4e64:	f0 e0       	ldi	r31, 0x00	; 0
    4e66:	e9 5b       	subi	r30, 0xB9	; 185
    4e68:	fe 4b       	sbci	r31, 0xBE	; 190
    4e6a:	20 81       	ld	r18, Z
    4e6c:	ed e7       	ldi	r30, 0x7D	; 125
    4e6e:	f1 e4       	ldi	r31, 0x41	; 65
    4e70:	23 83       	std	Z+3, r18	; 0x03
	DIGIT[0][2] = fnd_tbl[RTC_T.Year % 10];
    4e72:	99 0f       	add	r25, r25
    4e74:	29 2f       	mov	r18, r25
    4e76:	22 0f       	add	r18, r18
    4e78:	22 0f       	add	r18, r18
    4e7a:	92 0f       	add	r25, r18
    4e7c:	a9 1b       	sub	r26, r25
    4e7e:	b0 e0       	ldi	r27, 0x00	; 0
    4e80:	a9 5b       	subi	r26, 0xB9	; 185
    4e82:	be 4b       	sbci	r27, 0xBE	; 190
    4e84:	9c 91       	ld	r25, X
    4e86:	92 83       	std	Z+2, r25	; 0x02

	DIGIT[0][1] = fnd_tbl[RTC_T.Month / 10];			// Ņý «•Ĺ√
    4e88:	4d 81       	ldd	r20, Y+5	; 0x05
    4e8a:	48 9f       	mul	r20, r24
    4e8c:	91 2d       	mov	r25, r1
    4e8e:	11 24       	eor	r1, r1
    4e90:	96 95       	lsr	r25
    4e92:	96 95       	lsr	r25
    4e94:	96 95       	lsr	r25
    4e96:	29 2f       	mov	r18, r25
    4e98:	30 e0       	ldi	r19, 0x00	; 0
    4e9a:	29 5b       	subi	r18, 0xB9	; 185
    4e9c:	3e 4b       	sbci	r19, 0xBE	; 190
    4e9e:	d9 01       	movw	r26, r18
    4ea0:	2c 91       	ld	r18, X
    4ea2:	21 83       	std	Z+1, r18	; 0x01
	DIGIT[0][0] = fnd_tbl[RTC_T.Month % 10];
    4ea4:	99 0f       	add	r25, r25
    4ea6:	29 2f       	mov	r18, r25
    4ea8:	22 0f       	add	r18, r18
    4eaa:	22 0f       	add	r18, r18
    4eac:	92 0f       	add	r25, r18
    4eae:	a4 2f       	mov	r26, r20
    4eb0:	a9 1b       	sub	r26, r25
    4eb2:	b0 e0       	ldi	r27, 0x00	; 0
    4eb4:	a9 5b       	subi	r26, 0xB9	; 185
    4eb6:	be 4b       	sbci	r27, 0xBE	; 190
    4eb8:	9c 91       	ld	r25, X
    4eba:	90 83       	st	Z, r25

	DIGIT[1][3] = fnd_tbl[RTC_T.Date / 10];				// ņŌ «•Ĺ√
    4ebc:	4c 81       	ldd	r20, Y+4	; 0x04
    4ebe:	48 9f       	mul	r20, r24
    4ec0:	91 2d       	mov	r25, r1
    4ec2:	11 24       	eor	r1, r1
    4ec4:	96 95       	lsr	r25
    4ec6:	96 95       	lsr	r25
    4ec8:	96 95       	lsr	r25
    4eca:	29 2f       	mov	r18, r25
    4ecc:	30 e0       	ldi	r19, 0x00	; 0
    4ece:	29 5b       	subi	r18, 0xB9	; 185
    4ed0:	3e 4b       	sbci	r19, 0xBE	; 190
    4ed2:	d9 01       	movw	r26, r18
    4ed4:	2c 91       	ld	r18, X
    4ed6:	27 83       	std	Z+7, r18	; 0x07
	DIGIT[1][2] = fnd_tbl[RTC_T.Date % 10];
    4ed8:	99 0f       	add	r25, r25
    4eda:	29 2f       	mov	r18, r25
    4edc:	22 0f       	add	r18, r18
    4ede:	22 0f       	add	r18, r18
    4ee0:	92 0f       	add	r25, r18
    4ee2:	a4 2f       	mov	r26, r20
    4ee4:	a9 1b       	sub	r26, r25
    4ee6:	b0 e0       	ldi	r27, 0x00	; 0
    4ee8:	a9 5b       	subi	r26, 0xB9	; 185
    4eea:	be 4b       	sbci	r27, 0xBE	; 190
    4eec:	9c 91       	ld	r25, X
    4eee:	96 83       	std	Z+6, r25	; 0x06

	DIGIT[1][1] = fnd_tbl[RTC_T.Hour / 10];				// Ĺ√ «•Ĺ√
    4ef0:	4a 81       	ldd	r20, Y+2	; 0x02
    4ef2:	48 9f       	mul	r20, r24
    4ef4:	91 2d       	mov	r25, r1
    4ef6:	11 24       	eor	r1, r1
    4ef8:	96 95       	lsr	r25
    4efa:	96 95       	lsr	r25
    4efc:	96 95       	lsr	r25
    4efe:	29 2f       	mov	r18, r25
    4f00:	30 e0       	ldi	r19, 0x00	; 0
    4f02:	29 5b       	subi	r18, 0xB9	; 185
    4f04:	3e 4b       	sbci	r19, 0xBE	; 190
    4f06:	d9 01       	movw	r26, r18
    4f08:	2c 91       	ld	r18, X
    4f0a:	25 83       	std	Z+5, r18	; 0x05
	DIGIT[1][0] = fnd_tbl[RTC_T.Hour % 10];
    4f0c:	99 0f       	add	r25, r25
    4f0e:	29 2f       	mov	r18, r25
    4f10:	22 0f       	add	r18, r18
    4f12:	22 0f       	add	r18, r18
    4f14:	92 0f       	add	r25, r18
    4f16:	a4 2f       	mov	r26, r20
    4f18:	a9 1b       	sub	r26, r25
    4f1a:	b0 e0       	ldi	r27, 0x00	; 0
    4f1c:	a9 5b       	subi	r26, 0xB9	; 185
    4f1e:	be 4b       	sbci	r27, 0xBE	; 190
    4f20:	9c 91       	ld	r25, X
    4f22:	94 83       	std	Z+4, r25	; 0x04

	DIGIT[2][3] = fnd_tbl[RTC_T.Min / 10];				// ļ– «•Ĺ√
    4f24:	49 81       	ldd	r20, Y+1	; 0x01
    4f26:	48 9f       	mul	r20, r24
    4f28:	91 2d       	mov	r25, r1
    4f2a:	11 24       	eor	r1, r1
    4f2c:	96 95       	lsr	r25
    4f2e:	96 95       	lsr	r25
    4f30:	96 95       	lsr	r25
    4f32:	29 2f       	mov	r18, r25
    4f34:	30 e0       	ldi	r19, 0x00	; 0
    4f36:	29 5b       	subi	r18, 0xB9	; 185
    4f38:	3e 4b       	sbci	r19, 0xBE	; 190
    4f3a:	d9 01       	movw	r26, r18
    4f3c:	2c 91       	ld	r18, X
    4f3e:	23 87       	std	Z+11, r18	; 0x0b
	DIGIT[2][2] = fnd_tbl[RTC_T.Min % 10];
    4f40:	99 0f       	add	r25, r25
    4f42:	29 2f       	mov	r18, r25
    4f44:	22 0f       	add	r18, r18
    4f46:	22 0f       	add	r18, r18
    4f48:	92 0f       	add	r25, r18
    4f4a:	a4 2f       	mov	r26, r20
    4f4c:	a9 1b       	sub	r26, r25
    4f4e:	b0 e0       	ldi	r27, 0x00	; 0
    4f50:	a9 5b       	subi	r26, 0xB9	; 185
    4f52:	be 4b       	sbci	r27, 0xBE	; 190
    4f54:	9c 91       	ld	r25, X
    4f56:	92 87       	std	Z+10, r25	; 0x0a

	DIGIT[2][1] = fnd_tbl[RTC_T.Sec / 10];				// √  «•Ĺ√
    4f58:	a8 81       	ld	r26, Y
    4f5a:	a8 9f       	mul	r26, r24
    4f5c:	81 2d       	mov	r24, r1
    4f5e:	11 24       	eor	r1, r1
    4f60:	86 95       	lsr	r24
    4f62:	86 95       	lsr	r24
    4f64:	86 95       	lsr	r24
    4f66:	c8 2f       	mov	r28, r24
    4f68:	d0 e0       	ldi	r29, 0x00	; 0
    4f6a:	c9 5b       	subi	r28, 0xB9	; 185
    4f6c:	de 4b       	sbci	r29, 0xBE	; 190
    4f6e:	98 81       	ld	r25, Y
    4f70:	91 87       	std	Z+9, r25	; 0x09
	DIGIT[2][0] = fnd_tbl[RTC_T.Sec % 10];
    4f72:	88 0f       	add	r24, r24
    4f74:	98 2f       	mov	r25, r24
    4f76:	99 0f       	add	r25, r25
    4f78:	99 0f       	add	r25, r25
    4f7a:	89 0f       	add	r24, r25
    4f7c:	a8 1b       	sub	r26, r24
    4f7e:	b0 e0       	ldi	r27, 0x00	; 0
    4f80:	a9 5b       	subi	r26, 0xB9	; 185
    4f82:	be 4b       	sbci	r27, 0xBE	; 190
    4f84:	8c 91       	ld	r24, X
    4f86:	80 87       	std	Z+8, r24	; 0x08

	while(SET.Menu)							// łřīļłūĶŚ ņŐłť Ļ›ļĻ
    4f88:	8a c2       	rjmp	.+1300   	; 0x549e <RTC_Set+0x666>
	{
		SET.Blink = 1;						// ņŕłīľŲ ĪŰĻŕņ” ľ≥Ń§
    4f8a:	81 e0       	ldi	r24, 0x01	; 1
    4f8c:	80 93 4b 4b 	sts	0x4B4B, r24	; 0x804b4b <SET+0x3>

		switch(KEY.Count)					// ľĪŇ√ Key į° ī≠łį»ĹľŲ
    4f90:	e0 91 8c 4b 	lds	r30, 0x4B8C	; 0x804b8c <KEY>
    4f94:	8e 2f       	mov	r24, r30
    4f96:	90 e0       	ldi	r25, 0x00	; 0
    4f98:	87 30       	cpi	r24, 0x07	; 7
    4f9a:	91 05       	cpc	r25, r1
    4f9c:	08 f0       	brcs	.+2      	; 0x4fa0 <RTC_Set+0x168>
    4f9e:	7d c2       	rjmp	.+1274   	; 0x549a <RTC_Set+0x662>
    4fa0:	fc 01       	movw	r30, r24
    4fa2:	e1 57       	subi	r30, 0x71	; 113
    4fa4:	fc 4f       	sbci	r31, 0xFC	; 252
    4fa6:	0c 94 a6 38 	jmp	0x714c	; 0x714c <__tablejump2__>
		{
			case 0:						// ≥‚ «•Ĺ√ Ļ◊ ľ≥Ń§
				DIGIT[2][1] = fnd_tbl[RTC_T.Sec / 10];	// √  «•Ĺ√
    4faa:	e0 91 78 4b 	lds	r30, 0x4B78	; 0x804b78 <RTC_T>
    4fae:	8d ec       	ldi	r24, 0xCD	; 205
    4fb0:	e8 9f       	mul	r30, r24
    4fb2:	81 2d       	mov	r24, r1
    4fb4:	11 24       	eor	r1, r1
    4fb6:	86 95       	lsr	r24
    4fb8:	86 95       	lsr	r24
    4fba:	86 95       	lsr	r24
    4fbc:	a8 2f       	mov	r26, r24
    4fbe:	b0 e0       	ldi	r27, 0x00	; 0
    4fc0:	a9 5b       	subi	r26, 0xB9	; 185
    4fc2:	be 4b       	sbci	r27, 0xBE	; 190
    4fc4:	9c 91       	ld	r25, X
    4fc6:	ad e7       	ldi	r26, 0x7D	; 125
    4fc8:	b1 e4       	ldi	r27, 0x41	; 65
    4fca:	19 96       	adiw	r26, 0x09	; 9
    4fcc:	9c 93       	st	X, r25
    4fce:	19 97       	sbiw	r26, 0x09	; 9
				DIGIT[2][0] = fnd_tbl[RTC_T.Sec % 10];
    4fd0:	88 0f       	add	r24, r24
    4fd2:	98 2f       	mov	r25, r24
    4fd4:	99 0f       	add	r25, r25
    4fd6:	99 0f       	add	r25, r25
    4fd8:	89 0f       	add	r24, r25
    4fda:	e8 1b       	sub	r30, r24
    4fdc:	f0 e0       	ldi	r31, 0x00	; 0
    4fde:	e9 5b       	subi	r30, 0xB9	; 185
    4fe0:	fe 4b       	sbci	r31, 0xBE	; 190
    4fe2:	80 81       	ld	r24, Z
    4fe4:	18 96       	adiw	r26, 0x08	; 8
    4fe6:	8c 93       	st	X, r24
    4fe8:	18 97       	sbiw	r26, 0x08	; 8
				if(Blink)				// Blink = 1 ņŐłť 
    4fea:	80 91 b9 4b 	lds	r24, 0x4BB9	; 0x804bb9 <Blink>
    4fee:	88 23       	and	r24, r24
    4ff0:	21 f0       	breq	.+8      	; 0x4ffa <RTC_Set+0x1c2>
				{
					DIGIT[0][3] = FND_OFF;		// ∑őĶŚľŅ Year ņŕłģ OFF
    4ff2:	fd 01       	movw	r30, r26
    4ff4:	13 82       	std	Z+3, r1	; 0x03
					DIGIT[0][2] = FND_OFF;
    4ff6:	12 82       	std	Z+2, r1	; 0x02
    4ff8:	1f c0       	rjmp	.+62     	; 0x5038 <RTC_Set+0x200>
				}
				else					// Blink = 0 ņŐłť
				{
					DIGIT[0][3] = fnd_tbl[RTC_T.Year / 10];	// ∑őĶŚľŅ Year ņŕłģ «•Ĺ√
    4ffa:	e0 91 7e 4b 	lds	r30, 0x4B7E	; 0x804b7e <RTC_T+0x6>
    4ffe:	8d ec       	ldi	r24, 0xCD	; 205
    5000:	e8 9f       	mul	r30, r24
    5002:	81 2d       	mov	r24, r1
    5004:	11 24       	eor	r1, r1
    5006:	86 95       	lsr	r24
    5008:	86 95       	lsr	r24
    500a:	86 95       	lsr	r24
    500c:	a8 2f       	mov	r26, r24
    500e:	b0 e0       	ldi	r27, 0x00	; 0
    5010:	a9 5b       	subi	r26, 0xB9	; 185
    5012:	be 4b       	sbci	r27, 0xBE	; 190
    5014:	9c 91       	ld	r25, X
    5016:	ad e7       	ldi	r26, 0x7D	; 125
    5018:	b1 e4       	ldi	r27, 0x41	; 65
    501a:	13 96       	adiw	r26, 0x03	; 3
    501c:	9c 93       	st	X, r25
    501e:	13 97       	sbiw	r26, 0x03	; 3
					DIGIT[0][2] = fnd_tbl[RTC_T.Year % 10];
    5020:	88 0f       	add	r24, r24
    5022:	98 2f       	mov	r25, r24
    5024:	99 0f       	add	r25, r25
    5026:	99 0f       	add	r25, r25
    5028:	89 0f       	add	r24, r25
    502a:	e8 1b       	sub	r30, r24
    502c:	f0 e0       	ldi	r31, 0x00	; 0
    502e:	e9 5b       	subi	r30, 0xB9	; 185
    5030:	fe 4b       	sbci	r31, 0xBE	; 190
    5032:	80 81       	ld	r24, Z
    5034:	12 96       	adiw	r26, 0x02	; 2
    5036:	8c 93       	st	X, r24
				}

				if(KEY.Buff)				// Key ņ‘∑¬ņŐ ņ÷ņłłť
    5038:	80 91 8d 4b 	lds	r24, 0x4B8D	; 0x804b8d <KEY+0x1>
    503c:	88 23       	and	r24, r24
    503e:	09 f4       	brne	.+2      	; 0x5042 <RTC_Set+0x20a>
    5040:	2c c2       	rjmp	.+1112   	; 0x549a <RTC_Set+0x662>
				{
					if     (KEY.Key == 1 && RTC_T.Year < 99) {RTC_T.Year ++; KEY.Key = 0;}	// ĺų  ĻŲ∆į ņŐłť Year Ńűį°
    5042:	80 91 8e 4b 	lds	r24, 0x4B8E	; 0x804b8e <KEY+0x2>
    5046:	81 30       	cpi	r24, 0x01	; 1
    5048:	51 f4       	brne	.+20     	; 0x505e <RTC_Set+0x226>
    504a:	80 91 7e 4b 	lds	r24, 0x4B7E	; 0x804b7e <RTC_T+0x6>
    504e:	83 36       	cpi	r24, 0x63	; 99
    5050:	30 f4       	brcc	.+12     	; 0x505e <RTC_Set+0x226>
    5052:	8f 5f       	subi	r24, 0xFF	; 255
    5054:	80 93 7e 4b 	sts	0x4B7E, r24	; 0x804b7e <RTC_T+0x6>
    5058:	10 92 8e 4b 	sts	0x4B8E, r1	; 0x804b8e <KEY+0x2>
    505c:	1e c2       	rjmp	.+1084   	; 0x549a <RTC_Set+0x662>
					else if(KEY.Key == 3 && RTC_T.Year >  0) {RTC_T.Year --; KEY.Key = 0;}	// īŔŅÓĻŲ∆į ņŐłť Year į®ľ“
    505e:	80 91 8e 4b 	lds	r24, 0x4B8E	; 0x804b8e <KEY+0x2>
    5062:	83 30       	cpi	r24, 0x03	; 3
    5064:	09 f0       	breq	.+2      	; 0x5068 <RTC_Set+0x230>
    5066:	19 c2       	rjmp	.+1074   	; 0x549a <RTC_Set+0x662>
    5068:	80 91 7e 4b 	lds	r24, 0x4B7E	; 0x804b7e <RTC_T+0x6>
    506c:	88 23       	and	r24, r24
    506e:	09 f4       	brne	.+2      	; 0x5072 <RTC_Set+0x23a>
    5070:	14 c2       	rjmp	.+1064   	; 0x549a <RTC_Set+0x662>
    5072:	81 50       	subi	r24, 0x01	; 1
    5074:	80 93 7e 4b 	sts	0x4B7E, r24	; 0x804b7e <RTC_T+0x6>
    5078:	10 92 8e 4b 	sts	0x4B8E, r1	; 0x804b8e <KEY+0x2>
    507c:	0e c2       	rjmp	.+1052   	; 0x549a <RTC_Set+0x662>
				}
			break;

			case 1:						// Ņý «•Ĺ√ Ļ◊ ľ≥Ń§
				DIGIT[0][3] = fnd_tbl[RTC_T.Year / 10];	// ≥‚ «•Ĺ√
    507e:	e0 91 7e 4b 	lds	r30, 0x4B7E	; 0x804b7e <RTC_T+0x6>
    5082:	8d ec       	ldi	r24, 0xCD	; 205
    5084:	e8 9f       	mul	r30, r24
    5086:	81 2d       	mov	r24, r1
    5088:	11 24       	eor	r1, r1
    508a:	86 95       	lsr	r24
    508c:	86 95       	lsr	r24
    508e:	86 95       	lsr	r24
    5090:	a8 2f       	mov	r26, r24
    5092:	b0 e0       	ldi	r27, 0x00	; 0
    5094:	a9 5b       	subi	r26, 0xB9	; 185
    5096:	be 4b       	sbci	r27, 0xBE	; 190
    5098:	9c 91       	ld	r25, X
    509a:	ad e7       	ldi	r26, 0x7D	; 125
    509c:	b1 e4       	ldi	r27, 0x41	; 65
    509e:	13 96       	adiw	r26, 0x03	; 3
    50a0:	9c 93       	st	X, r25
    50a2:	13 97       	sbiw	r26, 0x03	; 3
				DIGIT[0][2] = fnd_tbl[RTC_T.Year % 10];
    50a4:	88 0f       	add	r24, r24
    50a6:	98 2f       	mov	r25, r24
    50a8:	99 0f       	add	r25, r25
    50aa:	99 0f       	add	r25, r25
    50ac:	89 0f       	add	r24, r25
    50ae:	e8 1b       	sub	r30, r24
    50b0:	f0 e0       	ldi	r31, 0x00	; 0
    50b2:	e9 5b       	subi	r30, 0xB9	; 185
    50b4:	fe 4b       	sbci	r31, 0xBE	; 190
    50b6:	80 81       	ld	r24, Z
    50b8:	12 96       	adiw	r26, 0x02	; 2
    50ba:	8c 93       	st	X, r24
    50bc:	12 97       	sbiw	r26, 0x02	; 2
				if(Blink)				// Blink = 1 ņŐłť
    50be:	80 91 b9 4b 	lds	r24, 0x4BB9	; 0x804bb9 <Blink>
    50c2:	88 23       	and	r24, r24
    50c4:	21 f0       	breq	.+8      	; 0x50ce <RTC_Set+0x296>
				{
					DIGIT[0][1] = FND_OFF;		// ∑őĶŚľŅ Month ņŕłģ OFF
    50c6:	fd 01       	movw	r30, r26
    50c8:	11 82       	std	Z+1, r1	; 0x01
					DIGIT[0][0] = FND_OFF;
    50ca:	10 82       	st	Z, r1
    50cc:	1e c0       	rjmp	.+60     	; 0x510a <RTC_Set+0x2d2>
				}
				else					// Blink = 0 ņŐłť
				{
					DIGIT[0][1] = fnd_tbl[RTC_T.Month / 10];// ∑őĶŚľŅ Month ņŕłģ «•Ĺ√
    50ce:	e0 91 7d 4b 	lds	r30, 0x4B7D	; 0x804b7d <RTC_T+0x5>
    50d2:	8d ec       	ldi	r24, 0xCD	; 205
    50d4:	e8 9f       	mul	r30, r24
    50d6:	81 2d       	mov	r24, r1
    50d8:	11 24       	eor	r1, r1
    50da:	86 95       	lsr	r24
    50dc:	86 95       	lsr	r24
    50de:	86 95       	lsr	r24
    50e0:	a8 2f       	mov	r26, r24
    50e2:	b0 e0       	ldi	r27, 0x00	; 0
    50e4:	a9 5b       	subi	r26, 0xB9	; 185
    50e6:	be 4b       	sbci	r27, 0xBE	; 190
    50e8:	9c 91       	ld	r25, X
    50ea:	ad e7       	ldi	r26, 0x7D	; 125
    50ec:	b1 e4       	ldi	r27, 0x41	; 65
    50ee:	11 96       	adiw	r26, 0x01	; 1
    50f0:	9c 93       	st	X, r25
    50f2:	11 97       	sbiw	r26, 0x01	; 1
					DIGIT[0][0] = fnd_tbl[RTC_T.Month % 10];
    50f4:	88 0f       	add	r24, r24
    50f6:	98 2f       	mov	r25, r24
    50f8:	99 0f       	add	r25, r25
    50fa:	99 0f       	add	r25, r25
    50fc:	89 0f       	add	r24, r25
    50fe:	e8 1b       	sub	r30, r24
    5100:	f0 e0       	ldi	r31, 0x00	; 0
    5102:	e9 5b       	subi	r30, 0xB9	; 185
    5104:	fe 4b       	sbci	r31, 0xBE	; 190
    5106:	80 81       	ld	r24, Z
    5108:	8c 93       	st	X, r24
				}

				if(KEY.Buff)				// Key ņ‘∑¬ņŐ ņ÷ņłłť
    510a:	80 91 8d 4b 	lds	r24, 0x4B8D	; 0x804b8d <KEY+0x1>
    510e:	88 23       	and	r24, r24
    5110:	09 f4       	brne	.+2      	; 0x5114 <RTC_Set+0x2dc>
    5112:	c3 c1       	rjmp	.+902    	; 0x549a <RTC_Set+0x662>
				{
					if     (KEY.Key == 1 && RTC_T.Month < 12) {RTC_T.Month ++; KEY.Key = 0;}// ĺų  ĻŲ∆į ņŐłť Month Ńűį°
    5114:	80 91 8e 4b 	lds	r24, 0x4B8E	; 0x804b8e <KEY+0x2>
    5118:	81 30       	cpi	r24, 0x01	; 1
    511a:	51 f4       	brne	.+20     	; 0x5130 <RTC_Set+0x2f8>
    511c:	80 91 7d 4b 	lds	r24, 0x4B7D	; 0x804b7d <RTC_T+0x5>
    5120:	8c 30       	cpi	r24, 0x0C	; 12
    5122:	30 f4       	brcc	.+12     	; 0x5130 <RTC_Set+0x2f8>
    5124:	8f 5f       	subi	r24, 0xFF	; 255
    5126:	80 93 7d 4b 	sts	0x4B7D, r24	; 0x804b7d <RTC_T+0x5>
    512a:	10 92 8e 4b 	sts	0x4B8E, r1	; 0x804b8e <KEY+0x2>
    512e:	b5 c1       	rjmp	.+874    	; 0x549a <RTC_Set+0x662>
					else if(KEY.Key == 3 && RTC_T.Month >  1) {RTC_T.Month --; KEY.Key = 0;}// īŔŅÓĻŲ∆į ņŐłť Month į®ľ“
    5130:	80 91 8e 4b 	lds	r24, 0x4B8E	; 0x804b8e <KEY+0x2>
    5134:	83 30       	cpi	r24, 0x03	; 3
    5136:	09 f0       	breq	.+2      	; 0x513a <RTC_Set+0x302>
    5138:	b0 c1       	rjmp	.+864    	; 0x549a <RTC_Set+0x662>
    513a:	80 91 7d 4b 	lds	r24, 0x4B7D	; 0x804b7d <RTC_T+0x5>
    513e:	82 30       	cpi	r24, 0x02	; 2
    5140:	08 f4       	brcc	.+2      	; 0x5144 <RTC_Set+0x30c>
    5142:	ab c1       	rjmp	.+854    	; 0x549a <RTC_Set+0x662>
    5144:	81 50       	subi	r24, 0x01	; 1
    5146:	80 93 7d 4b 	sts	0x4B7D, r24	; 0x804b7d <RTC_T+0x5>
    514a:	10 92 8e 4b 	sts	0x4B8E, r1	; 0x804b8e <KEY+0x2>
    514e:	a5 c1       	rjmp	.+842    	; 0x549a <RTC_Set+0x662>
				}
			break;

			case 2:						// ņŌ «•Ĺ√ Ļ◊ ľ≥Ń§
				DIGIT[0][1] = fnd_tbl[RTC_T.Month / 10];// Ņý «•Ĺ√
    5150:	e0 91 7d 4b 	lds	r30, 0x4B7D	; 0x804b7d <RTC_T+0x5>
    5154:	8d ec       	ldi	r24, 0xCD	; 205
    5156:	e8 9f       	mul	r30, r24
    5158:	81 2d       	mov	r24, r1
    515a:	11 24       	eor	r1, r1
    515c:	86 95       	lsr	r24
    515e:	86 95       	lsr	r24
    5160:	86 95       	lsr	r24
    5162:	a8 2f       	mov	r26, r24
    5164:	b0 e0       	ldi	r27, 0x00	; 0
    5166:	a9 5b       	subi	r26, 0xB9	; 185
    5168:	be 4b       	sbci	r27, 0xBE	; 190
    516a:	9c 91       	ld	r25, X
    516c:	ad e7       	ldi	r26, 0x7D	; 125
    516e:	b1 e4       	ldi	r27, 0x41	; 65
    5170:	11 96       	adiw	r26, 0x01	; 1
    5172:	9c 93       	st	X, r25
    5174:	11 97       	sbiw	r26, 0x01	; 1
				DIGIT[0][0] = fnd_tbl[RTC_T.Month % 10];
    5176:	88 0f       	add	r24, r24
    5178:	98 2f       	mov	r25, r24
    517a:	99 0f       	add	r25, r25
    517c:	99 0f       	add	r25, r25
    517e:	89 0f       	add	r24, r25
    5180:	e8 1b       	sub	r30, r24
    5182:	f0 e0       	ldi	r31, 0x00	; 0
    5184:	e9 5b       	subi	r30, 0xB9	; 185
    5186:	fe 4b       	sbci	r31, 0xBE	; 190
    5188:	80 81       	ld	r24, Z
    518a:	8c 93       	st	X, r24
				if(Blink)				// Blink = 1 ņŐłť
    518c:	80 91 b9 4b 	lds	r24, 0x4BB9	; 0x804bb9 <Blink>
    5190:	88 23       	and	r24, r24
    5192:	21 f0       	breq	.+8      	; 0x519c <RTC_Set+0x364>
				{
					DIGIT[1][3] = FND_OFF;		// ∑őĶŚľŅ Date ņŕłģ OFF
    5194:	fd 01       	movw	r30, r26
    5196:	17 82       	std	Z+7, r1	; 0x07
					DIGIT[1][2] = FND_OFF;
    5198:	16 82       	std	Z+6, r1	; 0x06
    519a:	1f c0       	rjmp	.+62     	; 0x51da <RTC_Set+0x3a2>
				}
				else					// Blink = 0 ņŐłť
				{
					DIGIT[1][3] = fnd_tbl[RTC_T.Date / 10];	// ∑őĶŚľŅ Date ņŕłģ «•Ĺ√
    519c:	e0 91 7c 4b 	lds	r30, 0x4B7C	; 0x804b7c <RTC_T+0x4>
    51a0:	8d ec       	ldi	r24, 0xCD	; 205
    51a2:	e8 9f       	mul	r30, r24
    51a4:	81 2d       	mov	r24, r1
    51a6:	11 24       	eor	r1, r1
    51a8:	86 95       	lsr	r24
    51aa:	86 95       	lsr	r24
    51ac:	86 95       	lsr	r24
    51ae:	a8 2f       	mov	r26, r24
    51b0:	b0 e0       	ldi	r27, 0x00	; 0
    51b2:	a9 5b       	subi	r26, 0xB9	; 185
    51b4:	be 4b       	sbci	r27, 0xBE	; 190
    51b6:	9c 91       	ld	r25, X
    51b8:	ad e7       	ldi	r26, 0x7D	; 125
    51ba:	b1 e4       	ldi	r27, 0x41	; 65
    51bc:	17 96       	adiw	r26, 0x07	; 7
    51be:	9c 93       	st	X, r25
    51c0:	17 97       	sbiw	r26, 0x07	; 7
					DIGIT[1][2] = fnd_tbl[RTC_T.Date % 10];
    51c2:	88 0f       	add	r24, r24
    51c4:	98 2f       	mov	r25, r24
    51c6:	99 0f       	add	r25, r25
    51c8:	99 0f       	add	r25, r25
    51ca:	89 0f       	add	r24, r25
    51cc:	e8 1b       	sub	r30, r24
    51ce:	f0 e0       	ldi	r31, 0x00	; 0
    51d0:	e9 5b       	subi	r30, 0xB9	; 185
    51d2:	fe 4b       	sbci	r31, 0xBE	; 190
    51d4:	80 81       	ld	r24, Z
    51d6:	16 96       	adiw	r26, 0x06	; 6
    51d8:	8c 93       	st	X, r24
				}

				if(KEY.Buff)				// Key ņ‘∑¬ņŐ ņ÷ņłłť
    51da:	80 91 8d 4b 	lds	r24, 0x4B8D	; 0x804b8d <KEY+0x1>
    51de:	88 23       	and	r24, r24
    51e0:	09 f4       	brne	.+2      	; 0x51e4 <RTC_Set+0x3ac>
    51e2:	5b c1       	rjmp	.+694    	; 0x549a <RTC_Set+0x662>
				{
					if     (KEY.Key == 1 && RTC_T.Date < 31) {RTC_T.Date ++; KEY.Key = 0;}	// ĺų  ĻŲ∆į ņŐłť Date Ńűį°
    51e4:	80 91 8e 4b 	lds	r24, 0x4B8E	; 0x804b8e <KEY+0x2>
    51e8:	81 30       	cpi	r24, 0x01	; 1
    51ea:	51 f4       	brne	.+20     	; 0x5200 <RTC_Set+0x3c8>
    51ec:	80 91 7c 4b 	lds	r24, 0x4B7C	; 0x804b7c <RTC_T+0x4>
    51f0:	8f 31       	cpi	r24, 0x1F	; 31
    51f2:	30 f4       	brcc	.+12     	; 0x5200 <RTC_Set+0x3c8>
    51f4:	8f 5f       	subi	r24, 0xFF	; 255
    51f6:	80 93 7c 4b 	sts	0x4B7C, r24	; 0x804b7c <RTC_T+0x4>
    51fa:	10 92 8e 4b 	sts	0x4B8E, r1	; 0x804b8e <KEY+0x2>
    51fe:	4d c1       	rjmp	.+666    	; 0x549a <RTC_Set+0x662>
					else if(KEY.Key == 3 && RTC_T.Date >  1) {RTC_T.Date --; KEY.Key = 0;}	// īŔŅÓĻŲ∆į ņŐłť Date į®ľ“
    5200:	80 91 8e 4b 	lds	r24, 0x4B8E	; 0x804b8e <KEY+0x2>
    5204:	83 30       	cpi	r24, 0x03	; 3
    5206:	09 f0       	breq	.+2      	; 0x520a <RTC_Set+0x3d2>
    5208:	48 c1       	rjmp	.+656    	; 0x549a <RTC_Set+0x662>
    520a:	80 91 7c 4b 	lds	r24, 0x4B7C	; 0x804b7c <RTC_T+0x4>
    520e:	82 30       	cpi	r24, 0x02	; 2
    5210:	08 f4       	brcc	.+2      	; 0x5214 <RTC_Set+0x3dc>
    5212:	43 c1       	rjmp	.+646    	; 0x549a <RTC_Set+0x662>
    5214:	81 50       	subi	r24, 0x01	; 1
    5216:	80 93 7c 4b 	sts	0x4B7C, r24	; 0x804b7c <RTC_T+0x4>
    521a:	10 92 8e 4b 	sts	0x4B8E, r1	; 0x804b8e <KEY+0x2>
    521e:	3d c1       	rjmp	.+634    	; 0x549a <RTC_Set+0x662>
				}
			break;

			case 3:						// Ĺ√ «•Ĺ√ Ļ◊ ľ≥Ń§
				DIGIT[1][3] = fnd_tbl[RTC_T.Date / 10];	// ņŌ «•Ĺ√
    5220:	e0 91 7c 4b 	lds	r30, 0x4B7C	; 0x804b7c <RTC_T+0x4>
    5224:	8d ec       	ldi	r24, 0xCD	; 205
    5226:	e8 9f       	mul	r30, r24
    5228:	81 2d       	mov	r24, r1
    522a:	11 24       	eor	r1, r1
    522c:	86 95       	lsr	r24
    522e:	86 95       	lsr	r24
    5230:	86 95       	lsr	r24
    5232:	a8 2f       	mov	r26, r24
    5234:	b0 e0       	ldi	r27, 0x00	; 0
    5236:	a9 5b       	subi	r26, 0xB9	; 185
    5238:	be 4b       	sbci	r27, 0xBE	; 190
    523a:	9c 91       	ld	r25, X
    523c:	ad e7       	ldi	r26, 0x7D	; 125
    523e:	b1 e4       	ldi	r27, 0x41	; 65
    5240:	17 96       	adiw	r26, 0x07	; 7
    5242:	9c 93       	st	X, r25
    5244:	17 97       	sbiw	r26, 0x07	; 7
				DIGIT[1][2] = fnd_tbl[RTC_T.Date % 10];
    5246:	88 0f       	add	r24, r24
    5248:	98 2f       	mov	r25, r24
    524a:	99 0f       	add	r25, r25
    524c:	99 0f       	add	r25, r25
    524e:	89 0f       	add	r24, r25
    5250:	e8 1b       	sub	r30, r24
    5252:	f0 e0       	ldi	r31, 0x00	; 0
    5254:	e9 5b       	subi	r30, 0xB9	; 185
    5256:	fe 4b       	sbci	r31, 0xBE	; 190
    5258:	80 81       	ld	r24, Z
    525a:	16 96       	adiw	r26, 0x06	; 6
    525c:	8c 93       	st	X, r24
    525e:	16 97       	sbiw	r26, 0x06	; 6
				if(Blink)				// Blink = 1 ņŐłť
    5260:	80 91 b9 4b 	lds	r24, 0x4BB9	; 0x804bb9 <Blink>
    5264:	88 23       	and	r24, r24
    5266:	21 f0       	breq	.+8      	; 0x5270 <RTC_Set+0x438>
				{
					DIGIT[1][1] = FND_OFF;		// ∑őĶŚľŅ Hour ņŕłģ OFF
    5268:	fd 01       	movw	r30, r26
    526a:	15 82       	std	Z+5, r1	; 0x05
					DIGIT[1][0] = FND_OFF;
    526c:	14 82       	std	Z+4, r1	; 0x04
    526e:	1f c0       	rjmp	.+62     	; 0x52ae <RTC_Set+0x476>
				}
				else					// Blink = 0 ņŐłť
				{
					DIGIT[1][1] = fnd_tbl[RTC_T.Hour / 10];	// ∑őĶŚľŅ Hour ņŕłģ «•Ĺ√
    5270:	e0 91 7a 4b 	lds	r30, 0x4B7A	; 0x804b7a <RTC_T+0x2>
    5274:	8d ec       	ldi	r24, 0xCD	; 205
    5276:	e8 9f       	mul	r30, r24
    5278:	81 2d       	mov	r24, r1
    527a:	11 24       	eor	r1, r1
    527c:	86 95       	lsr	r24
    527e:	86 95       	lsr	r24
    5280:	86 95       	lsr	r24
    5282:	a8 2f       	mov	r26, r24
    5284:	b0 e0       	ldi	r27, 0x00	; 0
    5286:	a9 5b       	subi	r26, 0xB9	; 185
    5288:	be 4b       	sbci	r27, 0xBE	; 190
    528a:	9c 91       	ld	r25, X
    528c:	ad e7       	ldi	r26, 0x7D	; 125
    528e:	b1 e4       	ldi	r27, 0x41	; 65
    5290:	15 96       	adiw	r26, 0x05	; 5
    5292:	9c 93       	st	X, r25
    5294:	15 97       	sbiw	r26, 0x05	; 5
					DIGIT[1][0] = fnd_tbl[RTC_T.Hour % 10];
    5296:	88 0f       	add	r24, r24
    5298:	98 2f       	mov	r25, r24
    529a:	99 0f       	add	r25, r25
    529c:	99 0f       	add	r25, r25
    529e:	89 0f       	add	r24, r25
    52a0:	e8 1b       	sub	r30, r24
    52a2:	f0 e0       	ldi	r31, 0x00	; 0
    52a4:	e9 5b       	subi	r30, 0xB9	; 185
    52a6:	fe 4b       	sbci	r31, 0xBE	; 190
    52a8:	80 81       	ld	r24, Z
    52aa:	14 96       	adiw	r26, 0x04	; 4
    52ac:	8c 93       	st	X, r24
				}

				if(KEY.Buff)				// Key ņ‘∑¬ņŐ ņ÷ņłłť
    52ae:	80 91 8d 4b 	lds	r24, 0x4B8D	; 0x804b8d <KEY+0x1>
    52b2:	88 23       	and	r24, r24
    52b4:	09 f4       	brne	.+2      	; 0x52b8 <RTC_Set+0x480>
    52b6:	f1 c0       	rjmp	.+482    	; 0x549a <RTC_Set+0x662>
				{
					if     (KEY.Key == 1 && RTC_T.Hour < 23) {RTC_T.Hour ++; KEY.Key = 0;}	// ĺų  ĻŲ∆į ņŐłť Hour Ńűį°
    52b8:	80 91 8e 4b 	lds	r24, 0x4B8E	; 0x804b8e <KEY+0x2>
    52bc:	81 30       	cpi	r24, 0x01	; 1
    52be:	51 f4       	brne	.+20     	; 0x52d4 <RTC_Set+0x49c>
    52c0:	80 91 7a 4b 	lds	r24, 0x4B7A	; 0x804b7a <RTC_T+0x2>
    52c4:	87 31       	cpi	r24, 0x17	; 23
    52c6:	30 f4       	brcc	.+12     	; 0x52d4 <RTC_Set+0x49c>
    52c8:	8f 5f       	subi	r24, 0xFF	; 255
    52ca:	80 93 7a 4b 	sts	0x4B7A, r24	; 0x804b7a <RTC_T+0x2>
    52ce:	10 92 8e 4b 	sts	0x4B8E, r1	; 0x804b8e <KEY+0x2>
    52d2:	e3 c0       	rjmp	.+454    	; 0x549a <RTC_Set+0x662>
					else if(KEY.Key == 3 && RTC_T.Hour >  0) {RTC_T.Hour --; KEY.Key = 0;}	// īŔŅÓĻŲ∆į ņŐłť Hour į®ľ“
    52d4:	80 91 8e 4b 	lds	r24, 0x4B8E	; 0x804b8e <KEY+0x2>
    52d8:	83 30       	cpi	r24, 0x03	; 3
    52da:	09 f0       	breq	.+2      	; 0x52de <RTC_Set+0x4a6>
    52dc:	de c0       	rjmp	.+444    	; 0x549a <RTC_Set+0x662>
    52de:	80 91 7a 4b 	lds	r24, 0x4B7A	; 0x804b7a <RTC_T+0x2>
    52e2:	88 23       	and	r24, r24
    52e4:	09 f4       	brne	.+2      	; 0x52e8 <RTC_Set+0x4b0>
    52e6:	d9 c0       	rjmp	.+434    	; 0x549a <RTC_Set+0x662>
    52e8:	81 50       	subi	r24, 0x01	; 1
    52ea:	80 93 7a 4b 	sts	0x4B7A, r24	; 0x804b7a <RTC_T+0x2>
    52ee:	10 92 8e 4b 	sts	0x4B8E, r1	; 0x804b8e <KEY+0x2>
    52f2:	d3 c0       	rjmp	.+422    	; 0x549a <RTC_Set+0x662>
				}
			break;

			case 4:						// ļ– «•Ĺ√ Ļ◊ ľ≥Ń§
				DIGIT[1][1] = fnd_tbl[RTC_T.Hour / 10];	// Ĺ√ «•Ĺ√
    52f4:	e0 91 7a 4b 	lds	r30, 0x4B7A	; 0x804b7a <RTC_T+0x2>
    52f8:	8d ec       	ldi	r24, 0xCD	; 205
    52fa:	e8 9f       	mul	r30, r24
    52fc:	81 2d       	mov	r24, r1
    52fe:	11 24       	eor	r1, r1
    5300:	86 95       	lsr	r24
    5302:	86 95       	lsr	r24
    5304:	86 95       	lsr	r24
    5306:	a8 2f       	mov	r26, r24
    5308:	b0 e0       	ldi	r27, 0x00	; 0
    530a:	a9 5b       	subi	r26, 0xB9	; 185
    530c:	be 4b       	sbci	r27, 0xBE	; 190
    530e:	9c 91       	ld	r25, X
    5310:	ad e7       	ldi	r26, 0x7D	; 125
    5312:	b1 e4       	ldi	r27, 0x41	; 65
    5314:	15 96       	adiw	r26, 0x05	; 5
    5316:	9c 93       	st	X, r25
    5318:	15 97       	sbiw	r26, 0x05	; 5
				DIGIT[1][0] = fnd_tbl[RTC_T.Hour % 10];
    531a:	88 0f       	add	r24, r24
    531c:	98 2f       	mov	r25, r24
    531e:	99 0f       	add	r25, r25
    5320:	99 0f       	add	r25, r25
    5322:	89 0f       	add	r24, r25
    5324:	e8 1b       	sub	r30, r24
    5326:	f0 e0       	ldi	r31, 0x00	; 0
    5328:	e9 5b       	subi	r30, 0xB9	; 185
    532a:	fe 4b       	sbci	r31, 0xBE	; 190
    532c:	80 81       	ld	r24, Z
    532e:	14 96       	adiw	r26, 0x04	; 4
    5330:	8c 93       	st	X, r24
    5332:	14 97       	sbiw	r26, 0x04	; 4
				if(Blink)				// Blink = 1 ņŐłť
    5334:	80 91 b9 4b 	lds	r24, 0x4BB9	; 0x804bb9 <Blink>
    5338:	88 23       	and	r24, r24
    533a:	21 f0       	breq	.+8      	; 0x5344 <RTC_Set+0x50c>
				{
					DIGIT[2][3] = FND_OFF;		// ∑őĶŚľŅ Min ņŕłģ OFF
    533c:	fd 01       	movw	r30, r26
    533e:	13 86       	std	Z+11, r1	; 0x0b
					DIGIT[2][2] = FND_OFF;
    5340:	12 86       	std	Z+10, r1	; 0x0a
    5342:	1f c0       	rjmp	.+62     	; 0x5382 <RTC_Set+0x54a>
				}
				else					// Blink = 0 ņŐłť
				{
					DIGIT[2][3] = fnd_tbl[RTC_T.Min / 10];	// ∑őĶŚľŅ Min ņŕłģ «•Ĺ√
    5344:	e0 91 79 4b 	lds	r30, 0x4B79	; 0x804b79 <RTC_T+0x1>
    5348:	8d ec       	ldi	r24, 0xCD	; 205
    534a:	e8 9f       	mul	r30, r24
    534c:	81 2d       	mov	r24, r1
    534e:	11 24       	eor	r1, r1
    5350:	86 95       	lsr	r24
    5352:	86 95       	lsr	r24
    5354:	86 95       	lsr	r24
    5356:	a8 2f       	mov	r26, r24
    5358:	b0 e0       	ldi	r27, 0x00	; 0
    535a:	a9 5b       	subi	r26, 0xB9	; 185
    535c:	be 4b       	sbci	r27, 0xBE	; 190
    535e:	9c 91       	ld	r25, X
    5360:	ad e7       	ldi	r26, 0x7D	; 125
    5362:	b1 e4       	ldi	r27, 0x41	; 65
    5364:	1b 96       	adiw	r26, 0x0b	; 11
    5366:	9c 93       	st	X, r25
    5368:	1b 97       	sbiw	r26, 0x0b	; 11
					DIGIT[2][2] = fnd_tbl[RTC_T.Min % 10];
    536a:	88 0f       	add	r24, r24
    536c:	98 2f       	mov	r25, r24
    536e:	99 0f       	add	r25, r25
    5370:	99 0f       	add	r25, r25
    5372:	89 0f       	add	r24, r25
    5374:	e8 1b       	sub	r30, r24
    5376:	f0 e0       	ldi	r31, 0x00	; 0
    5378:	e9 5b       	subi	r30, 0xB9	; 185
    537a:	fe 4b       	sbci	r31, 0xBE	; 190
    537c:	80 81       	ld	r24, Z
    537e:	1a 96       	adiw	r26, 0x0a	; 10
    5380:	8c 93       	st	X, r24
				}

				if(KEY.Buff)				// Key ņ‘∑¬ņŐ ņ÷ņłłť
    5382:	80 91 8d 4b 	lds	r24, 0x4B8D	; 0x804b8d <KEY+0x1>
    5386:	88 23       	and	r24, r24
    5388:	09 f4       	brne	.+2      	; 0x538c <RTC_Set+0x554>
    538a:	87 c0       	rjmp	.+270    	; 0x549a <RTC_Set+0x662>
				{
					if     (KEY.Key == 1 && RTC_T.Min < 59) {RTC_T.Min ++; KEY.Key = 0;}	// ĺų  ĻŲ∆į ņŐłť Min Ńűį°
    538c:	80 91 8e 4b 	lds	r24, 0x4B8E	; 0x804b8e <KEY+0x2>
    5390:	81 30       	cpi	r24, 0x01	; 1
    5392:	51 f4       	brne	.+20     	; 0x53a8 <RTC_Set+0x570>
    5394:	80 91 79 4b 	lds	r24, 0x4B79	; 0x804b79 <RTC_T+0x1>
    5398:	8b 33       	cpi	r24, 0x3B	; 59
    539a:	30 f4       	brcc	.+12     	; 0x53a8 <RTC_Set+0x570>
    539c:	8f 5f       	subi	r24, 0xFF	; 255
    539e:	80 93 79 4b 	sts	0x4B79, r24	; 0x804b79 <RTC_T+0x1>
    53a2:	10 92 8e 4b 	sts	0x4B8E, r1	; 0x804b8e <KEY+0x2>
    53a6:	79 c0       	rjmp	.+242    	; 0x549a <RTC_Set+0x662>
					else if(KEY.Key == 3 && RTC_T.Min >  0) {RTC_T.Min --; KEY.Key = 0;}	// īŔŅÓĻŲ∆į ņŐłť Min į®ľ“
    53a8:	80 91 8e 4b 	lds	r24, 0x4B8E	; 0x804b8e <KEY+0x2>
    53ac:	83 30       	cpi	r24, 0x03	; 3
    53ae:	09 f0       	breq	.+2      	; 0x53b2 <RTC_Set+0x57a>
    53b0:	74 c0       	rjmp	.+232    	; 0x549a <RTC_Set+0x662>
    53b2:	80 91 79 4b 	lds	r24, 0x4B79	; 0x804b79 <RTC_T+0x1>
    53b6:	88 23       	and	r24, r24
    53b8:	09 f4       	brne	.+2      	; 0x53bc <RTC_Set+0x584>
    53ba:	6f c0       	rjmp	.+222    	; 0x549a <RTC_Set+0x662>
    53bc:	81 50       	subi	r24, 0x01	; 1
    53be:	80 93 79 4b 	sts	0x4B79, r24	; 0x804b79 <RTC_T+0x1>
    53c2:	10 92 8e 4b 	sts	0x4B8E, r1	; 0x804b8e <KEY+0x2>
    53c6:	69 c0       	rjmp	.+210    	; 0x549a <RTC_Set+0x662>
				}
			break;

			case 5:						// ∑őĶŚľŅ RO 10ņ« ņŕłģ
				DIGIT[2][3] = fnd_tbl[RTC_T.Min / 10];	// ļ– «•Ĺ√
    53c8:	e0 91 79 4b 	lds	r30, 0x4B79	; 0x804b79 <RTC_T+0x1>
    53cc:	8d ec       	ldi	r24, 0xCD	; 205
    53ce:	e8 9f       	mul	r30, r24
    53d0:	81 2d       	mov	r24, r1
    53d2:	11 24       	eor	r1, r1
    53d4:	86 95       	lsr	r24
    53d6:	86 95       	lsr	r24
    53d8:	86 95       	lsr	r24
    53da:	a8 2f       	mov	r26, r24
    53dc:	b0 e0       	ldi	r27, 0x00	; 0
    53de:	a9 5b       	subi	r26, 0xB9	; 185
    53e0:	be 4b       	sbci	r27, 0xBE	; 190
    53e2:	9c 91       	ld	r25, X
    53e4:	ad e7       	ldi	r26, 0x7D	; 125
    53e6:	b1 e4       	ldi	r27, 0x41	; 65
    53e8:	1b 96       	adiw	r26, 0x0b	; 11
    53ea:	9c 93       	st	X, r25
    53ec:	1b 97       	sbiw	r26, 0x0b	; 11
				DIGIT[2][2] = fnd_tbl[RTC_T.Min % 10];
    53ee:	88 0f       	add	r24, r24
    53f0:	98 2f       	mov	r25, r24
    53f2:	99 0f       	add	r25, r25
    53f4:	99 0f       	add	r25, r25
    53f6:	89 0f       	add	r24, r25
    53f8:	e8 1b       	sub	r30, r24
    53fa:	f0 e0       	ldi	r31, 0x00	; 0
    53fc:	e9 5b       	subi	r30, 0xB9	; 185
    53fe:	fe 4b       	sbci	r31, 0xBE	; 190
    5400:	80 81       	ld	r24, Z
    5402:	1a 96       	adiw	r26, 0x0a	; 10
    5404:	8c 93       	st	X, r24
    5406:	1a 97       	sbiw	r26, 0x0a	; 10
				if(Blink)				// Blink = 1 ņŐłť
    5408:	80 91 b9 4b 	lds	r24, 0x4BB9	; 0x804bb9 <Blink>
    540c:	88 23       	and	r24, r24
    540e:	21 f0       	breq	.+8      	; 0x5418 <RTC_Set+0x5e0>
				{
					DIGIT[2][1] = FND_OFF;		// ∑őĶŚľŅ Sec ņŕłģ OFF
    5410:	fd 01       	movw	r30, r26
    5412:	11 86       	std	Z+9, r1	; 0x09
					DIGIT[2][0] = FND_OFF;
    5414:	10 86       	std	Z+8, r1	; 0x08
    5416:	1f c0       	rjmp	.+62     	; 0x5456 <RTC_Set+0x61e>
				}
				else					// Blink = 0 ņŐłť
				{
					DIGIT[2][1] = fnd_tbl[RTC_T.Sec / 10];	// ∑őĶŚľŅ Sec ņŕłģ «•Ĺ√
    5418:	e0 91 78 4b 	lds	r30, 0x4B78	; 0x804b78 <RTC_T>
    541c:	8d ec       	ldi	r24, 0xCD	; 205
    541e:	e8 9f       	mul	r30, r24
    5420:	81 2d       	mov	r24, r1
    5422:	11 24       	eor	r1, r1
    5424:	86 95       	lsr	r24
    5426:	86 95       	lsr	r24
    5428:	86 95       	lsr	r24
    542a:	a8 2f       	mov	r26, r24
    542c:	b0 e0       	ldi	r27, 0x00	; 0
    542e:	a9 5b       	subi	r26, 0xB9	; 185
    5430:	be 4b       	sbci	r27, 0xBE	; 190
    5432:	9c 91       	ld	r25, X
    5434:	ad e7       	ldi	r26, 0x7D	; 125
    5436:	b1 e4       	ldi	r27, 0x41	; 65
    5438:	19 96       	adiw	r26, 0x09	; 9
    543a:	9c 93       	st	X, r25
    543c:	19 97       	sbiw	r26, 0x09	; 9
					DIGIT[2][0] = fnd_tbl[RTC_T.Sec % 10];
    543e:	88 0f       	add	r24, r24
    5440:	98 2f       	mov	r25, r24
    5442:	99 0f       	add	r25, r25
    5444:	99 0f       	add	r25, r25
    5446:	89 0f       	add	r24, r25
    5448:	e8 1b       	sub	r30, r24
    544a:	f0 e0       	ldi	r31, 0x00	; 0
    544c:	e9 5b       	subi	r30, 0xB9	; 185
    544e:	fe 4b       	sbci	r31, 0xBE	; 190
    5450:	80 81       	ld	r24, Z
    5452:	18 96       	adiw	r26, 0x08	; 8
    5454:	8c 93       	st	X, r24
				}

				if(KEY.Buff)				// Key ņ‘∑¬ņŐ ņ÷ņłłť
    5456:	80 91 8d 4b 	lds	r24, 0x4B8D	; 0x804b8d <KEY+0x1>
    545a:	88 23       	and	r24, r24
    545c:	f1 f0       	breq	.+60     	; 0x549a <RTC_Set+0x662>
				{
					if     (KEY.Key == 1 && RTC_T.Sec < 59) {RTC_T.Sec++; KEY.Key = 0;}	// ĺų  ĻŲ∆į ņŐłť Sec Ńűį°
    545e:	80 91 8e 4b 	lds	r24, 0x4B8E	; 0x804b8e <KEY+0x2>
    5462:	81 30       	cpi	r24, 0x01	; 1
    5464:	51 f4       	brne	.+20     	; 0x547a <RTC_Set+0x642>
    5466:	80 91 78 4b 	lds	r24, 0x4B78	; 0x804b78 <RTC_T>
    546a:	8b 33       	cpi	r24, 0x3B	; 59
    546c:	30 f4       	brcc	.+12     	; 0x547a <RTC_Set+0x642>
    546e:	8f 5f       	subi	r24, 0xFF	; 255
    5470:	80 93 78 4b 	sts	0x4B78, r24	; 0x804b78 <RTC_T>
    5474:	10 92 8e 4b 	sts	0x4B8E, r1	; 0x804b8e <KEY+0x2>
    5478:	10 c0       	rjmp	.+32     	; 0x549a <RTC_Set+0x662>
					else if(KEY.Key == 3 && RTC_T.Sec >  0) {RTC_T.Sec--; KEY.Key = 0;}	// īŔŅÓĻŲ∆į ņŐłť Sec į®ľ“
    547a:	80 91 8e 4b 	lds	r24, 0x4B8E	; 0x804b8e <KEY+0x2>
    547e:	83 30       	cpi	r24, 0x03	; 3
    5480:	61 f4       	brne	.+24     	; 0x549a <RTC_Set+0x662>
    5482:	80 91 78 4b 	lds	r24, 0x4B78	; 0x804b78 <RTC_T>
    5486:	88 23       	and	r24, r24
    5488:	41 f0       	breq	.+16     	; 0x549a <RTC_Set+0x662>
    548a:	81 50       	subi	r24, 0x01	; 1
    548c:	80 93 78 4b 	sts	0x4B78, r24	; 0x804b78 <RTC_T>
    5490:	10 92 8e 4b 	sts	0x4B8E, r1	; 0x804b8e <KEY+0x2>
    5494:	02 c0       	rjmp	.+4      	; 0x549a <RTC_Set+0x662>
				}
			break;
			
			case 6:
				KEY.Count = 0;				// Ļ›ļĻņĽ ņß«ō Countł¶ √÷ņķ∑ő į®ľ“ Ĺ√Ňī
    5496:	10 92 8c 4b 	sts	0x4B8C, r1	; 0x804b8c <KEY>
			break;
		}
		wdt_reset();						// ŅŲń°Ķ∂ łģľ¬
    549a:	0e 94 17 0d 	call	0x1a2e	; 0x1a2e <wdt_reset>
	DIGIT[2][2] = fnd_tbl[RTC_T.Min % 10];

	DIGIT[2][1] = fnd_tbl[RTC_T.Sec / 10];				// √  «•Ĺ√
	DIGIT[2][0] = fnd_tbl[RTC_T.Sec % 10];

	while(SET.Menu)							// łřīļłūĶŚ ņŐłť Ļ›ļĻ
    549e:	80 91 48 4b 	lds	r24, 0x4B48	; 0x804b48 <SET>
    54a2:	81 11       	cpse	r24, r1
    54a4:	72 cd       	rjmp	.-1308   	; 0x4f8a <RTC_Set+0x152>
				KEY.Count = 0;				// Ļ›ļĻņĽ ņß«ō Countł¶ √÷ņķ∑ő į®ľ“ Ĺ√Ňī
			break;
		}
		wdt_reset();						// ŅŲń°Ķ∂ łģľ¬
	}
	RTC_Time_Write(RTC_YEAR,   RTC_T.Year);				// RTC Ņ° ≥‚ ņķņŚ
    54a6:	c8 e7       	ldi	r28, 0x78	; 120
    54a8:	db e4       	ldi	r29, 0x4B	; 75
    54aa:	6e 81       	ldd	r22, Y+6	; 0x06
    54ac:	86 e0       	ldi	r24, 0x06	; 6
    54ae:	0e 94 ee 26 	call	0x4ddc	; 0x4ddc <RTC_Time_Write>
	RTC_Time_Write(RTC_MONTH,  RTC_T.Month);			// RTC Ņ° Ņý ņķņŚ
    54b2:	6d 81       	ldd	r22, Y+5	; 0x05
    54b4:	85 e0       	ldi	r24, 0x05	; 5
    54b6:	0e 94 ee 26 	call	0x4ddc	; 0x4ddc <RTC_Time_Write>
	RTC_Time_Write(RTC_DATE,   RTC_T.Date);				// RTC Ņ° ņŌ ņķņŚ
    54ba:	6c 81       	ldd	r22, Y+4	; 0x04
    54bc:	84 e0       	ldi	r24, 0x04	; 4
    54be:	0e 94 ee 26 	call	0x4ddc	; 0x4ddc <RTC_Time_Write>
	RTC_Time_Write(RTC_HOUR,   RTC_T.Hour);				// RTC Ņ° Ĺ√ ņķņŚ
    54c2:	6a 81       	ldd	r22, Y+2	; 0x02
    54c4:	82 e0       	ldi	r24, 0x02	; 2
    54c6:	0e 94 ee 26 	call	0x4ddc	; 0x4ddc <RTC_Time_Write>
	RTC_Time_Write(RTC_MINUTE, RTC_T.Min);				// RTC Ņ° ļ– ņķņŚ
    54ca:	69 81       	ldd	r22, Y+1	; 0x01
    54cc:	81 e0       	ldi	r24, 0x01	; 1
    54ce:	0e 94 ee 26 	call	0x4ddc	; 0x4ddc <RTC_Time_Write>
	RTC_Time_Write(RTC_SECOND, RTC_T.Sec);				// RTC Ņ° √  ņķņŚ
    54d2:	68 81       	ld	r22, Y
    54d4:	80 e0       	ldi	r24, 0x00	; 0
    54d6:	0e 94 ee 26 	call	0x4ddc	; 0x4ddc <RTC_Time_Write>
}
    54da:	df 91       	pop	r29
    54dc:	cf 91       	pop	r28
    54de:	08 95       	ret

000054e0 <SLPCTRL_init>:
    54e0:	80 e0       	ldi	r24, 0x00	; 0
    54e2:	08 95       	ret

000054e4 <TIMER_1_init>:
	//		 | 0 << TCA_SINGLE_CNTBEI_bp /* Count on Event Input B: disabled */
	//		 | TCA_SINGLE_EVACTA_CNT_POSEDGE_gc /* Count on positive edge event */
	//		 | TCA_SINGLE_EVACTB_UPDOWN_gc; /* Count on prescaled clock. Event controls count direction. Up-count when
	//event line is 0, down-count when event line is 1. */

	TCA1.SINGLE.INTCTRL = 0 << TCA_SINGLE_CMP0_bp   /* Compare 0 Interrupt: disabled */
    54e4:	e0 e4       	ldi	r30, 0x40	; 64
    54e6:	fa e0       	ldi	r31, 0x0A	; 10
    54e8:	81 e0       	ldi	r24, 0x01	; 1
    54ea:	82 87       	std	Z+10, r24	; 0x0a
	                      | 0 << TCA_SINGLE_CMP1_bp /* Compare 1 Interrupt: disabled */
	                      | 0 << TCA_SINGLE_CMP2_bp /* Compare 2 Interrupt: disabled */
	                      | 1 << TCA_SINGLE_OVF_bp; /* Overflow Interrupt: enabled */

	TCA1.SINGLE.PER = 0x0047;	//   5mSec
    54ec:	87 e4       	ldi	r24, 0x47	; 71
    54ee:	90 e0       	ldi	r25, 0x00	; 0
    54f0:	86 a3       	std	Z+38, r24	; 0x26
    54f2:	97 a3       	std	Z+39, r25	; 0x27
	// TCA1.SINGLE.PER = 0x008F;	//  10mSec
	// TCA1.SINGLE.PER = 0x02CF;	//  50mSec
	// TCA1.SINGLE.PER = 0x1C20;	// 500mSec
	// TCA1.SINGLE.PER = 0x38B0;	//    1Sec

	TCA1.SINGLE.CTRLA = TCA_SINGLE_CLKSEL_DIV1024_gc      /* System Clock / 1024 */
    54f4:	8f e0       	ldi	r24, 0x0F	; 15
    54f6:	80 83       	st	Z, r24
	                    | 1 << TCA_SINGLE_ENABLE_bp    /* Module Enable: enabled */
	                    | 0 << TCA_SINGLE_RUNSTDBY_bp; /* RUN STANDBY: disabled */
	return 0;
}
    54f8:	80 e0       	ldi	r24, 0x00	; 0
    54fa:	08 95       	ret

000054fc <USART_1_init>:

//-------------------------------------------------------------------------------------------------
void Rx1_Buff_Clear(void)						// Rx1 Buffer Clear
{
	memset(Rx1_Buff, 0, RX1_SIZE);					// Rx1_Buff ł¶ Rx1_SIZE(250)łłŇ≠ 0ņł∑ő √ Ī‚»≠
	Rx1_Cnt = 0;							// Rx1 Data Count √ Ī‚»≠
    54fc:	e0 e2       	ldi	r30, 0x20	; 32
    54fe:	f8 e0       	ldi	r31, 0x08	; 8
    5500:	80 e0       	ldi	r24, 0x00	; 0
    5502:	98 e1       	ldi	r25, 0x18	; 24
    5504:	80 87       	std	Z+8, r24	; 0x08
    5506:	91 87       	std	Z+9, r25	; 0x09
    5508:	84 e9       	ldi	r24, 0x94	; 148
    550a:	85 83       	std	Z+5, r24	; 0x05
    550c:	80 ec       	ldi	r24, 0xC0	; 192
    550e:	86 83       	std	Z+6, r24	; 0x06
    5510:	80 e0       	ldi	r24, 0x00	; 0
    5512:	08 95       	ret

00005514 <USART1_Write>:
    5514:	90 91 24 08 	lds	r25, 0x0824	; 0x800824 <__TEXT_REGION_LENGTH__+0x7e0824>
    5518:	95 ff       	sbrs	r25, 5
    551a:	fc cf       	rjmp	.-8      	; 0x5514 <USART1_Write>
    551c:	80 93 22 08 	sts	0x0822, r24	; 0x800822 <__TEXT_REGION_LENGTH__+0x7e0822>
    5520:	81 e0       	ldi	r24, 0x01	; 1
    5522:	90 e0       	ldi	r25, 0x00	; 0
    5524:	08 95       	ret

00005526 <USART_3_init>:

//=================================================================================================
#ifdef Usart_3
int8_t USART_3_init()
{
	USART3.BAUD = (uint16_t)USART3_BAUD_RATE(Usart3_BAUD);		/* set baud rate register */
    5526:	e0 e6       	ldi	r30, 0x60	; 96
    5528:	f8 e0       	ldi	r31, 0x08	; 8
    552a:	80 e0       	ldi	r24, 0x00	; 0
    552c:	98 e1       	ldi	r25, 0x18	; 24
    552e:	80 87       	std	Z+8, r24	; 0x08
    5530:	91 87       	std	Z+9, r25	; 0x09

	USART3.CTRLA = 1 << USART_ABEIE_bp			/* Auto-baud Error Interrupt Enable: disabled */
    5532:	84 e9       	ldi	r24, 0x94	; 148
    5534:	85 83       	std	Z+5, r24	; 0x05
			| USART_RS485_DISABLE_gc		/* RS485 Mode disabled */
			| 1 << USART_RXCIE_bp			/* Receive Complete Interrupt Enable: enabled */
			| 1 << USART_RXSIE_bp			/* Receiver Start Frame Interrupt Enable: enabled */
			| 0 << USART_TXCIE_bp;			/* Transmit Complete Interrupt Enable: disabled */

	USART3.CTRLB = 0 << USART_MPCM_bp			/* Multi-processor Communication Mode: disabled */
    5536:	80 ec       	ldi	r24, 0xC0	; 192
    5538:	86 83       	std	Z+6, r24	; 0x06
	// USART3.EVCTRL = 0 << USART_IREI_bp;			/* IrDA Event Input Enable: disabled */
	// USART3.RXPLCTRL = 0x0 << USART_RXPL_gp;		/* Receiver Pulse Lenght: 0x0 */
	// USART3.TXPLCTRL = 0x0 << USART_TXPL_gp;		/* Transmit pulse length: 0x0 */

	return 0;
}
    553a:	80 e0       	ldi	r24, 0x00	; 0
    553c:	08 95       	ret

0000553e <USART3_Write>:

//-------------------------------------------------------------------------------------------------
int USART3_Write(char data)
{
	while(!(USART3.STATUS & USART_DREIF_bm)) ;
    553e:	90 91 64 08 	lds	r25, 0x0864	; 0x800864 <__TEXT_REGION_LENGTH__+0x7e0864>
    5542:	95 ff       	sbrs	r25, 5
    5544:	fc cf       	rjmp	.-8      	; 0x553e <USART3_Write>
	USART3.TXDATAL = data;
    5546:	80 93 62 08 	sts	0x0862, r24	; 0x800862 <__TEXT_REGION_LENGTH__+0x7e0862>
	return 1;
}
    554a:	81 e0       	ldi	r24, 0x01	; 1
    554c:	90 e0       	ldi	r25, 0x00	; 0
    554e:	08 95       	ret

00005550 <USART3_SendString>:

//-------------------------------------------------------------------------------------------------
void USART3_SendString(const char *str)
{
    5550:	0f 93       	push	r16
    5552:	1f 93       	push	r17
    5554:	cf 93       	push	r28
    5556:	df 93       	push	r29
    5558:	8c 01       	movw	r16, r24
	for(size_t i = 0; i < strlen(str); i++) {USART3_Write(str[i]);}
    555a:	c0 e0       	ldi	r28, 0x00	; 0
    555c:	d0 e0       	ldi	r29, 0x00	; 0
    555e:	07 c0       	rjmp	.+14     	; 0x556e <USART3_SendString+0x1e>
    5560:	f8 01       	movw	r30, r16
    5562:	ec 0f       	add	r30, r28
    5564:	fd 1f       	adc	r31, r29
    5566:	80 81       	ld	r24, Z
    5568:	0e 94 9f 2a 	call	0x553e	; 0x553e <USART3_Write>
    556c:	21 96       	adiw	r28, 0x01	; 1
    556e:	f8 01       	movw	r30, r16
    5570:	01 90       	ld	r0, Z+
    5572:	00 20       	and	r0, r0
    5574:	e9 f7       	brne	.-6      	; 0x5570 <USART3_SendString+0x20>
    5576:	31 97       	sbiw	r30, 0x01	; 1
    5578:	e0 1b       	sub	r30, r16
    557a:	f1 0b       	sbc	r31, r17
    557c:	ce 17       	cp	r28, r30
    557e:	df 07       	cpc	r29, r31
    5580:	78 f3       	brcs	.-34     	; 0x5560 <USART3_SendString+0x10>
}
    5582:	df 91       	pop	r29
    5584:	cf 91       	pop	r28
    5586:	1f 91       	pop	r17
    5588:	0f 91       	pop	r16
    558a:	08 95       	ret

0000558c <Rx3_Buff_Clear>:

//-------------------------------------------------------------------------------------------------
void Rx3_Buff_Clear(void)						// Rx3 Buffer Clear
{
	memset(Rx3_Buff, 0, RX3_SIZE);					// Rx3_Buff ł¶ Rx3_SIZE(250)łłŇ≠ 0ņł∑ő √ Ī‚»≠
    558c:	8a ef       	ldi	r24, 0xFA	; 250
    558e:	e7 ec       	ldi	r30, 0xC7	; 199
    5590:	fb e4       	ldi	r31, 0x4B	; 75
    5592:	df 01       	movw	r26, r30
    5594:	1d 92       	st	X+, r1
    5596:	8a 95       	dec	r24
    5598:	e9 f7       	brne	.-6      	; 0x5594 <Rx3_Buff_Clear+0x8>
	Rx3_Cnt = 0;							// Rx3 Data Count √ Ī‚»≠
    559a:	10 92 b0 4b 	sts	0x4BB0, r1	; 0x804bb0 <Rx3_Cnt>
    559e:	08 95       	ret

000055a0 <WDT_init>:
    55a0:	4a e0       	ldi	r20, 0x0A	; 10
    55a2:	68 ed       	ldi	r22, 0xD8	; 216
    55a4:	80 e0       	ldi	r24, 0x00	; 0
    55a6:	91 e0       	ldi	r25, 0x01	; 1
    55a8:	0e 94 9f 26 	call	0x4d3e	; 0x4d3e <protected_write_io>
    55ac:	80 e0       	ldi	r24, 0x00	; 0
    55ae:	08 95       	ret

000055b0 <ZigBee_Write_id>:
int CH[15] = {0x3043, 0x3044, 0x3045, 0x3046, 0x3130, 0x3131, 0x3132, 0x3133, 0x3134, 0x3135, 0x3136, 0x3137, 0x3138, 0x3139, 0x3140};
//ŃŲĪ◊ļŮ √§≥ő{    0C,     0D,     0E,     0F,     10,     11,     12,     13,     14,     15,     16,     17,     18,     19,     1A}

//=================================================================================================
void ZigBee_Write_id(void)							// ZigBee PanID ņķņŚ
{
    55b0:	cf 93       	push	r28
	uint8_t zbid_write = 0;							// zbid_write ļĮľŲ √ Ī‚»≠
    55b2:	c0 e0       	ldi	r28, 0x00	; 0

	do{
		switch(zbid_write)						// zbid_write
    55b4:	c1 30       	cpi	r28, 0x01	; 1
    55b6:	a1 f0       	breq	.+40     	; 0x55e0 <ZigBee_Write_id+0x30>
    55b8:	28 f0       	brcs	.+10     	; 0x55c4 <ZigBee_Write_id+0x14>
    55ba:	c2 30       	cpi	r28, 0x02	; 2
    55bc:	69 f1       	breq	.+90     	; 0x5618 <ZigBee_Write_id+0x68>
    55be:	c3 30       	cpi	r28, 0x03	; 3
    55c0:	81 f1       	breq	.+96     	; 0x5622 <ZigBee_Write_id+0x72>
    55c2:	33 c0       	rjmp	.+102    	; 0x562a <ZigBee_Write_id+0x7a>
		{
			case 0:							// zbch_wite = 0 ņŐłť
				USART3_SendString("+++");			// USART3 Ņ° +++ ņŁľŘ
    55c4:	84 e5       	ldi	r24, 0x54	; 84
    55c6:	91 e4       	ldi	r25, 0x41	; 65
    55c8:	0e 94 a8 2a 	call	0x5550	; 0x5550 <USART3_SendString>
    55cc:	2f ef       	ldi	r18, 0xFF	; 255
    55ce:	8f ef       	ldi	r24, 0xFF	; 255
    55d0:	9c e2       	ldi	r25, 0x2C	; 44
    55d2:	21 50       	subi	r18, 0x01	; 1
    55d4:	80 40       	sbci	r24, 0x00	; 0
    55d6:	90 40       	sbci	r25, 0x00	; 0
    55d8:	e1 f7       	brne	.-8      	; 0x55d2 <ZigBee_Write_id+0x22>
    55da:	00 c0       	rjmp	.+0      	; 0x55dc <ZigBee_Write_id+0x2c>
    55dc:	00 00       	nop
    55de:	25 c0       	rjmp	.+74     	; 0x562a <ZigBee_Write_id+0x7a>
				_delay_ms(1000);				// ZigBee √÷√  īšļĮ Ĺ√į£ 1√  Delay
			break;

			case 1:							// zbch_wite = 1 ņŐłť
				USART3_SendString("ATID");			// USART3 Ņ° ATCH ņŁľŘ
    55e0:	88 e5       	ldi	r24, 0x58	; 88
    55e2:	91 e4       	ldi	r25, 0x41	; 65
    55e4:	0e 94 a8 2a 	call	0x5550	; 0x5550 <USART3_SendString>
				USART3_Write(Pan_id_1000 + 0x30);		// USART3 Ņ° Pan ID 2Byte Ľůņß ņŁľŘ
    55e8:	80 91 89 4b 	lds	r24, 0x4B89	; 0x804b89 <Pan_id_1000>
    55ec:	80 5d       	subi	r24, 0xD0	; 208
    55ee:	0e 94 9f 2a 	call	0x553e	; 0x553e <USART3_Write>
				USART3_Write(Pan_id_100 + 0x30);		// USART3 Ņ° Pan ID 2Byte «Ōņß ņŁľŘ
    55f2:	80 91 af 41 	lds	r24, 0x41AF	; 0x8041af <Pan_id_100>
    55f6:	80 5d       	subi	r24, 0xD0	; 208
    55f8:	0e 94 9f 2a 	call	0x553e	; 0x553e <USART3_Write>
				USART3_Write(Pan_id_10 + 0x30);			// USART3 Ņ° Pan ID 1Byte Ľůņß ņŁľŘ
    55fc:	80 91 46 4b 	lds	r24, 0x4B46	; 0x804b46 <Pan_id_10>
    5600:	80 5d       	subi	r24, 0xD0	; 208
    5602:	0e 94 9f 2a 	call	0x553e	; 0x553e <USART3_Write>
				USART3_Write(Pan_id_1 + 0x30);			// USART3 Ņ° Pan ID 1Byte «Ōņß ņŁľŘ
    5606:	80 91 21 4b 	lds	r24, 0x4B21	; 0x804b21 <Pan_id_1>
    560a:	80 5d       	subi	r24, 0xD0	; 208
    560c:	0e 94 9f 2a 	call	0x553e	; 0x553e <USART3_Write>
				USART3_Write('\r');				// USART3 Ņ° \r
    5610:	8d e0       	ldi	r24, 0x0D	; 13
    5612:	0e 94 9f 2a 	call	0x553e	; 0x553e <USART3_Write>
			break;
    5616:	09 c0       	rjmp	.+18     	; 0x562a <ZigBee_Write_id+0x7a>

			case 2:							// zbch_wite = 2 ņŐłť
				USART3_SendString("ATWR\r");			// USART3 Ņ° ATWR\r ņŁľŘ
    5618:	8d e5       	ldi	r24, 0x5D	; 93
    561a:	91 e4       	ldi	r25, 0x41	; 65
    561c:	0e 94 a8 2a 	call	0x5550	; 0x5550 <USART3_SendString>
			break;
    5620:	04 c0       	rjmp	.+8      	; 0x562a <ZigBee_Write_id+0x7a>

			case 3:							// zbch_wite = 3 ņŐłť
				USART3_SendString("ATCN\r");			// USART3 Ņ° ATCN\r ņŁľŘ
    5622:	83 e6       	ldi	r24, 0x63	; 99
    5624:	91 e4       	ldi	r25, 0x41	; 65
    5626:	0e 94 a8 2a 	call	0x5550	; 0x5550 <USART3_SendString>
			break;
		}
//-------------------------------------------------------------------------------------------------
		for(uint8_t cnt = 0; cnt < RX3_SIZE; cnt++)			// RX3_SIZE łłŇ≠ Ļ›ļĻ
    562a:	80 e0       	ldi	r24, 0x00	; 0
    562c:	9d c0       	rjmp	.+314    	; 0x5768 <ZigBee_Write_id+0x1b8>
		{
			if(zbid_write == 0 && Rx3_Buff[cnt] == 'O' && Rx3_Buff[cnt + 1] == 'K' && Rx3_Buff[cnt + 2] == 0x0d)
    562e:	c1 11       	cpse	r28, r1
    5630:	25 c0       	rjmp	.+74     	; 0x567c <ZigBee_Write_id+0xcc>
    5632:	28 2f       	mov	r18, r24
    5634:	30 e0       	ldi	r19, 0x00	; 0
    5636:	f9 01       	movw	r30, r18
    5638:	e9 53       	subi	r30, 0x39	; 57
    563a:	f4 4b       	sbci	r31, 0xB4	; 180
    563c:	90 81       	ld	r25, Z
    563e:	9f 34       	cpi	r25, 0x4F	; 79
    5640:	e9 f4       	brne	.+58     	; 0x567c <ZigBee_Write_id+0xcc>
    5642:	f9 01       	movw	r30, r18
    5644:	e8 53       	subi	r30, 0x38	; 56
    5646:	f4 4b       	sbci	r31, 0xB4	; 180
    5648:	90 81       	ld	r25, Z
    564a:	9b 34       	cpi	r25, 0x4B	; 75
    564c:	b9 f4       	brne	.+46     	; 0x567c <ZigBee_Write_id+0xcc>
    564e:	f9 01       	movw	r30, r18
    5650:	e7 53       	subi	r30, 0x37	; 55
    5652:	f4 4b       	sbci	r31, 0xB4	; 180
    5654:	90 81       	ld	r25, Z
    5656:	9d 30       	cpi	r25, 0x0D	; 13
    5658:	89 f4       	brne	.+34     	; 0x567c <ZigBee_Write_id+0xcc>
			{							// 0+OK+CR
				zbid_write = 1;					// īšļĮ »ģņő »ń īŔņĹņł∑ő Ńűį°
				Beep(3);
    565a:	83 e0       	ldi	r24, 0x03	; 3
    565c:	90 e0       	ldi	r25, 0x00	; 0
    565e:	0e 94 3b 04 	call	0x876	; 0x876 <Beep>
    5662:	2f ef       	ldi	r18, 0xFF	; 255
    5664:	8f e3       	ldi	r24, 0x3F	; 63
    5666:	92 e0       	ldi	r25, 0x02	; 2
    5668:	21 50       	subi	r18, 0x01	; 1
    566a:	80 40       	sbci	r24, 0x00	; 0
    566c:	90 40       	sbci	r25, 0x00	; 0
    566e:	e1 f7       	brne	.-8      	; 0x5668 <ZigBee_Write_id+0xb8>
    5670:	00 c0       	rjmp	.+0      	; 0x5672 <ZigBee_Write_id+0xc2>
    5672:	00 00       	nop
				_delay_ms(50);					// ZigBee √≥łģ Ĺ√į£ »ń
				Rx3_Buff_Clear();				// Rx3 Buff Clear
    5674:	0e 94 c6 2a 	call	0x558c	; 0x558c <Rx3_Buff_Clear>
//-------------------------------------------------------------------------------------------------
		for(uint8_t cnt = 0; cnt < RX3_SIZE; cnt++)			// RX3_SIZE łłŇ≠ Ļ›ļĻ
		{
			if(zbid_write == 0 && Rx3_Buff[cnt] == 'O' && Rx3_Buff[cnt + 1] == 'K' && Rx3_Buff[cnt + 2] == 0x0d)
			{							// 0+OK+CR
				zbid_write = 1;					// īšļĮ »ģņő »ń īŔņĹņł∑ő Ńűį°
    5678:	c1 e0       	ldi	r28, 0x01	; 1
				Beep(3);
				_delay_ms(50);					// ZigBee √≥łģ Ĺ√į£ »ń
				Rx3_Buff_Clear();				// Rx3 Buff Clear
				break;
    567a:	79 c0       	rjmp	.+242    	; 0x576e <ZigBee_Write_id+0x1be>
			}

			if(zbid_write == 1 && Rx3_Buff[cnt] == 'O' && Rx3_Buff[cnt + 1] == 'K' && Rx3_Buff[cnt + 2] == 0x0d)
    567c:	c1 30       	cpi	r28, 0x01	; 1
    567e:	29 f5       	brne	.+74     	; 0x56ca <ZigBee_Write_id+0x11a>
    5680:	28 2f       	mov	r18, r24
    5682:	30 e0       	ldi	r19, 0x00	; 0
    5684:	f9 01       	movw	r30, r18
    5686:	e9 53       	subi	r30, 0x39	; 57
    5688:	f4 4b       	sbci	r31, 0xB4	; 180
    568a:	90 81       	ld	r25, Z
    568c:	9f 34       	cpi	r25, 0x4F	; 79
    568e:	e9 f4       	brne	.+58     	; 0x56ca <ZigBee_Write_id+0x11a>
    5690:	f9 01       	movw	r30, r18
    5692:	e8 53       	subi	r30, 0x38	; 56
    5694:	f4 4b       	sbci	r31, 0xB4	; 180
    5696:	90 81       	ld	r25, Z
    5698:	9b 34       	cpi	r25, 0x4B	; 75
    569a:	b9 f4       	brne	.+46     	; 0x56ca <ZigBee_Write_id+0x11a>
    569c:	f9 01       	movw	r30, r18
    569e:	e7 53       	subi	r30, 0x37	; 55
    56a0:	f4 4b       	sbci	r31, 0xB4	; 180
    56a2:	90 81       	ld	r25, Z
    56a4:	9d 30       	cpi	r25, 0x0D	; 13
    56a6:	89 f4       	brne	.+34     	; 0x56ca <ZigBee_Write_id+0x11a>
			{							// 1+OK+CR
				zbid_write = 2;					// īšļĮ »ģņő »ń īŔņĹņł∑ő Ńűį°
				Beep(3);
    56a8:	83 e0       	ldi	r24, 0x03	; 3
    56aa:	90 e0       	ldi	r25, 0x00	; 0
    56ac:	0e 94 3b 04 	call	0x876	; 0x876 <Beep>
    56b0:	2f ef       	ldi	r18, 0xFF	; 255
    56b2:	8f e3       	ldi	r24, 0x3F	; 63
    56b4:	92 e0       	ldi	r25, 0x02	; 2
    56b6:	21 50       	subi	r18, 0x01	; 1
    56b8:	80 40       	sbci	r24, 0x00	; 0
    56ba:	90 40       	sbci	r25, 0x00	; 0
    56bc:	e1 f7       	brne	.-8      	; 0x56b6 <ZigBee_Write_id+0x106>
    56be:	00 c0       	rjmp	.+0      	; 0x56c0 <ZigBee_Write_id+0x110>
    56c0:	00 00       	nop
				_delay_ms(50);					// ZigBee √≥łģ Ĺ√į£ »ń
				Rx3_Buff_Clear();				// Rx3 Buff Clear
    56c2:	0e 94 c6 2a 	call	0x558c	; 0x558c <Rx3_Buff_Clear>
				break;
			}

			if(zbid_write == 1 && Rx3_Buff[cnt] == 'O' && Rx3_Buff[cnt + 1] == 'K' && Rx3_Buff[cnt + 2] == 0x0d)
			{							// 1+OK+CR
				zbid_write = 2;					// īšļĮ »ģņő »ń īŔņĹņł∑ő Ńűį°
    56c6:	c2 e0       	ldi	r28, 0x02	; 2
				Beep(3);
				_delay_ms(50);					// ZigBee √≥łģ Ĺ√į£ »ń
				Rx3_Buff_Clear();				// Rx3 Buff Clear
				break;
    56c8:	52 c0       	rjmp	.+164    	; 0x576e <ZigBee_Write_id+0x1be>
			}

			if(zbid_write == 2 && Rx3_Buff[cnt] == 'O' && Rx3_Buff[cnt + 1] == 'K' && Rx3_Buff[cnt + 2] == 0x0d)
    56ca:	c2 30       	cpi	r28, 0x02	; 2
    56cc:	29 f5       	brne	.+74     	; 0x5718 <ZigBee_Write_id+0x168>
    56ce:	28 2f       	mov	r18, r24
    56d0:	30 e0       	ldi	r19, 0x00	; 0
    56d2:	f9 01       	movw	r30, r18
    56d4:	e9 53       	subi	r30, 0x39	; 57
    56d6:	f4 4b       	sbci	r31, 0xB4	; 180
    56d8:	90 81       	ld	r25, Z
    56da:	9f 34       	cpi	r25, 0x4F	; 79
    56dc:	e9 f4       	brne	.+58     	; 0x5718 <ZigBee_Write_id+0x168>
    56de:	f9 01       	movw	r30, r18
    56e0:	e8 53       	subi	r30, 0x38	; 56
    56e2:	f4 4b       	sbci	r31, 0xB4	; 180
    56e4:	90 81       	ld	r25, Z
    56e6:	9b 34       	cpi	r25, 0x4B	; 75
    56e8:	b9 f4       	brne	.+46     	; 0x5718 <ZigBee_Write_id+0x168>
    56ea:	f9 01       	movw	r30, r18
    56ec:	e7 53       	subi	r30, 0x37	; 55
    56ee:	f4 4b       	sbci	r31, 0xB4	; 180
    56f0:	90 81       	ld	r25, Z
    56f2:	9d 30       	cpi	r25, 0x0D	; 13
    56f4:	89 f4       	brne	.+34     	; 0x5718 <ZigBee_Write_id+0x168>
			{							// 2+OK+CR
				zbid_write = 3;					// īšļĮ »ģņő »ń īŔņĹņł∑ő Ńűį°
				Beep(3);
    56f6:	83 e0       	ldi	r24, 0x03	; 3
    56f8:	90 e0       	ldi	r25, 0x00	; 0
    56fa:	0e 94 3b 04 	call	0x876	; 0x876 <Beep>
    56fe:	2f ef       	ldi	r18, 0xFF	; 255
    5700:	8f e3       	ldi	r24, 0x3F	; 63
    5702:	92 e0       	ldi	r25, 0x02	; 2
    5704:	21 50       	subi	r18, 0x01	; 1
    5706:	80 40       	sbci	r24, 0x00	; 0
    5708:	90 40       	sbci	r25, 0x00	; 0
    570a:	e1 f7       	brne	.-8      	; 0x5704 <ZigBee_Write_id+0x154>
    570c:	00 c0       	rjmp	.+0      	; 0x570e <ZigBee_Write_id+0x15e>
    570e:	00 00       	nop
				_delay_ms(50);					// ZigBee √≥łģ Ĺ√į£ »ń
				Rx3_Buff_Clear();				// Rx3 Buff Clear
    5710:	0e 94 c6 2a 	call	0x558c	; 0x558c <Rx3_Buff_Clear>
				break;
			}

			if(zbid_write == 2 && Rx3_Buff[cnt] == 'O' && Rx3_Buff[cnt + 1] == 'K' && Rx3_Buff[cnt + 2] == 0x0d)
			{							// 2+OK+CR
				zbid_write = 3;					// īšļĮ »ģņő »ń īŔņĹņł∑ő Ńűį°
    5714:	c3 e0       	ldi	r28, 0x03	; 3
				Beep(3);
				_delay_ms(50);					// ZigBee √≥łģ Ĺ√į£ »ń
				Rx3_Buff_Clear();				// Rx3 Buff Clear
				break;
    5716:	2b c0       	rjmp	.+86     	; 0x576e <ZigBee_Write_id+0x1be>
			}

			if(zbid_write == 3 && Rx3_Buff[cnt] == 'O' && Rx3_Buff[cnt + 1] == 'K' && Rx3_Buff[cnt + 2] == 0x0d)
    5718:	c3 30       	cpi	r28, 0x03	; 3
    571a:	29 f5       	brne	.+74     	; 0x5766 <ZigBee_Write_id+0x1b6>
    571c:	28 2f       	mov	r18, r24
    571e:	30 e0       	ldi	r19, 0x00	; 0
    5720:	f9 01       	movw	r30, r18
    5722:	e9 53       	subi	r30, 0x39	; 57
    5724:	f4 4b       	sbci	r31, 0xB4	; 180
    5726:	90 81       	ld	r25, Z
    5728:	9f 34       	cpi	r25, 0x4F	; 79
    572a:	e9 f4       	brne	.+58     	; 0x5766 <ZigBee_Write_id+0x1b6>
    572c:	f9 01       	movw	r30, r18
    572e:	e8 53       	subi	r30, 0x38	; 56
    5730:	f4 4b       	sbci	r31, 0xB4	; 180
    5732:	90 81       	ld	r25, Z
    5734:	9b 34       	cpi	r25, 0x4B	; 75
    5736:	b9 f4       	brne	.+46     	; 0x5766 <ZigBee_Write_id+0x1b6>
    5738:	f9 01       	movw	r30, r18
    573a:	e7 53       	subi	r30, 0x37	; 55
    573c:	f4 4b       	sbci	r31, 0xB4	; 180
    573e:	90 81       	ld	r25, Z
    5740:	9d 30       	cpi	r25, 0x0D	; 13
    5742:	89 f4       	brne	.+34     	; 0x5766 <ZigBee_Write_id+0x1b6>
			{							// 3+OK+CR
				zbid_write = 5;					// īšļĮ »ģņő »ń While()Ļģ Ńĺ∑Š
				Beep(3);
    5744:	83 e0       	ldi	r24, 0x03	; 3
    5746:	90 e0       	ldi	r25, 0x00	; 0
    5748:	0e 94 3b 04 	call	0x876	; 0x876 <Beep>
    574c:	2f ef       	ldi	r18, 0xFF	; 255
    574e:	8f e3       	ldi	r24, 0x3F	; 63
    5750:	92 e0       	ldi	r25, 0x02	; 2
    5752:	21 50       	subi	r18, 0x01	; 1
    5754:	80 40       	sbci	r24, 0x00	; 0
    5756:	90 40       	sbci	r25, 0x00	; 0
    5758:	e1 f7       	brne	.-8      	; 0x5752 <ZigBee_Write_id+0x1a2>
    575a:	00 c0       	rjmp	.+0      	; 0x575c <ZigBee_Write_id+0x1ac>
    575c:	00 00       	nop
				_delay_ms(50);					// ZigBee √≥łģ Ĺ√į£ »ń
				Rx3_Buff_Clear();				// Rx3 Buff Clear
    575e:	0e 94 c6 2a 	call	0x558c	; 0x558c <Rx3_Buff_Clear>
				break;
			}

			if(zbid_write == 3 && Rx3_Buff[cnt] == 'O' && Rx3_Buff[cnt + 1] == 'K' && Rx3_Buff[cnt + 2] == 0x0d)
			{							// 3+OK+CR
				zbid_write = 5;					// īšļĮ »ģņő »ń While()Ļģ Ńĺ∑Š
    5762:	c5 e0       	ldi	r28, 0x05	; 5
				Beep(3);
				_delay_ms(50);					// ZigBee √≥łģ Ĺ√į£ »ń
				Rx3_Buff_Clear();				// Rx3 Buff Clear
				break;
    5764:	04 c0       	rjmp	.+8      	; 0x576e <ZigBee_Write_id+0x1be>
			case 3:							// zbch_wite = 3 ņŐłť
				USART3_SendString("ATCN\r");			// USART3 Ņ° ATCN\r ņŁľŘ
			break;
		}
//-------------------------------------------------------------------------------------------------
		for(uint8_t cnt = 0; cnt < RX3_SIZE; cnt++)			// RX3_SIZE łłŇ≠ Ļ›ļĻ
    5766:	8f 5f       	subi	r24, 0xFF	; 255
    5768:	8a 3f       	cpi	r24, 0xFA	; 250
    576a:	08 f4       	brcc	.+2      	; 0x576e <ZigBee_Write_id+0x1be>
    576c:	60 cf       	rjmp	.-320    	; 0x562e <ZigBee_Write_id+0x7e>
				_delay_ms(50);					// ZigBee √≥łģ Ĺ√į£ »ń
				Rx3_Buff_Clear();				// Rx3 Buff Clear
				break;
			}
		}
		wdt_reset();							// ŅŲń°Ķ∂ łģľ¬
    576e:	0e 94 17 0d 	call	0x1a2e	; 0x1a2e <wdt_reset>
	}while(zbid_write != 5);						// zbid_write į° 5 ņŌ∂ß ĪÓŃŲ Ļ›ļĻ
    5772:	c5 30       	cpi	r28, 0x05	; 5
    5774:	09 f0       	breq	.+2      	; 0x5778 <ZigBee_Write_id+0x1c8>
    5776:	1e cf       	rjmp	.-452    	; 0x55b4 <ZigBee_Write_id+0x4>
}
    5778:	cf 91       	pop	r28
    577a:	08 95       	ret

0000577c <ZigBee_PanID_Write>:

//=================================================================================================
void ZigBee_PanID_Write(void)							// ZigBee PanID ľ≥Ń§
{
    577c:	6f 92       	push	r6
    577e:	7f 92       	push	r7
    5780:	8f 92       	push	r8
    5782:	9f 92       	push	r9
    5784:	bf 92       	push	r11
    5786:	cf 92       	push	r12
    5788:	df 92       	push	r13
    578a:	ef 92       	push	r14
    578c:	ff 92       	push	r15
    578e:	0f 93       	push	r16
    5790:	1f 93       	push	r17
    5792:	cf 93       	push	r28
    5794:	df 93       	push	r29
	uint8_t digit_5, digit_4, digit_3, digit_2, digit_1;			// digit ļĮľŲ √ Ī‚»≠

	FND_Value_Data(1, 2, 12);						// FND 0 ~ 2 FND_OFF
    5796:	4c e0       	ldi	r20, 0x0C	; 12
    5798:	62 e0       	ldi	r22, 0x02	; 2
    579a:	81 e0       	ldi	r24, 0x01	; 1
    579c:	0e 94 c3 05 	call	0xb86	; 0xb86 <FND_Value_Data>

	digit_5 = ZB_id / 10000;						// ZigBee PanID 10000ņ« ņŕłģ
    57a0:	80 90 a2 4b 	lds	r8, 0x4BA2	; 0x804ba2 <ZB_id>
    57a4:	90 90 a3 4b 	lds	r9, 0x4BA3	; 0x804ba3 <ZB_id+0x1>
    57a8:	94 01       	movw	r18, r8
    57aa:	32 95       	swap	r19
    57ac:	22 95       	swap	r18
    57ae:	2f 70       	andi	r18, 0x0F	; 15
    57b0:	23 27       	eor	r18, r19
    57b2:	3f 70       	andi	r19, 0x0F	; 15
    57b4:	23 27       	eor	r18, r19
    57b6:	a7 e4       	ldi	r26, 0x47	; 71
    57b8:	b3 e0       	ldi	r27, 0x03	; 3
    57ba:	0e 94 af 38 	call	0x715e	; 0x715e <__umulhisi3>
    57be:	6c 01       	movw	r12, r24
    57c0:	d6 94       	lsr	r13
    57c2:	c7 94       	ror	r12
    57c4:	d6 94       	lsr	r13
    57c6:	c7 94       	ror	r12
    57c8:	d6 94       	lsr	r13
    57ca:	c7 94       	ror	r12
    57cc:	dc 2d       	mov	r29, r12
	digit_4 = ZB_id % 10000 / 1000;						// ZigBee PanID  1000ņ« ņŕłģ
    57ce:	20 e1       	ldi	r18, 0x10	; 16
    57d0:	37 e2       	ldi	r19, 0x27	; 39
    57d2:	c2 9e       	mul	r12, r18
    57d4:	c0 01       	movw	r24, r0
    57d6:	c3 9e       	mul	r12, r19
    57d8:	90 0d       	add	r25, r0
    57da:	d2 9e       	mul	r13, r18
    57dc:	90 0d       	add	r25, r0
    57de:	11 24       	eor	r1, r1
    57e0:	94 01       	movw	r18, r8
    57e2:	28 1b       	sub	r18, r24
    57e4:	39 0b       	sbc	r19, r25
    57e6:	36 95       	lsr	r19
    57e8:	27 95       	ror	r18
    57ea:	36 95       	lsr	r19
    57ec:	27 95       	ror	r18
    57ee:	36 95       	lsr	r19
    57f0:	27 95       	ror	r18
    57f2:	a5 ec       	ldi	r26, 0xC5	; 197
    57f4:	b0 e2       	ldi	r27, 0x20	; 32
    57f6:	0e 94 af 38 	call	0x715e	; 0x715e <__umulhisi3>
    57fa:	7c 01       	movw	r14, r24
    57fc:	f6 94       	lsr	r15
    57fe:	e7 94       	ror	r14
    5800:	f6 94       	lsr	r15
    5802:	e7 94       	ror	r14
    5804:	f6 94       	lsr	r15
    5806:	e7 94       	ror	r14
    5808:	f6 94       	lsr	r15
    580a:	e7 94       	ror	r14
    580c:	be 2c       	mov	r11, r14
	digit_3 = ZB_id % 1000 / 100;						// ZigBee PanID   100ņ« ņŕłģ
    580e:	94 01       	movw	r18, r8
    5810:	36 95       	lsr	r19
    5812:	27 95       	ror	r18
    5814:	36 95       	lsr	r19
    5816:	27 95       	ror	r18
    5818:	36 95       	lsr	r19
    581a:	27 95       	ror	r18
    581c:	0e 94 af 38 	call	0x715e	; 0x715e <__umulhisi3>
    5820:	92 95       	swap	r25
    5822:	82 95       	swap	r24
    5824:	8f 70       	andi	r24, 0x0F	; 15
    5826:	89 27       	eor	r24, r25
    5828:	9f 70       	andi	r25, 0x0F	; 15
    582a:	89 27       	eor	r24, r25
    582c:	48 ee       	ldi	r20, 0xE8	; 232
    582e:	53 e0       	ldi	r21, 0x03	; 3
    5830:	84 9f       	mul	r24, r20
    5832:	90 01       	movw	r18, r0
    5834:	85 9f       	mul	r24, r21
    5836:	30 0d       	add	r19, r0
    5838:	94 9f       	mul	r25, r20
    583a:	30 0d       	add	r19, r0
    583c:	11 24       	eor	r1, r1
    583e:	c4 01       	movw	r24, r8
    5840:	82 1b       	sub	r24, r18
    5842:	93 0b       	sbc	r25, r19
    5844:	9c 01       	movw	r18, r24
    5846:	36 95       	lsr	r19
    5848:	27 95       	ror	r18
    584a:	36 95       	lsr	r19
    584c:	27 95       	ror	r18
    584e:	ab e7       	ldi	r26, 0x7B	; 123
    5850:	b4 e1       	ldi	r27, 0x14	; 20
    5852:	0e 94 af 38 	call	0x715e	; 0x715e <__umulhisi3>
    5856:	3c 01       	movw	r6, r24
    5858:	76 94       	lsr	r7
    585a:	67 94       	ror	r6
    585c:	06 2d       	mov	r16, r6
	digit_2 = ZB_id % 100 / 10;						// ZigBee PanID    10ņ« ņŕłģ
    585e:	94 01       	movw	r18, r8
    5860:	36 95       	lsr	r19
    5862:	27 95       	ror	r18
    5864:	36 95       	lsr	r19
    5866:	27 95       	ror	r18
    5868:	0e 94 af 38 	call	0x715e	; 0x715e <__umulhisi3>
    586c:	9c 01       	movw	r18, r24
    586e:	36 95       	lsr	r19
    5870:	27 95       	ror	r18
    5872:	44 e6       	ldi	r20, 0x64	; 100
    5874:	42 9f       	mul	r20, r18
    5876:	c0 01       	movw	r24, r0
    5878:	43 9f       	mul	r20, r19
    587a:	90 0d       	add	r25, r0
    587c:	11 24       	eor	r1, r1
    587e:	94 01       	movw	r18, r8
    5880:	28 1b       	sub	r18, r24
    5882:	39 0b       	sbc	r19, r25
    5884:	ad ec       	ldi	r26, 0xCD	; 205
    5886:	bc ec       	ldi	r27, 0xCC	; 204
    5888:	0e 94 af 38 	call	0x715e	; 0x715e <__umulhisi3>
    588c:	ac 01       	movw	r20, r24
    588e:	56 95       	lsr	r21
    5890:	47 95       	ror	r20
    5892:	56 95       	lsr	r21
    5894:	47 95       	ror	r20
    5896:	56 95       	lsr	r21
    5898:	47 95       	ror	r20
    589a:	c4 2f       	mov	r28, r20
	digit_1 = ZB_id % 10;							// ZigBee PanID     1ņ« ņŕłģ
    589c:	94 01       	movw	r18, r8
    589e:	0e 94 af 38 	call	0x715e	; 0x715e <__umulhisi3>
    58a2:	96 95       	lsr	r25
    58a4:	87 95       	ror	r24
    58a6:	96 95       	lsr	r25
    58a8:	87 95       	ror	r24
    58aa:	96 95       	lsr	r25
    58ac:	87 95       	ror	r24
    58ae:	9c 01       	movw	r18, r24
    58b0:	22 0f       	add	r18, r18
    58b2:	33 1f       	adc	r19, r19
    58b4:	88 0f       	add	r24, r24
    58b6:	99 1f       	adc	r25, r25
    58b8:	88 0f       	add	r24, r24
    58ba:	99 1f       	adc	r25, r25
    58bc:	88 0f       	add	r24, r24
    58be:	99 1f       	adc	r25, r25
    58c0:	82 0f       	add	r24, r18
    58c2:	93 1f       	adc	r25, r19
    58c4:	94 01       	movw	r18, r8
    58c6:	28 1b       	sub	r18, r24
    58c8:	39 0b       	sbc	r19, r25
    58ca:	c9 01       	movw	r24, r18
    58cc:	12 2f       	mov	r17, r18

	DIGIT[1][3] = fnd_tbl[digit_5];						// ZigBee PanID 10000ņ« ņŕłģ «•Ĺ√
    58ce:	d6 01       	movw	r26, r12
    58d0:	a9 5b       	subi	r26, 0xB9	; 185
    58d2:	be 4b       	sbci	r27, 0xBE	; 190
    58d4:	2c 91       	ld	r18, X
    58d6:	ad e7       	ldi	r26, 0x7D	; 125
    58d8:	b1 e4       	ldi	r27, 0x41	; 65
    58da:	17 96       	adiw	r26, 0x07	; 7
    58dc:	2c 93       	st	X, r18
    58de:	17 97       	sbiw	r26, 0x07	; 7
	DIGIT[1][2] = fnd_tbl[digit_4];						// ZigBee PanID  1000ņ« ņŕłģ «•Ĺ√
    58e0:	97 01       	movw	r18, r14
    58e2:	33 27       	eor	r19, r19
    58e4:	29 5b       	subi	r18, 0xB9	; 185
    58e6:	3e 4b       	sbci	r19, 0xBE	; 190
    58e8:	f9 01       	movw	r30, r18
    58ea:	20 81       	ld	r18, Z
    58ec:	16 96       	adiw	r26, 0x06	; 6
    58ee:	2c 93       	st	X, r18
    58f0:	16 97       	sbiw	r26, 0x06	; 6
	DIGIT[1][1] = fnd_tbl[digit_3];						// ZigBee PanID   100ņ« ņŕłģ «•Ĺ√
    58f2:	f3 01       	movw	r30, r6
    58f4:	ff 27       	eor	r31, r31
    58f6:	e9 5b       	subi	r30, 0xB9	; 185
    58f8:	fe 4b       	sbci	r31, 0xBE	; 190
    58fa:	20 81       	ld	r18, Z
    58fc:	15 96       	adiw	r26, 0x05	; 5
    58fe:	2c 93       	st	X, r18
    5900:	15 97       	sbiw	r26, 0x05	; 5
	DIGIT[1][0] = fnd_tbl[digit_2];						// ZigBee PanID    10ņ« ņŕłģ «•Ĺ√
    5902:	55 27       	eor	r21, r21
    5904:	fa 01       	movw	r30, r20
    5906:	e9 5b       	subi	r30, 0xB9	; 185
    5908:	fe 4b       	sbci	r31, 0xBE	; 190
    590a:	20 81       	ld	r18, Z
    590c:	14 96       	adiw	r26, 0x04	; 4
    590e:	2c 93       	st	X, r18
    5910:	14 97       	sbiw	r26, 0x04	; 4

	DIGIT[2][3] = fnd_tbl[digit_1];						// ZigBee PanID     1ņ« ņŕłģ «•Ĺ√
    5912:	99 27       	eor	r25, r25
    5914:	fc 01       	movw	r30, r24
    5916:	e9 5b       	subi	r30, 0xB9	; 185
    5918:	fe 4b       	sbci	r31, 0xBE	; 190
    591a:	80 81       	ld	r24, Z
    591c:	1b 96       	adiw	r26, 0x0b	; 11
    591e:	8c 93       	st	X, r24

	while(SET.Menu)								// łřīļłūĶŚ ņŐłť Ļ›ļĻ
    5920:	77 c1       	rjmp	.+750    	; 0x5c10 <ZigBee_PanID_Write+0x494>
	{
		SET.Blink = 1;							// ņŕłīľŲ ĪŰĻŕņ” ľ≥Ń§
    5922:	81 e0       	ldi	r24, 0x01	; 1
    5924:	80 93 4b 4b 	sts	0x4B4B, r24	; 0x804b4b <SET+0x3>

		switch(KEY.Count)						// ľĪŇ√ Key į° ī≠łį»ĹľŲ
    5928:	80 91 8c 4b 	lds	r24, 0x4B8C	; 0x804b8c <KEY>
    592c:	82 30       	cpi	r24, 0x02	; 2
    592e:	09 f4       	brne	.+2      	; 0x5932 <ZigBee_PanID_Write+0x1b6>
    5930:	89 c0       	rjmp	.+274    	; 0x5a44 <ZigBee_PanID_Write+0x2c8>
    5932:	28 f4       	brcc	.+10     	; 0x593e <ZigBee_PanID_Write+0x1c2>
    5934:	88 23       	and	r24, r24
    5936:	61 f0       	breq	.+24     	; 0x5950 <ZigBee_PanID_Write+0x1d4>
    5938:	81 30       	cpi	r24, 0x01	; 1
    593a:	d1 f1       	breq	.+116    	; 0x59b0 <ZigBee_PanID_Write+0x234>
    593c:	67 c1       	rjmp	.+718    	; 0x5c0c <ZigBee_PanID_Write+0x490>
    593e:	84 30       	cpi	r24, 0x04	; 4
    5940:	09 f4       	brne	.+2      	; 0x5944 <ZigBee_PanID_Write+0x1c8>
    5942:	18 c1       	rjmp	.+560    	; 0x5b74 <ZigBee_PanID_Write+0x3f8>
    5944:	08 f4       	brcc	.+2      	; 0x5948 <ZigBee_PanID_Write+0x1cc>
    5946:	c9 c0       	rjmp	.+402    	; 0x5ada <ZigBee_PanID_Write+0x35e>
    5948:	85 30       	cpi	r24, 0x05	; 5
    594a:	09 f4       	brne	.+2      	; 0x594e <ZigBee_PanID_Write+0x1d2>
    594c:	5d c1       	rjmp	.+698    	; 0x5c08 <ZigBee_PanID_Write+0x48c>
    594e:	5e c1       	rjmp	.+700    	; 0x5c0c <ZigBee_PanID_Write+0x490>
		{
//-------------------------------------------------------------------------------------------------
			case 0:							// ZigBee PanID 10000ņ« ņŕłģ
				DIGIT[2][3] = fnd_tbl[digit_1];			// ZigBee PanID     1ņ« ņŕłģ «•Ĺ√
    5950:	e1 2f       	mov	r30, r17
    5952:	f0 e0       	ldi	r31, 0x00	; 0
    5954:	e9 5b       	subi	r30, 0xB9	; 185
    5956:	fe 4b       	sbci	r31, 0xBE	; 190
    5958:	80 81       	ld	r24, Z
    595a:	80 93 88 41 	sts	0x4188, r24	; 0x804188 <DIGIT+0xb>
				if(Blink) {DIGIT[1][3] = FND_OFF;}		// Blink = 1 ņŐłť ZigBee PanID 10000ņ« ņŕłģ OFF
    595e:	80 91 b9 4b 	lds	r24, 0x4BB9	; 0x804bb9 <Blink>
    5962:	88 23       	and	r24, r24
    5964:	19 f0       	breq	.+6      	; 0x596c <ZigBee_PanID_Write+0x1f0>
    5966:	10 92 84 41 	sts	0x4184, r1	; 0x804184 <DIGIT+0x7>
    596a:	07 c0       	rjmp	.+14     	; 0x597a <ZigBee_PanID_Write+0x1fe>
				else	  {DIGIT[1][3] = fnd_tbl[digit_5];}	// Blink = 0 ņŐłť ZigBee PanID 10000ņ« ņŕłģ «•Ĺ√
    596c:	ed 2f       	mov	r30, r29
    596e:	f0 e0       	ldi	r31, 0x00	; 0
    5970:	e9 5b       	subi	r30, 0xB9	; 185
    5972:	fe 4b       	sbci	r31, 0xBE	; 190
    5974:	80 81       	ld	r24, Z
    5976:	80 93 84 41 	sts	0x4184, r24	; 0x804184 <DIGIT+0x7>

				if(KEY.Buff)					// Key ņ‘∑¬ņŐ ņ÷ņłłť
    597a:	80 91 8d 4b 	lds	r24, 0x4B8D	; 0x804b8d <KEY+0x1>
    597e:	88 23       	and	r24, r24
    5980:	09 f4       	brne	.+2      	; 0x5984 <ZigBee_PanID_Write+0x208>
    5982:	44 c1       	rjmp	.+648    	; 0x5c0c <ZigBee_PanID_Write+0x490>
				{
					if     (KEY.Key == 1 && digit_5 < 6) {digit_5++; KEY.Key = 0;}	// ĺų  ĻŲ∆į ņŐłť ZigBee PanID 10000ņ« ņŕłģ Ńűį°
    5984:	80 91 8e 4b 	lds	r24, 0x4B8E	; 0x804b8e <KEY+0x2>
    5988:	81 30       	cpi	r24, 0x01	; 1
    598a:	31 f4       	brne	.+12     	; 0x5998 <ZigBee_PanID_Write+0x21c>
    598c:	d6 30       	cpi	r29, 0x06	; 6
    598e:	20 f4       	brcc	.+8      	; 0x5998 <ZigBee_PanID_Write+0x21c>
    5990:	df 5f       	subi	r29, 0xFF	; 255
    5992:	10 92 8e 4b 	sts	0x4B8E, r1	; 0x804b8e <KEY+0x2>
    5996:	3a c1       	rjmp	.+628    	; 0x5c0c <ZigBee_PanID_Write+0x490>
					else if(KEY.Key == 3 && digit_5 > 0) {digit_5--; KEY.Key = 0;}	// īŔŅÓĻŲ∆į ņŐłť ZigBee PanID 10000ņ« ņŕłģ į®ľ“
    5998:	80 91 8e 4b 	lds	r24, 0x4B8E	; 0x804b8e <KEY+0x2>
    599c:	83 30       	cpi	r24, 0x03	; 3
    599e:	09 f0       	breq	.+2      	; 0x59a2 <ZigBee_PanID_Write+0x226>
    59a0:	35 c1       	rjmp	.+618    	; 0x5c0c <ZigBee_PanID_Write+0x490>
    59a2:	dd 23       	and	r29, r29
    59a4:	09 f4       	brne	.+2      	; 0x59a8 <ZigBee_PanID_Write+0x22c>
    59a6:	32 c1       	rjmp	.+612    	; 0x5c0c <ZigBee_PanID_Write+0x490>
    59a8:	d1 50       	subi	r29, 0x01	; 1
    59aa:	10 92 8e 4b 	sts	0x4B8E, r1	; 0x804b8e <KEY+0x2>
    59ae:	2e c1       	rjmp	.+604    	; 0x5c0c <ZigBee_PanID_Write+0x490>
				}
			break;
//-------------------------------------------------------------------------------------------------
			case 1:							// ZigBee PanID 1000ņ« ņŕłģ
				DIGIT[1][3] = fnd_tbl[digit_5];			// ZigBee PanID 10000ņ« ņŕłģ «•Ĺ√
    59b0:	ed 2f       	mov	r30, r29
    59b2:	f0 e0       	ldi	r31, 0x00	; 0
    59b4:	e9 5b       	subi	r30, 0xB9	; 185
    59b6:	fe 4b       	sbci	r31, 0xBE	; 190
    59b8:	80 81       	ld	r24, Z
    59ba:	80 93 84 41 	sts	0x4184, r24	; 0x804184 <DIGIT+0x7>
				if(Blink) {DIGIT[1][2] = FND_OFF;}		// Blink = 1 ņŐłť ZigBee PanID 1000ņ« ņŕłģ OFF
    59be:	80 91 b9 4b 	lds	r24, 0x4BB9	; 0x804bb9 <Blink>
    59c2:	88 23       	and	r24, r24
    59c4:	19 f0       	breq	.+6      	; 0x59cc <ZigBee_PanID_Write+0x250>
    59c6:	10 92 83 41 	sts	0x4183, r1	; 0x804183 <DIGIT+0x6>
    59ca:	07 c0       	rjmp	.+14     	; 0x59da <ZigBee_PanID_Write+0x25e>
				else	  {DIGIT[1][2] = fnd_tbl[digit_4];}	// Blink = 0 ņŐłť ZigBee PanID 1000ņ« ņŕłģ «•Ĺ√
    59cc:	eb 2d       	mov	r30, r11
    59ce:	f0 e0       	ldi	r31, 0x00	; 0
    59d0:	e9 5b       	subi	r30, 0xB9	; 185
    59d2:	fe 4b       	sbci	r31, 0xBE	; 190
    59d4:	80 81       	ld	r24, Z
    59d6:	80 93 83 41 	sts	0x4183, r24	; 0x804183 <DIGIT+0x6>

				if(KEY.Buff)					// Key ņ‘∑¬ņŐ ņ÷ņłłť
    59da:	80 91 8d 4b 	lds	r24, 0x4B8D	; 0x804b8d <KEY+0x1>
    59de:	88 23       	and	r24, r24
    59e0:	09 f4       	brne	.+2      	; 0x59e4 <ZigBee_PanID_Write+0x268>
    59e2:	14 c1       	rjmp	.+552    	; 0x5c0c <ZigBee_PanID_Write+0x490>
				{
					if(digit_5 >= 6)							// ZigBee PanID į° 60000 įķ įįįŇ≥™ Ň©łť
    59e4:	d6 30       	cpi	r29, 0x06	; 6
    59e6:	b8 f0       	brcs	.+46     	; 0x5a16 <ZigBee_PanID_Write+0x29a>
					{
						if     (KEY.Key == 1 && digit_4 < 5) {digit_4++; KEY.Key = 0;}	// ĺų  ĻŲ∆į ņŐłť ZigBee PanID 1000ņ« ņŕłģ 5ĪÓŃŲ Ńűį°
    59e8:	80 91 8e 4b 	lds	r24, 0x4B8E	; 0x804b8e <KEY+0x2>
    59ec:	81 30       	cpi	r24, 0x01	; 1
    59ee:	39 f4       	brne	.+14     	; 0x59fe <ZigBee_PanID_Write+0x282>
    59f0:	f4 e0       	ldi	r31, 0x04	; 4
    59f2:	fb 15       	cp	r31, r11
    59f4:	20 f0       	brcs	.+8      	; 0x59fe <ZigBee_PanID_Write+0x282>
    59f6:	b3 94       	inc	r11
    59f8:	10 92 8e 4b 	sts	0x4B8E, r1	; 0x804b8e <KEY+0x2>
    59fc:	07 c1       	rjmp	.+526    	; 0x5c0c <ZigBee_PanID_Write+0x490>
						else if(KEY.Key == 3 && digit_4 > 0) {digit_4--; KEY.Key = 0;}	// īŔŅÓĻŲ∆į ņŐłť ZigBee PanID 1000ņ« ņŕłģ į®ľ“
    59fe:	80 91 8e 4b 	lds	r24, 0x4B8E	; 0x804b8e <KEY+0x2>
    5a02:	83 30       	cpi	r24, 0x03	; 3
    5a04:	09 f0       	breq	.+2      	; 0x5a08 <ZigBee_PanID_Write+0x28c>
    5a06:	02 c1       	rjmp	.+516    	; 0x5c0c <ZigBee_PanID_Write+0x490>
    5a08:	bb 20       	and	r11, r11
    5a0a:	09 f4       	brne	.+2      	; 0x5a0e <ZigBee_PanID_Write+0x292>
    5a0c:	ff c0       	rjmp	.+510    	; 0x5c0c <ZigBee_PanID_Write+0x490>
    5a0e:	ba 94       	dec	r11
    5a10:	10 92 8e 4b 	sts	0x4B8E, r1	; 0x804b8e <KEY+0x2>
    5a14:	fb c0       	rjmp	.+502    	; 0x5c0c <ZigBee_PanID_Write+0x490>
					}
					else									// ZigBee PanID į° 60000 įķ įįįŇ≥™ Ň©ŃŲ ĺ ņłłť
					{
						if     (KEY.Key == 1 && digit_4 < 9) {digit_4++; KEY.Key = 0;}	// ĺų  ĻŲ∆į ņŐłť ZigBee PanID 1000ņ« ņŕłģ 9ĪÓŃŲ Ńűį°
    5a16:	80 91 8e 4b 	lds	r24, 0x4B8E	; 0x804b8e <KEY+0x2>
    5a1a:	81 30       	cpi	r24, 0x01	; 1
    5a1c:	39 f4       	brne	.+14     	; 0x5a2c <ZigBee_PanID_Write+0x2b0>
    5a1e:	28 e0       	ldi	r18, 0x08	; 8
    5a20:	2b 15       	cp	r18, r11
    5a22:	20 f0       	brcs	.+8      	; 0x5a2c <ZigBee_PanID_Write+0x2b0>
    5a24:	b3 94       	inc	r11
    5a26:	10 92 8e 4b 	sts	0x4B8E, r1	; 0x804b8e <KEY+0x2>
    5a2a:	f0 c0       	rjmp	.+480    	; 0x5c0c <ZigBee_PanID_Write+0x490>
						else if(KEY.Key == 3 && digit_4 > 0) {digit_4--; KEY.Key = 0;}	// īŔŅÓĻŲ∆į ņŐłť ZigBee PanID 1000ņ« ņŕłģ 0ĪÓŃŲ į®ľ“
    5a2c:	80 91 8e 4b 	lds	r24, 0x4B8E	; 0x804b8e <KEY+0x2>
    5a30:	83 30       	cpi	r24, 0x03	; 3
    5a32:	09 f0       	breq	.+2      	; 0x5a36 <ZigBee_PanID_Write+0x2ba>
    5a34:	eb c0       	rjmp	.+470    	; 0x5c0c <ZigBee_PanID_Write+0x490>
    5a36:	bb 20       	and	r11, r11
    5a38:	09 f4       	brne	.+2      	; 0x5a3c <ZigBee_PanID_Write+0x2c0>
    5a3a:	e8 c0       	rjmp	.+464    	; 0x5c0c <ZigBee_PanID_Write+0x490>
    5a3c:	ba 94       	dec	r11
    5a3e:	10 92 8e 4b 	sts	0x4B8E, r1	; 0x804b8e <KEY+0x2>
    5a42:	e4 c0       	rjmp	.+456    	; 0x5c0c <ZigBee_PanID_Write+0x490>
					}
				}
			break;
//-------------------------------------------------------------------------------------------------
			case 2:							// ZigBee PanID 100ņ« ņŕłģ
				DIGIT[1][2] = fnd_tbl[digit_4];			// ZigBee PanID 1000ņ« ņŕłģ «•Ĺ√
    5a44:	eb 2d       	mov	r30, r11
    5a46:	f0 e0       	ldi	r31, 0x00	; 0
    5a48:	e9 5b       	subi	r30, 0xB9	; 185
    5a4a:	fe 4b       	sbci	r31, 0xBE	; 190
    5a4c:	80 81       	ld	r24, Z
    5a4e:	80 93 83 41 	sts	0x4183, r24	; 0x804183 <DIGIT+0x6>
				if(Blink) {DIGIT[1][1] = FND_OFF;}		// Blink = 1 ņŐłť ZigBee PanID 100ņ« ņŕłģ OFF
    5a52:	80 91 b9 4b 	lds	r24, 0x4BB9	; 0x804bb9 <Blink>
    5a56:	88 23       	and	r24, r24
    5a58:	19 f0       	breq	.+6      	; 0x5a60 <ZigBee_PanID_Write+0x2e4>
    5a5a:	10 92 82 41 	sts	0x4182, r1	; 0x804182 <DIGIT+0x5>
    5a5e:	07 c0       	rjmp	.+14     	; 0x5a6e <ZigBee_PanID_Write+0x2f2>
				else	  {DIGIT[1][1] = fnd_tbl[digit_3];}	// Blink = 0 ņŐłť ZigBee PanID 100ņ« ņŕłģ «•Ĺ√
    5a60:	e0 2f       	mov	r30, r16
    5a62:	f0 e0       	ldi	r31, 0x00	; 0
    5a64:	e9 5b       	subi	r30, 0xB9	; 185
    5a66:	fe 4b       	sbci	r31, 0xBE	; 190
    5a68:	80 81       	ld	r24, Z
    5a6a:	80 93 82 41 	sts	0x4182, r24	; 0x804182 <DIGIT+0x5>

				if(KEY.Buff)					// Key ņ‘∑¬ņŐ ņ÷ņłłť
    5a6e:	80 91 8d 4b 	lds	r24, 0x4B8D	; 0x804b8d <KEY+0x1>
    5a72:	88 23       	and	r24, r24
    5a74:	09 f4       	brne	.+2      	; 0x5a78 <ZigBee_PanID_Write+0x2fc>
    5a76:	ca c0       	rjmp	.+404    	; 0x5c0c <ZigBee_PanID_Write+0x490>
				{
					if(digit_5 >= 6 && digit_4 >= 5)					// ZigBee PanID į° 65000 įķ įįįŇ≥™ Ň©łť
    5a78:	d6 30       	cpi	r29, 0x06	; 6
    5a7a:	c8 f0       	brcs	.+50     	; 0x5aae <ZigBee_PanID_Write+0x332>
    5a7c:	34 e0       	ldi	r19, 0x04	; 4
    5a7e:	3b 15       	cp	r19, r11
    5a80:	b0 f4       	brcc	.+44     	; 0x5aae <ZigBee_PanID_Write+0x332>
					{
						if     (KEY.Key == 1 && digit_3 < 5) {digit_3++; KEY.Key = 0;}	// ĺų  ĻŲ∆į ņŐłť ZigBee PanID 100ņ« ņŕłģ 5ĪÓŃŲ Ńűį°
    5a82:	80 91 8e 4b 	lds	r24, 0x4B8E	; 0x804b8e <KEY+0x2>
    5a86:	81 30       	cpi	r24, 0x01	; 1
    5a88:	31 f4       	brne	.+12     	; 0x5a96 <ZigBee_PanID_Write+0x31a>
    5a8a:	05 30       	cpi	r16, 0x05	; 5
    5a8c:	20 f4       	brcc	.+8      	; 0x5a96 <ZigBee_PanID_Write+0x31a>
    5a8e:	0f 5f       	subi	r16, 0xFF	; 255
    5a90:	10 92 8e 4b 	sts	0x4B8E, r1	; 0x804b8e <KEY+0x2>
    5a94:	bb c0       	rjmp	.+374    	; 0x5c0c <ZigBee_PanID_Write+0x490>
						else if(KEY.Key == 3 && digit_3 > 0) {digit_3--; KEY.Key = 0;}	// īŔŅÓĻŲ∆į ņŐłť ZigBee PanID 100ņ« ņŕłģ į®ľ“
    5a96:	80 91 8e 4b 	lds	r24, 0x4B8E	; 0x804b8e <KEY+0x2>
    5a9a:	83 30       	cpi	r24, 0x03	; 3
    5a9c:	09 f0       	breq	.+2      	; 0x5aa0 <ZigBee_PanID_Write+0x324>
    5a9e:	b6 c0       	rjmp	.+364    	; 0x5c0c <ZigBee_PanID_Write+0x490>
    5aa0:	00 23       	and	r16, r16
    5aa2:	09 f4       	brne	.+2      	; 0x5aa6 <ZigBee_PanID_Write+0x32a>
    5aa4:	b3 c0       	rjmp	.+358    	; 0x5c0c <ZigBee_PanID_Write+0x490>
    5aa6:	01 50       	subi	r16, 0x01	; 1
    5aa8:	10 92 8e 4b 	sts	0x4B8E, r1	; 0x804b8e <KEY+0x2>
    5aac:	af c0       	rjmp	.+350    	; 0x5c0c <ZigBee_PanID_Write+0x490>
					}
					else									// ZigBee PanID į° 65000 įķ įįįŇ≥™ Ň©ŃŲ ĺ ņłłť
					{
						if     (KEY.Key == 1 && digit_3 < 9) {digit_3++; KEY.Key = 0;}	// ĺų  ĻŲ∆į ņŐłť ZigBee PanID 100ņ« ņŕłģ 9ĪÓŃŲ Ńűį°
    5aae:	80 91 8e 4b 	lds	r24, 0x4B8E	; 0x804b8e <KEY+0x2>
    5ab2:	81 30       	cpi	r24, 0x01	; 1
    5ab4:	31 f4       	brne	.+12     	; 0x5ac2 <ZigBee_PanID_Write+0x346>
    5ab6:	09 30       	cpi	r16, 0x09	; 9
    5ab8:	20 f4       	brcc	.+8      	; 0x5ac2 <ZigBee_PanID_Write+0x346>
    5aba:	0f 5f       	subi	r16, 0xFF	; 255
    5abc:	10 92 8e 4b 	sts	0x4B8E, r1	; 0x804b8e <KEY+0x2>
    5ac0:	a5 c0       	rjmp	.+330    	; 0x5c0c <ZigBee_PanID_Write+0x490>
						else if(KEY.Key == 3 && digit_3 > 0) {digit_3--; KEY.Key = 0;}	// īŔŅÓĻŲ∆į ņŐłť ZigBee PanID 100ņ« ņŕłģ 0ĪÓŃŲ į®ľ“
    5ac2:	80 91 8e 4b 	lds	r24, 0x4B8E	; 0x804b8e <KEY+0x2>
    5ac6:	83 30       	cpi	r24, 0x03	; 3
    5ac8:	09 f0       	breq	.+2      	; 0x5acc <ZigBee_PanID_Write+0x350>
    5aca:	a0 c0       	rjmp	.+320    	; 0x5c0c <ZigBee_PanID_Write+0x490>
    5acc:	00 23       	and	r16, r16
    5ace:	09 f4       	brne	.+2      	; 0x5ad2 <ZigBee_PanID_Write+0x356>
    5ad0:	9d c0       	rjmp	.+314    	; 0x5c0c <ZigBee_PanID_Write+0x490>
    5ad2:	01 50       	subi	r16, 0x01	; 1
    5ad4:	10 92 8e 4b 	sts	0x4B8E, r1	; 0x804b8e <KEY+0x2>
    5ad8:	99 c0       	rjmp	.+306    	; 0x5c0c <ZigBee_PanID_Write+0x490>
					}
				}
			break;
//-------------------------------------------------------------------------------------------------
			case 3:							// ZigBee PanID 10ņ« ņŕłģ
				DIGIT[1][1] = fnd_tbl[digit_3];			// ZigBee PanID 100ņ« ņŕłģ «•Ĺ√
    5ada:	e0 2f       	mov	r30, r16
    5adc:	f0 e0       	ldi	r31, 0x00	; 0
    5ade:	e9 5b       	subi	r30, 0xB9	; 185
    5ae0:	fe 4b       	sbci	r31, 0xBE	; 190
    5ae2:	80 81       	ld	r24, Z
    5ae4:	80 93 82 41 	sts	0x4182, r24	; 0x804182 <DIGIT+0x5>
				if(Blink) {DIGIT[1][0] = FND_OFF;}		// Blink = 1 ņŐłť ZigBee PanID 10ņ« ņŕłģ OFF
    5ae8:	80 91 b9 4b 	lds	r24, 0x4BB9	; 0x804bb9 <Blink>
    5aec:	88 23       	and	r24, r24
    5aee:	19 f0       	breq	.+6      	; 0x5af6 <ZigBee_PanID_Write+0x37a>
    5af0:	10 92 81 41 	sts	0x4181, r1	; 0x804181 <DIGIT+0x4>
    5af4:	07 c0       	rjmp	.+14     	; 0x5b04 <ZigBee_PanID_Write+0x388>
				else	  {DIGIT[1][0] = fnd_tbl[digit_2];}	// Blink = 0 ņŐłť ZigBee PanID 10ņ« ņŕłģ «•Ĺ√
    5af6:	ec 2f       	mov	r30, r28
    5af8:	f0 e0       	ldi	r31, 0x00	; 0
    5afa:	e9 5b       	subi	r30, 0xB9	; 185
    5afc:	fe 4b       	sbci	r31, 0xBE	; 190
    5afe:	80 81       	ld	r24, Z
    5b00:	80 93 81 41 	sts	0x4181, r24	; 0x804181 <DIGIT+0x4>

				if(KEY.Buff)					// Key ņ‘∑¬ņŐ ņ÷ņłłť
    5b04:	80 91 8d 4b 	lds	r24, 0x4B8D	; 0x804b8d <KEY+0x1>
    5b08:	88 23       	and	r24, r24
    5b0a:	09 f4       	brne	.+2      	; 0x5b0e <ZigBee_PanID_Write+0x392>
    5b0c:	7f c0       	rjmp	.+254    	; 0x5c0c <ZigBee_PanID_Write+0x490>
				{
					if(digit_5 >= 6 && digit_4 >= 5 && digit_3 >= 5)			// ZigBee PanID į° 65500 įķ įįįŇ≥™ Ň©łť
    5b0e:	d6 30       	cpi	r29, 0x06	; 6
    5b10:	d8 f0       	brcs	.+54     	; 0x5b48 <ZigBee_PanID_Write+0x3cc>
    5b12:	44 e0       	ldi	r20, 0x04	; 4
    5b14:	4b 15       	cp	r20, r11
    5b16:	c0 f4       	brcc	.+48     	; 0x5b48 <ZigBee_PanID_Write+0x3cc>
    5b18:	05 30       	cpi	r16, 0x05	; 5
    5b1a:	b0 f0       	brcs	.+44     	; 0x5b48 <ZigBee_PanID_Write+0x3cc>
					{
						if     (KEY.Key == 1 && digit_2 < 3) {digit_2++; KEY.Key = 0;}	// ĺų  ĻŲ∆į ņŐłť ZigBee PanID 10ņ« ņŕłģ 3ĪÓŃŲ Ńűį°
    5b1c:	80 91 8e 4b 	lds	r24, 0x4B8E	; 0x804b8e <KEY+0x2>
    5b20:	81 30       	cpi	r24, 0x01	; 1
    5b22:	31 f4       	brne	.+12     	; 0x5b30 <ZigBee_PanID_Write+0x3b4>
    5b24:	c3 30       	cpi	r28, 0x03	; 3
    5b26:	20 f4       	brcc	.+8      	; 0x5b30 <ZigBee_PanID_Write+0x3b4>
    5b28:	cf 5f       	subi	r28, 0xFF	; 255
    5b2a:	10 92 8e 4b 	sts	0x4B8E, r1	; 0x804b8e <KEY+0x2>
    5b2e:	6e c0       	rjmp	.+220    	; 0x5c0c <ZigBee_PanID_Write+0x490>
						else if(KEY.Key == 3 && digit_2 > 0) {digit_2--; KEY.Key = 0;}	// īŔŅÓĻŲ∆į ņŐłť ZigBee PanID 10ņ« ņŕłģ į®ľ“
    5b30:	80 91 8e 4b 	lds	r24, 0x4B8E	; 0x804b8e <KEY+0x2>
    5b34:	83 30       	cpi	r24, 0x03	; 3
    5b36:	09 f0       	breq	.+2      	; 0x5b3a <ZigBee_PanID_Write+0x3be>
    5b38:	69 c0       	rjmp	.+210    	; 0x5c0c <ZigBee_PanID_Write+0x490>
    5b3a:	cc 23       	and	r28, r28
    5b3c:	09 f4       	brne	.+2      	; 0x5b40 <ZigBee_PanID_Write+0x3c4>
    5b3e:	66 c0       	rjmp	.+204    	; 0x5c0c <ZigBee_PanID_Write+0x490>
    5b40:	c1 50       	subi	r28, 0x01	; 1
    5b42:	10 92 8e 4b 	sts	0x4B8E, r1	; 0x804b8e <KEY+0x2>
    5b46:	62 c0       	rjmp	.+196    	; 0x5c0c <ZigBee_PanID_Write+0x490>
					}
					else									// ZigBee PanID į° 65500 įķ įįįŇ≥™ Ň©ŃŲ ĺ ņłłť
					{
						if     (KEY.Key == 1 && digit_2 < 9) {digit_2++; KEY.Key = 0;}	// ĺų  ĻŲ∆į ņŐłť ZigBee PanID 10ņ« ņŕłģ 9ĪÓŃŲ Ńűį°
    5b48:	80 91 8e 4b 	lds	r24, 0x4B8E	; 0x804b8e <KEY+0x2>
    5b4c:	81 30       	cpi	r24, 0x01	; 1
    5b4e:	31 f4       	brne	.+12     	; 0x5b5c <ZigBee_PanID_Write+0x3e0>
    5b50:	c9 30       	cpi	r28, 0x09	; 9
    5b52:	20 f4       	brcc	.+8      	; 0x5b5c <ZigBee_PanID_Write+0x3e0>
    5b54:	cf 5f       	subi	r28, 0xFF	; 255
    5b56:	10 92 8e 4b 	sts	0x4B8E, r1	; 0x804b8e <KEY+0x2>
    5b5a:	58 c0       	rjmp	.+176    	; 0x5c0c <ZigBee_PanID_Write+0x490>
						else if(KEY.Key == 3 && digit_2 > 0) {digit_2--; KEY.Key = 0;}	// īŔŅÓĻŲ∆į ņŐłť ZigBee PanID 10ņ« ņŕłģ 0ĪÓŃŲ į®ľ“
    5b5c:	80 91 8e 4b 	lds	r24, 0x4B8E	; 0x804b8e <KEY+0x2>
    5b60:	83 30       	cpi	r24, 0x03	; 3
    5b62:	09 f0       	breq	.+2      	; 0x5b66 <ZigBee_PanID_Write+0x3ea>
    5b64:	53 c0       	rjmp	.+166    	; 0x5c0c <ZigBee_PanID_Write+0x490>
    5b66:	cc 23       	and	r28, r28
    5b68:	09 f4       	brne	.+2      	; 0x5b6c <ZigBee_PanID_Write+0x3f0>
    5b6a:	50 c0       	rjmp	.+160    	; 0x5c0c <ZigBee_PanID_Write+0x490>
    5b6c:	c1 50       	subi	r28, 0x01	; 1
    5b6e:	10 92 8e 4b 	sts	0x4B8E, r1	; 0x804b8e <KEY+0x2>
    5b72:	4c c0       	rjmp	.+152    	; 0x5c0c <ZigBee_PanID_Write+0x490>
					}
				}
			break;
//-------------------------------------------------------------------------------------------------
			case 4:							// ZigBee PanID 1ņ« ņŕłģ
				DIGIT[1][0] = fnd_tbl[digit_2];			// ZigBee PanID 10ņ« ņŕłģ «•Ĺ√
    5b74:	ec 2f       	mov	r30, r28
    5b76:	f0 e0       	ldi	r31, 0x00	; 0
    5b78:	e9 5b       	subi	r30, 0xB9	; 185
    5b7a:	fe 4b       	sbci	r31, 0xBE	; 190
    5b7c:	80 81       	ld	r24, Z
    5b7e:	80 93 81 41 	sts	0x4181, r24	; 0x804181 <DIGIT+0x4>
				if(Blink) {DIGIT[2][3] = FND_OFF;}		// Blink = 1 ņŐłť ZigBee PanID 1ņ« ņŕłģ OFF
    5b82:	80 91 b9 4b 	lds	r24, 0x4BB9	; 0x804bb9 <Blink>
    5b86:	88 23       	and	r24, r24
    5b88:	19 f0       	breq	.+6      	; 0x5b90 <ZigBee_PanID_Write+0x414>
    5b8a:	10 92 88 41 	sts	0x4188, r1	; 0x804188 <DIGIT+0xb>
    5b8e:	07 c0       	rjmp	.+14     	; 0x5b9e <ZigBee_PanID_Write+0x422>
				else	  {DIGIT[2][3] = fnd_tbl[digit_1];}	// Blink = 0 ņŐłť ZigBee PanID 1ņ« ņŕłģ «•Ĺ√
    5b90:	e1 2f       	mov	r30, r17
    5b92:	f0 e0       	ldi	r31, 0x00	; 0
    5b94:	e9 5b       	subi	r30, 0xB9	; 185
    5b96:	fe 4b       	sbci	r31, 0xBE	; 190
    5b98:	80 81       	ld	r24, Z
    5b9a:	80 93 88 41 	sts	0x4188, r24	; 0x804188 <DIGIT+0xb>

				if(KEY.Buff)					// Key ņ‘∑¬ņŐ ņ÷ņłłť
    5b9e:	80 91 8d 4b 	lds	r24, 0x4B8D	; 0x804b8d <KEY+0x1>
    5ba2:	88 23       	and	r24, r24
    5ba4:	99 f1       	breq	.+102    	; 0x5c0c <ZigBee_PanID_Write+0x490>
				{
					if(digit_5 >= 6 && digit_4 >= 5 && digit_3 >= 5 && digit_2 >= 3)	// ZigBee PanID į° 65530 įķ įįįŇ≥™ Ň©łť
    5ba6:	d6 30       	cpi	r29, 0x06	; 6
    5ba8:	d8 f0       	brcs	.+54     	; 0x5be0 <ZigBee_PanID_Write+0x464>
    5baa:	84 e0       	ldi	r24, 0x04	; 4
    5bac:	8b 15       	cp	r24, r11
    5bae:	c0 f4       	brcc	.+48     	; 0x5be0 <ZigBee_PanID_Write+0x464>
    5bb0:	05 30       	cpi	r16, 0x05	; 5
    5bb2:	b0 f0       	brcs	.+44     	; 0x5be0 <ZigBee_PanID_Write+0x464>
    5bb4:	c3 30       	cpi	r28, 0x03	; 3
    5bb6:	a0 f0       	brcs	.+40     	; 0x5be0 <ZigBee_PanID_Write+0x464>
					{
						if     (KEY.Key == 1 && digit_1 < 5) {digit_1++; KEY.Key = 0;}	// ĺų  ĻŲ∆į ņŐłť ZigBee PanID 1ņ« ņŕłģ 6ĪÓŃŲ Ńűį°
    5bb8:	80 91 8e 4b 	lds	r24, 0x4B8E	; 0x804b8e <KEY+0x2>
    5bbc:	81 30       	cpi	r24, 0x01	; 1
    5bbe:	31 f4       	brne	.+12     	; 0x5bcc <ZigBee_PanID_Write+0x450>
    5bc0:	15 30       	cpi	r17, 0x05	; 5
    5bc2:	20 f4       	brcc	.+8      	; 0x5bcc <ZigBee_PanID_Write+0x450>
    5bc4:	1f 5f       	subi	r17, 0xFF	; 255
    5bc6:	10 92 8e 4b 	sts	0x4B8E, r1	; 0x804b8e <KEY+0x2>
    5bca:	20 c0       	rjmp	.+64     	; 0x5c0c <ZigBee_PanID_Write+0x490>
						else if(KEY.Key == 3 && digit_1 > 0) {digit_1--; KEY.Key = 0;}	// īŔŅÓĻŲ∆į ņŐłť ZigBee PanID 1ņ« ņŕłģ į®ľ“
    5bcc:	80 91 8e 4b 	lds	r24, 0x4B8E	; 0x804b8e <KEY+0x2>
    5bd0:	83 30       	cpi	r24, 0x03	; 3
    5bd2:	e1 f4       	brne	.+56     	; 0x5c0c <ZigBee_PanID_Write+0x490>
    5bd4:	11 23       	and	r17, r17
    5bd6:	d1 f0       	breq	.+52     	; 0x5c0c <ZigBee_PanID_Write+0x490>
    5bd8:	11 50       	subi	r17, 0x01	; 1
    5bda:	10 92 8e 4b 	sts	0x4B8E, r1	; 0x804b8e <KEY+0x2>
    5bde:	16 c0       	rjmp	.+44     	; 0x5c0c <ZigBee_PanID_Write+0x490>
					}
					else									// ZigBee PanID į° 65530 įķ įįįŇ≥™ Ň©ŃŲ ĺ ņłłť
					{
						if     (KEY.Key == 1 && digit_1 < 9) {digit_1++; KEY.Key = 0;}	// ĺų  ĻŲ∆į ņŐłť ZigBee PanID 1ņ« ņŕłģ 9ĪÓŃŲ Ńűį°
    5be0:	80 91 8e 4b 	lds	r24, 0x4B8E	; 0x804b8e <KEY+0x2>
    5be4:	81 30       	cpi	r24, 0x01	; 1
    5be6:	31 f4       	brne	.+12     	; 0x5bf4 <ZigBee_PanID_Write+0x478>
    5be8:	19 30       	cpi	r17, 0x09	; 9
    5bea:	20 f4       	brcc	.+8      	; 0x5bf4 <ZigBee_PanID_Write+0x478>
    5bec:	1f 5f       	subi	r17, 0xFF	; 255
    5bee:	10 92 8e 4b 	sts	0x4B8E, r1	; 0x804b8e <KEY+0x2>
    5bf2:	0c c0       	rjmp	.+24     	; 0x5c0c <ZigBee_PanID_Write+0x490>
						else if(KEY.Key == 3 && digit_1 > 0) {digit_1--; KEY.Key = 0;}	// īŔŅÓĻŲ∆į ņŐłť ZigBee PanID 1ņ« ņŕłģ 0ĪÓŃŲ į®ľ“
    5bf4:	80 91 8e 4b 	lds	r24, 0x4B8E	; 0x804b8e <KEY+0x2>
    5bf8:	83 30       	cpi	r24, 0x03	; 3
    5bfa:	41 f4       	brne	.+16     	; 0x5c0c <ZigBee_PanID_Write+0x490>
    5bfc:	11 23       	and	r17, r17
    5bfe:	31 f0       	breq	.+12     	; 0x5c0c <ZigBee_PanID_Write+0x490>
    5c00:	11 50       	subi	r17, 0x01	; 1
    5c02:	10 92 8e 4b 	sts	0x4B8E, r1	; 0x804b8e <KEY+0x2>
    5c06:	02 c0       	rjmp	.+4      	; 0x5c0c <ZigBee_PanID_Write+0x490>
					}
				}
			break;
//-------------------------------------------------------------------------------------------------
			case 5:
				KEY.Count = 0;					// Ļ›ļĻņĽ ņß«ō Countł¶ √÷ņķ∑ő į®ľ“ Ĺ√Ňī
    5c08:	10 92 8c 4b 	sts	0x4B8C, r1	; 0x804b8c <KEY>
			break;
		}
		wdt_reset();							// ŅŲń°Ķ∂ łģľ¬
    5c0c:	0e 94 17 0d 	call	0x1a2e	; 0x1a2e <wdt_reset>
	DIGIT[1][1] = fnd_tbl[digit_3];						// ZigBee PanID   100ņ« ņŕłģ «•Ĺ√
	DIGIT[1][0] = fnd_tbl[digit_2];						// ZigBee PanID    10ņ« ņŕłģ «•Ĺ√

	DIGIT[2][3] = fnd_tbl[digit_1];						// ZigBee PanID     1ņ« ņŕłģ «•Ĺ√

	while(SET.Menu)								// łřīļłūĶŚ ņŐłť Ļ›ļĻ
    5c10:	80 91 48 4b 	lds	r24, 0x4B48	; 0x804b48 <SET>
    5c14:	81 11       	cpse	r24, r1
    5c16:	85 ce       	rjmp	.-758    	; 0x5922 <ZigBee_PanID_Write+0x1a6>
		}
		wdt_reset();							// ŅŲń°Ķ∂ łģľ¬
	}
//-------------------------------------------------------------------------------------------------
	ZB_id = 0;								// ZigBee Pan_id √ Ī‚»≠
	ZB_id += (digit_5 * 10000);						// ZigBee Pan_id 10000ņ« ņŕłģ
    5c18:	20 e1       	ldi	r18, 0x10	; 16
    5c1a:	37 e2       	ldi	r19, 0x27	; 39
    5c1c:	d2 9f       	mul	r29, r18
    5c1e:	c0 01       	movw	r24, r0
    5c20:	d3 9f       	mul	r29, r19
    5c22:	90 0d       	add	r25, r0
    5c24:	11 24       	eor	r1, r1
	ZB_id += (digit_4 * 1000);						// ZigBee Pan_id  1000ņ« ņŕłģ
    5c26:	48 ee       	ldi	r20, 0xE8	; 232
    5c28:	53 e0       	ldi	r21, 0x03	; 3
    5c2a:	b4 9e       	mul	r11, r20
    5c2c:	90 01       	movw	r18, r0
    5c2e:	b5 9e       	mul	r11, r21
    5c30:	30 0d       	add	r19, r0
    5c32:	11 24       	eor	r1, r1
    5c34:	82 0f       	add	r24, r18
    5c36:	93 1f       	adc	r25, r19
	ZB_id += (digit_3 * 100);						// ZigBee Pan_id   100ņ« ņŕłģ
    5c38:	9c 01       	movw	r18, r24
    5c3a:	e4 e6       	ldi	r30, 0x64	; 100
    5c3c:	0e 9f       	mul	r16, r30
    5c3e:	20 0d       	add	r18, r0
    5c40:	31 1d       	adc	r19, r1
    5c42:	11 24       	eor	r1, r1
	ZB_id += (digit_2 * 10);						// ZigBee Pan_id    10ņ« ņŕłģ
    5c44:	d0 e0       	ldi	r29, 0x00	; 0
    5c46:	ce 01       	movw	r24, r28
    5c48:	88 0f       	add	r24, r24
    5c4a:	99 1f       	adc	r25, r25
    5c4c:	cc 0f       	add	r28, r28
    5c4e:	dd 1f       	adc	r29, r29
    5c50:	cc 0f       	add	r28, r28
    5c52:	dd 1f       	adc	r29, r29
    5c54:	cc 0f       	add	r28, r28
    5c56:	dd 1f       	adc	r29, r29
    5c58:	8c 0f       	add	r24, r28
    5c5a:	9d 1f       	adc	r25, r29
    5c5c:	82 0f       	add	r24, r18
    5c5e:	93 1f       	adc	r25, r19
	ZB_id += (digit_1 * 1);							// ZigBee Pan_id     1ņ« ņŕłģ
    5c60:	81 0f       	add	r24, r17
    5c62:	91 1d       	adc	r25, r1
    5c64:	80 93 a2 4b 	sts	0x4BA2, r24	; 0x804ba2 <ZB_id>
    5c68:	90 93 a3 4b 	sts	0x4BA3, r25	; 0x804ba3 <ZB_id+0x1>

	Pan_id_1000 = (ZB_id / 4096);						// ZigBee Pan_id HEX Code 2Byte Ľůņß
    5c6c:	29 2f       	mov	r18, r25
    5c6e:	22 95       	swap	r18
    5c70:	2f 70       	andi	r18, 0x0F	; 15
    5c72:	20 93 89 4b 	sts	0x4B89, r18	; 0x804b89 <Pan_id_1000>
    5c76:	10 92 8a 4b 	sts	0x4B8A, r1	; 0x804b8a <Pan_id_1000+0x1>
	Pan_id_100  = (ZB_id % 4096 / 256);					// ZigBee Pan_id HEX Code 2Byte «Ōņß
    5c7a:	9c 01       	movw	r18, r24
    5c7c:	3f 70       	andi	r19, 0x0F	; 15
    5c7e:	30 93 af 41 	sts	0x41AF, r19	; 0x8041af <Pan_id_100>
    5c82:	10 92 b0 41 	sts	0x41B0, r1	; 0x8041b0 <Pan_id_100+0x1>
	Pan_id_10   = (ZB_id % 4096 % 256 / 16);				// ZigBee Pan_id HEX Code 1Byte Ľůņß
    5c86:	9c 01       	movw	r18, r24
    5c88:	33 27       	eor	r19, r19
    5c8a:	32 95       	swap	r19
    5c8c:	22 95       	swap	r18
    5c8e:	2f 70       	andi	r18, 0x0F	; 15
    5c90:	23 27       	eor	r18, r19
    5c92:	3f 70       	andi	r19, 0x0F	; 15
    5c94:	23 27       	eor	r18, r19
    5c96:	20 93 46 4b 	sts	0x4B46, r18	; 0x804b46 <Pan_id_10>
    5c9a:	30 93 47 4b 	sts	0x4B47, r19	; 0x804b47 <Pan_id_10+0x1>
	Pan_id_1    = (ZB_id % 4096 % 256 % 16);				// ZigBee Pan_id HEX Code 1Byte «Ōņß
    5c9e:	8f 70       	andi	r24, 0x0F	; 15
    5ca0:	99 27       	eor	r25, r25
    5ca2:	80 93 21 4b 	sts	0x4B21, r24	; 0x804b21 <Pan_id_1>
    5ca6:	90 93 22 4b 	sts	0x4B22, r25	; 0x804b22 <Pan_id_1+0x1>

	ZigBee_Write_id();							// ZigBee PanID ņķņŚ
    5caa:	0e 94 d8 2a 	call	0x55b0	; 0x55b0 <ZigBee_Write_id>

	SET.Menu = 1;								// Menu łūĶŚ ņĮŃŲ
    5cae:	e8 e4       	ldi	r30, 0x48	; 72
    5cb0:	fb e4       	ldi	r31, 0x4B	; 75
    5cb2:	81 e0       	ldi	r24, 0x01	; 1
    5cb4:	80 83       	st	Z, r24
	SET.Select = 0;								// Select ĻŲ∆į √ Ī‚»≠
    5cb6:	11 82       	std	Z+1, r1	; 0x01
	SET.Blink = 0;								// ņŕłīľŲ ĪŰĻŕņ” √ Ī‚»≠
    5cb8:	13 82       	std	Z+3, r1	; 0x03
	KEY.Count = 0;								// ľĪŇ√ Key į° ī≠łį»ĹľŲ √ Ī‚»≠
    5cba:	10 92 8c 4b 	sts	0x4B8C, r1	; 0x804b8c <KEY>
}
    5cbe:	df 91       	pop	r29
    5cc0:	cf 91       	pop	r28
    5cc2:	1f 91       	pop	r17
    5cc4:	0f 91       	pop	r16
    5cc6:	ff 90       	pop	r15
    5cc8:	ef 90       	pop	r14
    5cca:	df 90       	pop	r13
    5ccc:	cf 90       	pop	r12
    5cce:	bf 90       	pop	r11
    5cd0:	9f 90       	pop	r9
    5cd2:	8f 90       	pop	r8
    5cd4:	7f 90       	pop	r7
    5cd6:	6f 90       	pop	r6
    5cd8:	08 95       	ret

00005cda <ZigBee_Write_ch>:

//=================================================================================================
void ZigBee_Write_ch(void)							// ZigBee √§≥ő ņķņŚ
{
    5cda:	cf 93       	push	r28
	uint8_t zbch_wite = 0;							// zbch_wite ļĮľŲ √ Ī‚»≠
    5cdc:	c0 e0       	ldi	r28, 0x00	; 0

	do{
		switch(zbch_wite)						// zbch_wite
    5cde:	c1 30       	cpi	r28, 0x01	; 1
    5ce0:	a1 f0       	breq	.+40     	; 0x5d0a <ZigBee_Write_ch+0x30>
    5ce2:	28 f0       	brcs	.+10     	; 0x5cee <ZigBee_Write_ch+0x14>
    5ce4:	c2 30       	cpi	r28, 0x02	; 2
    5ce6:	d1 f1       	breq	.+116    	; 0x5d5c <ZigBee_Write_ch+0x82>
    5ce8:	c3 30       	cpi	r28, 0x03	; 3
    5cea:	e9 f1       	breq	.+122    	; 0x5d66 <ZigBee_Write_ch+0x8c>
    5cec:	40 c0       	rjmp	.+128    	; 0x5d6e <ZigBee_Write_ch+0x94>
		{
			case 0:							// zbch_wite = 0 ņŐłť
				USART3_SendString("+++");			// USART3 Ņ° +++ ņŁľŘ
    5cee:	84 e5       	ldi	r24, 0x54	; 84
    5cf0:	91 e4       	ldi	r25, 0x41	; 65
    5cf2:	0e 94 a8 2a 	call	0x5550	; 0x5550 <USART3_SendString>
    5cf6:	2f ef       	ldi	r18, 0xFF	; 255
    5cf8:	8f ef       	ldi	r24, 0xFF	; 255
    5cfa:	9c e2       	ldi	r25, 0x2C	; 44
    5cfc:	21 50       	subi	r18, 0x01	; 1
    5cfe:	80 40       	sbci	r24, 0x00	; 0
    5d00:	90 40       	sbci	r25, 0x00	; 0
    5d02:	e1 f7       	brne	.-8      	; 0x5cfc <ZigBee_Write_ch+0x22>
    5d04:	00 c0       	rjmp	.+0      	; 0x5d06 <ZigBee_Write_ch+0x2c>
    5d06:	00 00       	nop
    5d08:	32 c0       	rjmp	.+100    	; 0x5d6e <ZigBee_Write_ch+0x94>
				_delay_ms(1000);				// ZigBee √÷√  īšļĮ Ĺ√į£ 1√  Delay
			break;

			case 1:							// zbch_wite = 1 ņŐłť
				USART3_SendString("ATCH");			// USART3 Ņ° ATCH ņŁľŘ
    5d0a:	89 e6       	ldi	r24, 0x69	; 105
    5d0c:	91 e4       	ldi	r25, 0x41	; 65
    5d0e:	0e 94 a8 2a 	call	0x5550	; 0x5550 <USART3_SendString>
				USART3_Write(CH[ZB_ch] / 256);			// USART3 Ņ° √§≥ő 1Byte Ľůņß ņŁľŘ
    5d12:	e0 91 20 4b 	lds	r30, 0x4B20	; 0x804b20 <ZB_ch>
    5d16:	f0 e0       	ldi	r31, 0x00	; 0
    5d18:	ee 0f       	add	r30, r30
    5d1a:	ff 1f       	adc	r31, r31
    5d1c:	e6 5d       	subi	r30, 0xD6	; 214
    5d1e:	ff 4b       	sbci	r31, 0xBF	; 191
    5d20:	80 81       	ld	r24, Z
    5d22:	91 81       	ldd	r25, Z+1	; 0x01
    5d24:	99 23       	and	r25, r25
    5d26:	14 f4       	brge	.+4      	; 0x5d2c <ZigBee_Write_ch+0x52>
    5d28:	81 50       	subi	r24, 0x01	; 1
    5d2a:	9f 4f       	sbci	r25, 0xFF	; 255
    5d2c:	89 2f       	mov	r24, r25
    5d2e:	0e 94 9f 2a 	call	0x553e	; 0x553e <USART3_Write>
				USART3_Write(CH[ZB_ch] % 256);			// USART3 Ņ° √§≥ő 1Byte «Ōņß ņŁľŘ
    5d32:	e0 91 20 4b 	lds	r30, 0x4B20	; 0x804b20 <ZB_ch>
    5d36:	f0 e0       	ldi	r31, 0x00	; 0
    5d38:	ee 0f       	add	r30, r30
    5d3a:	ff 1f       	adc	r31, r31
    5d3c:	e6 5d       	subi	r30, 0xD6	; 214
    5d3e:	ff 4b       	sbci	r31, 0xBF	; 191
    5d40:	80 81       	ld	r24, Z
    5d42:	91 81       	ldd	r25, Z+1	; 0x01
    5d44:	90 78       	andi	r25, 0x80	; 128
    5d46:	99 23       	and	r25, r25
    5d48:	1c f4       	brge	.+6      	; 0x5d50 <ZigBee_Write_ch+0x76>
    5d4a:	01 97       	sbiw	r24, 0x01	; 1
    5d4c:	9f 6f       	ori	r25, 0xFF	; 255
    5d4e:	01 96       	adiw	r24, 0x01	; 1
    5d50:	0e 94 9f 2a 	call	0x553e	; 0x553e <USART3_Write>
				USART3_Write('\r');				// USART3 Ņ° \r
    5d54:	8d e0       	ldi	r24, 0x0D	; 13
    5d56:	0e 94 9f 2a 	call	0x553e	; 0x553e <USART3_Write>
			break;
    5d5a:	09 c0       	rjmp	.+18     	; 0x5d6e <ZigBee_Write_ch+0x94>

			case 2:							// zbch_wite = 2 ņŐłť
				USART3_SendString("ATWR\r");			// USART3 Ņ° ATWR\r ņŁľŘ
    5d5c:	8d e5       	ldi	r24, 0x5D	; 93
    5d5e:	91 e4       	ldi	r25, 0x41	; 65
    5d60:	0e 94 a8 2a 	call	0x5550	; 0x5550 <USART3_SendString>
			break;
    5d64:	04 c0       	rjmp	.+8      	; 0x5d6e <ZigBee_Write_ch+0x94>

			case 3:							// zbch_wite = 3 ņŐłť
				USART3_SendString("ATCN\r");			// USART3 Ņ° ATCN\r ņŁľŘ
    5d66:	83 e6       	ldi	r24, 0x63	; 99
    5d68:	91 e4       	ldi	r25, 0x41	; 65
    5d6a:	0e 94 a8 2a 	call	0x5550	; 0x5550 <USART3_SendString>
			break;
		}
//-------------------------------------------------------------------------------------------------
		for(uint8_t cnt = 0; cnt < RX3_SIZE; cnt++)			// RX3_SIZE łłŇ≠ Ļ›ļĻ
    5d6e:	80 e0       	ldi	r24, 0x00	; 0
    5d70:	9d c0       	rjmp	.+314    	; 0x5eac <ZigBee_Write_ch+0x1d2>
		{
			if(zbch_wite == 0 && Rx3_Buff[cnt] == 'O' && Rx3_Buff[cnt + 1] == 'K' && Rx3_Buff[cnt + 2] == 0x0d)
    5d72:	c1 11       	cpse	r28, r1
    5d74:	25 c0       	rjmp	.+74     	; 0x5dc0 <ZigBee_Write_ch+0xe6>
    5d76:	28 2f       	mov	r18, r24
    5d78:	30 e0       	ldi	r19, 0x00	; 0
    5d7a:	f9 01       	movw	r30, r18
    5d7c:	e9 53       	subi	r30, 0x39	; 57
    5d7e:	f4 4b       	sbci	r31, 0xB4	; 180
    5d80:	90 81       	ld	r25, Z
    5d82:	9f 34       	cpi	r25, 0x4F	; 79
    5d84:	e9 f4       	brne	.+58     	; 0x5dc0 <ZigBee_Write_ch+0xe6>
    5d86:	f9 01       	movw	r30, r18
    5d88:	e8 53       	subi	r30, 0x38	; 56
    5d8a:	f4 4b       	sbci	r31, 0xB4	; 180
    5d8c:	90 81       	ld	r25, Z
    5d8e:	9b 34       	cpi	r25, 0x4B	; 75
    5d90:	b9 f4       	brne	.+46     	; 0x5dc0 <ZigBee_Write_ch+0xe6>
    5d92:	f9 01       	movw	r30, r18
    5d94:	e7 53       	subi	r30, 0x37	; 55
    5d96:	f4 4b       	sbci	r31, 0xB4	; 180
    5d98:	90 81       	ld	r25, Z
    5d9a:	9d 30       	cpi	r25, 0x0D	; 13
    5d9c:	89 f4       	brne	.+34     	; 0x5dc0 <ZigBee_Write_ch+0xe6>
			{							// 0+OK+CR
				zbch_wite = 1;					// īšļĮ »ģņő »ń īŔņĹņł∑ő Ńűį°
				Beep(3);
    5d9e:	83 e0       	ldi	r24, 0x03	; 3
    5da0:	90 e0       	ldi	r25, 0x00	; 0
    5da2:	0e 94 3b 04 	call	0x876	; 0x876 <Beep>
    5da6:	2f ef       	ldi	r18, 0xFF	; 255
    5da8:	8f e3       	ldi	r24, 0x3F	; 63
    5daa:	92 e0       	ldi	r25, 0x02	; 2
    5dac:	21 50       	subi	r18, 0x01	; 1
    5dae:	80 40       	sbci	r24, 0x00	; 0
    5db0:	90 40       	sbci	r25, 0x00	; 0
    5db2:	e1 f7       	brne	.-8      	; 0x5dac <ZigBee_Write_ch+0xd2>
    5db4:	00 c0       	rjmp	.+0      	; 0x5db6 <ZigBee_Write_ch+0xdc>
    5db6:	00 00       	nop
				_delay_ms(50);					// ZigBee √≥łģ Ĺ√į£ »ń
				Rx3_Buff_Clear();				// Rx3 Buff Clear
    5db8:	0e 94 c6 2a 	call	0x558c	; 0x558c <Rx3_Buff_Clear>
//-------------------------------------------------------------------------------------------------
		for(uint8_t cnt = 0; cnt < RX3_SIZE; cnt++)			// RX3_SIZE łłŇ≠ Ļ›ļĻ
		{
			if(zbch_wite == 0 && Rx3_Buff[cnt] == 'O' && Rx3_Buff[cnt + 1] == 'K' && Rx3_Buff[cnt + 2] == 0x0d)
			{							// 0+OK+CR
				zbch_wite = 1;					// īšļĮ »ģņő »ń īŔņĹņł∑ő Ńűį°
    5dbc:	c1 e0       	ldi	r28, 0x01	; 1
				Beep(3);
				_delay_ms(50);					// ZigBee √≥łģ Ĺ√į£ »ń
				Rx3_Buff_Clear();				// Rx3 Buff Clear
				break;
    5dbe:	79 c0       	rjmp	.+242    	; 0x5eb2 <ZigBee_Write_ch+0x1d8>
			}

			if(zbch_wite == 1 && Rx3_Buff[cnt] == 'O' && Rx3_Buff[cnt + 1] == 'K' && Rx3_Buff[cnt + 2] == 0x0d)
    5dc0:	c1 30       	cpi	r28, 0x01	; 1
    5dc2:	29 f5       	brne	.+74     	; 0x5e0e <ZigBee_Write_ch+0x134>
    5dc4:	28 2f       	mov	r18, r24
    5dc6:	30 e0       	ldi	r19, 0x00	; 0
    5dc8:	f9 01       	movw	r30, r18
    5dca:	e9 53       	subi	r30, 0x39	; 57
    5dcc:	f4 4b       	sbci	r31, 0xB4	; 180
    5dce:	90 81       	ld	r25, Z
    5dd0:	9f 34       	cpi	r25, 0x4F	; 79
    5dd2:	e9 f4       	brne	.+58     	; 0x5e0e <ZigBee_Write_ch+0x134>
    5dd4:	f9 01       	movw	r30, r18
    5dd6:	e8 53       	subi	r30, 0x38	; 56
    5dd8:	f4 4b       	sbci	r31, 0xB4	; 180
    5dda:	90 81       	ld	r25, Z
    5ddc:	9b 34       	cpi	r25, 0x4B	; 75
    5dde:	b9 f4       	brne	.+46     	; 0x5e0e <ZigBee_Write_ch+0x134>
    5de0:	f9 01       	movw	r30, r18
    5de2:	e7 53       	subi	r30, 0x37	; 55
    5de4:	f4 4b       	sbci	r31, 0xB4	; 180
    5de6:	90 81       	ld	r25, Z
    5de8:	9d 30       	cpi	r25, 0x0D	; 13
    5dea:	89 f4       	brne	.+34     	; 0x5e0e <ZigBee_Write_ch+0x134>
			{							// 1+OK+CR
				zbch_wite = 2;					// īšļĮ »ģņő »ń īŔņĹņł∑ő Ńűį°
				Beep(3);
    5dec:	83 e0       	ldi	r24, 0x03	; 3
    5dee:	90 e0       	ldi	r25, 0x00	; 0
    5df0:	0e 94 3b 04 	call	0x876	; 0x876 <Beep>
    5df4:	2f ef       	ldi	r18, 0xFF	; 255
    5df6:	8f e3       	ldi	r24, 0x3F	; 63
    5df8:	92 e0       	ldi	r25, 0x02	; 2
    5dfa:	21 50       	subi	r18, 0x01	; 1
    5dfc:	80 40       	sbci	r24, 0x00	; 0
    5dfe:	90 40       	sbci	r25, 0x00	; 0
    5e00:	e1 f7       	brne	.-8      	; 0x5dfa <ZigBee_Write_ch+0x120>
    5e02:	00 c0       	rjmp	.+0      	; 0x5e04 <ZigBee_Write_ch+0x12a>
    5e04:	00 00       	nop
				_delay_ms(50);					// ZigBee √≥łģ Ĺ√į£ »ń
				Rx3_Buff_Clear();				// Rx3 Buff Clear
    5e06:	0e 94 c6 2a 	call	0x558c	; 0x558c <Rx3_Buff_Clear>
				break;
			}

			if(zbch_wite == 1 && Rx3_Buff[cnt] == 'O' && Rx3_Buff[cnt + 1] == 'K' && Rx3_Buff[cnt + 2] == 0x0d)
			{							// 1+OK+CR
				zbch_wite = 2;					// īšļĮ »ģņő »ń īŔņĹņł∑ő Ńűį°
    5e0a:	c2 e0       	ldi	r28, 0x02	; 2
				Beep(3);
				_delay_ms(50);					// ZigBee √≥łģ Ĺ√į£ »ń
				Rx3_Buff_Clear();				// Rx3 Buff Clear
				break;
    5e0c:	52 c0       	rjmp	.+164    	; 0x5eb2 <ZigBee_Write_ch+0x1d8>
			}

			if(zbch_wite == 2 && Rx3_Buff[cnt] == 'O' && Rx3_Buff[cnt + 1] == 'K' && Rx3_Buff[cnt + 2] == 0x0d)
    5e0e:	c2 30       	cpi	r28, 0x02	; 2
    5e10:	29 f5       	brne	.+74     	; 0x5e5c <ZigBee_Write_ch+0x182>
    5e12:	28 2f       	mov	r18, r24
    5e14:	30 e0       	ldi	r19, 0x00	; 0
    5e16:	f9 01       	movw	r30, r18
    5e18:	e9 53       	subi	r30, 0x39	; 57
    5e1a:	f4 4b       	sbci	r31, 0xB4	; 180
    5e1c:	90 81       	ld	r25, Z
    5e1e:	9f 34       	cpi	r25, 0x4F	; 79
    5e20:	e9 f4       	brne	.+58     	; 0x5e5c <ZigBee_Write_ch+0x182>
    5e22:	f9 01       	movw	r30, r18
    5e24:	e8 53       	subi	r30, 0x38	; 56
    5e26:	f4 4b       	sbci	r31, 0xB4	; 180
    5e28:	90 81       	ld	r25, Z
    5e2a:	9b 34       	cpi	r25, 0x4B	; 75
    5e2c:	b9 f4       	brne	.+46     	; 0x5e5c <ZigBee_Write_ch+0x182>
    5e2e:	f9 01       	movw	r30, r18
    5e30:	e7 53       	subi	r30, 0x37	; 55
    5e32:	f4 4b       	sbci	r31, 0xB4	; 180
    5e34:	90 81       	ld	r25, Z
    5e36:	9d 30       	cpi	r25, 0x0D	; 13
    5e38:	89 f4       	brne	.+34     	; 0x5e5c <ZigBee_Write_ch+0x182>
			{							// 2+OK+CR
				zbch_wite = 3;					// īšļĮ »ģņő »ń īŔņĹņł∑ő Ńűį°
				Beep(3);
    5e3a:	83 e0       	ldi	r24, 0x03	; 3
    5e3c:	90 e0       	ldi	r25, 0x00	; 0
    5e3e:	0e 94 3b 04 	call	0x876	; 0x876 <Beep>
    5e42:	2f ef       	ldi	r18, 0xFF	; 255
    5e44:	8f e3       	ldi	r24, 0x3F	; 63
    5e46:	92 e0       	ldi	r25, 0x02	; 2
    5e48:	21 50       	subi	r18, 0x01	; 1
    5e4a:	80 40       	sbci	r24, 0x00	; 0
    5e4c:	90 40       	sbci	r25, 0x00	; 0
    5e4e:	e1 f7       	brne	.-8      	; 0x5e48 <ZigBee_Write_ch+0x16e>
    5e50:	00 c0       	rjmp	.+0      	; 0x5e52 <ZigBee_Write_ch+0x178>
    5e52:	00 00       	nop
				_delay_ms(50);					// ZigBee √≥łģ Ĺ√į£ »ń
				Rx3_Buff_Clear();				// Rx3 Buff Clear
    5e54:	0e 94 c6 2a 	call	0x558c	; 0x558c <Rx3_Buff_Clear>
				break;
			}

			if(zbch_wite == 2 && Rx3_Buff[cnt] == 'O' && Rx3_Buff[cnt + 1] == 'K' && Rx3_Buff[cnt + 2] == 0x0d)
			{							// 2+OK+CR
				zbch_wite = 3;					// īšļĮ »ģņő »ń īŔņĹņł∑ő Ńűį°
    5e58:	c3 e0       	ldi	r28, 0x03	; 3
				Beep(3);
				_delay_ms(50);					// ZigBee √≥łģ Ĺ√į£ »ń
				Rx3_Buff_Clear();				// Rx3 Buff Clear
				break;
    5e5a:	2b c0       	rjmp	.+86     	; 0x5eb2 <ZigBee_Write_ch+0x1d8>
			}

			if(zbch_wite == 3 && Rx3_Buff[cnt] == 'O' && Rx3_Buff[cnt + 1] == 'K' && Rx3_Buff[cnt + 2] == 0x0d)
    5e5c:	c3 30       	cpi	r28, 0x03	; 3
    5e5e:	29 f5       	brne	.+74     	; 0x5eaa <ZigBee_Write_ch+0x1d0>
    5e60:	28 2f       	mov	r18, r24
    5e62:	30 e0       	ldi	r19, 0x00	; 0
    5e64:	f9 01       	movw	r30, r18
    5e66:	e9 53       	subi	r30, 0x39	; 57
    5e68:	f4 4b       	sbci	r31, 0xB4	; 180
    5e6a:	90 81       	ld	r25, Z
    5e6c:	9f 34       	cpi	r25, 0x4F	; 79
    5e6e:	e9 f4       	brne	.+58     	; 0x5eaa <ZigBee_Write_ch+0x1d0>
    5e70:	f9 01       	movw	r30, r18
    5e72:	e8 53       	subi	r30, 0x38	; 56
    5e74:	f4 4b       	sbci	r31, 0xB4	; 180
    5e76:	90 81       	ld	r25, Z
    5e78:	9b 34       	cpi	r25, 0x4B	; 75
    5e7a:	b9 f4       	brne	.+46     	; 0x5eaa <ZigBee_Write_ch+0x1d0>
    5e7c:	f9 01       	movw	r30, r18
    5e7e:	e7 53       	subi	r30, 0x37	; 55
    5e80:	f4 4b       	sbci	r31, 0xB4	; 180
    5e82:	90 81       	ld	r25, Z
    5e84:	9d 30       	cpi	r25, 0x0D	; 13
    5e86:	89 f4       	brne	.+34     	; 0x5eaa <ZigBee_Write_ch+0x1d0>
			{							// 3+OK+CR
				zbch_wite = 5;					// īšļĮ »ģņő »ń While()Ļģ Ńĺ∑Š
				Beep(3);
    5e88:	83 e0       	ldi	r24, 0x03	; 3
    5e8a:	90 e0       	ldi	r25, 0x00	; 0
    5e8c:	0e 94 3b 04 	call	0x876	; 0x876 <Beep>
    5e90:	2f ef       	ldi	r18, 0xFF	; 255
    5e92:	8f e3       	ldi	r24, 0x3F	; 63
    5e94:	92 e0       	ldi	r25, 0x02	; 2
    5e96:	21 50       	subi	r18, 0x01	; 1
    5e98:	80 40       	sbci	r24, 0x00	; 0
    5e9a:	90 40       	sbci	r25, 0x00	; 0
    5e9c:	e1 f7       	brne	.-8      	; 0x5e96 <ZigBee_Write_ch+0x1bc>
    5e9e:	00 c0       	rjmp	.+0      	; 0x5ea0 <ZigBee_Write_ch+0x1c6>
    5ea0:	00 00       	nop
				_delay_ms(50);					// ZigBee √≥łģ Ĺ√į£ »ń
				Rx3_Buff_Clear();				// Rx3 Buff Clear
    5ea2:	0e 94 c6 2a 	call	0x558c	; 0x558c <Rx3_Buff_Clear>
				break;
			}

			if(zbch_wite == 3 && Rx3_Buff[cnt] == 'O' && Rx3_Buff[cnt + 1] == 'K' && Rx3_Buff[cnt + 2] == 0x0d)
			{							// 3+OK+CR
				zbch_wite = 5;					// īšļĮ »ģņő »ń While()Ļģ Ńĺ∑Š
    5ea6:	c5 e0       	ldi	r28, 0x05	; 5
				Beep(3);
				_delay_ms(50);					// ZigBee √≥łģ Ĺ√į£ »ń
				Rx3_Buff_Clear();				// Rx3 Buff Clear
				break;
    5ea8:	04 c0       	rjmp	.+8      	; 0x5eb2 <ZigBee_Write_ch+0x1d8>
			case 3:							// zbch_wite = 3 ņŐłť
				USART3_SendString("ATCN\r");			// USART3 Ņ° ATCN\r ņŁľŘ
			break;
		}
//-------------------------------------------------------------------------------------------------
		for(uint8_t cnt = 0; cnt < RX3_SIZE; cnt++)			// RX3_SIZE łłŇ≠ Ļ›ļĻ
    5eaa:	8f 5f       	subi	r24, 0xFF	; 255
    5eac:	8a 3f       	cpi	r24, 0xFA	; 250
    5eae:	08 f4       	brcc	.+2      	; 0x5eb2 <ZigBee_Write_ch+0x1d8>
    5eb0:	60 cf       	rjmp	.-320    	; 0x5d72 <ZigBee_Write_ch+0x98>
				_delay_ms(50);					// ZigBee √≥łģ Ĺ√į£ »ń
				Rx3_Buff_Clear();				// Rx3 Buff Clear
				break;
			}
		}
		wdt_reset();							// ŅŲń°Ķ∂ łģľ¬
    5eb2:	0e 94 17 0d 	call	0x1a2e	; 0x1a2e <wdt_reset>
	}while(zbch_wite != 5);							// zbch_wite į° 5 ņŌ∂ß ĪÓŃŲ Ļ›ļĻ
    5eb6:	c5 30       	cpi	r28, 0x05	; 5
    5eb8:	09 f0       	breq	.+2      	; 0x5ebc <ZigBee_Write_ch+0x1e2>
    5eba:	11 cf       	rjmp	.-478    	; 0x5cde <ZigBee_Write_ch+0x4>
}
    5ebc:	cf 91       	pop	r28
    5ebe:	08 95       	ret

00005ec0 <ZigBee_Channel_Write>:

//=================================================================================================
void ZigBee_Channel_Write(void)							// ZigBee √§≥ő ľ≥Ń§
{
	FND_Value_Data(2, 2, 12);						// FND 0 ~ 2 FND_OFF
    5ec0:	4c e0       	ldi	r20, 0x0C	; 12
    5ec2:	62 e0       	ldi	r22, 0x02	; 2
    5ec4:	82 e0       	ldi	r24, 0x02	; 2
    5ec6:	0e 94 c3 05 	call	0xb86	; 0xb86 <FND_Value_Data>

	while(SET.Select && SET.Menu)						// łřīļ ŅÕ ľĪŇ√ ņŐ łūĶő 1 ņŐłť Ļ›ļĻ
    5eca:	3d c0       	rjmp	.+122    	; 0x5f46 <ZigBee_Channel_Write+0x86>
	{
		DIGIT[1][1] = fnd_tbl[ZB_ch / 10];				// FND 2 Ņ° ŃŲĪ◊ļŮ √ľ≥ő «•Ĺ√
    5ecc:	20 91 20 4b 	lds	r18, 0x4B20	; 0x804b20 <ZB_ch>
    5ed0:	8d ec       	ldi	r24, 0xCD	; 205
    5ed2:	28 9f       	mul	r18, r24
    5ed4:	81 2d       	mov	r24, r1
    5ed6:	11 24       	eor	r1, r1
    5ed8:	86 95       	lsr	r24
    5eda:	86 95       	lsr	r24
    5edc:	86 95       	lsr	r24
    5ede:	e8 2f       	mov	r30, r24
    5ee0:	f0 e0       	ldi	r31, 0x00	; 0
    5ee2:	e9 5b       	subi	r30, 0xB9	; 185
    5ee4:	fe 4b       	sbci	r31, 0xBE	; 190
    5ee6:	90 81       	ld	r25, Z
    5ee8:	ad e7       	ldi	r26, 0x7D	; 125
    5eea:	b1 e4       	ldi	r27, 0x41	; 65
    5eec:	15 96       	adiw	r26, 0x05	; 5
    5eee:	9c 93       	st	X, r25
    5ef0:	15 97       	sbiw	r26, 0x05	; 5
		DIGIT[1][0] = fnd_tbl[ZB_ch % 10];
    5ef2:	88 0f       	add	r24, r24
    5ef4:	98 2f       	mov	r25, r24
    5ef6:	99 0f       	add	r25, r25
    5ef8:	99 0f       	add	r25, r25
    5efa:	89 0f       	add	r24, r25
    5efc:	e2 2f       	mov	r30, r18
    5efe:	e8 1b       	sub	r30, r24
    5f00:	f0 e0       	ldi	r31, 0x00	; 0
    5f02:	e9 5b       	subi	r30, 0xB9	; 185
    5f04:	fe 4b       	sbci	r31, 0xBE	; 190
    5f06:	80 81       	ld	r24, Z
    5f08:	14 96       	adiw	r26, 0x04	; 4
    5f0a:	8c 93       	st	X, r24

		if(KEY.Buff)							// Key ņ‘∑¬ņŐ ņ÷ņłłť
    5f0c:	80 91 8d 4b 	lds	r24, 0x4B8D	; 0x804b8d <KEY+0x1>
    5f10:	88 23       	and	r24, r24
    5f12:	b9 f0       	breq	.+46     	; 0x5f42 <ZigBee_Channel_Write+0x82>
		{
			if     (KEY.Key == 1 && ZB_ch < 14) {ZB_ch++; KEY.Key = 0;}	// ĺų  ĻŲ∆į ņŐłť ZigBee √§≥ő 14ĪÓŃŲ Ńűį°
    5f14:	80 91 8e 4b 	lds	r24, 0x4B8E	; 0x804b8e <KEY+0x2>
    5f18:	81 30       	cpi	r24, 0x01	; 1
    5f1a:	41 f4       	brne	.+16     	; 0x5f2c <ZigBee_Channel_Write+0x6c>
    5f1c:	2e 30       	cpi	r18, 0x0E	; 14
    5f1e:	30 f4       	brcc	.+12     	; 0x5f2c <ZigBee_Channel_Write+0x6c>
    5f20:	2f 5f       	subi	r18, 0xFF	; 255
    5f22:	20 93 20 4b 	sts	0x4B20, r18	; 0x804b20 <ZB_ch>
    5f26:	10 92 8e 4b 	sts	0x4B8E, r1	; 0x804b8e <KEY+0x2>
    5f2a:	0b c0       	rjmp	.+22     	; 0x5f42 <ZigBee_Channel_Write+0x82>
			else if(KEY.Key == 3 && ZB_ch > 0)  {ZB_ch--; KEY.Key = 0;}	// īŔŅÓĻŲ∆į ņŐłť ZigBee √§≥ő  0ĪÓŃŲ į®ľ“
    5f2c:	80 91 8e 4b 	lds	r24, 0x4B8E	; 0x804b8e <KEY+0x2>
    5f30:	83 30       	cpi	r24, 0x03	; 3
    5f32:	39 f4       	brne	.+14     	; 0x5f42 <ZigBee_Channel_Write+0x82>
    5f34:	22 23       	and	r18, r18
    5f36:	29 f0       	breq	.+10     	; 0x5f42 <ZigBee_Channel_Write+0x82>
    5f38:	21 50       	subi	r18, 0x01	; 1
    5f3a:	20 93 20 4b 	sts	0x4B20, r18	; 0x804b20 <ZB_ch>
    5f3e:	10 92 8e 4b 	sts	0x4B8E, r1	; 0x804b8e <KEY+0x2>
		}
		wdt_reset();							// ŅŲń°Ķ∂ łģľ¬
    5f42:	0e 94 17 0d 	call	0x1a2e	; 0x1a2e <wdt_reset>
//=================================================================================================
void ZigBee_Channel_Write(void)							// ZigBee √§≥ő ľ≥Ń§
{
	FND_Value_Data(2, 2, 12);						// FND 0 ~ 2 FND_OFF

	while(SET.Select && SET.Menu)						// łřīļ ŅÕ ľĪŇ√ ņŐ łūĶő 1 ņŐłť Ļ›ļĻ
    5f46:	80 91 49 4b 	lds	r24, 0x4B49	; 0x804b49 <SET+0x1>
    5f4a:	88 23       	and	r24, r24
    5f4c:	21 f0       	breq	.+8      	; 0x5f56 <ZigBee_Channel_Write+0x96>
    5f4e:	80 91 48 4b 	lds	r24, 0x4B48	; 0x804b48 <SET>
    5f52:	81 11       	cpse	r24, r1
    5f54:	bb cf       	rjmp	.-138    	; 0x5ecc <ZigBee_Channel_Write+0xc>
			if     (KEY.Key == 1 && ZB_ch < 14) {ZB_ch++; KEY.Key = 0;}	// ĺų  ĻŲ∆į ņŐłť ZigBee √§≥ő 14ĪÓŃŲ Ńűį°
			else if(KEY.Key == 3 && ZB_ch > 0)  {ZB_ch--; KEY.Key = 0;}	// īŔŅÓĻŲ∆į ņŐłť ZigBee √§≥ő  0ĪÓŃŲ į®ľ“
		}
		wdt_reset();							// ŅŲń°Ķ∂ łģľ¬
	}
	ZigBee_Write_ch();							// ZigBee Ņ° √§≥ő ņķņŚ
    5f56:	0e 94 6d 2e 	call	0x5cda	; 0x5cda <ZigBee_Write_ch>
    5f5a:	08 95       	ret

00005f5c <ZigBee_Read>:
}

//=================================================================================================
void ZigBee_Read(void)								// ZigBee ľ≥Ń§į™ ņ–Ī‚								
{
    5f5c:	cf 93       	push	r28
	uint8_t zbch_read = 0;							// zbch_read ļĮľŲ √ Ī‚»≠
    5f5e:	c0 e0       	ldi	r28, 0x00	; 0

	do{
		switch(zbch_read)						// zbch_read
    5f60:	c1 30       	cpi	r28, 0x01	; 1
    5f62:	a1 f0       	breq	.+40     	; 0x5f8c <ZigBee_Read+0x30>
    5f64:	28 f0       	brcs	.+10     	; 0x5f70 <ZigBee_Read+0x14>
    5f66:	c2 30       	cpi	r28, 0x02	; 2
    5f68:	b1 f0       	breq	.+44     	; 0x5f96 <ZigBee_Read+0x3a>
    5f6a:	c3 30       	cpi	r28, 0x03	; 3
    5f6c:	c9 f0       	breq	.+50     	; 0x5fa0 <ZigBee_Read+0x44>
    5f6e:	1c c0       	rjmp	.+56     	; 0x5fa8 <ZigBee_Read+0x4c>
		{
			case 0:							// zbch_read = 0 ņŐłť
				USART3_SendString("+++");			// USART3 Ņ° +++ ņŁľŘ
    5f70:	84 e5       	ldi	r24, 0x54	; 84
    5f72:	91 e4       	ldi	r25, 0x41	; 65
    5f74:	0e 94 a8 2a 	call	0x5550	; 0x5550 <USART3_SendString>
    5f78:	2f ef       	ldi	r18, 0xFF	; 255
    5f7a:	8f ef       	ldi	r24, 0xFF	; 255
    5f7c:	9c e2       	ldi	r25, 0x2C	; 44
    5f7e:	21 50       	subi	r18, 0x01	; 1
    5f80:	80 40       	sbci	r24, 0x00	; 0
    5f82:	90 40       	sbci	r25, 0x00	; 0
    5f84:	e1 f7       	brne	.-8      	; 0x5f7e <ZigBee_Read+0x22>
    5f86:	00 c0       	rjmp	.+0      	; 0x5f88 <ZigBee_Read+0x2c>
    5f88:	00 00       	nop
    5f8a:	0e c0       	rjmp	.+28     	; 0x5fa8 <ZigBee_Read+0x4c>
				_delay_ms(1000);				// ZigBee √÷√  īšļĮ Ĺ√į£ 1√  Delay
			break;

			case 1:							// zbch_read = 1 ņŐłť
				USART3_SendString("ATCH\r");			// USART3 Ņ° ATCH ņŁľŘ
    5f8c:	8e e6       	ldi	r24, 0x6E	; 110
    5f8e:	91 e4       	ldi	r25, 0x41	; 65
    5f90:	0e 94 a8 2a 	call	0x5550	; 0x5550 <USART3_SendString>
			break;
    5f94:	09 c0       	rjmp	.+18     	; 0x5fa8 <ZigBee_Read+0x4c>

			case 2:							// zbch_read = 2 ņŐłť
				USART3_SendString("ATID\r");			// USART3 Ņ° ATWR ņŁľŘ
    5f96:	84 e7       	ldi	r24, 0x74	; 116
    5f98:	91 e4       	ldi	r25, 0x41	; 65
    5f9a:	0e 94 a8 2a 	call	0x5550	; 0x5550 <USART3_SendString>
			break;
    5f9e:	04 c0       	rjmp	.+8      	; 0x5fa8 <ZigBee_Read+0x4c>

			case 3:							// zbch_read = 3 ņŐłť
				USART3_SendString("ATCN\r");			// USART3 Ņ° ATCN ņŁľŘ
    5fa0:	83 e6       	ldi	r24, 0x63	; 99
    5fa2:	91 e4       	ldi	r25, 0x41	; 65
    5fa4:	0e 94 a8 2a 	call	0x5550	; 0x5550 <USART3_SendString>
			break;
		}
//-------------------------------------------------------------------------------------------------
		for(uint8_t cnt = 0; cnt < RX3_SIZE; cnt++)			// RX3_SIZE łłŇ≠ Ļ›ļĻ
    5fa8:	80 e0       	ldi	r24, 0x00	; 0
    5faa:	30 c1       	rjmp	.+608    	; 0x620c <ZigBee_Read+0x2b0>
		{
			if(zbch_read == 0 && Rx3_Buff[cnt] == 'O' && Rx3_Buff[cnt + 1] == 'K' && Rx3_Buff[cnt + 2] == 0x0d)
    5fac:	c1 11       	cpse	r28, r1
    5fae:	25 c0       	rjmp	.+74     	; 0x5ffa <ZigBee_Read+0x9e>
    5fb0:	28 2f       	mov	r18, r24
    5fb2:	30 e0       	ldi	r19, 0x00	; 0
    5fb4:	f9 01       	movw	r30, r18
    5fb6:	e9 53       	subi	r30, 0x39	; 57
    5fb8:	f4 4b       	sbci	r31, 0xB4	; 180
    5fba:	90 81       	ld	r25, Z
    5fbc:	9f 34       	cpi	r25, 0x4F	; 79
    5fbe:	e9 f4       	brne	.+58     	; 0x5ffa <ZigBee_Read+0x9e>
    5fc0:	f9 01       	movw	r30, r18
    5fc2:	e8 53       	subi	r30, 0x38	; 56
    5fc4:	f4 4b       	sbci	r31, 0xB4	; 180
    5fc6:	90 81       	ld	r25, Z
    5fc8:	9b 34       	cpi	r25, 0x4B	; 75
    5fca:	b9 f4       	brne	.+46     	; 0x5ffa <ZigBee_Read+0x9e>
    5fcc:	f9 01       	movw	r30, r18
    5fce:	e7 53       	subi	r30, 0x37	; 55
    5fd0:	f4 4b       	sbci	r31, 0xB4	; 180
    5fd2:	90 81       	ld	r25, Z
    5fd4:	9d 30       	cpi	r25, 0x0D	; 13
    5fd6:	89 f4       	brne	.+34     	; 0x5ffa <ZigBee_Read+0x9e>
			{							// 0+OK+CR
				zbch_read = 1;					// īšļĮ »ģņő »ń īŔņĹņł∑ő Ńűį°
				Beep(3);
    5fd8:	83 e0       	ldi	r24, 0x03	; 3
    5fda:	90 e0       	ldi	r25, 0x00	; 0
    5fdc:	0e 94 3b 04 	call	0x876	; 0x876 <Beep>
    5fe0:	2f ef       	ldi	r18, 0xFF	; 255
    5fe2:	8f e3       	ldi	r24, 0x3F	; 63
    5fe4:	92 e0       	ldi	r25, 0x02	; 2
    5fe6:	21 50       	subi	r18, 0x01	; 1
    5fe8:	80 40       	sbci	r24, 0x00	; 0
    5fea:	90 40       	sbci	r25, 0x00	; 0
    5fec:	e1 f7       	brne	.-8      	; 0x5fe6 <ZigBee_Read+0x8a>
    5fee:	00 c0       	rjmp	.+0      	; 0x5ff0 <ZigBee_Read+0x94>
    5ff0:	00 00       	nop
				_delay_ms(50);					// ZigBee √≥łģ Ĺ√į£ »ń
				Rx3_Buff_Clear();				// Rx3 Buff Clear
    5ff2:	0e 94 c6 2a 	call	0x558c	; 0x558c <Rx3_Buff_Clear>
//-------------------------------------------------------------------------------------------------
		for(uint8_t cnt = 0; cnt < RX3_SIZE; cnt++)			// RX3_SIZE łłŇ≠ Ļ›ļĻ
		{
			if(zbch_read == 0 && Rx3_Buff[cnt] == 'O' && Rx3_Buff[cnt + 1] == 'K' && Rx3_Buff[cnt + 2] == 0x0d)
			{							// 0+OK+CR
				zbch_read = 1;					// īšļĮ »ģņő »ń īŔņĹņł∑ő Ńűį°
    5ff6:	c1 e0       	ldi	r28, 0x01	; 1
				Beep(3);
				_delay_ms(50);					// ZigBee √≥łģ Ĺ√į£ »ń
				Rx3_Buff_Clear();				// Rx3 Buff Clear
				break;
    5ff8:	0c c1       	rjmp	.+536    	; 0x6212 <ZigBee_Read+0x2b6>
			}
//-------------------------------------------------------------------------------------------------
			if(zbch_read == 1 && Rx3_Buff[cnt] == 0x0d)
    5ffa:	c1 30       	cpi	r28, 0x01	; 1
    5ffc:	09 f0       	breq	.+2      	; 0x6000 <ZigBee_Read+0xa4>
    5ffe:	4e c0       	rjmp	.+156    	; 0x609c <ZigBee_Read+0x140>
    6000:	28 2f       	mov	r18, r24
    6002:	30 e0       	ldi	r19, 0x00	; 0
    6004:	f9 01       	movw	r30, r18
    6006:	e9 53       	subi	r30, 0x39	; 57
    6008:	f4 4b       	sbci	r31, 0xB4	; 180
    600a:	90 81       	ld	r25, Z
    600c:	9d 30       	cpi	r25, 0x0D	; 13
    600e:	09 f0       	breq	.+2      	; 0x6012 <ZigBee_Read+0xb6>
    6010:	45 c0       	rjmp	.+138    	; 0x609c <ZigBee_Read+0x140>
			{							// 1+CR
				switch(cnt)					// cnt
    6012:	81 30       	cpi	r24, 0x01	; 1
    6014:	19 f0       	breq	.+6      	; 0x601c <ZigBee_Read+0xc0>
    6016:	82 30       	cpi	r24, 0x02	; 2
    6018:	49 f0       	breq	.+18     	; 0x602c <ZigBee_Read+0xd0>
    601a:	2f c0       	rjmp	.+94     	; 0x607a <ZigBee_Read+0x11e>
				{
					case 1:					// ZigBee channel ņ–ĺÓŅņĪ‚. «—ņŕłģ
						ZB_ch = Rx3_Buff[cnt-1] - 0x43;	// ZigBee channel 1ņ« ņŕłģ
    601c:	f9 01       	movw	r30, r18
    601e:	ea 53       	subi	r30, 0x3A	; 58
    6020:	f4 4b       	sbci	r31, 0xB4	; 180
    6022:	80 81       	ld	r24, Z
    6024:	83 54       	subi	r24, 0x43	; 67
    6026:	80 93 20 4b 	sts	0x4B20, r24	; 0x804b20 <ZB_ch>
					break;
    602a:	27 c0       	rjmp	.+78     	; 0x607a <ZigBee_Read+0x11e>

					case 2:					// ZigBee channel ņ–ĺÓŅņĪ‚. Ķőņŕłģ
						if(Rx3_Buff[cnt-1] <= 0x39) {ZB_ch = (Rx3_Buff[cnt-2] - 0x30) * 10 + (Rx3_Buff[cnt -1] - 0x30) - 6;}	// HEX To DEC
    602c:	f9 01       	movw	r30, r18
    602e:	ea 53       	subi	r30, 0x3A	; 58
    6030:	f4 4b       	sbci	r31, 0xB4	; 180
    6032:	80 81       	ld	r24, Z
    6034:	8a 33       	cpi	r24, 0x3A	; 58
    6036:	88 f4       	brcc	.+34     	; 0x605a <ZigBee_Read+0xfe>
    6038:	f9 01       	movw	r30, r18
    603a:	eb 53       	subi	r30, 0x3B	; 59
    603c:	f4 4b       	sbci	r31, 0xB4	; 180
    603e:	20 81       	ld	r18, Z
    6040:	30 e0       	ldi	r19, 0x00	; 0
    6042:	20 53       	subi	r18, 0x30	; 48
    6044:	31 09       	sbc	r19, r1
    6046:	22 0f       	add	r18, r18
    6048:	92 2f       	mov	r25, r18
    604a:	99 0f       	add	r25, r25
    604c:	99 0f       	add	r25, r25
    604e:	29 0f       	add	r18, r25
    6050:	82 0f       	add	r24, r18
    6052:	86 53       	subi	r24, 0x36	; 54
    6054:	80 93 20 4b 	sts	0x4B20, r24	; 0x804b20 <ZB_ch>
    6058:	10 c0       	rjmp	.+32     	; 0x607a <ZigBee_Read+0x11e>
						else			    {ZB_ch = (Rx3_Buff[cnt-2] - 0x30) * 10 + (Rx3_Buff[cnt -1] - 0x37) - 6;}	// HEX To DEC
    605a:	f9 01       	movw	r30, r18
    605c:	eb 53       	subi	r30, 0x3B	; 59
    605e:	f4 4b       	sbci	r31, 0xB4	; 180
    6060:	20 81       	ld	r18, Z
    6062:	30 e0       	ldi	r19, 0x00	; 0
    6064:	20 53       	subi	r18, 0x30	; 48
    6066:	31 09       	sbc	r19, r1
    6068:	22 0f       	add	r18, r18
    606a:	92 2f       	mov	r25, r18
    606c:	99 0f       	add	r25, r25
    606e:	99 0f       	add	r25, r25
    6070:	29 0f       	add	r18, r25
    6072:	82 0f       	add	r24, r18
    6074:	8d 53       	subi	r24, 0x3D	; 61
    6076:	80 93 20 4b 	sts	0x4B20, r24	; 0x804b20 <ZB_ch>
					break;
				}
				zbch_read = 2;					// īšļĮ »ģņő »ń īŔņĹņł∑ő Ńűį°
				Beep(3);
    607a:	83 e0       	ldi	r24, 0x03	; 3
    607c:	90 e0       	ldi	r25, 0x00	; 0
    607e:	0e 94 3b 04 	call	0x876	; 0x876 <Beep>
    6082:	2f ef       	ldi	r18, 0xFF	; 255
    6084:	8f e3       	ldi	r24, 0x3F	; 63
    6086:	92 e0       	ldi	r25, 0x02	; 2
    6088:	21 50       	subi	r18, 0x01	; 1
    608a:	80 40       	sbci	r24, 0x00	; 0
    608c:	90 40       	sbci	r25, 0x00	; 0
    608e:	e1 f7       	brne	.-8      	; 0x6088 <ZigBee_Read+0x12c>
    6090:	00 c0       	rjmp	.+0      	; 0x6092 <ZigBee_Read+0x136>
    6092:	00 00       	nop
				_delay_ms(50);					// ZigBee √≥łģ Ĺ√į£ »ń
				Rx3_Buff_Clear();				// Rx3 Buff Clear
    6094:	0e 94 c6 2a 	call	0x558c	; 0x558c <Rx3_Buff_Clear>
					case 2:					// ZigBee channel ņ–ĺÓŅņĪ‚. Ķőņŕłģ
						if(Rx3_Buff[cnt-1] <= 0x39) {ZB_ch = (Rx3_Buff[cnt-2] - 0x30) * 10 + (Rx3_Buff[cnt -1] - 0x30) - 6;}	// HEX To DEC
						else			    {ZB_ch = (Rx3_Buff[cnt-2] - 0x30) * 10 + (Rx3_Buff[cnt -1] - 0x37) - 6;}	// HEX To DEC
					break;
				}
				zbch_read = 2;					// īšļĮ »ģņő »ń īŔņĹņł∑ő Ńűį°
    6098:	c2 e0       	ldi	r28, 0x02	; 2
				Beep(3);
				_delay_ms(50);					// ZigBee √≥łģ Ĺ√į£ »ń
				Rx3_Buff_Clear();				// Rx3 Buff Clear
				break;
    609a:	bb c0       	rjmp	.+374    	; 0x6212 <ZigBee_Read+0x2b6>
			}
//-------------------------------------------------------------------------------------------------
			if(zbch_read == 2 && Rx3_Buff[cnt] == 0x0d)
    609c:	c2 30       	cpi	r28, 0x02	; 2
    609e:	09 f0       	breq	.+2      	; 0x60a2 <ZigBee_Read+0x146>
    60a0:	8d c0       	rjmp	.+282    	; 0x61bc <ZigBee_Read+0x260>
    60a2:	28 2f       	mov	r18, r24
    60a4:	30 e0       	ldi	r19, 0x00	; 0
    60a6:	f9 01       	movw	r30, r18
    60a8:	e9 53       	subi	r30, 0x39	; 57
    60aa:	f4 4b       	sbci	r31, 0xB4	; 180
    60ac:	90 81       	ld	r25, Z
    60ae:	9d 30       	cpi	r25, 0x0D	; 13
    60b0:	09 f0       	breq	.+2      	; 0x60b4 <ZigBee_Read+0x158>
    60b2:	84 c0       	rjmp	.+264    	; 0x61bc <ZigBee_Read+0x260>
			{							// 2+CR
				switch(cnt)					// cnt
    60b4:	82 30       	cpi	r24, 0x02	; 2
    60b6:	a9 f0       	breq	.+42     	; 0x60e2 <ZigBee_Read+0x186>
    60b8:	18 f4       	brcc	.+6      	; 0x60c0 <ZigBee_Read+0x164>
    60ba:	81 30       	cpi	r24, 0x01	; 1
    60bc:	39 f0       	breq	.+14     	; 0x60cc <ZigBee_Read+0x170>
    60be:	6d c0       	rjmp	.+218    	; 0x619a <ZigBee_Read+0x23e>
    60c0:	83 30       	cpi	r24, 0x03	; 3
    60c2:	21 f1       	breq	.+72     	; 0x610c <ZigBee_Read+0x1b0>
    60c4:	84 30       	cpi	r24, 0x04	; 4
    60c6:	09 f4       	brne	.+2      	; 0x60ca <ZigBee_Read+0x16e>
    60c8:	40 c0       	rjmp	.+128    	; 0x614a <ZigBee_Read+0x1ee>
    60ca:	67 c0       	rjmp	.+206    	; 0x619a <ZigBee_Read+0x23e>
				{
					case 1:						// ZigBee Pan ID ņ–ĺÓŅņĪ‚. 1 ņŕłģ
						Pan_id_1   = Rx3_Buff[cnt-1] - 0x30;	// ZigBee Pan_id 1ņ« ņŕłģ
    60cc:	f9 01       	movw	r30, r18
    60ce:	ea 53       	subi	r30, 0x3A	; 58
    60d0:	f4 4b       	sbci	r31, 0xB4	; 180
    60d2:	80 81       	ld	r24, Z
    60d4:	90 e0       	ldi	r25, 0x00	; 0
    60d6:	c0 97       	sbiw	r24, 0x30	; 48
    60d8:	80 93 21 4b 	sts	0x4B21, r24	; 0x804b21 <Pan_id_1>
    60dc:	90 93 22 4b 	sts	0x4B22, r25	; 0x804b22 <Pan_id_1+0x1>
					break;
    60e0:	5c c0       	rjmp	.+184    	; 0x619a <ZigBee_Read+0x23e>

					case 2:						// ZigBee Pan ID ņ–ĺÓŅņĪ‚. 2 ņŕłģ
						Pan_id_10  = Rx3_Buff[cnt-2] - 0x30;	// ZigBee Pan_id 10ņ« ņŕłģ
    60e2:	f9 01       	movw	r30, r18
    60e4:	eb 53       	subi	r30, 0x3B	; 59
    60e6:	f4 4b       	sbci	r31, 0xB4	; 180
    60e8:	80 81       	ld	r24, Z
    60ea:	90 e0       	ldi	r25, 0x00	; 0
    60ec:	c0 97       	sbiw	r24, 0x30	; 48
    60ee:	80 93 46 4b 	sts	0x4B46, r24	; 0x804b46 <Pan_id_10>
    60f2:	90 93 47 4b 	sts	0x4B47, r25	; 0x804b47 <Pan_id_10+0x1>
						Pan_id_1   = Rx3_Buff[cnt-1] - 0x30;	// ZigBee Pan_id  1ņ« ņŕłģ
    60f6:	f9 01       	movw	r30, r18
    60f8:	ea 53       	subi	r30, 0x3A	; 58
    60fa:	f4 4b       	sbci	r31, 0xB4	; 180
    60fc:	80 81       	ld	r24, Z
    60fe:	90 e0       	ldi	r25, 0x00	; 0
    6100:	c0 97       	sbiw	r24, 0x30	; 48
    6102:	80 93 21 4b 	sts	0x4B21, r24	; 0x804b21 <Pan_id_1>
    6106:	90 93 22 4b 	sts	0x4B22, r25	; 0x804b22 <Pan_id_1+0x1>
					break;
    610a:	47 c0       	rjmp	.+142    	; 0x619a <ZigBee_Read+0x23e>

					case 3:						// ZigBee Pan ID ņ–ĺÓŅņĪ‚. 3 ņŕłģ
						Pan_id_100 = Rx3_Buff[cnt-3] - 0x30;	// ZigBee Pan_id 100ņ« ņŕłģ
    610c:	f9 01       	movw	r30, r18
    610e:	ec 53       	subi	r30, 0x3C	; 60
    6110:	f4 4b       	sbci	r31, 0xB4	; 180
    6112:	80 81       	ld	r24, Z
    6114:	90 e0       	ldi	r25, 0x00	; 0
    6116:	c0 97       	sbiw	r24, 0x30	; 48
    6118:	80 93 af 41 	sts	0x41AF, r24	; 0x8041af <Pan_id_100>
    611c:	90 93 b0 41 	sts	0x41B0, r25	; 0x8041b0 <Pan_id_100+0x1>
						Pan_id_10  = Rx3_Buff[cnt-2] - 0x30;	// ZigBee Pan_id  10ņ« ņŕłģ
    6120:	f9 01       	movw	r30, r18
    6122:	eb 53       	subi	r30, 0x3B	; 59
    6124:	f4 4b       	sbci	r31, 0xB4	; 180
    6126:	80 81       	ld	r24, Z
    6128:	90 e0       	ldi	r25, 0x00	; 0
    612a:	c0 97       	sbiw	r24, 0x30	; 48
    612c:	80 93 46 4b 	sts	0x4B46, r24	; 0x804b46 <Pan_id_10>
    6130:	90 93 47 4b 	sts	0x4B47, r25	; 0x804b47 <Pan_id_10+0x1>
						Pan_id_1   = Rx3_Buff[cnt-1] - 0x30;	// ZigBee Pan_id   1ņ« ņŕłģ
    6134:	f9 01       	movw	r30, r18
    6136:	ea 53       	subi	r30, 0x3A	; 58
    6138:	f4 4b       	sbci	r31, 0xB4	; 180
    613a:	80 81       	ld	r24, Z
    613c:	90 e0       	ldi	r25, 0x00	; 0
    613e:	c0 97       	sbiw	r24, 0x30	; 48
    6140:	80 93 21 4b 	sts	0x4B21, r24	; 0x804b21 <Pan_id_1>
    6144:	90 93 22 4b 	sts	0x4B22, r25	; 0x804b22 <Pan_id_1+0x1>
					break;
    6148:	28 c0       	rjmp	.+80     	; 0x619a <ZigBee_Read+0x23e>

					case 4:						// ZigBee Pan ID ņ–ĺÓŅņĪ‚. 4 ņŕłģ
						Pan_id_1000 = Rx3_Buff[cnt-4] - 0x30;	// ZigBee Pan_id 1000ņ« ņŕłģ
    614a:	f9 01       	movw	r30, r18
    614c:	ed 53       	subi	r30, 0x3D	; 61
    614e:	f4 4b       	sbci	r31, 0xB4	; 180
    6150:	80 81       	ld	r24, Z
    6152:	90 e0       	ldi	r25, 0x00	; 0
    6154:	c0 97       	sbiw	r24, 0x30	; 48
    6156:	80 93 89 4b 	sts	0x4B89, r24	; 0x804b89 <Pan_id_1000>
    615a:	90 93 8a 4b 	sts	0x4B8A, r25	; 0x804b8a <Pan_id_1000+0x1>
						Pan_id_100  = Rx3_Buff[cnt-3] - 0x30;	// ZigBee Pan_id  100ņ« ņŕłģ
    615e:	f9 01       	movw	r30, r18
    6160:	ec 53       	subi	r30, 0x3C	; 60
    6162:	f4 4b       	sbci	r31, 0xB4	; 180
    6164:	80 81       	ld	r24, Z
    6166:	90 e0       	ldi	r25, 0x00	; 0
    6168:	c0 97       	sbiw	r24, 0x30	; 48
    616a:	80 93 af 41 	sts	0x41AF, r24	; 0x8041af <Pan_id_100>
    616e:	90 93 b0 41 	sts	0x41B0, r25	; 0x8041b0 <Pan_id_100+0x1>
						Pan_id_10   = Rx3_Buff[cnt-2] - 0x30;	// ZigBee Pan_id   10ņ« ņŕłģ
    6172:	f9 01       	movw	r30, r18
    6174:	eb 53       	subi	r30, 0x3B	; 59
    6176:	f4 4b       	sbci	r31, 0xB4	; 180
    6178:	80 81       	ld	r24, Z
    617a:	90 e0       	ldi	r25, 0x00	; 0
    617c:	c0 97       	sbiw	r24, 0x30	; 48
    617e:	80 93 46 4b 	sts	0x4B46, r24	; 0x804b46 <Pan_id_10>
    6182:	90 93 47 4b 	sts	0x4B47, r25	; 0x804b47 <Pan_id_10+0x1>
						Pan_id_1    = Rx3_Buff[cnt-1] - 0x30;	// ZigBee Pan_id    1ņ« ņŕłģ
    6186:	f9 01       	movw	r30, r18
    6188:	ea 53       	subi	r30, 0x3A	; 58
    618a:	f4 4b       	sbci	r31, 0xB4	; 180
    618c:	80 81       	ld	r24, Z
    618e:	90 e0       	ldi	r25, 0x00	; 0
    6190:	c0 97       	sbiw	r24, 0x30	; 48
    6192:	80 93 21 4b 	sts	0x4B21, r24	; 0x804b21 <Pan_id_1>
    6196:	90 93 22 4b 	sts	0x4B22, r25	; 0x804b22 <Pan_id_1+0x1>
					break;
				}
				zbch_read = 3;					// īšļĮ »ģņő »ń īŔņĹņł∑ő Ńűį°
				Beep(3);
    619a:	83 e0       	ldi	r24, 0x03	; 3
    619c:	90 e0       	ldi	r25, 0x00	; 0
    619e:	0e 94 3b 04 	call	0x876	; 0x876 <Beep>
    61a2:	2f ef       	ldi	r18, 0xFF	; 255
    61a4:	8f e3       	ldi	r24, 0x3F	; 63
    61a6:	92 e0       	ldi	r25, 0x02	; 2
    61a8:	21 50       	subi	r18, 0x01	; 1
    61aa:	80 40       	sbci	r24, 0x00	; 0
    61ac:	90 40       	sbci	r25, 0x00	; 0
    61ae:	e1 f7       	brne	.-8      	; 0x61a8 <ZigBee_Read+0x24c>
    61b0:	00 c0       	rjmp	.+0      	; 0x61b2 <ZigBee_Read+0x256>
    61b2:	00 00       	nop
				_delay_ms(50);					// ZigBee √≥łģ Ĺ√į£ »ń
				Rx3_Buff_Clear();				// Rx3 Buff Clear
    61b4:	0e 94 c6 2a 	call	0x558c	; 0x558c <Rx3_Buff_Clear>
						Pan_id_100  = Rx3_Buff[cnt-3] - 0x30;	// ZigBee Pan_id  100ņ« ņŕłģ
						Pan_id_10   = Rx3_Buff[cnt-2] - 0x30;	// ZigBee Pan_id   10ņ« ņŕłģ
						Pan_id_1    = Rx3_Buff[cnt-1] - 0x30;	// ZigBee Pan_id    1ņ« ņŕłģ
					break;
				}
				zbch_read = 3;					// īšļĮ »ģņő »ń īŔņĹņł∑ő Ńűį°
    61b8:	c3 e0       	ldi	r28, 0x03	; 3
				Beep(3);
				_delay_ms(50);					// ZigBee √≥łģ Ĺ√į£ »ń
				Rx3_Buff_Clear();				// Rx3 Buff Clear
				break;
    61ba:	2b c0       	rjmp	.+86     	; 0x6212 <ZigBee_Read+0x2b6>
			}
//-------------------------------------------------------------------------------------------------
			if(zbch_read == 3 && Rx3_Buff[cnt] == 'O' && Rx3_Buff[cnt + 1] == 'K' && Rx3_Buff[cnt + 2] == 0x0d)
    61bc:	c3 30       	cpi	r28, 0x03	; 3
    61be:	29 f5       	brne	.+74     	; 0x620a <ZigBee_Read+0x2ae>
    61c0:	28 2f       	mov	r18, r24
    61c2:	30 e0       	ldi	r19, 0x00	; 0
    61c4:	f9 01       	movw	r30, r18
    61c6:	e9 53       	subi	r30, 0x39	; 57
    61c8:	f4 4b       	sbci	r31, 0xB4	; 180
    61ca:	90 81       	ld	r25, Z
    61cc:	9f 34       	cpi	r25, 0x4F	; 79
    61ce:	e9 f4       	brne	.+58     	; 0x620a <ZigBee_Read+0x2ae>
    61d0:	f9 01       	movw	r30, r18
    61d2:	e8 53       	subi	r30, 0x38	; 56
    61d4:	f4 4b       	sbci	r31, 0xB4	; 180
    61d6:	90 81       	ld	r25, Z
    61d8:	9b 34       	cpi	r25, 0x4B	; 75
    61da:	b9 f4       	brne	.+46     	; 0x620a <ZigBee_Read+0x2ae>
    61dc:	f9 01       	movw	r30, r18
    61de:	e7 53       	subi	r30, 0x37	; 55
    61e0:	f4 4b       	sbci	r31, 0xB4	; 180
    61e2:	90 81       	ld	r25, Z
    61e4:	9d 30       	cpi	r25, 0x0D	; 13
    61e6:	89 f4       	brne	.+34     	; 0x620a <ZigBee_Read+0x2ae>
			{							// 3+OK+CR
				zbch_read = 5;					// īšļĮ »ģņő »ń While()Ļģ Ńĺ∑Š
				Beep(3);
    61e8:	83 e0       	ldi	r24, 0x03	; 3
    61ea:	90 e0       	ldi	r25, 0x00	; 0
    61ec:	0e 94 3b 04 	call	0x876	; 0x876 <Beep>
    61f0:	2f ef       	ldi	r18, 0xFF	; 255
    61f2:	8f e3       	ldi	r24, 0x3F	; 63
    61f4:	92 e0       	ldi	r25, 0x02	; 2
    61f6:	21 50       	subi	r18, 0x01	; 1
    61f8:	80 40       	sbci	r24, 0x00	; 0
    61fa:	90 40       	sbci	r25, 0x00	; 0
    61fc:	e1 f7       	brne	.-8      	; 0x61f6 <ZigBee_Read+0x29a>
    61fe:	00 c0       	rjmp	.+0      	; 0x6200 <ZigBee_Read+0x2a4>
    6200:	00 00       	nop
				_delay_ms(50);					// ZigBee √≥łģ Ĺ√į£ »ń
				Rx3_Buff_Clear();				// Rx3 Buff Clear
    6202:	0e 94 c6 2a 	call	0x558c	; 0x558c <Rx3_Buff_Clear>
				break;
			}
//-------------------------------------------------------------------------------------------------
			if(zbch_read == 3 && Rx3_Buff[cnt] == 'O' && Rx3_Buff[cnt + 1] == 'K' && Rx3_Buff[cnt + 2] == 0x0d)
			{							// 3+OK+CR
				zbch_read = 5;					// īšļĮ »ģņő »ń While()Ļģ Ńĺ∑Š
    6206:	c5 e0       	ldi	r28, 0x05	; 5
				Beep(3);
				_delay_ms(50);					// ZigBee √≥łģ Ĺ√į£ »ń
				Rx3_Buff_Clear();				// Rx3 Buff Clear
				break;
    6208:	04 c0       	rjmp	.+8      	; 0x6212 <ZigBee_Read+0x2b6>
			case 3:							// zbch_read = 3 ņŐłť
				USART3_SendString("ATCN\r");			// USART3 Ņ° ATCN ņŁľŘ
			break;
		}
//-------------------------------------------------------------------------------------------------
		for(uint8_t cnt = 0; cnt < RX3_SIZE; cnt++)			// RX3_SIZE łłŇ≠ Ļ›ļĻ
    620a:	8f 5f       	subi	r24, 0xFF	; 255
    620c:	8a 3f       	cpi	r24, 0xFA	; 250
    620e:	08 f4       	brcc	.+2      	; 0x6212 <ZigBee_Read+0x2b6>
    6210:	cd ce       	rjmp	.-614    	; 0x5fac <ZigBee_Read+0x50>
				_delay_ms(50);					// ZigBee √≥łģ Ĺ√į£ »ń
				Rx3_Buff_Clear();				// Rx3 Buff Clear
				break;
			}
		}
		wdt_reset();							// ŅŲń°Ķ∂ łģľ¬
    6212:	0e 94 17 0d 	call	0x1a2e	; 0x1a2e <wdt_reset>
	}while(zbch_read != 5);							// zbch_read į° 5 ņŌ∂ß ĪÓŃŲ Ļ›ļĻ
    6216:	c5 30       	cpi	r28, 0x05	; 5
    6218:	09 f0       	breq	.+2      	; 0x621c <ZigBee_Read+0x2c0>
    621a:	a2 ce       	rjmp	.-700    	; 0x5f60 <ZigBee_Read+0x4>
}
    621c:	cf 91       	pop	r28
    621e:	08 95       	ret

00006220 <ZigBee_Set>:

//=================================================================================================
void ZigBee_Set(void)								// ZigBee √§≥ő Ļ◊ PanID ľ≥Ń§ łūĶŚ
{
    6220:	ef 92       	push	r14
    6222:	ff 92       	push	r15
    6224:	0f 93       	push	r16
    6226:	1f 93       	push	r17
    6228:	cf 93       	push	r28
	uint8_t Count = 1;							// ńęŅÓ∆ģ ļĮľŲ √ Ī‚»≠
	SET.Select = 0;								// Select ĻŲ∆į √ Ī‚»≠
    622a:	10 92 49 4b 	sts	0x4B49, r1	; 0x804b49 <SET+0x1>
	FND_Value_Data(0, 2, 12);						// FND 0 ~ 2 FND_OFF
    622e:	4c e0       	ldi	r20, 0x0C	; 12
    6230:	62 e0       	ldi	r22, 0x02	; 2
    6232:	80 e0       	ldi	r24, 0x00	; 0
    6234:	0e 94 c3 05 	call	0xb86	; 0xb86 <FND_Value_Data>
	ZigBee_Read();								// ZigBee ľ≥Ń§į™ ņ–Ī‚
    6238:	0e 94 ae 2f 	call	0x5f5c	; 0x5f5c <ZigBee_Read>
}

//=================================================================================================
void ZigBee_Set(void)								// ZigBee √§≥ő Ļ◊ PanID ľ≥Ń§ łūĶŚ
{
	uint8_t Count = 1;							// ńęŅÓ∆ģ ļĮľŲ √ Ī‚»≠
    623c:	c1 e0       	ldi	r28, 0x01	; 1
	SET.Select = 0;								// Select ĻŲ∆į √ Ī‚»≠
	FND_Value_Data(0, 2, 12);						// FND 0 ~ 2 FND_OFF
	ZigBee_Read();								// ZigBee ľ≥Ń§į™ ņ–Ī‚
//-------------------------------------------------------------------------------------------------
	while(SET.Menu)								// łřīļį° 1 ņŐłť Ļ›ļĻ
    623e:	49 c1       	rjmp	.+658    	; 0x64d2 <ZigBee_Set+0x2b2>
	{
		if(KEY.Buff)							// Key ņ‘∑¬ņŐ ņ÷ņłłť
    6240:	80 91 8d 4b 	lds	r24, 0x4B8D	; 0x804b8d <KEY+0x1>
    6244:	88 23       	and	r24, r24
    6246:	99 f0       	breq	.+38     	; 0x626e <ZigBee_Set+0x4e>
		{
			if     (KEY.Key == 1 && Count < 3) {Count++; KEY.Key = 0;}	// ĺų  ĻŲ∆į ņŐłť Count Ńűį°
    6248:	80 91 8e 4b 	lds	r24, 0x4B8E	; 0x804b8e <KEY+0x2>
    624c:	81 30       	cpi	r24, 0x01	; 1
    624e:	31 f4       	brne	.+12     	; 0x625c <ZigBee_Set+0x3c>
    6250:	c3 30       	cpi	r28, 0x03	; 3
    6252:	20 f4       	brcc	.+8      	; 0x625c <ZigBee_Set+0x3c>
    6254:	cf 5f       	subi	r28, 0xFF	; 255
    6256:	10 92 8e 4b 	sts	0x4B8E, r1	; 0x804b8e <KEY+0x2>
    625a:	09 c0       	rjmp	.+18     	; 0x626e <ZigBee_Set+0x4e>
			else if(KEY.Key == 3 && Count > 0) {Count--; KEY.Key = 0;}	// īŔŅÓĻŲ∆į ņŐłť Count į®ľ“
    625c:	80 91 8e 4b 	lds	r24, 0x4B8E	; 0x804b8e <KEY+0x2>
    6260:	83 30       	cpi	r24, 0x03	; 3
    6262:	29 f4       	brne	.+10     	; 0x626e <ZigBee_Set+0x4e>
    6264:	cc 23       	and	r28, r28
    6266:	19 f0       	breq	.+6      	; 0x626e <ZigBee_Set+0x4e>
    6268:	c1 50       	subi	r28, 0x01	; 1
    626a:	10 92 8e 4b 	sts	0x4B8E, r1	; 0x804b8e <KEY+0x2>
		}
		DIGIT[2][0] = fnd_tbl[Count];					// FND 2.0 Ņ° Count «•Ĺ√
    626e:	ec 2f       	mov	r30, r28
    6270:	f0 e0       	ldi	r31, 0x00	; 0
    6272:	e9 5b       	subi	r30, 0xB9	; 185
    6274:	fe 4b       	sbci	r31, 0xBE	; 190
    6276:	80 81       	ld	r24, Z
    6278:	80 93 85 41 	sts	0x4185, r24	; 0x804185 <DIGIT+0x8>

		switch(Count)							// Count
    627c:	c1 30       	cpi	r28, 0x01	; 1
    627e:	41 f0       	breq	.+16     	; 0x6290 <ZigBee_Set+0x70>
    6280:	08 f4       	brcc	.+2      	; 0x6284 <ZigBee_Set+0x64>
    6282:	24 c1       	rjmp	.+584    	; 0x64cc <ZigBee_Set+0x2ac>
    6284:	c2 30       	cpi	r28, 0x02	; 2
    6286:	b9 f1       	breq	.+110    	; 0x62f6 <ZigBee_Set+0xd6>
    6288:	c3 30       	cpi	r28, 0x03	; 3
    628a:	09 f4       	brne	.+2      	; 0x628e <ZigBee_Set+0x6e>
    628c:	1d c1       	rjmp	.+570    	; 0x64c8 <ZigBee_Set+0x2a8>
    628e:	1f c1       	rjmp	.+574    	; 0x64ce <ZigBee_Set+0x2ae>
			case 0:							// Count = 0 ņŐłť
				Count = 2;					// Ļ›ļĻņĽ ņß«ō Countł¶ √÷įŪ∑ő Ńűį° Ĺ√Ňī
			break;

			case 1:							// Count = 1 ņŐłť
				DIGIT[0][3] = FND_Z;				// FND 0 Ņ° Z-ch «•Ĺ√
    6290:	ed e7       	ldi	r30, 0x7D	; 125
    6292:	f1 e4       	ldi	r31, 0x41	; 65
    6294:	8a ed       	ldi	r24, 0xDA	; 218
    6296:	83 83       	std	Z+3, r24	; 0x03
				DIGIT[0][2] = FND_MINUS;
    6298:	82 e0       	ldi	r24, 0x02	; 2
    629a:	82 83       	std	Z+2, r24	; 0x02
				DIGIT[0][1] = FND_c;
    629c:	8a e1       	ldi	r24, 0x1A	; 26
    629e:	81 83       	std	Z+1, r24	; 0x01
				DIGIT[0][0] = FND_h;
    62a0:	8e e2       	ldi	r24, 0x2E	; 46
    62a2:	80 83       	st	Z, r24

				DIGIT[1][3] = FND_OFF;				// FND 2 Ņ° ZigBee √§≥ő «•Ĺ√
    62a4:	17 82       	std	Z+7, r1	; 0x07
				DIGIT[1][2] = FND_OFF;
    62a6:	16 82       	std	Z+6, r1	; 0x06
				DIGIT[1][1] = fnd_tbl[ZB_ch / 10];
    62a8:	40 91 20 4b 	lds	r20, 0x4B20	; 0x804b20 <ZB_ch>
    62ac:	8d ec       	ldi	r24, 0xCD	; 205
    62ae:	48 9f       	mul	r20, r24
    62b0:	81 2d       	mov	r24, r1
    62b2:	11 24       	eor	r1, r1
    62b4:	86 95       	lsr	r24
    62b6:	86 95       	lsr	r24
    62b8:	86 95       	lsr	r24
    62ba:	28 2f       	mov	r18, r24
    62bc:	30 e0       	ldi	r19, 0x00	; 0
    62be:	29 5b       	subi	r18, 0xB9	; 185
    62c0:	3e 4b       	sbci	r19, 0xBE	; 190
    62c2:	d9 01       	movw	r26, r18
    62c4:	9c 91       	ld	r25, X
    62c6:	95 83       	std	Z+5, r25	; 0x05
				DIGIT[1][0] = fnd_tbl[ZB_ch % 10];
    62c8:	88 0f       	add	r24, r24
    62ca:	98 2f       	mov	r25, r24
    62cc:	99 0f       	add	r25, r25
    62ce:	99 0f       	add	r25, r25
    62d0:	89 0f       	add	r24, r25
    62d2:	a4 2f       	mov	r26, r20
    62d4:	a8 1b       	sub	r26, r24
    62d6:	b0 e0       	ldi	r27, 0x00	; 0
    62d8:	a9 5b       	subi	r26, 0xB9	; 185
    62da:	be 4b       	sbci	r27, 0xBE	; 190
    62dc:	8c 91       	ld	r24, X
    62de:	84 83       	std	Z+4, r24	; 0x04

				DIGIT[2][3] = FND_OFF;				// FND 2 1~3 OFF
    62e0:	13 86       	std	Z+11, r1	; 0x0b
				DIGIT[2][2] = FND_OFF;
    62e2:	12 86       	std	Z+10, r1	; 0x0a
				DIGIT[2][1] = FND_OFF;
    62e4:	11 86       	std	Z+9, r1	; 0x09

				if(SET.Select) {ZigBee_Channel_Write();}	// ZigBee √§≥ő ľ≥Ń§
    62e6:	80 91 49 4b 	lds	r24, 0x4B49	; 0x804b49 <SET+0x1>
    62ea:	88 23       	and	r24, r24
    62ec:	09 f4       	brne	.+2      	; 0x62f0 <ZigBee_Set+0xd0>
    62ee:	ef c0       	rjmp	.+478    	; 0x64ce <ZigBee_Set+0x2ae>
    62f0:	0e 94 60 2f 	call	0x5ec0	; 0x5ec0 <ZigBee_Channel_Write>
    62f4:	ec c0       	rjmp	.+472    	; 0x64ce <ZigBee_Set+0x2ae>
			break;

			case 2:							// Count = 2 ņŐłť
				DIGIT[0][3] = FND_Z;				// FND 0 Ņ° Z-Id «•Ĺ√
    62f6:	ed e7       	ldi	r30, 0x7D	; 125
    62f8:	f1 e4       	ldi	r31, 0x41	; 65
    62fa:	8a ed       	ldi	r24, 0xDA	; 218
    62fc:	83 83       	std	Z+3, r24	; 0x03
				DIGIT[0][2] = FND_MINUS;
    62fe:	82 e0       	ldi	r24, 0x02	; 2
    6300:	82 83       	std	Z+2, r24	; 0x02
				DIGIT[0][1] = FND_I;
    6302:	80 e6       	ldi	r24, 0x60	; 96
    6304:	81 83       	std	Z+1, r24	; 0x01
				DIGIT[0][0] = FND_d;
    6306:	8a e7       	ldi	r24, 0x7A	; 122
    6308:	80 83       	st	Z, r24

				ZB_id = (Pan_id_1000 * 4096) + (Pan_id_100 * 256) + (Pan_id_10 * 16) + Pan_id_1;	// ZigBee PanID įŤĽÍ
    630a:	40 91 89 4b 	lds	r20, 0x4B89	; 0x804b89 <Pan_id_1000>
    630e:	50 91 8a 4b 	lds	r21, 0x4B8A	; 0x804b8a <Pan_id_1000+0x1>
    6312:	42 95       	swap	r20
    6314:	52 95       	swap	r21
    6316:	50 7f       	andi	r21, 0xF0	; 240
    6318:	54 27       	eor	r21, r20
    631a:	40 7f       	andi	r20, 0xF0	; 240
    631c:	54 27       	eor	r21, r20
    631e:	80 91 af 41 	lds	r24, 0x41AF	; 0x8041af <Pan_id_100>
    6322:	90 91 b0 41 	lds	r25, 0x41B0	; 0x8041b0 <Pan_id_100+0x1>
    6326:	48 0f       	add	r20, r24
    6328:	59 1f       	adc	r21, r25
    632a:	42 95       	swap	r20
    632c:	52 95       	swap	r21
    632e:	50 7f       	andi	r21, 0xF0	; 240
    6330:	54 27       	eor	r21, r20
    6332:	40 7f       	andi	r20, 0xF0	; 240
    6334:	54 27       	eor	r21, r20
    6336:	80 91 46 4b 	lds	r24, 0x4B46	; 0x804b46 <Pan_id_10>
    633a:	90 91 47 4b 	lds	r25, 0x4B47	; 0x804b47 <Pan_id_10+0x1>
    633e:	48 0f       	add	r20, r24
    6340:	59 1f       	adc	r21, r25
    6342:	42 95       	swap	r20
    6344:	52 95       	swap	r21
    6346:	50 7f       	andi	r21, 0xF0	; 240
    6348:	54 27       	eor	r21, r20
    634a:	40 7f       	andi	r20, 0xF0	; 240
    634c:	54 27       	eor	r21, r20
    634e:	80 91 21 4b 	lds	r24, 0x4B21	; 0x804b21 <Pan_id_1>
    6352:	90 91 22 4b 	lds	r25, 0x4B22	; 0x804b22 <Pan_id_1+0x1>
    6356:	48 0f       	add	r20, r24
    6358:	59 1f       	adc	r21, r25
    635a:	40 93 a2 4b 	sts	0x4BA2, r20	; 0x804ba2 <ZB_id>
    635e:	50 93 a3 4b 	sts	0x4BA3, r21	; 0x804ba3 <ZB_id+0x1>
				DIGIT[1][3] = fnd_tbl[ZB_id / 10000];		// FND 1 Ņ° ZigBee PanID 1000~10ņ« ņŕłģ «•Ĺ√
    6362:	7a 01       	movw	r14, r20
    6364:	f6 94       	lsr	r15
    6366:	e7 94       	ror	r14
    6368:	f6 94       	lsr	r15
    636a:	e7 94       	ror	r14
    636c:	f6 94       	lsr	r15
    636e:	e7 94       	ror	r14
    6370:	f6 94       	lsr	r15
    6372:	e7 94       	ror	r14
    6374:	97 01       	movw	r18, r14
    6376:	a7 e4       	ldi	r26, 0x47	; 71
    6378:	b3 e0       	ldi	r27, 0x03	; 3
    637a:	0e 94 af 38 	call	0x715e	; 0x715e <__umulhisi3>
    637e:	8c 01       	movw	r16, r24
    6380:	16 95       	lsr	r17
    6382:	07 95       	ror	r16
    6384:	16 95       	lsr	r17
    6386:	07 95       	ror	r16
    6388:	16 95       	lsr	r17
    638a:	07 95       	ror	r16
    638c:	d8 01       	movw	r26, r16
    638e:	a9 5b       	subi	r26, 0xB9	; 185
    6390:	be 4b       	sbci	r27, 0xBE	; 190
    6392:	8c 91       	ld	r24, X
    6394:	87 83       	std	Z+7, r24	; 0x07
				DIGIT[1][2] = fnd_tbl[ZB_id % 10000 / 1000];
    6396:	20 e1       	ldi	r18, 0x10	; 16
    6398:	37 e2       	ldi	r19, 0x27	; 39
    639a:	02 9f       	mul	r16, r18
    639c:	c0 01       	movw	r24, r0
    639e:	03 9f       	mul	r16, r19
    63a0:	90 0d       	add	r25, r0
    63a2:	12 9f       	mul	r17, r18
    63a4:	90 0d       	add	r25, r0
    63a6:	11 24       	eor	r1, r1
    63a8:	9a 01       	movw	r18, r20
    63aa:	28 1b       	sub	r18, r24
    63ac:	39 0b       	sbc	r19, r25
    63ae:	36 95       	lsr	r19
    63b0:	27 95       	ror	r18
    63b2:	36 95       	lsr	r19
    63b4:	27 95       	ror	r18
    63b6:	36 95       	lsr	r19
    63b8:	27 95       	ror	r18
    63ba:	a5 ec       	ldi	r26, 0xC5	; 197
    63bc:	b0 e2       	ldi	r27, 0x20	; 32
    63be:	0e 94 af 38 	call	0x715e	; 0x715e <__umulhisi3>
    63c2:	92 95       	swap	r25
    63c4:	82 95       	swap	r24
    63c6:	8f 70       	andi	r24, 0x0F	; 15
    63c8:	89 27       	eor	r24, r25
    63ca:	9f 70       	andi	r25, 0x0F	; 15
    63cc:	89 27       	eor	r24, r25
    63ce:	dc 01       	movw	r26, r24
    63d0:	a9 5b       	subi	r26, 0xB9	; 185
    63d2:	be 4b       	sbci	r27, 0xBE	; 190
    63d4:	8c 91       	ld	r24, X
    63d6:	86 83       	std	Z+6, r24	; 0x06
				DIGIT[1][1] = fnd_tbl[ZB_id % 1000 / 100];
    63d8:	9a 01       	movw	r18, r20
    63da:	36 95       	lsr	r19
    63dc:	27 95       	ror	r18
    63de:	36 95       	lsr	r19
    63e0:	27 95       	ror	r18
    63e2:	36 95       	lsr	r19
    63e4:	27 95       	ror	r18
    63e6:	a5 ec       	ldi	r26, 0xC5	; 197
    63e8:	b0 e2       	ldi	r27, 0x20	; 32
    63ea:	0e 94 af 38 	call	0x715e	; 0x715e <__umulhisi3>
    63ee:	92 95       	swap	r25
    63f0:	82 95       	swap	r24
    63f2:	8f 70       	andi	r24, 0x0F	; 15
    63f4:	89 27       	eor	r24, r25
    63f6:	9f 70       	andi	r25, 0x0F	; 15
    63f8:	89 27       	eor	r24, r25
    63fa:	68 ee       	ldi	r22, 0xE8	; 232
    63fc:	73 e0       	ldi	r23, 0x03	; 3
    63fe:	86 9f       	mul	r24, r22
    6400:	90 01       	movw	r18, r0
    6402:	87 9f       	mul	r24, r23
    6404:	30 0d       	add	r19, r0
    6406:	96 9f       	mul	r25, r22
    6408:	30 0d       	add	r19, r0
    640a:	11 24       	eor	r1, r1
    640c:	ca 01       	movw	r24, r20
    640e:	82 1b       	sub	r24, r18
    6410:	93 0b       	sbc	r25, r19
    6412:	9c 01       	movw	r18, r24
    6414:	36 95       	lsr	r19
    6416:	27 95       	ror	r18
    6418:	36 95       	lsr	r19
    641a:	27 95       	ror	r18
    641c:	ab e7       	ldi	r26, 0x7B	; 123
    641e:	b4 e1       	ldi	r27, 0x14	; 20
    6420:	0e 94 af 38 	call	0x715e	; 0x715e <__umulhisi3>
    6424:	96 95       	lsr	r25
    6426:	87 95       	ror	r24
    6428:	dc 01       	movw	r26, r24
    642a:	a9 5b       	subi	r26, 0xB9	; 185
    642c:	be 4b       	sbci	r27, 0xBE	; 190
    642e:	8c 91       	ld	r24, X
    6430:	85 83       	std	Z+5, r24	; 0x05
				DIGIT[1][0] = fnd_tbl[ZB_id % 100 / 10];
    6432:	9a 01       	movw	r18, r20
    6434:	36 95       	lsr	r19
    6436:	27 95       	ror	r18
    6438:	36 95       	lsr	r19
    643a:	27 95       	ror	r18
    643c:	ab e7       	ldi	r26, 0x7B	; 123
    643e:	b4 e1       	ldi	r27, 0x14	; 20
    6440:	0e 94 af 38 	call	0x715e	; 0x715e <__umulhisi3>
    6444:	9c 01       	movw	r18, r24
    6446:	36 95       	lsr	r19
    6448:	27 95       	ror	r18
    644a:	64 e6       	ldi	r22, 0x64	; 100
    644c:	62 9f       	mul	r22, r18
    644e:	c0 01       	movw	r24, r0
    6450:	63 9f       	mul	r22, r19
    6452:	90 0d       	add	r25, r0
    6454:	11 24       	eor	r1, r1
    6456:	9a 01       	movw	r18, r20
    6458:	28 1b       	sub	r18, r24
    645a:	39 0b       	sbc	r19, r25
    645c:	ad ec       	ldi	r26, 0xCD	; 205
    645e:	bc ec       	ldi	r27, 0xCC	; 204
    6460:	0e 94 af 38 	call	0x715e	; 0x715e <__umulhisi3>
    6464:	96 95       	lsr	r25
    6466:	87 95       	ror	r24
    6468:	96 95       	lsr	r25
    646a:	87 95       	ror	r24
    646c:	96 95       	lsr	r25
    646e:	87 95       	ror	r24
    6470:	dc 01       	movw	r26, r24
    6472:	a9 5b       	subi	r26, 0xB9	; 185
    6474:	be 4b       	sbci	r27, 0xBE	; 190
    6476:	8c 91       	ld	r24, X
    6478:	84 83       	std	Z+4, r24	; 0x04

				DIGIT[2][3] = fnd_tbl[ZB_id % 10];		// FND 1 Ņ° ZigBee PanID 1ņ« ņŕłģ «•Ĺ√
    647a:	9a 01       	movw	r18, r20
    647c:	ad ec       	ldi	r26, 0xCD	; 205
    647e:	bc ec       	ldi	r27, 0xCC	; 204
    6480:	0e 94 af 38 	call	0x715e	; 0x715e <__umulhisi3>
    6484:	96 95       	lsr	r25
    6486:	87 95       	ror	r24
    6488:	96 95       	lsr	r25
    648a:	87 95       	ror	r24
    648c:	96 95       	lsr	r25
    648e:	87 95       	ror	r24
    6490:	9c 01       	movw	r18, r24
    6492:	22 0f       	add	r18, r18
    6494:	33 1f       	adc	r19, r19
    6496:	88 0f       	add	r24, r24
    6498:	99 1f       	adc	r25, r25
    649a:	88 0f       	add	r24, r24
    649c:	99 1f       	adc	r25, r25
    649e:	88 0f       	add	r24, r24
    64a0:	99 1f       	adc	r25, r25
    64a2:	82 0f       	add	r24, r18
    64a4:	93 1f       	adc	r25, r19
    64a6:	9a 01       	movw	r18, r20
    64a8:	28 1b       	sub	r18, r24
    64aa:	39 0b       	sbc	r19, r25
    64ac:	d9 01       	movw	r26, r18
    64ae:	a9 5b       	subi	r26, 0xB9	; 185
    64b0:	be 4b       	sbci	r27, 0xBE	; 190
    64b2:	8c 91       	ld	r24, X
    64b4:	83 87       	std	Z+11, r24	; 0x0b
				DIGIT[2][2] = FND_OFF;
    64b6:	12 86       	std	Z+10, r1	; 0x0a
				DIGIT[2][1] = FND_OFF;
    64b8:	11 86       	std	Z+9, r1	; 0x09

				if(SET.Select) {ZigBee_PanID_Write();}		// ZigBee PanID ľ≥Ń§
    64ba:	80 91 49 4b 	lds	r24, 0x4B49	; 0x804b49 <SET+0x1>
    64be:	88 23       	and	r24, r24
    64c0:	31 f0       	breq	.+12     	; 0x64ce <ZigBee_Set+0x2ae>
    64c2:	0e 94 be 2b 	call	0x577c	; 0x577c <ZigBee_PanID_Write>
    64c6:	03 c0       	rjmp	.+6      	; 0x64ce <ZigBee_Set+0x2ae>
			break;

			case 3:							// Count = 3 ņŐłť
				Count = 1;					// Ļ›ļĻņĽ ņß«ō Countł¶ √÷ņķ∑ő į®ľ“ Ĺ√Ňī
    64c8:	c1 e0       	ldi	r28, 0x01	; 1
			break;
    64ca:	01 c0       	rjmp	.+2      	; 0x64ce <ZigBee_Set+0x2ae>
		DIGIT[2][0] = fnd_tbl[Count];					// FND 2.0 Ņ° Count «•Ĺ√

		switch(Count)							// Count
		{
			case 0:							// Count = 0 ņŐłť
				Count = 2;					// Ļ›ļĻņĽ ņß«ō Countł¶ √÷įŪ∑ő Ńűį° Ĺ√Ňī
    64cc:	c2 e0       	ldi	r28, 0x02	; 2

			case 3:							// Count = 3 ņŐłť
				Count = 1;					// Ļ›ļĻņĽ ņß«ō Countł¶ √÷ņķ∑ő į®ľ“ Ĺ√Ňī
			break;
		}
		wdt_reset();							// ŅŲń°Ķ∂ łģľ¬
    64ce:	0e 94 17 0d 	call	0x1a2e	; 0x1a2e <wdt_reset>
	uint8_t Count = 1;							// ńęŅÓ∆ģ ļĮľŲ √ Ī‚»≠
	SET.Select = 0;								// Select ĻŲ∆į √ Ī‚»≠
	FND_Value_Data(0, 2, 12);						// FND 0 ~ 2 FND_OFF
	ZigBee_Read();								// ZigBee ľ≥Ń§į™ ņ–Ī‚
//-------------------------------------------------------------------------------------------------
	while(SET.Menu)								// łřīļį° 1 ņŐłť Ļ›ļĻ
    64d2:	80 91 48 4b 	lds	r24, 0x4B48	; 0x804b48 <SET>
    64d6:	81 11       	cpse	r24, r1
    64d8:	b3 ce       	rjmp	.-666    	; 0x6240 <ZigBee_Set+0x20>
				Count = 1;					// Ļ›ļĻņĽ ņß«ō Countł¶ √÷ņķ∑ő į®ľ“ Ĺ√Ňī
			break;
		}
		wdt_reset();							// ŅŲń°Ķ∂ łģľ¬
	}
}
    64da:	cf 91       	pop	r28
    64dc:	1f 91       	pop	r17
    64de:	0f 91       	pop	r16
    64e0:	ff 90       	pop	r15
    64e2:	ef 90       	pop	r14
    64e4:	08 95       	ret

000064e6 <__subsf3>:
    64e6:	50 58       	subi	r21, 0x80	; 128

000064e8 <__addsf3>:
    64e8:	bb 27       	eor	r27, r27
    64ea:	aa 27       	eor	r26, r26
    64ec:	0e 94 8b 32 	call	0x6516	; 0x6516 <__addsf3x>
    64f0:	0c 94 05 34 	jmp	0x680a	; 0x680a <__fp_round>
    64f4:	0e 94 f7 33 	call	0x67ee	; 0x67ee <__fp_pscA>
    64f8:	38 f0       	brcs	.+14     	; 0x6508 <__addsf3+0x20>
    64fa:	0e 94 fe 33 	call	0x67fc	; 0x67fc <__fp_pscB>
    64fe:	20 f0       	brcs	.+8      	; 0x6508 <__addsf3+0x20>
    6500:	39 f4       	brne	.+14     	; 0x6510 <__addsf3+0x28>
    6502:	9f 3f       	cpi	r25, 0xFF	; 255
    6504:	19 f4       	brne	.+6      	; 0x650c <__addsf3+0x24>
    6506:	26 f4       	brtc	.+8      	; 0x6510 <__addsf3+0x28>
    6508:	0c 94 f4 33 	jmp	0x67e8	; 0x67e8 <__fp_nan>
    650c:	0e f4       	brtc	.+2      	; 0x6510 <__addsf3+0x28>
    650e:	e0 95       	com	r30
    6510:	e7 fb       	bst	r30, 7
    6512:	0c 94 ee 33 	jmp	0x67dc	; 0x67dc <__fp_inf>

00006516 <__addsf3x>:
    6516:	e9 2f       	mov	r30, r25
    6518:	0e 94 16 34 	call	0x682c	; 0x682c <__fp_split3>
    651c:	58 f3       	brcs	.-42     	; 0x64f4 <__addsf3+0xc>
    651e:	ba 17       	cp	r27, r26
    6520:	62 07       	cpc	r22, r18
    6522:	73 07       	cpc	r23, r19
    6524:	84 07       	cpc	r24, r20
    6526:	95 07       	cpc	r25, r21
    6528:	20 f0       	brcs	.+8      	; 0x6532 <__addsf3x+0x1c>
    652a:	79 f4       	brne	.+30     	; 0x654a <__addsf3x+0x34>
    652c:	a6 f5       	brtc	.+104    	; 0x6596 <__addsf3x+0x80>
    652e:	0c 94 38 34 	jmp	0x6870	; 0x6870 <__fp_zero>
    6532:	0e f4       	brtc	.+2      	; 0x6536 <__addsf3x+0x20>
    6534:	e0 95       	com	r30
    6536:	0b 2e       	mov	r0, r27
    6538:	ba 2f       	mov	r27, r26
    653a:	a0 2d       	mov	r26, r0
    653c:	0b 01       	movw	r0, r22
    653e:	b9 01       	movw	r22, r18
    6540:	90 01       	movw	r18, r0
    6542:	0c 01       	movw	r0, r24
    6544:	ca 01       	movw	r24, r20
    6546:	a0 01       	movw	r20, r0
    6548:	11 24       	eor	r1, r1
    654a:	ff 27       	eor	r31, r31
    654c:	59 1b       	sub	r21, r25
    654e:	99 f0       	breq	.+38     	; 0x6576 <__addsf3x+0x60>
    6550:	59 3f       	cpi	r21, 0xF9	; 249
    6552:	50 f4       	brcc	.+20     	; 0x6568 <__addsf3x+0x52>
    6554:	50 3e       	cpi	r21, 0xE0	; 224
    6556:	68 f1       	brcs	.+90     	; 0x65b2 <__addsf3x+0x9c>
    6558:	1a 16       	cp	r1, r26
    655a:	f0 40       	sbci	r31, 0x00	; 0
    655c:	a2 2f       	mov	r26, r18
    655e:	23 2f       	mov	r18, r19
    6560:	34 2f       	mov	r19, r20
    6562:	44 27       	eor	r20, r20
    6564:	58 5f       	subi	r21, 0xF8	; 248
    6566:	f3 cf       	rjmp	.-26     	; 0x654e <__addsf3x+0x38>
    6568:	46 95       	lsr	r20
    656a:	37 95       	ror	r19
    656c:	27 95       	ror	r18
    656e:	a7 95       	ror	r26
    6570:	f0 40       	sbci	r31, 0x00	; 0
    6572:	53 95       	inc	r21
    6574:	c9 f7       	brne	.-14     	; 0x6568 <__addsf3x+0x52>
    6576:	7e f4       	brtc	.+30     	; 0x6596 <__addsf3x+0x80>
    6578:	1f 16       	cp	r1, r31
    657a:	ba 0b       	sbc	r27, r26
    657c:	62 0b       	sbc	r22, r18
    657e:	73 0b       	sbc	r23, r19
    6580:	84 0b       	sbc	r24, r20
    6582:	ba f0       	brmi	.+46     	; 0x65b2 <__addsf3x+0x9c>
    6584:	91 50       	subi	r25, 0x01	; 1
    6586:	a1 f0       	breq	.+40     	; 0x65b0 <__addsf3x+0x9a>
    6588:	ff 0f       	add	r31, r31
    658a:	bb 1f       	adc	r27, r27
    658c:	66 1f       	adc	r22, r22
    658e:	77 1f       	adc	r23, r23
    6590:	88 1f       	adc	r24, r24
    6592:	c2 f7       	brpl	.-16     	; 0x6584 <__addsf3x+0x6e>
    6594:	0e c0       	rjmp	.+28     	; 0x65b2 <__addsf3x+0x9c>
    6596:	ba 0f       	add	r27, r26
    6598:	62 1f       	adc	r22, r18
    659a:	73 1f       	adc	r23, r19
    659c:	84 1f       	adc	r24, r20
    659e:	48 f4       	brcc	.+18     	; 0x65b2 <__addsf3x+0x9c>
    65a0:	87 95       	ror	r24
    65a2:	77 95       	ror	r23
    65a4:	67 95       	ror	r22
    65a6:	b7 95       	ror	r27
    65a8:	f7 95       	ror	r31
    65aa:	9e 3f       	cpi	r25, 0xFE	; 254
    65ac:	08 f0       	brcs	.+2      	; 0x65b0 <__addsf3x+0x9a>
    65ae:	b0 cf       	rjmp	.-160    	; 0x6510 <__addsf3+0x28>
    65b0:	93 95       	inc	r25
    65b2:	88 0f       	add	r24, r24
    65b4:	08 f0       	brcs	.+2      	; 0x65b8 <__addsf3x+0xa2>
    65b6:	99 27       	eor	r25, r25
    65b8:	ee 0f       	add	r30, r30
    65ba:	97 95       	ror	r25
    65bc:	87 95       	ror	r24
    65be:	08 95       	ret

000065c0 <__cmpsf2>:
    65c0:	0e 94 ca 33 	call	0x6794	; 0x6794 <__fp_cmp>
    65c4:	08 f4       	brcc	.+2      	; 0x65c8 <__cmpsf2+0x8>
    65c6:	81 e0       	ldi	r24, 0x01	; 1
    65c8:	08 95       	ret

000065ca <__divsf3>:
    65ca:	0e 94 f9 32 	call	0x65f2	; 0x65f2 <__divsf3x>
    65ce:	0c 94 05 34 	jmp	0x680a	; 0x680a <__fp_round>
    65d2:	0e 94 fe 33 	call	0x67fc	; 0x67fc <__fp_pscB>
    65d6:	58 f0       	brcs	.+22     	; 0x65ee <__divsf3+0x24>
    65d8:	0e 94 f7 33 	call	0x67ee	; 0x67ee <__fp_pscA>
    65dc:	40 f0       	brcs	.+16     	; 0x65ee <__divsf3+0x24>
    65de:	29 f4       	brne	.+10     	; 0x65ea <__divsf3+0x20>
    65e0:	5f 3f       	cpi	r21, 0xFF	; 255
    65e2:	29 f0       	breq	.+10     	; 0x65ee <__divsf3+0x24>
    65e4:	0c 94 ee 33 	jmp	0x67dc	; 0x67dc <__fp_inf>
    65e8:	51 11       	cpse	r21, r1
    65ea:	0c 94 39 34 	jmp	0x6872	; 0x6872 <__fp_szero>
    65ee:	0c 94 f4 33 	jmp	0x67e8	; 0x67e8 <__fp_nan>

000065f2 <__divsf3x>:
    65f2:	0e 94 16 34 	call	0x682c	; 0x682c <__fp_split3>
    65f6:	68 f3       	brcs	.-38     	; 0x65d2 <__divsf3+0x8>

000065f8 <__divsf3_pse>:
    65f8:	99 23       	and	r25, r25
    65fa:	b1 f3       	breq	.-20     	; 0x65e8 <__divsf3+0x1e>
    65fc:	55 23       	and	r21, r21
    65fe:	91 f3       	breq	.-28     	; 0x65e4 <__divsf3+0x1a>
    6600:	95 1b       	sub	r25, r21
    6602:	55 0b       	sbc	r21, r21
    6604:	bb 27       	eor	r27, r27
    6606:	aa 27       	eor	r26, r26
    6608:	62 17       	cp	r22, r18
    660a:	73 07       	cpc	r23, r19
    660c:	84 07       	cpc	r24, r20
    660e:	38 f0       	brcs	.+14     	; 0x661e <__divsf3_pse+0x26>
    6610:	9f 5f       	subi	r25, 0xFF	; 255
    6612:	5f 4f       	sbci	r21, 0xFF	; 255
    6614:	22 0f       	add	r18, r18
    6616:	33 1f       	adc	r19, r19
    6618:	44 1f       	adc	r20, r20
    661a:	aa 1f       	adc	r26, r26
    661c:	a9 f3       	breq	.-22     	; 0x6608 <__divsf3_pse+0x10>
    661e:	35 d0       	rcall	.+106    	; 0x668a <__divsf3_pse+0x92>
    6620:	0e 2e       	mov	r0, r30
    6622:	3a f0       	brmi	.+14     	; 0x6632 <__divsf3_pse+0x3a>
    6624:	e0 e8       	ldi	r30, 0x80	; 128
    6626:	32 d0       	rcall	.+100    	; 0x668c <__divsf3_pse+0x94>
    6628:	91 50       	subi	r25, 0x01	; 1
    662a:	50 40       	sbci	r21, 0x00	; 0
    662c:	e6 95       	lsr	r30
    662e:	00 1c       	adc	r0, r0
    6630:	ca f7       	brpl	.-14     	; 0x6624 <__divsf3_pse+0x2c>
    6632:	2b d0       	rcall	.+86     	; 0x668a <__divsf3_pse+0x92>
    6634:	fe 2f       	mov	r31, r30
    6636:	29 d0       	rcall	.+82     	; 0x668a <__divsf3_pse+0x92>
    6638:	66 0f       	add	r22, r22
    663a:	77 1f       	adc	r23, r23
    663c:	88 1f       	adc	r24, r24
    663e:	bb 1f       	adc	r27, r27
    6640:	26 17       	cp	r18, r22
    6642:	37 07       	cpc	r19, r23
    6644:	48 07       	cpc	r20, r24
    6646:	ab 07       	cpc	r26, r27
    6648:	b0 e8       	ldi	r27, 0x80	; 128
    664a:	09 f0       	breq	.+2      	; 0x664e <__divsf3_pse+0x56>
    664c:	bb 0b       	sbc	r27, r27
    664e:	80 2d       	mov	r24, r0
    6650:	bf 01       	movw	r22, r30
    6652:	ff 27       	eor	r31, r31
    6654:	93 58       	subi	r25, 0x83	; 131
    6656:	5f 4f       	sbci	r21, 0xFF	; 255
    6658:	3a f0       	brmi	.+14     	; 0x6668 <__divsf3_pse+0x70>
    665a:	9e 3f       	cpi	r25, 0xFE	; 254
    665c:	51 05       	cpc	r21, r1
    665e:	78 f0       	brcs	.+30     	; 0x667e <__divsf3_pse+0x86>
    6660:	0c 94 ee 33 	jmp	0x67dc	; 0x67dc <__fp_inf>
    6664:	0c 94 39 34 	jmp	0x6872	; 0x6872 <__fp_szero>
    6668:	5f 3f       	cpi	r21, 0xFF	; 255
    666a:	e4 f3       	brlt	.-8      	; 0x6664 <__divsf3_pse+0x6c>
    666c:	98 3e       	cpi	r25, 0xE8	; 232
    666e:	d4 f3       	brlt	.-12     	; 0x6664 <__divsf3_pse+0x6c>
    6670:	86 95       	lsr	r24
    6672:	77 95       	ror	r23
    6674:	67 95       	ror	r22
    6676:	b7 95       	ror	r27
    6678:	f7 95       	ror	r31
    667a:	9f 5f       	subi	r25, 0xFF	; 255
    667c:	c9 f7       	brne	.-14     	; 0x6670 <__divsf3_pse+0x78>
    667e:	88 0f       	add	r24, r24
    6680:	91 1d       	adc	r25, r1
    6682:	96 95       	lsr	r25
    6684:	87 95       	ror	r24
    6686:	97 f9       	bld	r25, 7
    6688:	08 95       	ret
    668a:	e1 e0       	ldi	r30, 0x01	; 1
    668c:	66 0f       	add	r22, r22
    668e:	77 1f       	adc	r23, r23
    6690:	88 1f       	adc	r24, r24
    6692:	bb 1f       	adc	r27, r27
    6694:	62 17       	cp	r22, r18
    6696:	73 07       	cpc	r23, r19
    6698:	84 07       	cpc	r24, r20
    669a:	ba 07       	cpc	r27, r26
    669c:	20 f0       	brcs	.+8      	; 0x66a6 <__divsf3_pse+0xae>
    669e:	62 1b       	sub	r22, r18
    66a0:	73 0b       	sbc	r23, r19
    66a2:	84 0b       	sbc	r24, r20
    66a4:	ba 0b       	sbc	r27, r26
    66a6:	ee 1f       	adc	r30, r30
    66a8:	88 f7       	brcc	.-30     	; 0x668c <__divsf3_pse+0x94>
    66aa:	e0 95       	com	r30
    66ac:	08 95       	ret

000066ae <__fixsfsi>:
    66ae:	0e 94 5e 33 	call	0x66bc	; 0x66bc <__fixunssfsi>
    66b2:	68 94       	set
    66b4:	b1 11       	cpse	r27, r1
    66b6:	0c 94 39 34 	jmp	0x6872	; 0x6872 <__fp_szero>
    66ba:	08 95       	ret

000066bc <__fixunssfsi>:
    66bc:	0e 94 1e 34 	call	0x683c	; 0x683c <__fp_splitA>
    66c0:	88 f0       	brcs	.+34     	; 0x66e4 <__fixunssfsi+0x28>
    66c2:	9f 57       	subi	r25, 0x7F	; 127
    66c4:	98 f0       	brcs	.+38     	; 0x66ec <__fixunssfsi+0x30>
    66c6:	b9 2f       	mov	r27, r25
    66c8:	99 27       	eor	r25, r25
    66ca:	b7 51       	subi	r27, 0x17	; 23
    66cc:	b0 f0       	brcs	.+44     	; 0x66fa <__fixunssfsi+0x3e>
    66ce:	e1 f0       	breq	.+56     	; 0x6708 <__fixunssfsi+0x4c>
    66d0:	66 0f       	add	r22, r22
    66d2:	77 1f       	adc	r23, r23
    66d4:	88 1f       	adc	r24, r24
    66d6:	99 1f       	adc	r25, r25
    66d8:	1a f0       	brmi	.+6      	; 0x66e0 <__fixunssfsi+0x24>
    66da:	ba 95       	dec	r27
    66dc:	c9 f7       	brne	.-14     	; 0x66d0 <__fixunssfsi+0x14>
    66de:	14 c0       	rjmp	.+40     	; 0x6708 <__fixunssfsi+0x4c>
    66e0:	b1 30       	cpi	r27, 0x01	; 1
    66e2:	91 f0       	breq	.+36     	; 0x6708 <__fixunssfsi+0x4c>
    66e4:	0e 94 38 34 	call	0x6870	; 0x6870 <__fp_zero>
    66e8:	b1 e0       	ldi	r27, 0x01	; 1
    66ea:	08 95       	ret
    66ec:	0c 94 38 34 	jmp	0x6870	; 0x6870 <__fp_zero>
    66f0:	67 2f       	mov	r22, r23
    66f2:	78 2f       	mov	r23, r24
    66f4:	88 27       	eor	r24, r24
    66f6:	b8 5f       	subi	r27, 0xF8	; 248
    66f8:	39 f0       	breq	.+14     	; 0x6708 <__fixunssfsi+0x4c>
    66fa:	b9 3f       	cpi	r27, 0xF9	; 249
    66fc:	cc f3       	brlt	.-14     	; 0x66f0 <__fixunssfsi+0x34>
    66fe:	86 95       	lsr	r24
    6700:	77 95       	ror	r23
    6702:	67 95       	ror	r22
    6704:	b3 95       	inc	r27
    6706:	d9 f7       	brne	.-10     	; 0x66fe <__fixunssfsi+0x42>
    6708:	3e f4       	brtc	.+14     	; 0x6718 <__fixunssfsi+0x5c>
    670a:	90 95       	com	r25
    670c:	80 95       	com	r24
    670e:	70 95       	com	r23
    6710:	61 95       	neg	r22
    6712:	7f 4f       	sbci	r23, 0xFF	; 255
    6714:	8f 4f       	sbci	r24, 0xFF	; 255
    6716:	9f 4f       	sbci	r25, 0xFF	; 255
    6718:	08 95       	ret

0000671a <__floatunsisf>:
    671a:	e8 94       	clt
    671c:	09 c0       	rjmp	.+18     	; 0x6730 <__floatsisf+0x12>

0000671e <__floatsisf>:
    671e:	97 fb       	bst	r25, 7
    6720:	3e f4       	brtc	.+14     	; 0x6730 <__floatsisf+0x12>
    6722:	90 95       	com	r25
    6724:	80 95       	com	r24
    6726:	70 95       	com	r23
    6728:	61 95       	neg	r22
    672a:	7f 4f       	sbci	r23, 0xFF	; 255
    672c:	8f 4f       	sbci	r24, 0xFF	; 255
    672e:	9f 4f       	sbci	r25, 0xFF	; 255
    6730:	99 23       	and	r25, r25
    6732:	a9 f0       	breq	.+42     	; 0x675e <__floatsisf+0x40>
    6734:	f9 2f       	mov	r31, r25
    6736:	96 e9       	ldi	r25, 0x96	; 150
    6738:	bb 27       	eor	r27, r27
    673a:	93 95       	inc	r25
    673c:	f6 95       	lsr	r31
    673e:	87 95       	ror	r24
    6740:	77 95       	ror	r23
    6742:	67 95       	ror	r22
    6744:	b7 95       	ror	r27
    6746:	f1 11       	cpse	r31, r1
    6748:	f8 cf       	rjmp	.-16     	; 0x673a <__floatsisf+0x1c>
    674a:	fa f4       	brpl	.+62     	; 0x678a <__floatsisf+0x6c>
    674c:	bb 0f       	add	r27, r27
    674e:	11 f4       	brne	.+4      	; 0x6754 <__floatsisf+0x36>
    6750:	60 ff       	sbrs	r22, 0
    6752:	1b c0       	rjmp	.+54     	; 0x678a <__floatsisf+0x6c>
    6754:	6f 5f       	subi	r22, 0xFF	; 255
    6756:	7f 4f       	sbci	r23, 0xFF	; 255
    6758:	8f 4f       	sbci	r24, 0xFF	; 255
    675a:	9f 4f       	sbci	r25, 0xFF	; 255
    675c:	16 c0       	rjmp	.+44     	; 0x678a <__floatsisf+0x6c>
    675e:	88 23       	and	r24, r24
    6760:	11 f0       	breq	.+4      	; 0x6766 <__floatsisf+0x48>
    6762:	96 e9       	ldi	r25, 0x96	; 150
    6764:	11 c0       	rjmp	.+34     	; 0x6788 <__floatsisf+0x6a>
    6766:	77 23       	and	r23, r23
    6768:	21 f0       	breq	.+8      	; 0x6772 <__floatsisf+0x54>
    676a:	9e e8       	ldi	r25, 0x8E	; 142
    676c:	87 2f       	mov	r24, r23
    676e:	76 2f       	mov	r23, r22
    6770:	05 c0       	rjmp	.+10     	; 0x677c <__floatsisf+0x5e>
    6772:	66 23       	and	r22, r22
    6774:	71 f0       	breq	.+28     	; 0x6792 <__floatsisf+0x74>
    6776:	96 e8       	ldi	r25, 0x86	; 134
    6778:	86 2f       	mov	r24, r22
    677a:	70 e0       	ldi	r23, 0x00	; 0
    677c:	60 e0       	ldi	r22, 0x00	; 0
    677e:	2a f0       	brmi	.+10     	; 0x678a <__floatsisf+0x6c>
    6780:	9a 95       	dec	r25
    6782:	66 0f       	add	r22, r22
    6784:	77 1f       	adc	r23, r23
    6786:	88 1f       	adc	r24, r24
    6788:	da f7       	brpl	.-10     	; 0x6780 <__floatsisf+0x62>
    678a:	88 0f       	add	r24, r24
    678c:	96 95       	lsr	r25
    678e:	87 95       	ror	r24
    6790:	97 f9       	bld	r25, 7
    6792:	08 95       	ret

00006794 <__fp_cmp>:
    6794:	99 0f       	add	r25, r25
    6796:	00 08       	sbc	r0, r0
    6798:	55 0f       	add	r21, r21
    679a:	aa 0b       	sbc	r26, r26
    679c:	e0 e8       	ldi	r30, 0x80	; 128
    679e:	fe ef       	ldi	r31, 0xFE	; 254
    67a0:	16 16       	cp	r1, r22
    67a2:	17 06       	cpc	r1, r23
    67a4:	e8 07       	cpc	r30, r24
    67a6:	f9 07       	cpc	r31, r25
    67a8:	c0 f0       	brcs	.+48     	; 0x67da <__fp_cmp+0x46>
    67aa:	12 16       	cp	r1, r18
    67ac:	13 06       	cpc	r1, r19
    67ae:	e4 07       	cpc	r30, r20
    67b0:	f5 07       	cpc	r31, r21
    67b2:	98 f0       	brcs	.+38     	; 0x67da <__fp_cmp+0x46>
    67b4:	62 1b       	sub	r22, r18
    67b6:	73 0b       	sbc	r23, r19
    67b8:	84 0b       	sbc	r24, r20
    67ba:	95 0b       	sbc	r25, r21
    67bc:	39 f4       	brne	.+14     	; 0x67cc <__fp_cmp+0x38>
    67be:	0a 26       	eor	r0, r26
    67c0:	61 f0       	breq	.+24     	; 0x67da <__fp_cmp+0x46>
    67c2:	23 2b       	or	r18, r19
    67c4:	24 2b       	or	r18, r20
    67c6:	25 2b       	or	r18, r21
    67c8:	21 f4       	brne	.+8      	; 0x67d2 <__fp_cmp+0x3e>
    67ca:	08 95       	ret
    67cc:	0a 26       	eor	r0, r26
    67ce:	09 f4       	brne	.+2      	; 0x67d2 <__fp_cmp+0x3e>
    67d0:	a1 40       	sbci	r26, 0x01	; 1
    67d2:	a6 95       	lsr	r26
    67d4:	8f ef       	ldi	r24, 0xFF	; 255
    67d6:	81 1d       	adc	r24, r1
    67d8:	81 1d       	adc	r24, r1
    67da:	08 95       	ret

000067dc <__fp_inf>:
    67dc:	97 f9       	bld	r25, 7
    67de:	9f 67       	ori	r25, 0x7F	; 127
    67e0:	80 e8       	ldi	r24, 0x80	; 128
    67e2:	70 e0       	ldi	r23, 0x00	; 0
    67e4:	60 e0       	ldi	r22, 0x00	; 0
    67e6:	08 95       	ret

000067e8 <__fp_nan>:
    67e8:	9f ef       	ldi	r25, 0xFF	; 255
    67ea:	80 ec       	ldi	r24, 0xC0	; 192
    67ec:	08 95       	ret

000067ee <__fp_pscA>:
    67ee:	00 24       	eor	r0, r0
    67f0:	0a 94       	dec	r0
    67f2:	16 16       	cp	r1, r22
    67f4:	17 06       	cpc	r1, r23
    67f6:	18 06       	cpc	r1, r24
    67f8:	09 06       	cpc	r0, r25
    67fa:	08 95       	ret

000067fc <__fp_pscB>:
    67fc:	00 24       	eor	r0, r0
    67fe:	0a 94       	dec	r0
    6800:	12 16       	cp	r1, r18
    6802:	13 06       	cpc	r1, r19
    6804:	14 06       	cpc	r1, r20
    6806:	05 06       	cpc	r0, r21
    6808:	08 95       	ret

0000680a <__fp_round>:
    680a:	09 2e       	mov	r0, r25
    680c:	03 94       	inc	r0
    680e:	00 0c       	add	r0, r0
    6810:	11 f4       	brne	.+4      	; 0x6816 <__fp_round+0xc>
    6812:	88 23       	and	r24, r24
    6814:	52 f0       	brmi	.+20     	; 0x682a <__fp_round+0x20>
    6816:	bb 0f       	add	r27, r27
    6818:	40 f4       	brcc	.+16     	; 0x682a <__fp_round+0x20>
    681a:	bf 2b       	or	r27, r31
    681c:	11 f4       	brne	.+4      	; 0x6822 <__fp_round+0x18>
    681e:	60 ff       	sbrs	r22, 0
    6820:	04 c0       	rjmp	.+8      	; 0x682a <__fp_round+0x20>
    6822:	6f 5f       	subi	r22, 0xFF	; 255
    6824:	7f 4f       	sbci	r23, 0xFF	; 255
    6826:	8f 4f       	sbci	r24, 0xFF	; 255
    6828:	9f 4f       	sbci	r25, 0xFF	; 255
    682a:	08 95       	ret

0000682c <__fp_split3>:
    682c:	57 fd       	sbrc	r21, 7
    682e:	90 58       	subi	r25, 0x80	; 128
    6830:	44 0f       	add	r20, r20
    6832:	55 1f       	adc	r21, r21
    6834:	59 f0       	breq	.+22     	; 0x684c <__fp_splitA+0x10>
    6836:	5f 3f       	cpi	r21, 0xFF	; 255
    6838:	71 f0       	breq	.+28     	; 0x6856 <__fp_splitA+0x1a>
    683a:	47 95       	ror	r20

0000683c <__fp_splitA>:
    683c:	88 0f       	add	r24, r24
    683e:	97 fb       	bst	r25, 7
    6840:	99 1f       	adc	r25, r25
    6842:	61 f0       	breq	.+24     	; 0x685c <__fp_splitA+0x20>
    6844:	9f 3f       	cpi	r25, 0xFF	; 255
    6846:	79 f0       	breq	.+30     	; 0x6866 <__fp_splitA+0x2a>
    6848:	87 95       	ror	r24
    684a:	08 95       	ret
    684c:	12 16       	cp	r1, r18
    684e:	13 06       	cpc	r1, r19
    6850:	14 06       	cpc	r1, r20
    6852:	55 1f       	adc	r21, r21
    6854:	f2 cf       	rjmp	.-28     	; 0x683a <__fp_split3+0xe>
    6856:	46 95       	lsr	r20
    6858:	f1 df       	rcall	.-30     	; 0x683c <__fp_splitA>
    685a:	08 c0       	rjmp	.+16     	; 0x686c <__fp_splitA+0x30>
    685c:	16 16       	cp	r1, r22
    685e:	17 06       	cpc	r1, r23
    6860:	18 06       	cpc	r1, r24
    6862:	99 1f       	adc	r25, r25
    6864:	f1 cf       	rjmp	.-30     	; 0x6848 <__fp_splitA+0xc>
    6866:	86 95       	lsr	r24
    6868:	71 05       	cpc	r23, r1
    686a:	61 05       	cpc	r22, r1
    686c:	08 94       	sec
    686e:	08 95       	ret

00006870 <__fp_zero>:
    6870:	e8 94       	clt

00006872 <__fp_szero>:
    6872:	bb 27       	eor	r27, r27
    6874:	66 27       	eor	r22, r22
    6876:	77 27       	eor	r23, r23
    6878:	cb 01       	movw	r24, r22
    687a:	97 f9       	bld	r25, 7
    687c:	08 95       	ret

0000687e <__gesf2>:
    687e:	0e 94 ca 33 	call	0x6794	; 0x6794 <__fp_cmp>
    6882:	08 f4       	brcc	.+2      	; 0x6886 <__gesf2+0x8>
    6884:	8f ef       	ldi	r24, 0xFF	; 255
    6886:	08 95       	ret

00006888 <__mulsf3>:
    6888:	0e 94 57 34 	call	0x68ae	; 0x68ae <__mulsf3x>
    688c:	0c 94 05 34 	jmp	0x680a	; 0x680a <__fp_round>
    6890:	0e 94 f7 33 	call	0x67ee	; 0x67ee <__fp_pscA>
    6894:	38 f0       	brcs	.+14     	; 0x68a4 <__mulsf3+0x1c>
    6896:	0e 94 fe 33 	call	0x67fc	; 0x67fc <__fp_pscB>
    689a:	20 f0       	brcs	.+8      	; 0x68a4 <__mulsf3+0x1c>
    689c:	95 23       	and	r25, r21
    689e:	11 f0       	breq	.+4      	; 0x68a4 <__mulsf3+0x1c>
    68a0:	0c 94 ee 33 	jmp	0x67dc	; 0x67dc <__fp_inf>
    68a4:	0c 94 f4 33 	jmp	0x67e8	; 0x67e8 <__fp_nan>
    68a8:	11 24       	eor	r1, r1
    68aa:	0c 94 39 34 	jmp	0x6872	; 0x6872 <__fp_szero>

000068ae <__mulsf3x>:
    68ae:	0e 94 16 34 	call	0x682c	; 0x682c <__fp_split3>
    68b2:	70 f3       	brcs	.-36     	; 0x6890 <__mulsf3+0x8>

000068b4 <__mulsf3_pse>:
    68b4:	95 9f       	mul	r25, r21
    68b6:	c1 f3       	breq	.-16     	; 0x68a8 <__mulsf3+0x20>
    68b8:	95 0f       	add	r25, r21
    68ba:	50 e0       	ldi	r21, 0x00	; 0
    68bc:	55 1f       	adc	r21, r21
    68be:	62 9f       	mul	r22, r18
    68c0:	f0 01       	movw	r30, r0
    68c2:	72 9f       	mul	r23, r18
    68c4:	bb 27       	eor	r27, r27
    68c6:	f0 0d       	add	r31, r0
    68c8:	b1 1d       	adc	r27, r1
    68ca:	63 9f       	mul	r22, r19
    68cc:	aa 27       	eor	r26, r26
    68ce:	f0 0d       	add	r31, r0
    68d0:	b1 1d       	adc	r27, r1
    68d2:	aa 1f       	adc	r26, r26
    68d4:	64 9f       	mul	r22, r20
    68d6:	66 27       	eor	r22, r22
    68d8:	b0 0d       	add	r27, r0
    68da:	a1 1d       	adc	r26, r1
    68dc:	66 1f       	adc	r22, r22
    68de:	82 9f       	mul	r24, r18
    68e0:	22 27       	eor	r18, r18
    68e2:	b0 0d       	add	r27, r0
    68e4:	a1 1d       	adc	r26, r1
    68e6:	62 1f       	adc	r22, r18
    68e8:	73 9f       	mul	r23, r19
    68ea:	b0 0d       	add	r27, r0
    68ec:	a1 1d       	adc	r26, r1
    68ee:	62 1f       	adc	r22, r18
    68f0:	83 9f       	mul	r24, r19
    68f2:	a0 0d       	add	r26, r0
    68f4:	61 1d       	adc	r22, r1
    68f6:	22 1f       	adc	r18, r18
    68f8:	74 9f       	mul	r23, r20
    68fa:	33 27       	eor	r19, r19
    68fc:	a0 0d       	add	r26, r0
    68fe:	61 1d       	adc	r22, r1
    6900:	23 1f       	adc	r18, r19
    6902:	84 9f       	mul	r24, r20
    6904:	60 0d       	add	r22, r0
    6906:	21 1d       	adc	r18, r1
    6908:	82 2f       	mov	r24, r18
    690a:	76 2f       	mov	r23, r22
    690c:	6a 2f       	mov	r22, r26
    690e:	11 24       	eor	r1, r1
    6910:	9f 57       	subi	r25, 0x7F	; 127
    6912:	50 40       	sbci	r21, 0x00	; 0
    6914:	9a f0       	brmi	.+38     	; 0x693c <__mulsf3_pse+0x88>
    6916:	f1 f0       	breq	.+60     	; 0x6954 <__mulsf3_pse+0xa0>
    6918:	88 23       	and	r24, r24
    691a:	4a f0       	brmi	.+18     	; 0x692e <__mulsf3_pse+0x7a>
    691c:	ee 0f       	add	r30, r30
    691e:	ff 1f       	adc	r31, r31
    6920:	bb 1f       	adc	r27, r27
    6922:	66 1f       	adc	r22, r22
    6924:	77 1f       	adc	r23, r23
    6926:	88 1f       	adc	r24, r24
    6928:	91 50       	subi	r25, 0x01	; 1
    692a:	50 40       	sbci	r21, 0x00	; 0
    692c:	a9 f7       	brne	.-22     	; 0x6918 <__mulsf3_pse+0x64>
    692e:	9e 3f       	cpi	r25, 0xFE	; 254
    6930:	51 05       	cpc	r21, r1
    6932:	80 f0       	brcs	.+32     	; 0x6954 <__mulsf3_pse+0xa0>
    6934:	0c 94 ee 33 	jmp	0x67dc	; 0x67dc <__fp_inf>
    6938:	0c 94 39 34 	jmp	0x6872	; 0x6872 <__fp_szero>
    693c:	5f 3f       	cpi	r21, 0xFF	; 255
    693e:	e4 f3       	brlt	.-8      	; 0x6938 <__mulsf3_pse+0x84>
    6940:	98 3e       	cpi	r25, 0xE8	; 232
    6942:	d4 f3       	brlt	.-12     	; 0x6938 <__mulsf3_pse+0x84>
    6944:	86 95       	lsr	r24
    6946:	77 95       	ror	r23
    6948:	67 95       	ror	r22
    694a:	b7 95       	ror	r27
    694c:	f7 95       	ror	r31
    694e:	e7 95       	ror	r30
    6950:	9f 5f       	subi	r25, 0xFF	; 255
    6952:	c1 f7       	brne	.-16     	; 0x6944 <__mulsf3_pse+0x90>
    6954:	fe 2b       	or	r31, r30
    6956:	88 0f       	add	r24, r24
    6958:	91 1d       	adc	r25, r1
    695a:	96 95       	lsr	r25
    695c:	87 95       	ror	r24
    695e:	97 f9       	bld	r25, 7
    6960:	08 95       	ret

00006962 <vfprintf>:
    6962:	2f 92       	push	r2
    6964:	3f 92       	push	r3
    6966:	4f 92       	push	r4
    6968:	5f 92       	push	r5
    696a:	6f 92       	push	r6
    696c:	7f 92       	push	r7
    696e:	8f 92       	push	r8
    6970:	9f 92       	push	r9
    6972:	af 92       	push	r10
    6974:	bf 92       	push	r11
    6976:	cf 92       	push	r12
    6978:	df 92       	push	r13
    697a:	ef 92       	push	r14
    697c:	ff 92       	push	r15
    697e:	0f 93       	push	r16
    6980:	1f 93       	push	r17
    6982:	cf 93       	push	r28
    6984:	df 93       	push	r29
    6986:	cd b7       	in	r28, 0x3d	; 61
    6988:	de b7       	in	r29, 0x3e	; 62
    698a:	60 97       	sbiw	r28, 0x10	; 16
    698c:	cd bf       	out	0x3d, r28	; 61
    698e:	de bf       	out	0x3e, r29	; 62
    6990:	7c 01       	movw	r14, r24
    6992:	1b 01       	movw	r2, r22
    6994:	6a 01       	movw	r12, r20
    6996:	fc 01       	movw	r30, r24
    6998:	16 82       	std	Z+6, r1	; 0x06
    699a:	17 82       	std	Z+7, r1	; 0x07
    699c:	83 81       	ldd	r24, Z+3	; 0x03
    699e:	81 ff       	sbrs	r24, 1
    69a0:	44 c3       	rjmp	.+1672   	; 0x702a <vfprintf+0x6c8>
    69a2:	9e 01       	movw	r18, r28
    69a4:	2f 5f       	subi	r18, 0xFF	; 255
    69a6:	3f 4f       	sbci	r19, 0xFF	; 255
    69a8:	39 01       	movw	r6, r18
    69aa:	f7 01       	movw	r30, r14
    69ac:	93 81       	ldd	r25, Z+3	; 0x03
    69ae:	f1 01       	movw	r30, r2
    69b0:	93 fd       	sbrc	r25, 3
    69b2:	85 91       	lpm	r24, Z+
    69b4:	93 ff       	sbrs	r25, 3
    69b6:	81 91       	ld	r24, Z+
    69b8:	1f 01       	movw	r2, r30
    69ba:	88 23       	and	r24, r24
    69bc:	09 f4       	brne	.+2      	; 0x69c0 <vfprintf+0x5e>
    69be:	31 c3       	rjmp	.+1634   	; 0x7022 <vfprintf+0x6c0>
    69c0:	85 32       	cpi	r24, 0x25	; 37
    69c2:	39 f4       	brne	.+14     	; 0x69d2 <vfprintf+0x70>
    69c4:	93 fd       	sbrc	r25, 3
    69c6:	85 91       	lpm	r24, Z+
    69c8:	93 ff       	sbrs	r25, 3
    69ca:	81 91       	ld	r24, Z+
    69cc:	1f 01       	movw	r2, r30
    69ce:	85 32       	cpi	r24, 0x25	; 37
    69d0:	39 f4       	brne	.+14     	; 0x69e0 <vfprintf+0x7e>
    69d2:	b7 01       	movw	r22, r14
    69d4:	90 e0       	ldi	r25, 0x00	; 0
    69d6:	0e 94 11 3b 	call	0x7622	; 0x7622 <fputc>
    69da:	56 01       	movw	r10, r12
    69dc:	65 01       	movw	r12, r10
    69de:	e5 cf       	rjmp	.-54     	; 0x69aa <vfprintf+0x48>
    69e0:	10 e0       	ldi	r17, 0x00	; 0
    69e2:	51 2c       	mov	r5, r1
    69e4:	91 2c       	mov	r9, r1
    69e6:	ff e1       	ldi	r31, 0x1F	; 31
    69e8:	f9 15       	cp	r31, r9
    69ea:	d8 f0       	brcs	.+54     	; 0x6a22 <vfprintf+0xc0>
    69ec:	8b 32       	cpi	r24, 0x2B	; 43
    69ee:	79 f0       	breq	.+30     	; 0x6a0e <vfprintf+0xac>
    69f0:	38 f4       	brcc	.+14     	; 0x6a00 <vfprintf+0x9e>
    69f2:	80 32       	cpi	r24, 0x20	; 32
    69f4:	79 f0       	breq	.+30     	; 0x6a14 <vfprintf+0xb2>
    69f6:	83 32       	cpi	r24, 0x23	; 35
    69f8:	a1 f4       	brne	.+40     	; 0x6a22 <vfprintf+0xc0>
    69fa:	f9 2d       	mov	r31, r9
    69fc:	f0 61       	ori	r31, 0x10	; 16
    69fe:	2e c0       	rjmp	.+92     	; 0x6a5c <vfprintf+0xfa>
    6a00:	8d 32       	cpi	r24, 0x2D	; 45
    6a02:	61 f0       	breq	.+24     	; 0x6a1c <vfprintf+0xba>
    6a04:	80 33       	cpi	r24, 0x30	; 48
    6a06:	69 f4       	brne	.+26     	; 0x6a22 <vfprintf+0xc0>
    6a08:	29 2d       	mov	r18, r9
    6a0a:	21 60       	ori	r18, 0x01	; 1
    6a0c:	2d c0       	rjmp	.+90     	; 0x6a68 <vfprintf+0x106>
    6a0e:	39 2d       	mov	r19, r9
    6a10:	32 60       	ori	r19, 0x02	; 2
    6a12:	93 2e       	mov	r9, r19
    6a14:	89 2d       	mov	r24, r9
    6a16:	84 60       	ori	r24, 0x04	; 4
    6a18:	98 2e       	mov	r9, r24
    6a1a:	2a c0       	rjmp	.+84     	; 0x6a70 <vfprintf+0x10e>
    6a1c:	e9 2d       	mov	r30, r9
    6a1e:	e8 60       	ori	r30, 0x08	; 8
    6a20:	15 c0       	rjmp	.+42     	; 0x6a4c <vfprintf+0xea>
    6a22:	97 fc       	sbrc	r9, 7
    6a24:	2d c0       	rjmp	.+90     	; 0x6a80 <vfprintf+0x11e>
    6a26:	20 ed       	ldi	r18, 0xD0	; 208
    6a28:	28 0f       	add	r18, r24
    6a2a:	2a 30       	cpi	r18, 0x0A	; 10
    6a2c:	88 f4       	brcc	.+34     	; 0x6a50 <vfprintf+0xee>
    6a2e:	96 fe       	sbrs	r9, 6
    6a30:	06 c0       	rjmp	.+12     	; 0x6a3e <vfprintf+0xdc>
    6a32:	3a e0       	ldi	r19, 0x0A	; 10
    6a34:	13 9f       	mul	r17, r19
    6a36:	20 0d       	add	r18, r0
    6a38:	11 24       	eor	r1, r1
    6a3a:	12 2f       	mov	r17, r18
    6a3c:	19 c0       	rjmp	.+50     	; 0x6a70 <vfprintf+0x10e>
    6a3e:	8a e0       	ldi	r24, 0x0A	; 10
    6a40:	58 9e       	mul	r5, r24
    6a42:	20 0d       	add	r18, r0
    6a44:	11 24       	eor	r1, r1
    6a46:	52 2e       	mov	r5, r18
    6a48:	e9 2d       	mov	r30, r9
    6a4a:	e0 62       	ori	r30, 0x20	; 32
    6a4c:	9e 2e       	mov	r9, r30
    6a4e:	10 c0       	rjmp	.+32     	; 0x6a70 <vfprintf+0x10e>
    6a50:	8e 32       	cpi	r24, 0x2E	; 46
    6a52:	31 f4       	brne	.+12     	; 0x6a60 <vfprintf+0xfe>
    6a54:	96 fc       	sbrc	r9, 6
    6a56:	e5 c2       	rjmp	.+1482   	; 0x7022 <vfprintf+0x6c0>
    6a58:	f9 2d       	mov	r31, r9
    6a5a:	f0 64       	ori	r31, 0x40	; 64
    6a5c:	9f 2e       	mov	r9, r31
    6a5e:	08 c0       	rjmp	.+16     	; 0x6a70 <vfprintf+0x10e>
    6a60:	8c 36       	cpi	r24, 0x6C	; 108
    6a62:	21 f4       	brne	.+8      	; 0x6a6c <vfprintf+0x10a>
    6a64:	29 2d       	mov	r18, r9
    6a66:	20 68       	ori	r18, 0x80	; 128
    6a68:	92 2e       	mov	r9, r18
    6a6a:	02 c0       	rjmp	.+4      	; 0x6a70 <vfprintf+0x10e>
    6a6c:	88 36       	cpi	r24, 0x68	; 104
    6a6e:	41 f4       	brne	.+16     	; 0x6a80 <vfprintf+0x11e>
    6a70:	f1 01       	movw	r30, r2
    6a72:	93 fd       	sbrc	r25, 3
    6a74:	85 91       	lpm	r24, Z+
    6a76:	93 ff       	sbrs	r25, 3
    6a78:	81 91       	ld	r24, Z+
    6a7a:	1f 01       	movw	r2, r30
    6a7c:	81 11       	cpse	r24, r1
    6a7e:	b3 cf       	rjmp	.-154    	; 0x69e6 <vfprintf+0x84>
    6a80:	9b eb       	ldi	r25, 0xBB	; 187
    6a82:	98 0f       	add	r25, r24
    6a84:	93 30       	cpi	r25, 0x03	; 3
    6a86:	20 f4       	brcc	.+8      	; 0x6a90 <vfprintf+0x12e>
    6a88:	99 2d       	mov	r25, r9
    6a8a:	90 61       	ori	r25, 0x10	; 16
    6a8c:	80 5e       	subi	r24, 0xE0	; 224
    6a8e:	07 c0       	rjmp	.+14     	; 0x6a9e <vfprintf+0x13c>
    6a90:	9b e9       	ldi	r25, 0x9B	; 155
    6a92:	98 0f       	add	r25, r24
    6a94:	93 30       	cpi	r25, 0x03	; 3
    6a96:	08 f0       	brcs	.+2      	; 0x6a9a <vfprintf+0x138>
    6a98:	66 c1       	rjmp	.+716    	; 0x6d66 <vfprintf+0x404>
    6a9a:	99 2d       	mov	r25, r9
    6a9c:	9f 7e       	andi	r25, 0xEF	; 239
    6a9e:	96 ff       	sbrs	r25, 6
    6aa0:	16 e0       	ldi	r17, 0x06	; 6
    6aa2:	9f 73       	andi	r25, 0x3F	; 63
    6aa4:	99 2e       	mov	r9, r25
    6aa6:	85 36       	cpi	r24, 0x65	; 101
    6aa8:	19 f4       	brne	.+6      	; 0x6ab0 <vfprintf+0x14e>
    6aaa:	90 64       	ori	r25, 0x40	; 64
    6aac:	99 2e       	mov	r9, r25
    6aae:	08 c0       	rjmp	.+16     	; 0x6ac0 <vfprintf+0x15e>
    6ab0:	86 36       	cpi	r24, 0x66	; 102
    6ab2:	21 f4       	brne	.+8      	; 0x6abc <vfprintf+0x15a>
    6ab4:	39 2f       	mov	r19, r25
    6ab6:	30 68       	ori	r19, 0x80	; 128
    6ab8:	93 2e       	mov	r9, r19
    6aba:	02 c0       	rjmp	.+4      	; 0x6ac0 <vfprintf+0x15e>
    6abc:	11 11       	cpse	r17, r1
    6abe:	11 50       	subi	r17, 0x01	; 1
    6ac0:	97 fe       	sbrs	r9, 7
    6ac2:	07 c0       	rjmp	.+14     	; 0x6ad2 <vfprintf+0x170>
    6ac4:	1c 33       	cpi	r17, 0x3C	; 60
    6ac6:	50 f4       	brcc	.+20     	; 0x6adc <vfprintf+0x17a>
    6ac8:	44 24       	eor	r4, r4
    6aca:	43 94       	inc	r4
    6acc:	41 0e       	add	r4, r17
    6ace:	27 e0       	ldi	r18, 0x07	; 7
    6ad0:	0b c0       	rjmp	.+22     	; 0x6ae8 <vfprintf+0x186>
    6ad2:	18 30       	cpi	r17, 0x08	; 8
    6ad4:	38 f0       	brcs	.+14     	; 0x6ae4 <vfprintf+0x182>
    6ad6:	27 e0       	ldi	r18, 0x07	; 7
    6ad8:	17 e0       	ldi	r17, 0x07	; 7
    6ada:	05 c0       	rjmp	.+10     	; 0x6ae6 <vfprintf+0x184>
    6adc:	27 e0       	ldi	r18, 0x07	; 7
    6ade:	9c e3       	ldi	r25, 0x3C	; 60
    6ae0:	49 2e       	mov	r4, r25
    6ae2:	02 c0       	rjmp	.+4      	; 0x6ae8 <vfprintf+0x186>
    6ae4:	21 2f       	mov	r18, r17
    6ae6:	41 2c       	mov	r4, r1
    6ae8:	56 01       	movw	r10, r12
    6aea:	84 e0       	ldi	r24, 0x04	; 4
    6aec:	a8 0e       	add	r10, r24
    6aee:	b1 1c       	adc	r11, r1
    6af0:	f6 01       	movw	r30, r12
    6af2:	60 81       	ld	r22, Z
    6af4:	71 81       	ldd	r23, Z+1	; 0x01
    6af6:	82 81       	ldd	r24, Z+2	; 0x02
    6af8:	93 81       	ldd	r25, Z+3	; 0x03
    6afa:	04 2d       	mov	r16, r4
    6afc:	a3 01       	movw	r20, r6
    6afe:	0e 94 d8 39 	call	0x73b0	; 0x73b0 <__ftoa_engine>
    6b02:	6c 01       	movw	r12, r24
    6b04:	f9 81       	ldd	r31, Y+1	; 0x01
    6b06:	fc 87       	std	Y+12, r31	; 0x0c
    6b08:	f0 ff       	sbrs	r31, 0
    6b0a:	02 c0       	rjmp	.+4      	; 0x6b10 <vfprintf+0x1ae>
    6b0c:	f3 ff       	sbrs	r31, 3
    6b0e:	06 c0       	rjmp	.+12     	; 0x6b1c <vfprintf+0x1ba>
    6b10:	91 fc       	sbrc	r9, 1
    6b12:	06 c0       	rjmp	.+12     	; 0x6b20 <vfprintf+0x1be>
    6b14:	92 fe       	sbrs	r9, 2
    6b16:	06 c0       	rjmp	.+12     	; 0x6b24 <vfprintf+0x1c2>
    6b18:	00 e2       	ldi	r16, 0x20	; 32
    6b1a:	05 c0       	rjmp	.+10     	; 0x6b26 <vfprintf+0x1c4>
    6b1c:	0d e2       	ldi	r16, 0x2D	; 45
    6b1e:	03 c0       	rjmp	.+6      	; 0x6b26 <vfprintf+0x1c4>
    6b20:	0b e2       	ldi	r16, 0x2B	; 43
    6b22:	01 c0       	rjmp	.+2      	; 0x6b26 <vfprintf+0x1c4>
    6b24:	00 e0       	ldi	r16, 0x00	; 0
    6b26:	8c 85       	ldd	r24, Y+12	; 0x0c
    6b28:	8c 70       	andi	r24, 0x0C	; 12
    6b2a:	19 f0       	breq	.+6      	; 0x6b32 <vfprintf+0x1d0>
    6b2c:	01 11       	cpse	r16, r1
    6b2e:	5a c2       	rjmp	.+1204   	; 0x6fe4 <vfprintf+0x682>
    6b30:	9b c2       	rjmp	.+1334   	; 0x7068 <vfprintf+0x706>
    6b32:	97 fe       	sbrs	r9, 7
    6b34:	10 c0       	rjmp	.+32     	; 0x6b56 <vfprintf+0x1f4>
    6b36:	4c 0c       	add	r4, r12
    6b38:	fc 85       	ldd	r31, Y+12	; 0x0c
    6b3a:	f4 ff       	sbrs	r31, 4
    6b3c:	04 c0       	rjmp	.+8      	; 0x6b46 <vfprintf+0x1e4>
    6b3e:	8a 81       	ldd	r24, Y+2	; 0x02
    6b40:	81 33       	cpi	r24, 0x31	; 49
    6b42:	09 f4       	brne	.+2      	; 0x6b46 <vfprintf+0x1e4>
    6b44:	4a 94       	dec	r4
    6b46:	14 14       	cp	r1, r4
    6b48:	74 f5       	brge	.+92     	; 0x6ba6 <vfprintf+0x244>
    6b4a:	28 e0       	ldi	r18, 0x08	; 8
    6b4c:	24 15       	cp	r18, r4
    6b4e:	78 f5       	brcc	.+94     	; 0x6bae <vfprintf+0x24c>
    6b50:	88 e0       	ldi	r24, 0x08	; 8
    6b52:	48 2e       	mov	r4, r24
    6b54:	2c c0       	rjmp	.+88     	; 0x6bae <vfprintf+0x24c>
    6b56:	96 fc       	sbrc	r9, 6
    6b58:	2a c0       	rjmp	.+84     	; 0x6bae <vfprintf+0x24c>
    6b5a:	81 2f       	mov	r24, r17
    6b5c:	90 e0       	ldi	r25, 0x00	; 0
    6b5e:	8c 15       	cp	r24, r12
    6b60:	9d 05       	cpc	r25, r13
    6b62:	9c f0       	brlt	.+38     	; 0x6b8a <vfprintf+0x228>
    6b64:	3c ef       	ldi	r19, 0xFC	; 252
    6b66:	c3 16       	cp	r12, r19
    6b68:	3f ef       	ldi	r19, 0xFF	; 255
    6b6a:	d3 06       	cpc	r13, r19
    6b6c:	74 f0       	brlt	.+28     	; 0x6b8a <vfprintf+0x228>
    6b6e:	89 2d       	mov	r24, r9
    6b70:	80 68       	ori	r24, 0x80	; 128
    6b72:	98 2e       	mov	r9, r24
    6b74:	0a c0       	rjmp	.+20     	; 0x6b8a <vfprintf+0x228>
    6b76:	e2 e0       	ldi	r30, 0x02	; 2
    6b78:	f0 e0       	ldi	r31, 0x00	; 0
    6b7a:	ec 0f       	add	r30, r28
    6b7c:	fd 1f       	adc	r31, r29
    6b7e:	e1 0f       	add	r30, r17
    6b80:	f1 1d       	adc	r31, r1
    6b82:	80 81       	ld	r24, Z
    6b84:	80 33       	cpi	r24, 0x30	; 48
    6b86:	19 f4       	brne	.+6      	; 0x6b8e <vfprintf+0x22c>
    6b88:	11 50       	subi	r17, 0x01	; 1
    6b8a:	11 11       	cpse	r17, r1
    6b8c:	f4 cf       	rjmp	.-24     	; 0x6b76 <vfprintf+0x214>
    6b8e:	97 fe       	sbrs	r9, 7
    6b90:	0e c0       	rjmp	.+28     	; 0x6bae <vfprintf+0x24c>
    6b92:	44 24       	eor	r4, r4
    6b94:	43 94       	inc	r4
    6b96:	41 0e       	add	r4, r17
    6b98:	81 2f       	mov	r24, r17
    6b9a:	90 e0       	ldi	r25, 0x00	; 0
    6b9c:	c8 16       	cp	r12, r24
    6b9e:	d9 06       	cpc	r13, r25
    6ba0:	2c f4       	brge	.+10     	; 0x6bac <vfprintf+0x24a>
    6ba2:	1c 19       	sub	r17, r12
    6ba4:	04 c0       	rjmp	.+8      	; 0x6bae <vfprintf+0x24c>
    6ba6:	44 24       	eor	r4, r4
    6ba8:	43 94       	inc	r4
    6baa:	01 c0       	rjmp	.+2      	; 0x6bae <vfprintf+0x24c>
    6bac:	10 e0       	ldi	r17, 0x00	; 0
    6bae:	97 fe       	sbrs	r9, 7
    6bb0:	06 c0       	rjmp	.+12     	; 0x6bbe <vfprintf+0x25c>
    6bb2:	1c 14       	cp	r1, r12
    6bb4:	1d 04       	cpc	r1, r13
    6bb6:	34 f4       	brge	.+12     	; 0x6bc4 <vfprintf+0x262>
    6bb8:	c6 01       	movw	r24, r12
    6bba:	01 96       	adiw	r24, 0x01	; 1
    6bbc:	05 c0       	rjmp	.+10     	; 0x6bc8 <vfprintf+0x266>
    6bbe:	85 e0       	ldi	r24, 0x05	; 5
    6bc0:	90 e0       	ldi	r25, 0x00	; 0
    6bc2:	02 c0       	rjmp	.+4      	; 0x6bc8 <vfprintf+0x266>
    6bc4:	81 e0       	ldi	r24, 0x01	; 1
    6bc6:	90 e0       	ldi	r25, 0x00	; 0
    6bc8:	01 11       	cpse	r16, r1
    6bca:	01 96       	adiw	r24, 0x01	; 1
    6bcc:	11 23       	and	r17, r17
    6bce:	31 f0       	breq	.+12     	; 0x6bdc <vfprintf+0x27a>
    6bd0:	21 2f       	mov	r18, r17
    6bd2:	30 e0       	ldi	r19, 0x00	; 0
    6bd4:	2f 5f       	subi	r18, 0xFF	; 255
    6bd6:	3f 4f       	sbci	r19, 0xFF	; 255
    6bd8:	82 0f       	add	r24, r18
    6bda:	93 1f       	adc	r25, r19
    6bdc:	25 2d       	mov	r18, r5
    6bde:	30 e0       	ldi	r19, 0x00	; 0
    6be0:	82 17       	cp	r24, r18
    6be2:	93 07       	cpc	r25, r19
    6be4:	14 f4       	brge	.+4      	; 0x6bea <vfprintf+0x288>
    6be6:	58 1a       	sub	r5, r24
    6be8:	01 c0       	rjmp	.+2      	; 0x6bec <vfprintf+0x28a>
    6bea:	51 2c       	mov	r5, r1
    6bec:	89 2d       	mov	r24, r9
    6bee:	89 70       	andi	r24, 0x09	; 9
    6bf0:	49 f4       	brne	.+18     	; 0x6c04 <vfprintf+0x2a2>
    6bf2:	55 20       	and	r5, r5
    6bf4:	39 f0       	breq	.+14     	; 0x6c04 <vfprintf+0x2a2>
    6bf6:	b7 01       	movw	r22, r14
    6bf8:	80 e2       	ldi	r24, 0x20	; 32
    6bfa:	90 e0       	ldi	r25, 0x00	; 0
    6bfc:	0e 94 11 3b 	call	0x7622	; 0x7622 <fputc>
    6c00:	5a 94       	dec	r5
    6c02:	f7 cf       	rjmp	.-18     	; 0x6bf2 <vfprintf+0x290>
    6c04:	00 23       	and	r16, r16
    6c06:	29 f0       	breq	.+10     	; 0x6c12 <vfprintf+0x2b0>
    6c08:	b7 01       	movw	r22, r14
    6c0a:	80 2f       	mov	r24, r16
    6c0c:	90 e0       	ldi	r25, 0x00	; 0
    6c0e:	0e 94 11 3b 	call	0x7622	; 0x7622 <fputc>
    6c12:	93 fc       	sbrc	r9, 3
    6c14:	09 c0       	rjmp	.+18     	; 0x6c28 <vfprintf+0x2c6>
    6c16:	55 20       	and	r5, r5
    6c18:	39 f0       	breq	.+14     	; 0x6c28 <vfprintf+0x2c6>
    6c1a:	b7 01       	movw	r22, r14
    6c1c:	80 e3       	ldi	r24, 0x30	; 48
    6c1e:	90 e0       	ldi	r25, 0x00	; 0
    6c20:	0e 94 11 3b 	call	0x7622	; 0x7622 <fputc>
    6c24:	5a 94       	dec	r5
    6c26:	f7 cf       	rjmp	.-18     	; 0x6c16 <vfprintf+0x2b4>
    6c28:	97 fe       	sbrs	r9, 7
    6c2a:	4c c0       	rjmp	.+152    	; 0x6cc4 <vfprintf+0x362>
    6c2c:	46 01       	movw	r8, r12
    6c2e:	d7 fe       	sbrs	r13, 7
    6c30:	02 c0       	rjmp	.+4      	; 0x6c36 <vfprintf+0x2d4>
    6c32:	81 2c       	mov	r8, r1
    6c34:	91 2c       	mov	r9, r1
    6c36:	c6 01       	movw	r24, r12
    6c38:	88 19       	sub	r24, r8
    6c3a:	99 09       	sbc	r25, r9
    6c3c:	f3 01       	movw	r30, r6
    6c3e:	e8 0f       	add	r30, r24
    6c40:	f9 1f       	adc	r31, r25
    6c42:	ed 87       	std	Y+13, r30	; 0x0d
    6c44:	fe 87       	std	Y+14, r31	; 0x0e
    6c46:	96 01       	movw	r18, r12
    6c48:	24 19       	sub	r18, r4
    6c4a:	31 09       	sbc	r19, r1
    6c4c:	2f 87       	std	Y+15, r18	; 0x0f
    6c4e:	38 8b       	std	Y+16, r19	; 0x10
    6c50:	01 2f       	mov	r16, r17
    6c52:	10 e0       	ldi	r17, 0x00	; 0
    6c54:	11 95       	neg	r17
    6c56:	01 95       	neg	r16
    6c58:	11 09       	sbc	r17, r1
    6c5a:	3f ef       	ldi	r19, 0xFF	; 255
    6c5c:	83 16       	cp	r8, r19
    6c5e:	93 06       	cpc	r9, r19
    6c60:	29 f4       	brne	.+10     	; 0x6c6c <vfprintf+0x30a>
    6c62:	b7 01       	movw	r22, r14
    6c64:	8e e2       	ldi	r24, 0x2E	; 46
    6c66:	90 e0       	ldi	r25, 0x00	; 0
    6c68:	0e 94 11 3b 	call	0x7622	; 0x7622 <fputc>
    6c6c:	c8 14       	cp	r12, r8
    6c6e:	d9 04       	cpc	r13, r9
    6c70:	4c f0       	brlt	.+18     	; 0x6c84 <vfprintf+0x322>
    6c72:	8f 85       	ldd	r24, Y+15	; 0x0f
    6c74:	98 89       	ldd	r25, Y+16	; 0x10
    6c76:	88 15       	cp	r24, r8
    6c78:	99 05       	cpc	r25, r9
    6c7a:	24 f4       	brge	.+8      	; 0x6c84 <vfprintf+0x322>
    6c7c:	ed 85       	ldd	r30, Y+13	; 0x0d
    6c7e:	fe 85       	ldd	r31, Y+14	; 0x0e
    6c80:	81 81       	ldd	r24, Z+1	; 0x01
    6c82:	01 c0       	rjmp	.+2      	; 0x6c86 <vfprintf+0x324>
    6c84:	80 e3       	ldi	r24, 0x30	; 48
    6c86:	f1 e0       	ldi	r31, 0x01	; 1
    6c88:	8f 1a       	sub	r8, r31
    6c8a:	91 08       	sbc	r9, r1
    6c8c:	2d 85       	ldd	r18, Y+13	; 0x0d
    6c8e:	3e 85       	ldd	r19, Y+14	; 0x0e
    6c90:	2f 5f       	subi	r18, 0xFF	; 255
    6c92:	3f 4f       	sbci	r19, 0xFF	; 255
    6c94:	2d 87       	std	Y+13, r18	; 0x0d
    6c96:	3e 87       	std	Y+14, r19	; 0x0e
    6c98:	80 16       	cp	r8, r16
    6c9a:	91 06       	cpc	r9, r17
    6c9c:	2c f0       	brlt	.+10     	; 0x6ca8 <vfprintf+0x346>
    6c9e:	b7 01       	movw	r22, r14
    6ca0:	90 e0       	ldi	r25, 0x00	; 0
    6ca2:	0e 94 11 3b 	call	0x7622	; 0x7622 <fputc>
    6ca6:	d9 cf       	rjmp	.-78     	; 0x6c5a <vfprintf+0x2f8>
    6ca8:	c8 14       	cp	r12, r8
    6caa:	d9 04       	cpc	r13, r9
    6cac:	41 f4       	brne	.+16     	; 0x6cbe <vfprintf+0x35c>
    6cae:	9a 81       	ldd	r25, Y+2	; 0x02
    6cb0:	96 33       	cpi	r25, 0x36	; 54
    6cb2:	20 f4       	brcc	.+8      	; 0x6cbc <vfprintf+0x35a>
    6cb4:	95 33       	cpi	r25, 0x35	; 53
    6cb6:	19 f4       	brne	.+6      	; 0x6cbe <vfprintf+0x35c>
    6cb8:	3c 85       	ldd	r19, Y+12	; 0x0c
    6cba:	34 ff       	sbrs	r19, 4
    6cbc:	81 e3       	ldi	r24, 0x31	; 49
    6cbe:	b7 01       	movw	r22, r14
    6cc0:	90 e0       	ldi	r25, 0x00	; 0
    6cc2:	4e c0       	rjmp	.+156    	; 0x6d60 <vfprintf+0x3fe>
    6cc4:	8a 81       	ldd	r24, Y+2	; 0x02
    6cc6:	81 33       	cpi	r24, 0x31	; 49
    6cc8:	19 f0       	breq	.+6      	; 0x6cd0 <vfprintf+0x36e>
    6cca:	9c 85       	ldd	r25, Y+12	; 0x0c
    6ccc:	9f 7e       	andi	r25, 0xEF	; 239
    6cce:	9c 87       	std	Y+12, r25	; 0x0c
    6cd0:	b7 01       	movw	r22, r14
    6cd2:	90 e0       	ldi	r25, 0x00	; 0
    6cd4:	0e 94 11 3b 	call	0x7622	; 0x7622 <fputc>
    6cd8:	11 11       	cpse	r17, r1
    6cda:	05 c0       	rjmp	.+10     	; 0x6ce6 <vfprintf+0x384>
    6cdc:	94 fc       	sbrc	r9, 4
    6cde:	18 c0       	rjmp	.+48     	; 0x6d10 <vfprintf+0x3ae>
    6ce0:	85 e6       	ldi	r24, 0x65	; 101
    6ce2:	90 e0       	ldi	r25, 0x00	; 0
    6ce4:	17 c0       	rjmp	.+46     	; 0x6d14 <vfprintf+0x3b2>
    6ce6:	b7 01       	movw	r22, r14
    6ce8:	8e e2       	ldi	r24, 0x2E	; 46
    6cea:	90 e0       	ldi	r25, 0x00	; 0
    6cec:	0e 94 11 3b 	call	0x7622	; 0x7622 <fputc>
    6cf0:	1e 5f       	subi	r17, 0xFE	; 254
    6cf2:	82 e0       	ldi	r24, 0x02	; 2
    6cf4:	01 e0       	ldi	r16, 0x01	; 1
    6cf6:	08 0f       	add	r16, r24
    6cf8:	f3 01       	movw	r30, r6
    6cfa:	e8 0f       	add	r30, r24
    6cfc:	f1 1d       	adc	r31, r1
    6cfe:	80 81       	ld	r24, Z
    6d00:	b7 01       	movw	r22, r14
    6d02:	90 e0       	ldi	r25, 0x00	; 0
    6d04:	0e 94 11 3b 	call	0x7622	; 0x7622 <fputc>
    6d08:	80 2f       	mov	r24, r16
    6d0a:	01 13       	cpse	r16, r17
    6d0c:	f3 cf       	rjmp	.-26     	; 0x6cf4 <vfprintf+0x392>
    6d0e:	e6 cf       	rjmp	.-52     	; 0x6cdc <vfprintf+0x37a>
    6d10:	85 e4       	ldi	r24, 0x45	; 69
    6d12:	90 e0       	ldi	r25, 0x00	; 0
    6d14:	b7 01       	movw	r22, r14
    6d16:	0e 94 11 3b 	call	0x7622	; 0x7622 <fputc>
    6d1a:	d7 fc       	sbrc	r13, 7
    6d1c:	06 c0       	rjmp	.+12     	; 0x6d2a <vfprintf+0x3c8>
    6d1e:	c1 14       	cp	r12, r1
    6d20:	d1 04       	cpc	r13, r1
    6d22:	41 f4       	brne	.+16     	; 0x6d34 <vfprintf+0x3d2>
    6d24:	ec 85       	ldd	r30, Y+12	; 0x0c
    6d26:	e4 ff       	sbrs	r30, 4
    6d28:	05 c0       	rjmp	.+10     	; 0x6d34 <vfprintf+0x3d2>
    6d2a:	d1 94       	neg	r13
    6d2c:	c1 94       	neg	r12
    6d2e:	d1 08       	sbc	r13, r1
    6d30:	8d e2       	ldi	r24, 0x2D	; 45
    6d32:	01 c0       	rjmp	.+2      	; 0x6d36 <vfprintf+0x3d4>
    6d34:	8b e2       	ldi	r24, 0x2B	; 43
    6d36:	b7 01       	movw	r22, r14
    6d38:	90 e0       	ldi	r25, 0x00	; 0
    6d3a:	0e 94 11 3b 	call	0x7622	; 0x7622 <fputc>
    6d3e:	80 e3       	ldi	r24, 0x30	; 48
    6d40:	2a e0       	ldi	r18, 0x0A	; 10
    6d42:	c2 16       	cp	r12, r18
    6d44:	d1 04       	cpc	r13, r1
    6d46:	2c f0       	brlt	.+10     	; 0x6d52 <vfprintf+0x3f0>
    6d48:	8f 5f       	subi	r24, 0xFF	; 255
    6d4a:	fa e0       	ldi	r31, 0x0A	; 10
    6d4c:	cf 1a       	sub	r12, r31
    6d4e:	d1 08       	sbc	r13, r1
    6d50:	f7 cf       	rjmp	.-18     	; 0x6d40 <vfprintf+0x3de>
    6d52:	b7 01       	movw	r22, r14
    6d54:	90 e0       	ldi	r25, 0x00	; 0
    6d56:	0e 94 11 3b 	call	0x7622	; 0x7622 <fputc>
    6d5a:	b7 01       	movw	r22, r14
    6d5c:	c6 01       	movw	r24, r12
    6d5e:	c0 96       	adiw	r24, 0x30	; 48
    6d60:	0e 94 11 3b 	call	0x7622	; 0x7622 <fputc>
    6d64:	54 c1       	rjmp	.+680    	; 0x700e <vfprintf+0x6ac>
    6d66:	83 36       	cpi	r24, 0x63	; 99
    6d68:	31 f0       	breq	.+12     	; 0x6d76 <vfprintf+0x414>
    6d6a:	83 37       	cpi	r24, 0x73	; 115
    6d6c:	79 f0       	breq	.+30     	; 0x6d8c <vfprintf+0x42a>
    6d6e:	83 35       	cpi	r24, 0x53	; 83
    6d70:	09 f0       	breq	.+2      	; 0x6d74 <vfprintf+0x412>
    6d72:	56 c0       	rjmp	.+172    	; 0x6e20 <vfprintf+0x4be>
    6d74:	20 c0       	rjmp	.+64     	; 0x6db6 <vfprintf+0x454>
    6d76:	56 01       	movw	r10, r12
    6d78:	32 e0       	ldi	r19, 0x02	; 2
    6d7a:	a3 0e       	add	r10, r19
    6d7c:	b1 1c       	adc	r11, r1
    6d7e:	f6 01       	movw	r30, r12
    6d80:	80 81       	ld	r24, Z
    6d82:	89 83       	std	Y+1, r24	; 0x01
    6d84:	01 e0       	ldi	r16, 0x01	; 1
    6d86:	10 e0       	ldi	r17, 0x00	; 0
    6d88:	63 01       	movw	r12, r6
    6d8a:	12 c0       	rjmp	.+36     	; 0x6db0 <vfprintf+0x44e>
    6d8c:	56 01       	movw	r10, r12
    6d8e:	f2 e0       	ldi	r31, 0x02	; 2
    6d90:	af 0e       	add	r10, r31
    6d92:	b1 1c       	adc	r11, r1
    6d94:	f6 01       	movw	r30, r12
    6d96:	c0 80       	ld	r12, Z
    6d98:	d1 80       	ldd	r13, Z+1	; 0x01
    6d9a:	96 fe       	sbrs	r9, 6
    6d9c:	03 c0       	rjmp	.+6      	; 0x6da4 <vfprintf+0x442>
    6d9e:	61 2f       	mov	r22, r17
    6da0:	70 e0       	ldi	r23, 0x00	; 0
    6da2:	02 c0       	rjmp	.+4      	; 0x6da8 <vfprintf+0x446>
    6da4:	6f ef       	ldi	r22, 0xFF	; 255
    6da6:	7f ef       	ldi	r23, 0xFF	; 255
    6da8:	c6 01       	movw	r24, r12
    6daa:	0e 94 bb 3a 	call	0x7576	; 0x7576 <strnlen>
    6dae:	8c 01       	movw	r16, r24
    6db0:	f9 2d       	mov	r31, r9
    6db2:	ff 77       	andi	r31, 0x7F	; 127
    6db4:	14 c0       	rjmp	.+40     	; 0x6dde <vfprintf+0x47c>
    6db6:	56 01       	movw	r10, r12
    6db8:	22 e0       	ldi	r18, 0x02	; 2
    6dba:	a2 0e       	add	r10, r18
    6dbc:	b1 1c       	adc	r11, r1
    6dbe:	f6 01       	movw	r30, r12
    6dc0:	c0 80       	ld	r12, Z
    6dc2:	d1 80       	ldd	r13, Z+1	; 0x01
    6dc4:	96 fe       	sbrs	r9, 6
    6dc6:	03 c0       	rjmp	.+6      	; 0x6dce <vfprintf+0x46c>
    6dc8:	61 2f       	mov	r22, r17
    6dca:	70 e0       	ldi	r23, 0x00	; 0
    6dcc:	02 c0       	rjmp	.+4      	; 0x6dd2 <vfprintf+0x470>
    6dce:	6f ef       	ldi	r22, 0xFF	; 255
    6dd0:	7f ef       	ldi	r23, 0xFF	; 255
    6dd2:	c6 01       	movw	r24, r12
    6dd4:	0e 94 b0 3a 	call	0x7560	; 0x7560 <strnlen_P>
    6dd8:	8c 01       	movw	r16, r24
    6dda:	f9 2d       	mov	r31, r9
    6ddc:	f0 68       	ori	r31, 0x80	; 128
    6dde:	9f 2e       	mov	r9, r31
    6de0:	f3 fd       	sbrc	r31, 3
    6de2:	1a c0       	rjmp	.+52     	; 0x6e18 <vfprintf+0x4b6>
    6de4:	85 2d       	mov	r24, r5
    6de6:	90 e0       	ldi	r25, 0x00	; 0
    6de8:	08 17       	cp	r16, r24
    6dea:	19 07       	cpc	r17, r25
    6dec:	a8 f4       	brcc	.+42     	; 0x6e18 <vfprintf+0x4b6>
    6dee:	b7 01       	movw	r22, r14
    6df0:	80 e2       	ldi	r24, 0x20	; 32
    6df2:	90 e0       	ldi	r25, 0x00	; 0
    6df4:	0e 94 11 3b 	call	0x7622	; 0x7622 <fputc>
    6df8:	5a 94       	dec	r5
    6dfa:	f4 cf       	rjmp	.-24     	; 0x6de4 <vfprintf+0x482>
    6dfc:	f6 01       	movw	r30, r12
    6dfe:	97 fc       	sbrc	r9, 7
    6e00:	85 91       	lpm	r24, Z+
    6e02:	97 fe       	sbrs	r9, 7
    6e04:	81 91       	ld	r24, Z+
    6e06:	6f 01       	movw	r12, r30
    6e08:	b7 01       	movw	r22, r14
    6e0a:	90 e0       	ldi	r25, 0x00	; 0
    6e0c:	0e 94 11 3b 	call	0x7622	; 0x7622 <fputc>
    6e10:	51 10       	cpse	r5, r1
    6e12:	5a 94       	dec	r5
    6e14:	01 50       	subi	r16, 0x01	; 1
    6e16:	11 09       	sbc	r17, r1
    6e18:	01 15       	cp	r16, r1
    6e1a:	11 05       	cpc	r17, r1
    6e1c:	79 f7       	brne	.-34     	; 0x6dfc <vfprintf+0x49a>
    6e1e:	f7 c0       	rjmp	.+494    	; 0x700e <vfprintf+0x6ac>
    6e20:	84 36       	cpi	r24, 0x64	; 100
    6e22:	11 f0       	breq	.+4      	; 0x6e28 <vfprintf+0x4c6>
    6e24:	89 36       	cpi	r24, 0x69	; 105
    6e26:	61 f5       	brne	.+88     	; 0x6e80 <vfprintf+0x51e>
    6e28:	56 01       	movw	r10, r12
    6e2a:	97 fe       	sbrs	r9, 7
    6e2c:	09 c0       	rjmp	.+18     	; 0x6e40 <vfprintf+0x4de>
    6e2e:	24 e0       	ldi	r18, 0x04	; 4
    6e30:	a2 0e       	add	r10, r18
    6e32:	b1 1c       	adc	r11, r1
    6e34:	f6 01       	movw	r30, r12
    6e36:	60 81       	ld	r22, Z
    6e38:	71 81       	ldd	r23, Z+1	; 0x01
    6e3a:	82 81       	ldd	r24, Z+2	; 0x02
    6e3c:	93 81       	ldd	r25, Z+3	; 0x03
    6e3e:	0a c0       	rjmp	.+20     	; 0x6e54 <vfprintf+0x4f2>
    6e40:	f2 e0       	ldi	r31, 0x02	; 2
    6e42:	af 0e       	add	r10, r31
    6e44:	b1 1c       	adc	r11, r1
    6e46:	f6 01       	movw	r30, r12
    6e48:	60 81       	ld	r22, Z
    6e4a:	71 81       	ldd	r23, Z+1	; 0x01
    6e4c:	07 2e       	mov	r0, r23
    6e4e:	00 0c       	add	r0, r0
    6e50:	88 0b       	sbc	r24, r24
    6e52:	99 0b       	sbc	r25, r25
    6e54:	f9 2d       	mov	r31, r9
    6e56:	ff 76       	andi	r31, 0x6F	; 111
    6e58:	9f 2e       	mov	r9, r31
    6e5a:	97 ff       	sbrs	r25, 7
    6e5c:	09 c0       	rjmp	.+18     	; 0x6e70 <vfprintf+0x50e>
    6e5e:	90 95       	com	r25
    6e60:	80 95       	com	r24
    6e62:	70 95       	com	r23
    6e64:	61 95       	neg	r22
    6e66:	7f 4f       	sbci	r23, 0xFF	; 255
    6e68:	8f 4f       	sbci	r24, 0xFF	; 255
    6e6a:	9f 4f       	sbci	r25, 0xFF	; 255
    6e6c:	f0 68       	ori	r31, 0x80	; 128
    6e6e:	9f 2e       	mov	r9, r31
    6e70:	2a e0       	ldi	r18, 0x0A	; 10
    6e72:	30 e0       	ldi	r19, 0x00	; 0
    6e74:	a3 01       	movw	r20, r6
    6e76:	0e 94 91 3b 	call	0x7722	; 0x7722 <__ultoa_invert>
    6e7a:	c8 2e       	mov	r12, r24
    6e7c:	c6 18       	sub	r12, r6
    6e7e:	3f c0       	rjmp	.+126    	; 0x6efe <vfprintf+0x59c>
    6e80:	09 2d       	mov	r16, r9
    6e82:	85 37       	cpi	r24, 0x75	; 117
    6e84:	21 f4       	brne	.+8      	; 0x6e8e <vfprintf+0x52c>
    6e86:	0f 7e       	andi	r16, 0xEF	; 239
    6e88:	2a e0       	ldi	r18, 0x0A	; 10
    6e8a:	30 e0       	ldi	r19, 0x00	; 0
    6e8c:	1d c0       	rjmp	.+58     	; 0x6ec8 <vfprintf+0x566>
    6e8e:	09 7f       	andi	r16, 0xF9	; 249
    6e90:	8f 36       	cpi	r24, 0x6F	; 111
    6e92:	91 f0       	breq	.+36     	; 0x6eb8 <vfprintf+0x556>
    6e94:	18 f4       	brcc	.+6      	; 0x6e9c <vfprintf+0x53a>
    6e96:	88 35       	cpi	r24, 0x58	; 88
    6e98:	59 f0       	breq	.+22     	; 0x6eb0 <vfprintf+0x54e>
    6e9a:	c3 c0       	rjmp	.+390    	; 0x7022 <vfprintf+0x6c0>
    6e9c:	80 37       	cpi	r24, 0x70	; 112
    6e9e:	19 f0       	breq	.+6      	; 0x6ea6 <vfprintf+0x544>
    6ea0:	88 37       	cpi	r24, 0x78	; 120
    6ea2:	11 f0       	breq	.+4      	; 0x6ea8 <vfprintf+0x546>
    6ea4:	be c0       	rjmp	.+380    	; 0x7022 <vfprintf+0x6c0>
    6ea6:	00 61       	ori	r16, 0x10	; 16
    6ea8:	04 ff       	sbrs	r16, 4
    6eaa:	09 c0       	rjmp	.+18     	; 0x6ebe <vfprintf+0x55c>
    6eac:	04 60       	ori	r16, 0x04	; 4
    6eae:	07 c0       	rjmp	.+14     	; 0x6ebe <vfprintf+0x55c>
    6eb0:	94 fe       	sbrs	r9, 4
    6eb2:	08 c0       	rjmp	.+16     	; 0x6ec4 <vfprintf+0x562>
    6eb4:	06 60       	ori	r16, 0x06	; 6
    6eb6:	06 c0       	rjmp	.+12     	; 0x6ec4 <vfprintf+0x562>
    6eb8:	28 e0       	ldi	r18, 0x08	; 8
    6eba:	30 e0       	ldi	r19, 0x00	; 0
    6ebc:	05 c0       	rjmp	.+10     	; 0x6ec8 <vfprintf+0x566>
    6ebe:	20 e1       	ldi	r18, 0x10	; 16
    6ec0:	30 e0       	ldi	r19, 0x00	; 0
    6ec2:	02 c0       	rjmp	.+4      	; 0x6ec8 <vfprintf+0x566>
    6ec4:	20 e1       	ldi	r18, 0x10	; 16
    6ec6:	32 e0       	ldi	r19, 0x02	; 2
    6ec8:	56 01       	movw	r10, r12
    6eca:	07 ff       	sbrs	r16, 7
    6ecc:	09 c0       	rjmp	.+18     	; 0x6ee0 <vfprintf+0x57e>
    6ece:	84 e0       	ldi	r24, 0x04	; 4
    6ed0:	a8 0e       	add	r10, r24
    6ed2:	b1 1c       	adc	r11, r1
    6ed4:	f6 01       	movw	r30, r12
    6ed6:	60 81       	ld	r22, Z
    6ed8:	71 81       	ldd	r23, Z+1	; 0x01
    6eda:	82 81       	ldd	r24, Z+2	; 0x02
    6edc:	93 81       	ldd	r25, Z+3	; 0x03
    6ede:	08 c0       	rjmp	.+16     	; 0x6ef0 <vfprintf+0x58e>
    6ee0:	f2 e0       	ldi	r31, 0x02	; 2
    6ee2:	af 0e       	add	r10, r31
    6ee4:	b1 1c       	adc	r11, r1
    6ee6:	f6 01       	movw	r30, r12
    6ee8:	60 81       	ld	r22, Z
    6eea:	71 81       	ldd	r23, Z+1	; 0x01
    6eec:	80 e0       	ldi	r24, 0x00	; 0
    6eee:	90 e0       	ldi	r25, 0x00	; 0
    6ef0:	a3 01       	movw	r20, r6
    6ef2:	0e 94 91 3b 	call	0x7722	; 0x7722 <__ultoa_invert>
    6ef6:	c8 2e       	mov	r12, r24
    6ef8:	c6 18       	sub	r12, r6
    6efa:	0f 77       	andi	r16, 0x7F	; 127
    6efc:	90 2e       	mov	r9, r16
    6efe:	96 fe       	sbrs	r9, 6
    6f00:	0b c0       	rjmp	.+22     	; 0x6f18 <vfprintf+0x5b6>
    6f02:	09 2d       	mov	r16, r9
    6f04:	0e 7f       	andi	r16, 0xFE	; 254
    6f06:	c1 16       	cp	r12, r17
    6f08:	50 f4       	brcc	.+20     	; 0x6f1e <vfprintf+0x5bc>
    6f0a:	94 fe       	sbrs	r9, 4
    6f0c:	0a c0       	rjmp	.+20     	; 0x6f22 <vfprintf+0x5c0>
    6f0e:	92 fc       	sbrc	r9, 2
    6f10:	08 c0       	rjmp	.+16     	; 0x6f22 <vfprintf+0x5c0>
    6f12:	09 2d       	mov	r16, r9
    6f14:	0e 7e       	andi	r16, 0xEE	; 238
    6f16:	05 c0       	rjmp	.+10     	; 0x6f22 <vfprintf+0x5c0>
    6f18:	dc 2c       	mov	r13, r12
    6f1a:	09 2d       	mov	r16, r9
    6f1c:	03 c0       	rjmp	.+6      	; 0x6f24 <vfprintf+0x5c2>
    6f1e:	dc 2c       	mov	r13, r12
    6f20:	01 c0       	rjmp	.+2      	; 0x6f24 <vfprintf+0x5c2>
    6f22:	d1 2e       	mov	r13, r17
    6f24:	04 ff       	sbrs	r16, 4
    6f26:	0d c0       	rjmp	.+26     	; 0x6f42 <vfprintf+0x5e0>
    6f28:	fe 01       	movw	r30, r28
    6f2a:	ec 0d       	add	r30, r12
    6f2c:	f1 1d       	adc	r31, r1
    6f2e:	80 81       	ld	r24, Z
    6f30:	80 33       	cpi	r24, 0x30	; 48
    6f32:	11 f4       	brne	.+4      	; 0x6f38 <vfprintf+0x5d6>
    6f34:	09 7e       	andi	r16, 0xE9	; 233
    6f36:	09 c0       	rjmp	.+18     	; 0x6f4a <vfprintf+0x5e8>
    6f38:	02 ff       	sbrs	r16, 2
    6f3a:	06 c0       	rjmp	.+12     	; 0x6f48 <vfprintf+0x5e6>
    6f3c:	d3 94       	inc	r13
    6f3e:	d3 94       	inc	r13
    6f40:	04 c0       	rjmp	.+8      	; 0x6f4a <vfprintf+0x5e8>
    6f42:	80 2f       	mov	r24, r16
    6f44:	86 78       	andi	r24, 0x86	; 134
    6f46:	09 f0       	breq	.+2      	; 0x6f4a <vfprintf+0x5e8>
    6f48:	d3 94       	inc	r13
    6f4a:	03 fd       	sbrc	r16, 3
    6f4c:	11 c0       	rjmp	.+34     	; 0x6f70 <vfprintf+0x60e>
    6f4e:	00 ff       	sbrs	r16, 0
    6f50:	06 c0       	rjmp	.+12     	; 0x6f5e <vfprintf+0x5fc>
    6f52:	1c 2d       	mov	r17, r12
    6f54:	d5 14       	cp	r13, r5
    6f56:	80 f4       	brcc	.+32     	; 0x6f78 <vfprintf+0x616>
    6f58:	15 0d       	add	r17, r5
    6f5a:	1d 19       	sub	r17, r13
    6f5c:	0d c0       	rjmp	.+26     	; 0x6f78 <vfprintf+0x616>
    6f5e:	d5 14       	cp	r13, r5
    6f60:	58 f4       	brcc	.+22     	; 0x6f78 <vfprintf+0x616>
    6f62:	b7 01       	movw	r22, r14
    6f64:	80 e2       	ldi	r24, 0x20	; 32
    6f66:	90 e0       	ldi	r25, 0x00	; 0
    6f68:	0e 94 11 3b 	call	0x7622	; 0x7622 <fputc>
    6f6c:	d3 94       	inc	r13
    6f6e:	f7 cf       	rjmp	.-18     	; 0x6f5e <vfprintf+0x5fc>
    6f70:	d5 14       	cp	r13, r5
    6f72:	10 f4       	brcc	.+4      	; 0x6f78 <vfprintf+0x616>
    6f74:	5d 18       	sub	r5, r13
    6f76:	01 c0       	rjmp	.+2      	; 0x6f7a <vfprintf+0x618>
    6f78:	51 2c       	mov	r5, r1
    6f7a:	04 ff       	sbrs	r16, 4
    6f7c:	10 c0       	rjmp	.+32     	; 0x6f9e <vfprintf+0x63c>
    6f7e:	b7 01       	movw	r22, r14
    6f80:	80 e3       	ldi	r24, 0x30	; 48
    6f82:	90 e0       	ldi	r25, 0x00	; 0
    6f84:	0e 94 11 3b 	call	0x7622	; 0x7622 <fputc>
    6f88:	02 ff       	sbrs	r16, 2
    6f8a:	17 c0       	rjmp	.+46     	; 0x6fba <vfprintf+0x658>
    6f8c:	01 fd       	sbrc	r16, 1
    6f8e:	03 c0       	rjmp	.+6      	; 0x6f96 <vfprintf+0x634>
    6f90:	88 e7       	ldi	r24, 0x78	; 120
    6f92:	90 e0       	ldi	r25, 0x00	; 0
    6f94:	02 c0       	rjmp	.+4      	; 0x6f9a <vfprintf+0x638>
    6f96:	88 e5       	ldi	r24, 0x58	; 88
    6f98:	90 e0       	ldi	r25, 0x00	; 0
    6f9a:	b7 01       	movw	r22, r14
    6f9c:	0c c0       	rjmp	.+24     	; 0x6fb6 <vfprintf+0x654>
    6f9e:	80 2f       	mov	r24, r16
    6fa0:	86 78       	andi	r24, 0x86	; 134
    6fa2:	59 f0       	breq	.+22     	; 0x6fba <vfprintf+0x658>
    6fa4:	01 ff       	sbrs	r16, 1
    6fa6:	02 c0       	rjmp	.+4      	; 0x6fac <vfprintf+0x64a>
    6fa8:	8b e2       	ldi	r24, 0x2B	; 43
    6faa:	01 c0       	rjmp	.+2      	; 0x6fae <vfprintf+0x64c>
    6fac:	80 e2       	ldi	r24, 0x20	; 32
    6fae:	07 fd       	sbrc	r16, 7
    6fb0:	8d e2       	ldi	r24, 0x2D	; 45
    6fb2:	b7 01       	movw	r22, r14
    6fb4:	90 e0       	ldi	r25, 0x00	; 0
    6fb6:	0e 94 11 3b 	call	0x7622	; 0x7622 <fputc>
    6fba:	c1 16       	cp	r12, r17
    6fbc:	38 f4       	brcc	.+14     	; 0x6fcc <vfprintf+0x66a>
    6fbe:	b7 01       	movw	r22, r14
    6fc0:	80 e3       	ldi	r24, 0x30	; 48
    6fc2:	90 e0       	ldi	r25, 0x00	; 0
    6fc4:	0e 94 11 3b 	call	0x7622	; 0x7622 <fputc>
    6fc8:	11 50       	subi	r17, 0x01	; 1
    6fca:	f7 cf       	rjmp	.-18     	; 0x6fba <vfprintf+0x658>
    6fcc:	ca 94       	dec	r12
    6fce:	f3 01       	movw	r30, r6
    6fd0:	ec 0d       	add	r30, r12
    6fd2:	f1 1d       	adc	r31, r1
    6fd4:	80 81       	ld	r24, Z
    6fd6:	b7 01       	movw	r22, r14
    6fd8:	90 e0       	ldi	r25, 0x00	; 0
    6fda:	0e 94 11 3b 	call	0x7622	; 0x7622 <fputc>
    6fde:	c1 10       	cpse	r12, r1
    6fe0:	f5 cf       	rjmp	.-22     	; 0x6fcc <vfprintf+0x66a>
    6fe2:	15 c0       	rjmp	.+42     	; 0x700e <vfprintf+0x6ac>
    6fe4:	f4 e0       	ldi	r31, 0x04	; 4
    6fe6:	f5 15       	cp	r31, r5
    6fe8:	60 f5       	brcc	.+88     	; 0x7042 <vfprintf+0x6e0>
    6fea:	84 e0       	ldi	r24, 0x04	; 4
    6fec:	58 1a       	sub	r5, r24
    6fee:	93 fe       	sbrs	r9, 3
    6ff0:	1f c0       	rjmp	.+62     	; 0x7030 <vfprintf+0x6ce>
    6ff2:	01 11       	cpse	r16, r1
    6ff4:	27 c0       	rjmp	.+78     	; 0x7044 <vfprintf+0x6e2>
    6ff6:	2c 85       	ldd	r18, Y+12	; 0x0c
    6ff8:	23 ff       	sbrs	r18, 3
    6ffa:	2a c0       	rjmp	.+84     	; 0x7050 <vfprintf+0x6ee>
    6ffc:	0c e2       	ldi	r16, 0x2C	; 44
    6ffe:	17 e0       	ldi	r17, 0x07	; 7
    7000:	39 2d       	mov	r19, r9
    7002:	30 71       	andi	r19, 0x10	; 16
    7004:	93 2e       	mov	r9, r19
    7006:	f8 01       	movw	r30, r16
    7008:	84 91       	lpm	r24, Z
    700a:	81 11       	cpse	r24, r1
    700c:	24 c0       	rjmp	.+72     	; 0x7056 <vfprintf+0x6f4>
    700e:	55 20       	and	r5, r5
    7010:	09 f4       	brne	.+2      	; 0x7014 <vfprintf+0x6b2>
    7012:	e4 cc       	rjmp	.-1592   	; 0x69dc <vfprintf+0x7a>
    7014:	b7 01       	movw	r22, r14
    7016:	80 e2       	ldi	r24, 0x20	; 32
    7018:	90 e0       	ldi	r25, 0x00	; 0
    701a:	0e 94 11 3b 	call	0x7622	; 0x7622 <fputc>
    701e:	5a 94       	dec	r5
    7020:	f6 cf       	rjmp	.-20     	; 0x700e <vfprintf+0x6ac>
    7022:	f7 01       	movw	r30, r14
    7024:	86 81       	ldd	r24, Z+6	; 0x06
    7026:	97 81       	ldd	r25, Z+7	; 0x07
    7028:	26 c0       	rjmp	.+76     	; 0x7076 <vfprintf+0x714>
    702a:	8f ef       	ldi	r24, 0xFF	; 255
    702c:	9f ef       	ldi	r25, 0xFF	; 255
    702e:	23 c0       	rjmp	.+70     	; 0x7076 <vfprintf+0x714>
    7030:	b7 01       	movw	r22, r14
    7032:	80 e2       	ldi	r24, 0x20	; 32
    7034:	90 e0       	ldi	r25, 0x00	; 0
    7036:	0e 94 11 3b 	call	0x7622	; 0x7622 <fputc>
    703a:	5a 94       	dec	r5
    703c:	51 10       	cpse	r5, r1
    703e:	f8 cf       	rjmp	.-16     	; 0x7030 <vfprintf+0x6ce>
    7040:	d8 cf       	rjmp	.-80     	; 0x6ff2 <vfprintf+0x690>
    7042:	51 2c       	mov	r5, r1
    7044:	b7 01       	movw	r22, r14
    7046:	80 2f       	mov	r24, r16
    7048:	90 e0       	ldi	r25, 0x00	; 0
    704a:	0e 94 11 3b 	call	0x7622	; 0x7622 <fputc>
    704e:	d3 cf       	rjmp	.-90     	; 0x6ff6 <vfprintf+0x694>
    7050:	00 e3       	ldi	r16, 0x30	; 48
    7052:	17 e0       	ldi	r17, 0x07	; 7
    7054:	d5 cf       	rjmp	.-86     	; 0x7000 <vfprintf+0x69e>
    7056:	91 10       	cpse	r9, r1
    7058:	80 52       	subi	r24, 0x20	; 32
    705a:	b7 01       	movw	r22, r14
    705c:	90 e0       	ldi	r25, 0x00	; 0
    705e:	0e 94 11 3b 	call	0x7622	; 0x7622 <fputc>
    7062:	0f 5f       	subi	r16, 0xFF	; 255
    7064:	1f 4f       	sbci	r17, 0xFF	; 255
    7066:	cf cf       	rjmp	.-98     	; 0x7006 <vfprintf+0x6a4>
    7068:	23 e0       	ldi	r18, 0x03	; 3
    706a:	25 15       	cp	r18, r5
    706c:	10 f4       	brcc	.+4      	; 0x7072 <vfprintf+0x710>
    706e:	83 e0       	ldi	r24, 0x03	; 3
    7070:	bd cf       	rjmp	.-134    	; 0x6fec <vfprintf+0x68a>
    7072:	51 2c       	mov	r5, r1
    7074:	c0 cf       	rjmp	.-128    	; 0x6ff6 <vfprintf+0x694>
    7076:	60 96       	adiw	r28, 0x10	; 16
    7078:	cd bf       	out	0x3d, r28	; 61
    707a:	de bf       	out	0x3e, r29	; 62
    707c:	df 91       	pop	r29
    707e:	cf 91       	pop	r28
    7080:	1f 91       	pop	r17
    7082:	0f 91       	pop	r16
    7084:	ff 90       	pop	r15
    7086:	ef 90       	pop	r14
    7088:	df 90       	pop	r13
    708a:	cf 90       	pop	r12
    708c:	bf 90       	pop	r11
    708e:	af 90       	pop	r10
    7090:	9f 90       	pop	r9
    7092:	8f 90       	pop	r8
    7094:	7f 90       	pop	r7
    7096:	6f 90       	pop	r6
    7098:	5f 90       	pop	r5
    709a:	4f 90       	pop	r4
    709c:	3f 90       	pop	r3
    709e:	2f 90       	pop	r2
    70a0:	08 95       	ret

000070a2 <__divmodhi4>:
    70a2:	97 fb       	bst	r25, 7
    70a4:	07 2e       	mov	r0, r23
    70a6:	16 f4       	brtc	.+4      	; 0x70ac <__divmodhi4+0xa>
    70a8:	00 94       	com	r0
    70aa:	07 d0       	rcall	.+14     	; 0x70ba <__divmodhi4_neg1>
    70ac:	77 fd       	sbrc	r23, 7
    70ae:	09 d0       	rcall	.+18     	; 0x70c2 <__divmodhi4_neg2>
    70b0:	0e 94 c4 39 	call	0x7388	; 0x7388 <__udivmodhi4>
    70b4:	07 fc       	sbrc	r0, 7
    70b6:	05 d0       	rcall	.+10     	; 0x70c2 <__divmodhi4_neg2>
    70b8:	3e f4       	brtc	.+14     	; 0x70c8 <__divmodhi4_exit>

000070ba <__divmodhi4_neg1>:
    70ba:	90 95       	com	r25
    70bc:	81 95       	neg	r24
    70be:	9f 4f       	sbci	r25, 0xFF	; 255
    70c0:	08 95       	ret

000070c2 <__divmodhi4_neg2>:
    70c2:	70 95       	com	r23
    70c4:	61 95       	neg	r22
    70c6:	7f 4f       	sbci	r23, 0xFF	; 255

000070c8 <__divmodhi4_exit>:
    70c8:	08 95       	ret

000070ca <__udivmodsi4>:
    70ca:	a1 e2       	ldi	r26, 0x21	; 33
    70cc:	1a 2e       	mov	r1, r26
    70ce:	aa 1b       	sub	r26, r26
    70d0:	bb 1b       	sub	r27, r27
    70d2:	fd 01       	movw	r30, r26
    70d4:	0d c0       	rjmp	.+26     	; 0x70f0 <__udivmodsi4_ep>

000070d6 <__udivmodsi4_loop>:
    70d6:	aa 1f       	adc	r26, r26
    70d8:	bb 1f       	adc	r27, r27
    70da:	ee 1f       	adc	r30, r30
    70dc:	ff 1f       	adc	r31, r31
    70de:	a2 17       	cp	r26, r18
    70e0:	b3 07       	cpc	r27, r19
    70e2:	e4 07       	cpc	r30, r20
    70e4:	f5 07       	cpc	r31, r21
    70e6:	20 f0       	brcs	.+8      	; 0x70f0 <__udivmodsi4_ep>
    70e8:	a2 1b       	sub	r26, r18
    70ea:	b3 0b       	sbc	r27, r19
    70ec:	e4 0b       	sbc	r30, r20
    70ee:	f5 0b       	sbc	r31, r21

000070f0 <__udivmodsi4_ep>:
    70f0:	66 1f       	adc	r22, r22
    70f2:	77 1f       	adc	r23, r23
    70f4:	88 1f       	adc	r24, r24
    70f6:	99 1f       	adc	r25, r25
    70f8:	1a 94       	dec	r1
    70fa:	69 f7       	brne	.-38     	; 0x70d6 <__udivmodsi4_loop>
    70fc:	60 95       	com	r22
    70fe:	70 95       	com	r23
    7100:	80 95       	com	r24
    7102:	90 95       	com	r25
    7104:	9b 01       	movw	r18, r22
    7106:	ac 01       	movw	r20, r24
    7108:	bd 01       	movw	r22, r26
    710a:	cf 01       	movw	r24, r30
    710c:	08 95       	ret

0000710e <__divmodsi4>:
    710e:	05 2e       	mov	r0, r21
    7110:	97 fb       	bst	r25, 7
    7112:	1e f4       	brtc	.+6      	; 0x711a <__divmodsi4+0xc>
    7114:	00 94       	com	r0
    7116:	0e 94 9e 38 	call	0x713c	; 0x713c <__negsi2>
    711a:	57 fd       	sbrc	r21, 7
    711c:	07 d0       	rcall	.+14     	; 0x712c <__divmodsi4_neg2>
    711e:	0e 94 65 38 	call	0x70ca	; 0x70ca <__udivmodsi4>
    7122:	07 fc       	sbrc	r0, 7
    7124:	03 d0       	rcall	.+6      	; 0x712c <__divmodsi4_neg2>
    7126:	4e f4       	brtc	.+18     	; 0x713a <__divmodsi4_exit>
    7128:	0c 94 9e 38 	jmp	0x713c	; 0x713c <__negsi2>

0000712c <__divmodsi4_neg2>:
    712c:	50 95       	com	r21
    712e:	40 95       	com	r20
    7130:	30 95       	com	r19
    7132:	21 95       	neg	r18
    7134:	3f 4f       	sbci	r19, 0xFF	; 255
    7136:	4f 4f       	sbci	r20, 0xFF	; 255
    7138:	5f 4f       	sbci	r21, 0xFF	; 255

0000713a <__divmodsi4_exit>:
    713a:	08 95       	ret

0000713c <__negsi2>:
    713c:	90 95       	com	r25
    713e:	80 95       	com	r24
    7140:	70 95       	com	r23
    7142:	61 95       	neg	r22
    7144:	7f 4f       	sbci	r23, 0xFF	; 255
    7146:	8f 4f       	sbci	r24, 0xFF	; 255
    7148:	9f 4f       	sbci	r25, 0xFF	; 255
    714a:	08 95       	ret

0000714c <__tablejump2__>:
    714c:	ee 0f       	add	r30, r30
    714e:	ff 1f       	adc	r31, r31
    7150:	00 24       	eor	r0, r0
    7152:	00 1c       	adc	r0, r0
    7154:	0b be       	out	0x3b, r0	; 59
    7156:	07 90       	elpm	r0, Z+
    7158:	f6 91       	elpm	r31, Z
    715a:	e0 2d       	mov	r30, r0
    715c:	09 94       	ijmp

0000715e <__umulhisi3>:
    715e:	a2 9f       	mul	r26, r18
    7160:	b0 01       	movw	r22, r0
    7162:	b3 9f       	mul	r27, r19
    7164:	c0 01       	movw	r24, r0
    7166:	a3 9f       	mul	r26, r19
    7168:	70 0d       	add	r23, r0
    716a:	81 1d       	adc	r24, r1
    716c:	11 24       	eor	r1, r1
    716e:	91 1d       	adc	r25, r1
    7170:	b2 9f       	mul	r27, r18
    7172:	70 0d       	add	r23, r0
    7174:	81 1d       	adc	r24, r1
    7176:	11 24       	eor	r1, r1
    7178:	91 1d       	adc	r25, r1
    717a:	08 95       	ret

0000717c <__muluhisi3>:
    717c:	0e 94 af 38 	call	0x715e	; 0x715e <__umulhisi3>
    7180:	a5 9f       	mul	r26, r21
    7182:	90 0d       	add	r25, r0
    7184:	b4 9f       	mul	r27, r20
    7186:	90 0d       	add	r25, r0
    7188:	a4 9f       	mul	r26, r20
    718a:	80 0d       	add	r24, r0
    718c:	91 1d       	adc	r25, r1
    718e:	11 24       	eor	r1, r1
    7190:	08 95       	ret

00007192 <__muldi3>:
    7192:	df 93       	push	r29
    7194:	cf 93       	push	r28
    7196:	1f 93       	push	r17
    7198:	0f 93       	push	r16
    719a:	9a 9d       	mul	r25, r10
    719c:	f0 2d       	mov	r31, r0
    719e:	21 9f       	mul	r18, r17
    71a0:	f0 0d       	add	r31, r0
    71a2:	8b 9d       	mul	r24, r11
    71a4:	f0 0d       	add	r31, r0
    71a6:	8a 9d       	mul	r24, r10
    71a8:	e0 2d       	mov	r30, r0
    71aa:	f1 0d       	add	r31, r1
    71ac:	03 9f       	mul	r16, r19
    71ae:	f0 0d       	add	r31, r0
    71b0:	02 9f       	mul	r16, r18
    71b2:	e0 0d       	add	r30, r0
    71b4:	f1 1d       	adc	r31, r1
    71b6:	4e 9d       	mul	r20, r14
    71b8:	e0 0d       	add	r30, r0
    71ba:	f1 1d       	adc	r31, r1
    71bc:	5e 9d       	mul	r21, r14
    71be:	f0 0d       	add	r31, r0
    71c0:	4f 9d       	mul	r20, r15
    71c2:	f0 0d       	add	r31, r0
    71c4:	7f 93       	push	r23
    71c6:	6f 93       	push	r22
    71c8:	bf 92       	push	r11
    71ca:	af 92       	push	r10
    71cc:	5f 93       	push	r21
    71ce:	4f 93       	push	r20
    71d0:	d5 01       	movw	r26, r10
    71d2:	0e 94 af 38 	call	0x715e	; 0x715e <__umulhisi3>
    71d6:	8b 01       	movw	r16, r22
    71d8:	ac 01       	movw	r20, r24
    71da:	d7 01       	movw	r26, r14
    71dc:	0e 94 af 38 	call	0x715e	; 0x715e <__umulhisi3>
    71e0:	eb 01       	movw	r28, r22
    71e2:	e8 0f       	add	r30, r24
    71e4:	f9 1f       	adc	r31, r25
    71e6:	d6 01       	movw	r26, r12
    71e8:	0e 94 19 39 	call	0x7232	; 0x7232 <__muldi3_6>
    71ec:	2f 91       	pop	r18
    71ee:	3f 91       	pop	r19
    71f0:	d6 01       	movw	r26, r12
    71f2:	0e 94 af 38 	call	0x715e	; 0x715e <__umulhisi3>
    71f6:	c6 0f       	add	r28, r22
    71f8:	d7 1f       	adc	r29, r23
    71fa:	e8 1f       	adc	r30, r24
    71fc:	f9 1f       	adc	r31, r25
    71fe:	af 91       	pop	r26
    7200:	bf 91       	pop	r27
    7202:	0e 94 19 39 	call	0x7232	; 0x7232 <__muldi3_6>
    7206:	2f 91       	pop	r18
    7208:	3f 91       	pop	r19
    720a:	0e 94 af 38 	call	0x715e	; 0x715e <__umulhisi3>
    720e:	c6 0f       	add	r28, r22
    7210:	d7 1f       	adc	r29, r23
    7212:	e8 1f       	adc	r30, r24
    7214:	f9 1f       	adc	r31, r25
    7216:	d6 01       	movw	r26, r12
    7218:	0e 94 af 38 	call	0x715e	; 0x715e <__umulhisi3>
    721c:	e6 0f       	add	r30, r22
    721e:	f7 1f       	adc	r31, r23
    7220:	98 01       	movw	r18, r16
    7222:	be 01       	movw	r22, r28
    7224:	cf 01       	movw	r24, r30
    7226:	11 24       	eor	r1, r1
    7228:	0f 91       	pop	r16
    722a:	1f 91       	pop	r17
    722c:	cf 91       	pop	r28
    722e:	df 91       	pop	r29
    7230:	08 95       	ret

00007232 <__muldi3_6>:
    7232:	0e 94 af 38 	call	0x715e	; 0x715e <__umulhisi3>
    7236:	46 0f       	add	r20, r22
    7238:	57 1f       	adc	r21, r23
    723a:	c8 1f       	adc	r28, r24
    723c:	d9 1f       	adc	r29, r25
    723e:	08 f4       	brcc	.+2      	; 0x7242 <__muldi3_6+0x10>
    7240:	31 96       	adiw	r30, 0x01	; 1
    7242:	08 95       	ret

00007244 <__umoddi3>:
    7244:	68 94       	set
    7246:	01 c0       	rjmp	.+2      	; 0x724a <__udivdi3_umoddi3>

00007248 <__udivdi3>:
    7248:	e8 94       	clt

0000724a <__udivdi3_umoddi3>:
    724a:	8f 92       	push	r8
    724c:	9f 92       	push	r9
    724e:	cf 93       	push	r28
    7250:	df 93       	push	r29
    7252:	0e 94 30 39 	call	0x7260	; 0x7260 <__udivmod64>
    7256:	df 91       	pop	r29
    7258:	cf 91       	pop	r28
    725a:	9f 90       	pop	r9
    725c:	8f 90       	pop	r8
    725e:	08 95       	ret

00007260 <__udivmod64>:
    7260:	88 24       	eor	r8, r8
    7262:	99 24       	eor	r9, r9
    7264:	f4 01       	movw	r30, r8
    7266:	e4 01       	movw	r28, r8
    7268:	b0 e4       	ldi	r27, 0x40	; 64
    726a:	9f 93       	push	r25
    726c:	aa 27       	eor	r26, r26
    726e:	9a 15       	cp	r25, r10
    7270:	8b 04       	cpc	r8, r11
    7272:	9c 04       	cpc	r9, r12
    7274:	ed 05       	cpc	r30, r13
    7276:	fe 05       	cpc	r31, r14
    7278:	cf 05       	cpc	r28, r15
    727a:	d0 07       	cpc	r29, r16
    727c:	a1 07       	cpc	r26, r17
    727e:	98 f4       	brcc	.+38     	; 0x72a6 <__udivmod64+0x46>
    7280:	ad 2f       	mov	r26, r29
    7282:	dc 2f       	mov	r29, r28
    7284:	cf 2f       	mov	r28, r31
    7286:	fe 2f       	mov	r31, r30
    7288:	e9 2d       	mov	r30, r9
    728a:	98 2c       	mov	r9, r8
    728c:	89 2e       	mov	r8, r25
    728e:	98 2f       	mov	r25, r24
    7290:	87 2f       	mov	r24, r23
    7292:	76 2f       	mov	r23, r22
    7294:	65 2f       	mov	r22, r21
    7296:	54 2f       	mov	r21, r20
    7298:	43 2f       	mov	r20, r19
    729a:	32 2f       	mov	r19, r18
    729c:	22 27       	eor	r18, r18
    729e:	b8 50       	subi	r27, 0x08	; 8
    72a0:	31 f7       	brne	.-52     	; 0x726e <__udivmod64+0xe>
    72a2:	bf 91       	pop	r27
    72a4:	27 c0       	rjmp	.+78     	; 0x72f4 <__udivmod64+0x94>
    72a6:	1b 2e       	mov	r1, r27
    72a8:	bf 91       	pop	r27
    72aa:	bb 27       	eor	r27, r27
    72ac:	22 0f       	add	r18, r18
    72ae:	33 1f       	adc	r19, r19
    72b0:	44 1f       	adc	r20, r20
    72b2:	55 1f       	adc	r21, r21
    72b4:	66 1f       	adc	r22, r22
    72b6:	77 1f       	adc	r23, r23
    72b8:	88 1f       	adc	r24, r24
    72ba:	99 1f       	adc	r25, r25
    72bc:	88 1c       	adc	r8, r8
    72be:	99 1c       	adc	r9, r9
    72c0:	ee 1f       	adc	r30, r30
    72c2:	ff 1f       	adc	r31, r31
    72c4:	cc 1f       	adc	r28, r28
    72c6:	dd 1f       	adc	r29, r29
    72c8:	aa 1f       	adc	r26, r26
    72ca:	bb 1f       	adc	r27, r27
    72cc:	8a 14       	cp	r8, r10
    72ce:	9b 04       	cpc	r9, r11
    72d0:	ec 05       	cpc	r30, r12
    72d2:	fd 05       	cpc	r31, r13
    72d4:	ce 05       	cpc	r28, r14
    72d6:	df 05       	cpc	r29, r15
    72d8:	a0 07       	cpc	r26, r16
    72da:	b1 07       	cpc	r27, r17
    72dc:	48 f0       	brcs	.+18     	; 0x72f0 <__udivmod64+0x90>
    72de:	8a 18       	sub	r8, r10
    72e0:	9b 08       	sbc	r9, r11
    72e2:	ec 09       	sbc	r30, r12
    72e4:	fd 09       	sbc	r31, r13
    72e6:	ce 09       	sbc	r28, r14
    72e8:	df 09       	sbc	r29, r15
    72ea:	a0 0b       	sbc	r26, r16
    72ec:	b1 0b       	sbc	r27, r17
    72ee:	21 60       	ori	r18, 0x01	; 1
    72f0:	1a 94       	dec	r1
    72f2:	e1 f6       	brne	.-72     	; 0x72ac <__udivmod64+0x4c>
    72f4:	2e f4       	brtc	.+10     	; 0x7300 <__udivmod64+0xa0>
    72f6:	94 01       	movw	r18, r8
    72f8:	af 01       	movw	r20, r30
    72fa:	be 01       	movw	r22, r28
    72fc:	cd 01       	movw	r24, r26
    72fe:	00 0c       	add	r0, r0
    7300:	08 95       	ret

00007302 <__ashldi3>:
    7302:	0f 93       	push	r16
    7304:	08 30       	cpi	r16, 0x08	; 8
    7306:	90 f0       	brcs	.+36     	; 0x732c <__ashldi3+0x2a>
    7308:	98 2f       	mov	r25, r24
    730a:	87 2f       	mov	r24, r23
    730c:	76 2f       	mov	r23, r22
    730e:	65 2f       	mov	r22, r21
    7310:	54 2f       	mov	r21, r20
    7312:	43 2f       	mov	r20, r19
    7314:	32 2f       	mov	r19, r18
    7316:	22 27       	eor	r18, r18
    7318:	08 50       	subi	r16, 0x08	; 8
    731a:	f4 cf       	rjmp	.-24     	; 0x7304 <__ashldi3+0x2>
    731c:	22 0f       	add	r18, r18
    731e:	33 1f       	adc	r19, r19
    7320:	44 1f       	adc	r20, r20
    7322:	55 1f       	adc	r21, r21
    7324:	66 1f       	adc	r22, r22
    7326:	77 1f       	adc	r23, r23
    7328:	88 1f       	adc	r24, r24
    732a:	99 1f       	adc	r25, r25
    732c:	0a 95       	dec	r16
    732e:	b2 f7       	brpl	.-20     	; 0x731c <__ashldi3+0x1a>
    7330:	0f 91       	pop	r16
    7332:	08 95       	ret

00007334 <__adddi3>:
    7334:	2a 0d       	add	r18, r10
    7336:	3b 1d       	adc	r19, r11
    7338:	4c 1d       	adc	r20, r12
    733a:	5d 1d       	adc	r21, r13
    733c:	6e 1d       	adc	r22, r14
    733e:	7f 1d       	adc	r23, r15
    7340:	80 1f       	adc	r24, r16
    7342:	91 1f       	adc	r25, r17
    7344:	08 95       	ret

00007346 <__adddi3_s8>:
    7346:	00 24       	eor	r0, r0
    7348:	a7 fd       	sbrc	r26, 7
    734a:	00 94       	com	r0
    734c:	2a 0f       	add	r18, r26
    734e:	30 1d       	adc	r19, r0
    7350:	40 1d       	adc	r20, r0
    7352:	50 1d       	adc	r21, r0
    7354:	60 1d       	adc	r22, r0
    7356:	70 1d       	adc	r23, r0
    7358:	80 1d       	adc	r24, r0
    735a:	90 1d       	adc	r25, r0
    735c:	08 95       	ret

0000735e <__subdi3>:
    735e:	2a 19       	sub	r18, r10
    7360:	3b 09       	sbc	r19, r11
    7362:	4c 09       	sbc	r20, r12
    7364:	5d 09       	sbc	r21, r13
    7366:	6e 09       	sbc	r22, r14
    7368:	7f 09       	sbc	r23, r15
    736a:	80 0b       	sbc	r24, r16
    736c:	91 0b       	sbc	r25, r17
    736e:	08 95       	ret

00007370 <__cmpdi2_s8>:
    7370:	00 24       	eor	r0, r0
    7372:	a7 fd       	sbrc	r26, 7
    7374:	00 94       	com	r0
    7376:	2a 17       	cp	r18, r26
    7378:	30 05       	cpc	r19, r0
    737a:	40 05       	cpc	r20, r0
    737c:	50 05       	cpc	r21, r0
    737e:	60 05       	cpc	r22, r0
    7380:	70 05       	cpc	r23, r0
    7382:	80 05       	cpc	r24, r0
    7384:	90 05       	cpc	r25, r0
    7386:	08 95       	ret

00007388 <__udivmodhi4>:
    7388:	aa 1b       	sub	r26, r26
    738a:	bb 1b       	sub	r27, r27
    738c:	51 e1       	ldi	r21, 0x11	; 17
    738e:	07 c0       	rjmp	.+14     	; 0x739e <__udivmodhi4_ep>

00007390 <__udivmodhi4_loop>:
    7390:	aa 1f       	adc	r26, r26
    7392:	bb 1f       	adc	r27, r27
    7394:	a6 17       	cp	r26, r22
    7396:	b7 07       	cpc	r27, r23
    7398:	10 f0       	brcs	.+4      	; 0x739e <__udivmodhi4_ep>
    739a:	a6 1b       	sub	r26, r22
    739c:	b7 0b       	sbc	r27, r23

0000739e <__udivmodhi4_ep>:
    739e:	88 1f       	adc	r24, r24
    73a0:	99 1f       	adc	r25, r25
    73a2:	5a 95       	dec	r21
    73a4:	a9 f7       	brne	.-22     	; 0x7390 <__udivmodhi4_loop>
    73a6:	80 95       	com	r24
    73a8:	90 95       	com	r25
    73aa:	bc 01       	movw	r22, r24
    73ac:	cd 01       	movw	r24, r26
    73ae:	08 95       	ret

000073b0 <__ftoa_engine>:
    73b0:	28 30       	cpi	r18, 0x08	; 8
    73b2:	08 f0       	brcs	.+2      	; 0x73b6 <__ftoa_engine+0x6>
    73b4:	27 e0       	ldi	r18, 0x07	; 7
    73b6:	33 27       	eor	r19, r19
    73b8:	da 01       	movw	r26, r20
    73ba:	99 0f       	add	r25, r25
    73bc:	31 1d       	adc	r19, r1
    73be:	87 fd       	sbrc	r24, 7
    73c0:	91 60       	ori	r25, 0x01	; 1
    73c2:	00 96       	adiw	r24, 0x00	; 0
    73c4:	61 05       	cpc	r22, r1
    73c6:	71 05       	cpc	r23, r1
    73c8:	39 f4       	brne	.+14     	; 0x73d8 <__ftoa_engine+0x28>
    73ca:	32 60       	ori	r19, 0x02	; 2
    73cc:	2e 5f       	subi	r18, 0xFE	; 254
    73ce:	3d 93       	st	X+, r19
    73d0:	30 e3       	ldi	r19, 0x30	; 48
    73d2:	2a 95       	dec	r18
    73d4:	e1 f7       	brne	.-8      	; 0x73ce <__ftoa_engine+0x1e>
    73d6:	08 95       	ret
    73d8:	9f 3f       	cpi	r25, 0xFF	; 255
    73da:	30 f0       	brcs	.+12     	; 0x73e8 <__ftoa_engine+0x38>
    73dc:	80 38       	cpi	r24, 0x80	; 128
    73de:	71 05       	cpc	r23, r1
    73e0:	61 05       	cpc	r22, r1
    73e2:	09 f0       	breq	.+2      	; 0x73e6 <__ftoa_engine+0x36>
    73e4:	3c 5f       	subi	r19, 0xFC	; 252
    73e6:	3c 5f       	subi	r19, 0xFC	; 252
    73e8:	3d 93       	st	X+, r19
    73ea:	91 30       	cpi	r25, 0x01	; 1
    73ec:	08 f0       	brcs	.+2      	; 0x73f0 <__ftoa_engine+0x40>
    73ee:	80 68       	ori	r24, 0x80	; 128
    73f0:	91 1d       	adc	r25, r1
    73f2:	df 93       	push	r29
    73f4:	cf 93       	push	r28
    73f6:	1f 93       	push	r17
    73f8:	0f 93       	push	r16
    73fa:	ff 92       	push	r15
    73fc:	ef 92       	push	r14
    73fe:	19 2f       	mov	r17, r25
    7400:	98 7f       	andi	r25, 0xF8	; 248
    7402:	96 95       	lsr	r25
    7404:	e9 2f       	mov	r30, r25
    7406:	96 95       	lsr	r25
    7408:	96 95       	lsr	r25
    740a:	e9 0f       	add	r30, r25
    740c:	ff 27       	eor	r31, r31
    740e:	e2 57       	subi	r30, 0x72	; 114
    7410:	f8 4f       	sbci	r31, 0xF8	; 248
    7412:	99 27       	eor	r25, r25
    7414:	33 27       	eor	r19, r19
    7416:	ee 24       	eor	r14, r14
    7418:	ff 24       	eor	r15, r15
    741a:	a7 01       	movw	r20, r14
    741c:	e7 01       	movw	r28, r14
    741e:	05 90       	lpm	r0, Z+
    7420:	08 94       	sec
    7422:	07 94       	ror	r0
    7424:	28 f4       	brcc	.+10     	; 0x7430 <__ftoa_engine+0x80>
    7426:	36 0f       	add	r19, r22
    7428:	e7 1e       	adc	r14, r23
    742a:	f8 1e       	adc	r15, r24
    742c:	49 1f       	adc	r20, r25
    742e:	51 1d       	adc	r21, r1
    7430:	66 0f       	add	r22, r22
    7432:	77 1f       	adc	r23, r23
    7434:	88 1f       	adc	r24, r24
    7436:	99 1f       	adc	r25, r25
    7438:	06 94       	lsr	r0
    743a:	a1 f7       	brne	.-24     	; 0x7424 <__ftoa_engine+0x74>
    743c:	05 90       	lpm	r0, Z+
    743e:	07 94       	ror	r0
    7440:	28 f4       	brcc	.+10     	; 0x744c <__ftoa_engine+0x9c>
    7442:	e7 0e       	add	r14, r23
    7444:	f8 1e       	adc	r15, r24
    7446:	49 1f       	adc	r20, r25
    7448:	56 1f       	adc	r21, r22
    744a:	c1 1d       	adc	r28, r1
    744c:	77 0f       	add	r23, r23
    744e:	88 1f       	adc	r24, r24
    7450:	99 1f       	adc	r25, r25
    7452:	66 1f       	adc	r22, r22
    7454:	06 94       	lsr	r0
    7456:	a1 f7       	brne	.-24     	; 0x7440 <__ftoa_engine+0x90>
    7458:	05 90       	lpm	r0, Z+
    745a:	07 94       	ror	r0
    745c:	28 f4       	brcc	.+10     	; 0x7468 <__ftoa_engine+0xb8>
    745e:	f8 0e       	add	r15, r24
    7460:	49 1f       	adc	r20, r25
    7462:	56 1f       	adc	r21, r22
    7464:	c7 1f       	adc	r28, r23
    7466:	d1 1d       	adc	r29, r1
    7468:	88 0f       	add	r24, r24
    746a:	99 1f       	adc	r25, r25
    746c:	66 1f       	adc	r22, r22
    746e:	77 1f       	adc	r23, r23
    7470:	06 94       	lsr	r0
    7472:	a1 f7       	brne	.-24     	; 0x745c <__ftoa_engine+0xac>
    7474:	05 90       	lpm	r0, Z+
    7476:	07 94       	ror	r0
    7478:	20 f4       	brcc	.+8      	; 0x7482 <__ftoa_engine+0xd2>
    747a:	49 0f       	add	r20, r25
    747c:	56 1f       	adc	r21, r22
    747e:	c7 1f       	adc	r28, r23
    7480:	d8 1f       	adc	r29, r24
    7482:	99 0f       	add	r25, r25
    7484:	66 1f       	adc	r22, r22
    7486:	77 1f       	adc	r23, r23
    7488:	88 1f       	adc	r24, r24
    748a:	06 94       	lsr	r0
    748c:	a9 f7       	brne	.-22     	; 0x7478 <__ftoa_engine+0xc8>
    748e:	84 91       	lpm	r24, Z
    7490:	10 95       	com	r17
    7492:	17 70       	andi	r17, 0x07	; 7
    7494:	41 f0       	breq	.+16     	; 0x74a6 <__ftoa_engine+0xf6>
    7496:	d6 95       	lsr	r29
    7498:	c7 95       	ror	r28
    749a:	57 95       	ror	r21
    749c:	47 95       	ror	r20
    749e:	f7 94       	ror	r15
    74a0:	e7 94       	ror	r14
    74a2:	1a 95       	dec	r17
    74a4:	c1 f7       	brne	.-16     	; 0x7496 <__ftoa_engine+0xe6>
    74a6:	e4 e3       	ldi	r30, 0x34	; 52
    74a8:	f7 e0       	ldi	r31, 0x07	; 7
    74aa:	68 94       	set
    74ac:	15 90       	lpm	r1, Z+
    74ae:	15 91       	lpm	r17, Z+
    74b0:	35 91       	lpm	r19, Z+
    74b2:	65 91       	lpm	r22, Z+
    74b4:	95 91       	lpm	r25, Z+
    74b6:	05 90       	lpm	r0, Z+
    74b8:	7f e2       	ldi	r23, 0x2F	; 47
    74ba:	73 95       	inc	r23
    74bc:	e1 18       	sub	r14, r1
    74be:	f1 0a       	sbc	r15, r17
    74c0:	43 0b       	sbc	r20, r19
    74c2:	56 0b       	sbc	r21, r22
    74c4:	c9 0b       	sbc	r28, r25
    74c6:	d0 09       	sbc	r29, r0
    74c8:	c0 f7       	brcc	.-16     	; 0x74ba <__ftoa_engine+0x10a>
    74ca:	e1 0c       	add	r14, r1
    74cc:	f1 1e       	adc	r15, r17
    74ce:	43 1f       	adc	r20, r19
    74d0:	56 1f       	adc	r21, r22
    74d2:	c9 1f       	adc	r28, r25
    74d4:	d0 1d       	adc	r29, r0
    74d6:	7e f4       	brtc	.+30     	; 0x74f6 <__ftoa_engine+0x146>
    74d8:	70 33       	cpi	r23, 0x30	; 48
    74da:	11 f4       	brne	.+4      	; 0x74e0 <__ftoa_engine+0x130>
    74dc:	8a 95       	dec	r24
    74de:	e6 cf       	rjmp	.-52     	; 0x74ac <__ftoa_engine+0xfc>
    74e0:	e8 94       	clt
    74e2:	01 50       	subi	r16, 0x01	; 1
    74e4:	30 f0       	brcs	.+12     	; 0x74f2 <__ftoa_engine+0x142>
    74e6:	08 0f       	add	r16, r24
    74e8:	0a f4       	brpl	.+2      	; 0x74ec <__ftoa_engine+0x13c>
    74ea:	00 27       	eor	r16, r16
    74ec:	02 17       	cp	r16, r18
    74ee:	08 f4       	brcc	.+2      	; 0x74f2 <__ftoa_engine+0x142>
    74f0:	20 2f       	mov	r18, r16
    74f2:	23 95       	inc	r18
    74f4:	02 2f       	mov	r16, r18
    74f6:	7a 33       	cpi	r23, 0x3A	; 58
    74f8:	28 f0       	brcs	.+10     	; 0x7504 <__ftoa_engine+0x154>
    74fa:	79 e3       	ldi	r23, 0x39	; 57
    74fc:	7d 93       	st	X+, r23
    74fe:	2a 95       	dec	r18
    7500:	e9 f7       	brne	.-6      	; 0x74fc <__ftoa_engine+0x14c>
    7502:	10 c0       	rjmp	.+32     	; 0x7524 <__ftoa_engine+0x174>
    7504:	7d 93       	st	X+, r23
    7506:	2a 95       	dec	r18
    7508:	89 f6       	brne	.-94     	; 0x74ac <__ftoa_engine+0xfc>
    750a:	06 94       	lsr	r0
    750c:	97 95       	ror	r25
    750e:	67 95       	ror	r22
    7510:	37 95       	ror	r19
    7512:	17 95       	ror	r17
    7514:	17 94       	ror	r1
    7516:	e1 18       	sub	r14, r1
    7518:	f1 0a       	sbc	r15, r17
    751a:	43 0b       	sbc	r20, r19
    751c:	56 0b       	sbc	r21, r22
    751e:	c9 0b       	sbc	r28, r25
    7520:	d0 09       	sbc	r29, r0
    7522:	98 f0       	brcs	.+38     	; 0x754a <__ftoa_engine+0x19a>
    7524:	23 95       	inc	r18
    7526:	7e 91       	ld	r23, -X
    7528:	73 95       	inc	r23
    752a:	7a 33       	cpi	r23, 0x3A	; 58
    752c:	08 f0       	brcs	.+2      	; 0x7530 <__ftoa_engine+0x180>
    752e:	70 e3       	ldi	r23, 0x30	; 48
    7530:	7c 93       	st	X, r23
    7532:	20 13       	cpse	r18, r16
    7534:	b8 f7       	brcc	.-18     	; 0x7524 <__ftoa_engine+0x174>
    7536:	7e 91       	ld	r23, -X
    7538:	70 61       	ori	r23, 0x10	; 16
    753a:	7d 93       	st	X+, r23
    753c:	30 f0       	brcs	.+12     	; 0x754a <__ftoa_engine+0x19a>
    753e:	83 95       	inc	r24
    7540:	71 e3       	ldi	r23, 0x31	; 49
    7542:	7d 93       	st	X+, r23
    7544:	70 e3       	ldi	r23, 0x30	; 48
    7546:	2a 95       	dec	r18
    7548:	e1 f7       	brne	.-8      	; 0x7542 <__ftoa_engine+0x192>
    754a:	11 24       	eor	r1, r1
    754c:	ef 90       	pop	r14
    754e:	ff 90       	pop	r15
    7550:	0f 91       	pop	r16
    7552:	1f 91       	pop	r17
    7554:	cf 91       	pop	r28
    7556:	df 91       	pop	r29
    7558:	99 27       	eor	r25, r25
    755a:	87 fd       	sbrc	r24, 7
    755c:	90 95       	com	r25
    755e:	08 95       	ret

00007560 <strnlen_P>:
    7560:	fc 01       	movw	r30, r24
    7562:	05 90       	lpm	r0, Z+
    7564:	61 50       	subi	r22, 0x01	; 1
    7566:	70 40       	sbci	r23, 0x00	; 0
    7568:	01 10       	cpse	r0, r1
    756a:	d8 f7       	brcc	.-10     	; 0x7562 <strnlen_P+0x2>
    756c:	80 95       	com	r24
    756e:	90 95       	com	r25
    7570:	8e 0f       	add	r24, r30
    7572:	9f 1f       	adc	r25, r31
    7574:	08 95       	ret

00007576 <strnlen>:
    7576:	fc 01       	movw	r30, r24
    7578:	61 50       	subi	r22, 0x01	; 1
    757a:	70 40       	sbci	r23, 0x00	; 0
    757c:	01 90       	ld	r0, Z+
    757e:	01 10       	cpse	r0, r1
    7580:	d8 f7       	brcc	.-10     	; 0x7578 <strnlen+0x2>
    7582:	80 95       	com	r24
    7584:	90 95       	com	r25
    7586:	8e 0f       	add	r24, r30
    7588:	9f 1f       	adc	r25, r31
    758a:	08 95       	ret

0000758c <fdevopen>:
    758c:	0f 93       	push	r16
    758e:	1f 93       	push	r17
    7590:	cf 93       	push	r28
    7592:	df 93       	push	r29
    7594:	00 97       	sbiw	r24, 0x00	; 0
    7596:	31 f4       	brne	.+12     	; 0x75a4 <fdevopen+0x18>
    7598:	61 15       	cp	r22, r1
    759a:	71 05       	cpc	r23, r1
    759c:	19 f4       	brne	.+6      	; 0x75a4 <fdevopen+0x18>
    759e:	80 e0       	ldi	r24, 0x00	; 0
    75a0:	90 e0       	ldi	r25, 0x00	; 0
    75a2:	3a c0       	rjmp	.+116    	; 0x7618 <fdevopen+0x8c>
    75a4:	8b 01       	movw	r16, r22
    75a6:	ec 01       	movw	r28, r24
    75a8:	6e e0       	ldi	r22, 0x0E	; 14
    75aa:	70 e0       	ldi	r23, 0x00	; 0
    75ac:	81 e0       	ldi	r24, 0x01	; 1
    75ae:	90 e0       	ldi	r25, 0x00	; 0
    75b0:	0e 94 ef 3b 	call	0x77de	; 0x77de <calloc>
    75b4:	fc 01       	movw	r30, r24
    75b6:	89 2b       	or	r24, r25
    75b8:	91 f3       	breq	.-28     	; 0x759e <fdevopen+0x12>
    75ba:	80 e8       	ldi	r24, 0x80	; 128
    75bc:	83 83       	std	Z+3, r24	; 0x03
    75be:	01 15       	cp	r16, r1
    75c0:	11 05       	cpc	r17, r1
    75c2:	71 f0       	breq	.+28     	; 0x75e0 <fdevopen+0x54>
    75c4:	02 87       	std	Z+10, r16	; 0x0a
    75c6:	13 87       	std	Z+11, r17	; 0x0b
    75c8:	81 e8       	ldi	r24, 0x81	; 129
    75ca:	83 83       	std	Z+3, r24	; 0x03
    75cc:	80 91 cb 4c 	lds	r24, 0x4CCB	; 0x804ccb <__iob>
    75d0:	90 91 cc 4c 	lds	r25, 0x4CCC	; 0x804ccc <__iob+0x1>
    75d4:	89 2b       	or	r24, r25
    75d6:	21 f4       	brne	.+8      	; 0x75e0 <fdevopen+0x54>
    75d8:	e0 93 cb 4c 	sts	0x4CCB, r30	; 0x804ccb <__iob>
    75dc:	f0 93 cc 4c 	sts	0x4CCC, r31	; 0x804ccc <__iob+0x1>
    75e0:	20 97       	sbiw	r28, 0x00	; 0
    75e2:	c9 f0       	breq	.+50     	; 0x7616 <fdevopen+0x8a>
    75e4:	c0 87       	std	Z+8, r28	; 0x08
    75e6:	d1 87       	std	Z+9, r29	; 0x09
    75e8:	83 81       	ldd	r24, Z+3	; 0x03
    75ea:	82 60       	ori	r24, 0x02	; 2
    75ec:	83 83       	std	Z+3, r24	; 0x03
    75ee:	80 91 cd 4c 	lds	r24, 0x4CCD	; 0x804ccd <__iob+0x2>
    75f2:	90 91 ce 4c 	lds	r25, 0x4CCE	; 0x804cce <__iob+0x3>
    75f6:	89 2b       	or	r24, r25
    75f8:	71 f4       	brne	.+28     	; 0x7616 <fdevopen+0x8a>
    75fa:	e0 93 cd 4c 	sts	0x4CCD, r30	; 0x804ccd <__iob+0x2>
    75fe:	f0 93 ce 4c 	sts	0x4CCE, r31	; 0x804cce <__iob+0x3>
    7602:	80 91 cf 4c 	lds	r24, 0x4CCF	; 0x804ccf <__iob+0x4>
    7606:	90 91 d0 4c 	lds	r25, 0x4CD0	; 0x804cd0 <__iob+0x5>
    760a:	89 2b       	or	r24, r25
    760c:	21 f4       	brne	.+8      	; 0x7616 <fdevopen+0x8a>
    760e:	e0 93 cf 4c 	sts	0x4CCF, r30	; 0x804ccf <__iob+0x4>
    7612:	f0 93 d0 4c 	sts	0x4CD0, r31	; 0x804cd0 <__iob+0x5>
    7616:	cf 01       	movw	r24, r30
    7618:	df 91       	pop	r29
    761a:	cf 91       	pop	r28
    761c:	1f 91       	pop	r17
    761e:	0f 91       	pop	r16
    7620:	08 95       	ret

00007622 <fputc>:
    7622:	0f 93       	push	r16
    7624:	1f 93       	push	r17
    7626:	cf 93       	push	r28
    7628:	df 93       	push	r29
    762a:	fb 01       	movw	r30, r22
    762c:	23 81       	ldd	r18, Z+3	; 0x03
    762e:	21 fd       	sbrc	r18, 1
    7630:	03 c0       	rjmp	.+6      	; 0x7638 <fputc+0x16>
    7632:	8f ef       	ldi	r24, 0xFF	; 255
    7634:	9f ef       	ldi	r25, 0xFF	; 255
    7636:	2c c0       	rjmp	.+88     	; 0x7690 <fputc+0x6e>
    7638:	22 ff       	sbrs	r18, 2
    763a:	16 c0       	rjmp	.+44     	; 0x7668 <fputc+0x46>
    763c:	46 81       	ldd	r20, Z+6	; 0x06
    763e:	57 81       	ldd	r21, Z+7	; 0x07
    7640:	24 81       	ldd	r18, Z+4	; 0x04
    7642:	35 81       	ldd	r19, Z+5	; 0x05
    7644:	42 17       	cp	r20, r18
    7646:	53 07       	cpc	r21, r19
    7648:	44 f4       	brge	.+16     	; 0x765a <fputc+0x38>
    764a:	a0 81       	ld	r26, Z
    764c:	b1 81       	ldd	r27, Z+1	; 0x01
    764e:	9d 01       	movw	r18, r26
    7650:	2f 5f       	subi	r18, 0xFF	; 255
    7652:	3f 4f       	sbci	r19, 0xFF	; 255
    7654:	20 83       	st	Z, r18
    7656:	31 83       	std	Z+1, r19	; 0x01
    7658:	8c 93       	st	X, r24
    765a:	26 81       	ldd	r18, Z+6	; 0x06
    765c:	37 81       	ldd	r19, Z+7	; 0x07
    765e:	2f 5f       	subi	r18, 0xFF	; 255
    7660:	3f 4f       	sbci	r19, 0xFF	; 255
    7662:	26 83       	std	Z+6, r18	; 0x06
    7664:	37 83       	std	Z+7, r19	; 0x07
    7666:	14 c0       	rjmp	.+40     	; 0x7690 <fputc+0x6e>
    7668:	8b 01       	movw	r16, r22
    766a:	ec 01       	movw	r28, r24
    766c:	fb 01       	movw	r30, r22
    766e:	00 84       	ldd	r0, Z+8	; 0x08
    7670:	f1 85       	ldd	r31, Z+9	; 0x09
    7672:	e0 2d       	mov	r30, r0
    7674:	09 95       	icall
    7676:	89 2b       	or	r24, r25
    7678:	e1 f6       	brne	.-72     	; 0x7632 <fputc+0x10>
    767a:	d8 01       	movw	r26, r16
    767c:	16 96       	adiw	r26, 0x06	; 6
    767e:	8d 91       	ld	r24, X+
    7680:	9c 91       	ld	r25, X
    7682:	17 97       	sbiw	r26, 0x07	; 7
    7684:	01 96       	adiw	r24, 0x01	; 1
    7686:	16 96       	adiw	r26, 0x06	; 6
    7688:	8d 93       	st	X+, r24
    768a:	9c 93       	st	X, r25
    768c:	17 97       	sbiw	r26, 0x07	; 7
    768e:	ce 01       	movw	r24, r28
    7690:	df 91       	pop	r29
    7692:	cf 91       	pop	r28
    7694:	1f 91       	pop	r17
    7696:	0f 91       	pop	r16
    7698:	08 95       	ret

0000769a <printf>:
    769a:	cf 93       	push	r28
    769c:	df 93       	push	r29
    769e:	cd b7       	in	r28, 0x3d	; 61
    76a0:	de b7       	in	r29, 0x3e	; 62
    76a2:	ae 01       	movw	r20, r28
    76a4:	4b 5f       	subi	r20, 0xFB	; 251
    76a6:	5f 4f       	sbci	r21, 0xFF	; 255
    76a8:	fa 01       	movw	r30, r20
    76aa:	61 91       	ld	r22, Z+
    76ac:	71 91       	ld	r23, Z+
    76ae:	af 01       	movw	r20, r30
    76b0:	80 91 cd 4c 	lds	r24, 0x4CCD	; 0x804ccd <__iob+0x2>
    76b4:	90 91 ce 4c 	lds	r25, 0x4CCE	; 0x804cce <__iob+0x3>
    76b8:	0e 94 b1 34 	call	0x6962	; 0x6962 <vfprintf>
    76bc:	df 91       	pop	r29
    76be:	cf 91       	pop	r28
    76c0:	08 95       	ret

000076c2 <puts>:
    76c2:	0f 93       	push	r16
    76c4:	1f 93       	push	r17
    76c6:	cf 93       	push	r28
    76c8:	df 93       	push	r29
    76ca:	e0 91 cd 4c 	lds	r30, 0x4CCD	; 0x804ccd <__iob+0x2>
    76ce:	f0 91 ce 4c 	lds	r31, 0x4CCE	; 0x804cce <__iob+0x3>
    76d2:	23 81       	ldd	r18, Z+3	; 0x03
    76d4:	21 ff       	sbrs	r18, 1
    76d6:	1b c0       	rjmp	.+54     	; 0x770e <puts+0x4c>
    76d8:	8c 01       	movw	r16, r24
    76da:	d0 e0       	ldi	r29, 0x00	; 0
    76dc:	c0 e0       	ldi	r28, 0x00	; 0
    76de:	f8 01       	movw	r30, r16
    76e0:	81 91       	ld	r24, Z+
    76e2:	8f 01       	movw	r16, r30
    76e4:	60 91 cd 4c 	lds	r22, 0x4CCD	; 0x804ccd <__iob+0x2>
    76e8:	70 91 ce 4c 	lds	r23, 0x4CCE	; 0x804cce <__iob+0x3>
    76ec:	db 01       	movw	r26, r22
    76ee:	18 96       	adiw	r26, 0x08	; 8
    76f0:	ed 91       	ld	r30, X+
    76f2:	fc 91       	ld	r31, X
    76f4:	19 97       	sbiw	r26, 0x09	; 9
    76f6:	88 23       	and	r24, r24
    76f8:	31 f0       	breq	.+12     	; 0x7706 <puts+0x44>
    76fa:	09 95       	icall
    76fc:	89 2b       	or	r24, r25
    76fe:	79 f3       	breq	.-34     	; 0x76de <puts+0x1c>
    7700:	df ef       	ldi	r29, 0xFF	; 255
    7702:	cf ef       	ldi	r28, 0xFF	; 255
    7704:	ec cf       	rjmp	.-40     	; 0x76de <puts+0x1c>
    7706:	8a e0       	ldi	r24, 0x0A	; 10
    7708:	09 95       	icall
    770a:	89 2b       	or	r24, r25
    770c:	19 f0       	breq	.+6      	; 0x7714 <puts+0x52>
    770e:	8f ef       	ldi	r24, 0xFF	; 255
    7710:	9f ef       	ldi	r25, 0xFF	; 255
    7712:	02 c0       	rjmp	.+4      	; 0x7718 <puts+0x56>
    7714:	8d 2f       	mov	r24, r29
    7716:	9c 2f       	mov	r25, r28
    7718:	df 91       	pop	r29
    771a:	cf 91       	pop	r28
    771c:	1f 91       	pop	r17
    771e:	0f 91       	pop	r16
    7720:	08 95       	ret

00007722 <__ultoa_invert>:
    7722:	fa 01       	movw	r30, r20
    7724:	aa 27       	eor	r26, r26
    7726:	28 30       	cpi	r18, 0x08	; 8
    7728:	51 f1       	breq	.+84     	; 0x777e <__ultoa_invert+0x5c>
    772a:	20 31       	cpi	r18, 0x10	; 16
    772c:	81 f1       	breq	.+96     	; 0x778e <__ultoa_invert+0x6c>
    772e:	e8 94       	clt
    7730:	6f 93       	push	r22
    7732:	6e 7f       	andi	r22, 0xFE	; 254
    7734:	6e 5f       	subi	r22, 0xFE	; 254
    7736:	7f 4f       	sbci	r23, 0xFF	; 255
    7738:	8f 4f       	sbci	r24, 0xFF	; 255
    773a:	9f 4f       	sbci	r25, 0xFF	; 255
    773c:	af 4f       	sbci	r26, 0xFF	; 255
    773e:	b1 e0       	ldi	r27, 0x01	; 1
    7740:	3e d0       	rcall	.+124    	; 0x77be <__ultoa_invert+0x9c>
    7742:	b4 e0       	ldi	r27, 0x04	; 4
    7744:	3c d0       	rcall	.+120    	; 0x77be <__ultoa_invert+0x9c>
    7746:	67 0f       	add	r22, r23
    7748:	78 1f       	adc	r23, r24
    774a:	89 1f       	adc	r24, r25
    774c:	9a 1f       	adc	r25, r26
    774e:	a1 1d       	adc	r26, r1
    7750:	68 0f       	add	r22, r24
    7752:	79 1f       	adc	r23, r25
    7754:	8a 1f       	adc	r24, r26
    7756:	91 1d       	adc	r25, r1
    7758:	a1 1d       	adc	r26, r1
    775a:	6a 0f       	add	r22, r26
    775c:	71 1d       	adc	r23, r1
    775e:	81 1d       	adc	r24, r1
    7760:	91 1d       	adc	r25, r1
    7762:	a1 1d       	adc	r26, r1
    7764:	20 d0       	rcall	.+64     	; 0x77a6 <__ultoa_invert+0x84>
    7766:	09 f4       	brne	.+2      	; 0x776a <__ultoa_invert+0x48>
    7768:	68 94       	set
    776a:	3f 91       	pop	r19
    776c:	2a e0       	ldi	r18, 0x0A	; 10
    776e:	26 9f       	mul	r18, r22
    7770:	11 24       	eor	r1, r1
    7772:	30 19       	sub	r19, r0
    7774:	30 5d       	subi	r19, 0xD0	; 208
    7776:	31 93       	st	Z+, r19
    7778:	de f6       	brtc	.-74     	; 0x7730 <__ultoa_invert+0xe>
    777a:	cf 01       	movw	r24, r30
    777c:	08 95       	ret
    777e:	46 2f       	mov	r20, r22
    7780:	47 70       	andi	r20, 0x07	; 7
    7782:	40 5d       	subi	r20, 0xD0	; 208
    7784:	41 93       	st	Z+, r20
    7786:	b3 e0       	ldi	r27, 0x03	; 3
    7788:	0f d0       	rcall	.+30     	; 0x77a8 <__ultoa_invert+0x86>
    778a:	c9 f7       	brne	.-14     	; 0x777e <__ultoa_invert+0x5c>
    778c:	f6 cf       	rjmp	.-20     	; 0x777a <__ultoa_invert+0x58>
    778e:	46 2f       	mov	r20, r22
    7790:	4f 70       	andi	r20, 0x0F	; 15
    7792:	40 5d       	subi	r20, 0xD0	; 208
    7794:	4a 33       	cpi	r20, 0x3A	; 58
    7796:	18 f0       	brcs	.+6      	; 0x779e <__ultoa_invert+0x7c>
    7798:	49 5d       	subi	r20, 0xD9	; 217
    779a:	31 fd       	sbrc	r19, 1
    779c:	40 52       	subi	r20, 0x20	; 32
    779e:	41 93       	st	Z+, r20
    77a0:	02 d0       	rcall	.+4      	; 0x77a6 <__ultoa_invert+0x84>
    77a2:	a9 f7       	brne	.-22     	; 0x778e <__ultoa_invert+0x6c>
    77a4:	ea cf       	rjmp	.-44     	; 0x777a <__ultoa_invert+0x58>
    77a6:	b4 e0       	ldi	r27, 0x04	; 4
    77a8:	a6 95       	lsr	r26
    77aa:	97 95       	ror	r25
    77ac:	87 95       	ror	r24
    77ae:	77 95       	ror	r23
    77b0:	67 95       	ror	r22
    77b2:	ba 95       	dec	r27
    77b4:	c9 f7       	brne	.-14     	; 0x77a8 <__ultoa_invert+0x86>
    77b6:	00 97       	sbiw	r24, 0x00	; 0
    77b8:	61 05       	cpc	r22, r1
    77ba:	71 05       	cpc	r23, r1
    77bc:	08 95       	ret
    77be:	9b 01       	movw	r18, r22
    77c0:	ac 01       	movw	r20, r24
    77c2:	0a 2e       	mov	r0, r26
    77c4:	06 94       	lsr	r0
    77c6:	57 95       	ror	r21
    77c8:	47 95       	ror	r20
    77ca:	37 95       	ror	r19
    77cc:	27 95       	ror	r18
    77ce:	ba 95       	dec	r27
    77d0:	c9 f7       	brne	.-14     	; 0x77c4 <__ultoa_invert+0xa2>
    77d2:	62 0f       	add	r22, r18
    77d4:	73 1f       	adc	r23, r19
    77d6:	84 1f       	adc	r24, r20
    77d8:	95 1f       	adc	r25, r21
    77da:	a0 1d       	adc	r26, r0
    77dc:	08 95       	ret

000077de <calloc>:
    77de:	0f 93       	push	r16
    77e0:	1f 93       	push	r17
    77e2:	cf 93       	push	r28
    77e4:	df 93       	push	r29
    77e6:	86 9f       	mul	r24, r22
    77e8:	80 01       	movw	r16, r0
    77ea:	87 9f       	mul	r24, r23
    77ec:	10 0d       	add	r17, r0
    77ee:	96 9f       	mul	r25, r22
    77f0:	10 0d       	add	r17, r0
    77f2:	11 24       	eor	r1, r1
    77f4:	c8 01       	movw	r24, r16
    77f6:	0e 94 0b 3c 	call	0x7816	; 0x7816 <malloc>
    77fa:	ec 01       	movw	r28, r24
    77fc:	00 97       	sbiw	r24, 0x00	; 0
    77fe:	29 f0       	breq	.+10     	; 0x780a <calloc+0x2c>
    7800:	a8 01       	movw	r20, r16
    7802:	60 e0       	ldi	r22, 0x00	; 0
    7804:	70 e0       	ldi	r23, 0x00	; 0
    7806:	0e 94 2c 3d 	call	0x7a58	; 0x7a58 <memset>
    780a:	ce 01       	movw	r24, r28
    780c:	df 91       	pop	r29
    780e:	cf 91       	pop	r28
    7810:	1f 91       	pop	r17
    7812:	0f 91       	pop	r16
    7814:	08 95       	ret

00007816 <malloc>:
    7816:	0f 93       	push	r16
    7818:	1f 93       	push	r17
    781a:	cf 93       	push	r28
    781c:	df 93       	push	r29
    781e:	82 30       	cpi	r24, 0x02	; 2
    7820:	91 05       	cpc	r25, r1
    7822:	10 f4       	brcc	.+4      	; 0x7828 <malloc+0x12>
    7824:	82 e0       	ldi	r24, 0x02	; 2
    7826:	90 e0       	ldi	r25, 0x00	; 0
    7828:	e0 91 d3 4c 	lds	r30, 0x4CD3	; 0x804cd3 <__flp>
    782c:	f0 91 d4 4c 	lds	r31, 0x4CD4	; 0x804cd4 <__flp+0x1>
    7830:	20 e0       	ldi	r18, 0x00	; 0
    7832:	30 e0       	ldi	r19, 0x00	; 0
    7834:	a0 e0       	ldi	r26, 0x00	; 0
    7836:	b0 e0       	ldi	r27, 0x00	; 0
    7838:	30 97       	sbiw	r30, 0x00	; 0
    783a:	19 f1       	breq	.+70     	; 0x7882 <malloc+0x6c>
    783c:	40 81       	ld	r20, Z
    783e:	51 81       	ldd	r21, Z+1	; 0x01
    7840:	02 81       	ldd	r16, Z+2	; 0x02
    7842:	13 81       	ldd	r17, Z+3	; 0x03
    7844:	48 17       	cp	r20, r24
    7846:	59 07       	cpc	r21, r25
    7848:	c8 f0       	brcs	.+50     	; 0x787c <malloc+0x66>
    784a:	84 17       	cp	r24, r20
    784c:	95 07       	cpc	r25, r21
    784e:	69 f4       	brne	.+26     	; 0x786a <malloc+0x54>
    7850:	10 97       	sbiw	r26, 0x00	; 0
    7852:	31 f0       	breq	.+12     	; 0x7860 <malloc+0x4a>
    7854:	12 96       	adiw	r26, 0x02	; 2
    7856:	0c 93       	st	X, r16
    7858:	12 97       	sbiw	r26, 0x02	; 2
    785a:	13 96       	adiw	r26, 0x03	; 3
    785c:	1c 93       	st	X, r17
    785e:	27 c0       	rjmp	.+78     	; 0x78ae <malloc+0x98>
    7860:	00 93 d3 4c 	sts	0x4CD3, r16	; 0x804cd3 <__flp>
    7864:	10 93 d4 4c 	sts	0x4CD4, r17	; 0x804cd4 <__flp+0x1>
    7868:	22 c0       	rjmp	.+68     	; 0x78ae <malloc+0x98>
    786a:	21 15       	cp	r18, r1
    786c:	31 05       	cpc	r19, r1
    786e:	19 f0       	breq	.+6      	; 0x7876 <malloc+0x60>
    7870:	42 17       	cp	r20, r18
    7872:	53 07       	cpc	r21, r19
    7874:	18 f4       	brcc	.+6      	; 0x787c <malloc+0x66>
    7876:	9a 01       	movw	r18, r20
    7878:	bd 01       	movw	r22, r26
    787a:	ef 01       	movw	r28, r30
    787c:	df 01       	movw	r26, r30
    787e:	f8 01       	movw	r30, r16
    7880:	db cf       	rjmp	.-74     	; 0x7838 <malloc+0x22>
    7882:	21 15       	cp	r18, r1
    7884:	31 05       	cpc	r19, r1
    7886:	f9 f0       	breq	.+62     	; 0x78c6 <malloc+0xb0>
    7888:	28 1b       	sub	r18, r24
    788a:	39 0b       	sbc	r19, r25
    788c:	24 30       	cpi	r18, 0x04	; 4
    788e:	31 05       	cpc	r19, r1
    7890:	80 f4       	brcc	.+32     	; 0x78b2 <malloc+0x9c>
    7892:	8a 81       	ldd	r24, Y+2	; 0x02
    7894:	9b 81       	ldd	r25, Y+3	; 0x03
    7896:	61 15       	cp	r22, r1
    7898:	71 05       	cpc	r23, r1
    789a:	21 f0       	breq	.+8      	; 0x78a4 <malloc+0x8e>
    789c:	fb 01       	movw	r30, r22
    789e:	82 83       	std	Z+2, r24	; 0x02
    78a0:	93 83       	std	Z+3, r25	; 0x03
    78a2:	04 c0       	rjmp	.+8      	; 0x78ac <malloc+0x96>
    78a4:	80 93 d3 4c 	sts	0x4CD3, r24	; 0x804cd3 <__flp>
    78a8:	90 93 d4 4c 	sts	0x4CD4, r25	; 0x804cd4 <__flp+0x1>
    78ac:	fe 01       	movw	r30, r28
    78ae:	32 96       	adiw	r30, 0x02	; 2
    78b0:	44 c0       	rjmp	.+136    	; 0x793a <malloc+0x124>
    78b2:	fe 01       	movw	r30, r28
    78b4:	e2 0f       	add	r30, r18
    78b6:	f3 1f       	adc	r31, r19
    78b8:	81 93       	st	Z+, r24
    78ba:	91 93       	st	Z+, r25
    78bc:	22 50       	subi	r18, 0x02	; 2
    78be:	31 09       	sbc	r19, r1
    78c0:	28 83       	st	Y, r18
    78c2:	39 83       	std	Y+1, r19	; 0x01
    78c4:	3a c0       	rjmp	.+116    	; 0x793a <malloc+0x124>
    78c6:	20 91 d1 4c 	lds	r18, 0x4CD1	; 0x804cd1 <__brkval>
    78ca:	30 91 d2 4c 	lds	r19, 0x4CD2	; 0x804cd2 <__brkval+0x1>
    78ce:	23 2b       	or	r18, r19
    78d0:	41 f4       	brne	.+16     	; 0x78e2 <malloc+0xcc>
    78d2:	20 91 02 40 	lds	r18, 0x4002	; 0x804002 <__malloc_heap_start>
    78d6:	30 91 03 40 	lds	r19, 0x4003	; 0x804003 <__malloc_heap_start+0x1>
    78da:	20 93 d1 4c 	sts	0x4CD1, r18	; 0x804cd1 <__brkval>
    78de:	30 93 d2 4c 	sts	0x4CD2, r19	; 0x804cd2 <__brkval+0x1>
    78e2:	20 91 00 40 	lds	r18, 0x4000	; 0x804000 <__DATA_REGION_ORIGIN__>
    78e6:	30 91 01 40 	lds	r19, 0x4001	; 0x804001 <__DATA_REGION_ORIGIN__+0x1>
    78ea:	21 15       	cp	r18, r1
    78ec:	31 05       	cpc	r19, r1
    78ee:	41 f4       	brne	.+16     	; 0x7900 <malloc+0xea>
    78f0:	2d b7       	in	r18, 0x3d	; 61
    78f2:	3e b7       	in	r19, 0x3e	; 62
    78f4:	40 91 04 40 	lds	r20, 0x4004	; 0x804004 <__malloc_margin>
    78f8:	50 91 05 40 	lds	r21, 0x4005	; 0x804005 <__malloc_margin+0x1>
    78fc:	24 1b       	sub	r18, r20
    78fe:	35 0b       	sbc	r19, r21
    7900:	e0 91 d1 4c 	lds	r30, 0x4CD1	; 0x804cd1 <__brkval>
    7904:	f0 91 d2 4c 	lds	r31, 0x4CD2	; 0x804cd2 <__brkval+0x1>
    7908:	e2 17       	cp	r30, r18
    790a:	f3 07       	cpc	r31, r19
    790c:	a0 f4       	brcc	.+40     	; 0x7936 <malloc+0x120>
    790e:	2e 1b       	sub	r18, r30
    7910:	3f 0b       	sbc	r19, r31
    7912:	28 17       	cp	r18, r24
    7914:	39 07       	cpc	r19, r25
    7916:	78 f0       	brcs	.+30     	; 0x7936 <malloc+0x120>
    7918:	ac 01       	movw	r20, r24
    791a:	4e 5f       	subi	r20, 0xFE	; 254
    791c:	5f 4f       	sbci	r21, 0xFF	; 255
    791e:	24 17       	cp	r18, r20
    7920:	35 07       	cpc	r19, r21
    7922:	48 f0       	brcs	.+18     	; 0x7936 <malloc+0x120>
    7924:	4e 0f       	add	r20, r30
    7926:	5f 1f       	adc	r21, r31
    7928:	40 93 d1 4c 	sts	0x4CD1, r20	; 0x804cd1 <__brkval>
    792c:	50 93 d2 4c 	sts	0x4CD2, r21	; 0x804cd2 <__brkval+0x1>
    7930:	81 93       	st	Z+, r24
    7932:	91 93       	st	Z+, r25
    7934:	02 c0       	rjmp	.+4      	; 0x793a <malloc+0x124>
    7936:	e0 e0       	ldi	r30, 0x00	; 0
    7938:	f0 e0       	ldi	r31, 0x00	; 0
    793a:	cf 01       	movw	r24, r30
    793c:	df 91       	pop	r29
    793e:	cf 91       	pop	r28
    7940:	1f 91       	pop	r17
    7942:	0f 91       	pop	r16
    7944:	08 95       	ret

00007946 <free>:
    7946:	cf 93       	push	r28
    7948:	df 93       	push	r29
    794a:	00 97       	sbiw	r24, 0x00	; 0
    794c:	09 f4       	brne	.+2      	; 0x7950 <free+0xa>
    794e:	81 c0       	rjmp	.+258    	; 0x7a52 <free+0x10c>
    7950:	fc 01       	movw	r30, r24
    7952:	32 97       	sbiw	r30, 0x02	; 2
    7954:	12 82       	std	Z+2, r1	; 0x02
    7956:	13 82       	std	Z+3, r1	; 0x03
    7958:	a0 91 d3 4c 	lds	r26, 0x4CD3	; 0x804cd3 <__flp>
    795c:	b0 91 d4 4c 	lds	r27, 0x4CD4	; 0x804cd4 <__flp+0x1>
    7960:	10 97       	sbiw	r26, 0x00	; 0
    7962:	81 f4       	brne	.+32     	; 0x7984 <free+0x3e>
    7964:	20 81       	ld	r18, Z
    7966:	31 81       	ldd	r19, Z+1	; 0x01
    7968:	82 0f       	add	r24, r18
    796a:	93 1f       	adc	r25, r19
    796c:	20 91 d1 4c 	lds	r18, 0x4CD1	; 0x804cd1 <__brkval>
    7970:	30 91 d2 4c 	lds	r19, 0x4CD2	; 0x804cd2 <__brkval+0x1>
    7974:	28 17       	cp	r18, r24
    7976:	39 07       	cpc	r19, r25
    7978:	51 f5       	brne	.+84     	; 0x79ce <free+0x88>
    797a:	e0 93 d1 4c 	sts	0x4CD1, r30	; 0x804cd1 <__brkval>
    797e:	f0 93 d2 4c 	sts	0x4CD2, r31	; 0x804cd2 <__brkval+0x1>
    7982:	67 c0       	rjmp	.+206    	; 0x7a52 <free+0x10c>
    7984:	ed 01       	movw	r28, r26
    7986:	20 e0       	ldi	r18, 0x00	; 0
    7988:	30 e0       	ldi	r19, 0x00	; 0
    798a:	ce 17       	cp	r28, r30
    798c:	df 07       	cpc	r29, r31
    798e:	40 f4       	brcc	.+16     	; 0x79a0 <free+0x5a>
    7990:	4a 81       	ldd	r20, Y+2	; 0x02
    7992:	5b 81       	ldd	r21, Y+3	; 0x03
    7994:	9e 01       	movw	r18, r28
    7996:	41 15       	cp	r20, r1
    7998:	51 05       	cpc	r21, r1
    799a:	f1 f0       	breq	.+60     	; 0x79d8 <free+0x92>
    799c:	ea 01       	movw	r28, r20
    799e:	f5 cf       	rjmp	.-22     	; 0x798a <free+0x44>
    79a0:	c2 83       	std	Z+2, r28	; 0x02
    79a2:	d3 83       	std	Z+3, r29	; 0x03
    79a4:	40 81       	ld	r20, Z
    79a6:	51 81       	ldd	r21, Z+1	; 0x01
    79a8:	84 0f       	add	r24, r20
    79aa:	95 1f       	adc	r25, r21
    79ac:	c8 17       	cp	r28, r24
    79ae:	d9 07       	cpc	r29, r25
    79b0:	59 f4       	brne	.+22     	; 0x79c8 <free+0x82>
    79b2:	88 81       	ld	r24, Y
    79b4:	99 81       	ldd	r25, Y+1	; 0x01
    79b6:	84 0f       	add	r24, r20
    79b8:	95 1f       	adc	r25, r21
    79ba:	02 96       	adiw	r24, 0x02	; 2
    79bc:	80 83       	st	Z, r24
    79be:	91 83       	std	Z+1, r25	; 0x01
    79c0:	8a 81       	ldd	r24, Y+2	; 0x02
    79c2:	9b 81       	ldd	r25, Y+3	; 0x03
    79c4:	82 83       	std	Z+2, r24	; 0x02
    79c6:	93 83       	std	Z+3, r25	; 0x03
    79c8:	21 15       	cp	r18, r1
    79ca:	31 05       	cpc	r19, r1
    79cc:	29 f4       	brne	.+10     	; 0x79d8 <free+0x92>
    79ce:	e0 93 d3 4c 	sts	0x4CD3, r30	; 0x804cd3 <__flp>
    79d2:	f0 93 d4 4c 	sts	0x4CD4, r31	; 0x804cd4 <__flp+0x1>
    79d6:	3d c0       	rjmp	.+122    	; 0x7a52 <free+0x10c>
    79d8:	e9 01       	movw	r28, r18
    79da:	ea 83       	std	Y+2, r30	; 0x02
    79dc:	fb 83       	std	Y+3, r31	; 0x03
    79de:	49 91       	ld	r20, Y+
    79e0:	59 91       	ld	r21, Y+
    79e2:	c4 0f       	add	r28, r20
    79e4:	d5 1f       	adc	r29, r21
    79e6:	ec 17       	cp	r30, r28
    79e8:	fd 07       	cpc	r31, r29
    79ea:	61 f4       	brne	.+24     	; 0x7a04 <free+0xbe>
    79ec:	80 81       	ld	r24, Z
    79ee:	91 81       	ldd	r25, Z+1	; 0x01
    79f0:	84 0f       	add	r24, r20
    79f2:	95 1f       	adc	r25, r21
    79f4:	02 96       	adiw	r24, 0x02	; 2
    79f6:	e9 01       	movw	r28, r18
    79f8:	88 83       	st	Y, r24
    79fa:	99 83       	std	Y+1, r25	; 0x01
    79fc:	82 81       	ldd	r24, Z+2	; 0x02
    79fe:	93 81       	ldd	r25, Z+3	; 0x03
    7a00:	8a 83       	std	Y+2, r24	; 0x02
    7a02:	9b 83       	std	Y+3, r25	; 0x03
    7a04:	e0 e0       	ldi	r30, 0x00	; 0
    7a06:	f0 e0       	ldi	r31, 0x00	; 0
    7a08:	12 96       	adiw	r26, 0x02	; 2
    7a0a:	8d 91       	ld	r24, X+
    7a0c:	9c 91       	ld	r25, X
    7a0e:	13 97       	sbiw	r26, 0x03	; 3
    7a10:	00 97       	sbiw	r24, 0x00	; 0
    7a12:	19 f0       	breq	.+6      	; 0x7a1a <free+0xd4>
    7a14:	fd 01       	movw	r30, r26
    7a16:	dc 01       	movw	r26, r24
    7a18:	f7 cf       	rjmp	.-18     	; 0x7a08 <free+0xc2>
    7a1a:	8d 91       	ld	r24, X+
    7a1c:	9c 91       	ld	r25, X
    7a1e:	11 97       	sbiw	r26, 0x01	; 1
    7a20:	9d 01       	movw	r18, r26
    7a22:	2e 5f       	subi	r18, 0xFE	; 254
    7a24:	3f 4f       	sbci	r19, 0xFF	; 255
    7a26:	82 0f       	add	r24, r18
    7a28:	93 1f       	adc	r25, r19
    7a2a:	20 91 d1 4c 	lds	r18, 0x4CD1	; 0x804cd1 <__brkval>
    7a2e:	30 91 d2 4c 	lds	r19, 0x4CD2	; 0x804cd2 <__brkval+0x1>
    7a32:	28 17       	cp	r18, r24
    7a34:	39 07       	cpc	r19, r25
    7a36:	69 f4       	brne	.+26     	; 0x7a52 <free+0x10c>
    7a38:	30 97       	sbiw	r30, 0x00	; 0
    7a3a:	29 f4       	brne	.+10     	; 0x7a46 <free+0x100>
    7a3c:	10 92 d3 4c 	sts	0x4CD3, r1	; 0x804cd3 <__flp>
    7a40:	10 92 d4 4c 	sts	0x4CD4, r1	; 0x804cd4 <__flp+0x1>
    7a44:	02 c0       	rjmp	.+4      	; 0x7a4a <free+0x104>
    7a46:	12 82       	std	Z+2, r1	; 0x02
    7a48:	13 82       	std	Z+3, r1	; 0x03
    7a4a:	a0 93 d1 4c 	sts	0x4CD1, r26	; 0x804cd1 <__brkval>
    7a4e:	b0 93 d2 4c 	sts	0x4CD2, r27	; 0x804cd2 <__brkval+0x1>
    7a52:	df 91       	pop	r29
    7a54:	cf 91       	pop	r28
    7a56:	08 95       	ret

00007a58 <memset>:
    7a58:	dc 01       	movw	r26, r24
    7a5a:	01 c0       	rjmp	.+2      	; 0x7a5e <memset+0x6>
    7a5c:	6d 93       	st	X+, r22
    7a5e:	41 50       	subi	r20, 0x01	; 1
    7a60:	50 40       	sbci	r21, 0x00	; 0
    7a62:	e0 f7       	brcc	.-8      	; 0x7a5c <memset+0x4>
    7a64:	08 95       	ret

00007a66 <_exit>:
    7a66:	f8 94       	cli

00007a68 <__stop_program>:
    7a68:	ff cf       	rjmp	.-2      	; 0x7a68 <__stop_program>
