
Pig_Scales-1.elf:     file format elf32-avr

Sections:
Idx Name          Size      VMA       LMA       File off  Algn
  0 .data         0000016e  00804000  0000916a  00008c1e  2**0
                  CONTENTS, ALLOC, LOAD, DATA
  1 .text         00008b6a  00000600  00000600  000000b4  2**1
                  CONTENTS, ALLOC, LOAD, READONLY, CODE
  2 .bss          000002b2  0080416e  0080416e  00008d8c  2**0
                  ALLOC
  3 .fuse         00000009  00820000  00820000  00008d8c  2**0
                  CONTENTS, ALLOC, LOAD, DATA
  4 .comment      0000005c  00000000  00000000  00008d95  2**0
                  CONTENTS, READONLY
  5 .note.gnu.avr.deviceinfo 00000040  00000000  00000000  00008df4  2**2
                  CONTENTS, READONLY
  6 .debug_aranges 00000620  00000000  00000000  00008e38  2**3
                  CONTENTS, READONLY, DEBUGGING
  7 .debug_info   00010e69  00000000  00000000  00009458  2**0
                  CONTENTS, READONLY, DEBUGGING
  8 .debug_abbrev 00004cba  00000000  00000000  0001a2c1  2**0
                  CONTENTS, READONLY, DEBUGGING
  9 .debug_line   000064ac  00000000  00000000  0001ef7b  2**0
                  CONTENTS, READONLY, DEBUGGING
 10 .debug_frame  00001100  00000000  00000000  00025428  2**2
                  CONTENTS, READONLY, DEBUGGING
 11 .debug_str    0000398f  00000000  00000000  00026528  2**0
                  CONTENTS, READONLY, DEBUGGING
 12 .debug_loc    00004fe3  00000000  00000000  00029eb7  2**0
                  CONTENTS, READONLY, DEBUGGING
 13 .debug_ranges 00000530  00000000  00000000  0002ee9a  2**0
                  CONTENTS, READONLY, DEBUGGING

Disassembly of section .text:

00000600 <__vectors>:
     600:	0c 94 17 04 	jmp	0x82e	; 0x82e <__ctors_end>
     604:	0c 94 36 04 	jmp	0x86c	; 0x86c <__bad_interrupt>
     608:	0c 94 36 04 	jmp	0x86c	; 0x86c <__bad_interrupt>
     60c:	0c 94 36 04 	jmp	0x86c	; 0x86c <__bad_interrupt>
     610:	0c 94 36 04 	jmp	0x86c	; 0x86c <__bad_interrupt>
     614:	0c 94 36 04 	jmp	0x86c	; 0x86c <__bad_interrupt>
     618:	0c 94 36 04 	jmp	0x86c	; 0x86c <__bad_interrupt>
     61c:	0c 94 36 04 	jmp	0x86c	; 0x86c <__bad_interrupt>
     620:	0c 94 36 04 	jmp	0x86c	; 0x86c <__bad_interrupt>
     624:	0c 94 36 04 	jmp	0x86c	; 0x86c <__bad_interrupt>
     628:	0c 94 36 04 	jmp	0x86c	; 0x86c <__bad_interrupt>
     62c:	0c 94 36 04 	jmp	0x86c	; 0x86c <__bad_interrupt>
     630:	0c 94 36 04 	jmp	0x86c	; 0x86c <__bad_interrupt>
     634:	0c 94 36 04 	jmp	0x86c	; 0x86c <__bad_interrupt>
     638:	0c 94 36 04 	jmp	0x86c	; 0x86c <__bad_interrupt>
     63c:	0c 94 36 04 	jmp	0x86c	; 0x86c <__bad_interrupt>
     640:	0c 94 36 04 	jmp	0x86c	; 0x86c <__bad_interrupt>
     644:	0c 94 36 04 	jmp	0x86c	; 0x86c <__bad_interrupt>
     648:	0c 94 36 04 	jmp	0x86c	; 0x86c <__bad_interrupt>
     64c:	0c 94 36 04 	jmp	0x86c	; 0x86c <__bad_interrupt>
     650:	0c 94 36 04 	jmp	0x86c	; 0x86c <__bad_interrupt>
     654:	0c 94 36 04 	jmp	0x86c	; 0x86c <__bad_interrupt>
     658:	0c 94 36 04 	jmp	0x86c	; 0x86c <__bad_interrupt>
     65c:	0c 94 36 04 	jmp	0x86c	; 0x86c <__bad_interrupt>
     660:	0c 94 36 04 	jmp	0x86c	; 0x86c <__bad_interrupt>
     664:	0c 94 36 04 	jmp	0x86c	; 0x86c <__bad_interrupt>
     668:	0c 94 36 04 	jmp	0x86c	; 0x86c <__bad_interrupt>
     66c:	0c 94 36 04 	jmp	0x86c	; 0x86c <__bad_interrupt>
     670:	0c 94 36 04 	jmp	0x86c	; 0x86c <__bad_interrupt>
     674:	0c 94 36 04 	jmp	0x86c	; 0x86c <__bad_interrupt>
     678:	0c 94 36 04 	jmp	0x86c	; 0x86c <__bad_interrupt>
     67c:	0c 94 43 04 	jmp	0x886	; 0x886 <__vector_31>
     680:	0c 94 36 04 	jmp	0x86c	; 0x86c <__bad_interrupt>
     684:	0c 94 36 04 	jmp	0x86c	; 0x86c <__bad_interrupt>
     688:	0c 94 36 04 	jmp	0x86c	; 0x86c <__bad_interrupt>
     68c:	0c 94 36 04 	jmp	0x86c	; 0x86c <__bad_interrupt>
     690:	0c 94 36 04 	jmp	0x86c	; 0x86c <__bad_interrupt>
     694:	0c 94 36 04 	jmp	0x86c	; 0x86c <__bad_interrupt>
     698:	0c 94 36 04 	jmp	0x86c	; 0x86c <__bad_interrupt>
     69c:	0c 94 36 04 	jmp	0x86c	; 0x86c <__bad_interrupt>
     6a0:	0c 94 36 04 	jmp	0x86c	; 0x86c <__bad_interrupt>
     6a4:	0c 94 36 04 	jmp	0x86c	; 0x86c <__bad_interrupt>
     6a8:	0c 94 36 04 	jmp	0x86c	; 0x86c <__bad_interrupt>
     6ac:	0c 94 a1 17 	jmp	0x2f42	; 0x2f42 <__vector_43>
     6b0:	0c 94 36 04 	jmp	0x86c	; 0x86c <__bad_interrupt>
     6b4:	0c 94 36 04 	jmp	0x86c	; 0x86c <__bad_interrupt>
     6b8:	0c 94 9b 04 	jmp	0x936	; 0x936 <__vector_46>
     6bc:	0c 94 36 04 	jmp	0x86c	; 0x86c <__bad_interrupt>
     6c0:	0c 94 36 04 	jmp	0x86c	; 0x86c <__bad_interrupt>
     6c4:	0c 94 36 04 	jmp	0x86c	; 0x86c <__bad_interrupt>
     6c8:	0c 94 36 04 	jmp	0x86c	; 0x86c <__bad_interrupt>
     6cc:	0c 94 36 04 	jmp	0x86c	; 0x86c <__bad_interrupt>
     6d0:	0c 94 6f 04 	jmp	0x8de	; 0x8de <__vector_52>
     6d4:	0c 94 36 04 	jmp	0x86c	; 0x86c <__bad_interrupt>
     6d8:	0c 94 36 04 	jmp	0x86c	; 0x86c <__bad_interrupt>
     6dc:	0c 94 36 04 	jmp	0x86c	; 0x86c <__bad_interrupt>
     6e0:	0c 94 36 04 	jmp	0x86c	; 0x86c <__bad_interrupt>
     6e4:	0c 94 36 04 	jmp	0x86c	; 0x86c <__bad_interrupt>
     6e8:	0c 94 36 04 	jmp	0x86c	; 0x86c <__bad_interrupt>
     6ec:	0c 94 36 04 	jmp	0x86c	; 0x86c <__bad_interrupt>
     6f0:	0c 94 36 04 	jmp	0x86c	; 0x86c <__bad_interrupt>
     6f4:	0c 94 36 04 	jmp	0x86c	; 0x86c <__bad_interrupt>
     6f8:	0c 94 36 04 	jmp	0x86c	; 0x86c <__bad_interrupt>
     6fc:	0c 94 36 04 	jmp	0x86c	; 0x86c <__bad_interrupt>
     700:	6e 31       	cpi	r22, 0x1E	; 30
     702:	31 30       	cpi	r19, 0x01	; 1
     704:	61 30       	cpi	r22, 0x01	; 1
     706:	92 30       	cpi	r25, 0x02	; 2
     708:	c1 30       	cpi	r28, 0x01	; 1
     70a:	fb 30       	cpi	r31, 0x0B	; 11
     70c:	36 31       	cpi	r19, 0x16	; 22
     70e:	6c 31       	cpi	r22, 0x1C	; 28
     710:	63 32       	cpi	r22, 0x23	; 35
     712:	67 32       	cpi	r22, 0x27	; 39
     714:	6b 32       	cpi	r22, 0x2B	; 43
     716:	6f 32       	cpi	r22, 0x2F	; 47
     718:	75 32       	cpi	r23, 0x25	; 37
     71a:	79 32       	cpi	r23, 0x29	; 41
     71c:	7d 32       	cpi	r23, 0x2D	; 45
     71e:	3f 33       	cpi	r19, 0x3F	; 63
     720:	a9 33       	cpi	r26, 0x39	; 57
     722:	12 34       	cpi	r17, 0x42	; 66
     724:	7a 34       	cpi	r23, 0x4A	; 74
     726:	e4 34       	cpi	r30, 0x44	; 68
     728:	4e 35       	cpi	r20, 0x5E	; 94
     72a:	b5 35       	cpi	r27, 0x55	; 85

0000072c <__trampolines_end>:
     72c:	6e 61       	ori	r22, 0x1E	; 30
     72e:	6e 00       	.word	0x006e	; ????

00000730 <__c.2332>:
     730:	69 6e 66 00 00 40 7a 10 f3 5a 00 a0 72 4e 18 09     inf..@z..Z..rN..
     740:	00 10 a5 d4 e8 00 00 e8 76 48 17 00 00 e4 0b 54     ........vH.....T
     750:	02 00 00 ca 9a 3b 00 00 00 e1 f5 05 00 00 80 96     .....;..........
     760:	98 00 00 00 40 42 0f 00 00 00 a0 86 01 00 00 00     ....@B..........
     770:	10 27 00 00 00 00 e8 03 00 00 00 00 64 00 00 00     .'..........d...
     780:	00 00 0a 00 00 00 00 00 01 00 00 00 00 00 2c 76     ..............,v
     790:	d8 88 dc 67 4f 08 23 df c1 df ae 59 e1 b1 b7 96     ...gO.#....Y....
     7a0:	e5 e3 e4 53 c6 3a e6 51 99 76 96 e8 e6 c2 84 26     ...S.:.Q.v.....&
     7b0:	eb 89 8c 9b 62 ed 40 7c 6f fc ef bc 9c 9f 40 f2     ....b.@|o.....@.
     7c0:	ba a5 6f a5 f4 90 05 5a 2a f7 5c 93 6b 6c f9 67     ..o....Z*.\.kl.g
     7d0:	6d c1 1b fc e0 e4 0d 47 fe f5 20 e6 b5 00 d0 ed     m......G.. .....
     7e0:	90 2e 03 00 94 35 77 05 00 80 84 1e 08 00 00 20     .....5w........ 
     7f0:	4e 0a 00 00 00 c8 0c 33 33 33 33 0f 98 6e 12 83     N......3333..n..
     800:	11 41 ef 8d 21 14 89 3b e6 55 16 cf fe e6 db 18     .A..!..;.U......
     810:	d1 84 4b 38 1b f7 7c 1d 90 1d a4 bb e4 24 20 32     ..K8..|......$ 2
     820:	84 72 5e 22 81 00 c9 f1 24 ec a1 e5 3d 27           .r^"....$...='

0000082e <__ctors_end>:
     82e:	11 24       	eor	r1, r1
     830:	1f be       	out	0x3f, r1	; 63
     832:	cf ef       	ldi	r28, 0xFF	; 255
     834:	cd bf       	out	0x3d, r28	; 61
     836:	df e7       	ldi	r29, 0x7F	; 127
     838:	de bf       	out	0x3e, r29	; 62

0000083a <__do_copy_data>:
     83a:	11 e4       	ldi	r17, 0x41	; 65
     83c:	a0 e0       	ldi	r26, 0x00	; 0
     83e:	b0 e4       	ldi	r27, 0x40	; 64
     840:	ea e6       	ldi	r30, 0x6A	; 106
     842:	f1 e9       	ldi	r31, 0x91	; 145
     844:	00 e0       	ldi	r16, 0x00	; 0
     846:	0b bf       	out	0x3b, r16	; 59
     848:	02 c0       	rjmp	.+4      	; 0x84e <__do_copy_data+0x14>
     84a:	07 90       	elpm	r0, Z+
     84c:	0d 92       	st	X+, r0
     84e:	ae 36       	cpi	r26, 0x6E	; 110
     850:	b1 07       	cpc	r27, r17
     852:	d9 f7       	brne	.-10     	; 0x84a <__do_copy_data+0x10>

00000854 <__do_clear_bss>:
     854:	24 e4       	ldi	r18, 0x44	; 68
     856:	ae e6       	ldi	r26, 0x6E	; 110
     858:	b1 e4       	ldi	r27, 0x41	; 65
     85a:	01 c0       	rjmp	.+2      	; 0x85e <.do_clear_bss_start>

0000085c <.do_clear_bss_loop>:
     85c:	1d 92       	st	X+, r1

0000085e <.do_clear_bss_start>:
     85e:	a0 32       	cpi	r26, 0x20	; 32
     860:	b2 07       	cpc	r27, r18
     862:	e1 f7       	brne	.-8      	; 0x85c <.do_clear_bss_loop>
     864:	0e 94 20 11 	call	0x2240	; 0x2240 <main>
     868:	0c 94 b3 48 	jmp	0x9166	; 0x9166 <_exit>

0000086c <__bad_interrupt>:
     86c:	0c 94 00 03 	jmp	0x600	; 0x600 <__vectors>

00000870 <atmel_start_init>:
/**
 * Initializes MCU, drivers and middleware in the project
 **/
void atmel_start_init(void)
{
	system_init();
     870:	0e 94 35 13 	call	0x266a	; 0x266a <system_init>
     874:	08 95       	ret

00000876 <Beep>:
#include <compiler.h>

//=================================================================================================
void Beep(uint16_t BeepTimer_1ms)
{
	Buzzer_ON;								// Buzzer on
     876:	e4 e0       	ldi	r30, 0x04	; 4
     878:	f4 e0       	ldi	r31, 0x04	; 4
     87a:	90 81       	ld	r25, Z
     87c:	92 60       	ori	r25, 0x02	; 2
     87e:	90 83       	st	Z, r25
	Beep_Timer = BeepTimer_1ms;
     880:	80 93 a1 42 	sts	0x42A1, r24	; 0x8042a1 <Beep_Timer>
     884:	08 95       	ret

00000886 <__vector_31>:
#endif

//=================================================================================================
#ifdef Usart_1
ISR(USART1_RXC_vect)
{
     886:	1f 92       	push	r1
     888:	0f 92       	push	r0
     88a:	0f b6       	in	r0, 0x3f	; 63
     88c:	0f 92       	push	r0
     88e:	11 24       	eor	r1, r1
     890:	0b b6       	in	r0, 0x3b	; 59
     892:	0f 92       	push	r0
     894:	8f 93       	push	r24
     896:	9f 93       	push	r25
     898:	ef 93       	push	r30
     89a:	ff 93       	push	r31
	while(!(USART1.STATUS & USART_RXCIF_bm)) ;
     89c:	80 91 24 08 	lds	r24, 0x0824	; 0x800824 <__TEXT_REGION_LENGTH__+0x7e0824>
     8a0:	88 23       	and	r24, r24
     8a2:	e4 f7       	brge	.-8      	; 0x89c <__vector_31+0x16>
	Rx1_Buff[Rx1_Cnt] = USART1.RXDATAL;
     8a4:	80 91 d5 41 	lds	r24, 0x41D5	; 0x8041d5 <Rx1_Cnt>
     8a8:	e8 2f       	mov	r30, r24
     8aa:	f0 e0       	ldi	r31, 0x00	; 0
     8ac:	90 91 20 08 	lds	r25, 0x0820	; 0x800820 <__TEXT_REGION_LENGTH__+0x7e0820>
     8b0:	ef 51       	subi	r30, 0x1F	; 31
     8b2:	fe 4b       	sbci	r31, 0xBE	; 190
     8b4:	90 83       	st	Z, r25
	if(Rx1_Cnt >= RX1_SIZE) {Rx1_Cnt = 0;}					// RX1_SIZE : 250
     8b6:	89 31       	cpi	r24, 0x19	; 25
     8b8:	10 f0       	brcs	.+4      	; 0x8be <__vector_31+0x38>
     8ba:	10 92 d5 41 	sts	0x41D5, r1	; 0x8041d5 <Rx1_Cnt>
	Rx1_Cnt++;
     8be:	80 91 d5 41 	lds	r24, 0x41D5	; 0x8041d5 <Rx1_Cnt>
     8c2:	8f 5f       	subi	r24, 0xFF	; 255
     8c4:	80 93 d5 41 	sts	0x41D5, r24	; 0x8041d5 <Rx1_Cnt>
}
     8c8:	ff 91       	pop	r31
     8ca:	ef 91       	pop	r30
     8cc:	9f 91       	pop	r25
     8ce:	8f 91       	pop	r24
     8d0:	0f 90       	pop	r0
     8d2:	0b be       	out	0x3b, r0	; 59
     8d4:	0f 90       	pop	r0
     8d6:	0f be       	out	0x3f, r0	; 63
     8d8:	0f 90       	pop	r0
     8da:	1f 90       	pop	r1
     8dc:	18 95       	reti

000008de <__vector_52>:
#endif

//=================================================================================================
#ifdef Usart_3
ISR(USART3_RXC_vect)
{
     8de:	1f 92       	push	r1
     8e0:	0f 92       	push	r0
     8e2:	0f b6       	in	r0, 0x3f	; 63
     8e4:	0f 92       	push	r0
     8e6:	11 24       	eor	r1, r1
     8e8:	0b b6       	in	r0, 0x3b	; 59
     8ea:	0f 92       	push	r0
     8ec:	8f 93       	push	r24
     8ee:	9f 93       	push	r25
     8f0:	ef 93       	push	r30
     8f2:	ff 93       	push	r31
	while(!(USART3.STATUS & USART_RXCIF_bm)) ;
     8f4:	80 91 64 08 	lds	r24, 0x0864	; 0x800864 <__TEXT_REGION_LENGTH__+0x7e0864>
     8f8:	88 23       	and	r24, r24
     8fa:	e4 f7       	brge	.-8      	; 0x8f4 <__vector_52+0x16>
	Rx3_Buff[Rx3_Cnt] = USART3.RXDATAL;
     8fc:	80 91 a7 42 	lds	r24, 0x42A7	; 0x8042a7 <Rx3_Cnt>
     900:	e8 2f       	mov	r30, r24
     902:	f0 e0       	ldi	r31, 0x00	; 0
     904:	90 91 60 08 	lds	r25, 0x0860	; 0x800860 <__TEXT_REGION_LENGTH__+0x7e0860>
     908:	e9 51       	subi	r30, 0x19	; 25
     90a:	fd 4b       	sbci	r31, 0xBD	; 189
     90c:	90 83       	st	Z, r25
	if(Rx3_Cnt >= RX3_SIZE) {Rx3_Cnt = 0;}					// RX3_SIZE : 250
     90e:	8a 3f       	cpi	r24, 0xFA	; 250
     910:	10 f0       	brcs	.+4      	; 0x916 <__vector_52+0x38>
     912:	10 92 a7 42 	sts	0x42A7, r1	; 0x8042a7 <Rx3_Cnt>
	Rx3_Cnt++;
     916:	80 91 a7 42 	lds	r24, 0x42A7	; 0x8042a7 <Rx3_Cnt>
     91a:	8f 5f       	subi	r24, 0xFF	; 255
     91c:	80 93 a7 42 	sts	0x42A7, r24	; 0x8042a7 <Rx3_Cnt>
}
     920:	ff 91       	pop	r31
     922:	ef 91       	pop	r30
     924:	9f 91       	pop	r25
     926:	8f 91       	pop	r24
     928:	0f 90       	pop	r0
     92a:	0b be       	out	0x3b, r0	; 59
     92c:	0f 90       	pop	r0
     92e:	0f be       	out	0x3f, r0	; 63
     930:	0f 90       	pop	r0
     932:	1f 90       	pop	r1
     934:	18 95       	reti

00000936 <__vector_46>:
#endif

//=================================================================================================
#ifdef Timer_1
ISR(TCA1_OVF_vect)								// 5mSec Timer
{
     936:	1f 92       	push	r1
     938:	0f 92       	push	r0
     93a:	0f b6       	in	r0, 0x3f	; 63
     93c:	0f 92       	push	r0
     93e:	11 24       	eor	r1, r1
     940:	0b b6       	in	r0, 0x3b	; 59
     942:	0f 92       	push	r0
     944:	2f 93       	push	r18
     946:	3f 93       	push	r19
     948:	4f 93       	push	r20
     94a:	5f 93       	push	r21
     94c:	6f 93       	push	r22
     94e:	7f 93       	push	r23
     950:	8f 93       	push	r24
     952:	9f 93       	push	r25
     954:	af 93       	push	r26
     956:	bf 93       	push	r27
     958:	ef 93       	push	r30
     95a:	ff 93       	push	r31
	TCA1.SINGLE.INTFLAGS = TCA_SINGLE_OVF_bm;				// TCA1 ┐└╣÷╟├╖╬┐÷ SET
     95c:	81 e0       	ldi	r24, 0x01	; 1
     95e:	80 93 4b 0a 	sts	0x0A4B, r24	; 0x800a4b <__TEXT_REGION_LENGTH__+0x7e0a4b>

	Fnd_Display();								// FND Display
     962:	0e 94 4f 05 	call	0xa9e	; 0xa9e <Fnd_Display>
	Key_Scan();								// key └╘╖┬ ├╝┼σ
     966:	0e 94 ef 05 	call	0xbde	; 0xbde <Key_Scan>

	if(Timer.Input_Key == 0) {KEY.Buff = 0; KEY.Key = 0;}			// Timer.Input_Key ░κ 0 └╠╕ώ Key ░ς ╣╫ Key └╘╖┬ ├╩▒έ╚φ
     96a:	80 91 5d 42 	lds	r24, 0x425D	; 0x80425d <Timer>
     96e:	81 11       	cpse	r24, r1
     970:	05 c0       	rjmp	.+10     	; 0x97c <__vector_46+0x46>
     972:	e0 e8       	ldi	r30, 0x80	; 128
     974:	f2 e4       	ldi	r31, 0x42	; 66
     976:	11 82       	std	Z+1, r1	; 0x01
     978:	12 82       	std	Z+2, r1	; 0x02
     97a:	05 c0       	rjmp	.+10     	; 0x986 <__vector_46+0x50>
	else			 {Timer.Input_Key--;}				// Timer.Input_Key ░κ 0 └╠ ╛╞┤╧╕ώ Timer.Input_Key ░ρ╝╥
     97c:	ed e5       	ldi	r30, 0x5D	; 93
     97e:	f2 e4       	ldi	r31, 0x42	; 66
     980:	80 81       	ld	r24, Z
     982:	81 50       	subi	r24, 0x01	; 1
     984:	80 83       	st	Z, r24
//-------------------------------------------------------------------------------------------------
	if(Beep_Timer == 0) {Buzzer_OFF;}					// Beep_Timer ░κ 0 └╠╕ώ Buzzer OFF
     986:	80 91 a1 42 	lds	r24, 0x42A1	; 0x8042a1 <Beep_Timer>
     98a:	81 11       	cpse	r24, r1
     98c:	06 c0       	rjmp	.+12     	; 0x99a <__vector_46+0x64>
     98e:	e4 e0       	ldi	r30, 0x04	; 4
     990:	f4 e0       	ldi	r31, 0x04	; 4
     992:	80 81       	ld	r24, Z
     994:	8d 7f       	andi	r24, 0xFD	; 253
     996:	80 83       	st	Z, r24
     998:	03 c0       	rjmp	.+6      	; 0x9a0 <__vector_46+0x6a>
	else		    {Beep_Timer--;}					// Beep_Timer ░κ 0 └╠ ╛╞┤╧╕ώ Beep_Timer ░ρ╝╥
     99a:	81 50       	subi	r24, 0x01	; 1
     99c:	80 93 a1 42 	sts	0x42A1, r24	; 0x8042a1 <Beep_Timer>
//-------------------------------------------------------------------------------------------------
	Timer.RegExitTimer++;							// Timer.RegExitTimer ┴Ϋ░κ (5mSec ╕╢┤┘)
     9a0:	ed e5       	ldi	r30, 0x5D	; 93
     9a2:	f2 e4       	ldi	r31, 0x42	; 66
     9a4:	81 81       	ldd	r24, Z+1	; 0x01
     9a6:	92 81       	ldd	r25, Z+2	; 0x02
     9a8:	01 96       	adiw	r24, 0x01	; 1
     9aa:	81 83       	std	Z+1, r24	; 0x01
     9ac:	92 83       	std	Z+2, r25	; 0x02
	if(Timer.RegExitTimer >= REG_EXIT_TIME)					// Timer.RegExitTimer ░κ REG_EXIT_TIME ░· ░░░┼│ς ┼σ╕ώ
     9ae:	81 81       	ldd	r24, Z+1	; 0x01
     9b0:	92 81       	ldd	r25, Z+2	; 0x02
     9b2:	80 3d       	cpi	r24, 0xD0	; 208
     9b4:	97 40       	sbci	r25, 0x07	; 7
     9b6:	20 f0       	brcs	.+8      	; 0x9c0 <__vector_46+0x8a>
	{									// ╝│┴ν ╕Ώ╡ί╚─ └╧┴ν╜├░μ(10├╩) ╣÷╞░ └╘╖┬ ╛°└╕╕ώ ┼╗├έ
		SET.Menu = 0;							// Menu ╕Ώ╡ί ├╩▒έ╚φ
     9b8:	e5 e0       	ldi	r30, 0x05	; 5
     9ba:	f2 e4       	ldi	r31, 0x42	; 66
     9bc:	10 82       	st	Z, r1
		SET.Select = 0;							// Select ╕Ώ╡ί ├╩▒έ╚φ
     9be:	11 82       	std	Z+1, r1	; 0x01
	}
//-------------------------------------------------------------------------------------------------
	Timer.RTC_Timer++;							// Timer.RTC_Timer       ┴Ϋ░κ (5mSec ╕╢┤┘)
     9c0:	ed e5       	ldi	r30, 0x5D	; 93
     9c2:	f2 e4       	ldi	r31, 0x42	; 66
     9c4:	83 81       	ldd	r24, Z+3	; 0x03
     9c6:	94 81       	ldd	r25, Z+4	; 0x04
     9c8:	01 96       	adiw	r24, 0x01	; 1
     9ca:	83 83       	std	Z+3, r24	; 0x03
     9cc:	94 83       	std	Z+4, r25	; 0x04
	Timer.Check_Limit_Timer_1++;						// ╣τ░╘├°┴ν ┴ο╟╤ ╜├░μ 1 ┴Ϋ░κ (5mSec ╕╢┤┘)
     9ce:	85 81       	ldd	r24, Z+5	; 0x05
     9d0:	96 81       	ldd	r25, Z+6	; 0x06
     9d2:	01 96       	adiw	r24, 0x01	; 1
     9d4:	85 83       	std	Z+5, r24	; 0x05
     9d6:	96 83       	std	Z+6, r25	; 0x06
	Timer.Check_Limit_Timer_2++;						// ╣τ░╘├°┴ν ┴ο╟╤ ╜├░μ 2 ┴Ϋ░κ (5mSec ╕╢┤┘)
     9d8:	87 81       	ldd	r24, Z+7	; 0x07
     9da:	90 85       	ldd	r25, Z+8	; 0x08
     9dc:	01 96       	adiw	r24, 0x01	; 1
     9de:	87 83       	std	Z+7, r24	; 0x07
     9e0:	90 87       	std	Z+8, r25	; 0x08
	Timer.Check_Limit_Timer_3++;						// ╣τ░╘├°┴ν ┴ο╟╤ ╜├░μ 3 ┴Ϋ░κ (5mSec ╕╢┤┘)
     9e2:	81 85       	ldd	r24, Z+9	; 0x09
     9e4:	92 85       	ldd	r25, Z+10	; 0x0a
     9e6:	01 96       	adiw	r24, 0x01	; 1
     9e8:	81 87       	std	Z+9, r24	; 0x09
     9ea:	92 87       	std	Z+10, r25	; 0x0a
//-------------------------------------------------------------------------------------------------
	Blink_Timer++;								// Blink_Timer ┴Ϋ░κ (5mSec ╕╢┤┘)
     9ec:	80 91 10 42 	lds	r24, 0x4210	; 0x804210 <Blink_Timer>
     9f0:	8f 5f       	subi	r24, 0xFF	; 255
     9f2:	80 93 10 42 	sts	0x4210, r24	; 0x804210 <Blink_Timer>
	if(Blink_Timer > 50)							// Blink_Timer └╠ 50(0.25├╩)║╕┤┘ ┼σ╕ώ
     9f6:	83 33       	cpi	r24, 0x33	; 51
     9f8:	48 f0       	brcs	.+18     	; 0xa0c <__vector_46+0xd6>
	{
		Blink = Blink ? 0 : 1;						// Blink └╠ 1└╠╕ώ 0└╕╖╬ 0└╠╕ώ 1╖╬ ║ψ░ό
     9fa:	81 e0       	ldi	r24, 0x01	; 1
     9fc:	90 91 b0 42 	lds	r25, 0x42B0	; 0x8042b0 <Blink>
     a00:	91 11       	cpse	r25, r1
     a02:	80 e0       	ldi	r24, 0x00	; 0
     a04:	80 93 b0 42 	sts	0x42B0, r24	; 0x8042b0 <Blink>
		Blink_Timer = 0;						// Blink_Timer ├╩▒έ╚φ
     a08:	10 92 10 42 	sts	0x4210, r1	; 0x804210 <Blink_Timer>
	}
//-------------------------------------------------------------------------------------------------
}
     a0c:	ff 91       	pop	r31
     a0e:	ef 91       	pop	r30
     a10:	bf 91       	pop	r27
     a12:	af 91       	pop	r26
     a14:	9f 91       	pop	r25
     a16:	8f 91       	pop	r24
     a18:	7f 91       	pop	r23
     a1a:	6f 91       	pop	r22
     a1c:	5f 91       	pop	r21
     a1e:	4f 91       	pop	r20
     a20:	3f 91       	pop	r19
     a22:	2f 91       	pop	r18
     a24:	0f 90       	pop	r0
     a26:	0b be       	out	0x3b, r0	; 59
     a28:	0f 90       	pop	r0
     a2a:	0f be       	out	0x3f, r0	; 63
     a2c:	0f 90       	pop	r0
     a2e:	1f 90       	pop	r1
     a30:	18 95       	reti

00000a32 <std_putchar>:
		DIGIT[i][3] = FND_OFF;						// DIGIT[3] OFF
		DIGIT[i][2] = FND_OFF;						// DIGIT[2] OFF
		DIGIT[i][1] = FND_OFF;						// DIGIT[1] OFF
		DIGIT[i][0] = FND_OFF;						// DIGIT[0] OFF
	}
}
     a32:	cf 93       	push	r28
     a34:	c8 2f       	mov	r28, r24
     a36:	80 91 7f 42 	lds	r24, 0x427F	; 0x80427f <printf_port>
     a3a:	81 30       	cpi	r24, 0x01	; 1
     a3c:	19 f4       	brne	.+6      	; 0xa44 <std_putchar+0x12>
     a3e:	8c 2f       	mov	r24, r28
     a40:	0e 94 f4 35 	call	0x6be8	; 0x6be8 <USART1_Write>
     a44:	80 91 7f 42 	lds	r24, 0x427F	; 0x80427f <printf_port>
     a48:	83 30       	cpi	r24, 0x03	; 3
     a4a:	19 f4       	brne	.+6      	; 0xa52 <std_putchar+0x20>
     a4c:	8c 2f       	mov	r24, r28
     a4e:	0e 94 09 36 	call	0x6c12	; 0x6c12 <USART3_Write>
     a52:	80 e0       	ldi	r24, 0x00	; 0
     a54:	90 e0       	ldi	r25, 0x00	; 0
     a56:	cf 91       	pop	r28
     a58:	08 95       	ret

00000a5a <MCU_Init>:
     a5a:	8e e0       	ldi	r24, 0x0E	; 14
     a5c:	80 93 00 04 	sts	0x0400, r24	; 0x800400 <__TEXT_REGION_LENGTH__+0x7e0400>
     a60:	8d e0       	ldi	r24, 0x0D	; 13
     a62:	80 93 20 04 	sts	0x0420, r24	; 0x800420 <__TEXT_REGION_LENGTH__+0x7e0420>
     a66:	85 e5       	ldi	r24, 0x55	; 85
     a68:	80 93 40 04 	sts	0x0440, r24	; 0x800440 <__TEXT_REGION_LENGTH__+0x7e0440>
     a6c:	10 92 60 04 	sts	0x0460, r1	; 0x800460 <__TEXT_REGION_LENGTH__+0x7e0460>
     a70:	10 92 80 04 	sts	0x0480, r1	; 0x800480 <__TEXT_REGION_LENGTH__+0x7e0480>
     a74:	8c e0       	ldi	r24, 0x0C	; 12
     a76:	80 93 a0 04 	sts	0x04A0, r24	; 0x8004a0 <__TEXT_REGION_LENGTH__+0x7e04a0>
     a7a:	87 ef       	ldi	r24, 0xF7	; 247
     a7c:	80 93 c0 04 	sts	0x04C0, r24	; 0x8004c0 <__TEXT_REGION_LENGTH__+0x7e04c0>
     a80:	10 92 04 04 	sts	0x0404, r1	; 0x800404 <__TEXT_REGION_LENGTH__+0x7e0404>
     a84:	10 92 24 04 	sts	0x0424, r1	; 0x800424 <__TEXT_REGION_LENGTH__+0x7e0424>
     a88:	10 92 44 04 	sts	0x0444, r1	; 0x800444 <__TEXT_REGION_LENGTH__+0x7e0444>
     a8c:	10 92 64 04 	sts	0x0464, r1	; 0x800464 <__TEXT_REGION_LENGTH__+0x7e0464>
     a90:	10 92 84 04 	sts	0x0484, r1	; 0x800484 <__TEXT_REGION_LENGTH__+0x7e0484>
     a94:	10 92 a4 04 	sts	0x04A4, r1	; 0x8004a4 <__TEXT_REGION_LENGTH__+0x7e04a4>
     a98:	10 92 c4 04 	sts	0x04C4, r1	; 0x8004c4 <__TEXT_REGION_LENGTH__+0x7e04c4>
     a9c:	08 95       	ret

00000a9e <Fnd_Display>:
     a9e:	32 e0       	ldi	r19, 0x02	; 2
     aa0:	2f c0       	rjmp	.+94     	; 0xb00 <Fnd_Display+0x62>
     aa2:	e4 ec       	ldi	r30, 0xC4	; 196
     aa4:	f4 e0       	ldi	r31, 0x04	; 4
     aa6:	80 81       	ld	r24, Z
     aa8:	8d 7f       	andi	r24, 0xFD	; 253
     aaa:	80 83       	st	Z, r24
     aac:	80 91 6e 41 	lds	r24, 0x416E	; 0x80416e <__data_end>
     ab0:	94 e0       	ldi	r25, 0x04	; 4
     ab2:	39 02       	muls	r19, r25
     ab4:	f0 01       	movw	r30, r0
     ab6:	11 24       	eor	r1, r1
     ab8:	e1 59       	subi	r30, 0x91	; 145
     aba:	fe 4b       	sbci	r31, 0xBE	; 190
     abc:	e8 0f       	add	r30, r24
     abe:	f1 1d       	adc	r31, r1
     ac0:	80 81       	ld	r24, Z
     ac2:	90 e0       	ldi	r25, 0x00	; 0
     ac4:	02 2e       	mov	r0, r18
     ac6:	02 c0       	rjmp	.+4      	; 0xacc <Fnd_Display+0x2e>
     ac8:	95 95       	asr	r25
     aca:	87 95       	ror	r24
     acc:	0a 94       	dec	r0
     ace:	e2 f7       	brpl	.-8      	; 0xac8 <Fnd_Display+0x2a>
     ad0:	80 ff       	sbrs	r24, 0
     ad2:	06 c0       	rjmp	.+12     	; 0xae0 <Fnd_Display+0x42>
     ad4:	e4 ec       	ldi	r30, 0xC4	; 196
     ad6:	f4 e0       	ldi	r31, 0x04	; 4
     ad8:	80 81       	ld	r24, Z
     ada:	84 60       	ori	r24, 0x04	; 4
     adc:	80 83       	st	Z, r24
     ade:	05 c0       	rjmp	.+10     	; 0xaea <Fnd_Display+0x4c>
     ae0:	e4 ec       	ldi	r30, 0xC4	; 196
     ae2:	f4 e0       	ldi	r31, 0x04	; 4
     ae4:	80 81       	ld	r24, Z
     ae6:	8b 7f       	andi	r24, 0xFB	; 251
     ae8:	80 83       	st	Z, r24
     aea:	e4 ec       	ldi	r30, 0xC4	; 196
     aec:	f4 e0       	ldi	r31, 0x04	; 4
     aee:	80 81       	ld	r24, Z
     af0:	82 60       	ori	r24, 0x02	; 2
     af2:	80 83       	st	Z, r24
     af4:	2f 5f       	subi	r18, 0xFF	; 255
     af6:	01 c0       	rjmp	.+2      	; 0xafa <Fnd_Display+0x5c>
     af8:	20 e0       	ldi	r18, 0x00	; 0
     afa:	28 30       	cpi	r18, 0x08	; 8
     afc:	90 f2       	brcs	.-92     	; 0xaa2 <Fnd_Display+0x4>
     afe:	31 50       	subi	r19, 0x01	; 1
     b00:	33 23       	and	r19, r19
     b02:	d4 f7       	brge	.-12     	; 0xaf8 <Fnd_Display+0x5a>
     b04:	e4 ec       	ldi	r30, 0xC4	; 196
     b06:	f4 e0       	ldi	r31, 0x04	; 4
     b08:	80 81       	ld	r24, Z
     b0a:	81 60       	ori	r24, 0x01	; 1
     b0c:	80 83       	st	Z, r24
     b0e:	80 81       	ld	r24, Z
     b10:	8e 7f       	andi	r24, 0xFE	; 254
     b12:	80 83       	st	Z, r24
     b14:	80 91 6e 41 	lds	r24, 0x416E	; 0x80416e <__data_end>
     b18:	81 30       	cpi	r24, 0x01	; 1
     b1a:	a9 f0       	breq	.+42     	; 0xb46 <Fnd_Display+0xa8>
     b1c:	28 f0       	brcs	.+10     	; 0xb28 <Fnd_Display+0x8a>
     b1e:	82 30       	cpi	r24, 0x02	; 2
     b20:	09 f1       	breq	.+66     	; 0xb64 <Fnd_Display+0xc6>
     b22:	83 30       	cpi	r24, 0x03	; 3
     b24:	71 f1       	breq	.+92     	; 0xb82 <Fnd_Display+0xe4>
     b26:	3b c0       	rjmp	.+118    	; 0xb9e <Fnd_Display+0x100>
     b28:	e4 ec       	ldi	r30, 0xC4	; 196
     b2a:	f4 e0       	ldi	r31, 0x04	; 4
     b2c:	80 81       	ld	r24, Z
     b2e:	8f 7e       	andi	r24, 0xEF	; 239
     b30:	80 83       	st	Z, r24
     b32:	80 81       	ld	r24, Z
     b34:	8f 7d       	andi	r24, 0xDF	; 223
     b36:	80 83       	st	Z, r24
     b38:	80 81       	ld	r24, Z
     b3a:	8f 7b       	andi	r24, 0xBF	; 191
     b3c:	80 83       	st	Z, r24
     b3e:	80 81       	ld	r24, Z
     b40:	80 68       	ori	r24, 0x80	; 128
     b42:	80 83       	st	Z, r24
     b44:	2c c0       	rjmp	.+88     	; 0xb9e <Fnd_Display+0x100>
     b46:	e4 ec       	ldi	r30, 0xC4	; 196
     b48:	f4 e0       	ldi	r31, 0x04	; 4
     b4a:	80 81       	ld	r24, Z
     b4c:	8f 7e       	andi	r24, 0xEF	; 239
     b4e:	80 83       	st	Z, r24
     b50:	80 81       	ld	r24, Z
     b52:	8f 7d       	andi	r24, 0xDF	; 223
     b54:	80 83       	st	Z, r24
     b56:	80 81       	ld	r24, Z
     b58:	80 64       	ori	r24, 0x40	; 64
     b5a:	80 83       	st	Z, r24
     b5c:	80 81       	ld	r24, Z
     b5e:	8f 77       	andi	r24, 0x7F	; 127
     b60:	80 83       	st	Z, r24
     b62:	1d c0       	rjmp	.+58     	; 0xb9e <Fnd_Display+0x100>
     b64:	e4 ec       	ldi	r30, 0xC4	; 196
     b66:	f4 e0       	ldi	r31, 0x04	; 4
     b68:	80 81       	ld	r24, Z
     b6a:	8f 7e       	andi	r24, 0xEF	; 239
     b6c:	80 83       	st	Z, r24
     b6e:	80 81       	ld	r24, Z
     b70:	80 62       	ori	r24, 0x20	; 32
     b72:	80 83       	st	Z, r24
     b74:	80 81       	ld	r24, Z
     b76:	8f 7b       	andi	r24, 0xBF	; 191
     b78:	80 83       	st	Z, r24
     b7a:	80 81       	ld	r24, Z
     b7c:	8f 77       	andi	r24, 0x7F	; 127
     b7e:	80 83       	st	Z, r24
     b80:	0e c0       	rjmp	.+28     	; 0xb9e <Fnd_Display+0x100>
     b82:	e4 ec       	ldi	r30, 0xC4	; 196
     b84:	f4 e0       	ldi	r31, 0x04	; 4
     b86:	80 81       	ld	r24, Z
     b88:	80 61       	ori	r24, 0x10	; 16
     b8a:	80 83       	st	Z, r24
     b8c:	80 81       	ld	r24, Z
     b8e:	8f 7d       	andi	r24, 0xDF	; 223
     b90:	80 83       	st	Z, r24
     b92:	80 81       	ld	r24, Z
     b94:	8f 7b       	andi	r24, 0xBF	; 191
     b96:	80 83       	st	Z, r24
     b98:	80 81       	ld	r24, Z
     b9a:	8f 77       	andi	r24, 0x7F	; 127
     b9c:	80 83       	st	Z, r24
     b9e:	80 91 6e 41 	lds	r24, 0x416E	; 0x80416e <__data_end>
     ba2:	8f 5f       	subi	r24, 0xFF	; 255
     ba4:	80 93 6e 41 	sts	0x416E, r24	; 0x80416e <__data_end>
     ba8:	84 30       	cpi	r24, 0x04	; 4
     baa:	10 f0       	brcs	.+4      	; 0xbb0 <Fnd_Display+0x112>
     bac:	10 92 6e 41 	sts	0x416E, r1	; 0x80416e <__data_end>
     bb0:	08 95       	ret

00000bb2 <FND_Value_Data>:
     bb2:	12 c0       	rjmp	.+36     	; 0xbd8 <FND_Value_Data+0x26>
     bb4:	e8 2f       	mov	r30, r24
     bb6:	f0 e0       	ldi	r31, 0x00	; 0
     bb8:	a4 2f       	mov	r26, r20
     bba:	b0 e0       	ldi	r27, 0x00	; 0
     bbc:	a5 5c       	subi	r26, 0xC5	; 197
     bbe:	be 4b       	sbci	r27, 0xBE	; 190
     bc0:	9c 91       	ld	r25, X
     bc2:	ee 0f       	add	r30, r30
     bc4:	ff 1f       	adc	r31, r31
     bc6:	ee 0f       	add	r30, r30
     bc8:	ff 1f       	adc	r31, r31
     bca:	e1 59       	subi	r30, 0x91	; 145
     bcc:	fe 4b       	sbci	r31, 0xBE	; 190
     bce:	93 83       	std	Z+3, r25	; 0x03
     bd0:	92 83       	std	Z+2, r25	; 0x02
     bd2:	91 83       	std	Z+1, r25	; 0x01
     bd4:	90 83       	st	Z, r25
     bd6:	8f 5f       	subi	r24, 0xFF	; 255
     bd8:	68 17       	cp	r22, r24
     bda:	60 f7       	brcc	.-40     	; 0xbb4 <FND_Value_Data+0x2>
     bdc:	08 95       	ret

00000bde <Key_Scan>:
//=================================================================================================
//		key ░ς scan
//=================================================================================================
void Key_Scan(void)								// key └╘╖┬ ├╝┼σ
{
	if(!KEY.Buff)								// Key └╘╖┬└╠ ╛°╛·└╕╕ώ
     bde:	80 91 81 42 	lds	r24, 0x4281	; 0x804281 <KEY+0x1>
     be2:	81 11       	cpse	r24, r1
     be4:	a0 c0       	rjmp	.+320    	; 0xd26 <Key_Scan+0x148>
	{
		if(keytemp & 0x10) {Beep(10); KEY.Key = 1; KEY.Buff = 1; Timer.RegExitTimer = 0;}	// +(UP)  key └╘╖┬└╠ └╓└╕╕ώ 
     be6:	80 91 08 04 	lds	r24, 0x0408	; 0x800408 <__TEXT_REGION_LENGTH__+0x7e0408>
     bea:	84 fd       	sbrc	r24, 4
     bec:	0d c0       	rjmp	.+26     	; 0xc08 <Key_Scan+0x2a>
     bee:	8a e0       	ldi	r24, 0x0A	; 10
     bf0:	90 e0       	ldi	r25, 0x00	; 0
     bf2:	0e 94 3b 04 	call	0x876	; 0x876 <Beep>
     bf6:	e0 e8       	ldi	r30, 0x80	; 128
     bf8:	f2 e4       	ldi	r31, 0x42	; 66
     bfa:	81 e0       	ldi	r24, 0x01	; 1
     bfc:	82 83       	std	Z+2, r24	; 0x02
     bfe:	81 83       	std	Z+1, r24	; 0x01
     c00:	10 92 5e 42 	sts	0x425E, r1	; 0x80425e <Timer+0x1>
     c04:	10 92 5f 42 	sts	0x425F, r1	; 0x80425f <Timer+0x2>
		if(keytemp & 0x20) {Beep(10); KEY.Key = 2; KEY.Buff = 1; Timer.RegExitTimer = 0;}	// Select key └╘╖┬└╠ └╓└╕╕ώ
     c08:	80 91 08 04 	lds	r24, 0x0408	; 0x800408 <__TEXT_REGION_LENGTH__+0x7e0408>
     c0c:	85 fd       	sbrc	r24, 5
     c0e:	0e c0       	rjmp	.+28     	; 0xc2c <Key_Scan+0x4e>
     c10:	8a e0       	ldi	r24, 0x0A	; 10
     c12:	90 e0       	ldi	r25, 0x00	; 0
     c14:	0e 94 3b 04 	call	0x876	; 0x876 <Beep>
     c18:	e0 e8       	ldi	r30, 0x80	; 128
     c1a:	f2 e4       	ldi	r31, 0x42	; 66
     c1c:	82 e0       	ldi	r24, 0x02	; 2
     c1e:	82 83       	std	Z+2, r24	; 0x02
     c20:	81 e0       	ldi	r24, 0x01	; 1
     c22:	81 83       	std	Z+1, r24	; 0x01
     c24:	10 92 5e 42 	sts	0x425E, r1	; 0x80425e <Timer+0x1>
     c28:	10 92 5f 42 	sts	0x425F, r1	; 0x80425f <Timer+0x2>
		if(keytemp & 0x40) {Beep(10); KEY.Key = 3; KEY.Buff = 1; Timer.RegExitTimer = 0;}	// -(Down)key └╘╖┬└╠ └╓└╕╕ώ
     c2c:	80 91 08 04 	lds	r24, 0x0408	; 0x800408 <__TEXT_REGION_LENGTH__+0x7e0408>
     c30:	86 fd       	sbrc	r24, 6
     c32:	0e c0       	rjmp	.+28     	; 0xc50 <Key_Scan+0x72>
     c34:	8a e0       	ldi	r24, 0x0A	; 10
     c36:	90 e0       	ldi	r25, 0x00	; 0
     c38:	0e 94 3b 04 	call	0x876	; 0x876 <Beep>
     c3c:	e0 e8       	ldi	r30, 0x80	; 128
     c3e:	f2 e4       	ldi	r31, 0x42	; 66
     c40:	83 e0       	ldi	r24, 0x03	; 3
     c42:	82 83       	std	Z+2, r24	; 0x02
     c44:	81 e0       	ldi	r24, 0x01	; 1
     c46:	81 83       	std	Z+1, r24	; 0x01
     c48:	10 92 5e 42 	sts	0x425E, r1	; 0x80425e <Timer+0x1>
     c4c:	10 92 5f 42 	sts	0x425F, r1	; 0x80425f <Timer+0x2>
		if(keytemp & 0x80) {Beep(10); KEY.Key = 4; KEY.Buff = 1; Timer.RegExitTimer = 0;}	// Menu   key └╘╖┬└╠ └╓└╕╕ώ
     c50:	80 91 08 04 	lds	r24, 0x0408	; 0x800408 <__TEXT_REGION_LENGTH__+0x7e0408>
     c54:	88 23       	and	r24, r24
     c56:	74 f0       	brlt	.+28     	; 0xc74 <Key_Scan+0x96>
     c58:	8a e0       	ldi	r24, 0x0A	; 10
     c5a:	90 e0       	ldi	r25, 0x00	; 0
     c5c:	0e 94 3b 04 	call	0x876	; 0x876 <Beep>
     c60:	e0 e8       	ldi	r30, 0x80	; 128
     c62:	f2 e4       	ldi	r31, 0x42	; 66
     c64:	84 e0       	ldi	r24, 0x04	; 4
     c66:	82 83       	std	Z+2, r24	; 0x02
     c68:	81 e0       	ldi	r24, 0x01	; 1
     c6a:	81 83       	std	Z+1, r24	; 0x01
     c6c:	10 92 5e 42 	sts	0x425E, r1	; 0x80425e <Timer+0x1>
     c70:	10 92 5f 42 	sts	0x425F, r1	; 0x80425f <Timer+0x2>

		if(KEY.Key == 4)						// Menu key └╘╖┬└╠ └╓└╕╕ώ
     c74:	80 91 82 42 	lds	r24, 0x4282	; 0x804282 <KEY+0x2>
     c78:	84 30       	cpi	r24, 0x04	; 4
     c7a:	51 f4       	brne	.+20     	; 0xc90 <Key_Scan+0xb2>
		{
			if(SET.Menu) {SET.Menu = 0;}				// ╕▐┤║╕Ώ╡ί = 1 └╠╕ώ ╕▐┤║╕Ώ╡ί ╟╪┴ο
     c7c:	80 91 05 42 	lds	r24, 0x4205	; 0x804205 <SET>
     c80:	88 23       	and	r24, r24
     c82:	19 f0       	breq	.+6      	; 0xc8a <Key_Scan+0xac>
     c84:	10 92 05 42 	sts	0x4205, r1	; 0x804205 <SET>
     c88:	03 c0       	rjmp	.+6      	; 0xc90 <Key_Scan+0xb2>
			else	     {SET.Menu = 1;}				// ╕▐┤║╕Ώ╡ί = 0 └╠╕ώ ╕▐┤║╕Ώ╡ί ╝│┴ν 
     c8a:	81 e0       	ldi	r24, 0x01	; 1
     c8c:	80 93 05 42 	sts	0x4205, r24	; 0x804205 <SET>
		}

		if(SET.Menu && KEY.Key == 2 && !SET.Blink)			// ╕▐┤║╕Ώ╡ί └╠░Ί Blink = 0 └╠░Ί ╝▒┼├ Key └╘╖┬└╠ └╓└╕╕ώ
     c90:	80 91 05 42 	lds	r24, 0x4205	; 0x804205 <SET>
     c94:	88 23       	and	r24, r24
     c96:	91 f0       	breq	.+36     	; 0xcbc <Key_Scan+0xde>
     c98:	80 91 82 42 	lds	r24, 0x4282	; 0x804282 <KEY+0x2>
     c9c:	82 30       	cpi	r24, 0x02	; 2
     c9e:	71 f4       	brne	.+28     	; 0xcbc <Key_Scan+0xde>
     ca0:	80 91 07 42 	lds	r24, 0x4207	; 0x804207 <SET+0x2>
     ca4:	81 11       	cpse	r24, r1
     ca6:	0a c0       	rjmp	.+20     	; 0xcbc <Key_Scan+0xde>
		{
			if(SET.Select) {SET.Select = 0;}			// ╝▒┼├╕Ώ╡ί = 1 └╠╕ώ ╝▒┼├╕Ώ╡ί ╟╪┴ο
     ca8:	80 91 06 42 	lds	r24, 0x4206	; 0x804206 <SET+0x1>
     cac:	88 23       	and	r24, r24
     cae:	19 f0       	breq	.+6      	; 0xcb6 <Key_Scan+0xd8>
     cb0:	10 92 06 42 	sts	0x4206, r1	; 0x804206 <SET+0x1>
     cb4:	03 c0       	rjmp	.+6      	; 0xcbc <Key_Scan+0xde>
			else	       {SET.Select = 1;}			// ╝▒┼├╕Ώ╡ί = 0 └╠╕ώ ╝▒┼├╕Ώ╡ί ╝│┴ν
     cb6:	81 e0       	ldi	r24, 0x01	; 1
     cb8:	80 93 06 42 	sts	0x4206, r24	; 0x804206 <SET+0x1>
		}

		if(SET.Menu && KEY.Key == 2 && SET.Blink)			// ╕▐┤║╕Ώ╡ί └╠░Ί Blink = 1 └╠░Ί ╝▒┼├ Key └╘╖┬└╠ └╓└╕╕ώ
     cbc:	80 91 05 42 	lds	r24, 0x4205	; 0x804205 <SET>
     cc0:	88 23       	and	r24, r24
     cc2:	91 f0       	breq	.+36     	; 0xce8 <Key_Scan+0x10a>
     cc4:	80 91 82 42 	lds	r24, 0x4282	; 0x804282 <KEY+0x2>
     cc8:	82 30       	cpi	r24, 0x02	; 2
     cca:	71 f4       	brne	.+28     	; 0xce8 <Key_Scan+0x10a>
     ccc:	80 91 07 42 	lds	r24, 0x4207	; 0x804207 <SET+0x2>
     cd0:	88 23       	and	r24, r24
     cd2:	51 f0       	breq	.+20     	; 0xce8 <Key_Scan+0x10a>
		{
			KEY.Count++;						// Key ░κ ┤φ╕░╚╜╝÷ ┴Ϋ░κ
     cd4:	e0 e8       	ldi	r30, 0x80	; 128
     cd6:	f2 e4       	ldi	r31, 0x42	; 66
     cd8:	80 81       	ld	r24, Z
     cda:	8f 5f       	subi	r24, 0xFF	; 255
     cdc:	80 83       	st	Z, r24
			if(KEY.Count > 5) {KEY.Count = 0;}			// Key ░κ ┤φ╕░╚╜╝÷░κ 5║╕┤┘ ┼σ╕ώ 0└╕╖╬ ├╩▒έ╚φ
     cde:	80 81       	ld	r24, Z
     ce0:	86 30       	cpi	r24, 0x06	; 6
     ce2:	10 f0       	brcs	.+4      	; 0xce8 <Key_Scan+0x10a>
     ce4:	10 92 80 42 	sts	0x4280, r1	; 0x804280 <KEY>
		}

		if(KEY.Old == KEY.Key)						// Old Key ░ς└╠ New Key ░ς└╠ ░░└╕╕ώ
     ce8:	e0 e8       	ldi	r30, 0x80	; 128
     cea:	f2 e4       	ldi	r31, 0x42	; 66
     cec:	93 81       	ldd	r25, Z+3	; 0x03
     cee:	82 81       	ldd	r24, Z+2	; 0x02
     cf0:	98 13       	cpse	r25, r24
     cf2:	11 c0       	rjmp	.+34     	; 0xd16 <Key_Scan+0x138>
		{
			if(KEY.In_Count >= 2) {Timer.Input_Key = 20;}		// ┐υ╝╙└╘╖┬└╠ 2║╕┤┘ ╕╣└╕╕ώ ┐υ╝╙└╘╖┬╜├░μ = 20
     cf4:	80 91 84 42 	lds	r24, 0x4284	; 0x804284 <KEY+0x4>
     cf8:	82 30       	cpi	r24, 0x02	; 2
     cfa:	20 f0       	brcs	.+8      	; 0xd04 <Key_Scan+0x126>
     cfc:	84 e1       	ldi	r24, 0x14	; 20
     cfe:	80 93 5d 42 	sts	0x425D, r24	; 0x80425d <Timer>
     d02:	08 95       	ret
			else {Timer.Input_Key = 50; KEY.In_Count++;}		// ┐υ╝╙└╘╖┬└╠ 2║╕┤┘ └█└╕╕ώ ┐υ╝╙└╘╖┬╜├░μ = 50, ┐υ╝╙└╘╖┬ ┴Ϋ░κ
     d04:	82 e3       	ldi	r24, 0x32	; 50
     d06:	80 93 5d 42 	sts	0x425D, r24	; 0x80425d <Timer>
     d0a:	e0 e8       	ldi	r30, 0x80	; 128
     d0c:	f2 e4       	ldi	r31, 0x42	; 66
     d0e:	84 81       	ldd	r24, Z+4	; 0x04
     d10:	8f 5f       	subi	r24, 0xFF	; 255
     d12:	84 83       	std	Z+4, r24	; 0x04
     d14:	08 95       	ret
		}
		else								// Old Key ░ς└╠ New Key ░ς└╠ ░░┴÷ ╛╩└╕╕ώ
		{
			Timer.Input_Key = 50;					// ┐υ╝╙└╘╖┬ = 50
     d16:	82 e3       	ldi	r24, 0x32	; 50
     d18:	80 93 5d 42 	sts	0x425D, r24	; 0x80425d <Timer>
			KEY.Old = KEY.Key;					// Old Key ┐κ New Key └·└ί
     d1c:	e0 e8       	ldi	r30, 0x80	; 128
     d1e:	f2 e4       	ldi	r31, 0x42	; 66
     d20:	82 81       	ldd	r24, Z+2	; 0x02
     d22:	83 83       	std	Z+3, r24	; 0x03
			KEY.In_Count = 0;					// ┐υ╝╙└╘╖┬ ├╩▒έ╚φ
     d24:	14 82       	std	Z+4, r1	; 0x04
     d26:	08 95       	ret

00000d28 <Read_eeprom>:
	}
}

//=================================================================================================
void Read_eeprom(void)								// EEPROM Data └╨▒έ
{
     d28:	cf 92       	push	r12
     d2a:	df 92       	push	r13
     d2c:	ef 92       	push	r14
     d2e:	ff 92       	push	r15
//-------------------------------------------------------------------------------------------------
//		░╘└╠╞χ┐■└╠ ▒╣╣°
//-------------------------------------------------------------------------------------------------
	Gukbun = ee_read_byte(Gateway_Gukbun_Addr);				// ░╘└╠╞χ┐■└╠ ▒╣╣° ╝│┴ν░ς ║╥╖ψ┐└▒έ
     d30:	81 e0       	ldi	r24, 0x01	; 1
     d32:	90 e0       	ldi	r25, 0x00	; 0
     d34:	0e 94 4a 13 	call	0x2694	; 0x2694 <ee_read_byte>
     d38:	80 93 7c 42 	sts	0x427C, r24	; 0x80427c <Gukbun>
	if(Gukbun > 60 || Gukbun == 0)						// ░╘└╠╞χ┐■└╠ ▒╣╣° ╝│┴ν░ς└╠ 60║╕┤┘ ┼σ░┼│ς 0░· ░░└╕╕ώ
     d3c:	81 50       	subi	r24, 0x01	; 1
     d3e:	8c 33       	cpi	r24, 0x3C	; 60
     d40:	40 f0       	brcs	.+16     	; 0xd52 <Read_eeprom+0x2a>
	{
		Gukbun = 1;							// ░╘└╠╞χ┐■└╠ ▒╣╣° ░ς└╗ 1╖╬ ├╩▒έ╚φ
     d42:	81 e0       	ldi	r24, 0x01	; 1
     d44:	80 93 7c 42 	sts	0x427C, r24	; 0x80427c <Gukbun>
		ee_write_byte(Gateway_Gukbun_Addr, Gukbun);			// ░╘└╠╞χ┐■└╠ ▒╣╣° ░ς└╗ EEPROM ┐κ └·└ί
     d48:	61 e0       	ldi	r22, 0x01	; 1
     d4a:	81 e0       	ldi	r24, 0x01	; 1
     d4c:	90 e0       	ldi	r25, 0x00	; 0
     d4e:	0e 94 6c 13 	call	0x26d8	; 0x26d8 <ee_write_byte>
	}
//-------------------------------------------------------------------------------------------------
//		░╘└╠╞χ┐■└╠ ID
//-------------------------------------------------------------------------------------------------
	Gwid = ee_read_byte(Gateway_GWID_Addr);					// ░╘└╠╞χ┐■└╠ ID ╝│┴ν░ς ║╥╖ψ┐└▒έ
     d52:	82 e0       	ldi	r24, 0x02	; 2
     d54:	90 e0       	ldi	r25, 0x00	; 0
     d56:	0e 94 4a 13 	call	0x2694	; 0x2694 <ee_read_byte>
     d5a:	80 93 86 42 	sts	0x4286, r24	; 0x804286 <Gwid>
	if(Gwid > 60 || Gwid == 0)						// ░╘└╠╞χ┐■└╠ ID ╝│┴ν░ς└╠ 60║╕┤┘ ┼σ░┼│ς 0░· ░░└╕╕ώ
     d5e:	81 50       	subi	r24, 0x01	; 1
     d60:	8c 33       	cpi	r24, 0x3C	; 60
     d62:	40 f0       	brcs	.+16     	; 0xd74 <Read_eeprom+0x4c>
	{
		Gwid = 1;							// ░╘└╠╞χ┐■└╠ ID ░ς└╗ 1╖╬ ├╩▒έ╚φ
     d64:	81 e0       	ldi	r24, 0x01	; 1
     d66:	80 93 86 42 	sts	0x4286, r24	; 0x804286 <Gwid>
		ee_write_byte(Gateway_GWID_Addr, Gwid);				// ░╘└╠╞χ┐■└╠ ID ░ς└╗ EEPROM ┐κ └·└ί
     d6a:	61 e0       	ldi	r22, 0x01	; 1
     d6c:	82 e0       	ldi	r24, 0x02	; 2
     d6e:	90 e0       	ldi	r25, 0x00	; 0
     d70:	0e 94 6c 13 	call	0x26d8	; 0x26d8 <ee_write_byte>
	}
//-------------------------------------------------------------------------------------------------
//		└·└ί╡╚ │ψ┬ξ Date
//-------------------------------------------------------------------------------------------------
	RTC_T.OLD_D = ee_read_byte(OLD_Date_Addr);				// │ψ┬ξ ║╥╖ψ┐└▒έ
     d74:	83 e0       	ldi	r24, 0x03	; 3
     d76:	90 e0       	ldi	r25, 0x00	; 0
     d78:	0e 94 4a 13 	call	0x2694	; 0x2694 <ee_read_byte>
     d7c:	80 93 72 42 	sts	0x4272, r24	; 0x804272 <RTC_T+0x7>
	if(RTC_T.OLD_D > 31 || RTC_T.OLD_D < 0)					// │ψ┬ξ░κ 31└╧║╕┤┘ ┼σ░┼│ς 0║╕┤┘ └█└╕╕ώ
     d80:	80 32       	cpi	r24, 0x20	; 32
     d82:	40 f0       	brcs	.+16     	; 0xd94 <Read_eeprom+0x6c>
	{
		RTC_T.OLD_D = 1;						// │ψ┬ξ╕ο 1╖╬ ├╩▒έ╚φ
     d84:	81 e0       	ldi	r24, 0x01	; 1
     d86:	80 93 72 42 	sts	0x4272, r24	; 0x804272 <RTC_T+0x7>
		ee_write_byte(OLD_Date_Addr, RTC_T.OLD_D);			// │ψ┬ξ╕ο EEPROM ┐κ └·└ί
     d8a:	61 e0       	ldi	r22, 0x01	; 1
     d8c:	83 e0       	ldi	r24, 0x03	; 3
     d8e:	90 e0       	ldi	r25, 0x00	; 0
     d90:	0e 94 6c 13 	call	0x26d8	; 0x26d8 <ee_write_byte>
	}
//-------------------------------------------------------------------------------------------------
//		1╣°, 2╣°, 3╣° ╖╬╡ί╝┐ ID
//-------------------------------------------------------------------------------------------------
	Cell_ID_1 = ee_read_byte(Cell_ID_1_Addr);				// 1╣° ╖╬╡ί╝┐ ID ╝│┴ν░ς ║╥╖ψ┐└▒έ
     d94:	84 e0       	ldi	r24, 0x04	; 4
     d96:	90 e0       	ldi	r25, 0x00	; 0
     d98:	0e 94 4a 13 	call	0x2694	; 0x2694 <ee_read_byte>
     d9c:	80 93 a5 41 	sts	0x41A5, r24	; 0x8041a5 <Cell_ID_1>
	if(Cell_ID_1 > 60 || Cell_ID_1 < 0)					// 1╣° ╖╬╡ί╝┐ ID ╝│┴ν░ς└╠ 60║╕┤┘ ┼σ░┼│ς 0║╕┤┘ └█└╕╕ώ
     da0:	8d 33       	cpi	r24, 0x3D	; 61
     da2:	40 f0       	brcs	.+16     	; 0xdb4 <Read_eeprom+0x8c>
	{
		Cell_ID_1 = 1;							// 1╣° ╖╬╡ί╝┐ ID ░ς└╗ 1╖╬ ├╩▒έ╚φ
     da4:	81 e0       	ldi	r24, 0x01	; 1
     da6:	80 93 a5 41 	sts	0x41A5, r24	; 0x8041a5 <Cell_ID_1>
		ee_write_byte(Cell_ID_1_Addr, Cell_ID_1);			// 1╣° ╖╬╡ί╝┐ ID ░ς└╗ EEPROM ┐κ └·└ί
     daa:	61 e0       	ldi	r22, 0x01	; 1
     dac:	84 e0       	ldi	r24, 0x04	; 4
     dae:	90 e0       	ldi	r25, 0x00	; 0
     db0:	0e 94 6c 13 	call	0x26d8	; 0x26d8 <ee_write_byte>
	}

	Cell_ID_2 = ee_read_byte(Cell_ID_2_Addr);				// 2╣° ╖╬╡ί╝┐ ID ╝│┴ν░ς ║╥╖ψ┐└▒έ
     db4:	85 e0       	ldi	r24, 0x05	; 5
     db6:	90 e0       	ldi	r25, 0x00	; 0
     db8:	0e 94 4a 13 	call	0x2694	; 0x2694 <ee_read_byte>
     dbc:	80 93 e3 43 	sts	0x43E3, r24	; 0x8043e3 <Cell_ID_2>
	if(Cell_ID_2 > 60 || Cell_ID_2 < 0)					// 2╣° ╖╬╡ί╝┐ ID ╝│┴ν░ς└╠ 60║╕┤┘ ┼σ░┼│ς 0║╕┤┘ └█└╕╕ώ
     dc0:	8d 33       	cpi	r24, 0x3D	; 61
     dc2:	38 f0       	brcs	.+14     	; 0xdd2 <Read_eeprom+0xaa>
	{
		Cell_ID_2 = 0;							// 2╣° ╖╬╡ί╝┐ ID ░ς└╗ 2╖╬ ├╩▒έ╚φ
     dc4:	10 92 e3 43 	sts	0x43E3, r1	; 0x8043e3 <Cell_ID_2>
		ee_write_byte(Cell_ID_2_Addr, Cell_ID_2);			// 2╣° ╖╬╡ί╝┐ ID ░ς└╗ EEPROM ┐κ └·└ί
     dc8:	60 e0       	ldi	r22, 0x00	; 0
     dca:	85 e0       	ldi	r24, 0x05	; 5
     dcc:	90 e0       	ldi	r25, 0x00	; 0
     dce:	0e 94 6c 13 	call	0x26d8	; 0x26d8 <ee_write_byte>
	}

	Cell_ID_3 = ee_read_byte(Cell_ID_3_Addr);				// 3╣° ╖╬╡ί╝┐ ID ╝│┴ν░ς ║╥╖ψ┐└▒έ
     dd2:	86 e0       	ldi	r24, 0x06	; 6
     dd4:	90 e0       	ldi	r25, 0x00	; 0
     dd6:	0e 94 4a 13 	call	0x2694	; 0x2694 <ee_read_byte>
     dda:	80 93 fe 41 	sts	0x41FE, r24	; 0x8041fe <Cell_ID_3>
	if(Cell_ID_3 > 60 || Cell_ID_3 < 0)					// 3╣° ╖╬╡ί╝┐ ID ╝│┴ν░ς└╠ 60║╕┤┘ ┼σ░┼│ς 0║╕┤┘ └█└╕╕ώ
     dde:	8d 33       	cpi	r24, 0x3D	; 61
     de0:	38 f0       	brcs	.+14     	; 0xdf0 <Read_eeprom+0xc8>
	{
		Cell_ID_3 = 0;							// 3╣° ╖╬╡ί╝┐ ID ░ς└╗ 3╖╬ ├╩▒έ╚φ
     de2:	10 92 fe 41 	sts	0x41FE, r1	; 0x8041fe <Cell_ID_3>
		ee_write_byte(Cell_ID_3_Addr, Cell_ID_3);			// 3╣° ╖╬╡ί╝┐ ID ░ς└╗ EEPROM ┐κ └·└ί
     de6:	60 e0       	ldi	r22, 0x00	; 0
     de8:	86 e0       	ldi	r24, 0x06	; 6
     dea:	90 e0       	ldi	r25, 0x00	; 0
     dec:	0e 94 6c 13 	call	0x26d8	; 0x26d8 <ee_write_byte>
	}
//-------------------------------------------------------------------------------------------------
//		1╣°, 2╣°, 3╣° ╖╬╡ί╝┐ ID
//-------------------------------------------------------------------------------------------------
	Cell_CNT_1 = ee_read_byte(Cell_CNT_1_Addr);				// 1╣° ╖╬╡ί╝┐ ░╣╝÷ ╝│┴ν░ς ║╥╖ψ┐└▒έ
     df0:	87 e0       	ldi	r24, 0x07	; 7
     df2:	90 e0       	ldi	r25, 0x00	; 0
     df4:	0e 94 4a 13 	call	0x2694	; 0x2694 <ee_read_byte>
     df8:	80 93 e0 41 	sts	0x41E0, r24	; 0x8041e0 <Cell_CNT_1>
	if(Cell_CNT_1 > 4 || Cell_CNT_1 < 1)					// 1╣° ╖╬╡ί╝┐ ░╣╝÷ ╝│┴ν░ς└╠ 8║╕┤┘ ┼σ░┼│ς 2║╕┤┘ └█└╕╕ώ
     dfc:	81 50       	subi	r24, 0x01	; 1
     dfe:	84 30       	cpi	r24, 0x04	; 4
     e00:	40 f0       	brcs	.+16     	; 0xe12 <Read_eeprom+0xea>
	{
		Cell_CNT_1 = 2;							// 1╣° ╖╬╡ί╝┐ ░╣╝÷ ╝│┴ν░ς└╗ 2╖╬ ├╩▒έ╚φ
     e02:	82 e0       	ldi	r24, 0x02	; 2
     e04:	80 93 e0 41 	sts	0x41E0, r24	; 0x8041e0 <Cell_CNT_1>
		ee_write_byte(Cell_CNT_1_Addr, Cell_CNT_1);			// 1╣° ╖╬╡ί╝┐ ░╣╝÷ ╝│┴ν░ς└╗ EEPROM ┐κ └·└ί
     e08:	62 e0       	ldi	r22, 0x02	; 2
     e0a:	87 e0       	ldi	r24, 0x07	; 7
     e0c:	90 e0       	ldi	r25, 0x00	; 0
     e0e:	0e 94 6c 13 	call	0x26d8	; 0x26d8 <ee_write_byte>
	}

	Cell_CNT_2 = ee_read_byte(Cell_CNT_2_Addr);				// 2╣° ╖╬╡ί╝┐ ░╣╝÷ ╝│┴ν░ς ║╥╖ψ┐└▒έ
     e12:	88 e0       	ldi	r24, 0x08	; 8
     e14:	90 e0       	ldi	r25, 0x00	; 0
     e16:	0e 94 4a 13 	call	0x2694	; 0x2694 <ee_read_byte>
     e1a:	80 93 dd 42 	sts	0x42DD, r24	; 0x8042dd <Cell_CNT_2>
	if(Cell_CNT_2 > 4 || Cell_CNT_2 < 1)					// 2╣° ╖╬╡ί╝┐ ░╣╝÷ ╝│┴ν░ς└╠ 8║╕┤┘ ┼σ░┼│ς 2║╕┤┘ └█└╕╕ώ
     e1e:	81 50       	subi	r24, 0x01	; 1
     e20:	84 30       	cpi	r24, 0x04	; 4
     e22:	40 f0       	brcs	.+16     	; 0xe34 <Read_eeprom+0x10c>
	{
		Cell_CNT_2 = 2;							// 2╣° ╖╬╡ί╝┐ ░╣╝÷ ╝│┴ν░ς└╗ 2╖╬ ├╩▒έ╚φ
     e24:	82 e0       	ldi	r24, 0x02	; 2
     e26:	80 93 dd 42 	sts	0x42DD, r24	; 0x8042dd <Cell_CNT_2>
		ee_write_byte(Cell_CNT_2_Addr, Cell_CNT_2);			// 2╣° ╖╬╡ί╝┐ ░╣╝÷ ╝│┴ν░ς└╗ EEPROM ┐κ └·└ί
     e2a:	62 e0       	ldi	r22, 0x02	; 2
     e2c:	88 e0       	ldi	r24, 0x08	; 8
     e2e:	90 e0       	ldi	r25, 0x00	; 0
     e30:	0e 94 6c 13 	call	0x26d8	; 0x26d8 <ee_write_byte>
	}

	Cell_CNT_3 = ee_read_byte(Cell_CNT_3_Addr);				// 3╣° ╖╬╡ί╝┐ ░╣╝÷ ╝│┴ν░ς ║╥╖ψ┐└▒έ
     e34:	89 e0       	ldi	r24, 0x09	; 9
     e36:	90 e0       	ldi	r25, 0x00	; 0
     e38:	0e 94 4a 13 	call	0x2694	; 0x2694 <ee_read_byte>
     e3c:	80 93 a3 42 	sts	0x42A3, r24	; 0x8042a3 <Cell_CNT_3>
	if(Cell_CNT_3 > 4 || Cell_CNT_3 < 1)					// 3╣° ╖╬╡ί╝┐ ░╣╝÷ ╝│┴ν░ς└╠ 8║╕┤┘ ┼σ░┼│ς 2║╕┤┘ └█└╕╕ώ
     e40:	81 50       	subi	r24, 0x01	; 1
     e42:	84 30       	cpi	r24, 0x04	; 4
     e44:	40 f0       	brcs	.+16     	; 0xe56 <Read_eeprom+0x12e>
	{
		Cell_CNT_3 = 2;							// 3╣° ╖╬╡ί╝┐ ░╣╝÷ ╝│┴ν░ς└╗ 2╖╬ ├╩▒έ╚φ
     e46:	82 e0       	ldi	r24, 0x02	; 2
     e48:	80 93 a3 42 	sts	0x42A3, r24	; 0x8042a3 <Cell_CNT_3>
		ee_write_byte(Cell_CNT_3_Addr, Cell_CNT_3);			// 3╣° ╖╬╡ί╝┐ ░╣╝÷ ╝│┴ν░ς└╗ EEPROM ┐κ └·└ί
     e4c:	62 e0       	ldi	r22, 0x02	; 2
     e4e:	89 e0       	ldi	r24, 0x09	; 9
     e50:	90 e0       	ldi	r25, 0x00	; 0
     e52:	0e 94 6c 13 	call	0x26d8	; 0x26d8 <ee_write_byte>
	}
//-------------------------------------------------------------------------------------------------
//		1╣°, 2╣°, 3╣° ╖╬╡ί╝┐ CAPA (┐Έ╖χ)
//-------------------------------------------------------------------------------------------------
	Cell_Capa_1 = ee_read_word(Cell_Capa_1_Addr);				// 1╣° ╖╬╡ί╝┐ CAPA ╝│┴ν░ς ║╥╖ψ┐└▒έ
     e56:	8a e0       	ldi	r24, 0x0A	; 10
     e58:	90 e0       	ldi	r25, 0x00	; 0
     e5a:	0e 94 54 13 	call	0x26a8	; 0x26a8 <ee_read_word>
     e5e:	a0 e0       	ldi	r26, 0x00	; 0
     e60:	b0 e0       	ldi	r27, 0x00	; 0
     e62:	80 93 8b 42 	sts	0x428B, r24	; 0x80428b <Cell_Capa_1>
     e66:	90 93 8c 42 	sts	0x428C, r25	; 0x80428c <Cell_Capa_1+0x1>
     e6a:	a0 93 8d 42 	sts	0x428D, r26	; 0x80428d <Cell_Capa_1+0x2>
     e6e:	b0 93 8e 42 	sts	0x428E, r27	; 0x80428e <Cell_Capa_1+0x3>
	if(Cell_Capa_1 > 1000 || Cell_Capa_1 < 100)				// 1╣° ╖╬╡ί╝┐ CAPA ╝│┴ν░ς└╠ 1000║╕┤┘ ┼σ░┼│ς 100║╕┤┘ └█└╕╕ώ
     e72:	84 56       	subi	r24, 0x64	; 100
     e74:	91 09       	sbc	r25, r1
     e76:	a1 09       	sbc	r26, r1
     e78:	b1 09       	sbc	r27, r1
     e7a:	85 38       	cpi	r24, 0x85	; 133
     e7c:	93 40       	sbci	r25, 0x03	; 3
     e7e:	a1 05       	cpc	r26, r1
     e80:	b1 05       	cpc	r27, r1
     e82:	90 f0       	brcs	.+36     	; 0xea8 <Read_eeprom+0x180>
	{
		Cell_Capa_1 = 100;						// 1╣° ╖╬╡ί╝┐ CAPA ░ς└╗ 100kg╖╬ ├╩▒έ╚φ, ░÷╟╧▒έ 1,000└╕╖╬ ░ϋ╗Ά 100kg = 100000g
     e84:	84 e6       	ldi	r24, 0x64	; 100
     e86:	90 e0       	ldi	r25, 0x00	; 0
     e88:	a0 e0       	ldi	r26, 0x00	; 0
     e8a:	b0 e0       	ldi	r27, 0x00	; 0
     e8c:	80 93 8b 42 	sts	0x428B, r24	; 0x80428b <Cell_Capa_1>
     e90:	90 93 8c 42 	sts	0x428C, r25	; 0x80428c <Cell_Capa_1+0x1>
     e94:	a0 93 8d 42 	sts	0x428D, r26	; 0x80428d <Cell_Capa_1+0x2>
     e98:	b0 93 8e 42 	sts	0x428E, r27	; 0x80428e <Cell_Capa_1+0x3>
		ee_write_word(Cell_Capa_1_Addr, Cell_Capa_1);			// 1╣° ╖╬╡ί╝┐ CAPA ░ς└╗ EEPROM ┐κ └·└ί
     e9c:	64 e6       	ldi	r22, 0x64	; 100
     e9e:	70 e0       	ldi	r23, 0x00	; 0
     ea0:	8a e0       	ldi	r24, 0x0A	; 10
     ea2:	90 e0       	ldi	r25, 0x00	; 0
     ea4:	0e 94 8f 13 	call	0x271e	; 0x271e <ee_write_word>
	}

	Cell_Capa_2 = ee_read_word(Cell_Capa_2_Addr);				// 2╣° ╖╬╡ί╝┐ CAPA ╝│┴ν░ς ║╥╖ψ┐└▒έ
     ea8:	8c e0       	ldi	r24, 0x0C	; 12
     eaa:	90 e0       	ldi	r25, 0x00	; 0
     eac:	0e 94 54 13 	call	0x26a8	; 0x26a8 <ee_read_word>
     eb0:	a0 e0       	ldi	r26, 0x00	; 0
     eb2:	b0 e0       	ldi	r27, 0x00	; 0
     eb4:	80 93 99 42 	sts	0x4299, r24	; 0x804299 <Cell_Capa_2>
     eb8:	90 93 9a 42 	sts	0x429A, r25	; 0x80429a <Cell_Capa_2+0x1>
     ebc:	a0 93 9b 42 	sts	0x429B, r26	; 0x80429b <Cell_Capa_2+0x2>
     ec0:	b0 93 9c 42 	sts	0x429C, r27	; 0x80429c <Cell_Capa_2+0x3>
	if(Cell_Capa_2 > 1000 || Cell_Capa_2 < 100)				// 2╣° ╖╬╡ί╝┐ CAPA ╝│┴ν░ς└╠ 1000║╕┤┘ ┼σ░┼│ς 100║╕┤┘ └█└╕╕ώ
     ec4:	84 56       	subi	r24, 0x64	; 100
     ec6:	91 09       	sbc	r25, r1
     ec8:	a1 09       	sbc	r26, r1
     eca:	b1 09       	sbc	r27, r1
     ecc:	85 38       	cpi	r24, 0x85	; 133
     ece:	93 40       	sbci	r25, 0x03	; 3
     ed0:	a1 05       	cpc	r26, r1
     ed2:	b1 05       	cpc	r27, r1
     ed4:	90 f0       	brcs	.+36     	; 0xefa <Read_eeprom+0x1d2>
	{
		Cell_Capa_2 = 100;						// 2╣° ╖╬╡ί╝┐ CAPA ░ς└╗ 100kg╖╬ ├╩▒έ╚φ, ░÷╟╧▒έ 1,000└╕╖╬ ░ϋ╗Ά 100kg = 100000g
     ed6:	84 e6       	ldi	r24, 0x64	; 100
     ed8:	90 e0       	ldi	r25, 0x00	; 0
     eda:	a0 e0       	ldi	r26, 0x00	; 0
     edc:	b0 e0       	ldi	r27, 0x00	; 0
     ede:	80 93 99 42 	sts	0x4299, r24	; 0x804299 <Cell_Capa_2>
     ee2:	90 93 9a 42 	sts	0x429A, r25	; 0x80429a <Cell_Capa_2+0x1>
     ee6:	a0 93 9b 42 	sts	0x429B, r26	; 0x80429b <Cell_Capa_2+0x2>
     eea:	b0 93 9c 42 	sts	0x429C, r27	; 0x80429c <Cell_Capa_2+0x3>
		ee_write_word(Cell_Capa_2_Addr, Cell_Capa_2);			// 2╣° ╖╬╡ί╝┐ CAPA ░ς└╗ EEPROM ┐κ └·└ί
     eee:	64 e6       	ldi	r22, 0x64	; 100
     ef0:	70 e0       	ldi	r23, 0x00	; 0
     ef2:	8c e0       	ldi	r24, 0x0C	; 12
     ef4:	90 e0       	ldi	r25, 0x00	; 0
     ef6:	0e 94 8f 13 	call	0x271e	; 0x271e <ee_write_word>
	}

	Cell_Capa_3 = ee_read_word(Cell_Capa_3_Addr);				// 3╣° ╖╬╡ί╝┐ CAPA ╝│┴ν░ς ║╥╖ψ┐└▒έ
     efa:	8e e0       	ldi	r24, 0x0E	; 14
     efc:	90 e0       	ldi	r25, 0x00	; 0
     efe:	0e 94 54 13 	call	0x26a8	; 0x26a8 <ee_read_word>
     f02:	a0 e0       	ldi	r26, 0x00	; 0
     f04:	b0 e0       	ldi	r27, 0x00	; 0
     f06:	80 93 87 42 	sts	0x4287, r24	; 0x804287 <Cell_Capa_3>
     f0a:	90 93 88 42 	sts	0x4288, r25	; 0x804288 <Cell_Capa_3+0x1>
     f0e:	a0 93 89 42 	sts	0x4289, r26	; 0x804289 <Cell_Capa_3+0x2>
     f12:	b0 93 8a 42 	sts	0x428A, r27	; 0x80428a <Cell_Capa_3+0x3>
	if(Cell_Capa_3 > 1000 || Cell_Capa_3 < 100)				// 3╣° ╖╬╡ί╝┐ CAPA ╝│┴ν░ς└╠ 1000║╕┤┘ ┼σ░┼│ς 100║╕┤┘ └█└╕╕ώ
     f16:	84 56       	subi	r24, 0x64	; 100
     f18:	91 09       	sbc	r25, r1
     f1a:	a1 09       	sbc	r26, r1
     f1c:	b1 09       	sbc	r27, r1
     f1e:	85 38       	cpi	r24, 0x85	; 133
     f20:	93 40       	sbci	r25, 0x03	; 3
     f22:	a1 05       	cpc	r26, r1
     f24:	b1 05       	cpc	r27, r1
     f26:	90 f0       	brcs	.+36     	; 0xf4c <Read_eeprom+0x224>
	{
		Cell_Capa_3 = 100;						// 3╣° ╖╬╡ί╝┐ CAPA ░ς└╗ 100kg╖╬ ├╩▒έ╚φ, ░÷╟╧▒έ 1,000└╕╖╬ ░ϋ╗Ά 100kg = 100000g
     f28:	84 e6       	ldi	r24, 0x64	; 100
     f2a:	90 e0       	ldi	r25, 0x00	; 0
     f2c:	a0 e0       	ldi	r26, 0x00	; 0
     f2e:	b0 e0       	ldi	r27, 0x00	; 0
     f30:	80 93 87 42 	sts	0x4287, r24	; 0x804287 <Cell_Capa_3>
     f34:	90 93 88 42 	sts	0x4288, r25	; 0x804288 <Cell_Capa_3+0x1>
     f38:	a0 93 89 42 	sts	0x4289, r26	; 0x804289 <Cell_Capa_3+0x2>
     f3c:	b0 93 8a 42 	sts	0x428A, r27	; 0x80428a <Cell_Capa_3+0x3>
		ee_write_word(Cell_Capa_3_Addr, Cell_Capa_3);			// 3╣° ╖╬╡ί╝┐ CAPA ░ς└╗ EEPROM ┐κ └·└ί
     f40:	64 e6       	ldi	r22, 0x64	; 100
     f42:	70 e0       	ldi	r23, 0x00	; 0
     f44:	8e e0       	ldi	r24, 0x0E	; 14
     f46:	90 e0       	ldi	r25, 0x00	; 0
     f48:	0e 94 8f 13 	call	0x271e	; 0x271e <ee_write_word>
	}
//-------------------------------------------------------------------------------------------------
//		1╣°, 2╣°, 3╣° ╖╬╡ί╝┐ RO (┴ν░▌├έ╖┬)
//-------------------------------------------------------------------------------------------------
	Cell_RO_1 = ee_read_dword(Cell_RO_1_Addr);				// 1╣° ╖╬╡ί╝┐ RO ╝│┴ν░ς ║╥╖ψ┐└▒έ
     f4c:	86 e1       	ldi	r24, 0x16	; 22
     f4e:	90 e0       	ldi	r25, 0x00	; 0
     f50:	0e 94 5f 13 	call	0x26be	; 0x26be <ee_read_dword>
     f54:	0e 94 f7 3e 	call	0x7dee	; 0x7dee <__floatunsisf>
     f58:	6b 01       	movw	r12, r22
     f5a:	7c 01       	movw	r14, r24
     f5c:	60 93 d1 41 	sts	0x41D1, r22	; 0x8041d1 <Cell_RO_1>
     f60:	70 93 d2 41 	sts	0x41D2, r23	; 0x8041d2 <Cell_RO_1+0x1>
     f64:	80 93 d3 41 	sts	0x41D3, r24	; 0x8041d3 <Cell_RO_1+0x2>
     f68:	90 93 d4 41 	sts	0x41D4, r25	; 0x8041d4 <Cell_RO_1+0x3>
	if(Cell_RO_1 > 90000 || Cell_RO_1 < 10000)				// 1╣° ╖╬╡ί╝┐ RO ╝│┴ν░ς└╠ 9.000mV║╕┤┘ ┼σ░┼│ς 3.000mV║╕┤┘ └█└╕╕ώ
     f6c:	20 e0       	ldi	r18, 0x00	; 0
     f6e:	38 ec       	ldi	r19, 0xC8	; 200
     f70:	4f ea       	ldi	r20, 0xAF	; 175
     f72:	57 e4       	ldi	r21, 0x47	; 71
     f74:	0e 94 e7 3f 	call	0x7fce	; 0x7fce <__gesf2>
     f78:	18 16       	cp	r1, r24
     f7a:	54 f0       	brlt	.+20     	; 0xf90 <Read_eeprom+0x268>
     f7c:	20 e0       	ldi	r18, 0x00	; 0
     f7e:	30 e4       	ldi	r19, 0x40	; 64
     f80:	4c e1       	ldi	r20, 0x1C	; 28
     f82:	56 e4       	ldi	r21, 0x46	; 70
     f84:	c7 01       	movw	r24, r14
     f86:	b6 01       	movw	r22, r12
     f88:	0e 94 4a 3e 	call	0x7c94	; 0x7c94 <__cmpsf2>
     f8c:	88 23       	and	r24, r24
     f8e:	a4 f4       	brge	.+40     	; 0xfb8 <Read_eeprom+0x290>
	{
		Cell_RO_1 = 40000;						// 1╣° ╖╬╡ί╝┐ RO ░ς└╗ 4.000mV╖╬ ├╩▒έ╚φ, │ς┤σ▒έ 10,000└╕╖╬ ░ϋ╗Ά
     f90:	80 e0       	ldi	r24, 0x00	; 0
     f92:	90 e4       	ldi	r25, 0x40	; 64
     f94:	ac e1       	ldi	r26, 0x1C	; 28
     f96:	b7 e4       	ldi	r27, 0x47	; 71
     f98:	80 93 d1 41 	sts	0x41D1, r24	; 0x8041d1 <Cell_RO_1>
     f9c:	90 93 d2 41 	sts	0x41D2, r25	; 0x8041d2 <Cell_RO_1+0x1>
     fa0:	a0 93 d3 41 	sts	0x41D3, r26	; 0x8041d3 <Cell_RO_1+0x2>
     fa4:	b0 93 d4 41 	sts	0x41D4, r27	; 0x8041d4 <Cell_RO_1+0x3>
		ee_write_dword(Cell_RO_1_Addr, Cell_RO_1);			// 1╣° ╖╬╡ί╝┐ RO ░ς└╗ EEPROM ┐κ └·└ί
     fa8:	40 e4       	ldi	r20, 0x40	; 64
     faa:	5c e9       	ldi	r21, 0x9C	; 156
     fac:	60 e0       	ldi	r22, 0x00	; 0
     fae:	70 e0       	ldi	r23, 0x00	; 0
     fb0:	86 e1       	ldi	r24, 0x16	; 22
     fb2:	90 e0       	ldi	r25, 0x00	; 0
     fb4:	0e 94 ac 13 	call	0x2758	; 0x2758 <ee_write_dword>
	}

	Cell_RO_2 = ee_read_dword(Cell_RO_2_Addr);				// 2╣° ╖╬╡ί╝┐ RO ╝│┴ν░ς ║╥╖ψ┐└▒έ
     fb8:	8a e1       	ldi	r24, 0x1A	; 26
     fba:	90 e0       	ldi	r25, 0x00	; 0
     fbc:	0e 94 5f 13 	call	0x26be	; 0x26be <ee_read_dword>
     fc0:	0e 94 f7 3e 	call	0x7dee	; 0x7dee <__floatunsisf>
     fc4:	6b 01       	movw	r12, r22
     fc6:	7c 01       	movw	r14, r24
     fc8:	60 93 a0 41 	sts	0x41A0, r22	; 0x8041a0 <Cell_RO_2>
     fcc:	70 93 a1 41 	sts	0x41A1, r23	; 0x8041a1 <Cell_RO_2+0x1>
     fd0:	80 93 a2 41 	sts	0x41A2, r24	; 0x8041a2 <Cell_RO_2+0x2>
     fd4:	90 93 a3 41 	sts	0x41A3, r25	; 0x8041a3 <Cell_RO_2+0x3>
	if(Cell_RO_2 > 90000 || Cell_RO_2 < 10000)				// 2╣° ╖╬╡ί╝┐ RO ╝│┴ν░ς└╠ 9.000mV║╕┤┘ ┼σ░┼│ς 3.000mV║╕┤┘ └█└╕╕ώ
     fd8:	20 e0       	ldi	r18, 0x00	; 0
     fda:	38 ec       	ldi	r19, 0xC8	; 200
     fdc:	4f ea       	ldi	r20, 0xAF	; 175
     fde:	57 e4       	ldi	r21, 0x47	; 71
     fe0:	0e 94 e7 3f 	call	0x7fce	; 0x7fce <__gesf2>
     fe4:	18 16       	cp	r1, r24
     fe6:	54 f0       	brlt	.+20     	; 0xffc <Read_eeprom+0x2d4>
     fe8:	20 e0       	ldi	r18, 0x00	; 0
     fea:	30 e4       	ldi	r19, 0x40	; 64
     fec:	4c e1       	ldi	r20, 0x1C	; 28
     fee:	56 e4       	ldi	r21, 0x46	; 70
     ff0:	c7 01       	movw	r24, r14
     ff2:	b6 01       	movw	r22, r12
     ff4:	0e 94 4a 3e 	call	0x7c94	; 0x7c94 <__cmpsf2>
     ff8:	88 23       	and	r24, r24
     ffa:	a4 f4       	brge	.+40     	; 0x1024 <Read_eeprom+0x2fc>
	{
		Cell_RO_2 = 40000;						// 2╣° ╖╬╡ί╝┐ RO ░ς└╗  4.000mV╖╬ ├╩▒έ╚φ, │ς┤σ▒έ 10,000└╕╖╬ ░ϋ╗Ά
     ffc:	80 e0       	ldi	r24, 0x00	; 0
     ffe:	90 e4       	ldi	r25, 0x40	; 64
    1000:	ac e1       	ldi	r26, 0x1C	; 28
    1002:	b7 e4       	ldi	r27, 0x47	; 71
    1004:	80 93 a0 41 	sts	0x41A0, r24	; 0x8041a0 <Cell_RO_2>
    1008:	90 93 a1 41 	sts	0x41A1, r25	; 0x8041a1 <Cell_RO_2+0x1>
    100c:	a0 93 a2 41 	sts	0x41A2, r26	; 0x8041a2 <Cell_RO_2+0x2>
    1010:	b0 93 a3 41 	sts	0x41A3, r27	; 0x8041a3 <Cell_RO_2+0x3>
		ee_write_dword(Cell_RO_2_Addr, Cell_RO_2);			// 2╣° ╖╬╡ί╝┐ RO ░ς└╗ EEPROM ┐κ └·└ί
    1014:	40 e4       	ldi	r20, 0x40	; 64
    1016:	5c e9       	ldi	r21, 0x9C	; 156
    1018:	60 e0       	ldi	r22, 0x00	; 0
    101a:	70 e0       	ldi	r23, 0x00	; 0
    101c:	8a e1       	ldi	r24, 0x1A	; 26
    101e:	90 e0       	ldi	r25, 0x00	; 0
    1020:	0e 94 ac 13 	call	0x2758	; 0x2758 <ee_write_dword>
	}

	Cell_RO_3 = ee_read_dword(Cell_RO_3_Addr);				// 3╣° ╖╬╡ί╝┐ RO ╝│┴ν░ς ║╥╖ψ┐└▒έ
    1024:	8e e1       	ldi	r24, 0x1E	; 30
    1026:	90 e0       	ldi	r25, 0x00	; 0
    1028:	0e 94 5f 13 	call	0x26be	; 0x26be <ee_read_dword>
    102c:	0e 94 f7 3e 	call	0x7dee	; 0x7dee <__floatunsisf>
    1030:	6b 01       	movw	r12, r22
    1032:	7c 01       	movw	r14, r24
    1034:	60 93 db 41 	sts	0x41DB, r22	; 0x8041db <Cell_RO_3>
    1038:	70 93 dc 41 	sts	0x41DC, r23	; 0x8041dc <Cell_RO_3+0x1>
    103c:	80 93 dd 41 	sts	0x41DD, r24	; 0x8041dd <Cell_RO_3+0x2>
    1040:	90 93 de 41 	sts	0x41DE, r25	; 0x8041de <Cell_RO_3+0x3>
	if(Cell_RO_3 > 90000 || Cell_RO_3 < 10000)				// 3╣° ╖╬╡ί╝┐ RO ╝│┴ν░ς└╠ 9.000mV║╕┤┘ ┼σ░┼│ς 3.000mV║╕┤┘ └█└╕╕ώ
    1044:	20 e0       	ldi	r18, 0x00	; 0
    1046:	38 ec       	ldi	r19, 0xC8	; 200
    1048:	4f ea       	ldi	r20, 0xAF	; 175
    104a:	57 e4       	ldi	r21, 0x47	; 71
    104c:	0e 94 e7 3f 	call	0x7fce	; 0x7fce <__gesf2>
    1050:	18 16       	cp	r1, r24
    1052:	54 f0       	brlt	.+20     	; 0x1068 <Read_eeprom+0x340>
    1054:	20 e0       	ldi	r18, 0x00	; 0
    1056:	30 e4       	ldi	r19, 0x40	; 64
    1058:	4c e1       	ldi	r20, 0x1C	; 28
    105a:	56 e4       	ldi	r21, 0x46	; 70
    105c:	c7 01       	movw	r24, r14
    105e:	b6 01       	movw	r22, r12
    1060:	0e 94 4a 3e 	call	0x7c94	; 0x7c94 <__cmpsf2>
    1064:	88 23       	and	r24, r24
    1066:	a4 f4       	brge	.+40     	; 0x1090 <Read_eeprom+0x368>
	{
		Cell_RO_3 = 40000;						// 3╣° ╖╬╡ί╝┐ RO ░ς└╗ 4.000mV╖╬ ├╩▒έ╚φ, │ς┤σ▒έ 10,000└╕╖╬ ░ϋ╗Ά
    1068:	80 e0       	ldi	r24, 0x00	; 0
    106a:	90 e4       	ldi	r25, 0x40	; 64
    106c:	ac e1       	ldi	r26, 0x1C	; 28
    106e:	b7 e4       	ldi	r27, 0x47	; 71
    1070:	80 93 db 41 	sts	0x41DB, r24	; 0x8041db <Cell_RO_3>
    1074:	90 93 dc 41 	sts	0x41DC, r25	; 0x8041dc <Cell_RO_3+0x1>
    1078:	a0 93 dd 41 	sts	0x41DD, r26	; 0x8041dd <Cell_RO_3+0x2>
    107c:	b0 93 de 41 	sts	0x41DE, r27	; 0x8041de <Cell_RO_3+0x3>
		ee_write_dword(Cell_RO_3_Addr, Cell_RO_3);			// 3╣° ╖╬╡ί╝┐ RO ░ς└╗ EEPROM ┐κ └·└ί
    1080:	40 e4       	ldi	r20, 0x40	; 64
    1082:	5c e9       	ldi	r21, 0x9C	; 156
    1084:	60 e0       	ldi	r22, 0x00	; 0
    1086:	70 e0       	ldi	r23, 0x00	; 0
    1088:	8e e1       	ldi	r24, 0x1E	; 30
    108a:	90 e0       	ldi	r25, 0x00	; 0
    108c:	0e 94 ac 13 	call	0x2758	; 0x2758 <ee_write_dword>
	}
//-------------------------------------------------------------------------------------------------
//		1╣°, 2╣°, 3╣° └╘▒╕ ├╝┴▀
//-------------------------------------------------------------------------------------------------
	IN_Weight_1 = ee_read_word(Cell_IN_S_1_Addr);				// 1╣° └╘▒╕ ├╝┴▀ ╝│┴ν░ς ║╥╖ψ┐└▒έ
    1090:	80 e1       	ldi	r24, 0x10	; 16
    1092:	90 e0       	ldi	r25, 0x00	; 0
    1094:	0e 94 54 13 	call	0x26a8	; 0x26a8 <ee_read_word>
    1098:	80 93 ec 43 	sts	0x43EC, r24	; 0x8043ec <IN_Weight_1>
    109c:	90 93 ed 43 	sts	0x43ED, r25	; 0x8043ed <IN_Weight_1+0x1>
	if(IN_Weight_1 > 10000 || IN_Weight_1 < 10)				// 1╣° └╘▒╕ ├╝┴▀ ╝│┴ν░ς└╠ 10000g(10Kg)║╕┤┘ ┼σ░┼│ς 10g║╕┤┘ └█└╕╕ώ
    10a0:	0a 97       	sbiw	r24, 0x0a	; 10
    10a2:	87 30       	cpi	r24, 0x07	; 7
    10a4:	97 42       	sbci	r25, 0x27	; 39
    10a6:	60 f0       	brcs	.+24     	; 0x10c0 <Read_eeprom+0x398>
	{
		IN_Weight_1 = 500;						// 1╣° └╘▒╕ ├╝┴▀ ░ς└╗ 500└╕╖╬ ├╩▒έ╚φ (500g)
    10a8:	84 ef       	ldi	r24, 0xF4	; 244
    10aa:	91 e0       	ldi	r25, 0x01	; 1
    10ac:	80 93 ec 43 	sts	0x43EC, r24	; 0x8043ec <IN_Weight_1>
    10b0:	90 93 ed 43 	sts	0x43ED, r25	; 0x8043ed <IN_Weight_1+0x1>
		ee_write_word(Cell_IN_S_1_Addr, IN_Weight_1);			// 1╣° └╘▒╕ ├╝┴▀ ░ς└╗ EEPROM ┐κ └·└ί
    10b4:	64 ef       	ldi	r22, 0xF4	; 244
    10b6:	71 e0       	ldi	r23, 0x01	; 1
    10b8:	80 e1       	ldi	r24, 0x10	; 16
    10ba:	90 e0       	ldi	r25, 0x00	; 0
    10bc:	0e 94 8f 13 	call	0x271e	; 0x271e <ee_write_word>
	}

	IN_Weight_2 = ee_read_word(Cell_IN_S_2_Addr);				// 2╣° └╘▒╕ ├╝┴▀ ╝│┴ν░ς ║╥╖ψ┐└▒έ
    10c0:	82 e1       	ldi	r24, 0x12	; 18
    10c2:	90 e0       	ldi	r25, 0x00	; 0
    10c4:	0e 94 54 13 	call	0x26a8	; 0x26a8 <ee_read_word>
    10c8:	80 93 01 42 	sts	0x4201, r24	; 0x804201 <IN_Weight_2>
    10cc:	90 93 02 42 	sts	0x4202, r25	; 0x804202 <IN_Weight_2+0x1>
	if(IN_Weight_2 > 10000 || IN_Weight_2 < 10)				// 2╣° └╘▒╕ ├╝┴▀ ╝│┴ν░ς└╠ 10000g(10Kg)║╕┤┘ ┼σ░┼│ς 10g║╕┤┘ └█└╕╕ώ
    10d0:	0a 97       	sbiw	r24, 0x0a	; 10
    10d2:	87 30       	cpi	r24, 0x07	; 7
    10d4:	97 42       	sbci	r25, 0x27	; 39
    10d6:	60 f0       	brcs	.+24     	; 0x10f0 <Read_eeprom+0x3c8>
	{
		IN_Weight_2 = 500;						// 2╣° └╘▒╕ ├╝┴▀ ░ς└╗ 500└╕╖╬ ├╩▒έ╚φ (500g)
    10d8:	84 ef       	ldi	r24, 0xF4	; 244
    10da:	91 e0       	ldi	r25, 0x01	; 1
    10dc:	80 93 01 42 	sts	0x4201, r24	; 0x804201 <IN_Weight_2>
    10e0:	90 93 02 42 	sts	0x4202, r25	; 0x804202 <IN_Weight_2+0x1>
		ee_write_word(Cell_IN_S_2_Addr, IN_Weight_2);			// 2╣° └╘▒╕ ├╝┴▀ ░ς└╗ EEPROM ┐κ └·└ί
    10e4:	64 ef       	ldi	r22, 0xF4	; 244
    10e6:	71 e0       	ldi	r23, 0x01	; 1
    10e8:	82 e1       	ldi	r24, 0x12	; 18
    10ea:	90 e0       	ldi	r25, 0x00	; 0
    10ec:	0e 94 8f 13 	call	0x271e	; 0x271e <ee_write_word>
	}

	IN_Weight_3 = ee_read_word(Cell_IN_S_3_Addr);				// 3╣° └╘▒╕ ├╝┴▀ ╝│┴ν░ς ║╥╖ψ┐└▒έ
    10f0:	84 e1       	ldi	r24, 0x14	; 20
    10f2:	90 e0       	ldi	r25, 0x00	; 0
    10f4:	0e 94 54 13 	call	0x26a8	; 0x26a8 <ee_read_word>
    10f8:	80 93 68 42 	sts	0x4268, r24	; 0x804268 <IN_Weight_3>
    10fc:	90 93 69 42 	sts	0x4269, r25	; 0x804269 <IN_Weight_3+0x1>
	if(IN_Weight_3 > 10000 || IN_Weight_3 < 10)				// 3╣° └╘▒╕ ├╝┴▀ ╝│┴ν░ς└╠ 10000g(10Kg)║╕┤┘ ┼σ░┼│ς 10g║╕┤┘ └█└╕╕ώ
    1100:	0a 97       	sbiw	r24, 0x0a	; 10
    1102:	87 30       	cpi	r24, 0x07	; 7
    1104:	97 42       	sbci	r25, 0x27	; 39
    1106:	60 f0       	brcs	.+24     	; 0x1120 <Read_eeprom+0x3f8>
	{
		IN_Weight_3 = 500;						// 3╣° └╘▒╕ ├╝┴▀ ░ς└╗ 500└╕╖╬ ├╩▒έ╚φ (500g)
    1108:	84 ef       	ldi	r24, 0xF4	; 244
    110a:	91 e0       	ldi	r25, 0x01	; 1
    110c:	80 93 68 42 	sts	0x4268, r24	; 0x804268 <IN_Weight_3>
    1110:	90 93 69 42 	sts	0x4269, r25	; 0x804269 <IN_Weight_3+0x1>
		ee_write_word(Cell_IN_S_3_Addr, IN_Weight_3);			// 3╣° └╘▒╕ ├╝┴▀ ░ς└╗ EEPROM ┐κ └·└ί
    1114:	64 ef       	ldi	r22, 0xF4	; 244
    1116:	71 e0       	ldi	r23, 0x01	; 1
    1118:	84 e1       	ldi	r24, 0x14	; 20
    111a:	90 e0       	ldi	r25, 0x00	; 0
    111c:	0e 94 8f 13 	call	0x271e	; 0x271e <ee_write_word>
	}
//-------------------------------------------------------------------------------------------------
//		RTC ├╩▒έ╚φ
//-------------------------------------------------------------------------------------------------
	RTC_Time_Read();
    1120:	0e 94 1d 32 	call	0x643a	; 0x643a <RTC_Time_Read>
	if(RTC_T.Sec > 59)							// ├╩ ░ς└╠ 59 ║╕┤┘ ┼σ╕ώ
    1124:	80 91 6b 42 	lds	r24, 0x426B	; 0x80426b <RTC_T>
    1128:	8c 33       	cpi	r24, 0x3C	; 60
    112a:	28 f0       	brcs	.+10     	; 0x1136 <Read_eeprom+0x40e>
	{
		RTC_Time_Write(RTC_SECOND, 0);					// RTC ┐κ 00├╩ └·└ί
    112c:	60 e0       	ldi	r22, 0x00	; 0
    112e:	80 e0       	ldi	r24, 0x00	; 0
    1130:	0e 94 58 32 	call	0x64b0	; 0x64b0 <RTC_Time_Write>
    1134:	ff cf       	rjmp	.-2      	; 0x1134 <Read_eeprom+0x40c>
		while(1);							// RTC ░κ ├╩▒έ╚φ ╡╟┴÷ ╛╩╛╞ └╓└╕╕ώ CPU ReSet
	}
//-------------------------------------------------------------------------------------------------
	if(RTC_T.Year == 00)							// │έ ░ς└╠ 00 └╠╕ώ
    1136:	80 91 71 42 	lds	r24, 0x4271	; 0x804271 <RTC_T+0x6>
    113a:	81 11       	cpse	r24, r1
    113c:	1c c0       	rjmp	.+56     	; 0x1176 <Read_eeprom+0x44e>
	{
		RTC_Time_Write(RTC_YEAR,      22);				// RTC ┐κ 22│έ   └·└ί
    113e:	66 e1       	ldi	r22, 0x16	; 22
    1140:	86 e0       	ldi	r24, 0x06	; 6
    1142:	0e 94 58 32 	call	0x64b0	; 0x64b0 <RTC_Time_Write>
		RTC_Time_Write(RTC_MONTH,     9);				// RTC ┐κ 09┐∙   └·└ί
    1146:	69 e0       	ldi	r22, 0x09	; 9
    1148:	85 e0       	ldi	r24, 0x05	; 5
    114a:	0e 94 58 32 	call	0x64b0	; 0x64b0 <RTC_Time_Write>
		RTC_Time_Write(RTC_DATE,      20);				// RTC ┐κ 20└╧   └·└ί
    114e:	64 e1       	ldi	r22, 0x14	; 20
    1150:	84 e0       	ldi	r24, 0x04	; 4
    1152:	0e 94 58 32 	call	0x64b0	; 0x64b0 <RTC_Time_Write>
		RTC_Time_Write(RTC_DAYOFWEEK, 3);				// RTC ┐κ 03┐ϊ└╧ └·└ί
    1156:	63 e0       	ldi	r22, 0x03	; 3
    1158:	83 e0       	ldi	r24, 0x03	; 3
    115a:	0e 94 58 32 	call	0x64b0	; 0x64b0 <RTC_Time_Write>
		RTC_Time_Write(RTC_HOUR,      12);				// RTC ┐κ 12╜├   └·└ί
    115e:	6c e0       	ldi	r22, 0x0C	; 12
    1160:	82 e0       	ldi	r24, 0x02	; 2
    1162:	0e 94 58 32 	call	0x64b0	; 0x64b0 <RTC_Time_Write>
		RTC_Time_Write(RTC_MINUTE,    0);				// RTC ┐κ 00║╨   └·└ί
    1166:	60 e0       	ldi	r22, 0x00	; 0
    1168:	81 e0       	ldi	r24, 0x01	; 1
    116a:	0e 94 58 32 	call	0x64b0	; 0x64b0 <RTC_Time_Write>
		RTC_Time_Write(RTC_SECOND,    0);				// RTC ┐κ 00├╩   └·└ί
    116e:	60 e0       	ldi	r22, 0x00	; 0
    1170:	80 e0       	ldi	r24, 0x00	; 0
    1172:	0e 94 58 32 	call	0x64b0	; 0x64b0 <RTC_Time_Write>
	}
}
    1176:	ff 90       	pop	r15
    1178:	ef 90       	pop	r14
    117a:	df 90       	pop	r13
    117c:	cf 90       	pop	r12
    117e:	08 95       	ret

00001180 <Alarm>:

//=================================================================================================
void Alarm(void)								// ╛╦╢≈(║±╟┴ 3╣°) 
{
	Beep(15);								// 1mSec X 15 = 15mSec
    1180:	8f e0       	ldi	r24, 0x0F	; 15
    1182:	90 e0       	ldi	r25, 0x00	; 0
    1184:	0e 94 3b 04 	call	0x876	; 0x876 <Beep>
	#else
		//round up by default
		__ticks_dc = (uint32_t)(ceil(fabs(__tmp)));
	#endif

	__builtin_avr_delay_cycles(__ticks_dc);
    1188:	26 e6       	ldi	r18, 0x66	; 102
    118a:	86 e6       	ldi	r24, 0x66	; 102
    118c:	95 e0       	ldi	r25, 0x05	; 5
    118e:	21 50       	subi	r18, 0x01	; 1
    1190:	80 40       	sbci	r24, 0x00	; 0
    1192:	90 40       	sbci	r25, 0x00	; 0
    1194:	e1 f7       	brne	.-8      	; 0x118e <Alarm+0xe>
	_delay_ms(120);								// Time Delay  120mSec
	Beep(15);								// 1mSec X 15 = 15mSec
    1196:	8f e0       	ldi	r24, 0x0F	; 15
    1198:	90 e0       	ldi	r25, 0x00	; 0
    119a:	0e 94 3b 04 	call	0x876	; 0x876 <Beep>
    119e:	26 e6       	ldi	r18, 0x66	; 102
    11a0:	86 e6       	ldi	r24, 0x66	; 102
    11a2:	95 e0       	ldi	r25, 0x05	; 5
    11a4:	21 50       	subi	r18, 0x01	; 1
    11a6:	80 40       	sbci	r24, 0x00	; 0
    11a8:	90 40       	sbci	r25, 0x00	; 0
    11aa:	e1 f7       	brne	.-8      	; 0x11a4 <Alarm+0x24>
	_delay_ms(120);								// Time Delay  120mSec
	Beep(15);								// 1mSec X 15 = 15mSec
    11ac:	8f e0       	ldi	r24, 0x0F	; 15
    11ae:	90 e0       	ldi	r25, 0x00	; 0
    11b0:	0e 94 3b 04 	call	0x876	; 0x876 <Beep>
    11b4:	08 95       	ret

000011b6 <Check_Value>:
	Var_Init();								// ║ψ╝÷ ├╩▒έ╚φ
}

//=================================================================================================
void Check_Value(uint8_t Number)						// ╖╬╡ί╝┐ ├╝┴▀├°┴ν
{
    11b6:	4f 92       	push	r4
    11b8:	5f 92       	push	r5
    11ba:	6f 92       	push	r6
    11bc:	7f 92       	push	r7
    11be:	8f 92       	push	r8
    11c0:	9f 92       	push	r9
    11c2:	af 92       	push	r10
    11c4:	bf 92       	push	r11
    11c6:	cf 92       	push	r12
    11c8:	df 92       	push	r13
    11ca:	ef 92       	push	r14
    11cc:	ff 92       	push	r15
    11ce:	cf 93       	push	r28
    11d0:	c8 2f       	mov	r28, r24
	uint32_t Value = 0;							// Value ║ψ╝÷ ├╩▒έ╚φ
	uint32_t Old_Value = 0;							// Old_Value ║ψ╝÷ ├╩▒έ╚φ
	uint16_t Limit_Time = 0;						// Old_Value ║ψ╝÷ ├╩▒έ╚φ

//-------------------------------------------------------------------------------------------------
	if(Number == 1)								// 1╣° ╖╬╡ί╝┐ └╠╕ώ
    11d2:	81 30       	cpi	r24, 0x01	; 1
    11d4:	e9 f4       	brne	.+58     	; 0x1210 <Check_Value+0x5a>
	{
		Value = CELL.Value_1 = Read_Load_Cell(1);			// 1╣° ╖╬╡ί╝┐ ├°┴ν░ς
    11d6:	81 e0       	ldi	r24, 0x01	; 1
    11d8:	0e 94 ce 1c 	call	0x399c	; 0x399c <Read_Load_Cell>
    11dc:	6c 01       	movw	r12, r24
    11de:	e1 2c       	mov	r14, r1
    11e0:	f1 2c       	mov	r15, r1
    11e2:	e1 e1       	ldi	r30, 0x11	; 17
    11e4:	f2 e4       	ldi	r31, 0x42	; 66
    11e6:	c4 86       	std	Z+12, r12	; 0x0c
    11e8:	d5 86       	std	Z+13, r13	; 0x0d
    11ea:	e6 86       	std	Z+14, r14	; 0x0e
    11ec:	f7 86       	std	Z+15, r15	; 0x0f
		Old_Value = CELL.Old_Value_1;					// 1╣° ╖╬╡ί╝┐ Old_Value ░ς
    11ee:	80 8c       	ldd	r8, Z+24	; 0x18
    11f0:	91 8c       	ldd	r9, Z+25	; 0x19
    11f2:	a2 8c       	ldd	r10, Z+26	; 0x1a
    11f4:	b3 8c       	ldd	r11, Z+27	; 0x1b
		Zero_Buff = CELL.Zero_Buff_1;					// 1╣° ╖╬╡ί╝┐ Zero_Buff ░ς
    11f6:	80 91 57 42 	lds	r24, 0x4257	; 0x804257 <CELL+0x46>
    11fa:	80 93 d6 41 	sts	0x41D6, r24	; 0x8041d6 <Zero_Buff>
		OK_Count = OK_Count_1;						// 1╣° ╖╬╡ί╝┐ OK_Count ░ς
    11fe:	80 91 8f 42 	lds	r24, 0x428F	; 0x80428f <OK_Count_1>
    1202:	80 93 85 42 	sts	0x4285, r24	; 0x804285 <OK_Count>
		Limit_Time = Timer.Check_Limit_Timer_1;				// 1╣° ╖╬╡ί╝┐ ╣τ░╘├°┴ν ┴ο╟╤ ╜├░μ
    1206:	80 91 62 42 	lds	r24, 0x4262	; 0x804262 <Timer+0x5>
    120a:	90 91 63 42 	lds	r25, 0x4263	; 0x804263 <Timer+0x6>
    120e:	46 c0       	rjmp	.+140    	; 0x129c <Check_Value+0xe6>
	}
	else if(Number == 2)							// 2╣° ╖╬╡ί╝┐ └╠╕ώ
    1210:	82 30       	cpi	r24, 0x02	; 2
    1212:	e9 f4       	brne	.+58     	; 0x124e <Check_Value+0x98>
	{
		Value = CELL.Value_2 = Read_Load_Cell(2);			// 2╣° ╖╬╡ί╝┐ ├°┴ν░ς
    1214:	82 e0       	ldi	r24, 0x02	; 2
    1216:	0e 94 ce 1c 	call	0x399c	; 0x399c <Read_Load_Cell>
    121a:	6c 01       	movw	r12, r24
    121c:	e1 2c       	mov	r14, r1
    121e:	f1 2c       	mov	r15, r1
    1220:	e1 e1       	ldi	r30, 0x11	; 17
    1222:	f2 e4       	ldi	r31, 0x42	; 66
    1224:	c0 8a       	std	Z+16, r12	; 0x10
    1226:	d1 8a       	std	Z+17, r13	; 0x11
    1228:	e2 8a       	std	Z+18, r14	; 0x12
    122a:	f3 8a       	std	Z+19, r15	; 0x13
		Old_Value = CELL.Old_Value_2;					// 2╣° ╖╬╡ί╝┐ Old_Value ░ς
    122c:	84 8c       	ldd	r8, Z+28	; 0x1c
    122e:	95 8c       	ldd	r9, Z+29	; 0x1d
    1230:	a6 8c       	ldd	r10, Z+30	; 0x1e
    1232:	b7 8c       	ldd	r11, Z+31	; 0x1f
		Zero_Buff = CELL.Zero_Buff_2;					// 2╣° ╖╬╡ί╝┐ Zero_Buff ░ς
    1234:	80 91 58 42 	lds	r24, 0x4258	; 0x804258 <CELL+0x47>
    1238:	80 93 d6 41 	sts	0x41D6, r24	; 0x8041d6 <Zero_Buff>
		OK_Count = OK_Count_2;						// 2╣° ╖╬╡ί╝┐ OK_Count ░ς
    123c:	80 91 dc 42 	lds	r24, 0x42DC	; 0x8042dc <OK_Count_2>
    1240:	80 93 85 42 	sts	0x4285, r24	; 0x804285 <OK_Count>
		Limit_Time = Timer.Check_Limit_Timer_2;				// 2╣° ╖╬╡ί╝┐ ╣τ░╘├°┴ν ┴ο╟╤ ╜├░μ
    1244:	80 91 64 42 	lds	r24, 0x4264	; 0x804264 <Timer+0x7>
    1248:	90 91 65 42 	lds	r25, 0x4265	; 0x804265 <Timer+0x8>
    124c:	27 c0       	rjmp	.+78     	; 0x129c <Check_Value+0xe6>
	}
	else if(Number == 3)							// 3╣° ╖╬╡ί╝┐ └╠╕ώ
    124e:	83 30       	cpi	r24, 0x03	; 3
    1250:	e9 f4       	brne	.+58     	; 0x128c <Check_Value+0xd6>
	{
		Value = CELL.Value_3 = Read_Load_Cell(3);			// 3╣° ╖╬╡ί╝┐ ├°┴ν░ς
    1252:	83 e0       	ldi	r24, 0x03	; 3
    1254:	0e 94 ce 1c 	call	0x399c	; 0x399c <Read_Load_Cell>
    1258:	6c 01       	movw	r12, r24
    125a:	e1 2c       	mov	r14, r1
    125c:	f1 2c       	mov	r15, r1
    125e:	e1 e1       	ldi	r30, 0x11	; 17
    1260:	f2 e4       	ldi	r31, 0x42	; 66
    1262:	c4 8a       	std	Z+20, r12	; 0x14
    1264:	d5 8a       	std	Z+21, r13	; 0x15
    1266:	e6 8a       	std	Z+22, r14	; 0x16
    1268:	f7 8a       	std	Z+23, r15	; 0x17
		Old_Value = CELL.Old_Value_3;					// 3╣° ╖╬╡ί╝┐ Old_Value ░ς
    126a:	80 a0       	ldd	r8, Z+32	; 0x20
    126c:	91 a0       	ldd	r9, Z+33	; 0x21
    126e:	a2 a0       	ldd	r10, Z+34	; 0x22
    1270:	b3 a0       	ldd	r11, Z+35	; 0x23
		Zero_Buff = CELL.Zero_Buff_3;					// 3╣° ╖╬╡ί╝┐ Zero_Buff ░ς
    1272:	80 91 59 42 	lds	r24, 0x4259	; 0x804259 <CELL+0x48>
    1276:	80 93 d6 41 	sts	0x41D6, r24	; 0x8041d6 <Zero_Buff>
		OK_Count = OK_Count_3;						// 3╣° ╖╬╡ί╝┐ OK_Count ░ς
    127a:	80 91 5b 42 	lds	r24, 0x425B	; 0x80425b <OK_Count_3>
    127e:	80 93 85 42 	sts	0x4285, r24	; 0x804285 <OK_Count>
		Limit_Time = Timer.Check_Limit_Timer_3;				// 3╣° ╖╬╡ί╝┐ ╣τ░╘├°┴ν ┴ο╟╤ ╜├░μ
    1282:	80 91 66 42 	lds	r24, 0x4266	; 0x804266 <Timer+0x9>
    1286:	90 91 67 42 	lds	r25, 0x4267	; 0x804267 <Timer+0xa>
    128a:	08 c0       	rjmp	.+16     	; 0x129c <Check_Value+0xe6>
//=================================================================================================
void Check_Value(uint8_t Number)						// ╖╬╡ί╝┐ ├╝┴▀├°┴ν
{
	uint32_t Value = 0;							// Value ║ψ╝÷ ├╩▒έ╚φ
	uint32_t Old_Value = 0;							// Old_Value ║ψ╝÷ ├╩▒έ╚φ
	uint16_t Limit_Time = 0;						// Old_Value ║ψ╝÷ ├╩▒έ╚φ
    128c:	80 e0       	ldi	r24, 0x00	; 0
    128e:	90 e0       	ldi	r25, 0x00	; 0

//=================================================================================================
void Check_Value(uint8_t Number)						// ╖╬╡ί╝┐ ├╝┴▀├°┴ν
{
	uint32_t Value = 0;							// Value ║ψ╝÷ ├╩▒έ╚φ
	uint32_t Old_Value = 0;							// Old_Value ║ψ╝÷ ├╩▒έ╚φ
    1290:	81 2c       	mov	r8, r1
    1292:	91 2c       	mov	r9, r1
    1294:	54 01       	movw	r10, r8
}

//=================================================================================================
void Check_Value(uint8_t Number)						// ╖╬╡ί╝┐ ├╝┴▀├°┴ν
{
	uint32_t Value = 0;							// Value ║ψ╝÷ ├╩▒έ╚φ
    1296:	c1 2c       	mov	r12, r1
    1298:	d1 2c       	mov	r13, r1
    129a:	76 01       	movw	r14, r12
		Zero_Buff = CELL.Zero_Buff_3;					// 3╣° ╖╬╡ί╝┐ Zero_Buff ░ς
		OK_Count = OK_Count_3;						// 3╣° ╖╬╡ί╝┐ OK_Count ░ς
		Limit_Time = Timer.Check_Limit_Timer_3;				// 3╣° ╖╬╡ί╝┐ ╣τ░╘├°┴ν ┴ο╟╤ ╜├░μ
	}
//-------------------------------------------------------------------------------------------------
	if(Value)								// ├°┴ν├╝┴▀└╠ └╓└╕╕ώ
    129c:	c1 14       	cp	r12, r1
    129e:	d1 04       	cpc	r13, r1
    12a0:	e1 04       	cpc	r14, r1
    12a2:	f1 04       	cpc	r15, r1
    12a4:	09 f4       	brne	.+2      	; 0x12a8 <Check_Value+0xf2>
    12a6:	8c c1       	rjmp	.+792    	; 0x15c0 <Check_Value+0x40a>
	{
		if((Limit_Time >= 500) & ((Value <= Old_Value + Admit_Weight) & (Value >= Old_Value - Admit_Weight)))
    12a8:	21 e0       	ldi	r18, 0x01	; 1
    12aa:	84 3f       	cpi	r24, 0xF4	; 244
    12ac:	91 40       	sbci	r25, 0x01	; 1
    12ae:	08 f4       	brcc	.+2      	; 0x12b2 <Check_Value+0xfc>
    12b0:	20 e0       	ldi	r18, 0x00	; 0
    12b2:	24 01       	movw	r4, r8
    12b4:	35 01       	movw	r6, r10
    12b6:	82 e3       	ldi	r24, 0x32	; 50
    12b8:	48 1a       	sub	r4, r24
    12ba:	51 08       	sbc	r5, r1
    12bc:	61 08       	sbc	r6, r1
    12be:	71 08       	sbc	r7, r1
    12c0:	91 e0       	ldi	r25, 0x01	; 1
    12c2:	b5 01       	movw	r22, r10
    12c4:	a4 01       	movw	r20, r8
    12c6:	4e 5c       	subi	r20, 0xCE	; 206
    12c8:	5f 4f       	sbci	r21, 0xFF	; 255
    12ca:	6f 4f       	sbci	r22, 0xFF	; 255
    12cc:	7f 4f       	sbci	r23, 0xFF	; 255
    12ce:	4c 15       	cp	r20, r12
    12d0:	5d 05       	cpc	r21, r13
    12d2:	6e 05       	cpc	r22, r14
    12d4:	7f 05       	cpc	r23, r15
    12d6:	08 f4       	brcc	.+2      	; 0x12da <Check_Value+0x124>
    12d8:	90 e0       	ldi	r25, 0x00	; 0
    12da:	81 e0       	ldi	r24, 0x01	; 1
    12dc:	c4 14       	cp	r12, r4
    12de:	d5 04       	cpc	r13, r5
    12e0:	e6 04       	cpc	r14, r6
    12e2:	f7 04       	cpc	r15, r7
    12e4:	08 f4       	brcc	.+2      	; 0x12e8 <Check_Value+0x132>
    12e6:	80 e0       	ldi	r24, 0x00	; 0
    12e8:	89 23       	and	r24, r25
    12ea:	22 23       	and	r18, r18
    12ec:	09 f4       	brne	.+2      	; 0x12f0 <Check_Value+0x13a>
    12ee:	25 c1       	rjmp	.+586    	; 0x153a <Check_Value+0x384>
    12f0:	88 23       	and	r24, r24
    12f2:	09 f4       	brne	.+2      	; 0x12f6 <Check_Value+0x140>
    12f4:	22 c1       	rjmp	.+580    	; 0x153a <Check_Value+0x384>
		{								// └╠└ⁿ├╝┴▀└╠ ├°┴ν├╝┴▀░· └╬┴Ϋ├╝┴▀(50g)└╗ ┤Ϋ╟╤░ς░· ░░░┼│ς └█░Ί └╬┴Ϋ├╝┴▀(50g)└╗ ╗τ░ς░· ░░░┼│ς ┼σ╕ώ╝φ └╠└ⁿ├╝┴▀░· ░░└╕╕ώ
 			OK_Count++;						// ├°┴ν├╝┴▀ OK Count ┴Ϋ░κ
    12f6:	80 91 85 42 	lds	r24, 0x4285	; 0x804285 <OK_Count>
    12fa:	8f 5f       	subi	r24, 0xFF	; 255
    12fc:	80 93 85 42 	sts	0x4285, r24	; 0x804285 <OK_Count>
			if(OK_Count == 3)					// ├°┴ν├╝┴▀ OK Count ░κ 3║╕┤┘ ┼σ╕ώ
    1300:	83 30       	cpi	r24, 0x03	; 3
    1302:	09 f0       	breq	.+2      	; 0x1306 <Check_Value+0x150>
    1304:	d1 c0       	rjmp	.+418    	; 0x14a8 <Check_Value+0x2f2>
			{
				if(!Zero_Buff)					// Zero_Buff ░κ 0 └╠╕ώ
    1306:	80 91 d6 41 	lds	r24, 0x41D6	; 0x8041d6 <Zero_Buff>
    130a:	81 11       	cpse	r24, r1
    130c:	bb c0       	rjmp	.+374    	; 0x1484 <Check_Value+0x2ce>
				{
					Zero_Buff = 1;				// Zero_Buff = 1
    130e:	81 e0       	ldi	r24, 0x01	; 1
    1310:	80 93 d6 41 	sts	0x41D6, r24	; 0x8041d6 <Zero_Buff>

					if     (Number == 1) {CELL.Zero_Buff_1 = Zero_Buff;}	// 1╣° ╖╬╡ί╝┐ └╠╕ώ Zero_Buff_1 └·└ί
    1314:	c1 30       	cpi	r28, 0x01	; 1
    1316:	19 f4       	brne	.+6      	; 0x131e <Check_Value+0x168>
    1318:	80 93 57 42 	sts	0x4257, r24	; 0x804257 <CELL+0x46>
    131c:	0b c0       	rjmp	.+22     	; 0x1334 <Check_Value+0x17e>
					else if(Number == 2) {CELL.Zero_Buff_2 = Zero_Buff;}	// 2╣° ╖╬╡ί╝┐ └╠╕ώ Zero_Buff_2 └·└ί
    131e:	c2 30       	cpi	r28, 0x02	; 2
    1320:	21 f4       	brne	.+8      	; 0x132a <Check_Value+0x174>
    1322:	81 e0       	ldi	r24, 0x01	; 1
    1324:	80 93 58 42 	sts	0x4258, r24	; 0x804258 <CELL+0x47>
    1328:	05 c0       	rjmp	.+10     	; 0x1334 <Check_Value+0x17e>
					else if(Number == 3) {CELL.Zero_Buff_3 = Zero_Buff;}	// 3╣° ╖╬╡ί╝┐ └╠╕ώ Zero_Buff_3 └·└ί
    132a:	c3 30       	cpi	r28, 0x03	; 3
    132c:	19 f4       	brne	.+6      	; 0x1334 <Check_Value+0x17e>
    132e:	81 e0       	ldi	r24, 0x01	; 1
    1330:	80 93 59 42 	sts	0x4259, r24	; 0x804259 <CELL+0x48>
}

//=================================================================================================
void Check_Value(uint8_t Number)						// ╖╬╡ί╝┐ ├╝┴▀├°┴ν
{
	uint32_t Value = 0;							// Value ║ψ╝÷ ├╩▒έ╚φ
    1334:	84 e1       	ldi	r24, 0x14	; 20
    1336:	3c c0       	rjmp	.+120    	; 0x13b0 <Check_Value+0x1fa>
					else if(Number == 2) {CELL.Zero_Buff_2 = Zero_Buff;}	// 2╣° ╖╬╡ί╝┐ └╠╕ώ Zero_Buff_2 └·└ί
					else if(Number == 3) {CELL.Zero_Buff_3 = Zero_Buff;}	// 3╣° ╖╬╡ί╝┐ └╠╕ώ Zero_Buff_3 └·└ί

					for(uint8_t i = 20; i > 1; i--)				// 20 ╣° ║╬┼═ 1╣°▒Ό┴÷ 20╣° ╣▌║╣
					{
						if     (Number == 1) {Data_1[i] = Data_1[i-1];}	// 1╣° ╖╬╡ί╝┐ └╠╕ώ ├╝┴▀ Data_1 1─φ╛┐ ╡┌╖╬ ╣╨▒έ
    1338:	c1 30       	cpi	r28, 0x01	; 1
    133a:	91 f4       	brne	.+36     	; 0x1360 <Check_Value+0x1aa>
    133c:	28 2f       	mov	r18, r24
    133e:	30 e0       	ldi	r19, 0x00	; 0
    1340:	f9 01       	movw	r30, r18
    1342:	31 97       	sbiw	r30, 0x01	; 1
    1344:	ee 0f       	add	r30, r30
    1346:	ff 1f       	adc	r31, r31
    1348:	e2 51       	subi	r30, 0x12	; 18
    134a:	fc 4b       	sbci	r31, 0xBC	; 188
    134c:	40 81       	ld	r20, Z
    134e:	51 81       	ldd	r21, Z+1	; 0x01
    1350:	22 0f       	add	r18, r18
    1352:	33 1f       	adc	r19, r19
    1354:	f9 01       	movw	r30, r18
    1356:	e2 51       	subi	r30, 0x12	; 18
    1358:	fc 4b       	sbci	r31, 0xBC	; 188
    135a:	40 83       	st	Z, r20
    135c:	51 83       	std	Z+1, r21	; 0x01
    135e:	27 c0       	rjmp	.+78     	; 0x13ae <Check_Value+0x1f8>
						else if(Number == 2) {Data_2[i] = Data_2[i-1];}	// 2╣° ╖╬╡ί╝┐ └╠╕ώ ├╝┴▀ Data_2 1─φ╛┐ ╡┌╖╬ ╣╨▒έ
    1360:	c2 30       	cpi	r28, 0x02	; 2
    1362:	91 f4       	brne	.+36     	; 0x1388 <Check_Value+0x1d2>
    1364:	28 2f       	mov	r18, r24
    1366:	30 e0       	ldi	r19, 0x00	; 0
    1368:	f9 01       	movw	r30, r18
    136a:	31 97       	sbiw	r30, 0x01	; 1
    136c:	ee 0f       	add	r30, r30
    136e:	ff 1f       	adc	r31, r31
    1370:	ef 54       	subi	r30, 0x4F	; 79
    1372:	fd 4b       	sbci	r31, 0xBD	; 189
    1374:	40 81       	ld	r20, Z
    1376:	51 81       	ldd	r21, Z+1	; 0x01
    1378:	22 0f       	add	r18, r18
    137a:	33 1f       	adc	r19, r19
    137c:	f9 01       	movw	r30, r18
    137e:	ef 54       	subi	r30, 0x4F	; 79
    1380:	fd 4b       	sbci	r31, 0xBD	; 189
    1382:	40 83       	st	Z, r20
    1384:	51 83       	std	Z+1, r21	; 0x01
    1386:	13 c0       	rjmp	.+38     	; 0x13ae <Check_Value+0x1f8>
						else if(Number == 3) {Data_3[i] = Data_3[i-1];}	// 3╣° ╖╬╡ί╝┐ └╠╕ώ ├╝┴▀ Data_3 1─φ╛┐ ╡┌╖╬ ╣╨▒έ 
    1388:	c3 30       	cpi	r28, 0x03	; 3
    138a:	89 f4       	brne	.+34     	; 0x13ae <Check_Value+0x1f8>
    138c:	28 2f       	mov	r18, r24
    138e:	30 e0       	ldi	r19, 0x00	; 0
    1390:	f9 01       	movw	r30, r18
    1392:	31 97       	sbiw	r30, 0x01	; 1
    1394:	ee 0f       	add	r30, r30
    1396:	ff 1f       	adc	r31, r31
    1398:	e7 55       	subi	r30, 0x57	; 87
    139a:	fe 4b       	sbci	r31, 0xBE	; 190
    139c:	40 81       	ld	r20, Z
    139e:	51 81       	ldd	r21, Z+1	; 0x01
    13a0:	22 0f       	add	r18, r18
    13a2:	33 1f       	adc	r19, r19
    13a4:	f9 01       	movw	r30, r18
    13a6:	e7 55       	subi	r30, 0x57	; 87
    13a8:	fe 4b       	sbci	r31, 0xBE	; 190
    13aa:	40 83       	st	Z, r20
    13ac:	51 83       	std	Z+1, r21	; 0x01

					if     (Number == 1) {CELL.Zero_Buff_1 = Zero_Buff;}	// 1╣° ╖╬╡ί╝┐ └╠╕ώ Zero_Buff_1 └·└ί
					else if(Number == 2) {CELL.Zero_Buff_2 = Zero_Buff;}	// 2╣° ╖╬╡ί╝┐ └╠╕ώ Zero_Buff_2 └·└ί
					else if(Number == 3) {CELL.Zero_Buff_3 = Zero_Buff;}	// 3╣° ╖╬╡ί╝┐ └╠╕ώ Zero_Buff_3 └·└ί

					for(uint8_t i = 20; i > 1; i--)				// 20 ╣° ║╬┼═ 1╣°▒Ό┴÷ 20╣° ╣▌║╣
    13ae:	81 50       	subi	r24, 0x01	; 1
    13b0:	82 30       	cpi	r24, 0x02	; 2
    13b2:	10 f6       	brcc	.-124    	; 0x1338 <Check_Value+0x182>
						if     (Number == 1) {Data_1[i] = Data_1[i-1];}	// 1╣° ╖╬╡ί╝┐ └╠╕ώ ├╝┴▀ Data_1 1─φ╛┐ ╡┌╖╬ ╣╨▒έ
						else if(Number == 2) {Data_2[i] = Data_2[i-1];}	// 2╣° ╖╬╡ί╝┐ └╠╕ώ ├╝┴▀ Data_2 1─φ╛┐ ╡┌╖╬ ╣╨▒έ
						else if(Number == 3) {Data_3[i] = Data_3[i-1];}	// 3╣° ╖╬╡ί╝┐ └╠╕ώ ├╝┴▀ Data_3 1─φ╛┐ ╡┌╖╬ ╣╨▒έ 
					}

					if     (Number == 1) {Data_1[1] = CELL.Value_1 = CELL.Value_1; CELL.Count_1++; Cell_Desplay(Number); Alarm(); CELL.Zero_Buff_1 = 0; Timer.Check_Limit_Timer_1 = 0;}
    13b4:	c1 30       	cpi	r28, 0x01	; 1
    13b6:	09 f5       	brne	.+66     	; 0x13fa <Check_Value+0x244>
    13b8:	e1 e1       	ldi	r30, 0x11	; 17
    13ba:	f2 e4       	ldi	r31, 0x42	; 66
    13bc:	84 85       	ldd	r24, Z+12	; 0x0c
    13be:	95 85       	ldd	r25, Z+13	; 0x0d
    13c0:	a6 85       	ldd	r26, Z+14	; 0x0e
    13c2:	b7 85       	ldd	r27, Z+15	; 0x0f
    13c4:	84 87       	std	Z+12, r24	; 0x0c
    13c6:	95 87       	std	Z+13, r25	; 0x0d
    13c8:	a6 87       	std	Z+14, r26	; 0x0e
    13ca:	b7 87       	std	Z+15, r27	; 0x0f
    13cc:	80 93 f0 43 	sts	0x43F0, r24	; 0x8043f0 <Data_1+0x2>
    13d0:	90 93 f1 43 	sts	0x43F1, r25	; 0x8043f1 <Data_1+0x3>
    13d4:	e1 e5       	ldi	r30, 0x51	; 81
    13d6:	f2 e4       	ldi	r31, 0x42	; 66
    13d8:	80 81       	ld	r24, Z
    13da:	91 81       	ldd	r25, Z+1	; 0x01
    13dc:	01 96       	adiw	r24, 0x01	; 1
    13de:	80 83       	st	Z, r24
    13e0:	91 83       	std	Z+1, r25	; 0x01
    13e2:	8c 2f       	mov	r24, r28
    13e4:	0e 94 67 18 	call	0x30ce	; 0x30ce <Cell_Desplay>
    13e8:	0e 94 c0 08 	call	0x1180	; 0x1180 <Alarm>
    13ec:	10 92 57 42 	sts	0x4257, r1	; 0x804257 <CELL+0x46>
    13f0:	10 92 62 42 	sts	0x4262, r1	; 0x804262 <Timer+0x5>
    13f4:	10 92 63 42 	sts	0x4263, r1	; 0x804263 <Timer+0x6>
    13f8:	45 c0       	rjmp	.+138    	; 0x1484 <Check_Value+0x2ce>
					else if(Number == 2) {Data_2[1] = CELL.Value_2 = CELL.Value_2; CELL.Count_2++; Cell_Desplay(Number); Alarm(); CELL.Zero_Buff_2 = 0; Timer.Check_Limit_Timer_2 = 0;}
    13fa:	c2 30       	cpi	r28, 0x02	; 2
    13fc:	09 f5       	brne	.+66     	; 0x1440 <Check_Value+0x28a>
    13fe:	e1 e1       	ldi	r30, 0x11	; 17
    1400:	f2 e4       	ldi	r31, 0x42	; 66
    1402:	80 89       	ldd	r24, Z+16	; 0x10
    1404:	91 89       	ldd	r25, Z+17	; 0x11
    1406:	a2 89       	ldd	r26, Z+18	; 0x12
    1408:	b3 89       	ldd	r27, Z+19	; 0x13
    140a:	80 8b       	std	Z+16, r24	; 0x10
    140c:	91 8b       	std	Z+17, r25	; 0x11
    140e:	a2 8b       	std	Z+18, r26	; 0x12
    1410:	b3 8b       	std	Z+19, r27	; 0x13
    1412:	80 93 b3 42 	sts	0x42B3, r24	; 0x8042b3 <Data_2+0x2>
    1416:	90 93 b4 42 	sts	0x42B4, r25	; 0x8042b4 <Data_2+0x3>
    141a:	e3 e5       	ldi	r30, 0x53	; 83
    141c:	f2 e4       	ldi	r31, 0x42	; 66
    141e:	80 81       	ld	r24, Z
    1420:	91 81       	ldd	r25, Z+1	; 0x01
    1422:	01 96       	adiw	r24, 0x01	; 1
    1424:	80 83       	st	Z, r24
    1426:	91 83       	std	Z+1, r25	; 0x01
    1428:	8c 2f       	mov	r24, r28
    142a:	0e 94 67 18 	call	0x30ce	; 0x30ce <Cell_Desplay>
    142e:	0e 94 c0 08 	call	0x1180	; 0x1180 <Alarm>
    1432:	10 92 58 42 	sts	0x4258, r1	; 0x804258 <CELL+0x47>
    1436:	10 92 64 42 	sts	0x4264, r1	; 0x804264 <Timer+0x7>
    143a:	10 92 65 42 	sts	0x4265, r1	; 0x804265 <Timer+0x8>
    143e:	22 c0       	rjmp	.+68     	; 0x1484 <Check_Value+0x2ce>
					else if(Number == 3) {Data_3[1] = CELL.Value_3 = CELL.Value_3; CELL.Count_3++; Cell_Desplay(Number); Alarm(); CELL.Zero_Buff_3 = 0; Timer.Check_Limit_Timer_3 = 0;}
    1440:	c3 30       	cpi	r28, 0x03	; 3
    1442:	01 f5       	brne	.+64     	; 0x1484 <Check_Value+0x2ce>
    1444:	e1 e1       	ldi	r30, 0x11	; 17
    1446:	f2 e4       	ldi	r31, 0x42	; 66
    1448:	84 89       	ldd	r24, Z+20	; 0x14
    144a:	95 89       	ldd	r25, Z+21	; 0x15
    144c:	a6 89       	ldd	r26, Z+22	; 0x16
    144e:	b7 89       	ldd	r27, Z+23	; 0x17
    1450:	84 8b       	std	Z+20, r24	; 0x14
    1452:	95 8b       	std	Z+21, r25	; 0x15
    1454:	a6 8b       	std	Z+22, r26	; 0x16
    1456:	b7 8b       	std	Z+23, r27	; 0x17
    1458:	80 93 ab 41 	sts	0x41AB, r24	; 0x8041ab <Data_3+0x2>
    145c:	90 93 ac 41 	sts	0x41AC, r25	; 0x8041ac <Data_3+0x3>
    1460:	e5 e5       	ldi	r30, 0x55	; 85
    1462:	f2 e4       	ldi	r31, 0x42	; 66
    1464:	80 81       	ld	r24, Z
    1466:	91 81       	ldd	r25, Z+1	; 0x01
    1468:	01 96       	adiw	r24, 0x01	; 1
    146a:	80 83       	st	Z, r24
    146c:	91 83       	std	Z+1, r25	; 0x01
    146e:	8c 2f       	mov	r24, r28
    1470:	0e 94 67 18 	call	0x30ce	; 0x30ce <Cell_Desplay>
    1474:	0e 94 c0 08 	call	0x1180	; 0x1180 <Alarm>
    1478:	10 92 59 42 	sts	0x4259, r1	; 0x804259 <CELL+0x48>
    147c:	10 92 66 42 	sts	0x4266, r1	; 0x804266 <Timer+0x9>
    1480:	10 92 67 42 	sts	0x4267, r1	; 0x804267 <Timer+0xa>
					// 1, 2, 3╣° ╖╬╡ί╝┐ └╠╕ώ Data[1]┐κ ├°┴ν├╝┴▀ └·└ί, ├°┴ν ╚╜╝÷ ┴Ϋ░κ, ├╝┴▀╟ξ╜├, Zero_Buff ├╩▒έ╚φ
				}
				OK_Count = 0;					// ├°┴ν├╝┴▀ OK Count ├╩▒έ╚φ
    1484:	10 92 85 42 	sts	0x4285, r1	; 0x804285 <OK_Count>
				printf("Value %ld \r\n", Value);
    1488:	ff 92       	push	r15
    148a:	ef 92       	push	r14
    148c:	df 92       	push	r13
    148e:	cf 92       	push	r12
    1490:	88 e4       	ldi	r24, 0x48	; 72
    1492:	90 e4       	ldi	r25, 0x40	; 64
    1494:	9f 93       	push	r25
    1496:	8f 93       	push	r24
    1498:	0e 94 cd 46 	call	0x8d9a	; 0x8d9a <printf>
    149c:	0f 90       	pop	r0
    149e:	0f 90       	pop	r0
    14a0:	0f 90       	pop	r0
    14a2:	0f 90       	pop	r0
    14a4:	0f 90       	pop	r0
    14a6:	0f 90       	pop	r0
			}

			if     (Number == 1) {OK_Count_1 = OK_Count; CELL.Old_Value_1 = Old_Value; CELL.Value_1 = CELL.Value_1; Cell_Desplay(Number);}		// 1╣° ╖╬╡ί╝┐ └╠╕ώ OK_Count └·└ί
    14a8:	c1 30       	cpi	r28, 0x01	; 1
    14aa:	b1 f4       	brne	.+44     	; 0x14d8 <Check_Value+0x322>
    14ac:	80 91 85 42 	lds	r24, 0x4285	; 0x804285 <OK_Count>
    14b0:	80 93 8f 42 	sts	0x428F, r24	; 0x80428f <OK_Count_1>
    14b4:	e1 e1       	ldi	r30, 0x11	; 17
    14b6:	f2 e4       	ldi	r31, 0x42	; 66
    14b8:	80 8e       	std	Z+24, r8	; 0x18
    14ba:	91 8e       	std	Z+25, r9	; 0x19
    14bc:	a2 8e       	std	Z+26, r10	; 0x1a
    14be:	b3 8e       	std	Z+27, r11	; 0x1b
    14c0:	84 85       	ldd	r24, Z+12	; 0x0c
    14c2:	95 85       	ldd	r25, Z+13	; 0x0d
    14c4:	a6 85       	ldd	r26, Z+14	; 0x0e
    14c6:	b7 85       	ldd	r27, Z+15	; 0x0f
    14c8:	84 87       	std	Z+12, r24	; 0x0c
    14ca:	95 87       	std	Z+13, r25	; 0x0d
    14cc:	a6 87       	std	Z+14, r26	; 0x0e
    14ce:	b7 87       	std	Z+15, r27	; 0x0f
    14d0:	8c 2f       	mov	r24, r28
    14d2:	0e 94 67 18 	call	0x30ce	; 0x30ce <Cell_Desplay>
    14d6:	c5 c0       	rjmp	.+394    	; 0x1662 <Check_Value+0x4ac>
			else if(Number == 2) {OK_Count_2 = OK_Count; CELL.Old_Value_2 = Old_Value; CELL.Value_2 = CELL.Value_2; Cell_Desplay(Number);}		// 2╣° ╖╬╡ί╝┐ └╠╕ώ OK_Count └·└ί
    14d8:	c2 30       	cpi	r28, 0x02	; 2
    14da:	b1 f4       	brne	.+44     	; 0x1508 <Check_Value+0x352>
    14dc:	80 91 85 42 	lds	r24, 0x4285	; 0x804285 <OK_Count>
    14e0:	80 93 dc 42 	sts	0x42DC, r24	; 0x8042dc <OK_Count_2>
    14e4:	e1 e1       	ldi	r30, 0x11	; 17
    14e6:	f2 e4       	ldi	r31, 0x42	; 66
    14e8:	84 8e       	std	Z+28, r8	; 0x1c
    14ea:	95 8e       	std	Z+29, r9	; 0x1d
    14ec:	a6 8e       	std	Z+30, r10	; 0x1e
    14ee:	b7 8e       	std	Z+31, r11	; 0x1f
    14f0:	80 89       	ldd	r24, Z+16	; 0x10
    14f2:	91 89       	ldd	r25, Z+17	; 0x11
    14f4:	a2 89       	ldd	r26, Z+18	; 0x12
    14f6:	b3 89       	ldd	r27, Z+19	; 0x13
    14f8:	80 8b       	std	Z+16, r24	; 0x10
    14fa:	91 8b       	std	Z+17, r25	; 0x11
    14fc:	a2 8b       	std	Z+18, r26	; 0x12
    14fe:	b3 8b       	std	Z+19, r27	; 0x13
    1500:	8c 2f       	mov	r24, r28
    1502:	0e 94 67 18 	call	0x30ce	; 0x30ce <Cell_Desplay>
    1506:	ad c0       	rjmp	.+346    	; 0x1662 <Check_Value+0x4ac>
			else if(Number == 3) {OK_Count_3 = OK_Count; CELL.Old_Value_3 = Old_Value; CELL.Value_3 = CELL.Value_3; Cell_Desplay(Number);}		// 3╣° ╖╬╡ί╝┐ └╠╕ώ OK_Count └·└ί
    1508:	c3 30       	cpi	r28, 0x03	; 3
    150a:	09 f0       	breq	.+2      	; 0x150e <Check_Value+0x358>
    150c:	aa c0       	rjmp	.+340    	; 0x1662 <Check_Value+0x4ac>
    150e:	80 91 85 42 	lds	r24, 0x4285	; 0x804285 <OK_Count>
    1512:	80 93 5b 42 	sts	0x425B, r24	; 0x80425b <OK_Count_3>
    1516:	e1 e1       	ldi	r30, 0x11	; 17
    1518:	f2 e4       	ldi	r31, 0x42	; 66
    151a:	80 a2       	std	Z+32, r8	; 0x20
    151c:	91 a2       	std	Z+33, r9	; 0x21
    151e:	a2 a2       	std	Z+34, r10	; 0x22
    1520:	b3 a2       	std	Z+35, r11	; 0x23
    1522:	84 89       	ldd	r24, Z+20	; 0x14
    1524:	95 89       	ldd	r25, Z+21	; 0x15
    1526:	a6 89       	ldd	r26, Z+22	; 0x16
    1528:	b7 89       	ldd	r27, Z+23	; 0x17
    152a:	84 8b       	std	Z+20, r24	; 0x14
    152c:	95 8b       	std	Z+21, r25	; 0x15
    152e:	a6 8b       	std	Z+22, r26	; 0x16
    1530:	b7 8b       	std	Z+23, r27	; 0x17
    1532:	8c 2f       	mov	r24, r28
    1534:	0e 94 67 18 	call	0x30ce	; 0x30ce <Cell_Desplay>
    1538:	94 c0       	rjmp	.+296    	; 0x1662 <Check_Value+0x4ac>
		}
		else	// └╠└ⁿ├╝┴▀└╠ ├°┴ν├╝┴▀░· └╬┴Ϋ├╝┴▀(50g)└╗ ┤Ϋ╟╤░ς░· ░░░┼│ς └█░Ί └╬┴Ϋ├╝┴▀(50g)└╗ ╗τ░ς░· ░░░┼│ς ┼σ╕ώ╝φ └╠└ⁿ├╝┴▀░· ░░└╕╕ώ └╠ ╛╞┤╧╕ώ
		{
			Old_Value = Value;					// └╠└ⁿ├╝┴▀┐κ ├°┴ν├╝┴▀ └·└ί
			if     (Number == 1) {CELL.Old_Value_1 = Old_Value; CELL.Value_1 = CELL.Value_1; Cell_Desplay(Number); Zero_Count_1 = 0;}
    153a:	c1 30       	cpi	r28, 0x01	; 1
    153c:	a1 f4       	brne	.+40     	; 0x1566 <Check_Value+0x3b0>
    153e:	e1 e1       	ldi	r30, 0x11	; 17
    1540:	f2 e4       	ldi	r31, 0x42	; 66
    1542:	c0 8e       	std	Z+24, r12	; 0x18
    1544:	d1 8e       	std	Z+25, r13	; 0x19
    1546:	e2 8e       	std	Z+26, r14	; 0x1a
    1548:	f3 8e       	std	Z+27, r15	; 0x1b
    154a:	84 85       	ldd	r24, Z+12	; 0x0c
    154c:	95 85       	ldd	r25, Z+13	; 0x0d
    154e:	a6 85       	ldd	r26, Z+14	; 0x0e
    1550:	b7 85       	ldd	r27, Z+15	; 0x0f
    1552:	84 87       	std	Z+12, r24	; 0x0c
    1554:	95 87       	std	Z+13, r25	; 0x0d
    1556:	a6 87       	std	Z+14, r26	; 0x0e
    1558:	b7 87       	std	Z+15, r27	; 0x0f
    155a:	8c 2f       	mov	r24, r28
    155c:	0e 94 67 18 	call	0x30ce	; 0x30ce <Cell_Desplay>
    1560:	10 92 a2 42 	sts	0x42A2, r1	; 0x8042a2 <Zero_Count_1>
    1564:	7e c0       	rjmp	.+252    	; 0x1662 <Check_Value+0x4ac>
			else if(Number == 2) {CELL.Old_Value_2 = Old_Value; CELL.Value_2 = CELL.Value_2; Cell_Desplay(Number); Zero_Count_2 = 0;}
    1566:	c2 30       	cpi	r28, 0x02	; 2
    1568:	a1 f4       	brne	.+40     	; 0x1592 <Check_Value+0x3dc>
    156a:	e1 e1       	ldi	r30, 0x11	; 17
    156c:	f2 e4       	ldi	r31, 0x42	; 66
    156e:	c4 8e       	std	Z+28, r12	; 0x1c
    1570:	d5 8e       	std	Z+29, r13	; 0x1d
    1572:	e6 8e       	std	Z+30, r14	; 0x1e
    1574:	f7 8e       	std	Z+31, r15	; 0x1f
    1576:	80 89       	ldd	r24, Z+16	; 0x10
    1578:	91 89       	ldd	r25, Z+17	; 0x11
    157a:	a2 89       	ldd	r26, Z+18	; 0x12
    157c:	b3 89       	ldd	r27, Z+19	; 0x13
    157e:	80 8b       	std	Z+16, r24	; 0x10
    1580:	91 8b       	std	Z+17, r25	; 0x11
    1582:	a2 8b       	std	Z+18, r26	; 0x12
    1584:	b3 8b       	std	Z+19, r27	; 0x13
    1586:	8c 2f       	mov	r24, r28
    1588:	0e 94 67 18 	call	0x30ce	; 0x30ce <Cell_Desplay>
    158c:	10 92 a6 41 	sts	0x41A6, r1	; 0x8041a6 <Zero_Count_2>
    1590:	68 c0       	rjmp	.+208    	; 0x1662 <Check_Value+0x4ac>
			else if(Number == 3) {CELL.Old_Value_3 = Old_Value; CELL.Value_3 = CELL.Value_3; Cell_Desplay(Number); Zero_Count_3 = 0;}
    1592:	c3 30       	cpi	r28, 0x03	; 3
    1594:	09 f0       	breq	.+2      	; 0x1598 <Check_Value+0x3e2>
    1596:	65 c0       	rjmp	.+202    	; 0x1662 <Check_Value+0x4ac>
    1598:	e1 e1       	ldi	r30, 0x11	; 17
    159a:	f2 e4       	ldi	r31, 0x42	; 66
    159c:	c0 a2       	std	Z+32, r12	; 0x20
    159e:	d1 a2       	std	Z+33, r13	; 0x21
    15a0:	e2 a2       	std	Z+34, r14	; 0x22
    15a2:	f3 a2       	std	Z+35, r15	; 0x23
    15a4:	84 89       	ldd	r24, Z+20	; 0x14
    15a6:	95 89       	ldd	r25, Z+21	; 0x15
    15a8:	a6 89       	ldd	r26, Z+22	; 0x16
    15aa:	b7 89       	ldd	r27, Z+23	; 0x17
    15ac:	84 8b       	std	Z+20, r24	; 0x14
    15ae:	95 8b       	std	Z+21, r25	; 0x15
    15b0:	a6 8b       	std	Z+22, r26	; 0x16
    15b2:	b7 8b       	std	Z+23, r27	; 0x17
    15b4:	8c 2f       	mov	r24, r28
    15b6:	0e 94 67 18 	call	0x30ce	; 0x30ce <Cell_Desplay>
    15ba:	10 92 5c 42 	sts	0x425C, r1	; 0x80425c <Zero_Count_3>
    15be:	51 c0       	rjmp	.+162    	; 0x1662 <Check_Value+0x4ac>
			// 1, 2, 3╣° ╖╬╡ί╝┐ └╠╕ώ └╠└ⁿ├°┴ν├╝┴▀ └·└ί, ├╝┴▀╟ξ╜├, Zero_Count ├╩▒έ╚φ
		}
	}
	else 									// ├°┴ν├╝┴▀└╠ ╛°╕ώ
	{
		if(Number == 1)							// 1╣° ╖╬╡ί╝┐ └╠╕ώ
    15c0:	c1 30       	cpi	r28, 0x01	; 1
    15c2:	d1 f4       	brne	.+52     	; 0x15f8 <Check_Value+0x442>
		{
			Zero_Count_1++;						// Zero_Count_1 ┴Ϋ░κ
    15c4:	80 91 a2 42 	lds	r24, 0x42A2	; 0x8042a2 <Zero_Count_1>
    15c8:	8f 5f       	subi	r24, 0xFF	; 255
    15ca:	80 93 a2 42 	sts	0x42A2, r24	; 0x8042a2 <Zero_Count_1>
			if(Zero_Count_1 > 5) { Cell_Desplay(Number); CELL.Zero_Buff_1 = 0; Zero_Count_1 = 0; CELL.Old_Value_1 = 0; OK_Count_1 = 0;}
    15ce:	86 30       	cpi	r24, 0x06	; 6
    15d0:	08 f4       	brcc	.+2      	; 0x15d4 <Check_Value+0x41e>
    15d2:	47 c0       	rjmp	.+142    	; 0x1662 <Check_Value+0x4ac>
    15d4:	8c 2f       	mov	r24, r28
    15d6:	0e 94 67 18 	call	0x30ce	; 0x30ce <Cell_Desplay>
    15da:	10 92 57 42 	sts	0x4257, r1	; 0x804257 <CELL+0x46>
    15de:	10 92 a2 42 	sts	0x42A2, r1	; 0x8042a2 <Zero_Count_1>
    15e2:	10 92 29 42 	sts	0x4229, r1	; 0x804229 <CELL+0x18>
    15e6:	10 92 2a 42 	sts	0x422A, r1	; 0x80422a <CELL+0x19>
    15ea:	10 92 2b 42 	sts	0x422B, r1	; 0x80422b <CELL+0x1a>
    15ee:	10 92 2c 42 	sts	0x422C, r1	; 0x80422c <CELL+0x1b>
    15f2:	10 92 8f 42 	sts	0x428F, r1	; 0x80428f <OK_Count_1>
    15f6:	35 c0       	rjmp	.+106    	; 0x1662 <Check_Value+0x4ac>
		}	// Zero_Count_1 └╠ 2║╕┤┘ ┼σ╕ώ ├°┴ν├╝┴▀ ╟ξ╜├, Zero_Buff_1 ├╩▒έ╚φ, Zero_Count_1 ├╩▒έ╚φ, └╠└ⁿ├°┴ν├╝┴▀_1 ├╩▒έ╚φ, ├°┴ν├╝┴▀ OK Count ├╩▒έ╚φ
		else if(Number == 2)						// 2╣° ╖╬╡ί╝┐ └╠╕ώ
    15f8:	c2 30       	cpi	r28, 0x02	; 2
    15fa:	c9 f4       	brne	.+50     	; 0x162e <Check_Value+0x478>
		{
			Zero_Count_2++;						// Zero_Count_2 ┴Ϋ░κ
    15fc:	80 91 a6 41 	lds	r24, 0x41A6	; 0x8041a6 <Zero_Count_2>
    1600:	8f 5f       	subi	r24, 0xFF	; 255
    1602:	80 93 a6 41 	sts	0x41A6, r24	; 0x8041a6 <Zero_Count_2>
			if(Zero_Count_2 > 5) {Cell_Desplay(Number); CELL.Zero_Buff_2 = 0; Zero_Count_2 = 0; CELL.Old_Value_2 = 0; OK_Count_2 = 0;}
    1606:	86 30       	cpi	r24, 0x06	; 6
    1608:	60 f1       	brcs	.+88     	; 0x1662 <Check_Value+0x4ac>
    160a:	8c 2f       	mov	r24, r28
    160c:	0e 94 67 18 	call	0x30ce	; 0x30ce <Cell_Desplay>
    1610:	10 92 58 42 	sts	0x4258, r1	; 0x804258 <CELL+0x47>
    1614:	10 92 a6 41 	sts	0x41A6, r1	; 0x8041a6 <Zero_Count_2>
    1618:	10 92 2d 42 	sts	0x422D, r1	; 0x80422d <CELL+0x1c>
    161c:	10 92 2e 42 	sts	0x422E, r1	; 0x80422e <CELL+0x1d>
    1620:	10 92 2f 42 	sts	0x422F, r1	; 0x80422f <CELL+0x1e>
    1624:	10 92 30 42 	sts	0x4230, r1	; 0x804230 <CELL+0x1f>
    1628:	10 92 dc 42 	sts	0x42DC, r1	; 0x8042dc <OK_Count_2>
    162c:	1a c0       	rjmp	.+52     	; 0x1662 <Check_Value+0x4ac>
		}	// Zero_Count_2 └╠ 2║╕┤┘ ┼σ╕ώ ├°┴ν├╝┴▀ ╟ξ╜├, Zero_Buff_2 ├╩▒έ╚φ, Zero_Count_2 ├╩▒έ╚φ, └╠└ⁿ├°┴ν├╝┴▀_2 ├╩▒έ╚φ, ├°┴ν├╝┴▀ OK Count ├╩▒έ╚φ
		else if(Number == 3)						// 2╣° ╖╬╡ί╝┐ └╠╕ώ
    162e:	c3 30       	cpi	r28, 0x03	; 3
    1630:	c1 f4       	brne	.+48     	; 0x1662 <Check_Value+0x4ac>
		{
			Zero_Count_3++;						// Zero_Count_3 ┴Ϋ░κ
    1632:	80 91 5c 42 	lds	r24, 0x425C	; 0x80425c <Zero_Count_3>
    1636:	8f 5f       	subi	r24, 0xFF	; 255
    1638:	80 93 5c 42 	sts	0x425C, r24	; 0x80425c <Zero_Count_3>
			if(Zero_Count_3 > 5) {Cell_Desplay(Number); CELL.Zero_Buff_3 = 0; Zero_Count_3 = 0; CELL.Old_Value_3 = 0; OK_Count_3 = 0;}
    163c:	86 30       	cpi	r24, 0x06	; 6
    163e:	88 f0       	brcs	.+34     	; 0x1662 <Check_Value+0x4ac>
    1640:	8c 2f       	mov	r24, r28
    1642:	0e 94 67 18 	call	0x30ce	; 0x30ce <Cell_Desplay>
    1646:	10 92 59 42 	sts	0x4259, r1	; 0x804259 <CELL+0x48>
    164a:	10 92 5c 42 	sts	0x425C, r1	; 0x80425c <Zero_Count_3>
    164e:	10 92 31 42 	sts	0x4231, r1	; 0x804231 <CELL+0x20>
    1652:	10 92 32 42 	sts	0x4232, r1	; 0x804232 <CELL+0x21>
    1656:	10 92 33 42 	sts	0x4233, r1	; 0x804233 <CELL+0x22>
    165a:	10 92 34 42 	sts	0x4234, r1	; 0x804234 <CELL+0x23>
    165e:	10 92 5b 42 	sts	0x425B, r1	; 0x80425b <OK_Count_3>
		}	// Zero_Count_3 └╠ 2║╕┤┘ ┼σ╕ώ ├°┴ν├╝┴▀ ╟ξ╜├, Zero_Buff_3 ├╩▒έ╚φ, Zero_Count_3 ├╩▒έ╚φ, └╠└ⁿ├°┴ν├╝┴▀_3 ├╩▒έ╚φ, ├°┴ν├╝┴▀ OK Count ├╩▒έ╚φ
	}
}
    1662:	cf 91       	pop	r28
    1664:	ff 90       	pop	r15
    1666:	ef 90       	pop	r14
    1668:	df 90       	pop	r13
    166a:	cf 90       	pop	r12
    166c:	bf 90       	pop	r11
    166e:	af 90       	pop	r10
    1670:	9f 90       	pop	r9
    1672:	8f 90       	pop	r8
    1674:	7f 90       	pop	r7
    1676:	6f 90       	pop	r6
    1678:	5f 90       	pop	r5
    167a:	4f 90       	pop	r4
    167c:	08 95       	ret

0000167e <Send_To_Server_1>:

//=================================================================================================
//		PC╖╬ ╡ξ└╠┼═ └ⁿ╝█ (╝│┴ν┴ν║╕ ┤ϊ║ψ)
//=================================================================================================
void Send_To_Server_1(uint8_t ID, uint8_t Code)					// PC╖╬ ╡ξ└╠┼═ └ⁿ╝█ (╝│┴ν┴ν║╕ ┤ϊ║ψ)
{
    167e:	1f 93       	push	r17
    1680:	cf 93       	push	r28
    1682:	df 93       	push	r29
    1684:	cd b7       	in	r28, 0x3d	; 61
    1686:	de b7       	in	r29, 0x3e	; 62
    1688:	2a 97       	sbiw	r28, 0x0a	; 10
    168a:	cd bf       	out	0x3d, r28	; 61
    168c:	de bf       	out	0x3e, r29	; 62
	uint8_t cnt = 0;							// cnt ║ψ╝÷ ├╩▒έ╚φ
	uint8_t ChkSum = 0;							// ChkSum ║ψ╝÷ ├╩▒έ╚φ
	char SerialData[10] = {};						// SerialData[10] ╣÷╞█ ╝▒╛Ώ
    168e:	9a e0       	ldi	r25, 0x0A	; 10
    1690:	fe 01       	movw	r30, r28
    1692:	31 96       	adiw	r30, 0x01	; 1
    1694:	df 01       	movw	r26, r30
    1696:	29 2f       	mov	r18, r25
    1698:	1d 92       	st	X+, r1
    169a:	2a 95       	dec	r18
    169c:	e9 f7       	brne	.-6      	; 0x1698 <Send_To_Server_1+0x1a>
	memset(SerialData, 0x00, sizeof(SerialData));				// ╣÷╞█ ├╩▒έ╚φ
    169e:	df 01       	movw	r26, r30
    16a0:	1d 92       	st	X+, r1
    16a2:	9a 95       	dec	r25
    16a4:	e9 f7       	brne	.-6      	; 0x16a0 <Send_To_Server_1+0x22>
//-------------------------------------------------------------------------------------------------
//		Serial Protocol Start
//-------------------------------------------------------------------------------------------------
	SerialData[cnt++] = STX_Iontec;						// STX_Iontec : 0xF0	// 0
    16a6:	90 ef       	ldi	r25, 0xF0	; 240
    16a8:	99 83       	std	Y+1, r25	; 0x01
	SerialData[cnt++] = CTL2PC;						// ╡ξ└╠┼═╣ό╟έ
	SerialData[cnt++] = 0x01;						// └ί║±▒έ┴╛ : └┌╡╖ ╣τ░╘ ├°┴ν▒έ
    16aa:	91 e0       	ldi	r25, 0x01	; 1
    16ac:	9b 83       	std	Y+3, r25	; 0x03
	SerialData[cnt++] = ID;							// └ί║±id
    16ae:	8c 83       	std	Y+4, r24	; 0x04
	SerialData[cnt++] = Code;						// ▒╕║╨─┌╡ί
    16b0:	6d 83       	std	Y+5, r22	; 0x05
	SerialData[cnt++] = FW_VER;						// Protocol Version	// 5
    16b2:	81 e2       	ldi	r24, 0x21	; 33
    16b4:	8e 83       	std	Y+6, r24	; 0x06
	SerialData[cnt++] = Gwid;						// GWID
    16b6:	80 91 86 42 	lds	r24, 0x4286	; 0x804286 <Gwid>
    16ba:	8f 83       	std	Y+7, r24	; 0x07
	SerialData[cnt++] = 0x00;						// res
	for(uint8_t icnt2 = 1; icnt2 < cnt; icnt2++) {ChkSum += SerialData[icnt2];}	// ├╝┼σ╜ό ░ϋ╗Ά
    16bc:	81 e0       	ldi	r24, 0x01	; 1
//		PC╖╬ ╡ξ└╠┼═ └ⁿ╝█ (╝│┴ν┴ν║╕ ┤ϊ║ψ)
//=================================================================================================
void Send_To_Server_1(uint8_t ID, uint8_t Code)					// PC╖╬ ╡ξ└╠┼═ └ⁿ╝█ (╝│┴ν┴ν║╕ ┤ϊ║ψ)
{
	uint8_t cnt = 0;							// cnt ║ψ╝÷ ├╩▒έ╚φ
	uint8_t ChkSum = 0;							// ChkSum ║ψ╝÷ ├╩▒έ╚φ
    16be:	90 e0       	ldi	r25, 0x00	; 0
	SerialData[cnt++] = ID;							// └ί║±id
	SerialData[cnt++] = Code;						// ▒╕║╨─┌╡ί
	SerialData[cnt++] = FW_VER;						// Protocol Version	// 5
	SerialData[cnt++] = Gwid;						// GWID
	SerialData[cnt++] = 0x00;						// res
	for(uint8_t icnt2 = 1; icnt2 < cnt; icnt2++) {ChkSum += SerialData[icnt2];}	// ├╝┼σ╜ό ░ϋ╗Ά
    16c0:	09 c0       	rjmp	.+18     	; 0x16d4 <Send_To_Server_1+0x56>
    16c2:	e1 e0       	ldi	r30, 0x01	; 1
    16c4:	f0 e0       	ldi	r31, 0x00	; 0
    16c6:	ec 0f       	add	r30, r28
    16c8:	fd 1f       	adc	r31, r29
    16ca:	e8 0f       	add	r30, r24
    16cc:	f1 1d       	adc	r31, r1
    16ce:	20 81       	ld	r18, Z
    16d0:	92 0f       	add	r25, r18
    16d2:	8f 5f       	subi	r24, 0xFF	; 255
    16d4:	88 30       	cpi	r24, 0x08	; 8
    16d6:	a8 f3       	brcs	.-22     	; 0x16c2 <Send_To_Server_1+0x44>
	SerialData[cnt++] = ChkSum;									// 8
    16d8:	99 87       	std	Y+9, r25	; 0x09
	SerialData[cnt++] = ETX_Iontec;						// ETX_Iontec : 0xF1	// 9
    16da:	81 ef       	ldi	r24, 0xF1	; 241
    16dc:	8a 87       	std	Y+10, r24	; 0x0a
//-------------------------------------------------------------------------------------------------
//		Serial Protocol End
//-------------------------------------------------------------------------------------------------
	for(uint8_t j = 0; j < cnt; j++) {USART3_Write(SerialData[j]);}		// SerialData ╝÷╕╕┼φ ╝█╜┼
    16de:	10 e0       	ldi	r17, 0x00	; 0
    16e0:	0a c0       	rjmp	.+20     	; 0x16f6 <Send_To_Server_1+0x78>
    16e2:	e1 e0       	ldi	r30, 0x01	; 1
    16e4:	f0 e0       	ldi	r31, 0x00	; 0
    16e6:	ec 0f       	add	r30, r28
    16e8:	fd 1f       	adc	r31, r29
    16ea:	e1 0f       	add	r30, r17
    16ec:	f1 1d       	adc	r31, r1
    16ee:	80 81       	ld	r24, Z
    16f0:	0e 94 09 36 	call	0x6c12	; 0x6c12 <USART3_Write>
    16f4:	1f 5f       	subi	r17, 0xFF	; 255
    16f6:	1a 30       	cpi	r17, 0x0A	; 10
    16f8:	a0 f3       	brcs	.-24     	; 0x16e2 <Send_To_Server_1+0x64>
}
    16fa:	2a 96       	adiw	r28, 0x0a	; 10
    16fc:	cd bf       	out	0x3d, r28	; 61
    16fe:	de bf       	out	0x3e, r29	; 62
    1700:	df 91       	pop	r29
    1702:	cf 91       	pop	r28
    1704:	1f 91       	pop	r17
    1706:	08 95       	ret

00001708 <Time_Check>:
}

//=================================================================================================
void Time_Check(void)								// ╜├░μ ├╝┼σ
{
	if(Timer.RTC_Timer >= 1000)						// 5mSec X 1000 = 5Sec └╠╗≤└╠ ╡╟╕ώ ┴°└╘
    1708:	80 91 60 42 	lds	r24, 0x4260	; 0x804260 <Timer+0x3>
    170c:	90 91 61 42 	lds	r25, 0x4261	; 0x804261 <Timer+0x4>
    1710:	88 3e       	cpi	r24, 0xE8	; 232
    1712:	93 40       	sbci	r25, 0x03	; 3
    1714:	98 f1       	brcs	.+102    	; 0x177c <Time_Check+0x74>
	{
		Timer.RTC_Timer = 0;						// RTC_Timer ├╩▒έ╚φ (┼╕└╠╕╙1 ┐κ╝φ 5mSec ╕╢┤┘ ┴Ϋ░κ)
    1716:	10 92 60 42 	sts	0x4260, r1	; 0x804260 <Timer+0x3>
    171a:	10 92 61 42 	sts	0x4261, r1	; 0x804261 <Timer+0x4>
		RTC_Time_Read();						// RTC┐κ╝φ ╜├░μ └╨╛Ό ┐└▒έ
    171e:	0e 94 1d 32 	call	0x643a	; 0x643a <RTC_Time_Read>

		if(RTC_T.OLD_D != RTC_T.Date)					// │ψ┬ξ Data ░κ ┤┘╕μ╕ώ
    1722:	eb e6       	ldi	r30, 0x6B	; 107
    1724:	f2 e4       	ldi	r31, 0x42	; 66
    1726:	87 81       	ldd	r24, Z+7	; 0x07
    1728:	64 81       	ldd	r22, Z+4	; 0x04
    172a:	86 17       	cp	r24, r22
    172c:	39 f1       	breq	.+78     	; 0x177c <Time_Check+0x74>
		{
			RTC_T.OLD_D = RTC_T.Date;					// ╟÷┴ο │ψ┬ξ └·└ί
    172e:	60 93 72 42 	sts	0x4272, r22	; 0x804272 <RTC_T+0x7>
			ee_write_byte (OLD_Date_Addr, RTC_T.OLD_D);		// │ψ┬ξ ╕ο EEPROM ┐κ └·└ί
    1732:	83 e0       	ldi	r24, 0x03	; 3
    1734:	90 e0       	ldi	r25, 0x00	; 0
    1736:	0e 94 6c 13 	call	0x26d8	; 0x26d8 <ee_write_byte>

			memset(Data_1, 0, 40);					// ├°┴ν ╣τ░╘ Data  1 Clear
    173a:	88 e2       	ldi	r24, 0x28	; 40
    173c:	ee ee       	ldi	r30, 0xEE	; 238
    173e:	f3 e4       	ldi	r31, 0x43	; 67
    1740:	df 01       	movw	r26, r30
    1742:	28 2f       	mov	r18, r24
    1744:	1d 92       	st	X+, r1
    1746:	2a 95       	dec	r18
    1748:	e9 f7       	brne	.-6      	; 0x1744 <Time_Check+0x3c>
			CELL.Count_1 = 0;					// ├°┴ν ╣τ░╘ Count 1 Clear
    174a:	10 92 51 42 	sts	0x4251, r1	; 0x804251 <CELL+0x40>
    174e:	10 92 52 42 	sts	0x4252, r1	; 0x804252 <CELL+0x41>
			memset(Data_2, 0, 40);					// ├°┴ν ╣τ░╘ Data  2 Clear
    1752:	e1 eb       	ldi	r30, 0xB1	; 177
    1754:	f2 e4       	ldi	r31, 0x42	; 66
    1756:	df 01       	movw	r26, r30
    1758:	28 2f       	mov	r18, r24
    175a:	1d 92       	st	X+, r1
    175c:	2a 95       	dec	r18
    175e:	e9 f7       	brne	.-6      	; 0x175a <Time_Check+0x52>
			CELL.Count_2 = 0;					// ├°┴ν ╣τ░╘ Count 2 Clear
    1760:	10 92 53 42 	sts	0x4253, r1	; 0x804253 <CELL+0x42>
    1764:	10 92 54 42 	sts	0x4254, r1	; 0x804254 <CELL+0x43>
			memset(Data_3, 0, 40);					// ├°┴ν ╣τ░╘ Data  3 Clear
    1768:	e9 ea       	ldi	r30, 0xA9	; 169
    176a:	f1 e4       	ldi	r31, 0x41	; 65
    176c:	df 01       	movw	r26, r30
    176e:	1d 92       	st	X+, r1
    1770:	8a 95       	dec	r24
    1772:	e9 f7       	brne	.-6      	; 0x176e <Time_Check+0x66>
			CELL.Count_3 = 0;					// ├°┴ν ╣τ░╘ Count 3 Clear
    1774:	10 92 55 42 	sts	0x4255, r1	; 0x804255 <CELL+0x44>
    1778:	10 92 56 42 	sts	0x4256, r1	; 0x804256 <CELL+0x45>
    177c:	08 95       	ret

0000177e <Proportion_Set>:
	}
}

//=================================================================================================
void Proportion_Set(void)							// ╖╬╡ί╝┐ ║±└▓ ╝│┴ν ╣╫ ├╩▒έ╚φ
{
    177e:	cf 92       	push	r12
    1780:	df 92       	push	r13
    1782:	ef 92       	push	r14
    1784:	ff 92       	push	r15
    1786:	cf 93       	push	r28
    1788:	df 93       	push	r29
	CELL.Proportion_1 = (Cell_RO_1 / 10000000 / 4 * 128 / 0.5 * 8388608 / (Cell_Capa_1 * 1000)) / Cell_CNT_1;
    178a:	20 e8       	ldi	r18, 0x80	; 128
    178c:	36 e9       	ldi	r19, 0x96	; 150
    178e:	48 e1       	ldi	r20, 0x18	; 24
    1790:	5b e4       	ldi	r21, 0x4B	; 75
    1792:	60 91 d1 41 	lds	r22, 0x41D1	; 0x8041d1 <Cell_RO_1>
    1796:	70 91 d2 41 	lds	r23, 0x41D2	; 0x8041d2 <Cell_RO_1+0x1>
    179a:	80 91 d3 41 	lds	r24, 0x41D3	; 0x8041d3 <Cell_RO_1+0x2>
    179e:	90 91 d4 41 	lds	r25, 0x41D4	; 0x8041d4 <Cell_RO_1+0x3>
    17a2:	0e 94 4f 3e 	call	0x7c9e	; 0x7c9e <__divsf3>
    17a6:	20 e0       	ldi	r18, 0x00	; 0
    17a8:	30 e0       	ldi	r19, 0x00	; 0
    17aa:	40 e8       	ldi	r20, 0x80	; 128
    17ac:	5e e3       	ldi	r21, 0x3E	; 62
    17ae:	0e 94 ec 3f 	call	0x7fd8	; 0x7fd8 <__mulsf3>
    17b2:	20 e0       	ldi	r18, 0x00	; 0
    17b4:	30 e0       	ldi	r19, 0x00	; 0
    17b6:	40 e0       	ldi	r20, 0x00	; 0
    17b8:	53 e4       	ldi	r21, 0x43	; 67
    17ba:	0e 94 ec 3f 	call	0x7fd8	; 0x7fd8 <__mulsf3>
    17be:	9b 01       	movw	r18, r22
    17c0:	ac 01       	movw	r20, r24
    17c2:	0e 94 de 3d 	call	0x7bbc	; 0x7bbc <__addsf3>
    17c6:	20 e0       	ldi	r18, 0x00	; 0
    17c8:	30 e0       	ldi	r19, 0x00	; 0
    17ca:	40 e0       	ldi	r20, 0x00	; 0
    17cc:	5b e4       	ldi	r21, 0x4B	; 75
    17ce:	0e 94 ec 3f 	call	0x7fd8	; 0x7fd8 <__mulsf3>
    17d2:	6b 01       	movw	r12, r22
    17d4:	7c 01       	movw	r14, r24
    17d6:	20 91 8b 42 	lds	r18, 0x428B	; 0x80428b <Cell_Capa_1>
    17da:	30 91 8c 42 	lds	r19, 0x428C	; 0x80428c <Cell_Capa_1+0x1>
    17de:	40 91 8d 42 	lds	r20, 0x428D	; 0x80428d <Cell_Capa_1+0x2>
    17e2:	50 91 8e 42 	lds	r21, 0x428E	; 0x80428e <Cell_Capa_1+0x3>
    17e6:	a8 ee       	ldi	r26, 0xE8	; 232
    17e8:	b3 e0       	ldi	r27, 0x03	; 3
    17ea:	0e 94 52 44 	call	0x88a4	; 0x88a4 <__muluhisi3>
    17ee:	0e 94 f7 3e 	call	0x7dee	; 0x7dee <__floatunsisf>
    17f2:	9b 01       	movw	r18, r22
    17f4:	ac 01       	movw	r20, r24
    17f6:	c7 01       	movw	r24, r14
    17f8:	b6 01       	movw	r22, r12
    17fa:	0e 94 4f 3e 	call	0x7c9e	; 0x7c9e <__divsf3>
    17fe:	6b 01       	movw	r12, r22
    1800:	7c 01       	movw	r14, r24
    1802:	60 91 e0 41 	lds	r22, 0x41E0	; 0x8041e0 <Cell_CNT_1>
    1806:	70 e0       	ldi	r23, 0x00	; 0
    1808:	80 e0       	ldi	r24, 0x00	; 0
    180a:	90 e0       	ldi	r25, 0x00	; 0
    180c:	0e 94 f9 3e 	call	0x7df2	; 0x7df2 <__floatsisf>
    1810:	9b 01       	movw	r18, r22
    1812:	ac 01       	movw	r20, r24
    1814:	c7 01       	movw	r24, r14
    1816:	b6 01       	movw	r22, r12
    1818:	0e 94 4f 3e 	call	0x7c9e	; 0x7c9e <__divsf3>
    181c:	c1 e1       	ldi	r28, 0x11	; 17
    181e:	d2 e4       	ldi	r29, 0x42	; 66
    1820:	68 83       	st	Y, r22
    1822:	79 83       	std	Y+1, r23	; 0x01
    1824:	8a 83       	std	Y+2, r24	; 0x02
    1826:	9b 83       	std	Y+3, r25	; 0x03
	CELL.Proportion_2 = (Cell_RO_2 / 10000000 / 4 * 128 / 0.5 * 8388608 / (Cell_Capa_2 * 1000)) / Cell_CNT_2;
    1828:	20 e8       	ldi	r18, 0x80	; 128
    182a:	36 e9       	ldi	r19, 0x96	; 150
    182c:	48 e1       	ldi	r20, 0x18	; 24
    182e:	5b e4       	ldi	r21, 0x4B	; 75
    1830:	60 91 a0 41 	lds	r22, 0x41A0	; 0x8041a0 <Cell_RO_2>
    1834:	70 91 a1 41 	lds	r23, 0x41A1	; 0x8041a1 <Cell_RO_2+0x1>
    1838:	80 91 a2 41 	lds	r24, 0x41A2	; 0x8041a2 <Cell_RO_2+0x2>
    183c:	90 91 a3 41 	lds	r25, 0x41A3	; 0x8041a3 <Cell_RO_2+0x3>
    1840:	0e 94 4f 3e 	call	0x7c9e	; 0x7c9e <__divsf3>
    1844:	20 e0       	ldi	r18, 0x00	; 0
    1846:	30 e0       	ldi	r19, 0x00	; 0
    1848:	40 e8       	ldi	r20, 0x80	; 128
    184a:	5e e3       	ldi	r21, 0x3E	; 62
    184c:	0e 94 ec 3f 	call	0x7fd8	; 0x7fd8 <__mulsf3>
    1850:	20 e0       	ldi	r18, 0x00	; 0
    1852:	30 e0       	ldi	r19, 0x00	; 0
    1854:	40 e0       	ldi	r20, 0x00	; 0
    1856:	53 e4       	ldi	r21, 0x43	; 67
    1858:	0e 94 ec 3f 	call	0x7fd8	; 0x7fd8 <__mulsf3>
    185c:	9b 01       	movw	r18, r22
    185e:	ac 01       	movw	r20, r24
    1860:	0e 94 de 3d 	call	0x7bbc	; 0x7bbc <__addsf3>
    1864:	20 e0       	ldi	r18, 0x00	; 0
    1866:	30 e0       	ldi	r19, 0x00	; 0
    1868:	40 e0       	ldi	r20, 0x00	; 0
    186a:	5b e4       	ldi	r21, 0x4B	; 75
    186c:	0e 94 ec 3f 	call	0x7fd8	; 0x7fd8 <__mulsf3>
    1870:	6b 01       	movw	r12, r22
    1872:	7c 01       	movw	r14, r24
    1874:	20 91 99 42 	lds	r18, 0x4299	; 0x804299 <Cell_Capa_2>
    1878:	30 91 9a 42 	lds	r19, 0x429A	; 0x80429a <Cell_Capa_2+0x1>
    187c:	40 91 9b 42 	lds	r20, 0x429B	; 0x80429b <Cell_Capa_2+0x2>
    1880:	50 91 9c 42 	lds	r21, 0x429C	; 0x80429c <Cell_Capa_2+0x3>
    1884:	a8 ee       	ldi	r26, 0xE8	; 232
    1886:	b3 e0       	ldi	r27, 0x03	; 3
    1888:	0e 94 52 44 	call	0x88a4	; 0x88a4 <__muluhisi3>
    188c:	0e 94 f7 3e 	call	0x7dee	; 0x7dee <__floatunsisf>
    1890:	9b 01       	movw	r18, r22
    1892:	ac 01       	movw	r20, r24
    1894:	c7 01       	movw	r24, r14
    1896:	b6 01       	movw	r22, r12
    1898:	0e 94 4f 3e 	call	0x7c9e	; 0x7c9e <__divsf3>
    189c:	6b 01       	movw	r12, r22
    189e:	7c 01       	movw	r14, r24
    18a0:	60 91 dd 42 	lds	r22, 0x42DD	; 0x8042dd <Cell_CNT_2>
    18a4:	70 e0       	ldi	r23, 0x00	; 0
    18a6:	80 e0       	ldi	r24, 0x00	; 0
    18a8:	90 e0       	ldi	r25, 0x00	; 0
    18aa:	0e 94 f9 3e 	call	0x7df2	; 0x7df2 <__floatsisf>
    18ae:	9b 01       	movw	r18, r22
    18b0:	ac 01       	movw	r20, r24
    18b2:	c7 01       	movw	r24, r14
    18b4:	b6 01       	movw	r22, r12
    18b6:	0e 94 4f 3e 	call	0x7c9e	; 0x7c9e <__divsf3>
    18ba:	6c 83       	std	Y+4, r22	; 0x04
    18bc:	7d 83       	std	Y+5, r23	; 0x05
    18be:	8e 83       	std	Y+6, r24	; 0x06
    18c0:	9f 83       	std	Y+7, r25	; 0x07
	CELL.Proportion_3 = (Cell_RO_3 / 10000000 / 4 * 128 / 0.5 * 8388608 / (Cell_Capa_3 * 1000)) / Cell_CNT_3;
    18c2:	20 e8       	ldi	r18, 0x80	; 128
    18c4:	36 e9       	ldi	r19, 0x96	; 150
    18c6:	48 e1       	ldi	r20, 0x18	; 24
    18c8:	5b e4       	ldi	r21, 0x4B	; 75
    18ca:	60 91 db 41 	lds	r22, 0x41DB	; 0x8041db <Cell_RO_3>
    18ce:	70 91 dc 41 	lds	r23, 0x41DC	; 0x8041dc <Cell_RO_3+0x1>
    18d2:	80 91 dd 41 	lds	r24, 0x41DD	; 0x8041dd <Cell_RO_3+0x2>
    18d6:	90 91 de 41 	lds	r25, 0x41DE	; 0x8041de <Cell_RO_3+0x3>
    18da:	0e 94 4f 3e 	call	0x7c9e	; 0x7c9e <__divsf3>
    18de:	20 e0       	ldi	r18, 0x00	; 0
    18e0:	30 e0       	ldi	r19, 0x00	; 0
    18e2:	40 e8       	ldi	r20, 0x80	; 128
    18e4:	5e e3       	ldi	r21, 0x3E	; 62
    18e6:	0e 94 ec 3f 	call	0x7fd8	; 0x7fd8 <__mulsf3>
    18ea:	20 e0       	ldi	r18, 0x00	; 0
    18ec:	30 e0       	ldi	r19, 0x00	; 0
    18ee:	40 e0       	ldi	r20, 0x00	; 0
    18f0:	53 e4       	ldi	r21, 0x43	; 67
    18f2:	0e 94 ec 3f 	call	0x7fd8	; 0x7fd8 <__mulsf3>
    18f6:	9b 01       	movw	r18, r22
    18f8:	ac 01       	movw	r20, r24
    18fa:	0e 94 de 3d 	call	0x7bbc	; 0x7bbc <__addsf3>
    18fe:	20 e0       	ldi	r18, 0x00	; 0
    1900:	30 e0       	ldi	r19, 0x00	; 0
    1902:	40 e0       	ldi	r20, 0x00	; 0
    1904:	5b e4       	ldi	r21, 0x4B	; 75
    1906:	0e 94 ec 3f 	call	0x7fd8	; 0x7fd8 <__mulsf3>
    190a:	6b 01       	movw	r12, r22
    190c:	7c 01       	movw	r14, r24
    190e:	20 91 87 42 	lds	r18, 0x4287	; 0x804287 <Cell_Capa_3>
    1912:	30 91 88 42 	lds	r19, 0x4288	; 0x804288 <Cell_Capa_3+0x1>
    1916:	40 91 89 42 	lds	r20, 0x4289	; 0x804289 <Cell_Capa_3+0x2>
    191a:	50 91 8a 42 	lds	r21, 0x428A	; 0x80428a <Cell_Capa_3+0x3>
    191e:	a8 ee       	ldi	r26, 0xE8	; 232
    1920:	b3 e0       	ldi	r27, 0x03	; 3
    1922:	0e 94 52 44 	call	0x88a4	; 0x88a4 <__muluhisi3>
    1926:	0e 94 f7 3e 	call	0x7dee	; 0x7dee <__floatunsisf>
    192a:	9b 01       	movw	r18, r22
    192c:	ac 01       	movw	r20, r24
    192e:	c7 01       	movw	r24, r14
    1930:	b6 01       	movw	r22, r12
    1932:	0e 94 4f 3e 	call	0x7c9e	; 0x7c9e <__divsf3>
    1936:	6b 01       	movw	r12, r22
    1938:	7c 01       	movw	r14, r24
    193a:	60 91 a3 42 	lds	r22, 0x42A3	; 0x8042a3 <Cell_CNT_3>
    193e:	70 e0       	ldi	r23, 0x00	; 0
    1940:	80 e0       	ldi	r24, 0x00	; 0
    1942:	90 e0       	ldi	r25, 0x00	; 0
    1944:	0e 94 f9 3e 	call	0x7df2	; 0x7df2 <__floatsisf>
    1948:	9b 01       	movw	r18, r22
    194a:	ac 01       	movw	r20, r24
    194c:	c7 01       	movw	r24, r14
    194e:	b6 01       	movw	r22, r12
    1950:	0e 94 4f 3e 	call	0x7c9e	; 0x7c9e <__divsf3>
    1954:	68 87       	std	Y+8, r22	; 0x08
    1956:	79 87       	std	Y+9, r23	; 0x09
    1958:	8a 87       	std	Y+10, r24	; 0x0a
    195a:	9b 87       	std	Y+11, r25	; 0x0b
}
    195c:	df 91       	pop	r29
    195e:	cf 91       	pop	r28
    1960:	ff 90       	pop	r15
    1962:	ef 90       	pop	r14
    1964:	df 90       	pop	r13
    1966:	cf 90       	pop	r12
    1968:	08 95       	ret

0000196a <Var_Init>:

//=================================================================================================
void Var_Init(void)								// ║ψ╝÷ ╣╫ ╖╬╡ί╝┐ ├╩▒έ╚φ
{
    196a:	cf 93       	push	r28
	FND_Value_Data(0, 2, 10);						// FND 0 ~ 2 FND_MINUS
    196c:	4a e0       	ldi	r20, 0x0A	; 10
    196e:	62 e0       	ldi	r22, 0x02	; 2
    1970:	80 e0       	ldi	r24, 0x00	; 0
    1972:	0e 94 d9 05 	call	0xbb2	; 0xbb2 <FND_Value_Data>

	Read_eeprom();								// EEPROM Data └╨▒έ
    1976:	0e 94 94 06 	call	0xd28	; 0xd28 <Read_eeprom>
    197a:	8f ef       	ldi	r24, 0xFF	; 255
    197c:	9f e8       	ldi	r25, 0x8F	; 143
    197e:	01 97       	sbiw	r24, 0x01	; 1
    1980:	f1 f7       	brne	.-4      	; 0x197e <Var_Init+0x14>
    1982:	00 c0       	rjmp	.+0      	; 0x1984 <Var_Init+0x1a>
    1984:	00 00       	nop
	_delay_ms(10);

	Proportion_Set();							// ╖╬╡ί╝┐ ║±└▓ ╝│┴ν ╣╫ ├╩▒έ╚φ
    1986:	0e 94 bf 0b 	call	0x177e	; 0x177e <Proportion_Set>
    198a:	8f ef       	ldi	r24, 0xFF	; 255
    198c:	9f e8       	ldi	r25, 0x8F	; 143
    198e:	01 97       	sbiw	r24, 0x01	; 1
    1990:	f1 f7       	brne	.-4      	; 0x198e <Var_Init+0x24>
    1992:	00 c0       	rjmp	.+0      	; 0x1994 <Var_Init+0x2a>
    1994:	00 00       	nop
	_delay_ms(10);

	for(uint8_t i = 0; i < 2; i++)						// ╖╬╡ί╝┐ 0 ░ς ├μ▒έ : 2╚╕ ╣▌║╣(╞λ┤┬ ░ς┐κ └╟╟╤ Err ╣ό┴÷)
    1996:	c0 e0       	ldi	r28, 0x00	; 0
    1998:	0f c0       	rjmp	.+30     	; 0x19b8 <Var_Init+0x4e>
	{
		Cell_Zero_Set(1);
    199a:	81 e0       	ldi	r24, 0x01	; 1
    199c:	0e 94 0c 1c 	call	0x3818	; 0x3818 <Cell_Zero_Set>
		Cell_Zero_Set(2);
    19a0:	82 e0       	ldi	r24, 0x02	; 2
    19a2:	0e 94 0c 1c 	call	0x3818	; 0x3818 <Cell_Zero_Set>
		Cell_Zero_Set(3);
    19a6:	83 e0       	ldi	r24, 0x03	; 3
    19a8:	0e 94 0c 1c 	call	0x3818	; 0x3818 <Cell_Zero_Set>
    19ac:	86 e6       	ldi	r24, 0x66	; 102
    19ae:	9e e0       	ldi	r25, 0x0E	; 14
    19b0:	01 97       	sbiw	r24, 0x01	; 1
    19b2:	f1 f7       	brne	.-4      	; 0x19b0 <Var_Init+0x46>
    19b4:	00 00       	nop
	_delay_ms(10);

	Proportion_Set();							// ╖╬╡ί╝┐ ║±└▓ ╝│┴ν ╣╫ ├╩▒έ╚φ
	_delay_ms(10);

	for(uint8_t i = 0; i < 2; i++)						// ╖╬╡ί╝┐ 0 ░ς ├μ▒έ : 2╚╕ ╣▌║╣(╞λ┤┬ ░ς┐κ └╟╟╤ Err ╣ό┴÷)
    19b6:	cf 5f       	subi	r28, 0xFF	; 255
    19b8:	c2 30       	cpi	r28, 0x02	; 2
    19ba:	78 f3       	brcs	.-34     	; 0x199a <Var_Init+0x30>
		Cell_Zero_Set(1);
		Cell_Zero_Set(2);
		Cell_Zero_Set(3);
		_delay_ms(1);
	}
	Alarm();								// ╛╦╢≈(║±╟┴ 3╣°)
    19bc:	0e 94 c0 08 	call	0x1180	; 0x1180 <Alarm>

	CELL.Zero_Buff_1 = 0;							// 1╣° ├°┴ν ░ς Zero Buff ├╩▒έ╚φ
    19c0:	10 92 57 42 	sts	0x4257, r1	; 0x804257 <CELL+0x46>
	CELL.Zero_Buff_2 = 0;							// 2╣° ├°┴ν ░ς Zero Buff ├╩▒έ╚φ
    19c4:	10 92 58 42 	sts	0x4258, r1	; 0x804258 <CELL+0x47>
	CELL.Zero_Buff_3 = 0;							// 3╣° ├°┴ν ░ς Zero Buff ├╩▒έ╚φ
    19c8:	10 92 59 42 	sts	0x4259, r1	; 0x804259 <CELL+0x48>

	SET.Menu = 0;								// Menu   ╕Ώ╡ί ├╩▒έ╚φ
    19cc:	e5 e0       	ldi	r30, 0x05	; 5
    19ce:	f2 e4       	ldi	r31, 0x42	; 66
    19d0:	10 82       	st	Z, r1
	SET.Select = 0;								// Select ╕Ώ╡ί ├╩▒έ╚φ
    19d2:	11 82       	std	Z+1, r1	; 0x01
	SET.Blink = 0;								// └┌╕┤╝÷ ▒Ϊ╣┌└╙ ├╩▒έ╚φ
    19d4:	12 82       	std	Z+2, r1	; 0x02
	KEY.Count = 0;								// Key ░κ ┤φ╕░╚╜╝÷ ├╩▒έ╚φ
    19d6:	10 92 80 42 	sts	0x4280, r1	; 0x804280 <KEY>
}
    19da:	cf 91       	pop	r28
    19dc:	08 95       	ret

000019de <wdt_reset>:
#endif

//=================================================================================================
void wdt_reset(void)								// Reset WDT
{
	asm("WDR");								// Reset WDT
    19de:	a8 95       	wdr
    19e0:	08 95       	ret

000019e2 <Seting_Mode>:
	Beep(15);								// 1mSec X 15 = 15mSec
}

//=================================================================================================
void Seting_Mode(void)								// ╝┬╞├╕Ώ╡ί
{
    19e2:	cf 93       	push	r28
	uint8_t Count = 1;							// Count ║ψ╝÷ ├╩▒έ╚φ
	SET.Select = 0;								// Select ╣÷╞░ ├╩▒έ╚φ
    19e4:	10 92 06 42 	sts	0x4206, r1	; 0x804206 <SET+0x1>

	FND_Value_Data(0, 2, 12);						// FND 0 ~ 2 FND_OFF
    19e8:	4c e0       	ldi	r20, 0x0C	; 12
    19ea:	62 e0       	ldi	r22, 0x02	; 2
    19ec:	80 e0       	ldi	r24, 0x00	; 0
    19ee:	0e 94 d9 05 	call	0xbb2	; 0xbb2 <FND_Value_Data>
}

//=================================================================================================
void Seting_Mode(void)								// ╝┬╞├╕Ώ╡ί
{
	uint8_t Count = 1;							// Count ║ψ╝÷ ├╩▒έ╚φ
    19f2:	c1 e0       	ldi	r28, 0x01	; 1
	SET.Select = 0;								// Select ╣÷╞░ ├╩▒έ╚φ

	FND_Value_Data(0, 2, 12);						// FND 0 ~ 2 FND_OFF

	while(SET.Menu)								// Seting_Mode └╠╕ώ ╣τ╟╤ ╣▌║╣
    19f4:	91 c0       	rjmp	.+290    	; 0x1b18 <Seting_Mode+0x136>
	{
		if(KEY.Buff)							// Key └╘╖┬└╠ └╓└╕╕ώ
    19f6:	80 91 81 42 	lds	r24, 0x4281	; 0x804281 <KEY+0x1>
    19fa:	88 23       	and	r24, r24
    19fc:	99 f0       	breq	.+38     	; 0x1a24 <Seting_Mode+0x42>
		{
			if     (KEY.Key == 1 && Count < 5) {Count++; KEY.Key = 0;}	// ╛≈  ╣÷╞░ └╠╕ώ Count ┴Ϋ░κ
    19fe:	80 91 82 42 	lds	r24, 0x4282	; 0x804282 <KEY+0x2>
    1a02:	81 30       	cpi	r24, 0x01	; 1
    1a04:	31 f4       	brne	.+12     	; 0x1a12 <Seting_Mode+0x30>
    1a06:	c5 30       	cpi	r28, 0x05	; 5
    1a08:	20 f4       	brcc	.+8      	; 0x1a12 <Seting_Mode+0x30>
    1a0a:	cf 5f       	subi	r28, 0xFF	; 255
    1a0c:	10 92 82 42 	sts	0x4282, r1	; 0x804282 <KEY+0x2>
    1a10:	09 c0       	rjmp	.+18     	; 0x1a24 <Seting_Mode+0x42>
			else if(KEY.Key == 3 && Count > 0) {Count--; KEY.Key = 0;}	// ┤┘┐Ό╣÷╞░ └╠╕ώ Count ░ρ╝╥
    1a12:	80 91 82 42 	lds	r24, 0x4282	; 0x804282 <KEY+0x2>
    1a16:	83 30       	cpi	r24, 0x03	; 3
    1a18:	29 f4       	brne	.+10     	; 0x1a24 <Seting_Mode+0x42>
    1a1a:	cc 23       	and	r28, r28
    1a1c:	19 f0       	breq	.+6      	; 0x1a24 <Seting_Mode+0x42>
    1a1e:	c1 50       	subi	r28, 0x01	; 1
    1a20:	10 92 82 42 	sts	0x4282, r1	; 0x804282 <KEY+0x2>
		}
		DIGIT[2][3] = FND_OFF;
    1a24:	ef e6       	ldi	r30, 0x6F	; 111
    1a26:	f1 e4       	ldi	r31, 0x41	; 65
    1a28:	13 86       	std	Z+11, r1	; 0x0b
		DIGIT[2][2] = FND_OFF;
    1a2a:	12 86       	std	Z+10, r1	; 0x0a
		DIGIT[2][1] = FND_OFF;
    1a2c:	11 86       	std	Z+9, r1	; 0x09
		DIGIT[2][0] = fnd_tbl[Count];					// FND 2.0 ┐κ Count ╟ξ╜├
    1a2e:	ac 2f       	mov	r26, r28
    1a30:	b0 e0       	ldi	r27, 0x00	; 0
    1a32:	a5 5c       	subi	r26, 0xC5	; 197
    1a34:	be 4b       	sbci	r27, 0xBE	; 190
    1a36:	8c 91       	ld	r24, X
    1a38:	80 87       	std	Z+8, r24	; 0x08
//-------------------------------------------------------------------------------------------------
		switch(Count)							// Count
    1a3a:	c2 30       	cpi	r28, 0x02	; 2
    1a3c:	31 f1       	breq	.+76     	; 0x1a8a <Seting_Mode+0xa8>
    1a3e:	30 f4       	brcc	.+12     	; 0x1a4c <Seting_Mode+0x6a>
    1a40:	cc 23       	and	r28, r28
    1a42:	09 f4       	brne	.+2      	; 0x1a46 <Seting_Mode+0x64>
    1a44:	66 c0       	rjmp	.+204    	; 0x1b12 <Seting_Mode+0x130>
    1a46:	c1 30       	cpi	r28, 0x01	; 1
    1a48:	49 f0       	breq	.+18     	; 0x1a5c <Seting_Mode+0x7a>
    1a4a:	64 c0       	rjmp	.+200    	; 0x1b14 <Seting_Mode+0x132>
    1a4c:	c4 30       	cpi	r28, 0x04	; 4
    1a4e:	09 f4       	brne	.+2      	; 0x1a52 <Seting_Mode+0x70>
    1a50:	48 c0       	rjmp	.+144    	; 0x1ae2 <Seting_Mode+0x100>
    1a52:	88 f1       	brcs	.+98     	; 0x1ab6 <Seting_Mode+0xd4>
    1a54:	c5 30       	cpi	r28, 0x05	; 5
    1a56:	09 f4       	brne	.+2      	; 0x1a5a <Seting_Mode+0x78>
    1a58:	5a c0       	rjmp	.+180    	; 0x1b0e <Seting_Mode+0x12c>
    1a5a:	5c c0       	rjmp	.+184    	; 0x1b14 <Seting_Mode+0x132>
			case 0:							// Count = 0 └╠╕ώ
				Count = 4;					// ╣▌║╣└╗ └π╟╪ Count╕ο ├╓░Ί╖╬ ┴Ϋ░κ ╜├┼┤	
			break;

			case 1:							// Count = 1 └╠╕ώ
				DIGIT[0][3] = FND_c;				// cell ╟ξ╜├
    1a5c:	ef e6       	ldi	r30, 0x6F	; 111
    1a5e:	f1 e4       	ldi	r31, 0x41	; 65
    1a60:	8a e1       	ldi	r24, 0x1A	; 26
    1a62:	83 83       	std	Z+3, r24	; 0x03
				DIGIT[0][2] = FND_e;
    1a64:	8e ed       	ldi	r24, 0xDE	; 222
    1a66:	82 83       	std	Z+2, r24	; 0x02
				DIGIT[0][1] = FND_l;
    1a68:	90 e6       	ldi	r25, 0x60	; 96
    1a6a:	91 83       	std	Z+1, r25	; 0x01
				DIGIT[0][0] = FND_l;
    1a6c:	90 83       	st	Z, r25

				DIGIT[1][3] = FND_OFF;				// Set ╟ξ╜├
    1a6e:	17 82       	std	Z+7, r1	; 0x07
				DIGIT[1][2] = FND_S;
    1a70:	96 eb       	ldi	r25, 0xB6	; 182
    1a72:	96 83       	std	Z+6, r25	; 0x06
				DIGIT[1][1] = FND_e;
    1a74:	85 83       	std	Z+5, r24	; 0x05
				DIGIT[1][0] = FND_t;
    1a76:	8e e1       	ldi	r24, 0x1E	; 30
    1a78:	84 83       	std	Z+4, r24	; 0x04

				if(SET.Select) {Loadcell_Set();}		// ╖╬╡ί╝┐ ╝│┴ν ╕Ώ╡ί
    1a7a:	80 91 06 42 	lds	r24, 0x4206	; 0x804206 <SET+0x1>
    1a7e:	88 23       	and	r24, r24
    1a80:	09 f4       	brne	.+2      	; 0x1a84 <Seting_Mode+0xa2>
    1a82:	48 c0       	rjmp	.+144    	; 0x1b14 <Seting_Mode+0x132>
    1a84:	0e 94 87 31 	call	0x630e	; 0x630e <Loadcell_Set>
    1a88:	45 c0       	rjmp	.+138    	; 0x1b14 <Seting_Mode+0x132>
			break;

			case 2:							// Count = 2 └╠╕ώ
				DIGIT[0][3] = FND_OFF;				// gat ╟ξ╜├
    1a8a:	ef e6       	ldi	r30, 0x6F	; 111
    1a8c:	f1 e4       	ldi	r31, 0x41	; 65
    1a8e:	13 82       	std	Z+3, r1	; 0x03
				DIGIT[0][2] = FND_g;
    1a90:	86 ef       	ldi	r24, 0xF6	; 246
    1a92:	82 83       	std	Z+2, r24	; 0x02
				DIGIT[0][1] = FND_a;
    1a94:	8a ef       	ldi	r24, 0xFA	; 250
    1a96:	81 83       	std	Z+1, r24	; 0x01
				DIGIT[0][0] = FND_t;
    1a98:	8e e1       	ldi	r24, 0x1E	; 30
    1a9a:	80 83       	st	Z, r24

				DIGIT[1][3] = FND_OFF;				// Set ╟ξ╜├
    1a9c:	17 82       	std	Z+7, r1	; 0x07
				DIGIT[1][2] = FND_S;
    1a9e:	96 eb       	ldi	r25, 0xB6	; 182
    1aa0:	96 83       	std	Z+6, r25	; 0x06
				DIGIT[1][1] = FND_e;
    1aa2:	9e ed       	ldi	r25, 0xDE	; 222
    1aa4:	95 83       	std	Z+5, r25	; 0x05
				DIGIT[1][0] = FND_t;
    1aa6:	84 83       	std	Z+4, r24	; 0x04

				if(SET.Select) {Gateway_Set();}			// ░╘└╠╞χ ┐■└╠ ╝│┴ν
    1aa8:	80 91 06 42 	lds	r24, 0x4206	; 0x804206 <SET+0x1>
    1aac:	88 23       	and	r24, r24
    1aae:	91 f1       	breq	.+100    	; 0x1b14 <Seting_Mode+0x132>
    1ab0:	0e 94 82 14 	call	0x2904	; 0x2904 <Gateway_Set>
    1ab4:	2f c0       	rjmp	.+94     	; 0x1b14 <Seting_Mode+0x132>
			break;

			case 3:							// Count = 3 └╠╕ώ
				DIGIT[0][3] = FND_OFF;				// Zbe ╟ξ╜├
    1ab6:	ef e6       	ldi	r30, 0x6F	; 111
    1ab8:	f1 e4       	ldi	r31, 0x41	; 65
    1aba:	13 82       	std	Z+3, r1	; 0x03
				DIGIT[0][2] = FND_Z;
    1abc:	8a ed       	ldi	r24, 0xDA	; 218
    1abe:	82 83       	std	Z+2, r24	; 0x02
				DIGIT[0][1] = FND_b;
    1ac0:	8e e3       	ldi	r24, 0x3E	; 62
    1ac2:	81 83       	std	Z+1, r24	; 0x01
				DIGIT[0][0] = FND_e;
    1ac4:	8e ed       	ldi	r24, 0xDE	; 222
    1ac6:	80 83       	st	Z, r24

				DIGIT[1][3] = FND_OFF;				// Set ╟ξ╜├
    1ac8:	17 82       	std	Z+7, r1	; 0x07
				DIGIT[1][2] = FND_S;
    1aca:	96 eb       	ldi	r25, 0xB6	; 182
    1acc:	96 83       	std	Z+6, r25	; 0x06
				DIGIT[1][1] = FND_e;
    1ace:	85 83       	std	Z+5, r24	; 0x05
				DIGIT[1][0] = FND_t;
    1ad0:	8e e1       	ldi	r24, 0x1E	; 30
    1ad2:	84 83       	std	Z+4, r24	; 0x04

				if(SET.Select) {ZigBee_Set();}			// ┴÷▒╫║± ╝│┴ν ╕Ώ╡ί
    1ad4:	80 91 06 42 	lds	r24, 0x4206	; 0x804206 <SET+0x1>
    1ad8:	88 23       	and	r24, r24
    1ada:	e1 f0       	breq	.+56     	; 0x1b14 <Seting_Mode+0x132>
    1adc:	0e 94 7a 3c 	call	0x78f4	; 0x78f4 <ZigBee_Set>
    1ae0:	19 c0       	rjmp	.+50     	; 0x1b14 <Seting_Mode+0x132>
			break;

			case 4:							// Count = 5 └╠╕ώ
				DIGIT[0][3] = FND_OFF;				// rtc ╟ξ╜├
    1ae2:	ef e6       	ldi	r30, 0x6F	; 111
    1ae4:	f1 e4       	ldi	r31, 0x41	; 65
    1ae6:	13 82       	std	Z+3, r1	; 0x03
				DIGIT[0][2] = FND_r;
    1ae8:	8a e0       	ldi	r24, 0x0A	; 10
    1aea:	82 83       	std	Z+2, r24	; 0x02
				DIGIT[0][1] = FND_t;
    1aec:	8e e1       	ldi	r24, 0x1E	; 30
    1aee:	81 83       	std	Z+1, r24	; 0x01
				DIGIT[0][0] = FND_c;
    1af0:	9a e1       	ldi	r25, 0x1A	; 26
    1af2:	90 83       	st	Z, r25

				DIGIT[1][3] = FND_OFF;				// Set ╟ξ╜├
    1af4:	17 82       	std	Z+7, r1	; 0x07
				DIGIT[1][2] = FND_S;
    1af6:	96 eb       	ldi	r25, 0xB6	; 182
    1af8:	96 83       	std	Z+6, r25	; 0x06
				DIGIT[1][1] = FND_e;
    1afa:	9e ed       	ldi	r25, 0xDE	; 222
    1afc:	95 83       	std	Z+5, r25	; 0x05
				DIGIT[1][0] = FND_t;
    1afe:	84 83       	std	Z+4, r24	; 0x04

				if(SET.Select) {RTC_Set();}			// RTC ╝│┴ν ╕Ώ╡ί
    1b00:	80 91 06 42 	lds	r24, 0x4206	; 0x804206 <SET+0x1>
    1b04:	88 23       	and	r24, r24
    1b06:	31 f0       	breq	.+12     	; 0x1b14 <Seting_Mode+0x132>
    1b08:	0e 94 86 32 	call	0x650c	; 0x650c <RTC_Set>
    1b0c:	03 c0       	rjmp	.+6      	; 0x1b14 <Seting_Mode+0x132>
			break;

			case 5:							// Count = 5 └╠╕ώ
				Count = 1;					// ╣▌║╣└╗ └π╟╪ Count╕ο ├╓└·╖╬ ░ρ╝╥ ╜├┼┤
    1b0e:	c1 e0       	ldi	r28, 0x01	; 1
			break;
    1b10:	01 c0       	rjmp	.+2      	; 0x1b14 <Seting_Mode+0x132>
		DIGIT[2][0] = fnd_tbl[Count];					// FND 2.0 ┐κ Count ╟ξ╜├
//-------------------------------------------------------------------------------------------------
		switch(Count)							// Count
		{
			case 0:							// Count = 0 └╠╕ώ
				Count = 4;					// ╣▌║╣└╗ └π╟╪ Count╕ο ├╓░Ί╖╬ ┴Ϋ░κ ╜├┼┤	
    1b12:	c4 e0       	ldi	r28, 0x04	; 4

			case 5:							// Count = 5 └╠╕ώ
				Count = 1;					// ╣▌║╣└╗ └π╟╪ Count╕ο ├╓└·╖╬ ░ρ╝╥ ╜├┼┤
			break;
		}
		wdt_reset();							// ┐÷─κ╡╢ ╕χ╝┬
    1b14:	0e 94 ef 0c 	call	0x19de	; 0x19de <wdt_reset>
	uint8_t Count = 1;							// Count ║ψ╝÷ ├╩▒έ╚φ
	SET.Select = 0;								// Select ╣÷╞░ ├╩▒έ╚φ

	FND_Value_Data(0, 2, 12);						// FND 0 ~ 2 FND_OFF

	while(SET.Menu)								// Seting_Mode └╠╕ώ ╣τ╟╤ ╣▌║╣
    1b18:	80 91 05 42 	lds	r24, 0x4205	; 0x804205 <SET>
    1b1c:	81 11       	cpse	r24, r1
    1b1e:	6b cf       	rjmp	.-298    	; 0x19f6 <Seting_Mode+0x14>
				Count = 1;					// ╣▌║╣└╗ └π╟╪ Count╕ο ├╓└·╖╬ ░ρ╝╥ ╜├┼┤
			break;
		}
		wdt_reset();							// ┐÷─κ╡╢ ╕χ╝┬
	}
	Var_Init();								// ║ψ╝÷ ├╩▒έ╚φ
    1b20:	0e 94 b5 0c 	call	0x196a	; 0x196a <Var_Init>
}
    1b24:	cf 91       	pop	r28
    1b26:	08 95       	ret

00001b28 <Send_To_Server>:

//=================================================================================================
//		PC╖╬ ╡ξ└╠┼═ └ⁿ╝█ (20░│ ├°┴ν├╝┴▀ Data)
//=================================================================================================
void Send_To_Server(uint8_t Number, uint8_t id)					// PC╖╬ ╡ξ└╠┼═ └ⁿ╝█ (20░│ ├°┴ν├╝┴▀ Data)
{
    1b28:	df 92       	push	r13
    1b2a:	ef 92       	push	r14
    1b2c:	ff 92       	push	r15
    1b2e:	0f 93       	push	r16
    1b30:	1f 93       	push	r17
    1b32:	cf 93       	push	r28
    1b34:	df 93       	push	r29
    1b36:	cd b7       	in	r28, 0x3d	; 61
    1b38:	de b7       	in	r29, 0x3e	; 62
    1b3a:	c6 56       	subi	r28, 0x66	; 102
    1b3c:	d1 09       	sbc	r29, r1
    1b3e:	cd bf       	out	0x3d, r28	; 61
    1b40:	de bf       	out	0x3e, r29	; 62
    1b42:	d8 2e       	mov	r13, r24
	uint8_t cnt = 0;							// cnt ║ψ╝÷ ├╩▒έ╚φ
	uint8_t ChkSum = 0;							// ChkSum ║ψ╝÷ ├╩▒έ╚φ
	uint16_t Count= 0;							// Count ║ψ╝÷ ├╩▒έ╚φ
	char SerialData[102] = {};						// SerialData[102] ╣÷╞█ ╝▒╛Ώ
    1b44:	86 e6       	ldi	r24, 0x66	; 102
    1b46:	fe 01       	movw	r30, r28
    1b48:	31 96       	adiw	r30, 0x01	; 1
    1b4a:	df 01       	movw	r26, r30
    1b4c:	98 2f       	mov	r25, r24
    1b4e:	1d 92       	st	X+, r1
    1b50:	9a 95       	dec	r25
    1b52:	e9 f7       	brne	.-6      	; 0x1b4e <Send_To_Server+0x26>
	memset(SerialData, 0x00, sizeof(SerialData));				// ╣÷╞█ ├╩▒έ╚φ
    1b54:	df 01       	movw	r26, r30
    1b56:	1d 92       	st	X+, r1
    1b58:	8a 95       	dec	r24
    1b5a:	e9 f7       	brne	.-6      	; 0x1b56 <Send_To_Server+0x2e>
//-------------------------------------------------------------------------------------------------
//		Serial Protocol Start
//-------------------------------------------------------------------------------------------------
	SerialData[cnt++] = STX_Iontec;						// STX_Iontec : 0xF0	// 0
    1b5c:	80 ef       	ldi	r24, 0xF0	; 240
    1b5e:	89 83       	std	Y+1, r24	; 0x01
	SerialData[cnt++] = CTL2PC;						// ╡ξ└╠┼═╣ό╟έ
	SerialData[cnt++] = 0x01;						// └ί║±▒έ┴╛ : └┌╡╖ ╣τ░╘ ├°┴ν▒έ
    1b60:	81 e0       	ldi	r24, 0x01	; 1
    1b62:	8b 83       	std	Y+3, r24	; 0x03
	SerialData[cnt++] = id;							// └ί║±id
    1b64:	6c 83       	std	Y+4, r22	; 0x04
	SerialData[cnt++] = 0x00;						// ▒╕║╨─┌╡ί
	SerialData[cnt++] = FW_VER;						// Protocol Version	// 5
    1b66:	81 e2       	ldi	r24, 0x21	; 33
    1b68:	8e 83       	std	Y+6, r24	; 0x06
	SerialData[cnt++] = Gwid;						// GWID
    1b6a:	80 91 86 42 	lds	r24, 0x4286	; 0x804286 <Gwid>
    1b6e:	8f 83       	std	Y+7, r24	; 0x07
	SerialData[cnt++] = 0x00;						// ░│├╝╝°╣°
	SerialData[cnt++] = 0x00;						// └┌╡┐ 1 / ╝÷╡┐ 0
	SerialData[cnt++] = 0x02;						// ╣τ░╘ ╝╥╝÷┴κ ╗ύ┐Έ:1, ╣τ░╘ ╝╥╝÷┴κ ╣╠╗ύ┐Έ:0, 10g┤▄└π:2
    1b70:	82 e0       	ldi	r24, 0x02	; 2
    1b72:	8a 87       	std	Y+10, r24	; 0x0a
	for(uint8_t i = 1; i <= 20; i++)					// 1║╬┼═ 20▒Ό┴÷ 20╣° ╣▌║╣
    1b74:	11 e0       	ldi	r17, 0x01	; 1
//=================================================================================================
void Send_To_Server(uint8_t Number, uint8_t id)					// PC╖╬ ╡ξ└╠┼═ └ⁿ╝█ (20░│ ├°┴ν├╝┴▀ Data)
{
	uint8_t cnt = 0;							// cnt ║ψ╝÷ ├╩▒έ╚φ
	uint8_t ChkSum = 0;							// ChkSum ║ψ╝÷ ├╩▒έ╚φ
	uint16_t Count= 0;							// Count ║ψ╝÷ ├╩▒έ╚φ
    1b76:	e1 2c       	mov	r14, r1
    1b78:	f1 2c       	mov	r15, r1
	SerialData[cnt++] = 0x00;						// ▒╕║╨─┌╡ί
	SerialData[cnt++] = FW_VER;						// Protocol Version	// 5
	SerialData[cnt++] = Gwid;						// GWID
	SerialData[cnt++] = 0x00;						// ░│├╝╝°╣°
	SerialData[cnt++] = 0x00;						// └┌╡┐ 1 / ╝÷╡┐ 0
	SerialData[cnt++] = 0x02;						// ╣τ░╘ ╝╥╝÷┴κ ╗ύ┐Έ:1, ╣τ░╘ ╝╥╝÷┴κ ╣╠╗ύ┐Έ:0, 10g┤▄└π:2
    1b7a:	0a e0       	ldi	r16, 0x0A	; 10
	for(uint8_t i = 1; i <= 20; i++)					// 1║╬┼═ 20▒Ό┴÷ 20╣° ╣▌║╣
    1b7c:	f5 c0       	rjmp	.+490    	; 0x1d68 <Send_To_Server+0x240>
	{
		if(Number == 1)							// 1╣° ╖╬╡ί╝┐ └╠╕ώ
    1b7e:	b1 e0       	ldi	r27, 0x01	; 1
    1b80:	db 12       	cpse	r13, r27
    1b82:	4e c0       	rjmp	.+156    	; 0x1c20 <Send_To_Server+0xf8>
		{
			if     (CELL.Count_1 >= 20) {Count = CELL.Count_1 + i;}	// Count_1 └╠ 20 ║╕┤┘ ┼σ░┼│ς ░░└╕╕ώ Count_1└╗ i ╕╕┼φ ┴Ϋ░κ ╟╧░Ί
    1b84:	80 91 51 42 	lds	r24, 0x4251	; 0x804251 <CELL+0x40>
    1b88:	90 91 52 42 	lds	r25, 0x4252	; 0x804252 <CELL+0x41>
    1b8c:	44 97       	sbiw	r24, 0x14	; 20
    1b8e:	38 f0       	brcs	.+14     	; 0x1b9e <Send_To_Server+0x76>
    1b90:	e0 90 51 42 	lds	r14, 0x4251	; 0x804251 <CELL+0x40>
    1b94:	f0 90 52 42 	lds	r15, 0x4252	; 0x804252 <CELL+0x41>
    1b98:	e1 0e       	add	r14, r17
    1b9a:	f1 1c       	adc	r15, r1
    1b9c:	15 c0       	rjmp	.+42     	; 0x1bc8 <Send_To_Server+0xa0>
			else if(CELL.Count_1 >= i)  {Count = i;}		// Count_1 └╠  i ║╕┤┘ ┼σ░┼│ς ░░└╕╕ώ Count_1┐κ i ╕ο│╬░Ί
    1b9e:	20 91 51 42 	lds	r18, 0x4251	; 0x804251 <CELL+0x40>
    1ba2:	30 91 52 42 	lds	r19, 0x4252	; 0x804252 <CELL+0x41>
    1ba6:	81 2f       	mov	r24, r17
    1ba8:	90 e0       	ldi	r25, 0x00	; 0
    1baa:	28 17       	cp	r18, r24
    1bac:	39 07       	cpc	r19, r25
    1bae:	40 f4       	brcc	.+16     	; 0x1bc0 <Send_To_Server+0x98>
			else if(CELL.Count_1 < i)   {Count = 0;}		// Count_1 └╠  i ║╕┤┘ └█└╕╕ώ 0 └╕╖╬ ├╩▒έ╚φ
    1bb0:	20 91 51 42 	lds	r18, 0x4251	; 0x804251 <CELL+0x40>
    1bb4:	30 91 52 42 	lds	r19, 0x4252	; 0x804252 <CELL+0x41>
    1bb8:	28 17       	cp	r18, r24
    1bba:	39 07       	cpc	r19, r25
    1bbc:	18 f0       	brcs	.+6      	; 0x1bc4 <Send_To_Server+0x9c>
    1bbe:	04 c0       	rjmp	.+8      	; 0x1bc8 <Send_To_Server+0xa0>
	for(uint8_t i = 1; i <= 20; i++)					// 1║╬┼═ 20▒Ό┴÷ 20╣° ╣▌║╣
	{
		if(Number == 1)							// 1╣° ╖╬╡ί╝┐ └╠╕ώ
		{
			if     (CELL.Count_1 >= 20) {Count = CELL.Count_1 + i;}	// Count_1 └╠ 20 ║╕┤┘ ┼σ░┼│ς ░░└╕╕ώ Count_1└╗ i ╕╕┼φ ┴Ϋ░κ ╟╧░Ί
			else if(CELL.Count_1 >= i)  {Count = i;}		// Count_1 └╠  i ║╕┤┘ ┼σ░┼│ς ░░└╕╕ώ Count_1┐κ i ╕ο│╬░Ί
    1bc0:	7c 01       	movw	r14, r24
    1bc2:	02 c0       	rjmp	.+4      	; 0x1bc8 <Send_To_Server+0xa0>
			else if(CELL.Count_1 < i)   {Count = 0;}		// Count_1 └╠  i ║╕┤┘ └█└╕╕ώ 0 └╕╖╬ ├╩▒έ╚φ
    1bc4:	e1 2c       	mov	r14, r1
    1bc6:	f1 2c       	mov	r15, r1
			SerialData[cnt++] = Count / 256;			// ├°┴ν╚╜╝÷ i ╗≤└π	// 10 ~ 89
    1bc8:	81 e0       	ldi	r24, 0x01	; 1
    1bca:	80 0f       	add	r24, r16
    1bcc:	e1 e0       	ldi	r30, 0x01	; 1
    1bce:	f0 e0       	ldi	r31, 0x00	; 0
    1bd0:	ec 0f       	add	r30, r28
    1bd2:	fd 1f       	adc	r31, r29
    1bd4:	e0 0f       	add	r30, r16
    1bd6:	f1 1d       	adc	r31, r1
    1bd8:	f0 82       	st	Z, r15
			SerialData[cnt++] = Count % 256;			// ├°┴ν╚╜╝÷ i ╟╧└π
    1bda:	22 e0       	ldi	r18, 0x02	; 2
    1bdc:	20 0f       	add	r18, r16
    1bde:	e1 e0       	ldi	r30, 0x01	; 1
    1be0:	f0 e0       	ldi	r31, 0x00	; 0
    1be2:	ec 0f       	add	r30, r28
    1be4:	fd 1f       	adc	r31, r29
    1be6:	e8 0f       	add	r30, r24
    1be8:	f1 1d       	adc	r31, r1
    1bea:	e0 82       	st	Z, r14
			SerialData[cnt++] = Data_1[i] / 256;			// ├°┴ν╣τ░╘ i ╗≤└π
    1bec:	e1 2f       	mov	r30, r17
    1bee:	f0 e0       	ldi	r31, 0x00	; 0
    1bf0:	ee 0f       	add	r30, r30
    1bf2:	ff 1f       	adc	r31, r31
    1bf4:	e2 51       	subi	r30, 0x12	; 18
    1bf6:	fc 4b       	sbci	r31, 0xBC	; 188
    1bf8:	90 81       	ld	r25, Z
    1bfa:	81 81       	ldd	r24, Z+1	; 0x01
    1bfc:	e1 e0       	ldi	r30, 0x01	; 1
    1bfe:	f0 e0       	ldi	r31, 0x00	; 0
    1c00:	ec 0f       	add	r30, r28
    1c02:	fd 1f       	adc	r31, r29
    1c04:	e2 0f       	add	r30, r18
    1c06:	f1 1d       	adc	r31, r1
    1c08:	80 83       	st	Z, r24
			SerialData[cnt++] = Data_1[i] % 256;			// ├°┴ν╣τ░╘ i ╟╧└π
    1c0a:	83 e0       	ldi	r24, 0x03	; 3
    1c0c:	80 0f       	add	r24, r16
    1c0e:	e1 e0       	ldi	r30, 0x01	; 1
    1c10:	f0 e0       	ldi	r31, 0x00	; 0
    1c12:	ec 0f       	add	r30, r28
    1c14:	fd 1f       	adc	r31, r29
    1c16:	e8 0f       	add	r30, r24
    1c18:	f1 1d       	adc	r31, r1
    1c1a:	0c 5f       	subi	r16, 0xFC	; 252
    1c1c:	90 83       	st	Z, r25
    1c1e:	a1 c0       	rjmp	.+322    	; 0x1d62 <Send_To_Server+0x23a>
		}
		else if(Number == 2)						// 2╣° ╖╬╡ί╝┐ └╠╕ώ
    1c20:	82 e0       	ldi	r24, 0x02	; 2
    1c22:	d8 12       	cpse	r13, r24
    1c24:	4e c0       	rjmp	.+156    	; 0x1cc2 <Send_To_Server+0x19a>
		{
			if     (CELL.Count_2 >= 20){Count = CELL.Count_2 + i;}	// Count_2 └╠ 20 ║╕┤┘ ┼σ░┼│ς ░░└╕╕ώ Count_2└╗ i ╕╕┼φ ┴Ϋ░κ ╟╧░Ί
    1c26:	80 91 53 42 	lds	r24, 0x4253	; 0x804253 <CELL+0x42>
    1c2a:	90 91 54 42 	lds	r25, 0x4254	; 0x804254 <CELL+0x43>
    1c2e:	44 97       	sbiw	r24, 0x14	; 20
    1c30:	38 f0       	brcs	.+14     	; 0x1c40 <Send_To_Server+0x118>
    1c32:	e0 90 53 42 	lds	r14, 0x4253	; 0x804253 <CELL+0x42>
    1c36:	f0 90 54 42 	lds	r15, 0x4254	; 0x804254 <CELL+0x43>
    1c3a:	e1 0e       	add	r14, r17
    1c3c:	f1 1c       	adc	r15, r1
    1c3e:	15 c0       	rjmp	.+42     	; 0x1c6a <Send_To_Server+0x142>
			else if(CELL.Count_2 >= i) {Count = i;}			// Count_2 └╠  i ║╕┤┘ ┼σ░┼│ς ░░└╕╕ώ Count_2┐κ i ╕ο│╬░Ί
    1c40:	20 91 53 42 	lds	r18, 0x4253	; 0x804253 <CELL+0x42>
    1c44:	30 91 54 42 	lds	r19, 0x4254	; 0x804254 <CELL+0x43>
    1c48:	81 2f       	mov	r24, r17
    1c4a:	90 e0       	ldi	r25, 0x00	; 0
    1c4c:	28 17       	cp	r18, r24
    1c4e:	39 07       	cpc	r19, r25
    1c50:	40 f4       	brcc	.+16     	; 0x1c62 <Send_To_Server+0x13a>
			else if(CELL.Count_2 < i)  {Count = 0;}			// Count_2 └╠  i ║╕┤┘ └█└╕╕ώ 0 └╕╖╬ ├╩▒έ╚φ
    1c52:	20 91 53 42 	lds	r18, 0x4253	; 0x804253 <CELL+0x42>
    1c56:	30 91 54 42 	lds	r19, 0x4254	; 0x804254 <CELL+0x43>
    1c5a:	28 17       	cp	r18, r24
    1c5c:	39 07       	cpc	r19, r25
    1c5e:	18 f0       	brcs	.+6      	; 0x1c66 <Send_To_Server+0x13e>
    1c60:	04 c0       	rjmp	.+8      	; 0x1c6a <Send_To_Server+0x142>
			SerialData[cnt++] = Data_1[i] % 256;			// ├°┴ν╣τ░╘ i ╟╧└π
		}
		else if(Number == 2)						// 2╣° ╖╬╡ί╝┐ └╠╕ώ
		{
			if     (CELL.Count_2 >= 20){Count = CELL.Count_2 + i;}	// Count_2 └╠ 20 ║╕┤┘ ┼σ░┼│ς ░░└╕╕ώ Count_2└╗ i ╕╕┼φ ┴Ϋ░κ ╟╧░Ί
			else if(CELL.Count_2 >= i) {Count = i;}			// Count_2 └╠  i ║╕┤┘ ┼σ░┼│ς ░░└╕╕ώ Count_2┐κ i ╕ο│╬░Ί
    1c62:	7c 01       	movw	r14, r24
    1c64:	02 c0       	rjmp	.+4      	; 0x1c6a <Send_To_Server+0x142>
			else if(CELL.Count_2 < i)  {Count = 0;}			// Count_2 └╠  i ║╕┤┘ └█└╕╕ώ 0 └╕╖╬ ├╩▒έ╚φ
    1c66:	e1 2c       	mov	r14, r1
    1c68:	f1 2c       	mov	r15, r1
			SerialData[cnt++] = Count / 256;			// ├°┴ν╚╜╝÷ i ╗≤└π	// 10 ~ 89
    1c6a:	81 e0       	ldi	r24, 0x01	; 1
    1c6c:	80 0f       	add	r24, r16
    1c6e:	e1 e0       	ldi	r30, 0x01	; 1
    1c70:	f0 e0       	ldi	r31, 0x00	; 0
    1c72:	ec 0f       	add	r30, r28
    1c74:	fd 1f       	adc	r31, r29
    1c76:	e0 0f       	add	r30, r16
    1c78:	f1 1d       	adc	r31, r1
    1c7a:	f0 82       	st	Z, r15
			SerialData[cnt++] = Count % 256;			// ├°┴ν╚╜╝÷ i ╟╧└π
    1c7c:	22 e0       	ldi	r18, 0x02	; 2
    1c7e:	20 0f       	add	r18, r16
    1c80:	e1 e0       	ldi	r30, 0x01	; 1
    1c82:	f0 e0       	ldi	r31, 0x00	; 0
    1c84:	ec 0f       	add	r30, r28
    1c86:	fd 1f       	adc	r31, r29
    1c88:	e8 0f       	add	r30, r24
    1c8a:	f1 1d       	adc	r31, r1
    1c8c:	e0 82       	st	Z, r14
			SerialData[cnt++] = Data_2[i] / 256;			// ├°┴ν╣τ░╘ i ╗≤└π
    1c8e:	e1 2f       	mov	r30, r17
    1c90:	f0 e0       	ldi	r31, 0x00	; 0
    1c92:	ee 0f       	add	r30, r30
    1c94:	ff 1f       	adc	r31, r31
    1c96:	ef 54       	subi	r30, 0x4F	; 79
    1c98:	fd 4b       	sbci	r31, 0xBD	; 189
    1c9a:	90 81       	ld	r25, Z
    1c9c:	81 81       	ldd	r24, Z+1	; 0x01
    1c9e:	e1 e0       	ldi	r30, 0x01	; 1
    1ca0:	f0 e0       	ldi	r31, 0x00	; 0
    1ca2:	ec 0f       	add	r30, r28
    1ca4:	fd 1f       	adc	r31, r29
    1ca6:	e2 0f       	add	r30, r18
    1ca8:	f1 1d       	adc	r31, r1
    1caa:	80 83       	st	Z, r24
			SerialData[cnt++] = Data_2[i] % 256;			// ├°┴ν╣τ░╘ i ╟╧└π
    1cac:	83 e0       	ldi	r24, 0x03	; 3
    1cae:	80 0f       	add	r24, r16
    1cb0:	e1 e0       	ldi	r30, 0x01	; 1
    1cb2:	f0 e0       	ldi	r31, 0x00	; 0
    1cb4:	ec 0f       	add	r30, r28
    1cb6:	fd 1f       	adc	r31, r29
    1cb8:	e8 0f       	add	r30, r24
    1cba:	f1 1d       	adc	r31, r1
    1cbc:	0c 5f       	subi	r16, 0xFC	; 252
    1cbe:	90 83       	st	Z, r25
    1cc0:	50 c0       	rjmp	.+160    	; 0x1d62 <Send_To_Server+0x23a>
		}
		else if(Number == 3)						// 3╣° ╖╬╡ί╝┐ └╠╕ώ
    1cc2:	93 e0       	ldi	r25, 0x03	; 3
    1cc4:	d9 12       	cpse	r13, r25
    1cc6:	4d c0       	rjmp	.+154    	; 0x1d62 <Send_To_Server+0x23a>
		{
			if     (CELL.Count_3 >= 20) {Count = CELL.Count_3 + i;}	// Count_3 └╠ 20 ║╕┤┘ ┼σ░┼│ς ░░└╕╕ώ Count_3└╗ i ╕╕┼φ ┴Ϋ░κ ╟╧░Ί
    1cc8:	80 91 55 42 	lds	r24, 0x4255	; 0x804255 <CELL+0x44>
    1ccc:	90 91 56 42 	lds	r25, 0x4256	; 0x804256 <CELL+0x45>
    1cd0:	44 97       	sbiw	r24, 0x14	; 20
    1cd2:	38 f0       	brcs	.+14     	; 0x1ce2 <Send_To_Server+0x1ba>
    1cd4:	e0 90 55 42 	lds	r14, 0x4255	; 0x804255 <CELL+0x44>
    1cd8:	f0 90 56 42 	lds	r15, 0x4256	; 0x804256 <CELL+0x45>
    1cdc:	e1 0e       	add	r14, r17
    1cde:	f1 1c       	adc	r15, r1
    1ce0:	15 c0       	rjmp	.+42     	; 0x1d0c <Send_To_Server+0x1e4>
			else if(CELL.Count_3 >= i)  {Count = i;}		// Count_3 └╠  i ║╕┤┘ ┼σ░┼│ς ░░└╕╕ώ Count_3┐κ i ╕ο│╬░Ί
    1ce2:	20 91 55 42 	lds	r18, 0x4255	; 0x804255 <CELL+0x44>
    1ce6:	30 91 56 42 	lds	r19, 0x4256	; 0x804256 <CELL+0x45>
    1cea:	81 2f       	mov	r24, r17
    1cec:	90 e0       	ldi	r25, 0x00	; 0
    1cee:	28 17       	cp	r18, r24
    1cf0:	39 07       	cpc	r19, r25
    1cf2:	40 f4       	brcc	.+16     	; 0x1d04 <Send_To_Server+0x1dc>
			else if(CELL.Count_3 < i)   {Count = 0;}		// Count_3 └╠  i ║╕┤┘ └█└╕╕ώ 0 └╕╖╬ ├╩▒έ╚φ
    1cf4:	20 91 55 42 	lds	r18, 0x4255	; 0x804255 <CELL+0x44>
    1cf8:	30 91 56 42 	lds	r19, 0x4256	; 0x804256 <CELL+0x45>
    1cfc:	28 17       	cp	r18, r24
    1cfe:	39 07       	cpc	r19, r25
    1d00:	18 f0       	brcs	.+6      	; 0x1d08 <Send_To_Server+0x1e0>
    1d02:	04 c0       	rjmp	.+8      	; 0x1d0c <Send_To_Server+0x1e4>
			SerialData[cnt++] = Data_2[i] % 256;			// ├°┴ν╣τ░╘ i ╟╧└π
		}
		else if(Number == 3)						// 3╣° ╖╬╡ί╝┐ └╠╕ώ
		{
			if     (CELL.Count_3 >= 20) {Count = CELL.Count_3 + i;}	// Count_3 └╠ 20 ║╕┤┘ ┼σ░┼│ς ░░└╕╕ώ Count_3└╗ i ╕╕┼φ ┴Ϋ░κ ╟╧░Ί
			else if(CELL.Count_3 >= i)  {Count = i;}		// Count_3 └╠  i ║╕┤┘ ┼σ░┼│ς ░░└╕╕ώ Count_3┐κ i ╕ο│╬░Ί
    1d04:	7c 01       	movw	r14, r24
    1d06:	02 c0       	rjmp	.+4      	; 0x1d0c <Send_To_Server+0x1e4>
			else if(CELL.Count_3 < i)   {Count = 0;}		// Count_3 └╠  i ║╕┤┘ └█└╕╕ώ 0 └╕╖╬ ├╩▒έ╚φ
    1d08:	e1 2c       	mov	r14, r1
    1d0a:	f1 2c       	mov	r15, r1

			SerialData[cnt++] = Count / 256;			// ├°┴ν╚╜╝÷ i ╗≤└π	// 10 ~ 89
    1d0c:	81 e0       	ldi	r24, 0x01	; 1
    1d0e:	80 0f       	add	r24, r16
    1d10:	e1 e0       	ldi	r30, 0x01	; 1
    1d12:	f0 e0       	ldi	r31, 0x00	; 0
    1d14:	ec 0f       	add	r30, r28
    1d16:	fd 1f       	adc	r31, r29
    1d18:	e0 0f       	add	r30, r16
    1d1a:	f1 1d       	adc	r31, r1
    1d1c:	f0 82       	st	Z, r15
			SerialData[cnt++] = Count % 256;			// ├°┴ν╚╜╝÷ i ╟╧└π
    1d1e:	22 e0       	ldi	r18, 0x02	; 2
    1d20:	20 0f       	add	r18, r16
    1d22:	e1 e0       	ldi	r30, 0x01	; 1
    1d24:	f0 e0       	ldi	r31, 0x00	; 0
    1d26:	ec 0f       	add	r30, r28
    1d28:	fd 1f       	adc	r31, r29
    1d2a:	e8 0f       	add	r30, r24
    1d2c:	f1 1d       	adc	r31, r1
    1d2e:	e0 82       	st	Z, r14
			SerialData[cnt++] = Data_3[i] / 256;			// ├°┴ν╣τ░╘ i ╗≤└π
    1d30:	e1 2f       	mov	r30, r17
    1d32:	f0 e0       	ldi	r31, 0x00	; 0
    1d34:	ee 0f       	add	r30, r30
    1d36:	ff 1f       	adc	r31, r31
    1d38:	e7 55       	subi	r30, 0x57	; 87
    1d3a:	fe 4b       	sbci	r31, 0xBE	; 190
    1d3c:	90 81       	ld	r25, Z
    1d3e:	81 81       	ldd	r24, Z+1	; 0x01
    1d40:	e1 e0       	ldi	r30, 0x01	; 1
    1d42:	f0 e0       	ldi	r31, 0x00	; 0
    1d44:	ec 0f       	add	r30, r28
    1d46:	fd 1f       	adc	r31, r29
    1d48:	e2 0f       	add	r30, r18
    1d4a:	f1 1d       	adc	r31, r1
    1d4c:	80 83       	st	Z, r24
			SerialData[cnt++] = Data_3[i] % 256;			// ├°┴ν╣τ░╘ i ╟╧└π
    1d4e:	83 e0       	ldi	r24, 0x03	; 3
    1d50:	80 0f       	add	r24, r16
    1d52:	e1 e0       	ldi	r30, 0x01	; 1
    1d54:	f0 e0       	ldi	r31, 0x00	; 0
    1d56:	ec 0f       	add	r30, r28
    1d58:	fd 1f       	adc	r31, r29
    1d5a:	e8 0f       	add	r30, r24
    1d5c:	f1 1d       	adc	r31, r1
    1d5e:	0c 5f       	subi	r16, 0xFC	; 252
    1d60:	90 83       	st	Z, r25
		}
		wdt_reset();
    1d62:	0e 94 ef 0c 	call	0x19de	; 0x19de <wdt_reset>
	SerialData[cnt++] = FW_VER;						// Protocol Version	// 5
	SerialData[cnt++] = Gwid;						// GWID
	SerialData[cnt++] = 0x00;						// ░│├╝╝°╣°
	SerialData[cnt++] = 0x00;						// └┌╡┐ 1 / ╝÷╡┐ 0
	SerialData[cnt++] = 0x02;						// ╣τ░╘ ╝╥╝÷┴κ ╗ύ┐Έ:1, ╣τ░╘ ╝╥╝÷┴κ ╣╠╗ύ┐Έ:0, 10g┤▄└π:2
	for(uint8_t i = 1; i <= 20; i++)					// 1║╬┼═ 20▒Ό┴÷ 20╣° ╣▌║╣
    1d66:	1f 5f       	subi	r17, 0xFF	; 255
    1d68:	15 31       	cpi	r17, 0x15	; 21
    1d6a:	08 f4       	brcc	.+2      	; 0x1d6e <Send_To_Server+0x246>
    1d6c:	08 cf       	rjmp	.-496    	; 0x1b7e <Send_To_Server+0x56>
			SerialData[cnt++] = Data_3[i] / 256;			// ├°┴ν╣τ░╘ i ╗≤└π
			SerialData[cnt++] = Data_3[i] % 256;			// ├°┴ν╣τ░╘ i ╟╧└π
		}
		wdt_reset();
	}
	SerialData[cnt++] = 0x00;						// ┐╣║±			// 90
    1d6e:	e1 e0       	ldi	r30, 0x01	; 1
    1d70:	f0 e0       	ldi	r31, 0x00	; 0
    1d72:	ec 0f       	add	r30, r28
    1d74:	fd 1f       	adc	r31, r29
    1d76:	e0 0f       	add	r30, r16
    1d78:	f1 1d       	adc	r31, r1
    1d7a:	10 82       	st	Z, r1
	SerialData[cnt++] = 0x00;						// ┐╣║±
    1d7c:	81 e0       	ldi	r24, 0x01	; 1
    1d7e:	80 0f       	add	r24, r16
    1d80:	e1 e0       	ldi	r30, 0x01	; 1
    1d82:	f0 e0       	ldi	r31, 0x00	; 0
    1d84:	ec 0f       	add	r30, r28
    1d86:	fd 1f       	adc	r31, r29
    1d88:	e8 0f       	add	r30, r24
    1d8a:	f1 1d       	adc	r31, r1
    1d8c:	10 82       	st	Z, r1
	SerialData[cnt++] = 0x00;						// ┐╣║±
    1d8e:	82 e0       	ldi	r24, 0x02	; 2
    1d90:	80 0f       	add	r24, r16
    1d92:	e1 e0       	ldi	r30, 0x01	; 1
    1d94:	f0 e0       	ldi	r31, 0x00	; 0
    1d96:	ec 0f       	add	r30, r28
    1d98:	fd 1f       	adc	r31, r29
    1d9a:	e8 0f       	add	r30, r24
    1d9c:	f1 1d       	adc	r31, r1
    1d9e:	10 82       	st	Z, r1
	SerialData[cnt++] = 0x00;						// ┐╣║±
    1da0:	83 e0       	ldi	r24, 0x03	; 3
    1da2:	80 0f       	add	r24, r16
    1da4:	e1 e0       	ldi	r30, 0x01	; 1
    1da6:	f0 e0       	ldi	r31, 0x00	; 0
    1da8:	ec 0f       	add	r30, r28
    1daa:	fd 1f       	adc	r31, r29
    1dac:	e8 0f       	add	r30, r24
    1dae:	f1 1d       	adc	r31, r1
    1db0:	10 82       	st	Z, r1
	SerialData[cnt++] = 0x00;						// ┐╣║±
    1db2:	84 e0       	ldi	r24, 0x04	; 4
    1db4:	80 0f       	add	r24, r16
    1db6:	e1 e0       	ldi	r30, 0x01	; 1
    1db8:	f0 e0       	ldi	r31, 0x00	; 0
    1dba:	ec 0f       	add	r30, r28
    1dbc:	fd 1f       	adc	r31, r29
    1dbe:	e8 0f       	add	r30, r24
    1dc0:	f1 1d       	adc	r31, r1
    1dc2:	10 82       	st	Z, r1
	SerialData[cnt++] = 0x00;						// ┐╣║±			// 95
    1dc4:	36 e0       	ldi	r19, 0x06	; 6
    1dc6:	30 0f       	add	r19, r16
    1dc8:	85 e0       	ldi	r24, 0x05	; 5
    1dca:	80 0f       	add	r24, r16
    1dcc:	e1 e0       	ldi	r30, 0x01	; 1
    1dce:	f0 e0       	ldi	r31, 0x00	; 0
    1dd0:	ec 0f       	add	r30, r28
    1dd2:	fd 1f       	adc	r31, r29
    1dd4:	e8 0f       	add	r30, r24
    1dd6:	f1 1d       	adc	r31, r1
    1dd8:	10 82       	st	Z, r1
	for(uint8_t icnt2 = 1; icnt2 < cnt; icnt2++) {ChkSum += SerialData[icnt2];}	// ├╝┼σ╜ό ░ϋ╗Ά
    1dda:	81 e0       	ldi	r24, 0x01	; 1
//		PC╖╬ ╡ξ└╠┼═ └ⁿ╝█ (20░│ ├°┴ν├╝┴▀ Data)
//=================================================================================================
void Send_To_Server(uint8_t Number, uint8_t id)					// PC╖╬ ╡ξ└╠┼═ └ⁿ╝█ (20░│ ├°┴ν├╝┴▀ Data)
{
	uint8_t cnt = 0;							// cnt ║ψ╝÷ ├╩▒έ╚φ
	uint8_t ChkSum = 0;							// ChkSum ║ψ╝÷ ├╩▒έ╚φ
    1ddc:	90 e0       	ldi	r25, 0x00	; 0
	SerialData[cnt++] = 0x00;						// ┐╣║±
	SerialData[cnt++] = 0x00;						// ┐╣║±
	SerialData[cnt++] = 0x00;						// ┐╣║±
	SerialData[cnt++] = 0x00;						// ┐╣║±
	SerialData[cnt++] = 0x00;						// ┐╣║±			// 95
	for(uint8_t icnt2 = 1; icnt2 < cnt; icnt2++) {ChkSum += SerialData[icnt2];}	// ├╝┼σ╜ό ░ϋ╗Ά
    1dde:	09 c0       	rjmp	.+18     	; 0x1df2 <Send_To_Server+0x2ca>
    1de0:	e1 e0       	ldi	r30, 0x01	; 1
    1de2:	f0 e0       	ldi	r31, 0x00	; 0
    1de4:	ec 0f       	add	r30, r28
    1de6:	fd 1f       	adc	r31, r29
    1de8:	e8 0f       	add	r30, r24
    1dea:	f1 1d       	adc	r31, r1
    1dec:	20 81       	ld	r18, Z
    1dee:	92 0f       	add	r25, r18
    1df0:	8f 5f       	subi	r24, 0xFF	; 255
    1df2:	83 17       	cp	r24, r19
    1df4:	a8 f3       	brcs	.-22     	; 0x1de0 <Send_To_Server+0x2b8>
	SerialData[cnt++] = ChkSum;						// ├╝┼σ╜ό		// 96
    1df6:	87 e0       	ldi	r24, 0x07	; 7
    1df8:	80 0f       	add	r24, r16
    1dfa:	e1 e0       	ldi	r30, 0x01	; 1
    1dfc:	f0 e0       	ldi	r31, 0x00	; 0
    1dfe:	ec 0f       	add	r30, r28
    1e00:	fd 1f       	adc	r31, r29
    1e02:	e3 0f       	add	r30, r19
    1e04:	f1 1d       	adc	r31, r1
    1e06:	90 83       	st	Z, r25
	SerialData[cnt++] = ETX_Iontec;						// ETX_Iontec : 0xF1	// 97
    1e08:	08 5f       	subi	r16, 0xF8	; 248
    1e0a:	e1 e0       	ldi	r30, 0x01	; 1
    1e0c:	f0 e0       	ldi	r31, 0x00	; 0
    1e0e:	ec 0f       	add	r30, r28
    1e10:	fd 1f       	adc	r31, r29
    1e12:	e8 0f       	add	r30, r24
    1e14:	f1 1d       	adc	r31, r1
    1e16:	81 ef       	ldi	r24, 0xF1	; 241
    1e18:	80 83       	st	Z, r24
//-------------------------------------------------------------------------------------------------
//		Serial Protocol End
//-------------------------------------------------------------------------------------------------
	for(uint8_t j = 0; j < cnt; j++) {USART3_Write(SerialData[j]);}		// SerialData ╝÷╕╕┼φ ╝█╜┼
    1e1a:	10 e0       	ldi	r17, 0x00	; 0
    1e1c:	0a c0       	rjmp	.+20     	; 0x1e32 <Send_To_Server+0x30a>
    1e1e:	e1 e0       	ldi	r30, 0x01	; 1
    1e20:	f0 e0       	ldi	r31, 0x00	; 0
    1e22:	ec 0f       	add	r30, r28
    1e24:	fd 1f       	adc	r31, r29
    1e26:	e1 0f       	add	r30, r17
    1e28:	f1 1d       	adc	r31, r1
    1e2a:	80 81       	ld	r24, Z
    1e2c:	0e 94 09 36 	call	0x6c12	; 0x6c12 <USART3_Write>
    1e30:	1f 5f       	subi	r17, 0xFF	; 255
    1e32:	10 17       	cp	r17, r16
    1e34:	a0 f3       	brcs	.-24     	; 0x1e1e <Send_To_Server+0x2f6>
}
    1e36:	ca 59       	subi	r28, 0x9A	; 154
    1e38:	df 4f       	sbci	r29, 0xFF	; 255
    1e3a:	cd bf       	out	0x3d, r28	; 61
    1e3c:	de bf       	out	0x3e, r29	; 62
    1e3e:	df 91       	pop	r29
    1e40:	cf 91       	pop	r28
    1e42:	1f 91       	pop	r17
    1e44:	0f 91       	pop	r16
    1e46:	ff 90       	pop	r15
    1e48:	ef 90       	pop	r14
    1e4a:	df 90       	pop	r13
    1e4c:	08 95       	ret

00001e4e <Receiv_PC>:

//=================================================================================================
//		PC╖╬ ║╬┼═ ╡ξ└╠┼═╝÷╜┼
//=================================================================================================
void Receiv_PC(void)								// PC╖╬ ║╬┼═ ╡ξ└╠┼═╝÷╜┼
{
    1e4e:	ef 92       	push	r14
    1e50:	ff 92       	push	r15
    1e52:	0f 93       	push	r16
    1e54:	1f 93       	push	r17
    1e56:	cf 93       	push	r28
    1e58:	df 93       	push	r29
	uint8_t cnt1;								// cnt1 ║ψ╝÷ ├╩▒έ╚φ
	uint8_t ChkSum = 0;							// ChkSum ║ψ╝÷ ├╩▒έ╚φ

	for(uint8_t cnt = 0; cnt < RX3_SIZE; cnt++)				// RX3_SIZE ╕╕┼φ ╣▌║╣
    1e5a:	c0 e0       	ldi	r28, 0x00	; 0
    1e5c:	e7 c1       	rjmp	.+974    	; 0x222c <Receiv_PC+0x3de>
	{
		if(Rx3_Buff[cnt] == STX_Iontec && Rx3_Buff[cnt + 1] == PC2CTL && Rx3_Buff[cnt + 2] == 0x01 && Rx3_Buff[cnt + 4] == 0 && Rx3_Buff[cnt + 9] == ETX_Iontec)
    1e5e:	0c 2f       	mov	r16, r28
    1e60:	10 e0       	ldi	r17, 0x00	; 0
    1e62:	f8 01       	movw	r30, r16
    1e64:	e9 51       	subi	r30, 0x19	; 25
    1e66:	fd 4b       	sbci	r31, 0xBD	; 189
    1e68:	80 81       	ld	r24, Z
    1e6a:	80 3f       	cpi	r24, 0xF0	; 240
    1e6c:	09 f0       	breq	.+2      	; 0x1e70 <Receiv_PC+0x22>
    1e6e:	86 c0       	rjmp	.+268    	; 0x1f7c <Receiv_PC+0x12e>
    1e70:	f8 01       	movw	r30, r16
    1e72:	e8 51       	subi	r30, 0x18	; 24
    1e74:	fd 4b       	sbci	r31, 0xBD	; 189
    1e76:	90 81       	ld	r25, Z
    1e78:	91 30       	cpi	r25, 0x01	; 1
    1e7a:	09 f0       	breq	.+2      	; 0x1e7e <Receiv_PC+0x30>
    1e7c:	7f c0       	rjmp	.+254    	; 0x1f7c <Receiv_PC+0x12e>
    1e7e:	f8 01       	movw	r30, r16
    1e80:	e7 51       	subi	r30, 0x17	; 23
    1e82:	fd 4b       	sbci	r31, 0xBD	; 189
    1e84:	90 81       	ld	r25, Z
    1e86:	91 30       	cpi	r25, 0x01	; 1
    1e88:	09 f0       	breq	.+2      	; 0x1e8c <Receiv_PC+0x3e>
    1e8a:	78 c0       	rjmp	.+240    	; 0x1f7c <Receiv_PC+0x12e>
    1e8c:	f8 01       	movw	r30, r16
    1e8e:	e5 51       	subi	r30, 0x15	; 21
    1e90:	fd 4b       	sbci	r31, 0xBD	; 189
    1e92:	90 81       	ld	r25, Z
    1e94:	91 11       	cpse	r25, r1
    1e96:	72 c0       	rjmp	.+228    	; 0x1f7c <Receiv_PC+0x12e>
    1e98:	f8 01       	movw	r30, r16
    1e9a:	e0 51       	subi	r30, 0x10	; 16
    1e9c:	fd 4b       	sbci	r31, 0xBD	; 189
    1e9e:	90 81       	ld	r25, Z
    1ea0:	91 3f       	cpi	r25, 0xF1	; 241
    1ea2:	09 f0       	breq	.+2      	; 0x1ea6 <Receiv_PC+0x58>
    1ea4:	6b c0       	rjmp	.+214    	; 0x1f7c <Receiv_PC+0x12e>
		{//			STX			       PC2CTL			     ╝▒║░▒έ			╜╟╜├░μ┴ν║╕			ETX
			Rx_LED_ON;						// RX LED ON
    1ea6:	e4 e2       	ldi	r30, 0x24	; 36
    1ea8:	f4 e0       	ldi	r31, 0x04	; 4
    1eaa:	80 81       	ld	r24, Z
    1eac:	88 60       	ori	r24, 0x08	; 8
    1eae:	80 83       	st	Z, r24
			ChkSum = 0;						// ChkSum ├╩▒έ╚φ
    1eb0:	90 e0       	ldi	r25, 0x00	; 0

			for(cnt1 = 1; cnt1 < 8; cnt1++) {ChkSum += Rx3_Buff[cnt + cnt1];}	// ├╝┼σ╜ό ░ϋ╗Ά
    1eb2:	81 e0       	ldi	r24, 0x01	; 1
    1eb4:	08 c0       	rjmp	.+16     	; 0x1ec6 <Receiv_PC+0x78>
    1eb6:	f8 01       	movw	r30, r16
    1eb8:	e8 0f       	add	r30, r24
    1eba:	f1 1d       	adc	r31, r1
    1ebc:	e9 51       	subi	r30, 0x19	; 25
    1ebe:	fd 4b       	sbci	r31, 0xBD	; 189
    1ec0:	20 81       	ld	r18, Z
    1ec2:	92 0f       	add	r25, r18
    1ec4:	8f 5f       	subi	r24, 0xFF	; 255
    1ec6:	88 30       	cpi	r24, 0x08	; 8
    1ec8:	b0 f3       	brcs	.-20     	; 0x1eb6 <Receiv_PC+0x68>

			if(ChkSum == Rx3_Buff[cnt + 8])				// ├╝┼σ╜ό ╚χ└╬
    1eca:	f8 01       	movw	r30, r16
    1ecc:	e1 51       	subi	r30, 0x11	; 17
    1ece:	fd 4b       	sbci	r31, 0xBD	; 189
    1ed0:	80 81       	ld	r24, Z
    1ed2:	98 13       	cpse	r25, r24
    1ed4:	4b c0       	rjmp	.+150    	; 0x1f6c <Receiv_PC+0x11e>
			{
				if(Rx3_Buff[cnt + 3] == Cell_ID_1)		// ID 1╣° └╠╕ώ
    1ed6:	f8 01       	movw	r30, r16
    1ed8:	e6 51       	subi	r30, 0x16	; 22
    1eda:	fd 4b       	sbci	r31, 0xBD	; 189
    1edc:	80 81       	ld	r24, Z
    1ede:	90 91 a5 41 	lds	r25, 0x41A5	; 0x8041a5 <Cell_ID_1>
    1ee2:	89 13       	cpse	r24, r25
    1ee4:	14 c0       	rjmp	.+40     	; 0x1f0e <Receiv_PC+0xc0>
				{						// ╜╟╜├░μ ┴ν║╕
					Tx_LED_ON;				// TX LED ON
    1ee6:	c4 e2       	ldi	r28, 0x24	; 36
    1ee8:	d4 e0       	ldi	r29, 0x04	; 4
    1eea:	88 81       	ld	r24, Y
    1eec:	84 60       	ori	r24, 0x04	; 4
    1eee:	88 83       	st	Y, r24
					Send_To_Server(1, Cell_ID_1);		// ╣τ░╘ Data PC╖╬ └ⁿ╝█
    1ef0:	60 91 a5 41 	lds	r22, 0x41A5	; 0x8041a5 <Cell_ID_1>
    1ef4:	81 e0       	ldi	r24, 0x01	; 1
    1ef6:	0e 94 94 0d 	call	0x1b28	; 0x1b28 <Send_To_Server>
    1efa:	8c ec       	ldi	r24, 0xCC	; 204
    1efc:	9c e1       	ldi	r25, 0x1C	; 28
    1efe:	01 97       	sbiw	r24, 0x01	; 1
    1f00:	f1 f7       	brne	.-4      	; 0x1efe <Receiv_PC+0xb0>
    1f02:	00 c0       	rjmp	.+0      	; 0x1f04 <Receiv_PC+0xb6>
    1f04:	00 00       	nop
					_delay_ms(2);
					Tx_LED_OFF;				// TX LED OFF
    1f06:	88 81       	ld	r24, Y
    1f08:	8b 7f       	andi	r24, 0xFB	; 251
    1f0a:	88 83       	st	Y, r24
    1f0c:	2f c0       	rjmp	.+94     	; 0x1f6c <Receiv_PC+0x11e>
				}
				else if(Rx3_Buff[cnt + 3] == Cell_ID_2)		// ID 2╣° └╠╕ώ
    1f0e:	90 91 e3 43 	lds	r25, 0x43E3	; 0x8043e3 <Cell_ID_2>
    1f12:	89 13       	cpse	r24, r25
    1f14:	14 c0       	rjmp	.+40     	; 0x1f3e <Receiv_PC+0xf0>
				{						// ╜╟╜├░μ ┴ν║╕
					Tx_LED_ON;				// TX LED ON
    1f16:	c4 e2       	ldi	r28, 0x24	; 36
    1f18:	d4 e0       	ldi	r29, 0x04	; 4
    1f1a:	88 81       	ld	r24, Y
    1f1c:	84 60       	ori	r24, 0x04	; 4
    1f1e:	88 83       	st	Y, r24
					Send_To_Server(2, Cell_ID_2);		// ╣τ░╘ Data PC╖╬ └ⁿ╝█
    1f20:	60 91 e3 43 	lds	r22, 0x43E3	; 0x8043e3 <Cell_ID_2>
    1f24:	82 e0       	ldi	r24, 0x02	; 2
    1f26:	0e 94 94 0d 	call	0x1b28	; 0x1b28 <Send_To_Server>
    1f2a:	ec ec       	ldi	r30, 0xCC	; 204
    1f2c:	fc e1       	ldi	r31, 0x1C	; 28
    1f2e:	31 97       	sbiw	r30, 0x01	; 1
    1f30:	f1 f7       	brne	.-4      	; 0x1f2e <Receiv_PC+0xe0>
    1f32:	00 c0       	rjmp	.+0      	; 0x1f34 <Receiv_PC+0xe6>
    1f34:	00 00       	nop
					_delay_ms(2);
					Tx_LED_OFF;				// TX LED OFF
    1f36:	88 81       	ld	r24, Y
    1f38:	8b 7f       	andi	r24, 0xFB	; 251
    1f3a:	88 83       	st	Y, r24
    1f3c:	17 c0       	rjmp	.+46     	; 0x1f6c <Receiv_PC+0x11e>
				}
				else if(Rx3_Buff[cnt + 3] == Cell_ID_3)		// ID 3╣° └╠╕ώ
    1f3e:	90 91 fe 41 	lds	r25, 0x41FE	; 0x8041fe <Cell_ID_3>
    1f42:	89 13       	cpse	r24, r25
    1f44:	13 c0       	rjmp	.+38     	; 0x1f6c <Receiv_PC+0x11e>
				{						// ╜╟╜├░μ ┴ν║╕
					Tx_LED_ON;				// TX LED ON
    1f46:	c4 e2       	ldi	r28, 0x24	; 36
    1f48:	d4 e0       	ldi	r29, 0x04	; 4
    1f4a:	88 81       	ld	r24, Y
    1f4c:	84 60       	ori	r24, 0x04	; 4
    1f4e:	88 83       	st	Y, r24
					Send_To_Server(3, Cell_ID_3);		// ╣τ░╘ Data PC╖╬ └ⁿ╝█
    1f50:	60 91 fe 41 	lds	r22, 0x41FE	; 0x8041fe <Cell_ID_3>
    1f54:	83 e0       	ldi	r24, 0x03	; 3
    1f56:	0e 94 94 0d 	call	0x1b28	; 0x1b28 <Send_To_Server>
    1f5a:	8c ec       	ldi	r24, 0xCC	; 204
    1f5c:	9c e1       	ldi	r25, 0x1C	; 28
    1f5e:	01 97       	sbiw	r24, 0x01	; 1
    1f60:	f1 f7       	brne	.-4      	; 0x1f5e <Receiv_PC+0x110>
    1f62:	00 c0       	rjmp	.+0      	; 0x1f64 <Receiv_PC+0x116>
    1f64:	00 00       	nop
					_delay_ms(2);
					Tx_LED_OFF;				// TX LED OFF
    1f66:	88 81       	ld	r24, Y
    1f68:	8b 7f       	andi	r24, 0xFB	; 251
    1f6a:	88 83       	st	Y, r24
				}
			}
			Rx3_Buff_Clear();					// Rx3 Buff Clear
    1f6c:	0e 94 30 36 	call	0x6c60	; 0x6c60 <Rx3_Buff_Clear>
			Rx_LED_OFF;						// RX LED OFF
    1f70:	e4 e2       	ldi	r30, 0x24	; 36
    1f72:	f4 e0       	ldi	r31, 0x04	; 4
    1f74:	80 81       	ld	r24, Z
    1f76:	87 7f       	andi	r24, 0xF7	; 247
    1f78:	80 83       	st	Z, r24
			break;							// for ╣χ ║ⁿ┴χ │ς░κ▒έ
    1f7a:	5b c1       	rjmp	.+694    	; 0x2232 <Receiv_PC+0x3e4>
		}

		else if(Rx3_Buff[cnt] == STX_Iontec && Rx3_Buff[cnt + 1] == PC2CTL && Rx3_Buff[cnt + 4] == 9 && Rx3_Buff[cnt + 15] == ETX_Iontec)
    1f7c:	80 3f       	cpi	r24, 0xF0	; 240
    1f7e:	09 f0       	breq	.+2      	; 0x1f82 <Receiv_PC+0x134>
    1f80:	a1 c0       	rjmp	.+322    	; 0x20c4 <Receiv_PC+0x276>
    1f82:	f8 01       	movw	r30, r16
    1f84:	e8 51       	subi	r30, 0x18	; 24
    1f86:	fd 4b       	sbci	r31, 0xBD	; 189
    1f88:	90 81       	ld	r25, Z
    1f8a:	91 30       	cpi	r25, 0x01	; 1
    1f8c:	09 f0       	breq	.+2      	; 0x1f90 <Receiv_PC+0x142>
    1f8e:	9a c0       	rjmp	.+308    	; 0x20c4 <Receiv_PC+0x276>
    1f90:	f8 01       	movw	r30, r16
    1f92:	e5 51       	subi	r30, 0x15	; 21
    1f94:	fd 4b       	sbci	r31, 0xBD	; 189
    1f96:	90 81       	ld	r25, Z
    1f98:	99 30       	cpi	r25, 0x09	; 9
    1f9a:	09 f0       	breq	.+2      	; 0x1f9e <Receiv_PC+0x150>
    1f9c:	93 c0       	rjmp	.+294    	; 0x20c4 <Receiv_PC+0x276>
    1f9e:	f8 01       	movw	r30, r16
    1fa0:	ea 50       	subi	r30, 0x0A	; 10
    1fa2:	fd 4b       	sbci	r31, 0xBD	; 189
    1fa4:	90 81       	ld	r25, Z
    1fa6:	91 3f       	cpi	r25, 0xF1	; 241
    1fa8:	09 f0       	breq	.+2      	; 0x1fac <Receiv_PC+0x15e>
    1faa:	8c c0       	rjmp	.+280    	; 0x20c4 <Receiv_PC+0x276>
		{//			    STX				    PC2CTL		    ╜├░μ┴ν║╕║ψ░ό			        ETX
			Rx_LED_ON;						// RX LED ON
    1fac:	e4 e2       	ldi	r30, 0x24	; 36
    1fae:	f4 e0       	ldi	r31, 0x04	; 4
    1fb0:	80 81       	ld	r24, Z
    1fb2:	88 60       	ori	r24, 0x08	; 8
    1fb4:	80 83       	st	Z, r24
			ChkSum = 0;						// ChkSum ├╩▒έ╚φ
    1fb6:	90 e0       	ldi	r25, 0x00	; 0

			for(cnt1 = 1; cnt1 < 14; cnt1++) {ChkSum += Rx3_Buff[cnt + cnt1];}	// ├╝┼σ╜ό ░ϋ╗Ά
    1fb8:	81 e0       	ldi	r24, 0x01	; 1
    1fba:	08 c0       	rjmp	.+16     	; 0x1fcc <Receiv_PC+0x17e>
    1fbc:	f8 01       	movw	r30, r16
    1fbe:	e8 0f       	add	r30, r24
    1fc0:	f1 1d       	adc	r31, r1
    1fc2:	e9 51       	subi	r30, 0x19	; 25
    1fc4:	fd 4b       	sbci	r31, 0xBD	; 189
    1fc6:	20 81       	ld	r18, Z
    1fc8:	92 0f       	add	r25, r18
    1fca:	8f 5f       	subi	r24, 0xFF	; 255
    1fcc:	8e 30       	cpi	r24, 0x0E	; 14
    1fce:	b0 f3       	brcs	.-20     	; 0x1fbc <Receiv_PC+0x16e>

			if(ChkSum == Rx3_Buff[cnt + 14])			// ├╝┼σ╜ό ╚χ└╬
    1fd0:	f8 01       	movw	r30, r16
    1fd2:	eb 50       	subi	r30, 0x0B	; 11
    1fd4:	fd 4b       	sbci	r31, 0xBD	; 189
    1fd6:	80 81       	ld	r24, Z
    1fd8:	98 13       	cpse	r25, r24
    1fda:	6c c0       	rjmp	.+216    	; 0x20b4 <Receiv_PC+0x266>
			{
				RTC_Time_Write(RTC_YEAR,  ((Rx3_Buff[cnt+ 8]&0xF0)>>4)*10+(Rx3_Buff[cnt+ 8]&0x0F));	// RTC ┐κ │έ └·└ί
    1fdc:	f8 01       	movw	r30, r16
    1fde:	e1 51       	subi	r30, 0x11	; 17
    1fe0:	fd 4b       	sbci	r31, 0xBD	; 189
    1fe2:	80 81       	ld	r24, Z
    1fe4:	98 2f       	mov	r25, r24
    1fe6:	92 95       	swap	r25
    1fe8:	9f 70       	andi	r25, 0x0F	; 15
    1fea:	99 0f       	add	r25, r25
    1fec:	69 2f       	mov	r22, r25
    1fee:	66 0f       	add	r22, r22
    1ff0:	66 0f       	add	r22, r22
    1ff2:	96 0f       	add	r25, r22
    1ff4:	8f 70       	andi	r24, 0x0F	; 15
    1ff6:	69 2f       	mov	r22, r25
    1ff8:	68 0f       	add	r22, r24
    1ffa:	86 e0       	ldi	r24, 0x06	; 6
    1ffc:	0e 94 58 32 	call	0x64b0	; 0x64b0 <RTC_Time_Write>
				RTC_Time_Write(RTC_MONTH, ((Rx3_Buff[cnt+ 9]&0xF0)>>4)*10+(Rx3_Buff[cnt+ 9]&0x0F));	// RTC ┐κ ┐∙ └·└ί
    2000:	f8 01       	movw	r30, r16
    2002:	e0 51       	subi	r30, 0x10	; 16
    2004:	fd 4b       	sbci	r31, 0xBD	; 189
    2006:	80 81       	ld	r24, Z
    2008:	98 2f       	mov	r25, r24
    200a:	92 95       	swap	r25
    200c:	9f 70       	andi	r25, 0x0F	; 15
    200e:	99 0f       	add	r25, r25
    2010:	69 2f       	mov	r22, r25
    2012:	66 0f       	add	r22, r22
    2014:	66 0f       	add	r22, r22
    2016:	96 0f       	add	r25, r22
    2018:	8f 70       	andi	r24, 0x0F	; 15
    201a:	69 2f       	mov	r22, r25
    201c:	68 0f       	add	r22, r24
    201e:	85 e0       	ldi	r24, 0x05	; 5
    2020:	0e 94 58 32 	call	0x64b0	; 0x64b0 <RTC_Time_Write>
				RTC_Time_Write(RTC_DATE,  ((Rx3_Buff[cnt+10]&0xF0)>>4)*10+(Rx3_Buff[cnt+10]&0x0F));	// RTC ┐κ └╧ └·└ί
    2024:	f8 01       	movw	r30, r16
    2026:	ef 50       	subi	r30, 0x0F	; 15
    2028:	fd 4b       	sbci	r31, 0xBD	; 189
    202a:	80 81       	ld	r24, Z
    202c:	98 2f       	mov	r25, r24
    202e:	92 95       	swap	r25
    2030:	9f 70       	andi	r25, 0x0F	; 15
    2032:	99 0f       	add	r25, r25
    2034:	69 2f       	mov	r22, r25
    2036:	66 0f       	add	r22, r22
    2038:	66 0f       	add	r22, r22
    203a:	96 0f       	add	r25, r22
    203c:	8f 70       	andi	r24, 0x0F	; 15
    203e:	69 2f       	mov	r22, r25
    2040:	68 0f       	add	r22, r24
    2042:	84 e0       	ldi	r24, 0x04	; 4
    2044:	0e 94 58 32 	call	0x64b0	; 0x64b0 <RTC_Time_Write>
				RTC_Time_Write(RTC_HOUR,  ((Rx3_Buff[cnt+11]&0xF0)>>4)*10+(Rx3_Buff[cnt+11]&0x0F));	// RTC ┐κ ╜├ └·└ί
    2048:	f8 01       	movw	r30, r16
    204a:	ee 50       	subi	r30, 0x0E	; 14
    204c:	fd 4b       	sbci	r31, 0xBD	; 189
    204e:	80 81       	ld	r24, Z
    2050:	98 2f       	mov	r25, r24
    2052:	92 95       	swap	r25
    2054:	9f 70       	andi	r25, 0x0F	; 15
    2056:	99 0f       	add	r25, r25
    2058:	69 2f       	mov	r22, r25
    205a:	66 0f       	add	r22, r22
    205c:	66 0f       	add	r22, r22
    205e:	96 0f       	add	r25, r22
    2060:	8f 70       	andi	r24, 0x0F	; 15
    2062:	69 2f       	mov	r22, r25
    2064:	68 0f       	add	r22, r24
    2066:	82 e0       	ldi	r24, 0x02	; 2
    2068:	0e 94 58 32 	call	0x64b0	; 0x64b0 <RTC_Time_Write>
				RTC_Time_Write(RTC_MINUTE,((Rx3_Buff[cnt+12]&0xF0)>>4)*10+(Rx3_Buff[cnt+12]&0x0F));	// RTC ┐κ ║╨ └·└ί
    206c:	f8 01       	movw	r30, r16
    206e:	ed 50       	subi	r30, 0x0D	; 13
    2070:	fd 4b       	sbci	r31, 0xBD	; 189
    2072:	80 81       	ld	r24, Z
    2074:	98 2f       	mov	r25, r24
    2076:	92 95       	swap	r25
    2078:	9f 70       	andi	r25, 0x0F	; 15
    207a:	99 0f       	add	r25, r25
    207c:	69 2f       	mov	r22, r25
    207e:	66 0f       	add	r22, r22
    2080:	66 0f       	add	r22, r22
    2082:	96 0f       	add	r25, r22
    2084:	8f 70       	andi	r24, 0x0F	; 15
    2086:	69 2f       	mov	r22, r25
    2088:	68 0f       	add	r22, r24
    208a:	81 e0       	ldi	r24, 0x01	; 1
    208c:	0e 94 58 32 	call	0x64b0	; 0x64b0 <RTC_Time_Write>
				RTC_Time_Write(RTC_SECOND,((Rx3_Buff[cnt+13]&0xF0)>>4)*10+(Rx3_Buff[cnt+13]&0x0F));	// RTC ┐κ ├╩ └·└ί
    2090:	f8 01       	movw	r30, r16
    2092:	ec 50       	subi	r30, 0x0C	; 12
    2094:	fd 4b       	sbci	r31, 0xBD	; 189
    2096:	80 81       	ld	r24, Z
    2098:	98 2f       	mov	r25, r24
    209a:	92 95       	swap	r25
    209c:	9f 70       	andi	r25, 0x0F	; 15
    209e:	99 0f       	add	r25, r25
    20a0:	69 2f       	mov	r22, r25
    20a2:	66 0f       	add	r22, r22
    20a4:	66 0f       	add	r22, r22
    20a6:	96 0f       	add	r25, r22
    20a8:	8f 70       	andi	r24, 0x0F	; 15
    20aa:	69 2f       	mov	r22, r25
    20ac:	68 0f       	add	r22, r24
    20ae:	80 e0       	ldi	r24, 0x00	; 0
    20b0:	0e 94 58 32 	call	0x64b0	; 0x64b0 <RTC_Time_Write>
			}
			Rx3_Buff_Clear();					// Rx3 Buff Clear
    20b4:	0e 94 30 36 	call	0x6c60	; 0x6c60 <Rx3_Buff_Clear>
			Rx_LED_OFF;						// RX LED OFF
    20b8:	e4 e2       	ldi	r30, 0x24	; 36
    20ba:	f4 e0       	ldi	r31, 0x04	; 4
    20bc:	80 81       	ld	r24, Z
    20be:	87 7f       	andi	r24, 0xF7	; 247
    20c0:	80 83       	st	Z, r24
			break;							// for ╣χ ║ⁿ┴χ │ς░κ▒έ
    20c2:	b7 c0       	rjmp	.+366    	; 0x2232 <Receiv_PC+0x3e4>
		}

		else if(Rx3_Buff[cnt] == STX_Iontec && Rx3_Buff[cnt + 1] == PC2CTL && Rx3_Buff[cnt + 2] == 0x01 && Rx3_Buff[cnt + 4] == 7 && Rx3_Buff[cnt + 31] == ETX_Iontec)
    20c4:	80 3f       	cpi	r24, 0xF0	; 240
    20c6:	09 f0       	breq	.+2      	; 0x20ca <Receiv_PC+0x27c>
    20c8:	b0 c0       	rjmp	.+352    	; 0x222a <Receiv_PC+0x3dc>
    20ca:	f8 01       	movw	r30, r16
    20cc:	e8 51       	subi	r30, 0x18	; 24
    20ce:	fd 4b       	sbci	r31, 0xBD	; 189
    20d0:	80 81       	ld	r24, Z
    20d2:	81 30       	cpi	r24, 0x01	; 1
    20d4:	09 f0       	breq	.+2      	; 0x20d8 <Receiv_PC+0x28a>
    20d6:	a9 c0       	rjmp	.+338    	; 0x222a <Receiv_PC+0x3dc>
    20d8:	f8 01       	movw	r30, r16
    20da:	e7 51       	subi	r30, 0x17	; 23
    20dc:	fd 4b       	sbci	r31, 0xBD	; 189
    20de:	80 81       	ld	r24, Z
    20e0:	81 30       	cpi	r24, 0x01	; 1
    20e2:	09 f0       	breq	.+2      	; 0x20e6 <Receiv_PC+0x298>
    20e4:	a2 c0       	rjmp	.+324    	; 0x222a <Receiv_PC+0x3dc>
    20e6:	78 01       	movw	r14, r16
    20e8:	94 e0       	ldi	r25, 0x04	; 4
    20ea:	e9 0e       	add	r14, r25
    20ec:	f1 1c       	adc	r15, r1
    20ee:	f7 01       	movw	r30, r14
    20f0:	e9 51       	subi	r30, 0x19	; 25
    20f2:	fd 4b       	sbci	r31, 0xBD	; 189
    20f4:	80 81       	ld	r24, Z
    20f6:	87 30       	cpi	r24, 0x07	; 7
    20f8:	09 f0       	breq	.+2      	; 0x20fc <Receiv_PC+0x2ae>
    20fa:	97 c0       	rjmp	.+302    	; 0x222a <Receiv_PC+0x3dc>
    20fc:	f8 01       	movw	r30, r16
    20fe:	ea 5f       	subi	r30, 0xFA	; 250
    2100:	fc 4b       	sbci	r31, 0xBC	; 188
    2102:	80 81       	ld	r24, Z
    2104:	81 3f       	cpi	r24, 0xF1	; 241
    2106:	09 f0       	breq	.+2      	; 0x210a <Receiv_PC+0x2bc>
    2108:	90 c0       	rjmp	.+288    	; 0x222a <Receiv_PC+0x3dc>
		{//			     STX			    PC2CTL			  ╝▒║░▒έ		╝│┴ν┴ν║╕(└╘▒╕├╝┴▀)		       ETX
			Rx_LED_ON;							// RX LED ON
    210a:	e4 e2       	ldi	r30, 0x24	; 36
    210c:	f4 e0       	ldi	r31, 0x04	; 4
    210e:	80 81       	ld	r24, Z
    2110:	88 60       	ori	r24, 0x08	; 8
    2112:	80 83       	st	Z, r24
			ChkSum = 0;							// ChkSum ├╩▒έ╚φ
    2114:	90 e0       	ldi	r25, 0x00	; 0

			for(cnt1 = 1; cnt1 < 30; cnt1++) {ChkSum += Rx3_Buff[cnt + cnt1];}	// ├╝┼σ╜ό ░ϋ╗Ά
    2116:	81 e0       	ldi	r24, 0x01	; 1
    2118:	08 c0       	rjmp	.+16     	; 0x212a <Receiv_PC+0x2dc>
    211a:	f8 01       	movw	r30, r16
    211c:	e8 0f       	add	r30, r24
    211e:	f1 1d       	adc	r31, r1
    2120:	e9 51       	subi	r30, 0x19	; 25
    2122:	fd 4b       	sbci	r31, 0xBD	; 189
    2124:	20 81       	ld	r18, Z
    2126:	92 0f       	add	r25, r18
    2128:	8f 5f       	subi	r24, 0xFF	; 255
    212a:	8e 31       	cpi	r24, 0x1E	; 30
    212c:	b0 f3       	brcs	.-20     	; 0x211a <Receiv_PC+0x2cc>

			if(ChkSum == Rx3_Buff[cnt + 30])				// ├╝┼σ╜ό ╚χ└╬
    212e:	f8 01       	movw	r30, r16
    2130:	eb 5f       	subi	r30, 0xFB	; 251
    2132:	fc 4b       	sbci	r31, 0xBC	; 188
    2134:	80 81       	ld	r24, Z
    2136:	98 13       	cpse	r25, r24
    2138:	78 c0       	rjmp	.+240    	; 0x222a <Receiv_PC+0x3dc>
			{
				IN_S = Rx3_Buff[cnt + 8] << 8 & Rx3_Buff[cnt + 8];	// └╘▒╕├╝┴▀ ░ς ║ψ╚ψ
    213a:	60 e0       	ldi	r22, 0x00	; 0
    213c:	70 e0       	ldi	r23, 0x00	; 0
    213e:	60 93 e1 43 	sts	0x43E1, r22	; 0x8043e1 <IN_S>
    2142:	70 93 e2 43 	sts	0x43E2, r23	; 0x8043e2 <IN_S+0x1>

				if(Rx3_Buff[cnt + 3] == Cell_ID_1)			// Cell ID 1╣° └╠╕ώ
    2146:	f8 01       	movw	r30, r16
    2148:	e6 51       	subi	r30, 0x16	; 22
    214a:	fd 4b       	sbci	r31, 0xBD	; 189
    214c:	80 81       	ld	r24, Z
    214e:	90 91 a5 41 	lds	r25, 0x41A5	; 0x8041a5 <Cell_ID_1>
    2152:	89 13       	cpse	r24, r25
    2154:	21 c0       	rjmp	.+66     	; 0x2198 <Receiv_PC+0x34a>
				{
					IN_Weight_1 = IN_S;				// └╘▒╕├╝┴▀ ░ς└╗ ╖╬╡ί╝┐ 1╣°┐κ └√┐Έ
    2156:	60 93 ec 43 	sts	0x43EC, r22	; 0x8043ec <IN_Weight_1>
    215a:	70 93 ed 43 	sts	0x43ED, r23	; 0x8043ed <IN_Weight_1+0x1>
					ee_write_word(Cell_IN_S_1_Addr, IN_S);		// └╘▒╕├╝┴▀ ░ς└╗ EEPROM┐κ └·└ί
    215e:	80 e1       	ldi	r24, 0x10	; 16
    2160:	90 e0       	ldi	r25, 0x00	; 0
    2162:	0e 94 8f 13 	call	0x271e	; 0x271e <ee_write_word>
					Tx_LED_ON;					// TX LED ON
    2166:	04 e2       	ldi	r16, 0x24	; 36
    2168:	14 e0       	ldi	r17, 0x04	; 4
    216a:	f8 01       	movw	r30, r16
    216c:	80 81       	ld	r24, Z
    216e:	84 60       	ori	r24, 0x04	; 4
    2170:	80 83       	st	Z, r24
					Send_To_Server_1(Cell_ID_1, Rx3_Buff[cnt + 4]);	// ╝│┴ν┴ν║╕ PC╖╬ └ⁿ╝█
    2172:	f7 01       	movw	r30, r14
    2174:	e9 51       	subi	r30, 0x19	; 25
    2176:	fd 4b       	sbci	r31, 0xBD	; 189
    2178:	60 81       	ld	r22, Z
    217a:	80 91 a5 41 	lds	r24, 0x41A5	; 0x8041a5 <Cell_ID_1>
    217e:	0e 94 3f 0b 	call	0x167e	; 0x167e <Send_To_Server_1>
    2182:	8c ec       	ldi	r24, 0xCC	; 204
    2184:	9c e1       	ldi	r25, 0x1C	; 28
    2186:	01 97       	sbiw	r24, 0x01	; 1
    2188:	f1 f7       	brne	.-4      	; 0x2186 <Receiv_PC+0x338>
    218a:	00 c0       	rjmp	.+0      	; 0x218c <Receiv_PC+0x33e>
    218c:	00 00       	nop
					_delay_ms(2);
					Tx_LED_OFF;					// TX LED OFF
    218e:	f8 01       	movw	r30, r16
    2190:	80 81       	ld	r24, Z
    2192:	8b 7f       	andi	r24, 0xFB	; 251
    2194:	80 83       	st	Z, r24
    2196:	49 c0       	rjmp	.+146    	; 0x222a <Receiv_PC+0x3dc>
				}

				else if(Rx3_Buff[cnt + 3] == Cell_ID_2)			// Cell ID 2╣° └╠╕ώ
    2198:	90 91 e3 43 	lds	r25, 0x43E3	; 0x8043e3 <Cell_ID_2>
    219c:	89 13       	cpse	r24, r25
    219e:	21 c0       	rjmp	.+66     	; 0x21e2 <Receiv_PC+0x394>
				{
					IN_Weight_2 = IN_S;				// └╘▒╕├╝┴▀ ░ς└╗ ╖╬╡ί╝┐ 2╣°┐κ └√┐Έ
    21a0:	60 93 01 42 	sts	0x4201, r22	; 0x804201 <IN_Weight_2>
    21a4:	70 93 02 42 	sts	0x4202, r23	; 0x804202 <IN_Weight_2+0x1>
					ee_write_word(Cell_IN_S_2_Addr, IN_S);		// └╘▒╕├╝┴▀ ░ς└╗ EEPROM┐κ └·└ί
    21a8:	82 e1       	ldi	r24, 0x12	; 18
    21aa:	90 e0       	ldi	r25, 0x00	; 0
    21ac:	0e 94 8f 13 	call	0x271e	; 0x271e <ee_write_word>
					Tx_LED_ON;					// TX LED ON
    21b0:	04 e2       	ldi	r16, 0x24	; 36
    21b2:	14 e0       	ldi	r17, 0x04	; 4
    21b4:	f8 01       	movw	r30, r16
    21b6:	80 81       	ld	r24, Z
    21b8:	84 60       	ori	r24, 0x04	; 4
    21ba:	80 83       	st	Z, r24
					Send_To_Server_1(Cell_ID_2, Rx3_Buff[cnt + 4]);	// ╝│┴ν┴ν║╕ PC╖╬ └ⁿ╝█
    21bc:	f7 01       	movw	r30, r14
    21be:	e9 51       	subi	r30, 0x19	; 25
    21c0:	fd 4b       	sbci	r31, 0xBD	; 189
    21c2:	60 81       	ld	r22, Z
    21c4:	80 91 e3 43 	lds	r24, 0x43E3	; 0x8043e3 <Cell_ID_2>
    21c8:	0e 94 3f 0b 	call	0x167e	; 0x167e <Send_To_Server_1>
    21cc:	8c ec       	ldi	r24, 0xCC	; 204
    21ce:	9c e1       	ldi	r25, 0x1C	; 28
    21d0:	01 97       	sbiw	r24, 0x01	; 1
    21d2:	f1 f7       	brne	.-4      	; 0x21d0 <Receiv_PC+0x382>
    21d4:	00 c0       	rjmp	.+0      	; 0x21d6 <Receiv_PC+0x388>
    21d6:	00 00       	nop
					_delay_ms(2);
					Tx_LED_OFF;					// TX LED OFF
    21d8:	f8 01       	movw	r30, r16
    21da:	80 81       	ld	r24, Z
    21dc:	8b 7f       	andi	r24, 0xFB	; 251
    21de:	80 83       	st	Z, r24
    21e0:	24 c0       	rjmp	.+72     	; 0x222a <Receiv_PC+0x3dc>
				}

				else if(Rx3_Buff[cnt + 3] == Cell_ID_3)			// Cell ID 3╣° └╠╕ώ
    21e2:	90 91 fe 41 	lds	r25, 0x41FE	; 0x8041fe <Cell_ID_3>
    21e6:	89 13       	cpse	r24, r25
    21e8:	20 c0       	rjmp	.+64     	; 0x222a <Receiv_PC+0x3dc>
				{
					IN_Weight_3 = IN_S;				// └╘▒╕├╝┴▀ ░ς└╗ ╖╬╡ί╝┐ 3╣°┐κ └√┐Έ
    21ea:	60 93 68 42 	sts	0x4268, r22	; 0x804268 <IN_Weight_3>
    21ee:	70 93 69 42 	sts	0x4269, r23	; 0x804269 <IN_Weight_3+0x1>
					ee_write_word(Cell_IN_S_3_Addr, IN_S);		// └╘▒╕├╝┴▀ ░ς└╗ EEPROM┐κ └·└ί
    21f2:	84 e1       	ldi	r24, 0x14	; 20
    21f4:	90 e0       	ldi	r25, 0x00	; 0
    21f6:	0e 94 8f 13 	call	0x271e	; 0x271e <ee_write_word>
					Tx_LED_ON;					// TX LED ON
    21fa:	04 e2       	ldi	r16, 0x24	; 36
    21fc:	14 e0       	ldi	r17, 0x04	; 4
    21fe:	f8 01       	movw	r30, r16
    2200:	80 81       	ld	r24, Z
    2202:	84 60       	ori	r24, 0x04	; 4
    2204:	80 83       	st	Z, r24
					Send_To_Server_1(Cell_ID_3, Rx3_Buff[cnt + 4]);	// ╝│┴ν┴ν║╕ PC╖╬ └ⁿ╝█
    2206:	f7 01       	movw	r30, r14
    2208:	e9 51       	subi	r30, 0x19	; 25
    220a:	fd 4b       	sbci	r31, 0xBD	; 189
    220c:	60 81       	ld	r22, Z
    220e:	80 91 fe 41 	lds	r24, 0x41FE	; 0x8041fe <Cell_ID_3>
    2212:	0e 94 3f 0b 	call	0x167e	; 0x167e <Send_To_Server_1>
    2216:	8c ec       	ldi	r24, 0xCC	; 204
    2218:	9c e1       	ldi	r25, 0x1C	; 28
    221a:	01 97       	sbiw	r24, 0x01	; 1
    221c:	f1 f7       	brne	.-4      	; 0x221a <Receiv_PC+0x3cc>
    221e:	00 c0       	rjmp	.+0      	; 0x2220 <Receiv_PC+0x3d2>
    2220:	00 00       	nop
					_delay_ms(2);
					Tx_LED_OFF;					// TX LED OFF
    2222:	f8 01       	movw	r30, r16
    2224:	80 81       	ld	r24, Z
    2226:	8b 7f       	andi	r24, 0xFB	; 251
    2228:	80 83       	st	Z, r24
void Receiv_PC(void)								// PC╖╬ ║╬┼═ ╡ξ└╠┼═╝÷╜┼
{
	uint8_t cnt1;								// cnt1 ║ψ╝÷ ├╩▒έ╚φ
	uint8_t ChkSum = 0;							// ChkSum ║ψ╝÷ ├╩▒έ╚φ

	for(uint8_t cnt = 0; cnt < RX3_SIZE; cnt++)				// RX3_SIZE ╕╕┼φ ╣▌║╣
    222a:	cf 5f       	subi	r28, 0xFF	; 255
    222c:	ca 3f       	cpi	r28, 0xFA	; 250
    222e:	08 f4       	brcc	.+2      	; 0x2232 <Receiv_PC+0x3e4>
    2230:	16 ce       	rjmp	.-980    	; 0x1e5e <Receiv_PC+0x10>
					Tx_LED_OFF;					// TX LED OFF
				}
			}
		}
	}
}
    2232:	df 91       	pop	r29
    2234:	cf 91       	pop	r28
    2236:	1f 91       	pop	r17
    2238:	0f 91       	pop	r16
    223a:	ff 90       	pop	r15
    223c:	ef 90       	pop	r14
    223e:	08 95       	ret

00002240 <main>:
}

//=================================================================================================
int main(void)
{
	atmel_start_init();
    2240:	0e 94 38 04 	call	0x870	; 0x870 <atmel_start_init>
	MCU_Init();								// MCU Port ├╩▒έ╚φ
    2244:	0e 94 2d 05 	call	0xa5a	; 0xa5a <MCU_Init>
//-------------------------------------------------------------------------------------------------
#ifdef USART_SET								// USART ╗ύ┐Έ╝│┴ν
	fdevopen(std_putchar, NULL);						// printf ╟╘╝÷╗ύ┐Έ ╝│┴ν
    2248:	60 e0       	ldi	r22, 0x00	; 0
    224a:	70 e0       	ldi	r23, 0x00	; 0
    224c:	89 e1       	ldi	r24, 0x19	; 25
    224e:	95 e0       	ldi	r25, 0x05	; 5
    2250:	0e 94 46 46 	call	0x8c8c	; 0x8c8c <fdevopen>
	printf_port = 1;							// Usart Port 1 ╗ύ┐Έ
    2254:	81 e0       	ldi	r24, 0x01	; 1
    2256:	80 93 7f 42 	sts	0x427F, r24	; 0x80427f <printf_port>
    225a:	2f ef       	ldi	r18, 0xFF	; 255
    225c:	8f e3       	ldi	r24, 0x3F	; 63
    225e:	92 e0       	ldi	r25, 0x02	; 2
    2260:	21 50       	subi	r18, 0x01	; 1
    2262:	80 40       	sbci	r24, 0x00	; 0
    2264:	90 40       	sbci	r25, 0x00	; 0
    2266:	e1 f7       	brne	.-8      	; 0x2260 <main+0x20>
    2268:	00 c0       	rjmp	.+0      	; 0x226a <main+0x2a>
    226a:	00 00       	nop
	_delay_ms(50);

	printf("\r\n");
    226c:	8b ef       	ldi	r24, 0xFB	; 251
    226e:	90 e4       	ldi	r25, 0x40	; 64
    2270:	0e 94 e1 46 	call	0x8dc2	; 0x8dc2 <puts>
	printf("//=================================================//\r\n");
    2274:	85 e5       	ldi	r24, 0x55	; 85
    2276:	90 e4       	ldi	r25, 0x40	; 64
    2278:	0e 94 e1 46 	call	0x8dc2	; 0x8dc2 <puts>
	printf("//===  Product Name : Pig Scales 1 V%d.%d(SC-500) ===//\r\n",FW_VER / 10, FW_VER % 10);	// ProductName
    227c:	1f 92       	push	r1
    227e:	83 e0       	ldi	r24, 0x03	; 3
    2280:	8f 93       	push	r24
    2282:	1f 92       	push	r1
    2284:	8f 93       	push	r24
    2286:	8c e8       	ldi	r24, 0x8C	; 140
    2288:	90 e4       	ldi	r25, 0x40	; 64
    228a:	9f 93       	push	r25
    228c:	8f 93       	push	r24
    228e:	0e 94 cd 46 	call	0x8d9a	; 0x8d9a <printf>
	printf("//===  File Content : Moving Weight Scales      ===//\r\n");				// File │╗┐Έ : └╠╡┐╟ⁿ ├╝┴▀ ├°┴ν▒έ
    2292:	86 ec       	ldi	r24, 0xC6	; 198
    2294:	90 e4       	ldi	r25, 0x40	; 64
    2296:	0e 94 e1 46 	call	0x8dc2	; 0x8dc2 <puts>
	printf("//===  Compiled     : %s, %s     ===//\r\n", __DATE__, __TIME__);			// Compiled : │ψ┬ξ, ╜├░μ ╟ξ╜├
    229a:	8d ef       	ldi	r24, 0xFD	; 253
    229c:	90 e4       	ldi	r25, 0x40	; 64
    229e:	9f 93       	push	r25
    22a0:	8f 93       	push	r24
    22a2:	86 e0       	ldi	r24, 0x06	; 6
    22a4:	91 e4       	ldi	r25, 0x41	; 65
    22a6:	9f 93       	push	r25
    22a8:	8f 93       	push	r24
    22aa:	82 e1       	ldi	r24, 0x12	; 18
    22ac:	91 e4       	ldi	r25, 0x41	; 65
    22ae:	9f 93       	push	r25
    22b0:	8f 93       	push	r24
    22b2:	0e 94 cd 46 	call	0x8d9a	; 0x8d9a <printf>
	printf("//=================================================//\r\n");
    22b6:	85 e5       	ldi	r24, 0x55	; 85
    22b8:	90 e4       	ldi	r25, 0x40	; 64
    22ba:	0e 94 e1 46 	call	0x8dc2	; 0x8dc2 <puts>
	printf("\r\n");
    22be:	8b ef       	ldi	r24, 0xFB	; 251
    22c0:	90 e4       	ldi	r25, 0x40	; 64
    22c2:	0e 94 e1 46 	call	0x8dc2	; 0x8dc2 <puts>
// #ifdef PWM_SET									// PWM ╗ύ┐Έ╝│┴ν
// 	PWM_0_enable();								// PWM 0 ├╩▒έ╚φ ╣╫ ╝│┴ν
// 	PWM_0_enable_output_ch0();
// #endif
//-------------------------------------------------------------------------------------------------
	sei();									// └ⁿ├╝ └╬┼═╖┤┼═ ╜├└█
    22c6:	78 94       	sei
	Alarm();								// ╛╦╢≈(║±╟┴ 3╣°)
    22c8:	0e 94 c0 08 	call	0x1180	; 0x1180 <Alarm>
	Rx_LED_OFF;								// RX LED OFF
    22cc:	e4 e2       	ldi	r30, 0x24	; 36
    22ce:	f4 e0       	ldi	r31, 0x04	; 4
    22d0:	80 81       	ld	r24, Z
    22d2:	87 7f       	andi	r24, 0xF7	; 247
    22d4:	80 83       	st	Z, r24
	Tx_LED_OFF;								// TX LED OFF
    22d6:	80 81       	ld	r24, Z
    22d8:	8b 7f       	andi	r24, 0xFB	; 251
    22da:	80 83       	st	Z, r24
//-------------------------------------------------------------------------------------------------
	DIGIT[0][3] = FND_OFF;							// ╞▀┐■╛Ό ╣÷┴ψ ╟ξ╜├
    22dc:	ef e6       	ldi	r30, 0x6F	; 111
    22de:	f1 e4       	ldi	r31, 0x41	; 65
    22e0:	13 82       	std	Z+3, r1	; 0x03
	DIGIT[0][2] = fnd_tbl[FW_VER / 10] + FND_Point;
    22e2:	83 ef       	ldi	r24, 0xF3	; 243
    22e4:	82 83       	std	Z+2, r24	; 0x02
	DIGIT[0][1] = fnd_tbl[FW_VER % 10];
    22e6:	82 ef       	ldi	r24, 0xF2	; 242
    22e8:	81 83       	std	Z+1, r24	; 0x01
	DIGIT[0][0] = FND_OFF;
    22ea:	10 82       	st	Z, r1
    22ec:	2f ef       	ldi	r18, 0xFF	; 255
    22ee:	8f ef       	ldi	r24, 0xFF	; 255
    22f0:	9c e2       	ldi	r25, 0x2C	; 44
    22f2:	21 50       	subi	r18, 0x01	; 1
    22f4:	80 40       	sbci	r24, 0x00	; 0
    22f6:	90 40       	sbci	r25, 0x00	; 0
    22f8:	e1 f7       	brne	.-8      	; 0x22f2 <main+0xb2>
    22fa:	00 c0       	rjmp	.+0      	; 0x22fc <main+0xbc>
    22fc:	00 00       	nop
	_delay_ms(1000);							// 1├╩ ╡┐╛╚ ╟ξ╜├	
	wdt_reset();								// Reset WT
    22fe:	0e 94 ef 0c 	call	0x19de	; 0x19de <wdt_reset>

	uint8_t Time_Count = 5;							// ╜├░μ ╟ξ╜├ ┐Έ ║ψ╝÷ ╝│┴ν
	uint8_t SECOND = 0;							// └╠└ⁿ ╜├░μ(├╩)┐Έ ║ψ╝÷ ╝│┴ν
 	Read_eeprom();
    2302:	0e 94 94 06 	call	0xd28	; 0xd28 <Read_eeprom>
//-------------------------------------------------------------------------------------------------

	while(Time_Count)							// Time_Count ░κ 0└╠ ╛╞┤╧╕ώ ╣▌║╣(5├╩╡┐╛╚ ╜├░μ╟ξ╜├)
    2306:	8d b7       	in	r24, 0x3d	; 61
    2308:	9e b7       	in	r25, 0x3e	; 62
    230a:	0c 96       	adiw	r24, 0x0c	; 12
    230c:	8d bf       	out	0x3d, r24	; 61
    230e:	9e bf       	out	0x3e, r25	; 62
	DIGIT[0][0] = FND_OFF;
	_delay_ms(1000);							// 1├╩ ╡┐╛╚ ╟ξ╜├	
	wdt_reset();								// Reset WT

	uint8_t Time_Count = 5;							// ╜├░μ ╟ξ╜├ ┐Έ ║ψ╝÷ ╝│┴ν
	uint8_t SECOND = 0;							// └╠└ⁿ ╜├░μ(├╩)┐Έ ║ψ╝÷ ╝│┴ν
    2310:	10 e0       	ldi	r17, 0x00	; 0
	DIGIT[0][1] = fnd_tbl[FW_VER % 10];
	DIGIT[0][0] = FND_OFF;
	_delay_ms(1000);							// 1├╩ ╡┐╛╚ ╟ξ╜├	
	wdt_reset();								// Reset WT

	uint8_t Time_Count = 5;							// ╜├░μ ╟ξ╜├ ┐Έ ║ψ╝÷ ╝│┴ν
    2312:	0f 2e       	mov	r0, r31
    2314:	f5 e0       	ldi	r31, 0x05	; 5
    2316:	ff 2e       	mov	r15, r31
    2318:	f0 2d       	mov	r31, r0
	uint8_t SECOND = 0;							// └╠└ⁿ ╜├░μ(├╩)┐Έ ║ψ╝÷ ╝│┴ν
 	Read_eeprom();
//-------------------------------------------------------------------------------------------------

	while(Time_Count)							// Time_Count ░κ 0└╠ ╛╞┤╧╕ώ ╣▌║╣(5├╩╡┐╛╚ ╜├░μ╟ξ╜├)
    231a:	a6 c0       	rjmp	.+332    	; 0x2468 <main+0x228>
	{
		RTC_Time_Read();						// RTC Data └╨▒έ
    231c:	0e 94 1d 32 	call	0x643a	; 0x643a <RTC_Time_Read>

		DIGIT[0][3] = fnd_tbl[RTC_T.Year / 10];				// │έ ╟ξ╜├
    2320:	cb e6       	ldi	r28, 0x6B	; 107
    2322:	d2 e4       	ldi	r29, 0x42	; 66
    2324:	9e 81       	ldd	r25, Y+6	; 0x06
    2326:	8d ec       	ldi	r24, 0xCD	; 205
    2328:	98 9f       	mul	r25, r24
    232a:	41 2d       	mov	r20, r1
    232c:	11 24       	eor	r1, r1
    232e:	46 95       	lsr	r20
    2330:	46 95       	lsr	r20
    2332:	46 95       	lsr	r20
    2334:	e4 2f       	mov	r30, r20
    2336:	f0 e0       	ldi	r31, 0x00	; 0
    2338:	e5 5c       	subi	r30, 0xC5	; 197
    233a:	fe 4b       	sbci	r31, 0xBE	; 190
    233c:	50 81       	ld	r21, Z
    233e:	ef e6       	ldi	r30, 0x6F	; 111
    2340:	f1 e4       	ldi	r31, 0x41	; 65
    2342:	53 83       	std	Z+3, r21	; 0x03
		DIGIT[0][2] = fnd_tbl[RTC_T.Year % 10];
    2344:	44 0f       	add	r20, r20
    2346:	54 2f       	mov	r21, r20
    2348:	55 0f       	add	r21, r21
    234a:	55 0f       	add	r21, r21
    234c:	45 0f       	add	r20, r21
    234e:	a9 2f       	mov	r26, r25
    2350:	a4 1b       	sub	r26, r20
    2352:	b0 e0       	ldi	r27, 0x00	; 0
    2354:	a5 5c       	subi	r26, 0xC5	; 197
    2356:	be 4b       	sbci	r27, 0xBE	; 190
    2358:	9c 91       	ld	r25, X
    235a:	92 83       	std	Z+2, r25	; 0x02

		DIGIT[0][1] = fnd_tbl[RTC_T.Month / 10];			// ┐∙ ╟ξ╜├
    235c:	9d 81       	ldd	r25, Y+5	; 0x05
    235e:	98 9f       	mul	r25, r24
    2360:	41 2d       	mov	r20, r1
    2362:	11 24       	eor	r1, r1
    2364:	46 95       	lsr	r20
    2366:	46 95       	lsr	r20
    2368:	46 95       	lsr	r20
    236a:	a4 2f       	mov	r26, r20
    236c:	b0 e0       	ldi	r27, 0x00	; 0
    236e:	a5 5c       	subi	r26, 0xC5	; 197
    2370:	be 4b       	sbci	r27, 0xBE	; 190
    2372:	5c 91       	ld	r21, X
    2374:	51 83       	std	Z+1, r21	; 0x01
		DIGIT[0][0] = fnd_tbl[RTC_T.Month % 10];
    2376:	44 0f       	add	r20, r20
    2378:	54 2f       	mov	r21, r20
    237a:	55 0f       	add	r21, r21
    237c:	55 0f       	add	r21, r21
    237e:	45 0f       	add	r20, r21
    2380:	a9 2f       	mov	r26, r25
    2382:	a4 1b       	sub	r26, r20
    2384:	b0 e0       	ldi	r27, 0x00	; 0
    2386:	a5 5c       	subi	r26, 0xC5	; 197
    2388:	be 4b       	sbci	r27, 0xBE	; 190
    238a:	9c 91       	ld	r25, X
    238c:	90 83       	st	Z, r25

		DIGIT[1][3] = fnd_tbl[RTC_T.Date / 10];				// └╧ ╟ξ╜├
    238e:	9c 81       	ldd	r25, Y+4	; 0x04
    2390:	98 9f       	mul	r25, r24
    2392:	41 2d       	mov	r20, r1
    2394:	11 24       	eor	r1, r1
    2396:	46 95       	lsr	r20
    2398:	46 95       	lsr	r20
    239a:	46 95       	lsr	r20
    239c:	a4 2f       	mov	r26, r20
    239e:	b0 e0       	ldi	r27, 0x00	; 0
    23a0:	a5 5c       	subi	r26, 0xC5	; 197
    23a2:	be 4b       	sbci	r27, 0xBE	; 190
    23a4:	5c 91       	ld	r21, X
    23a6:	57 83       	std	Z+7, r21	; 0x07
		DIGIT[1][2] = fnd_tbl[RTC_T.Date % 10];
    23a8:	44 0f       	add	r20, r20
    23aa:	54 2f       	mov	r21, r20
    23ac:	55 0f       	add	r21, r21
    23ae:	55 0f       	add	r21, r21
    23b0:	45 0f       	add	r20, r21
    23b2:	a9 2f       	mov	r26, r25
    23b4:	a4 1b       	sub	r26, r20
    23b6:	b0 e0       	ldi	r27, 0x00	; 0
    23b8:	a5 5c       	subi	r26, 0xC5	; 197
    23ba:	be 4b       	sbci	r27, 0xBE	; 190
    23bc:	9c 91       	ld	r25, X
    23be:	96 83       	std	Z+6, r25	; 0x06

		DIGIT[1][1] = fnd_tbl[RTC_T.Hour / 10];				// ╜├ ╟ξ╜├
    23c0:	9a 81       	ldd	r25, Y+2	; 0x02
    23c2:	98 9f       	mul	r25, r24
    23c4:	41 2d       	mov	r20, r1
    23c6:	11 24       	eor	r1, r1
    23c8:	46 95       	lsr	r20
    23ca:	46 95       	lsr	r20
    23cc:	46 95       	lsr	r20
    23ce:	a4 2f       	mov	r26, r20
    23d0:	b0 e0       	ldi	r27, 0x00	; 0
    23d2:	a5 5c       	subi	r26, 0xC5	; 197
    23d4:	be 4b       	sbci	r27, 0xBE	; 190
    23d6:	5c 91       	ld	r21, X
    23d8:	55 83       	std	Z+5, r21	; 0x05
		DIGIT[1][0] = fnd_tbl[RTC_T.Hour % 10];
    23da:	44 0f       	add	r20, r20
    23dc:	54 2f       	mov	r21, r20
    23de:	55 0f       	add	r21, r21
    23e0:	55 0f       	add	r21, r21
    23e2:	45 0f       	add	r20, r21
    23e4:	a9 2f       	mov	r26, r25
    23e6:	a4 1b       	sub	r26, r20
    23e8:	b0 e0       	ldi	r27, 0x00	; 0
    23ea:	a5 5c       	subi	r26, 0xC5	; 197
    23ec:	be 4b       	sbci	r27, 0xBE	; 190
    23ee:	9c 91       	ld	r25, X
    23f0:	94 83       	std	Z+4, r25	; 0x04

		DIGIT[2][3] = fnd_tbl[RTC_T.Min / 10];				// ║╨ ╟ξ╜├
    23f2:	99 81       	ldd	r25, Y+1	; 0x01
    23f4:	98 9f       	mul	r25, r24
    23f6:	41 2d       	mov	r20, r1
    23f8:	11 24       	eor	r1, r1
    23fa:	46 95       	lsr	r20
    23fc:	46 95       	lsr	r20
    23fe:	46 95       	lsr	r20
    2400:	a4 2f       	mov	r26, r20
    2402:	b0 e0       	ldi	r27, 0x00	; 0
    2404:	a5 5c       	subi	r26, 0xC5	; 197
    2406:	be 4b       	sbci	r27, 0xBE	; 190
    2408:	5c 91       	ld	r21, X
    240a:	53 87       	std	Z+11, r21	; 0x0b
		DIGIT[2][2] = fnd_tbl[RTC_T.Min % 10];
    240c:	44 0f       	add	r20, r20
    240e:	54 2f       	mov	r21, r20
    2410:	55 0f       	add	r21, r21
    2412:	55 0f       	add	r21, r21
    2414:	45 0f       	add	r20, r21
    2416:	a9 2f       	mov	r26, r25
    2418:	a4 1b       	sub	r26, r20
    241a:	b0 e0       	ldi	r27, 0x00	; 0
    241c:	a5 5c       	subi	r26, 0xC5	; 197
    241e:	be 4b       	sbci	r27, 0xBE	; 190
    2420:	9c 91       	ld	r25, X
    2422:	92 87       	std	Z+10, r25	; 0x0a

		DIGIT[2][1] = fnd_tbl[RTC_T.Sec / 10];				// ├╩ ╟ξ╜├
    2424:	18 81       	ld	r17, Y
    2426:	18 9f       	mul	r17, r24
    2428:	81 2d       	mov	r24, r1
    242a:	11 24       	eor	r1, r1
    242c:	86 95       	lsr	r24
    242e:	86 95       	lsr	r24
    2430:	86 95       	lsr	r24
    2432:	a8 2f       	mov	r26, r24
    2434:	b0 e0       	ldi	r27, 0x00	; 0
    2436:	a5 5c       	subi	r26, 0xC5	; 197
    2438:	be 4b       	sbci	r27, 0xBE	; 190
    243a:	9c 91       	ld	r25, X
    243c:	91 87       	std	Z+9, r25	; 0x09
		DIGIT[2][0] = fnd_tbl[RTC_T.Sec % 10];
    243e:	88 0f       	add	r24, r24
    2440:	98 2f       	mov	r25, r24
    2442:	99 0f       	add	r25, r25
    2444:	99 0f       	add	r25, r25
    2446:	89 0f       	add	r24, r25
    2448:	a1 2f       	mov	r26, r17
    244a:	a8 1b       	sub	r26, r24
    244c:	b0 e0       	ldi	r27, 0x00	; 0
    244e:	a5 5c       	subi	r26, 0xC5	; 197
    2450:	be 4b       	sbci	r27, 0xBE	; 190
    2452:	8c 91       	ld	r24, X
    2454:	80 87       	std	Z+8, r24	; 0x08
		
		if(SECOND != RTC_T.Sec)						// └╠└ⁿ ╜├░μ(├╩)└╠ ╟÷└ύ╜├░μ(├╩)┐═ ░░┴÷ ╛╩└╕╕ώ
    2456:	01 17       	cp	r16, r17
    2458:	41 f0       	breq	.+16     	; 0x246a <main+0x22a>
		{
			SECOND = RTC_T.Sec;					// └╠└ⁿ ╜├░μ(├╩)┐κ ╟÷└ύ╜├░μ(├╩) └·└ί	
			Beep(10);						// ║±╟┴(1├╩┐κ 1╣°╛┐)
    245a:	8a e0       	ldi	r24, 0x0A	; 10
    245c:	90 e0       	ldi	r25, 0x00	; 0
    245e:	0e 94 3b 04 	call	0x876	; 0x876 <Beep>
			wdt_reset();						// Reset WDT
    2462:	0e 94 ef 0c 	call	0x19de	; 0x19de <wdt_reset>
			Time_Count--;						// Time_Count ░ρ╝╥
    2466:	fa 94       	dec	r15
	DIGIT[0][1] = fnd_tbl[FW_VER % 10];
	DIGIT[0][0] = FND_OFF;
	_delay_ms(1000);							// 1├╩ ╡┐╛╚ ╟ξ╜├	
	wdt_reset();								// Reset WT

	uint8_t Time_Count = 5;							// ╜├░μ ╟ξ╜├ ┐Έ ║ψ╝÷ ╝│┴ν
    2468:	01 2f       	mov	r16, r17
	uint8_t SECOND = 0;							// └╠└ⁿ ╜├░μ(├╩)┐Έ ║ψ╝÷ ╝│┴ν
 	Read_eeprom();
//-------------------------------------------------------------------------------------------------

	while(Time_Count)							// Time_Count ░κ 0└╠ ╛╞┤╧╕ώ ╣▌║╣(5├╩╡┐╛╚ ╜├░μ╟ξ╜├)
    246a:	f1 10       	cpse	r15, r1
    246c:	57 cf       	rjmp	.-338    	; 0x231c <main+0xdc>
			Beep(10);						// ║±╟┴(1├╩┐κ 1╣°╛┐)
			wdt_reset();						// Reset WDT
			Time_Count--;						// Time_Count ░ρ╝╥
		}
	}
	Var_Init();								// ║ψ╝÷ ╣╫ ╖╬╡ί╝┐ ├╩▒έ╚φ
    246e:	0e 94 b5 0c 	call	0x196a	; 0x196a <Var_Init>
	wdt_reset();								// Reset WDT
    2472:	0e 94 ef 0c 	call	0x19de	; 0x19de <wdt_reset>
//-------------------------------------------------------------------------------------------------
	while(1)
	{
		if(Cell_ID_1) {Check_Value(1);}					// 1╣° ╖╬╡ί╝┐└╟ ID░κ ╝│┴ν╡╟╛Ό └╓└╕╕ώ ├╝┴▀├°┴ν ╟ξ╜├
    2476:	80 91 a5 41 	lds	r24, 0x41A5	; 0x8041a5 <Cell_ID_1>
    247a:	88 23       	and	r24, r24
    247c:	21 f0       	breq	.+8      	; 0x2486 <main+0x246>
    247e:	81 e0       	ldi	r24, 0x01	; 1
    2480:	0e 94 db 08 	call	0x11b6	; 0x11b6 <Check_Value>
    2484:	0e c0       	rjmp	.+28     	; 0x24a2 <main+0x262>
		else	      {FND_Value_Data(0, 0, 12); _delay_ms(25);}	// FND 0 FND_OFF
    2486:	4c e0       	ldi	r20, 0x0C	; 12
    2488:	60 e0       	ldi	r22, 0x00	; 0
    248a:	80 e0       	ldi	r24, 0x00	; 0
    248c:	0e 94 d9 05 	call	0xbb2	; 0xbb2 <FND_Value_Data>
    2490:	9f ef       	ldi	r25, 0xFF	; 255
    2492:	2f e1       	ldi	r18, 0x1F	; 31
    2494:	81 e0       	ldi	r24, 0x01	; 1
    2496:	91 50       	subi	r25, 0x01	; 1
    2498:	20 40       	sbci	r18, 0x00	; 0
    249a:	80 40       	sbci	r24, 0x00	; 0
    249c:	e1 f7       	brne	.-8      	; 0x2496 <main+0x256>
    249e:	00 c0       	rjmp	.+0      	; 0x24a0 <main+0x260>
    24a0:	00 00       	nop

		if(Cell_ID_2) {Check_Value(2);}					// 2╣° ╖╬╡ί╝┐└╟ ID░κ ╝│┴ν╡╟╛Ό └╓└╕╕ώ ├╝┴▀├°┴ν ╟ξ╜├
    24a2:	80 91 e3 43 	lds	r24, 0x43E3	; 0x8043e3 <Cell_ID_2>
    24a6:	88 23       	and	r24, r24
    24a8:	21 f0       	breq	.+8      	; 0x24b2 <main+0x272>
    24aa:	82 e0       	ldi	r24, 0x02	; 2
    24ac:	0e 94 db 08 	call	0x11b6	; 0x11b6 <Check_Value>
    24b0:	0e c0       	rjmp	.+28     	; 0x24ce <main+0x28e>
		else	      {FND_Value_Data(1, 1, 12); _delay_ms(25);}	// FND 1 FND_OFF
    24b2:	4c e0       	ldi	r20, 0x0C	; 12
    24b4:	61 e0       	ldi	r22, 0x01	; 1
    24b6:	81 e0       	ldi	r24, 0x01	; 1
    24b8:	0e 94 d9 05 	call	0xbb2	; 0xbb2 <FND_Value_Data>
    24bc:	9f ef       	ldi	r25, 0xFF	; 255
    24be:	2f e1       	ldi	r18, 0x1F	; 31
    24c0:	81 e0       	ldi	r24, 0x01	; 1
    24c2:	91 50       	subi	r25, 0x01	; 1
    24c4:	20 40       	sbci	r18, 0x00	; 0
    24c6:	80 40       	sbci	r24, 0x00	; 0
    24c8:	e1 f7       	brne	.-8      	; 0x24c2 <main+0x282>
    24ca:	00 c0       	rjmp	.+0      	; 0x24cc <main+0x28c>
    24cc:	00 00       	nop

		if(Cell_ID_3) {Check_Value(3);}					// 3╣° ╖╬╡ί╝┐└╟ ID░κ ╝│┴ν╡╟╛Ό └╓└╕╕ώ ├╝┴▀├°┴ν ╟ξ╜├
    24ce:	80 91 fe 41 	lds	r24, 0x41FE	; 0x8041fe <Cell_ID_3>
    24d2:	88 23       	and	r24, r24
    24d4:	21 f0       	breq	.+8      	; 0x24de <main+0x29e>
    24d6:	83 e0       	ldi	r24, 0x03	; 3
    24d8:	0e 94 db 08 	call	0x11b6	; 0x11b6 <Check_Value>
    24dc:	0e c0       	rjmp	.+28     	; 0x24fa <main+0x2ba>
		else	      {FND_Value_Data(2, 2, 12); _delay_ms(25);}	// FND 2 FND_OFF
    24de:	4c e0       	ldi	r20, 0x0C	; 12
    24e0:	62 e0       	ldi	r22, 0x02	; 2
    24e2:	82 e0       	ldi	r24, 0x02	; 2
    24e4:	0e 94 d9 05 	call	0xbb2	; 0xbb2 <FND_Value_Data>
    24e8:	9f ef       	ldi	r25, 0xFF	; 255
    24ea:	2f e1       	ldi	r18, 0x1F	; 31
    24ec:	81 e0       	ldi	r24, 0x01	; 1
    24ee:	91 50       	subi	r25, 0x01	; 1
    24f0:	20 40       	sbci	r18, 0x00	; 0
    24f2:	80 40       	sbci	r24, 0x00	; 0
    24f4:	e1 f7       	brne	.-8      	; 0x24ee <main+0x2ae>
    24f6:	00 c0       	rjmp	.+0      	; 0x24f8 <main+0x2b8>
    24f8:	00 00       	nop

		if(SET.Menu) {Seting_Mode();}					// SET Menu ░κ ╝│┴ν╡╟╛Ό └╓└╕╕ώ Seting_Mode ┴°└╘
    24fa:	80 91 05 42 	lds	r24, 0x4205	; 0x804205 <SET>
    24fe:	81 11       	cpse	r24, r1
    2500:	0e 94 f1 0c 	call	0x19e2	; 0x19e2 <Seting_Mode>

		Receiv_PC();							// PC╖╬ ║╬┼═ ╡ξ└╠┼═╝÷╜┼ ╚χ└╬
    2504:	0e 94 27 0f 	call	0x1e4e	; 0x1e4e <Receiv_PC>
		Time_Check();							// ╜├░μ ├╝┼σ(│ψ┬ξ║ψ░ό ╚χ└╬)
    2508:	0e 94 84 0b 	call	0x1708	; 0x1708 <Time_Check>

		wdt_reset();							// Reset WDT
    250c:	0e 94 ef 0c 	call	0x19de	; 0x19de <wdt_reset>
	}
    2510:	b2 cf       	rjmp	.-156    	; 0x2476 <main+0x236>

00002512 <BOD_init>:
    2512:	10 92 89 00 	sts	0x0089, r1	; 0x800089 <__TEXT_REGION_LENGTH__+0x7e0089>
    2516:	80 e0       	ldi	r24, 0x00	; 0
    2518:	08 95       	ret

0000251a <CLKCTRL_init>:
    251a:	43 e0       	ldi	r20, 0x03	; 3
    251c:	68 ed       	ldi	r22, 0xD8	; 216
    251e:	80 e6       	ldi	r24, 0x60	; 96
    2520:	90 e0       	ldi	r25, 0x00	; 0
    2522:	0e 94 09 32 	call	0x6412	; 0x6412 <protected_write_io>
    2526:	80 91 63 00 	lds	r24, 0x0063	; 0x800063 <__TEXT_REGION_LENGTH__+0x7e0063>
    252a:	80 fd       	sbrc	r24, 0
    252c:	fc cf       	rjmp	.-8      	; 0x2526 <CLKCTRL_init+0xc>
    252e:	80 e0       	ldi	r24, 0x00	; 0
    2530:	08 95       	ret

00002532 <CPUINT_init>:
    2532:	80 e0       	ldi	r24, 0x00	; 0
    2534:	08 95       	ret

00002536 <mcu_init>:
	 * disables all peripherals to save power. Driver shall enable
	 * peripheral if used */

	/* Set all pins to low power mode */

	for (uint8_t i = 0; i < 8; i++) {
    2536:	80 e0       	ldi	r24, 0x00	; 0
    2538:	08 c0       	rjmp	.+16     	; 0x254a <mcu_init+0x14>
		*((uint8_t *)&PORTA + 0x10 + i) |= 1 << PORT_PULLUPEN_bp;
    253a:	e8 2f       	mov	r30, r24
    253c:	f0 e0       	ldi	r31, 0x00	; 0
    253e:	e0 5f       	subi	r30, 0xF0	; 240
    2540:	fb 4f       	sbci	r31, 0xFB	; 251
    2542:	90 81       	ld	r25, Z
    2544:	98 60       	ori	r25, 0x08	; 8
    2546:	90 83       	st	Z, r25
	 * disables all peripherals to save power. Driver shall enable
	 * peripheral if used */

	/* Set all pins to low power mode */

	for (uint8_t i = 0; i < 8; i++) {
    2548:	8f 5f       	subi	r24, 0xFF	; 255
    254a:	88 30       	cpi	r24, 0x08	; 8
    254c:	b0 f3       	brcs	.-20     	; 0x253a <mcu_init+0x4>
    254e:	80 e0       	ldi	r24, 0x00	; 0
    2550:	08 c0       	rjmp	.+16     	; 0x2562 <mcu_init+0x2c>
		*((uint8_t *)&PORTA + 0x10 + i) |= 1 << PORT_PULLUPEN_bp;
	}

	for (uint8_t i = 0; i < 8; i++) {
		*((uint8_t *)&PORTB + 0x10 + i) |= 1 << PORT_PULLUPEN_bp;
    2552:	e8 2f       	mov	r30, r24
    2554:	f0 e0       	ldi	r31, 0x00	; 0
    2556:	e0 5d       	subi	r30, 0xD0	; 208
    2558:	fb 4f       	sbci	r31, 0xFB	; 251
    255a:	90 81       	ld	r25, Z
    255c:	98 60       	ori	r25, 0x08	; 8
    255e:	90 83       	st	Z, r25

	for (uint8_t i = 0; i < 8; i++) {
		*((uint8_t *)&PORTA + 0x10 + i) |= 1 << PORT_PULLUPEN_bp;
	}

	for (uint8_t i = 0; i < 8; i++) {
    2560:	8f 5f       	subi	r24, 0xFF	; 255
    2562:	88 30       	cpi	r24, 0x08	; 8
    2564:	b0 f3       	brcs	.-20     	; 0x2552 <mcu_init+0x1c>
    2566:	80 e0       	ldi	r24, 0x00	; 0
    2568:	08 c0       	rjmp	.+16     	; 0x257a <mcu_init+0x44>
		*((uint8_t *)&PORTB + 0x10 + i) |= 1 << PORT_PULLUPEN_bp;
	}

	for (uint8_t i = 0; i < 8; i++) {
		*((uint8_t *)&PORTC + 0x10 + i) |= 1 << PORT_PULLUPEN_bp;
    256a:	e8 2f       	mov	r30, r24
    256c:	f0 e0       	ldi	r31, 0x00	; 0
    256e:	e0 5b       	subi	r30, 0xB0	; 176
    2570:	fb 4f       	sbci	r31, 0xFB	; 251
    2572:	90 81       	ld	r25, Z
    2574:	98 60       	ori	r25, 0x08	; 8
    2576:	90 83       	st	Z, r25

	for (uint8_t i = 0; i < 8; i++) {
		*((uint8_t *)&PORTB + 0x10 + i) |= 1 << PORT_PULLUPEN_bp;
	}

	for (uint8_t i = 0; i < 8; i++) {
    2578:	8f 5f       	subi	r24, 0xFF	; 255
    257a:	88 30       	cpi	r24, 0x08	; 8
    257c:	b0 f3       	brcs	.-20     	; 0x256a <mcu_init+0x34>
    257e:	80 e0       	ldi	r24, 0x00	; 0
    2580:	08 c0       	rjmp	.+16     	; 0x2592 <mcu_init+0x5c>
		*((uint8_t *)&PORTC + 0x10 + i) |= 1 << PORT_PULLUPEN_bp;
	}

	for (uint8_t i = 0; i < 8; i++) {
		*((uint8_t *)&PORTD + 0x10 + i) |= 1 << PORT_PULLUPEN_bp;
    2582:	e8 2f       	mov	r30, r24
    2584:	f0 e0       	ldi	r31, 0x00	; 0
    2586:	e0 59       	subi	r30, 0x90	; 144
    2588:	fb 4f       	sbci	r31, 0xFB	; 251
    258a:	90 81       	ld	r25, Z
    258c:	98 60       	ori	r25, 0x08	; 8
    258e:	90 83       	st	Z, r25

	for (uint8_t i = 0; i < 8; i++) {
		*((uint8_t *)&PORTC + 0x10 + i) |= 1 << PORT_PULLUPEN_bp;
	}

	for (uint8_t i = 0; i < 8; i++) {
    2590:	8f 5f       	subi	r24, 0xFF	; 255
    2592:	88 30       	cpi	r24, 0x08	; 8
    2594:	b0 f3       	brcs	.-20     	; 0x2582 <mcu_init+0x4c>
    2596:	80 e0       	ldi	r24, 0x00	; 0
    2598:	08 c0       	rjmp	.+16     	; 0x25aa <mcu_init+0x74>
		*((uint8_t *)&PORTD + 0x10 + i) |= 1 << PORT_PULLUPEN_bp;
	}

	for (uint8_t i = 0; i < 8; i++) {
		*((uint8_t *)&PORTE + 0x10 + i) |= 1 << PORT_PULLUPEN_bp;
    259a:	e8 2f       	mov	r30, r24
    259c:	f0 e0       	ldi	r31, 0x00	; 0
    259e:	e0 57       	subi	r30, 0x70	; 112
    25a0:	fb 4f       	sbci	r31, 0xFB	; 251
    25a2:	90 81       	ld	r25, Z
    25a4:	98 60       	ori	r25, 0x08	; 8
    25a6:	90 83       	st	Z, r25

	for (uint8_t i = 0; i < 8; i++) {
		*((uint8_t *)&PORTD + 0x10 + i) |= 1 << PORT_PULLUPEN_bp;
	}

	for (uint8_t i = 0; i < 8; i++) {
    25a8:	8f 5f       	subi	r24, 0xFF	; 255
    25aa:	88 30       	cpi	r24, 0x08	; 8
    25ac:	b0 f3       	brcs	.-20     	; 0x259a <mcu_init+0x64>
    25ae:	80 e0       	ldi	r24, 0x00	; 0
    25b0:	08 c0       	rjmp	.+16     	; 0x25c2 <mcu_init+0x8c>
		*((uint8_t *)&PORTE + 0x10 + i) |= 1 << PORT_PULLUPEN_bp;
	}

	for (uint8_t i = 0; i < 8; i++) {
		*((uint8_t *)&PORTF + 0x10 + i) |= 1 << PORT_PULLUPEN_bp;
    25b2:	e8 2f       	mov	r30, r24
    25b4:	f0 e0       	ldi	r31, 0x00	; 0
    25b6:	e0 55       	subi	r30, 0x50	; 80
    25b8:	fb 4f       	sbci	r31, 0xFB	; 251
    25ba:	90 81       	ld	r25, Z
    25bc:	98 60       	ori	r25, 0x08	; 8
    25be:	90 83       	st	Z, r25

	for (uint8_t i = 0; i < 8; i++) {
		*((uint8_t *)&PORTE + 0x10 + i) |= 1 << PORT_PULLUPEN_bp;
	}

	for (uint8_t i = 0; i < 8; i++) {
    25c0:	8f 5f       	subi	r24, 0xFF	; 255
    25c2:	88 30       	cpi	r24, 0x08	; 8
    25c4:	b0 f3       	brcs	.-20     	; 0x25b2 <mcu_init+0x7c>
    25c6:	80 e0       	ldi	r24, 0x00	; 0
    25c8:	08 c0       	rjmp	.+16     	; 0x25da <mcu_init+0xa4>
		*((uint8_t *)&PORTF + 0x10 + i) |= 1 << PORT_PULLUPEN_bp;
	}

	for (uint8_t i = 0; i < 8; i++) {
		*((uint8_t *)&PORTG + 0x10 + i) |= 1 << PORT_PULLUPEN_bp;
    25ca:	e8 2f       	mov	r30, r24
    25cc:	f0 e0       	ldi	r31, 0x00	; 0
    25ce:	e0 53       	subi	r30, 0x30	; 48
    25d0:	fb 4f       	sbci	r31, 0xFB	; 251
    25d2:	90 81       	ld	r25, Z
    25d4:	98 60       	ori	r25, 0x08	; 8
    25d6:	90 83       	st	Z, r25

	for (uint8_t i = 0; i < 8; i++) {
		*((uint8_t *)&PORTF + 0x10 + i) |= 1 << PORT_PULLUPEN_bp;
	}

	for (uint8_t i = 0; i < 8; i++) {
    25d8:	8f 5f       	subi	r24, 0xFF	; 255
    25da:	88 30       	cpi	r24, 0x08	; 8
    25dc:	b0 f3       	brcs	.-20     	; 0x25ca <mcu_init+0x94>
		*((uint8_t *)&PORTG + 0x10 + i) |= 1 << PORT_PULLUPEN_bp;
	}
}
    25de:	08 95       	ret

000025e0 <I2C_0_initialization>:
static inline void PORTF_set_pin_level(const uint8_t pin, const bool level)
{
	if (level == true) {
		VPORTF.OUT |= (1 << pin);
	} else {
		VPORTF.OUT &= ~(1 << pin);
    25e0:	85 b3       	in	r24, 0x15	; 21
    25e2:	87 7f       	andi	r24, 0xF7	; 247
    25e4:	85 bb       	out	0x15, r24	; 21
	switch (dir) {
	case PORT_DIR_IN:
		VPORTF.DIR &= ~(1 << pin);
		break;
	case PORT_DIR_OUT:
		VPORTF.DIR |= (1 << pin);
    25e6:	84 b3       	in	r24, 0x14	; 20
    25e8:	88 60       	ori	r24, 0x08	; 8
    25ea:	84 bb       	out	0x14, r24	; 20
	volatile uint8_t *port_pin_ctrl = ((uint8_t *)&PORTF + 0x10 + pin);

	if (pull_mode == PORT_PULL_UP) {
		*port_pin_ctrl |= PORT_PULLUPEN_bm;
	} else if (pull_mode == PORT_PULL_OFF) {
		*port_pin_ctrl &= ~PORT_PULLUPEN_bm;
    25ec:	e3 eb       	ldi	r30, 0xB3	; 179
    25ee:	f4 e0       	ldi	r31, 0x04	; 4
    25f0:	80 81       	ld	r24, Z
    25f2:	87 7f       	andi	r24, 0xF7	; 247
    25f4:	80 83       	st	Z, r24
	volatile uint8_t *port_pin_ctrl = ((uint8_t *)&PORTF + 0x10 + pin);

	if (inverted) {
		*port_pin_ctrl |= PORT_INVEN_bm;
	} else {
		*port_pin_ctrl &= ~PORT_INVEN_bm;
    25f6:	80 81       	ld	r24, Z
    25f8:	8f 77       	andi	r24, 0x7F	; 127
    25fa:	80 83       	st	Z, r24
 */
static inline void PORTF_pin_set_isc(const uint8_t pin, const PORT_ISC_t isc)
{
	volatile uint8_t *port_pin_ctrl = ((uint8_t *)&PORTF + 0x10 + pin);

	*port_pin_ctrl = (*port_pin_ctrl & ~PORT_ISC_gm) | isc;
    25fc:	80 81       	ld	r24, Z
    25fe:	88 7f       	andi	r24, 0xF8	; 248
    2600:	80 83       	st	Z, r24
static inline void PORTF_set_pin_level(const uint8_t pin, const bool level)
{
	if (level == true) {
		VPORTF.OUT |= (1 << pin);
	} else {
		VPORTF.OUT &= ~(1 << pin);
    2602:	85 b3       	in	r24, 0x15	; 21
    2604:	8b 7f       	andi	r24, 0xFB	; 251
    2606:	85 bb       	out	0x15, r24	; 21
	switch (dir) {
	case PORT_DIR_IN:
		VPORTF.DIR &= ~(1 << pin);
		break;
	case PORT_DIR_OUT:
		VPORTF.DIR |= (1 << pin);
    2608:	84 b3       	in	r24, 0x14	; 20
    260a:	84 60       	ori	r24, 0x04	; 4
    260c:	84 bb       	out	0x14, r24	; 20
	volatile uint8_t *port_pin_ctrl = ((uint8_t *)&PORTF + 0x10 + pin);

	if (pull_mode == PORT_PULL_UP) {
		*port_pin_ctrl |= PORT_PULLUPEN_bm;
	} else if (pull_mode == PORT_PULL_OFF) {
		*port_pin_ctrl &= ~PORT_PULLUPEN_bm;
    260e:	e2 eb       	ldi	r30, 0xB2	; 178
    2610:	f4 e0       	ldi	r31, 0x04	; 4
    2612:	80 81       	ld	r24, Z
    2614:	87 7f       	andi	r24, 0xF7	; 247
    2616:	80 83       	st	Z, r24
	volatile uint8_t *port_pin_ctrl = ((uint8_t *)&PORTF + 0x10 + pin);

	if (inverted) {
		*port_pin_ctrl |= PORT_INVEN_bm;
	} else {
		*port_pin_ctrl &= ~PORT_INVEN_bm;
    2618:	80 81       	ld	r24, Z
    261a:	8f 77       	andi	r24, 0x7F	; 127
    261c:	80 83       	st	Z, r24
 */
static inline void PORTF_pin_set_isc(const uint8_t pin, const PORT_ISC_t isc)
{
	volatile uint8_t *port_pin_ctrl = ((uint8_t *)&PORTF + 0x10 + pin);

	*port_pin_ctrl = (*port_pin_ctrl & ~PORT_ISC_gm) | isc;
    261e:	80 81       	ld	r24, Z
    2620:	88 7f       	andi	r24, 0xF8	; 248
    2622:	80 83       	st	Z, r24
	// <PORT_ISC_FALLING_gc"> Sense Falling Edge
	// <PORT_ISC_INPUT_DISABLE_gc"> Digital Input Buffer disabled
	// <PORT_ISC_LEVEL_gc"> Sense low Level
	PORT_ISC_INTDISABLE_gc);

	I2C_0_init();
    2624:	0e 94 0b 17 	call	0x2e16	; 0x2e16 <I2C_0_init>
    2628:	08 95       	ret

0000262a <USART_1_initialization>:
//=================================================================================================
#ifdef Usart_1
void USART_1_initialization(void)			// USART 1 └╟ ╟╔└╗ ╝│┴ν╟╧░Ί ╖╣┴÷╜║┼═╕ο ├╩▒έ╚φ
{
	#if Usart_1 == 0
	PORTMUX.USARTROUTEA &= ~PORTMUX_USART10_bm;	// USART 1 ╝█,╝÷╜┼ : Pin PC0, PC1 ╖╬ ║ψ░ό
    262a:	e0 ee       	ldi	r30, 0xE0	; 224
    262c:	f5 e0       	ldi	r31, 0x05	; 5
    262e:	82 81       	ldd	r24, Z+2	; 0x02
    2630:	8b 7f       	andi	r24, 0xFB	; 251
    2632:	82 83       	std	Z+2, r24	; 0x02
	PORTC.DIR |=  PIN0_bm;				// set pin 0 of	PORT C (TXd) as	output (PORT C (TXd)└╟ 0╣° ╟╔└╗ ├έ╖┬└╕╖╬ ╝│┴ν)
    2634:	e0 e4       	ldi	r30, 0x40	; 64
    2636:	f4 e0       	ldi	r31, 0x04	; 4
    2638:	80 81       	ld	r24, Z
    263a:	81 60       	ori	r24, 0x01	; 1
    263c:	80 83       	st	Z, r24
	PORTC.DIR &= ~PIN1_bm;				// set pin 1 of	PORT C (RXd) as	input  (PORT C (RXd)└╟ 1╣° ╟╔└╗ └╘╖┬└╕╖╬ ╝│┴ν)
    263e:	80 81       	ld	r24, Z
    2640:	8d 7f       	andi	r24, 0xFD	; 253
    2642:	80 83       	st	Z, r24
	#elif Usart_1 == 1
	PORTMUX.USARTROUTEA |= PORTMUX_USART10_bm;	// USART 1 ╝█,╝÷╜┼ : Pin PC4, PC5 ╖╬ ║ψ░ό
	PORTC.DIR |=  PIN4_bm;				// set pin 4 of	PORT C (TXd) as	output (PORT C (TXd)└╟ 4╣° ╟╔└╗ ├έ╖┬└╕╖╬ ╝│┴ν)
	PORTC.DIR &= ~PIN5_bm;				// set pin 5 of	PORT C (RXd) as	input  (PORT C (RXd)└╟ 5╣° ╟╔└╗ └╘╖┬└╕╖╬ ╝│┴ν)
	#endif
	USART_1_init();
    2644:	0e 94 e8 35 	call	0x6bd0	; 0x6bd0 <USART_1_init>
    2648:	08 95       	ret

0000264a <USART_3_initialization>:
//=================================================================================================
#ifdef Usart_3
void USART_3_initialization(void)			// USART 3 └╟ ╟╔└╗ ╝│┴ν╟╧░Ί ╖╣┴÷╜║┼═╕ο ├╩▒έ╚φ
{
	#if Usart_3 == 0
	PORTMUX.USARTROUTEA &= ~PORTMUX_USART30_bm;	// USART 3 ╝█,╝÷╜┼ : Pin PB0, PB1 ╖╬ ║ψ░ό
    264a:	e0 ee       	ldi	r30, 0xE0	; 224
    264c:	f5 e0       	ldi	r31, 0x05	; 5
    264e:	82 81       	ldd	r24, Z+2	; 0x02
    2650:	8f 7b       	andi	r24, 0xBF	; 191
    2652:	82 83       	std	Z+2, r24	; 0x02
	PORTB.DIR |=  PIN0_bm;				// set pin 0 of	PORT B (TXd) as	output (PORT B (TXd)└╟ 0╣° ╟╔└╗ ├έ╖┬└╕╖╬ ╝│┴ν)
    2654:	e0 e2       	ldi	r30, 0x20	; 32
    2656:	f4 e0       	ldi	r31, 0x04	; 4
    2658:	80 81       	ld	r24, Z
    265a:	81 60       	ori	r24, 0x01	; 1
    265c:	80 83       	st	Z, r24
	PORTB.DIR &= ~PIN1_bm;				// set pin 1 of	PORT B (RXd) as	input  (PORT B (RXd)└╟ 1╣° ╟╔└╗ └╘╖┬└╕╖╬ ╝│┴ν)
    265e:	80 81       	ld	r24, Z
    2660:	8d 7f       	andi	r24, 0xFD	; 253
    2662:	80 83       	st	Z, r24
	#elif Usart_3 == 1
	PORTMUX.USARTROUTEA |= PORTMUX_USART30_bm;	// USART 3 ╝█,╝÷╜┼ : Pin PB4, PB5 ╖╬ ║ψ░ό
	PORTB.DIR |=  PIN4_bm;				// set pin 4 of	PORT B (TXd) as output (PORT B (TXd)└╟ 4╣° ╟╔└╗ ├έ╖┬└╕╖╬ ╝│┴ν)
	PORTB.DIR &= ~PIN5_bm;				// set pin 5 of	PORT B (RXd) as input  (PORT B (RXd)└╟ 5╣° ╟╔└╗ └╘╖┬└╕╖╬ ╝│┴ν)
	#endif
	USART_3_init();
    2664:	0e 94 fd 35 	call	0x6bfa	; 0x6bfa <USART_3_init>
    2668:	08 95       	ret

0000266a <system_init>:
#endif

//=================================================================================================
void system_init()
{
	mcu_init();
    266a:	0e 94 9b 12 	call	0x2536	; 0x2536 <mcu_init>
//-------------------------------------------------------------------------------------------------
	CLKCTRL_init();
    266e:	0e 94 8d 12 	call	0x251a	; 0x251a <CLKCTRL_init>
#ifdef Usart_0
	USART_0_initialization();			// USART 0 └╟ ╟╔└╗ ╝│┴ν╟╧░Ί ╖╣┴÷╜║┼═╕ο ├╩▒έ╚φ
#endif
//-------------------------------------------------------------------------------------------------
#ifdef Usart_1
	USART_1_initialization();			// USART 1 └╟ ╟╔└╗ ╝│┴ν╟╧░Ί ╖╣┴÷╜║┼═╕ο ├╩▒έ╚φ
    2672:	0e 94 15 13 	call	0x262a	; 0x262a <USART_1_initialization>
#ifdef Usart_2
	USART_2_initialization();			// USART 2 └╟ ╟╔└╗ ╝│┴ν╟╧░Ί ╖╣┴÷╜║┼═╕ο ├╩▒έ╚φ
#endif
//-------------------------------------------------------------------------------------------------
#ifdef Usart_3
 	USART_3_initialization();			// USART 3 └╟ ╟╔└╗ ╝│┴ν╟╧░Ί ╖╣┴÷╜║┼═╕ο ├╩▒έ╚φ
    2676:	0e 94 25 13 	call	0x264a	; 0x264a <USART_3_initialization>
//-------------------------------------------------------------------------------------------------
#ifdef PWM_SET
	PWM_0_initialization();					// PWM0 └╟ ╟╔└╗ ╝│┴ν╟╧░Ί ╖╣┴÷╜║┼═╕ο ├╩▒έ╚φ
#endif
//-------------------------------------------------------------------------------------------------
	SLPCTRL_init();
    267a:	0e 94 da 35 	call	0x6bb4	; 0x6bb4 <SLPCTRL_init>
//-------------------------------------------------------------------------------------------------
	CPUINT_init();
    267e:	0e 94 99 12 	call	0x2532	; 0x2532 <CPUINT_init>
#ifdef Timer_0
	TIMER_0_init();
#endif
//-------------------------------------------------------------------------------------------------
#ifdef Timer_1
	TIMER_1_init();
    2682:	0e 94 dc 35 	call	0x6bb8	; 0x6bb8 <TIMER_1_init>
#endif
//-------------------------------------------------------------------------------------------------
	BOD_init();
    2686:	0e 94 89 12 	call	0x2512	; 0x2512 <BOD_init>
//-------------------------------------------------------------------------------------------------
	WDT_init();
    268a:	0e 94 3a 36 	call	0x6c74	; 0x6c74 <WDT_init>
//-------------------------------------------------------------------------------------------------
	I2C_0_initialization();
    268e:	0e 94 f0 12 	call	0x25e0	; 0x25e0 <I2C_0_initialization>
    2692:	08 95       	ret

00002694 <ee_read_byte>:
    2694:	81 15       	cp	r24, r1
    2696:	22 e0       	ldi	r18, 0x02	; 2
    2698:	92 07       	cpc	r25, r18
    269a:	10 f0       	brcs	.+4      	; 0x26a0 <ee_read_byte+0xc>
    269c:	8f ef       	ldi	r24, 0xFF	; 255
    269e:	91 e0       	ldi	r25, 0x01	; 1
    26a0:	fc 01       	movw	r30, r24
    26a2:	fc 5e       	subi	r31, 0xEC	; 236
    26a4:	80 81       	ld	r24, Z
    26a6:	08 95       	ret

000026a8 <ee_read_word>:
    26a8:	8f 3f       	cpi	r24, 0xFF	; 255
    26aa:	21 e0       	ldi	r18, 0x01	; 1
    26ac:	92 07       	cpc	r25, r18
    26ae:	10 f0       	brcs	.+4      	; 0x26b4 <ee_read_word+0xc>
    26b0:	8e ef       	ldi	r24, 0xFE	; 254
    26b2:	91 e0       	ldi	r25, 0x01	; 1
    26b4:	fc 01       	movw	r30, r24
    26b6:	fc 5e       	subi	r31, 0xEC	; 236
    26b8:	80 81       	ld	r24, Z
    26ba:	91 81       	ldd	r25, Z+1	; 0x01
    26bc:	08 95       	ret

000026be <ee_read_dword>:
    26be:	8d 3f       	cpi	r24, 0xFD	; 253
    26c0:	21 e0       	ldi	r18, 0x01	; 1
    26c2:	92 07       	cpc	r25, r18
    26c4:	10 f0       	brcs	.+4      	; 0x26ca <ee_read_dword+0xc>
    26c6:	8c ef       	ldi	r24, 0xFC	; 252
    26c8:	91 e0       	ldi	r25, 0x01	; 1
    26ca:	fc 01       	movw	r30, r24
    26cc:	fc 5e       	subi	r31, 0xEC	; 236
    26ce:	60 81       	ld	r22, Z
    26d0:	71 81       	ldd	r23, Z+1	; 0x01
    26d2:	82 81       	ldd	r24, Z+2	; 0x02
    26d4:	93 81       	ldd	r25, Z+3	; 0x03
    26d6:	08 95       	ret

000026d8 <ee_write_byte>:
    26d8:	1f 93       	push	r17
    26da:	cf 93       	push	r28
    26dc:	df 93       	push	r29
    26de:	9c 01       	movw	r18, r24
    26e0:	21 15       	cp	r18, r1
    26e2:	82 e0       	ldi	r24, 0x02	; 2
    26e4:	38 07       	cpc	r19, r24
    26e6:	b0 f4       	brcc	.+44     	; 0x2714 <ee_write_byte+0x3c>
    26e8:	90 91 02 10 	lds	r25, 0x1002	; 0x801002 <__TEXT_REGION_LENGTH__+0x7e1002>
    26ec:	93 70       	andi	r25, 0x03	; 3
    26ee:	e1 f7       	brne	.-8      	; 0x26e8 <ee_write_byte+0x10>
    26f0:	16 2f       	mov	r17, r22
    26f2:	e9 01       	movw	r28, r18
    26f4:	43 e1       	ldi	r20, 0x13	; 19
    26f6:	6d e9       	ldi	r22, 0x9D	; 157
    26f8:	80 e0       	ldi	r24, 0x00	; 0
    26fa:	90 e1       	ldi	r25, 0x10	; 16
    26fc:	0e 94 09 32 	call	0x6412	; 0x6412 <protected_write_io>
    2700:	dc 5e       	subi	r29, 0xEC	; 236
    2702:	18 83       	st	Y, r17
    2704:	40 e0       	ldi	r20, 0x00	; 0
    2706:	6d e9       	ldi	r22, 0x9D	; 157
    2708:	80 e0       	ldi	r24, 0x00	; 0
    270a:	90 e1       	ldi	r25, 0x10	; 16
    270c:	0e 94 09 32 	call	0x6412	; 0x6412 <protected_write_io>
    2710:	81 e0       	ldi	r24, 0x01	; 1
    2712:	01 c0       	rjmp	.+2      	; 0x2716 <ee_write_byte+0x3e>
    2714:	80 e0       	ldi	r24, 0x00	; 0
    2716:	df 91       	pop	r29
    2718:	cf 91       	pop	r28
    271a:	1f 91       	pop	r17
    271c:	08 95       	ret

0000271e <ee_write_word>:
    271e:	cf 92       	push	r12
    2720:	df 92       	push	r13
    2722:	ef 92       	push	r14
    2724:	ff 92       	push	r15
    2726:	cf 93       	push	r28
    2728:	df 93       	push	r29
    272a:	8f 3f       	cpi	r24, 0xFF	; 255
    272c:	21 e0       	ldi	r18, 0x01	; 1
    272e:	92 07       	cpc	r25, r18
    2730:	58 f4       	brcc	.+22     	; 0x2748 <ee_write_word+0x2a>
    2732:	ec 01       	movw	r28, r24
    2734:	6b 01       	movw	r12, r22
    2736:	0e 94 6c 13 	call	0x26d8	; 0x26d8 <ee_write_byte>
    273a:	6d 2d       	mov	r22, r13
    273c:	ce 01       	movw	r24, r28
    273e:	01 96       	adiw	r24, 0x01	; 1
    2740:	0e 94 6c 13 	call	0x26d8	; 0x26d8 <ee_write_byte>
    2744:	81 e0       	ldi	r24, 0x01	; 1
    2746:	01 c0       	rjmp	.+2      	; 0x274a <ee_write_word+0x2c>
    2748:	80 e0       	ldi	r24, 0x00	; 0
    274a:	df 91       	pop	r29
    274c:	cf 91       	pop	r28
    274e:	ff 90       	pop	r15
    2750:	ef 90       	pop	r14
    2752:	df 90       	pop	r13
    2754:	cf 90       	pop	r12
    2756:	08 95       	ret

00002758 <ee_write_dword>:
    2758:	ff 92       	push	r15
    275a:	0f 93       	push	r16
    275c:	1f 93       	push	r17
    275e:	cf 93       	push	r28
    2760:	df 93       	push	r29
    2762:	8d 3f       	cpi	r24, 0xFD	; 253
    2764:	21 e0       	ldi	r18, 0x01	; 1
    2766:	92 07       	cpc	r25, r18
    2768:	c0 f4       	brcc	.+48     	; 0x279a <ee_write_dword+0x42>
    276a:	17 2f       	mov	r17, r23
    276c:	06 2f       	mov	r16, r22
    276e:	f5 2e       	mov	r15, r21
    2770:	64 2f       	mov	r22, r20
    2772:	ec 01       	movw	r28, r24
    2774:	0e 94 6c 13 	call	0x26d8	; 0x26d8 <ee_write_byte>
    2778:	6f 2d       	mov	r22, r15
    277a:	ce 01       	movw	r24, r28
    277c:	01 96       	adiw	r24, 0x01	; 1
    277e:	0e 94 6c 13 	call	0x26d8	; 0x26d8 <ee_write_byte>
    2782:	60 2f       	mov	r22, r16
    2784:	ce 01       	movw	r24, r28
    2786:	02 96       	adiw	r24, 0x02	; 2
    2788:	0e 94 6c 13 	call	0x26d8	; 0x26d8 <ee_write_byte>
    278c:	61 2f       	mov	r22, r17
    278e:	ce 01       	movw	r24, r28
    2790:	03 96       	adiw	r24, 0x03	; 3
    2792:	0e 94 6c 13 	call	0x26d8	; 0x26d8 <ee_write_byte>
    2796:	81 e0       	ldi	r24, 0x01	; 1
    2798:	01 c0       	rjmp	.+2      	; 0x279c <ee_write_dword+0x44>
    279a:	80 e0       	ldi	r24, 0x00	; 0
    279c:	df 91       	pop	r29
    279e:	cf 91       	pop	r28
    27a0:	1f 91       	pop	r17
    27a2:	0f 91       	pop	r16
    27a4:	ff 90       	pop	r15
    27a6:	08 95       	ret

000027a8 <Gukbun_Set>:
#include <gateway.h> 

//=================================================================================================
void Gukbun_Set(void)								// ░╘└╠╞χ ┐■└╠ ▒╣╣° ╝│┴ν
{
	FND_Value_Data(0, 2, 12);						// FND 0 ~ 2 FND_OFF
    27a8:	4c e0       	ldi	r20, 0x0C	; 12
    27aa:	62 e0       	ldi	r22, 0x02	; 2
    27ac:	80 e0       	ldi	r24, 0x00	; 0
    27ae:	0e 94 d9 05 	call	0xbb2	; 0xbb2 <FND_Value_Data>

	while(SET.Menu && SET.Select)						// ╕▐┤║ ┐═ ╝▒┼├ └╠ ╕Ώ╡╬ 1 └╠╕ώ ╣▌║╣
    27b2:	42 c0       	rjmp	.+132    	; 0x2838 <Gukbun_Set+0x90>
	{
		DIGIT[0][3] = FND_G;						// FND 0 ┐κ G-no (▒╣╣°)╟ξ╜├
    27b4:	ef e6       	ldi	r30, 0x6F	; 111
    27b6:	f1 e4       	ldi	r31, 0x41	; 65
    27b8:	8e eb       	ldi	r24, 0xBE	; 190
    27ba:	83 83       	std	Z+3, r24	; 0x03
		DIGIT[0][2] = FND_MINUS;
    27bc:	82 e0       	ldi	r24, 0x02	; 2
    27be:	82 83       	std	Z+2, r24	; 0x02
		DIGIT[0][1] = FND_n;
    27c0:	8a e2       	ldi	r24, 0x2A	; 42
    27c2:	81 83       	std	Z+1, r24	; 0x01
		DIGIT[0][0] = FND_o;
    27c4:	8a e3       	ldi	r24, 0x3A	; 58
    27c6:	80 83       	st	Z, r24

		DIGIT[1][1] = fnd_tbl[Gukbun / 10];				// FND 1 ┐κ ▒╣╣° ╣°╚μ ╟ξ╜├
    27c8:	20 91 7c 42 	lds	r18, 0x427C	; 0x80427c <Gukbun>
    27cc:	8d ec       	ldi	r24, 0xCD	; 205
    27ce:	28 9f       	mul	r18, r24
    27d0:	81 2d       	mov	r24, r1
    27d2:	11 24       	eor	r1, r1
    27d4:	86 95       	lsr	r24
    27d6:	86 95       	lsr	r24
    27d8:	86 95       	lsr	r24
    27da:	a8 2f       	mov	r26, r24
    27dc:	b0 e0       	ldi	r27, 0x00	; 0
    27de:	a5 5c       	subi	r26, 0xC5	; 197
    27e0:	be 4b       	sbci	r27, 0xBE	; 190
    27e2:	9c 91       	ld	r25, X
    27e4:	95 83       	std	Z+5, r25	; 0x05
		DIGIT[1][0] = fnd_tbl[Gukbun % 10];
    27e6:	88 0f       	add	r24, r24
    27e8:	98 2f       	mov	r25, r24
    27ea:	99 0f       	add	r25, r25
    27ec:	99 0f       	add	r25, r25
    27ee:	89 0f       	add	r24, r25
    27f0:	a2 2f       	mov	r26, r18
    27f2:	a8 1b       	sub	r26, r24
    27f4:	b0 e0       	ldi	r27, 0x00	; 0
    27f6:	a5 5c       	subi	r26, 0xC5	; 197
    27f8:	be 4b       	sbci	r27, 0xBE	; 190
    27fa:	8c 91       	ld	r24, X
    27fc:	84 83       	std	Z+4, r24	; 0x04

		if(KEY.Buff)							// Key └╘╖┬└╠ └╓└╕╕ώ
    27fe:	80 91 81 42 	lds	r24, 0x4281	; 0x804281 <KEY+0x1>
    2802:	88 23       	and	r24, r24
    2804:	b9 f0       	breq	.+46     	; 0x2834 <Gukbun_Set+0x8c>
		{
			if     (KEY.Key == 1 && Gukbun < 60) {Gukbun++; KEY.Key = 0;}	// ╛≈  ╣÷╞░ └╠╕ώ ▒╣╣° 60▒Ό┴÷ ┴Ϋ░κ
    2806:	80 91 82 42 	lds	r24, 0x4282	; 0x804282 <KEY+0x2>
    280a:	81 30       	cpi	r24, 0x01	; 1
    280c:	41 f4       	brne	.+16     	; 0x281e <Gukbun_Set+0x76>
    280e:	2c 33       	cpi	r18, 0x3C	; 60
    2810:	30 f4       	brcc	.+12     	; 0x281e <Gukbun_Set+0x76>
    2812:	2f 5f       	subi	r18, 0xFF	; 255
    2814:	20 93 7c 42 	sts	0x427C, r18	; 0x80427c <Gukbun>
    2818:	10 92 82 42 	sts	0x4282, r1	; 0x804282 <KEY+0x2>
    281c:	0b c0       	rjmp	.+22     	; 0x2834 <Gukbun_Set+0x8c>
			else if(KEY.Key == 3 && Gukbun > 1)  {Gukbun--; KEY.Key = 0;}	// ┤┘┐Ό╣÷╞░ └╠╕ώ ▒╣╣°  0▒Ό┴÷ ░ρ╝╥
    281e:	80 91 82 42 	lds	r24, 0x4282	; 0x804282 <KEY+0x2>
    2822:	83 30       	cpi	r24, 0x03	; 3
    2824:	39 f4       	brne	.+14     	; 0x2834 <Gukbun_Set+0x8c>
    2826:	22 30       	cpi	r18, 0x02	; 2
    2828:	28 f0       	brcs	.+10     	; 0x2834 <Gukbun_Set+0x8c>
    282a:	21 50       	subi	r18, 0x01	; 1
    282c:	20 93 7c 42 	sts	0x427C, r18	; 0x80427c <Gukbun>
    2830:	10 92 82 42 	sts	0x4282, r1	; 0x804282 <KEY+0x2>
		}
		wdt_reset();							// ┐÷─κ╡╢ ╕χ╝┬
    2834:	0e 94 ef 0c 	call	0x19de	; 0x19de <wdt_reset>
//=================================================================================================
void Gukbun_Set(void)								// ░╘└╠╞χ ┐■└╠ ▒╣╣° ╝│┴ν
{
	FND_Value_Data(0, 2, 12);						// FND 0 ~ 2 FND_OFF

	while(SET.Menu && SET.Select)						// ╕▐┤║ ┐═ ╝▒┼├ └╠ ╕Ώ╡╬ 1 └╠╕ώ ╣▌║╣
    2838:	80 91 05 42 	lds	r24, 0x4205	; 0x804205 <SET>
    283c:	88 23       	and	r24, r24
    283e:	21 f0       	breq	.+8      	; 0x2848 <Gukbun_Set+0xa0>
    2840:	80 91 06 42 	lds	r24, 0x4206	; 0x804206 <SET+0x1>
    2844:	81 11       	cpse	r24, r1
    2846:	b6 cf       	rjmp	.-148    	; 0x27b4 <Gukbun_Set+0xc>
			if     (KEY.Key == 1 && Gukbun < 60) {Gukbun++; KEY.Key = 0;}	// ╛≈  ╣÷╞░ └╠╕ώ ▒╣╣° 60▒Ό┴÷ ┴Ϋ░κ
			else if(KEY.Key == 3 && Gukbun > 1)  {Gukbun--; KEY.Key = 0;}	// ┤┘┐Ό╣÷╞░ └╠╕ώ ▒╣╣°  0▒Ό┴÷ ░ρ╝╥
		}
		wdt_reset();							// ┐÷─κ╡╢ ╕χ╝┬
	}
	ee_write_byte(Gateway_Gukbun_Addr, Gukbun);				// ▒╣╣° ╣°╚μ╕ο EEPROM ┐κ └·└ί
    2848:	60 91 7c 42 	lds	r22, 0x427C	; 0x80427c <Gukbun>
    284c:	81 e0       	ldi	r24, 0x01	; 1
    284e:	90 e0       	ldi	r25, 0x00	; 0
    2850:	0e 94 6c 13 	call	0x26d8	; 0x26d8 <ee_write_byte>
    2854:	08 95       	ret

00002856 <Gwid_Set>:
}

//=================================================================================================
void Gwid_Set(void)								// ░╘└╠╞χ ┐■└╠ ID ╝│┴ν
{
	FND_Value_Data(0, 2, 12);						// FND 0 ~ 2 FND_OFF
    2856:	4c e0       	ldi	r20, 0x0C	; 12
    2858:	62 e0       	ldi	r22, 0x02	; 2
    285a:	80 e0       	ldi	r24, 0x00	; 0
    285c:	0e 94 d9 05 	call	0xbb2	; 0xbb2 <FND_Value_Data>

	while(SET.Menu && SET.Select)						// ╕▐┤║ ┐═ ╝▒┼├ └╠ ╕Ώ╡╬ 1 └╠╕ώ ╣▌║╣
    2860:	42 c0       	rjmp	.+132    	; 0x28e6 <Gwid_Set+0x90>
	{
		DIGIT[0][3] = FND_G;						// FND 0 ┐κ G-Id (▒╣╣°)╟ξ╜├
    2862:	ef e6       	ldi	r30, 0x6F	; 111
    2864:	f1 e4       	ldi	r31, 0x41	; 65
    2866:	8e eb       	ldi	r24, 0xBE	; 190
    2868:	83 83       	std	Z+3, r24	; 0x03
		DIGIT[0][2] = FND_MINUS;
    286a:	82 e0       	ldi	r24, 0x02	; 2
    286c:	82 83       	std	Z+2, r24	; 0x02
		DIGIT[0][1] = FND_I;
    286e:	80 e6       	ldi	r24, 0x60	; 96
    2870:	81 83       	std	Z+1, r24	; 0x01
		DIGIT[0][0] = FND_d;
    2872:	8a e7       	ldi	r24, 0x7A	; 122
    2874:	80 83       	st	Z, r24

		DIGIT[1][1] = fnd_tbl[Gwid / 10];				// FND 1 ┐κ ░╘└╠╞χ ┐■└╠ ID ╟ξ╜├
    2876:	20 91 86 42 	lds	r18, 0x4286	; 0x804286 <Gwid>
    287a:	8d ec       	ldi	r24, 0xCD	; 205
    287c:	28 9f       	mul	r18, r24
    287e:	81 2d       	mov	r24, r1
    2880:	11 24       	eor	r1, r1
    2882:	86 95       	lsr	r24
    2884:	86 95       	lsr	r24
    2886:	86 95       	lsr	r24
    2888:	a8 2f       	mov	r26, r24
    288a:	b0 e0       	ldi	r27, 0x00	; 0
    288c:	a5 5c       	subi	r26, 0xC5	; 197
    288e:	be 4b       	sbci	r27, 0xBE	; 190
    2890:	9c 91       	ld	r25, X
    2892:	95 83       	std	Z+5, r25	; 0x05
		DIGIT[1][0] = fnd_tbl[Gwid % 10];
    2894:	88 0f       	add	r24, r24
    2896:	98 2f       	mov	r25, r24
    2898:	99 0f       	add	r25, r25
    289a:	99 0f       	add	r25, r25
    289c:	89 0f       	add	r24, r25
    289e:	a2 2f       	mov	r26, r18
    28a0:	a8 1b       	sub	r26, r24
    28a2:	b0 e0       	ldi	r27, 0x00	; 0
    28a4:	a5 5c       	subi	r26, 0xC5	; 197
    28a6:	be 4b       	sbci	r27, 0xBE	; 190
    28a8:	8c 91       	ld	r24, X
    28aa:	84 83       	std	Z+4, r24	; 0x04

		if(KEY.Buff)							// Key └╘╖┬└╠ └╓└╕╕ώ
    28ac:	80 91 81 42 	lds	r24, 0x4281	; 0x804281 <KEY+0x1>
    28b0:	88 23       	and	r24, r24
    28b2:	b9 f0       	breq	.+46     	; 0x28e2 <Gwid_Set+0x8c>
		{
			if     (KEY.Key == 1 && Gwid < 60) {Gwid++; KEY.Key = 0;}	// ╛≈  ╣÷╞░ └╠╕ώ ID 60▒Ό┴÷ ┴Ϋ░κ
    28b4:	80 91 82 42 	lds	r24, 0x4282	; 0x804282 <KEY+0x2>
    28b8:	81 30       	cpi	r24, 0x01	; 1
    28ba:	41 f4       	brne	.+16     	; 0x28cc <Gwid_Set+0x76>
    28bc:	2c 33       	cpi	r18, 0x3C	; 60
    28be:	30 f4       	brcc	.+12     	; 0x28cc <Gwid_Set+0x76>
    28c0:	2f 5f       	subi	r18, 0xFF	; 255
    28c2:	20 93 86 42 	sts	0x4286, r18	; 0x804286 <Gwid>
    28c6:	10 92 82 42 	sts	0x4282, r1	; 0x804282 <KEY+0x2>
    28ca:	0b c0       	rjmp	.+22     	; 0x28e2 <Gwid_Set+0x8c>
			else if(KEY.Key == 3 && Gwid > 1)  {Gwid--; KEY.Key = 0;}	// ┤┘┐Ό╣÷╞░ └╠╕ώ ID  0▒Ό┴÷ ░ρ╝╥
    28cc:	80 91 82 42 	lds	r24, 0x4282	; 0x804282 <KEY+0x2>
    28d0:	83 30       	cpi	r24, 0x03	; 3
    28d2:	39 f4       	brne	.+14     	; 0x28e2 <Gwid_Set+0x8c>
    28d4:	22 30       	cpi	r18, 0x02	; 2
    28d6:	28 f0       	brcs	.+10     	; 0x28e2 <Gwid_Set+0x8c>
    28d8:	21 50       	subi	r18, 0x01	; 1
    28da:	20 93 86 42 	sts	0x4286, r18	; 0x804286 <Gwid>
    28de:	10 92 82 42 	sts	0x4282, r1	; 0x804282 <KEY+0x2>
		}
		wdt_reset();							// ┐÷─κ╡╢ ╕χ╝┬
    28e2:	0e 94 ef 0c 	call	0x19de	; 0x19de <wdt_reset>
//=================================================================================================
void Gwid_Set(void)								// ░╘└╠╞χ ┐■└╠ ID ╝│┴ν
{
	FND_Value_Data(0, 2, 12);						// FND 0 ~ 2 FND_OFF

	while(SET.Menu && SET.Select)						// ╕▐┤║ ┐═ ╝▒┼├ └╠ ╕Ώ╡╬ 1 └╠╕ώ ╣▌║╣
    28e6:	80 91 05 42 	lds	r24, 0x4205	; 0x804205 <SET>
    28ea:	88 23       	and	r24, r24
    28ec:	21 f0       	breq	.+8      	; 0x28f6 <Gwid_Set+0xa0>
    28ee:	80 91 06 42 	lds	r24, 0x4206	; 0x804206 <SET+0x1>
    28f2:	81 11       	cpse	r24, r1
    28f4:	b6 cf       	rjmp	.-148    	; 0x2862 <Gwid_Set+0xc>
			if     (KEY.Key == 1 && Gwid < 60) {Gwid++; KEY.Key = 0;}	// ╛≈  ╣÷╞░ └╠╕ώ ID 60▒Ό┴÷ ┴Ϋ░κ
			else if(KEY.Key == 3 && Gwid > 1)  {Gwid--; KEY.Key = 0;}	// ┤┘┐Ό╣÷╞░ └╠╕ώ ID  0▒Ό┴÷ ░ρ╝╥
		}
		wdt_reset();							// ┐÷─κ╡╢ ╕χ╝┬
	}
	ee_write_byte(Gateway_GWID_Addr, Gwid);					// ░╘└╠╞χ ┐■└╠ ID ╕ο EEPROM ┐κ └·└ί
    28f6:	60 91 86 42 	lds	r22, 0x4286	; 0x804286 <Gwid>
    28fa:	82 e0       	ldi	r24, 0x02	; 2
    28fc:	90 e0       	ldi	r25, 0x00	; 0
    28fe:	0e 94 6c 13 	call	0x26d8	; 0x26d8 <ee_write_byte>
    2902:	08 95       	ret

00002904 <Gateway_Set>:
}

//=================================================================================================
void Gateway_Set(void)								// ░╘└╠╞χ ┐■└╠ ╝│┴ν
{
    2904:	cf 93       	push	r28
	uint8_t count = 1;							// ─τ┐Ό╞χ ║ψ╝÷ ├╩▒έ╚φ
	SET.Select = 0;								// Select ╣÷╞░ ├╩▒έ╚φ
    2906:	10 92 06 42 	sts	0x4206, r1	; 0x804206 <SET+0x1>

	FND_Value_Data(0, 2, 12);						// FND 0 ~ 2 FND_OFF
    290a:	4c e0       	ldi	r20, 0x0C	; 12
    290c:	62 e0       	ldi	r22, 0x02	; 2
    290e:	80 e0       	ldi	r24, 0x00	; 0
    2910:	0e 94 d9 05 	call	0xbb2	; 0xbb2 <FND_Value_Data>
}

//=================================================================================================
void Gateway_Set(void)								// ░╘└╠╞χ ┐■└╠ ╝│┴ν
{
	uint8_t count = 1;							// ─τ┐Ό╞χ ║ψ╝÷ ├╩▒έ╚φ
    2914:	c1 e0       	ldi	r28, 0x01	; 1
	SET.Select = 0;								// Select ╣÷╞░ ├╩▒έ╚φ

	FND_Value_Data(0, 2, 12);						// FND 0 ~ 2 FND_OFF
	
	while(SET.Menu)								// ╕▐┤║░κ 1 └╠╕ώ ╣▌║╣
    2916:	8b c0       	rjmp	.+278    	; 0x2a2e <Gateway_Set+0x12a>
	{
		if(KEY.Buff)							// Key └╘╖┬└╠ └╓└╕╕ώ
    2918:	80 91 81 42 	lds	r24, 0x4281	; 0x804281 <KEY+0x1>
    291c:	88 23       	and	r24, r24
    291e:	99 f0       	breq	.+38     	; 0x2946 <Gateway_Set+0x42>
		{
			if     (KEY.Key == 1 && count < 3) {count++; KEY.Key = 0;}	// ╛≈  ╣÷╞░ └╠╕ώ Count ┴Ϋ░κ
    2920:	80 91 82 42 	lds	r24, 0x4282	; 0x804282 <KEY+0x2>
    2924:	81 30       	cpi	r24, 0x01	; 1
    2926:	31 f4       	brne	.+12     	; 0x2934 <Gateway_Set+0x30>
    2928:	c3 30       	cpi	r28, 0x03	; 3
    292a:	20 f4       	brcc	.+8      	; 0x2934 <Gateway_Set+0x30>
    292c:	cf 5f       	subi	r28, 0xFF	; 255
    292e:	10 92 82 42 	sts	0x4282, r1	; 0x804282 <KEY+0x2>
    2932:	09 c0       	rjmp	.+18     	; 0x2946 <Gateway_Set+0x42>
			else if(KEY.Key == 3 && count > 0) {count--; KEY.Key = 0;}	// ┤┘┐Ό╣÷╞░ └╠╕ώ Count ░ρ╝╥
    2934:	80 91 82 42 	lds	r24, 0x4282	; 0x804282 <KEY+0x2>
    2938:	83 30       	cpi	r24, 0x03	; 3
    293a:	29 f4       	brne	.+10     	; 0x2946 <Gateway_Set+0x42>
    293c:	cc 23       	and	r28, r28
    293e:	19 f0       	breq	.+6      	; 0x2946 <Gateway_Set+0x42>
    2940:	c1 50       	subi	r28, 0x01	; 1
    2942:	10 92 82 42 	sts	0x4282, r1	; 0x804282 <KEY+0x2>
		}
		DIGIT[2][0] = fnd_tbl[count];					// FND 2.0 ┐κ Count ╟ξ╜├
    2946:	ec 2f       	mov	r30, r28
    2948:	f0 e0       	ldi	r31, 0x00	; 0
    294a:	e5 5c       	subi	r30, 0xC5	; 197
    294c:	fe 4b       	sbci	r31, 0xBE	; 190
    294e:	80 81       	ld	r24, Z
    2950:	80 93 77 41 	sts	0x4177, r24	; 0x804177 <DIGIT+0x8>

		switch(count)							// count
    2954:	c1 30       	cpi	r28, 0x01	; 1
    2956:	41 f0       	breq	.+16     	; 0x2968 <Gateway_Set+0x64>
    2958:	08 f4       	brcc	.+2      	; 0x295c <Gateway_Set+0x58>
    295a:	66 c0       	rjmp	.+204    	; 0x2a28 <Gateway_Set+0x124>
    295c:	c2 30       	cpi	r28, 0x02	; 2
    295e:	99 f1       	breq	.+102    	; 0x29c6 <Gateway_Set+0xc2>
    2960:	c3 30       	cpi	r28, 0x03	; 3
    2962:	09 f4       	brne	.+2      	; 0x2966 <Gateway_Set+0x62>
    2964:	5f c0       	rjmp	.+190    	; 0x2a24 <Gateway_Set+0x120>
    2966:	61 c0       	rjmp	.+194    	; 0x2a2a <Gateway_Set+0x126>
			case 0:							// Count = 0 └╠╕ώ
				count = 2;					// ╣▌║╣└╗ └π╟╪ Count╕ο ├╓░Ί╖╬ ┴Ϋ░κ ╜├┼┤
			break;

			case 1:							// Count = 1 └╠╕ώ
				DIGIT[0][3] = FND_G;				// FND 0 ┐κ G-no (▒╣╣°)╟ξ╜├
    2968:	ef e6       	ldi	r30, 0x6F	; 111
    296a:	f1 e4       	ldi	r31, 0x41	; 65
    296c:	8e eb       	ldi	r24, 0xBE	; 190
    296e:	83 83       	std	Z+3, r24	; 0x03
				DIGIT[0][2] = FND_MINUS;
    2970:	82 e0       	ldi	r24, 0x02	; 2
    2972:	82 83       	std	Z+2, r24	; 0x02
				DIGIT[0][1] = FND_n;
    2974:	8a e2       	ldi	r24, 0x2A	; 42
    2976:	81 83       	std	Z+1, r24	; 0x01
				DIGIT[0][0] = FND_o;
    2978:	8a e3       	ldi	r24, 0x3A	; 58
    297a:	80 83       	st	Z, r24

				DIGIT[1][3] = FND_OFF;				// FND 1 ┐κ ▒╣╣° ╣°╚μ ╟ξ╜├
    297c:	17 82       	std	Z+7, r1	; 0x07
				DIGIT[1][2] = FND_OFF;
    297e:	16 82       	std	Z+6, r1	; 0x06
				DIGIT[1][1] = fnd_tbl[Gukbun / 10];
    2980:	40 91 7c 42 	lds	r20, 0x427C	; 0x80427c <Gukbun>
    2984:	8d ec       	ldi	r24, 0xCD	; 205
    2986:	48 9f       	mul	r20, r24
    2988:	81 2d       	mov	r24, r1
    298a:	11 24       	eor	r1, r1
    298c:	86 95       	lsr	r24
    298e:	86 95       	lsr	r24
    2990:	86 95       	lsr	r24
    2992:	28 2f       	mov	r18, r24
    2994:	30 e0       	ldi	r19, 0x00	; 0
    2996:	25 5c       	subi	r18, 0xC5	; 197
    2998:	3e 4b       	sbci	r19, 0xBE	; 190
    299a:	d9 01       	movw	r26, r18
    299c:	9c 91       	ld	r25, X
    299e:	95 83       	std	Z+5, r25	; 0x05
				DIGIT[1][0] = fnd_tbl[Gukbun % 10];
    29a0:	88 0f       	add	r24, r24
    29a2:	98 2f       	mov	r25, r24
    29a4:	99 0f       	add	r25, r25
    29a6:	99 0f       	add	r25, r25
    29a8:	89 0f       	add	r24, r25
    29aa:	a4 2f       	mov	r26, r20
    29ac:	a8 1b       	sub	r26, r24
    29ae:	b0 e0       	ldi	r27, 0x00	; 0
    29b0:	a5 5c       	subi	r26, 0xC5	; 197
    29b2:	be 4b       	sbci	r27, 0xBE	; 190
    29b4:	8c 91       	ld	r24, X
    29b6:	84 83       	std	Z+4, r24	; 0x04

				if(SET.Select) {Gukbun_Set();}			// ░╘└╠╞χ ┐■└╠ ▒╣╣° ╝│┴ν
    29b8:	80 91 06 42 	lds	r24, 0x4206	; 0x804206 <SET+0x1>
    29bc:	88 23       	and	r24, r24
    29be:	a9 f1       	breq	.+106    	; 0x2a2a <Gateway_Set+0x126>
    29c0:	0e 94 d4 13 	call	0x27a8	; 0x27a8 <Gukbun_Set>
    29c4:	32 c0       	rjmp	.+100    	; 0x2a2a <Gateway_Set+0x126>
			break;

			case 2:							// Count = 2 └╠╕ώ
				DIGIT[0][3] = FND_G;				// FND 0 ┐κ G-Id ╟ξ╜├
    29c6:	ef e6       	ldi	r30, 0x6F	; 111
    29c8:	f1 e4       	ldi	r31, 0x41	; 65
    29ca:	8e eb       	ldi	r24, 0xBE	; 190
    29cc:	83 83       	std	Z+3, r24	; 0x03
				DIGIT[0][2] = FND_MINUS;
    29ce:	82 e0       	ldi	r24, 0x02	; 2
    29d0:	82 83       	std	Z+2, r24	; 0x02
				DIGIT[0][1] = FND_I;
    29d2:	80 e6       	ldi	r24, 0x60	; 96
    29d4:	81 83       	std	Z+1, r24	; 0x01
				DIGIT[0][0] = FND_d;
    29d6:	8a e7       	ldi	r24, 0x7A	; 122
    29d8:	80 83       	st	Z, r24

				DIGIT[1][3] = FND_OFF;				// FND 1 ┐κ ░╘└╠╞χ ┐■└╠ ID ╟ξ╜├
    29da:	17 82       	std	Z+7, r1	; 0x07
				DIGIT[1][2] = FND_OFF;
    29dc:	16 82       	std	Z+6, r1	; 0x06
				DIGIT[1][1] = fnd_tbl[Gwid / 10];
    29de:	40 91 86 42 	lds	r20, 0x4286	; 0x804286 <Gwid>
    29e2:	8d ec       	ldi	r24, 0xCD	; 205
    29e4:	48 9f       	mul	r20, r24
    29e6:	81 2d       	mov	r24, r1
    29e8:	11 24       	eor	r1, r1
    29ea:	86 95       	lsr	r24
    29ec:	86 95       	lsr	r24
    29ee:	86 95       	lsr	r24
    29f0:	28 2f       	mov	r18, r24
    29f2:	30 e0       	ldi	r19, 0x00	; 0
    29f4:	25 5c       	subi	r18, 0xC5	; 197
    29f6:	3e 4b       	sbci	r19, 0xBE	; 190
    29f8:	d9 01       	movw	r26, r18
    29fa:	9c 91       	ld	r25, X
    29fc:	95 83       	std	Z+5, r25	; 0x05
				DIGIT[1][0] = fnd_tbl[Gwid % 10];
    29fe:	88 0f       	add	r24, r24
    2a00:	98 2f       	mov	r25, r24
    2a02:	99 0f       	add	r25, r25
    2a04:	99 0f       	add	r25, r25
    2a06:	89 0f       	add	r24, r25
    2a08:	a4 2f       	mov	r26, r20
    2a0a:	a8 1b       	sub	r26, r24
    2a0c:	b0 e0       	ldi	r27, 0x00	; 0
    2a0e:	a5 5c       	subi	r26, 0xC5	; 197
    2a10:	be 4b       	sbci	r27, 0xBE	; 190
    2a12:	8c 91       	ld	r24, X
    2a14:	84 83       	std	Z+4, r24	; 0x04

				if(SET.Select) {Gwid_Set();}			// ░╘└╠╞χ ┐■└╠ ID ╝│┴ν
    2a16:	80 91 06 42 	lds	r24, 0x4206	; 0x804206 <SET+0x1>
    2a1a:	88 23       	and	r24, r24
    2a1c:	31 f0       	breq	.+12     	; 0x2a2a <Gateway_Set+0x126>
    2a1e:	0e 94 2b 14 	call	0x2856	; 0x2856 <Gwid_Set>
    2a22:	03 c0       	rjmp	.+6      	; 0x2a2a <Gateway_Set+0x126>
			break;

			case 3:							// Count = 3 └╠╕ώ
				count = 1;					// ╣▌║╣└╗ └π╟╪ Count╕ο ├╓└·╖╬ ░ρ╝╥ ╜├┼┤
    2a24:	c1 e0       	ldi	r28, 0x01	; 1
			break;
    2a26:	01 c0       	rjmp	.+2      	; 0x2a2a <Gateway_Set+0x126>
		DIGIT[2][0] = fnd_tbl[count];					// FND 2.0 ┐κ Count ╟ξ╜├

		switch(count)							// count
		{
			case 0:							// Count = 0 └╠╕ώ
				count = 2;					// ╣▌║╣└╗ └π╟╪ Count╕ο ├╓░Ί╖╬ ┴Ϋ░κ ╜├┼┤
    2a28:	c2 e0       	ldi	r28, 0x02	; 2

			case 3:							// Count = 3 └╠╕ώ
				count = 1;					// ╣▌║╣└╗ └π╟╪ Count╕ο ├╓└·╖╬ ░ρ╝╥ ╜├┼┤
			break;
		}
		wdt_reset();							// ┐÷─κ╡╢ ╕χ╝┬
    2a2a:	0e 94 ef 0c 	call	0x19de	; 0x19de <wdt_reset>
	uint8_t count = 1;							// ─τ┐Ό╞χ ║ψ╝÷ ├╩▒έ╚φ
	SET.Select = 0;								// Select ╣÷╞░ ├╩▒έ╚φ

	FND_Value_Data(0, 2, 12);						// FND 0 ~ 2 FND_OFF
	
	while(SET.Menu)								// ╕▐┤║░κ 1 └╠╕ώ ╣▌║╣
    2a2e:	80 91 05 42 	lds	r24, 0x4205	; 0x804205 <SET>
    2a32:	81 11       	cpse	r24, r1
    2a34:	71 cf       	rjmp	.-286    	; 0x2918 <Gateway_Set+0x14>
				count = 1;					// ╣▌║╣└╗ └π╟╪ Count╕ο ├╓└·╖╬ ░ρ╝╥ ╜├┼┤
			break;
		}
		wdt_reset();							// ┐÷─κ╡╢ ╕χ╝┬
	}
}
    2a36:	cf 91       	pop	r28
    2a38:	08 95       	ret

00002a3a <I2C_0_do_I2C_RESET>:
 * \brief Identical to I2C_0_master_operation(true);
 */
i2c_error_t I2C_0_master_read(void)
{
	return I2C_0_master_operation(true);
}
    2a3a:	e0 e2       	ldi	r30, 0x20	; 32
    2a3c:	f9 e0       	ldi	r31, 0x09	; 9
    2a3e:	84 81       	ldd	r24, Z+4	; 0x04
    2a40:	88 60       	ori	r24, 0x08	; 8
    2a42:	84 83       	std	Z+4, r24	; 0x04
    2a44:	85 81       	ldd	r24, Z+5	; 0x05
    2a46:	81 60       	ori	r24, 0x01	; 1
    2a48:	85 83       	std	Z+5, r24	; 0x05
    2a4a:	eb e7       	ldi	r30, 0x7B	; 123
    2a4c:	f1 e4       	ldi	r31, 0x41	; 65
    2a4e:	80 81       	ld	r24, Z
    2a50:	8e 7f       	andi	r24, 0xFE	; 254
    2a52:	80 83       	st	Z, r24
    2a54:	13 86       	std	Z+11, r1	; 0x0b
    2a56:	8e e0       	ldi	r24, 0x0E	; 14
    2a58:	08 95       	ret

00002a5a <I2C_0_do_I2C_IDLE>:
    2a5a:	eb e7       	ldi	r30, 0x7B	; 123
    2a5c:	f1 e4       	ldi	r31, 0x41	; 65
    2a5e:	80 81       	ld	r24, Z
    2a60:	8e 7f       	andi	r24, 0xFE	; 254
    2a62:	80 83       	st	Z, r24
    2a64:	13 86       	std	Z+11, r1	; 0x0b
    2a66:	80 e0       	ldi	r24, 0x00	; 0
    2a68:	08 95       	ret

00002a6a <I2C_0_do_I2C_SEND_STOP>:
    2a6a:	e0 e2       	ldi	r30, 0x20	; 32
    2a6c:	f9 e0       	ldi	r31, 0x09	; 9
    2a6e:	84 81       	ldd	r24, Z+4	; 0x04
    2a70:	83 60       	ori	r24, 0x03	; 3
    2a72:	84 83       	std	Z+4, r24	; 0x04
    2a74:	0e 94 2d 15 	call	0x2a5a	; 0x2a5a <I2C_0_do_I2C_IDLE>
    2a78:	08 95       	ret

00002a7a <I2C_0_do_I2C_SEND_ADR_READ>:
    2a7a:	eb e7       	ldi	r30, 0x7B	; 123
    2a7c:	f1 e4       	ldi	r31, 0x41	; 65
    2a7e:	80 81       	ld	r24, Z
    2a80:	88 60       	ori	r24, 0x08	; 8
    2a82:	80 83       	st	Z, r24
    2a84:	81 81       	ldd	r24, Z+1	; 0x01
    2a86:	90 e0       	ldi	r25, 0x00	; 0
    2a88:	88 0f       	add	r24, r24
    2a8a:	99 1f       	adc	r25, r25
    2a8c:	81 60       	ori	r24, 0x01	; 1
    2a8e:	80 93 27 09 	sts	0x0927, r24	; 0x800927 <__TEXT_REGION_LENGTH__+0x7e0927>
    2a92:	84 e0       	ldi	r24, 0x04	; 4
    2a94:	08 95       	ret

00002a96 <I2C_0_do_I2C_SEND_RESTART>:
    2a96:	0e 94 3d 15 	call	0x2a7a	; 0x2a7a <I2C_0_do_I2C_SEND_ADR_READ>
    2a9a:	08 95       	ret

00002a9c <I2C_0_do_I2C_SEND_RESTART_READ>:
    2a9c:	0e 94 3d 15 	call	0x2a7a	; 0x2a7a <I2C_0_do_I2C_SEND_ADR_READ>
    2aa0:	08 95       	ret

00002aa2 <I2C_0_do_I2C_SEND_ADR_WRITE>:
    2aa2:	eb e7       	ldi	r30, 0x7B	; 123
    2aa4:	f1 e4       	ldi	r31, 0x41	; 65
    2aa6:	80 81       	ld	r24, Z
    2aa8:	88 60       	ori	r24, 0x08	; 8
    2aaa:	80 83       	st	Z, r24
    2aac:	81 81       	ldd	r24, Z+1	; 0x01
    2aae:	88 0f       	add	r24, r24
    2ab0:	80 93 27 09 	sts	0x0927, r24	; 0x800927 <__TEXT_REGION_LENGTH__+0x7e0927>
    2ab4:	83 e0       	ldi	r24, 0x03	; 3
    2ab6:	08 95       	ret

00002ab8 <I2C_0_do_I2C_SEND_RESTART_WRITE>:
    2ab8:	0e 94 51 15 	call	0x2aa2	; 0x2aa2 <I2C_0_do_I2C_SEND_ADR_WRITE>
    2abc:	08 95       	ret

00002abe <I2C_0_do_I2C_DO_ADDRESS_NACK>:
    2abe:	ab e7       	ldi	r26, 0x7B	; 123
    2ac0:	b1 e4       	ldi	r27, 0x41	; 65
    2ac2:	8c 91       	ld	r24, X
    2ac4:	87 7f       	andi	r24, 0xF7	; 247
    2ac6:	8c 93       	st	X, r24
    2ac8:	82 e0       	ldi	r24, 0x02	; 2
    2aca:	1b 96       	adiw	r26, 0x0b	; 11
    2acc:	8c 93       	st	X, r24
    2ace:	1b 97       	sbiw	r26, 0x0b	; 11
    2ad0:	50 96       	adiw	r26, 0x10	; 16
    2ad2:	ed 91       	ld	r30, X+
    2ad4:	fc 91       	ld	r31, X
    2ad6:	51 97       	sbiw	r26, 0x11	; 17
    2ad8:	5c 96       	adiw	r26, 0x1c	; 28
    2ada:	8d 91       	ld	r24, X+
    2adc:	9c 91       	ld	r25, X
    2ade:	5d 97       	sbiw	r26, 0x1d	; 29
    2ae0:	09 95       	icall
    2ae2:	82 30       	cpi	r24, 0x02	; 2
    2ae4:	19 f0       	breq	.+6      	; 0x2aec <I2C_0_do_I2C_DO_ADDRESS_NACK+0x2e>
    2ae6:	83 30       	cpi	r24, 0x03	; 3
    2ae8:	21 f0       	breq	.+8      	; 0x2af2 <I2C_0_do_I2C_DO_ADDRESS_NACK+0x34>
    2aea:	06 c0       	rjmp	.+12     	; 0x2af8 <I2C_0_do_I2C_DO_ADDRESS_NACK+0x3a>
    2aec:	0e 94 4e 15 	call	0x2a9c	; 0x2a9c <I2C_0_do_I2C_SEND_RESTART_READ>
    2af0:	08 95       	ret
    2af2:	0e 94 5c 15 	call	0x2ab8	; 0x2ab8 <I2C_0_do_I2C_SEND_RESTART_WRITE>
    2af6:	08 95       	ret
    2af8:	0e 94 35 15 	call	0x2a6a	; 0x2a6a <I2C_0_do_I2C_SEND_STOP>
    2afc:	08 95       	ret

00002afe <I2C_0_do_I2C_RX_DO_ACK>:
    2afe:	e0 e2       	ldi	r30, 0x20	; 32
    2b00:	f9 e0       	ldi	r31, 0x09	; 9
    2b02:	84 81       	ldd	r24, Z+4	; 0x04
    2b04:	8b 7f       	andi	r24, 0xFB	; 251
    2b06:	84 83       	std	Z+4, r24	; 0x04
    2b08:	84 e0       	ldi	r24, 0x04	; 4
    2b0a:	08 95       	ret

00002b0c <I2C_0_do_I2C_TX_DO_ACK>:
    2b0c:	e0 e2       	ldi	r30, 0x20	; 32
    2b0e:	f9 e0       	ldi	r31, 0x09	; 9
    2b10:	84 81       	ldd	r24, Z+4	; 0x04
    2b12:	8b 7f       	andi	r24, 0xFB	; 251
    2b14:	84 83       	std	Z+4, r24	; 0x04
    2b16:	83 e0       	ldi	r24, 0x03	; 3
    2b18:	08 95       	ret

00002b1a <I2C_0_do_I2C_DO_NACK_STOP>:
    2b1a:	e0 e2       	ldi	r30, 0x20	; 32
    2b1c:	f9 e0       	ldi	r31, 0x09	; 9
    2b1e:	84 81       	ldd	r24, Z+4	; 0x04
    2b20:	84 60       	ori	r24, 0x04	; 4
    2b22:	84 83       	std	Z+4, r24	; 0x04
    2b24:	84 81       	ldd	r24, Z+4	; 0x04
    2b26:	83 60       	ori	r24, 0x03	; 3
    2b28:	84 83       	std	Z+4, r24	; 0x04
    2b2a:	0e 94 2d 15 	call	0x2a5a	; 0x2a5a <I2C_0_do_I2C_IDLE>
    2b2e:	08 95       	ret

00002b30 <I2C_0_do_I2C_DO_NACK_RESTART>:
    2b30:	e0 e2       	ldi	r30, 0x20	; 32
    2b32:	f9 e0       	ldi	r31, 0x09	; 9
    2b34:	84 81       	ldd	r24, Z+4	; 0x04
    2b36:	84 60       	ori	r24, 0x04	; 4
    2b38:	84 83       	std	Z+4, r24	; 0x04
    2b3a:	88 e0       	ldi	r24, 0x08	; 8
    2b3c:	08 95       	ret

00002b3e <I2C_0_do_I2C_TX>:
    2b3e:	80 91 25 09 	lds	r24, 0x0925	; 0x800925 <__TEXT_REGION_LENGTH__+0x7e0925>
    2b42:	84 ff       	sbrs	r24, 4
    2b44:	19 c0       	rjmp	.+50     	; 0x2b78 <I2C_0_do_I2C_TX+0x3a>
    2b46:	ab e7       	ldi	r26, 0x7B	; 123
    2b48:	b1 e4       	ldi	r27, 0x41	; 65
    2b4a:	52 96       	adiw	r26, 0x12	; 18
    2b4c:	ed 91       	ld	r30, X+
    2b4e:	fc 91       	ld	r31, X
    2b50:	53 97       	sbiw	r26, 0x13	; 19
    2b52:	5e 96       	adiw	r26, 0x1e	; 30
    2b54:	8d 91       	ld	r24, X+
    2b56:	9c 91       	ld	r25, X
    2b58:	5f 97       	sbiw	r26, 0x1f	; 31
    2b5a:	09 95       	icall
    2b5c:	82 30       	cpi	r24, 0x02	; 2
    2b5e:	19 f0       	breq	.+6      	; 0x2b66 <I2C_0_do_I2C_TX+0x28>
    2b60:	83 30       	cpi	r24, 0x03	; 3
    2b62:	21 f0       	breq	.+8      	; 0x2b6c <I2C_0_do_I2C_TX+0x2e>
    2b64:	06 c0       	rjmp	.+12     	; 0x2b72 <I2C_0_do_I2C_TX+0x34>
    2b66:	0e 94 4e 15 	call	0x2a9c	; 0x2a9c <I2C_0_do_I2C_SEND_RESTART_READ>
    2b6a:	08 95       	ret
    2b6c:	0e 94 5c 15 	call	0x2ab8	; 0x2ab8 <I2C_0_do_I2C_SEND_RESTART_WRITE>
    2b70:	08 95       	ret
    2b72:	0e 94 35 15 	call	0x2a6a	; 0x2a6a <I2C_0_do_I2C_SEND_STOP>
    2b76:	08 95       	ret
    2b78:	eb e7       	ldi	r30, 0x7B	; 123
    2b7a:	f1 e4       	ldi	r31, 0x41	; 65
    2b7c:	80 81       	ld	r24, Z
    2b7e:	87 7f       	andi	r24, 0xF7	; 247
    2b80:	80 83       	st	Z, r24
    2b82:	a2 81       	ldd	r26, Z+2	; 0x02
    2b84:	b3 81       	ldd	r27, Z+3	; 0x03
    2b86:	cd 01       	movw	r24, r26
    2b88:	01 96       	adiw	r24, 0x01	; 1
    2b8a:	82 83       	std	Z+2, r24	; 0x02
    2b8c:	93 83       	std	Z+3, r25	; 0x03
    2b8e:	8c 91       	ld	r24, X
    2b90:	80 93 28 09 	sts	0x0928, r24	; 0x800928 <__TEXT_REGION_LENGTH__+0x7e0928>
    2b94:	84 81       	ldd	r24, Z+4	; 0x04
    2b96:	95 81       	ldd	r25, Z+5	; 0x05
    2b98:	01 97       	sbiw	r24, 0x01	; 1
    2b9a:	84 83       	std	Z+4, r24	; 0x04
    2b9c:	95 83       	std	Z+5, r25	; 0x05
    2b9e:	89 2b       	or	r24, r25
    2ba0:	11 f0       	breq	.+4      	; 0x2ba6 <I2C_0_do_I2C_TX+0x68>
    2ba2:	83 e0       	ldi	r24, 0x03	; 3
    2ba4:	08 95       	ret
    2ba6:	85 e0       	ldi	r24, 0x05	; 5
    2ba8:	08 95       	ret

00002baa <I2C_0_do_I2C_RX>:
    2baa:	cf 93       	push	r28
    2bac:	df 93       	push	r29
    2bae:	eb e7       	ldi	r30, 0x7B	; 123
    2bb0:	f1 e4       	ldi	r31, 0x41	; 65
    2bb2:	80 81       	ld	r24, Z
    2bb4:	87 7f       	andi	r24, 0xF7	; 247
    2bb6:	80 83       	st	Z, r24
    2bb8:	84 81       	ldd	r24, Z+4	; 0x04
    2bba:	95 81       	ldd	r25, Z+5	; 0x05
    2bbc:	01 97       	sbiw	r24, 0x01	; 1
    2bbe:	31 f4       	brne	.+12     	; 0x2bcc <I2C_0_do_I2C_RX+0x22>
    2bc0:	e0 e2       	ldi	r30, 0x20	; 32
    2bc2:	f9 e0       	ldi	r31, 0x09	; 9
    2bc4:	84 81       	ldd	r24, Z+4	; 0x04
    2bc6:	84 60       	ori	r24, 0x04	; 4
    2bc8:	84 83       	std	Z+4, r24	; 0x04
    2bca:	05 c0       	rjmp	.+10     	; 0x2bd6 <I2C_0_do_I2C_RX+0x2c>
    2bcc:	e0 e2       	ldi	r30, 0x20	; 32
    2bce:	f9 e0       	ldi	r31, 0x09	; 9
    2bd0:	84 81       	ldd	r24, Z+4	; 0x04
    2bd2:	8b 7f       	andi	r24, 0xFB	; 251
    2bd4:	84 83       	std	Z+4, r24	; 0x04
    2bd6:	eb e7       	ldi	r30, 0x7B	; 123
    2bd8:	f1 e4       	ldi	r31, 0x41	; 65
    2bda:	84 81       	ldd	r24, Z+4	; 0x04
    2bdc:	95 81       	ldd	r25, Z+5	; 0x05
    2bde:	01 97       	sbiw	r24, 0x01	; 1
    2be0:	84 83       	std	Z+4, r24	; 0x04
    2be2:	95 83       	std	Z+5, r25	; 0x05
    2be4:	89 2b       	or	r24, r25
    2be6:	a9 f0       	breq	.+42     	; 0x2c12 <I2C_0_do_I2C_RX+0x68>
    2be8:	df 01       	movw	r26, r30
    2bea:	c2 81       	ldd	r28, Z+2	; 0x02
    2bec:	d3 81       	ldd	r29, Z+3	; 0x03
    2bee:	e0 e2       	ldi	r30, 0x20	; 32
    2bf0:	f9 e0       	ldi	r31, 0x09	; 9
    2bf2:	80 85       	ldd	r24, Z+8	; 0x08
    2bf4:	88 83       	st	Y, r24
    2bf6:	12 96       	adiw	r26, 0x02	; 2
    2bf8:	8d 91       	ld	r24, X+
    2bfa:	9c 91       	ld	r25, X
    2bfc:	13 97       	sbiw	r26, 0x03	; 3
    2bfe:	01 96       	adiw	r24, 0x01	; 1
    2c00:	12 96       	adiw	r26, 0x02	; 2
    2c02:	8d 93       	st	X+, r24
    2c04:	9c 93       	st	X, r25
    2c06:	13 97       	sbiw	r26, 0x03	; 3
    2c08:	84 81       	ldd	r24, Z+4	; 0x04
    2c0a:	82 60       	ori	r24, 0x02	; 2
    2c0c:	84 83       	std	Z+4, r24	; 0x04
    2c0e:	84 e0       	ldi	r24, 0x04	; 4
    2c10:	26 c0       	rjmp	.+76     	; 0x2c5e <I2C_0_do_I2C_RX+0xb4>
    2c12:	ab e7       	ldi	r26, 0x7B	; 123
    2c14:	b1 e4       	ldi	r27, 0x41	; 65
    2c16:	12 96       	adiw	r26, 0x02	; 2
    2c18:	ed 91       	ld	r30, X+
    2c1a:	fc 91       	ld	r31, X
    2c1c:	13 97       	sbiw	r26, 0x03	; 3
    2c1e:	80 91 28 09 	lds	r24, 0x0928	; 0x800928 <__TEXT_REGION_LENGTH__+0x7e0928>
    2c22:	80 83       	st	Z, r24
    2c24:	12 96       	adiw	r26, 0x02	; 2
    2c26:	8d 91       	ld	r24, X+
    2c28:	9c 91       	ld	r25, X
    2c2a:	13 97       	sbiw	r26, 0x03	; 3
    2c2c:	01 96       	adiw	r24, 0x01	; 1
    2c2e:	12 96       	adiw	r26, 0x02	; 2
    2c30:	8d 93       	st	X+, r24
    2c32:	9c 93       	st	X, r25
    2c34:	13 97       	sbiw	r26, 0x03	; 3
    2c36:	8c 91       	ld	r24, X
    2c38:	84 60       	ori	r24, 0x04	; 4
    2c3a:	8c 93       	st	X, r24
    2c3c:	1c 96       	adiw	r26, 0x0c	; 12
    2c3e:	ed 91       	ld	r30, X+
    2c40:	fc 91       	ld	r31, X
    2c42:	1d 97       	sbiw	r26, 0x0d	; 13
    2c44:	58 96       	adiw	r26, 0x18	; 24
    2c46:	8d 91       	ld	r24, X+
    2c48:	9c 91       	ld	r25, X
    2c4a:	59 97       	sbiw	r26, 0x19	; 25
    2c4c:	09 95       	icall
    2c4e:	82 50       	subi	r24, 0x02	; 2
    2c50:	82 30       	cpi	r24, 0x02	; 2
    2c52:	18 f4       	brcc	.+6      	; 0x2c5a <I2C_0_do_I2C_RX+0xb0>
    2c54:	0e 94 98 15 	call	0x2b30	; 0x2b30 <I2C_0_do_I2C_DO_NACK_RESTART>
    2c58:	02 c0       	rjmp	.+4      	; 0x2c5e <I2C_0_do_I2C_RX+0xb4>
    2c5a:	0e 94 8d 15 	call	0x2b1a	; 0x2b1a <I2C_0_do_I2C_DO_NACK_STOP>
    2c5e:	df 91       	pop	r29
    2c60:	cf 91       	pop	r28
    2c62:	08 95       	ret

00002c64 <I2C_0_do_I2C_TX_EMPTY>:
    2c64:	80 91 25 09 	lds	r24, 0x0925	; 0x800925 <__TEXT_REGION_LENGTH__+0x7e0925>
    2c68:	84 ff       	sbrs	r24, 4
    2c6a:	19 c0       	rjmp	.+50     	; 0x2c9e <I2C_0_do_I2C_TX_EMPTY+0x3a>
    2c6c:	ab e7       	ldi	r26, 0x7B	; 123
    2c6e:	b1 e4       	ldi	r27, 0x41	; 65
    2c70:	52 96       	adiw	r26, 0x12	; 18
    2c72:	ed 91       	ld	r30, X+
    2c74:	fc 91       	ld	r31, X
    2c76:	53 97       	sbiw	r26, 0x13	; 19
    2c78:	5e 96       	adiw	r26, 0x1e	; 30
    2c7a:	8d 91       	ld	r24, X+
    2c7c:	9c 91       	ld	r25, X
    2c7e:	5f 97       	sbiw	r26, 0x1f	; 31
    2c80:	09 95       	icall
    2c82:	82 30       	cpi	r24, 0x02	; 2
    2c84:	19 f0       	breq	.+6      	; 0x2c8c <I2C_0_do_I2C_TX_EMPTY+0x28>
    2c86:	83 30       	cpi	r24, 0x03	; 3
    2c88:	21 f0       	breq	.+8      	; 0x2c92 <I2C_0_do_I2C_TX_EMPTY+0x2e>
    2c8a:	06 c0       	rjmp	.+12     	; 0x2c98 <I2C_0_do_I2C_TX_EMPTY+0x34>
    2c8c:	0e 94 4e 15 	call	0x2a9c	; 0x2a9c <I2C_0_do_I2C_SEND_RESTART_READ>
    2c90:	08 95       	ret
    2c92:	0e 94 5c 15 	call	0x2ab8	; 0x2ab8 <I2C_0_do_I2C_SEND_RESTART_WRITE>
    2c96:	08 95       	ret
    2c98:	0e 94 35 15 	call	0x2a6a	; 0x2a6a <I2C_0_do_I2C_SEND_STOP>
    2c9c:	08 95       	ret
    2c9e:	ab e7       	ldi	r26, 0x7B	; 123
    2ca0:	b1 e4       	ldi	r27, 0x41	; 65
    2ca2:	8c 91       	ld	r24, X
    2ca4:	84 60       	ori	r24, 0x04	; 4
    2ca6:	8c 93       	st	X, r24
    2ca8:	1c 96       	adiw	r26, 0x0c	; 12
    2caa:	ed 91       	ld	r30, X+
    2cac:	fc 91       	ld	r31, X
    2cae:	1d 97       	sbiw	r26, 0x0d	; 13
    2cb0:	58 96       	adiw	r26, 0x18	; 24
    2cb2:	8d 91       	ld	r24, X+
    2cb4:	9c 91       	ld	r25, X
    2cb6:	59 97       	sbiw	r26, 0x19	; 25
    2cb8:	09 95       	icall
    2cba:	83 30       	cpi	r24, 0x03	; 3
    2cbc:	39 f0       	breq	.+14     	; 0x2ccc <I2C_0_do_I2C_TX_EMPTY+0x68>
    2cbe:	84 30       	cpi	r24, 0x04	; 4
    2cc0:	41 f0       	breq	.+16     	; 0x2cd2 <I2C_0_do_I2C_TX_EMPTY+0x6e>
    2cc2:	82 30       	cpi	r24, 0x02	; 2
    2cc4:	49 f4       	brne	.+18     	; 0x2cd8 <I2C_0_do_I2C_TX_EMPTY+0x74>
    2cc6:	0e 94 4e 15 	call	0x2a9c	; 0x2a9c <I2C_0_do_I2C_SEND_RESTART_READ>
    2cca:	08 95       	ret
    2ccc:	0e 94 5c 15 	call	0x2ab8	; 0x2ab8 <I2C_0_do_I2C_SEND_RESTART_WRITE>
    2cd0:	08 95       	ret
    2cd2:	0e 94 9f 15 	call	0x2b3e	; 0x2b3e <I2C_0_do_I2C_TX>
    2cd6:	08 95       	ret
    2cd8:	0e 94 35 15 	call	0x2a6a	; 0x2a6a <I2C_0_do_I2C_SEND_STOP>
    2cdc:	08 95       	ret

00002cde <I2C_0_do_I2C_BUS_COLLISION>:
    2cde:	e0 e2       	ldi	r30, 0x20	; 32
    2ce0:	f9 e0       	ldi	r31, 0x09	; 9
    2ce2:	85 81       	ldd	r24, Z+5	; 0x05
    2ce4:	88 60       	ori	r24, 0x08	; 8
    2ce6:	85 83       	std	Z+5, r24	; 0x05
    2ce8:	ab e7       	ldi	r26, 0x7B	; 123
    2cea:	b1 e4       	ldi	r27, 0x41	; 65
    2cec:	82 e0       	ldi	r24, 0x02	; 2
    2cee:	1b 96       	adiw	r26, 0x0b	; 11
    2cf0:	8c 93       	st	X, r24
    2cf2:	1b 97       	sbiw	r26, 0x0b	; 11
    2cf4:	1e 96       	adiw	r26, 0x0e	; 14
    2cf6:	ed 91       	ld	r30, X+
    2cf8:	fc 91       	ld	r31, X
    2cfa:	1f 97       	sbiw	r26, 0x0f	; 15
    2cfc:	5a 96       	adiw	r26, 0x1a	; 26
    2cfe:	8d 91       	ld	r24, X+
    2d00:	9c 91       	ld	r25, X
    2d02:	5b 97       	sbiw	r26, 0x1b	; 27
    2d04:	09 95       	icall
    2d06:	82 30       	cpi	r24, 0x02	; 2
    2d08:	19 f0       	breq	.+6      	; 0x2d10 <I2C_0_do_I2C_BUS_COLLISION+0x32>
    2d0a:	83 30       	cpi	r24, 0x03	; 3
    2d0c:	21 f0       	breq	.+8      	; 0x2d16 <I2C_0_do_I2C_BUS_COLLISION+0x38>
    2d0e:	06 c0       	rjmp	.+12     	; 0x2d1c <I2C_0_do_I2C_BUS_COLLISION+0x3e>
    2d10:	0e 94 4e 15 	call	0x2a9c	; 0x2a9c <I2C_0_do_I2C_SEND_RESTART_READ>
    2d14:	08 95       	ret
    2d16:	0e 94 5c 15 	call	0x2ab8	; 0x2ab8 <I2C_0_do_I2C_SEND_RESTART_WRITE>
    2d1a:	08 95       	ret
    2d1c:	0e 94 1d 15 	call	0x2a3a	; 0x2a3a <I2C_0_do_I2C_RESET>
    2d20:	08 95       	ret

00002d22 <I2C_0_do_I2C_BUS_ERROR>:
    2d22:	e0 e2       	ldi	r30, 0x20	; 32
    2d24:	f9 e0       	ldi	r31, 0x09	; 9
    2d26:	84 81       	ldd	r24, Z+4	; 0x04
    2d28:	88 60       	ori	r24, 0x08	; 8
    2d2a:	84 83       	std	Z+4, r24	; 0x04
    2d2c:	85 81       	ldd	r24, Z+5	; 0x05
    2d2e:	81 60       	ori	r24, 0x01	; 1
    2d30:	85 83       	std	Z+5, r24	; 0x05
    2d32:	eb e7       	ldi	r30, 0x7B	; 123
    2d34:	f1 e4       	ldi	r31, 0x41	; 65
    2d36:	80 81       	ld	r24, Z
    2d38:	8e 7f       	andi	r24, 0xFE	; 254
    2d3a:	80 83       	st	Z, r24
    2d3c:	82 e0       	ldi	r24, 0x02	; 2
    2d3e:	83 87       	std	Z+11, r24	; 0x0b
    2d40:	8e e0       	ldi	r24, 0x0E	; 14
    2d42:	08 95       	ret

00002d44 <I2C_0_master_isr>:
    2d44:	cf 93       	push	r28
    2d46:	df 93       	push	r29
    2d48:	e0 e2       	ldi	r30, 0x20	; 32
    2d4a:	f9 e0       	ldi	r31, 0x09	; 9
    2d4c:	85 81       	ldd	r24, Z+5	; 0x05
    2d4e:	80 6c       	ori	r24, 0xC0	; 192
    2d50:	85 83       	std	Z+5, r24	; 0x05
    2d52:	80 91 7b 41 	lds	r24, 0x417B	; 0x80417b <I2C_0_status>
    2d56:	83 ff       	sbrs	r24, 3
    2d58:	07 c0       	rjmp	.+14     	; 0x2d68 <I2C_0_master_isr+0x24>
    2d5a:	80 91 25 09 	lds	r24, 0x0925	; 0x800925 <__TEXT_REGION_LENGTH__+0x7e0925>
    2d5e:	84 ff       	sbrs	r24, 4
    2d60:	03 c0       	rjmp	.+6      	; 0x2d68 <I2C_0_master_isr+0x24>
    2d62:	8f e0       	ldi	r24, 0x0F	; 15
    2d64:	80 93 85 41 	sts	0x4185, r24	; 0x804185 <I2C_0_status+0xa>
    2d68:	80 91 25 09 	lds	r24, 0x0925	; 0x800925 <__TEXT_REGION_LENGTH__+0x7e0925>
    2d6c:	83 ff       	sbrs	r24, 3
    2d6e:	03 c0       	rjmp	.+6      	; 0x2d76 <I2C_0_master_isr+0x32>
    2d70:	80 e1       	ldi	r24, 0x10	; 16
    2d72:	80 93 85 41 	sts	0x4185, r24	; 0x804185 <I2C_0_status+0xa>
    2d76:	80 91 25 09 	lds	r24, 0x0925	; 0x800925 <__TEXT_REGION_LENGTH__+0x7e0925>
    2d7a:	82 ff       	sbrs	r24, 2
    2d7c:	03 c0       	rjmp	.+6      	; 0x2d84 <I2C_0_master_isr+0x40>
    2d7e:	81 e1       	ldi	r24, 0x11	; 17
    2d80:	80 93 85 41 	sts	0x4185, r24	; 0x804185 <I2C_0_status+0xa>
    2d84:	cb e7       	ldi	r28, 0x7B	; 123
    2d86:	d1 e4       	ldi	r29, 0x41	; 65
    2d88:	ea 85       	ldd	r30, Y+10	; 0x0a
    2d8a:	f0 e0       	ldi	r31, 0x00	; 0
    2d8c:	ee 0f       	add	r30, r30
    2d8e:	ff 1f       	adc	r31, r31
    2d90:	ea 5f       	subi	r30, 0xFA	; 250
    2d92:	ff 4b       	sbci	r31, 0xBF	; 191
    2d94:	01 90       	ld	r0, Z+
    2d96:	f0 81       	ld	r31, Z
    2d98:	e0 2d       	mov	r30, r0
    2d9a:	09 95       	icall
    2d9c:	8a 87       	std	Y+10, r24	; 0x0a
    2d9e:	df 91       	pop	r29
    2da0:	cf 91       	pop	r28
    2da2:	08 95       	ret

00002da4 <I2C_0_return_stop>:
    2da4:	81 e0       	ldi	r24, 0x01	; 1
    2da6:	08 95       	ret

00002da8 <I2C_0_return_reset>:
    2da8:	85 e0       	ldi	r24, 0x05	; 5
    2daa:	08 95       	ret

00002dac <I2C_0_set_callback>:
    2dac:	61 15       	cp	r22, r1
    2dae:	71 05       	cpc	r23, r1
    2db0:	91 f0       	breq	.+36     	; 0x2dd6 <I2C_0_set_callback+0x2a>
    2db2:	90 e0       	ldi	r25, 0x00	; 0
    2db4:	fc 01       	movw	r30, r24
    2db6:	36 96       	adiw	r30, 0x06	; 6
    2db8:	ee 0f       	add	r30, r30
    2dba:	ff 1f       	adc	r31, r31
    2dbc:	e5 58       	subi	r30, 0x85	; 133
    2dbe:	fe 4b       	sbci	r31, 0xBE	; 190
    2dc0:	60 83       	st	Z, r22
    2dc2:	71 83       	std	Z+1, r23	; 0x01
    2dc4:	fc 01       	movw	r30, r24
    2dc6:	3c 96       	adiw	r30, 0x0c	; 12
    2dc8:	ee 0f       	add	r30, r30
    2dca:	ff 1f       	adc	r31, r31
    2dcc:	e5 58       	subi	r30, 0x85	; 133
    2dce:	fe 4b       	sbci	r31, 0xBE	; 190
    2dd0:	40 83       	st	Z, r20
    2dd2:	51 83       	std	Z+1, r21	; 0x01
    2dd4:	08 95       	ret
    2dd6:	90 e0       	ldi	r25, 0x00	; 0
    2dd8:	fc 01       	movw	r30, r24
    2dda:	36 96       	adiw	r30, 0x06	; 6
    2ddc:	ee 0f       	add	r30, r30
    2dde:	ff 1f       	adc	r31, r31
    2de0:	e5 58       	subi	r30, 0x85	; 133
    2de2:	fe 4b       	sbci	r31, 0xBE	; 190
    2de4:	22 ed       	ldi	r18, 0xD2	; 210
    2de6:	36 e1       	ldi	r19, 0x16	; 22
    2de8:	20 83       	st	Z, r18
    2dea:	31 83       	std	Z+1, r19	; 0x01
    2dec:	fc 01       	movw	r30, r24
    2dee:	3c 96       	adiw	r30, 0x0c	; 12
    2df0:	ee 0f       	add	r30, r30
    2df2:	ff 1f       	adc	r31, r31
    2df4:	e5 58       	subi	r30, 0x85	; 133
    2df6:	fe 4b       	sbci	r31, 0xBE	; 190
    2df8:	10 82       	st	Z, r1
    2dfa:	11 82       	std	Z+1, r1	; 0x01
    2dfc:	08 95       	ret

00002dfe <I2C_0_set_data_complete_callback>:
    2dfe:	ab 01       	movw	r20, r22
    2e00:	bc 01       	movw	r22, r24
    2e02:	80 e0       	ldi	r24, 0x00	; 0
    2e04:	0e 94 d6 16 	call	0x2dac	; 0x2dac <I2C_0_set_callback>
    2e08:	08 95       	ret

00002e0a <I2C_0_set_address_nack_callback>:
    2e0a:	ab 01       	movw	r20, r22
    2e0c:	bc 01       	movw	r22, r24
    2e0e:	82 e0       	ldi	r24, 0x02	; 2
    2e10:	0e 94 d6 16 	call	0x2dac	; 0x2dac <I2C_0_set_callback>
    2e14:	08 95       	ret

00002e16 <I2C_0_init>:
    2e16:	e0 e2       	ldi	r30, 0x20	; 32
    2e18:	f9 e0       	ldi	r31, 0x09	; 9
    2e1a:	84 e4       	ldi	r24, 0x44	; 68
    2e1c:	86 83       	std	Z+6, r24	; 0x06
    2e1e:	81 ec       	ldi	r24, 0xC1	; 193
    2e20:	83 83       	std	Z+3, r24	; 0x03
    2e22:	08 95       	ret

00002e24 <I2C_0_open>:
    2e24:	90 91 7b 41 	lds	r25, 0x417B	; 0x80417b <I2C_0_status>
    2e28:	91 fd       	sbrc	r25, 1
    2e2a:	37 c0       	rjmp	.+110    	; 0x2e9a <I2C_0_open+0x76>
    2e2c:	eb e7       	ldi	r30, 0x7B	; 123
    2e2e:	f1 e4       	ldi	r31, 0x41	; 65
    2e30:	81 83       	std	Z+1, r24	; 0x01
    2e32:	89 2f       	mov	r24, r25
    2e34:	8e 7f       	andi	r24, 0xFE	; 254
    2e36:	82 60       	ori	r24, 0x02	; 2
    2e38:	9e e0       	ldi	r25, 0x0E	; 14
    2e3a:	92 87       	std	Z+10, r25	; 0x0a
    2e3c:	24 ef       	ldi	r18, 0xF4	; 244
    2e3e:	31 e0       	ldi	r19, 0x01	; 1
    2e40:	20 87       	std	Z+8, r18	; 0x08
    2e42:	31 87       	std	Z+9, r19	; 0x09
    2e44:	87 7f       	andi	r24, 0xF7	; 247
    2e46:	84 60       	ori	r24, 0x04	; 4
    2e48:	80 83       	st	Z, r24
    2e4a:	82 ed       	ldi	r24, 0xD2	; 210
    2e4c:	96 e1       	ldi	r25, 0x16	; 22
    2e4e:	84 87       	std	Z+12, r24	; 0x0c
    2e50:	95 87       	std	Z+13, r25	; 0x0d
    2e52:	10 8e       	std	Z+24, r1	; 0x18
    2e54:	11 8e       	std	Z+25, r1	; 0x19
    2e56:	86 87       	std	Z+14, r24	; 0x0e
    2e58:	97 87       	std	Z+15, r25	; 0x0f
    2e5a:	12 8e       	std	Z+26, r1	; 0x1a
    2e5c:	13 8e       	std	Z+27, r1	; 0x1b
    2e5e:	80 8b       	std	Z+16, r24	; 0x10
    2e60:	91 8b       	std	Z+17, r25	; 0x11
    2e62:	14 8e       	std	Z+28, r1	; 0x1c
    2e64:	15 8e       	std	Z+29, r1	; 0x1d
    2e66:	82 8b       	std	Z+18, r24	; 0x12
    2e68:	93 8b       	std	Z+19, r25	; 0x13
    2e6a:	16 8e       	std	Z+30, r1	; 0x1e
    2e6c:	17 8e       	std	Z+31, r1	; 0x1f
    2e6e:	84 ed       	ldi	r24, 0xD4	; 212
    2e70:	96 e1       	ldi	r25, 0x16	; 22
    2e72:	84 8b       	std	Z+20, r24	; 0x14
    2e74:	95 8b       	std	Z+21, r25	; 0x15
    2e76:	10 a2       	std	Z+32, r1	; 0x20
    2e78:	11 a2       	std	Z+33, r1	; 0x21
    2e7a:	e0 e2       	ldi	r30, 0x20	; 32
    2e7c:	f9 e0       	ldi	r31, 0x09	; 9
    2e7e:	84 81       	ldd	r24, Z+4	; 0x04
    2e80:	88 60       	ori	r24, 0x08	; 8
    2e82:	84 83       	std	Z+4, r24	; 0x04
    2e84:	85 81       	ldd	r24, Z+5	; 0x05
    2e86:	81 60       	ori	r24, 0x01	; 1
    2e88:	85 83       	std	Z+5, r24	; 0x05
    2e8a:	85 81       	ldd	r24, Z+5	; 0x05
    2e8c:	80 6c       	ori	r24, 0xC0	; 192
    2e8e:	85 83       	std	Z+5, r24	; 0x05
    2e90:	83 81       	ldd	r24, Z+3	; 0x03
    2e92:	80 6c       	ori	r24, 0xC0	; 192
    2e94:	83 83       	std	Z+3, r24	; 0x03
    2e96:	80 e0       	ldi	r24, 0x00	; 0
    2e98:	08 95       	ret
    2e9a:	81 e0       	ldi	r24, 0x01	; 1
    2e9c:	08 95       	ret

00002e9e <I2C_0_close>:
    2e9e:	80 91 25 09 	lds	r24, 0x0925	; 0x800925 <__TEXT_REGION_LENGTH__+0x7e0925>
    2ea2:	82 ff       	sbrs	r24, 2
    2ea4:	07 c0       	rjmp	.+14     	; 0x2eb4 <I2C_0_close+0x16>
    2ea6:	eb e7       	ldi	r30, 0x7B	; 123
    2ea8:	f1 e4       	ldi	r31, 0x41	; 65
    2eaa:	80 81       	ld	r24, Z
    2eac:	8e 7f       	andi	r24, 0xFE	; 254
    2eae:	80 83       	st	Z, r24
    2eb0:	82 e0       	ldi	r24, 0x02	; 2
    2eb2:	83 87       	std	Z+11, r24	; 0x0b
    2eb4:	80 91 7b 41 	lds	r24, 0x417B	; 0x80417b <I2C_0_status>
    2eb8:	80 fd       	sbrc	r24, 0
    2eba:	17 c0       	rjmp	.+46     	; 0x2eea <I2C_0_close+0x4c>
    2ebc:	eb e7       	ldi	r30, 0x7B	; 123
    2ebe:	f1 e4       	ldi	r31, 0x41	; 65
    2ec0:	8d 7f       	andi	r24, 0xFD	; 253
    2ec2:	80 83       	st	Z, r24
    2ec4:	8f ef       	ldi	r24, 0xFF	; 255
    2ec6:	81 83       	std	Z+1, r24	; 0x01
    2ec8:	a0 e2       	ldi	r26, 0x20	; 32
    2eca:	b9 e0       	ldi	r27, 0x09	; 9
    2ecc:	15 96       	adiw	r26, 0x05	; 5
    2ece:	8c 91       	ld	r24, X
    2ed0:	15 97       	sbiw	r26, 0x05	; 5
    2ed2:	80 6c       	ori	r24, 0xC0	; 192
    2ed4:	15 96       	adiw	r26, 0x05	; 5
    2ed6:	8c 93       	st	X, r24
    2ed8:	15 97       	sbiw	r26, 0x05	; 5
    2eda:	13 96       	adiw	r26, 0x03	; 3
    2edc:	8c 91       	ld	r24, X
    2ede:	13 97       	sbiw	r26, 0x03	; 3
    2ee0:	8f 73       	andi	r24, 0x3F	; 63
    2ee2:	13 96       	adiw	r26, 0x03	; 3
    2ee4:	8c 93       	st	X, r24
    2ee6:	83 85       	ldd	r24, Z+11	; 0x0b
    2ee8:	08 95       	ret
    2eea:	81 e0       	ldi	r24, 0x01	; 1
    2eec:	08 95       	ret

00002eee <I2C_0_set_buffer>:
    2eee:	9c 01       	movw	r18, r24
    2ef0:	90 91 7b 41 	lds	r25, 0x417B	; 0x80417b <I2C_0_status>
    2ef4:	92 ff       	sbrs	r25, 2
    2ef6:	09 c0       	rjmp	.+18     	; 0x2f0a <I2C_0_set_buffer+0x1c>
    2ef8:	eb e7       	ldi	r30, 0x7B	; 123
    2efa:	f1 e4       	ldi	r31, 0x41	; 65
    2efc:	22 83       	std	Z+2, r18	; 0x02
    2efe:	33 83       	std	Z+3, r19	; 0x03
    2f00:	64 83       	std	Z+4, r22	; 0x04
    2f02:	75 83       	std	Z+5, r23	; 0x05
    2f04:	89 2f       	mov	r24, r25
    2f06:	8b 7f       	andi	r24, 0xFB	; 251
    2f08:	80 83       	st	Z, r24
    2f0a:	08 95       	ret

00002f0c <I2C_0_master_operation>:
    2f0c:	90 91 7b 41 	lds	r25, 0x417B	; 0x80417b <I2C_0_status>
    2f10:	90 fd       	sbrc	r25, 0
    2f12:	11 c0       	rjmp	.+34     	; 0x2f36 <I2C_0_master_operation+0x2a>
    2f14:	eb e7       	ldi	r30, 0x7B	; 123
    2f16:	f1 e4       	ldi	r31, 0x41	; 65
    2f18:	91 60       	ori	r25, 0x01	; 1
    2f1a:	90 83       	st	Z, r25
    2f1c:	88 23       	and	r24, r24
    2f1e:	21 f0       	breq	.+8      	; 0x2f28 <I2C_0_master_operation+0x1c>
    2f20:	81 e0       	ldi	r24, 0x01	; 1
    2f22:	80 93 85 41 	sts	0x4185, r24	; 0x804185 <I2C_0_status+0xa>
    2f26:	03 c0       	rjmp	.+6      	; 0x2f2e <I2C_0_master_operation+0x22>
    2f28:	82 e0       	ldi	r24, 0x02	; 2
    2f2a:	80 93 85 41 	sts	0x4185, r24	; 0x804185 <I2C_0_status+0xa>
    2f2e:	0e 94 a2 16 	call	0x2d44	; 0x2d44 <I2C_0_master_isr>
    2f32:	80 e0       	ldi	r24, 0x00	; 0
    2f34:	08 95       	ret
    2f36:	81 e0       	ldi	r24, 0x01	; 1
    2f38:	08 95       	ret

00002f3a <I2C_0_master_write>:
/**
 * \brief Identical to I2C_0_master_operation(false);
 */
i2c_error_t I2C_0_master_write(void)
{
	return I2C_0_master_operation(false);
    2f3a:	80 e0       	ldi	r24, 0x00	; 0
    2f3c:	0e 94 86 17 	call	0x2f0c	; 0x2f0c <I2C_0_master_operation>
}
    2f40:	08 95       	ret

00002f42 <__vector_43>:
    I2C_0_do_I2C_BUS_COLLISION,      // I2C_BUS_COLLISION
    I2C_0_do_I2C_BUS_ERROR           // I2C_BUS_ERROR
};

ISR(TWI1_TWIM_vect)
{
    2f42:	1f 92       	push	r1
    2f44:	0f 92       	push	r0
    2f46:	0f b6       	in	r0, 0x3f	; 63
    2f48:	0f 92       	push	r0
    2f4a:	11 24       	eor	r1, r1
    2f4c:	0b b6       	in	r0, 0x3b	; 59
    2f4e:	0f 92       	push	r0
    2f50:	2f 93       	push	r18
    2f52:	3f 93       	push	r19
    2f54:	4f 93       	push	r20
    2f56:	5f 93       	push	r21
    2f58:	6f 93       	push	r22
    2f5a:	7f 93       	push	r23
    2f5c:	8f 93       	push	r24
    2f5e:	9f 93       	push	r25
    2f60:	af 93       	push	r26
    2f62:	bf 93       	push	r27
    2f64:	ef 93       	push	r30
    2f66:	ff 93       	push	r31
	I2C_0_master_isr();
    2f68:	0e 94 a2 16 	call	0x2d44	; 0x2d44 <I2C_0_master_isr>
}
    2f6c:	ff 91       	pop	r31
    2f6e:	ef 91       	pop	r30
    2f70:	bf 91       	pop	r27
    2f72:	af 91       	pop	r26
    2f74:	9f 91       	pop	r25
    2f76:	8f 91       	pop	r24
    2f78:	7f 91       	pop	r23
    2f7a:	6f 91       	pop	r22
    2f7c:	5f 91       	pop	r21
    2f7e:	4f 91       	pop	r20
    2f80:	3f 91       	pop	r19
    2f82:	2f 91       	pop	r18
    2f84:	0f 90       	pop	r0
    2f86:	0b be       	out	0x3b, r0	; 59
    2f88:	0f 90       	pop	r0
    2f8a:	0f be       	out	0x3f, r0	; 63
    2f8c:	0f 90       	pop	r0
    2f8e:	1f 90       	pop	r1
    2f90:	18 95       	reti

00002f92 <I2C_0_wr1RegCompleteHandler>:
    2f92:	61 e0       	ldi	r22, 0x01	; 1
    2f94:	70 e0       	ldi	r23, 0x00	; 0
    2f96:	0e 94 77 17 	call	0x2eee	; 0x2eee <I2C_0_set_buffer>
    2f9a:	60 e0       	ldi	r22, 0x00	; 0
    2f9c:	70 e0       	ldi	r23, 0x00	; 0
    2f9e:	80 e0       	ldi	r24, 0x00	; 0
    2fa0:	90 e0       	ldi	r25, 0x00	; 0
    2fa2:	0e 94 ff 16 	call	0x2dfe	; 0x2dfe <I2C_0_set_data_complete_callback>
    2fa6:	84 e0       	ldi	r24, 0x04	; 4
    2fa8:	08 95       	ret

00002faa <I2C_0_rd1RegCompleteHandler>:
    2faa:	61 e0       	ldi	r22, 0x01	; 1
    2fac:	70 e0       	ldi	r23, 0x00	; 0
    2fae:	0e 94 77 17 	call	0x2eee	; 0x2eee <I2C_0_set_buffer>
    2fb2:	60 e0       	ldi	r22, 0x00	; 0
    2fb4:	70 e0       	ldi	r23, 0x00	; 0
    2fb6:	80 e0       	ldi	r24, 0x00	; 0
    2fb8:	90 e0       	ldi	r25, 0x00	; 0
    2fba:	0e 94 ff 16 	call	0x2dfe	; 0x2dfe <I2C_0_set_data_complete_callback>
    2fbe:	82 e0       	ldi	r24, 0x02	; 2
    2fc0:	08 95       	ret

00002fc2 <I2C_0_write1ByteRegister>:
    2fc2:	ff 92       	push	r15
    2fc4:	0f 93       	push	r16
    2fc6:	1f 93       	push	r17
    2fc8:	cf 93       	push	r28
    2fca:	df 93       	push	r29
    2fcc:	00 d0       	rcall	.+0      	; 0x2fce <I2C_0_write1ByteRegister+0xc>
    2fce:	cd b7       	in	r28, 0x3d	; 61
    2fd0:	de b7       	in	r29, 0x3e	; 62
    2fd2:	f8 2e       	mov	r15, r24
    2fd4:	69 83       	std	Y+1, r22	; 0x01
    2fd6:	4a 83       	std	Y+2, r20	; 0x02
    2fd8:	00 e1       	ldi	r16, 0x10	; 16
    2fda:	17 e2       	ldi	r17, 0x27	; 39
    2fdc:	8f 2d       	mov	r24, r15
    2fde:	0e 94 12 17 	call	0x2e24	; 0x2e24 <I2C_0_open>
    2fe2:	81 30       	cpi	r24, 0x01	; 1
    2fe4:	19 f4       	brne	.+6      	; 0x2fec <I2C_0_write1ByteRegister+0x2a>
    2fe6:	01 50       	subi	r16, 0x01	; 1
    2fe8:	11 09       	sbc	r17, r1
    2fea:	c1 f7       	brne	.-16     	; 0x2fdc <I2C_0_write1ByteRegister+0x1a>
    2fec:	01 2b       	or	r16, r17
    2fee:	11 f1       	breq	.+68     	; 0x3034 <I2C_0_write1ByteRegister+0x72>
    2ff0:	be 01       	movw	r22, r28
    2ff2:	6e 5f       	subi	r22, 0xFE	; 254
    2ff4:	7f 4f       	sbci	r23, 0xFF	; 255
    2ff6:	89 ec       	ldi	r24, 0xC9	; 201
    2ff8:	97 e1       	ldi	r25, 0x17	; 23
    2ffa:	0e 94 ff 16 	call	0x2dfe	; 0x2dfe <I2C_0_set_data_complete_callback>
    2ffe:	61 e0       	ldi	r22, 0x01	; 1
    3000:	70 e0       	ldi	r23, 0x00	; 0
    3002:	ce 01       	movw	r24, r28
    3004:	01 96       	adiw	r24, 0x01	; 1
    3006:	0e 94 77 17 	call	0x2eee	; 0x2eee <I2C_0_set_buffer>
    300a:	60 e0       	ldi	r22, 0x00	; 0
    300c:	70 e0       	ldi	r23, 0x00	; 0
    300e:	85 e6       	ldi	r24, 0x65	; 101
    3010:	98 e1       	ldi	r25, 0x18	; 24
    3012:	0e 94 05 17 	call	0x2e0a	; 0x2e0a <I2C_0_set_address_nack_callback>
    3016:	0e 94 9d 17 	call	0x2f3a	; 0x2f3a <I2C_0_master_write>
    301a:	00 e1       	ldi	r16, 0x10	; 16
    301c:	17 e2       	ldi	r17, 0x27	; 39
    301e:	0e 94 4f 17 	call	0x2e9e	; 0x2e9e <I2C_0_close>
    3022:	81 30       	cpi	r24, 0x01	; 1
    3024:	19 f4       	brne	.+6      	; 0x302c <I2C_0_write1ByteRegister+0x6a>
    3026:	01 50       	subi	r16, 0x01	; 1
    3028:	11 09       	sbc	r17, r1
    302a:	c9 f7       	brne	.-14     	; 0x301e <I2C_0_write1ByteRegister+0x5c>
    302c:	01 2b       	or	r16, r17
    302e:	21 f4       	brne	.+8      	; 0x3038 <I2C_0_write1ByteRegister+0x76>
    3030:	82 e0       	ldi	r24, 0x02	; 2
    3032:	03 c0       	rjmp	.+6      	; 0x303a <I2C_0_write1ByteRegister+0x78>
    3034:	81 e0       	ldi	r24, 0x01	; 1
    3036:	01 c0       	rjmp	.+2      	; 0x303a <I2C_0_write1ByteRegister+0x78>
    3038:	80 e0       	ldi	r24, 0x00	; 0
    303a:	0f 90       	pop	r0
    303c:	0f 90       	pop	r0
    303e:	df 91       	pop	r29
    3040:	cf 91       	pop	r28
    3042:	1f 91       	pop	r17
    3044:	0f 91       	pop	r16
    3046:	ff 90       	pop	r15
    3048:	08 95       	ret

0000304a <I2C_0_read1ByteRegister>:
    304a:	ef 92       	push	r14
    304c:	ff 92       	push	r15
    304e:	1f 93       	push	r17
    3050:	cf 93       	push	r28
    3052:	df 93       	push	r29
    3054:	00 d0       	rcall	.+0      	; 0x3056 <I2C_0_read1ByteRegister+0xc>
    3056:	cd b7       	in	r28, 0x3d	; 61
    3058:	de b7       	in	r29, 0x3e	; 62
    305a:	18 2f       	mov	r17, r24
    305c:	6a 83       	std	Y+2, r22	; 0x02
    305e:	8a e2       	ldi	r24, 0x2A	; 42
    3060:	89 83       	std	Y+1, r24	; 0x01
    3062:	68 94       	set
    3064:	ee 24       	eor	r14, r14
    3066:	e1 f8       	bld	r14, 1
    3068:	f1 2c       	mov	r15, r1
    306a:	23 c0       	rjmp	.+70     	; 0x30b2 <I2C_0_read1ByteRegister+0x68>
    306c:	81 2f       	mov	r24, r17
    306e:	0e 94 12 17 	call	0x2e24	; 0x2e24 <I2C_0_open>
    3072:	88 23       	and	r24, r24
    3074:	d9 f3       	breq	.-10     	; 0x306c <I2C_0_read1ByteRegister+0x22>
    3076:	be 01       	movw	r22, r28
    3078:	6f 5f       	subi	r22, 0xFF	; 255
    307a:	7f 4f       	sbci	r23, 0xFF	; 255
    307c:	85 ed       	ldi	r24, 0xD5	; 213
    307e:	97 e1       	ldi	r25, 0x17	; 23
    3080:	0e 94 ff 16 	call	0x2dfe	; 0x2dfe <I2C_0_set_data_complete_callback>
    3084:	61 e0       	ldi	r22, 0x01	; 1
    3086:	70 e0       	ldi	r23, 0x00	; 0
    3088:	ce 01       	movw	r24, r28
    308a:	02 96       	adiw	r24, 0x02	; 2
    308c:	0e 94 77 17 	call	0x2eee	; 0x2eee <I2C_0_set_buffer>
    3090:	60 e0       	ldi	r22, 0x00	; 0
    3092:	70 e0       	ldi	r23, 0x00	; 0
    3094:	85 e6       	ldi	r24, 0x65	; 101
    3096:	98 e1       	ldi	r25, 0x18	; 24
    3098:	0e 94 05 17 	call	0x2e0a	; 0x2e0a <I2C_0_set_address_nack_callback>
    309c:	0e 94 9d 17 	call	0x2f3a	; 0x2f3a <I2C_0_master_write>
    30a0:	0e 94 4f 17 	call	0x2e9e	; 0x2e9e <I2C_0_close>
    30a4:	81 30       	cpi	r24, 0x01	; 1
    30a6:	e1 f3       	breq	.-8      	; 0x30a0 <I2C_0_read1ByteRegister+0x56>
    30a8:	88 23       	and	r24, r24
    30aa:	31 f0       	breq	.+12     	; 0x30b8 <I2C_0_read1ByteRegister+0x6e>
    30ac:	81 e0       	ldi	r24, 0x01	; 1
    30ae:	e8 1a       	sub	r14, r24
    30b0:	f1 08       	sbc	r15, r1
    30b2:	e1 14       	cp	r14, r1
    30b4:	f1 04       	cpc	r15, r1
    30b6:	d1 f6       	brne	.-76     	; 0x306c <I2C_0_read1ByteRegister+0x22>
    30b8:	89 81       	ldd	r24, Y+1	; 0x01
    30ba:	0f 90       	pop	r0
    30bc:	0f 90       	pop	r0
    30be:	df 91       	pop	r29
    30c0:	cf 91       	pop	r28
    30c2:	1f 91       	pop	r17
    30c4:	ff 90       	pop	r15
    30c6:	ef 90       	pop	r14
    30c8:	08 95       	ret

000030ca <i2c_cb_restart_write>:
    30ca:	83 e0       	ldi	r24, 0x03	; 3
    30cc:	08 95       	ret

000030ce <Cell_Desplay>:
//=================================================================================================
#include <loadcell.h>

//=================================================================================================
void Cell_Desplay(uint8_t Number)						// ΈκεΈΥεΉΖΑ Έυ┤Ά▓Ν ΊΣεΉΜε
{
    30ce:	7f 92       	push	r7
    30d0:	8f 92       	push	r8
    30d2:	9f 92       	push	r9
    30d4:	af 92       	push	r10
    30d6:	bf 92       	push	r11
    30d8:	cf 92       	push	r12
    30da:	df 92       	push	r13
    30dc:	ef 92       	push	r14
    30de:	ff 92       	push	r15
    30e0:	0f 93       	push	r16
    30e2:	1f 93       	push	r17
    30e4:	cf 93       	push	r28
    30e6:	df 93       	push	r29
    30e8:	08 2f       	mov	r16, r24
	uint32_t Value = 0;							// Data ΉιΑΉηξΉγσ Έ│ΑΉΙα Ή┤ΙΆ╕░ΊβΦ

	if     (Number == 1) {Value = CELL.Value_1;}				// 1Έ▓Ι ΈκεΈΥεΉΖΑ Ή╕κΉιΧΈυ┤Ά▓Ν Ά░Τ
    30ea:	81 30       	cpi	r24, 0x01	; 1
    30ec:	49 f4       	brne	.+18     	; 0x3100 <Cell_Desplay+0x32>
    30ee:	80 90 1d 42 	lds	r8, 0x421D	; 0x80421d <CELL+0xc>
    30f2:	90 90 1e 42 	lds	r9, 0x421E	; 0x80421e <CELL+0xd>
    30f6:	a0 90 1f 42 	lds	r10, 0x421F	; 0x80421f <CELL+0xe>
    30fa:	b0 90 20 42 	lds	r11, 0x4220	; 0x804220 <CELL+0xf>
    30fe:	19 c0       	rjmp	.+50     	; 0x3132 <Cell_Desplay+0x64>
	else if(Number == 2) {Value = CELL.Value_2;}				// 2Έ▓Ι ΈκεΈΥεΉΖΑ Ή╕κΉιΧΈυ┤Ά▓Ν Ά░Τ
    3100:	82 30       	cpi	r24, 0x02	; 2
    3102:	49 f4       	brne	.+18     	; 0x3116 <Cell_Desplay+0x48>
    3104:	80 90 21 42 	lds	r8, 0x4221	; 0x804221 <CELL+0x10>
    3108:	90 90 22 42 	lds	r9, 0x4222	; 0x804222 <CELL+0x11>
    310c:	a0 90 23 42 	lds	r10, 0x4223	; 0x804223 <CELL+0x12>
    3110:	b0 90 24 42 	lds	r11, 0x4224	; 0x804224 <CELL+0x13>
    3114:	0e c0       	rjmp	.+28     	; 0x3132 <Cell_Desplay+0x64>
	else if(Number == 3) {Value = CELL.Value_3;}				// 3Έ▓Ι ΈκεΈΥεΉΖΑ Ή╕κΉιΧΈυ┤Ά▓Ν Ά░Τ
    3116:	83 30       	cpi	r24, 0x03	; 3
    3118:	49 f4       	brne	.+18     	; 0x312c <Cell_Desplay+0x5e>
    311a:	80 90 25 42 	lds	r8, 0x4225	; 0x804225 <CELL+0x14>
    311e:	90 90 26 42 	lds	r9, 0x4226	; 0x804226 <CELL+0x15>
    3122:	a0 90 27 42 	lds	r10, 0x4227	; 0x804227 <CELL+0x16>
    3126:	b0 90 28 42 	lds	r11, 0x4228	; 0x804228 <CELL+0x17>
    312a:	03 c0       	rjmp	.+6      	; 0x3132 <Cell_Desplay+0x64>
#include <loadcell.h>

//=================================================================================================
void Cell_Desplay(uint8_t Number)						// ΈκεΈΥεΉΖΑ Έυ┤Ά▓Ν ΊΣεΉΜε
{
	uint32_t Value = 0;							// Data ΉιΑΉηξΉγσ Έ│ΑΉΙα Ή┤ΙΆ╕░ΊβΦ
    312c:	81 2c       	mov	r8, r1
    312e:	91 2c       	mov	r9, r1
    3130:	54 01       	movw	r10, r8

	if     (Number == 1) {Value = CELL.Value_1;}				// 1Έ▓Ι ΈκεΈΥεΉΖΑ Ή╕κΉιΧΈυ┤Ά▓Ν Ά░Τ
	else if(Number == 2) {Value = CELL.Value_2;}				// 2Έ▓Ι ΈκεΈΥεΉΖΑ Ή╕κΉιΧΈυ┤Ά▓Ν Ά░Τ
	else if(Number == 3) {Value = CELL.Value_3;}				// 3Έ▓Ι ΈκεΈΥεΉΖΑ Ή╕κΉιΧΈυ┤Ά▓Ν Ά░Τ

	Weight_10000 = Value / 10000;						// Ή╕κΉιΧΈυ┤Ά▓Ν 100.00Ήζα ΉηΡΈου 100.00kg
    3132:	c5 01       	movw	r24, r10
    3134:	b4 01       	movw	r22, r8
    3136:	20 e1       	ldi	r18, 0x10	; 16
    3138:	37 e2       	ldi	r19, 0x27	; 39
    313a:	40 e0       	ldi	r20, 0x00	; 0
    313c:	50 e0       	ldi	r21, 0x00	; 0
    313e:	0e 94 f9 43 	call	0x87f2	; 0x87f2 <__udivmodsi4>
    3142:	72 2e       	mov	r7, r18
    3144:	20 93 a4 41 	sts	0x41A4, r18	; 0x8041a4 <Weight_10000>
	Weight_1000  = Value % 10000 / 1000;					// Ή╕κΉιΧΈυ┤Ά▓Ν  10.00Ήζα ΉηΡΈου  10.00kg
    3148:	0f 2e       	mov	r0, r31
    314a:	f8 ee       	ldi	r31, 0xE8	; 232
    314c:	cf 2e       	mov	r12, r31
    314e:	f3 e0       	ldi	r31, 0x03	; 3
    3150:	df 2e       	mov	r13, r31
    3152:	e1 2c       	mov	r14, r1
    3154:	f1 2c       	mov	r15, r1
    3156:	f0 2d       	mov	r31, r0
    3158:	a7 01       	movw	r20, r14
    315a:	96 01       	movw	r18, r12
    315c:	0e 94 f9 43 	call	0x87f2	; 0x87f2 <__udivmodsi4>
    3160:	12 2f       	mov	r17, r18
    3162:	20 93 da 42 	sts	0x42DA, r18	; 0x8042da <Weight_1000>
	Weight_100   = Value % 1000 / 100;					// Ή╕κΉιΧΈυ┤Ά▓Ν   1.00Ήζα ΉηΡΈου   1.00kg
    3166:	c5 01       	movw	r24, r10
    3168:	b4 01       	movw	r22, r8
    316a:	a7 01       	movw	r20, r14
    316c:	96 01       	movw	r18, r12
    316e:	0e 94 f9 43 	call	0x87f2	; 0x87f2 <__udivmodsi4>
    3172:	0f 2e       	mov	r0, r31
    3174:	f4 e6       	ldi	r31, 0x64	; 100
    3176:	cf 2e       	mov	r12, r31
    3178:	d1 2c       	mov	r13, r1
    317a:	e1 2c       	mov	r14, r1
    317c:	f1 2c       	mov	r15, r1
    317e:	f0 2d       	mov	r31, r0
    3180:	a7 01       	movw	r20, r14
    3182:	96 01       	movw	r18, r12
    3184:	0e 94 f9 43 	call	0x87f2	; 0x87f2 <__udivmodsi4>
    3188:	d2 2f       	mov	r29, r18
    318a:	20 93 a5 42 	sts	0x42A5, r18	; 0x8042a5 <Weight_100>
	Weight_10    = Value % 100 / 10;					// Ή╕κΉιΧΈυ┤Ά▓Ν   0.10Ήζα ΉηΡΈου   0.10Kg
    318e:	c5 01       	movw	r24, r10
    3190:	b4 01       	movw	r22, r8
    3192:	a7 01       	movw	r20, r14
    3194:	96 01       	movw	r18, r12
    3196:	0e 94 f9 43 	call	0x87f2	; 0x87f2 <__udivmodsi4>
    319a:	0f 2e       	mov	r0, r31
    319c:	fa e0       	ldi	r31, 0x0A	; 10
    319e:	cf 2e       	mov	r12, r31
    31a0:	d1 2c       	mov	r13, r1
    31a2:	e1 2c       	mov	r14, r1
    31a4:	f1 2c       	mov	r15, r1
    31a6:	f0 2d       	mov	r31, r0
    31a8:	a7 01       	movw	r20, r14
    31aa:	96 01       	movw	r18, r12
    31ac:	0e 94 f9 43 	call	0x87f2	; 0x87f2 <__udivmodsi4>
    31b0:	c2 2f       	mov	r28, r18
    31b2:	20 93 7b 42 	sts	0x427B, r18	; 0x80427b <Weight_10>
	Weight_1     = Value % 10 / 1;						// Ή╕κΉιΧΈυ┤Ά▓Ν   0.01Ήζα ΉηΡΈου   0.01Kg
    31b6:	c5 01       	movw	r24, r10
    31b8:	b4 01       	movw	r22, r8
    31ba:	a7 01       	movw	r20, r14
    31bc:	96 01       	movw	r18, r12
    31be:	0e 94 f9 43 	call	0x87f2	; 0x87f2 <__udivmodsi4>
    31c2:	60 93 9f 42 	sts	0x429F, r22	; 0x80429f <Weight_1>

	if(Value > 10000)							// Ή╕κΉιΧΈυ┤Ά▓Ν 100Kg Έ│┤ΈΜν ΊΒυΈσ┤
    31c6:	81 e1       	ldi	r24, 0x11	; 17
    31c8:	88 16       	cp	r8, r24
    31ca:	87 e2       	ldi	r24, 0x27	; 39
    31cc:	98 06       	cpc	r9, r24
    31ce:	a1 04       	cpc	r10, r1
    31d0:	b1 04       	cpc	r11, r1
    31d2:	18 f1       	brcs	.+70     	; 0x321a <Cell_Desplay+0x14c>
	{
		DIGIT[Number-1][3] = fnd_tbl[Weight_10000];			// Ή╕κΉιΧΈυ┤Ά▓Ν 100.00Ήζα ΉηΡΈου
    31d4:	e0 2f       	mov	r30, r16
    31d6:	f0 e0       	ldi	r31, 0x00	; 0
    31d8:	31 97       	sbiw	r30, 0x01	; 1
    31da:	a7 2d       	mov	r26, r7
    31dc:	b0 e0       	ldi	r27, 0x00	; 0
    31de:	a5 5c       	subi	r26, 0xC5	; 197
    31e0:	be 4b       	sbci	r27, 0xBE	; 190
    31e2:	8c 91       	ld	r24, X
    31e4:	ee 0f       	add	r30, r30
    31e6:	ff 1f       	adc	r31, r31
    31e8:	ee 0f       	add	r30, r30
    31ea:	ff 1f       	adc	r31, r31
    31ec:	e1 59       	subi	r30, 0x91	; 145
    31ee:	fe 4b       	sbci	r31, 0xBE	; 190
    31f0:	83 83       	std	Z+3, r24	; 0x03
		DIGIT[Number-1][2] = fnd_tbl[Weight_1000];			// Ή╕κΉιΧΈυ┤Ά▓Ν  10.00Ήζα ΉηΡΈου
    31f2:	a1 2f       	mov	r26, r17
    31f4:	b0 e0       	ldi	r27, 0x00	; 0
    31f6:	a5 5c       	subi	r26, 0xC5	; 197
    31f8:	be 4b       	sbci	r27, 0xBE	; 190
    31fa:	8c 91       	ld	r24, X
    31fc:	82 83       	std	Z+2, r24	; 0x02
		DIGIT[Number-1][1] = fnd_tbl[Weight_100]+FND_Point;		// Ή╕κΉιΧΈυ┤Ά▓Ν   1.00Ήζα ΉηΡΈου
    31fe:	ad 2f       	mov	r26, r29
    3200:	b0 e0       	ldi	r27, 0x00	; 0
    3202:	a5 5c       	subi	r26, 0xC5	; 197
    3204:	be 4b       	sbci	r27, 0xBE	; 190
    3206:	8c 91       	ld	r24, X
    3208:	8f 5f       	subi	r24, 0xFF	; 255
    320a:	81 83       	std	Z+1, r24	; 0x01
		DIGIT[Number-1][0] = fnd_tbl[Weight_10];			// Ή╕κΉιΧΈυ┤Ά▓Ν   0.10Ήζα ΉηΡΈου
    320c:	ac 2f       	mov	r26, r28
    320e:	b0 e0       	ldi	r27, 0x00	; 0
    3210:	a5 5c       	subi	r26, 0xC5	; 197
    3212:	be 4b       	sbci	r27, 0xBE	; 190
    3214:	8c 91       	ld	r24, X
    3216:	80 83       	st	Z, r24
    3218:	4e c0       	rjmp	.+156    	; 0x32b6 <Cell_Desplay+0x1e8>
	}
	else if(Value > 1000)							// Ή╕κΉιΧΈυ┤Ά▓Ν 10Kg Έ│┤ΈΜν ΊΒυΈσ┤
    321a:	89 ee       	ldi	r24, 0xE9	; 233
    321c:	88 16       	cp	r8, r24
    321e:	83 e0       	ldi	r24, 0x03	; 3
    3220:	98 06       	cpc	r9, r24
    3222:	a1 04       	cpc	r10, r1
    3224:	b1 04       	cpc	r11, r1
    3226:	18 f1       	brcs	.+70     	; 0x326e <Cell_Desplay+0x1a0>
	{
		DIGIT[Number-1][3] = fnd_tbl[Weight_1000];			// Ή╕κΉιΧΈυ┤Ά▓Ν 10.00Ήζα ΉηΡΈου
    3228:	e0 2f       	mov	r30, r16
    322a:	f0 e0       	ldi	r31, 0x00	; 0
    322c:	31 97       	sbiw	r30, 0x01	; 1
    322e:	a1 2f       	mov	r26, r17
    3230:	b0 e0       	ldi	r27, 0x00	; 0
    3232:	a5 5c       	subi	r26, 0xC5	; 197
    3234:	be 4b       	sbci	r27, 0xBE	; 190
    3236:	8c 91       	ld	r24, X
    3238:	ee 0f       	add	r30, r30
    323a:	ff 1f       	adc	r31, r31
    323c:	ee 0f       	add	r30, r30
    323e:	ff 1f       	adc	r31, r31
    3240:	e1 59       	subi	r30, 0x91	; 145
    3242:	fe 4b       	sbci	r31, 0xBE	; 190
    3244:	83 83       	std	Z+3, r24	; 0x03
		DIGIT[Number-1][2] = fnd_tbl[Weight_100]+FND_Point;		// Ή╕κΉιΧΈυ┤Ά▓Ν  1.00Ήζα ΉηΡΈου
    3246:	ad 2f       	mov	r26, r29
    3248:	b0 e0       	ldi	r27, 0x00	; 0
    324a:	a5 5c       	subi	r26, 0xC5	; 197
    324c:	be 4b       	sbci	r27, 0xBE	; 190
    324e:	8c 91       	ld	r24, X
    3250:	8f 5f       	subi	r24, 0xFF	; 255
    3252:	82 83       	std	Z+2, r24	; 0x02
		DIGIT[Number-1][1] = fnd_tbl[Weight_10];			// Ή╕κΉιΧΈυ┤Ά▓Ν  0.10Ήζα ΉηΡΈου
    3254:	ac 2f       	mov	r26, r28
    3256:	b0 e0       	ldi	r27, 0x00	; 0
    3258:	a5 5c       	subi	r26, 0xC5	; 197
    325a:	be 4b       	sbci	r27, 0xBE	; 190
    325c:	8c 91       	ld	r24, X
    325e:	81 83       	std	Z+1, r24	; 0x01
		DIGIT[Number-1][0] = fnd_tbl[Weight_1];				// Ή╕κΉιΧΈυ┤Ά▓Ν  0.01Ήζα ΉηΡΈου
    3260:	a6 2f       	mov	r26, r22
    3262:	b0 e0       	ldi	r27, 0x00	; 0
    3264:	a5 5c       	subi	r26, 0xC5	; 197
    3266:	be 4b       	sbci	r27, 0xBE	; 190
    3268:	8c 91       	ld	r24, X
    326a:	80 83       	st	Z, r24
    326c:	24 c0       	rjmp	.+72     	; 0x32b6 <Cell_Desplay+0x1e8>
	}
	else if(Value < 1000)							// Ή╕κΉιΧΈυ┤Ά▓Ν 10Kg Έ│┤ΈΜν ΉηΣΉε╝Έσ┤
    326e:	88 ee       	ldi	r24, 0xE8	; 232
    3270:	88 16       	cp	r8, r24
    3272:	83 e0       	ldi	r24, 0x03	; 3
    3274:	98 06       	cpc	r9, r24
    3276:	a1 04       	cpc	r10, r1
    3278:	b1 04       	cpc	r11, r1
    327a:	e8 f4       	brcc	.+58     	; 0x32b6 <Cell_Desplay+0x1e8>
	{
		DIGIT[Number-1][3] = FND_OFF;					// Ή╕κΉιΧΈυ┤Ά▓Ν 10.00Ήζα ΉηΡΈου OFF
    327c:	e0 2f       	mov	r30, r16
    327e:	f0 e0       	ldi	r31, 0x00	; 0
    3280:	31 97       	sbiw	r30, 0x01	; 1
    3282:	ee 0f       	add	r30, r30
    3284:	ff 1f       	adc	r31, r31
    3286:	ee 0f       	add	r30, r30
    3288:	ff 1f       	adc	r31, r31
    328a:	e1 59       	subi	r30, 0x91	; 145
    328c:	fe 4b       	sbci	r31, 0xBE	; 190
    328e:	13 82       	std	Z+3, r1	; 0x03
		DIGIT[Number-1][2] = fnd_tbl[Weight_100]+FND_Point;		// Ή╕κΉιΧΈυ┤Ά▓Ν  1.00Ήζα ΉηΡΈου
    3290:	ad 2f       	mov	r26, r29
    3292:	b0 e0       	ldi	r27, 0x00	; 0
    3294:	a5 5c       	subi	r26, 0xC5	; 197
    3296:	be 4b       	sbci	r27, 0xBE	; 190
    3298:	8c 91       	ld	r24, X
    329a:	8f 5f       	subi	r24, 0xFF	; 255
    329c:	82 83       	std	Z+2, r24	; 0x02
		DIGIT[Number-1][1] = fnd_tbl[Weight_10];			// Ή╕κΉιΧΈυ┤Ά▓Ν  0.10Ήζα ΉηΡΈου
    329e:	ac 2f       	mov	r26, r28
    32a0:	b0 e0       	ldi	r27, 0x00	; 0
    32a2:	a5 5c       	subi	r26, 0xC5	; 197
    32a4:	be 4b       	sbci	r27, 0xBE	; 190
    32a6:	8c 91       	ld	r24, X
    32a8:	81 83       	std	Z+1, r24	; 0x01
		DIGIT[Number-1][0] = fnd_tbl[Weight_1];				// Ή╕κΉιΧΈυ┤Ά▓Ν  0.01Ήζα ΉηΡΈου
    32aa:	a6 2f       	mov	r26, r22
    32ac:	b0 e0       	ldi	r27, 0x00	; 0
    32ae:	a5 5c       	subi	r26, 0xC5	; 197
    32b0:	be 4b       	sbci	r27, 0xBE	; 190
    32b2:	8c 91       	ld	r24, X
    32b4:	80 83       	st	Z, r24
	}
}
    32b6:	df 91       	pop	r29
    32b8:	cf 91       	pop	r28
    32ba:	1f 91       	pop	r17
    32bc:	0f 91       	pop	r16
    32be:	ff 90       	pop	r15
    32c0:	ef 90       	pop	r14
    32c2:	df 90       	pop	r13
    32c4:	cf 90       	pop	r12
    32c6:	bf 90       	pop	r11
    32c8:	af 90       	pop	r10
    32ca:	9f 90       	pop	r9
    32cc:	8f 90       	pop	r8
    32ce:	7f 90       	pop	r7
    32d0:	08 95       	ret

000032d2 <INT_Desplay>:

//=================================================================================================
void INT_Desplay(uint8_t Number)						// Έ│┤ΉιΧΆ░Τ Έυ┤Ά▓Ν ΊΣεΉΜε
{
    32d2:	8f 92       	push	r8
    32d4:	9f 92       	push	r9
    32d6:	af 92       	push	r10
    32d8:	bf 92       	push	r11
    32da:	cf 92       	push	r12
    32dc:	df 92       	push	r13
    32de:	ef 92       	push	r14
    32e0:	ff 92       	push	r15
    32e2:	0f 93       	push	r16
    32e4:	1f 93       	push	r17
    32e6:	cf 93       	push	r28
    32e8:	df 93       	push	r29
	uint32_t Value = 0;							// Data ΉιΑΉηξΉγσ Έ│ΑΉΙα Ή┤ΙΆ╕░ΊβΦ

	if     (Number == 1) {Value = CELL.Value_1;}				// 1Έ▓Ι ΈκεΈΥεΉΖΑ Ή╕κΉιΧΈυ┤Ά▓Ν Ά░Τ
    32ea:	81 30       	cpi	r24, 0x01	; 1
    32ec:	49 f4       	brne	.+18     	; 0x3300 <INT_Desplay+0x2e>
    32ee:	c0 90 1d 42 	lds	r12, 0x421D	; 0x80421d <CELL+0xc>
    32f2:	d0 90 1e 42 	lds	r13, 0x421E	; 0x80421e <CELL+0xd>
    32f6:	e0 90 1f 42 	lds	r14, 0x421F	; 0x80421f <CELL+0xe>
    32fa:	f0 90 20 42 	lds	r15, 0x4220	; 0x804220 <CELL+0xf>
    32fe:	19 c0       	rjmp	.+50     	; 0x3332 <INT_Desplay+0x60>
	else if(Number == 2) {Value = CELL.Value_2;}				// 2Έ▓Ι ΈκεΈΥεΉΖΑ Ή╕κΉιΧΈυ┤Ά▓Ν Ά░Τ
    3300:	82 30       	cpi	r24, 0x02	; 2
    3302:	49 f4       	brne	.+18     	; 0x3316 <INT_Desplay+0x44>
    3304:	c0 90 21 42 	lds	r12, 0x4221	; 0x804221 <CELL+0x10>
    3308:	d0 90 22 42 	lds	r13, 0x4222	; 0x804222 <CELL+0x11>
    330c:	e0 90 23 42 	lds	r14, 0x4223	; 0x804223 <CELL+0x12>
    3310:	f0 90 24 42 	lds	r15, 0x4224	; 0x804224 <CELL+0x13>
    3314:	0e c0       	rjmp	.+28     	; 0x3332 <INT_Desplay+0x60>
	else if(Number == 3) {Value = CELL.Value_3;}				// 3Έ▓Ι ΈκεΈΥεΉΖΑ Ή╕κΉιΧΈυ┤Ά▓Ν Ά░Τ
    3316:	83 30       	cpi	r24, 0x03	; 3
    3318:	49 f4       	brne	.+18     	; 0x332c <INT_Desplay+0x5a>
    331a:	c0 90 25 42 	lds	r12, 0x4225	; 0x804225 <CELL+0x14>
    331e:	d0 90 26 42 	lds	r13, 0x4226	; 0x804226 <CELL+0x15>
    3322:	e0 90 27 42 	lds	r14, 0x4227	; 0x804227 <CELL+0x16>
    3326:	f0 90 28 42 	lds	r15, 0x4228	; 0x804228 <CELL+0x17>
    332a:	03 c0       	rjmp	.+6      	; 0x3332 <INT_Desplay+0x60>
}

//=================================================================================================
void INT_Desplay(uint8_t Number)						// Έ│┤ΉιΧΆ░Τ Έυ┤Ά▓Ν ΊΣεΉΜε
{
	uint32_t Value = 0;							// Data ΉιΑΉηξΉγσ Έ│ΑΉΙα Ή┤ΙΆ╕░ΊβΦ
    332c:	c1 2c       	mov	r12, r1
    332e:	d1 2c       	mov	r13, r1
    3330:	76 01       	movw	r14, r12

	if     (Number == 1) {Value = CELL.Value_1;}				// 1Έ▓Ι ΈκεΈΥεΉΖΑ Ή╕κΉιΧΈυ┤Ά▓Ν Ά░Τ
	else if(Number == 2) {Value = CELL.Value_2;}				// 2Έ▓Ι ΈκεΈΥεΉΖΑ Ή╕κΉιΧΈυ┤Ά▓Ν Ά░Τ
	else if(Number == 3) {Value = CELL.Value_3;}				// 3Έ▓Ι ΈκεΈΥεΉΖΑ Ή╕κΉιΧΈυ┤Ά▓Ν Ά░Τ

	Weight_10000 = Value / 10000;						// Ή╕κΉιΧΈυ┤Ά▓Ν 100.00Ήζα ΉηΡΈου 100.00kg
    3332:	c7 01       	movw	r24, r14
    3334:	b6 01       	movw	r22, r12
    3336:	20 e1       	ldi	r18, 0x10	; 16
    3338:	37 e2       	ldi	r19, 0x27	; 39
    333a:	40 e0       	ldi	r20, 0x00	; 0
    333c:	50 e0       	ldi	r21, 0x00	; 0
    333e:	0e 94 f9 43 	call	0x87f2	; 0x87f2 <__udivmodsi4>
    3342:	02 2f       	mov	r16, r18
    3344:	20 93 a4 41 	sts	0x41A4, r18	; 0x8041a4 <Weight_10000>
	Weight_1000  = Value % 10000 / 1000;					// Ή╕κΉιΧΈυ┤Ά▓Ν  10.00Ήζα ΉηΡΈου  10.00kg
    3348:	0f 2e       	mov	r0, r31
    334a:	f8 ee       	ldi	r31, 0xE8	; 232
    334c:	8f 2e       	mov	r8, r31
    334e:	f3 e0       	ldi	r31, 0x03	; 3
    3350:	9f 2e       	mov	r9, r31
    3352:	a1 2c       	mov	r10, r1
    3354:	b1 2c       	mov	r11, r1
    3356:	f0 2d       	mov	r31, r0
    3358:	a5 01       	movw	r20, r10
    335a:	94 01       	movw	r18, r8
    335c:	0e 94 f9 43 	call	0x87f2	; 0x87f2 <__udivmodsi4>
    3360:	12 2f       	mov	r17, r18
    3362:	20 93 da 42 	sts	0x42DA, r18	; 0x8042da <Weight_1000>
	Weight_100   = Value % 1000 / 100;					// Ή╕κΉιΧΈυ┤Ά▓Ν   1.00Ήζα ΉηΡΈου   1.00kg
    3366:	c7 01       	movw	r24, r14
    3368:	b6 01       	movw	r22, r12
    336a:	a5 01       	movw	r20, r10
    336c:	94 01       	movw	r18, r8
    336e:	0e 94 f9 43 	call	0x87f2	; 0x87f2 <__udivmodsi4>
    3372:	0f 2e       	mov	r0, r31
    3374:	f4 e6       	ldi	r31, 0x64	; 100
    3376:	8f 2e       	mov	r8, r31
    3378:	91 2c       	mov	r9, r1
    337a:	a1 2c       	mov	r10, r1
    337c:	b1 2c       	mov	r11, r1
    337e:	f0 2d       	mov	r31, r0
    3380:	a5 01       	movw	r20, r10
    3382:	94 01       	movw	r18, r8
    3384:	0e 94 f9 43 	call	0x87f2	; 0x87f2 <__udivmodsi4>
    3388:	d2 2f       	mov	r29, r18
    338a:	20 93 a5 42 	sts	0x42A5, r18	; 0x8042a5 <Weight_100>
	Weight_10    = Value % 100 / 10;					// Ή╕κΉιΧΈυ┤Ά▓Ν   0.10Ήζα ΉηΡΈου   0.10Kg
    338e:	c7 01       	movw	r24, r14
    3390:	b6 01       	movw	r22, r12
    3392:	a5 01       	movw	r20, r10
    3394:	94 01       	movw	r18, r8
    3396:	0e 94 f9 43 	call	0x87f2	; 0x87f2 <__udivmodsi4>
    339a:	0f 2e       	mov	r0, r31
    339c:	fa e0       	ldi	r31, 0x0A	; 10
    339e:	8f 2e       	mov	r8, r31
    33a0:	91 2c       	mov	r9, r1
    33a2:	a1 2c       	mov	r10, r1
    33a4:	b1 2c       	mov	r11, r1
    33a6:	f0 2d       	mov	r31, r0
    33a8:	a5 01       	movw	r20, r10
    33aa:	94 01       	movw	r18, r8
    33ac:	0e 94 f9 43 	call	0x87f2	; 0x87f2 <__udivmodsi4>
    33b0:	c2 2f       	mov	r28, r18
    33b2:	20 93 7b 42 	sts	0x427B, r18	; 0x80427b <Weight_10>
	Weight_1     = Value % 10 / 1;						// Ή╕κΉιΧΈυ┤Ά▓Ν   0.01Ήζα ΉηΡΈου   0.01Kg
    33b6:	c7 01       	movw	r24, r14
    33b8:	b6 01       	movw	r22, r12
    33ba:	a5 01       	movw	r20, r10
    33bc:	94 01       	movw	r18, r8
    33be:	0e 94 f9 43 	call	0x87f2	; 0x87f2 <__udivmodsi4>
    33c2:	60 93 9f 42 	sts	0x429F, r22	; 0x80429f <Weight_1>

	if(Value > 10000)							// Ή╕κΉιΧΈυ┤Ά▓Ν 100Kg Έ│┤ΈΜν ΊΒυΈσ┤
    33c6:	81 e1       	ldi	r24, 0x11	; 17
    33c8:	c8 16       	cp	r12, r24
    33ca:	87 e2       	ldi	r24, 0x27	; 39
    33cc:	d8 06       	cpc	r13, r24
    33ce:	e1 04       	cpc	r14, r1
    33d0:	f1 04       	cpc	r15, r1
    33d2:	10 f1       	brcs	.+68     	; 0x3418 <INT_Desplay+0x146>
	{
		DIGIT[0][3] = fnd_tbl[Weight_10000];				// Ή╕κΉιΧΈυ┤Ά▓Ν 100.00Ήζα ΉηΡΈου
    33d4:	e0 2f       	mov	r30, r16
    33d6:	f0 e0       	ldi	r31, 0x00	; 0
    33d8:	e5 5c       	subi	r30, 0xC5	; 197
    33da:	fe 4b       	sbci	r31, 0xBE	; 190
    33dc:	80 81       	ld	r24, Z
    33de:	af e6       	ldi	r26, 0x6F	; 111
    33e0:	b1 e4       	ldi	r27, 0x41	; 65
    33e2:	13 96       	adiw	r26, 0x03	; 3
    33e4:	8c 93       	st	X, r24
    33e6:	13 97       	sbiw	r26, 0x03	; 3
		DIGIT[0][2] = fnd_tbl[Weight_1000];				// Ή╕κΉιΧΈυ┤Ά▓Ν  10.00Ήζα ΉηΡΈου
    33e8:	e1 2f       	mov	r30, r17
    33ea:	f0 e0       	ldi	r31, 0x00	; 0
    33ec:	e5 5c       	subi	r30, 0xC5	; 197
    33ee:	fe 4b       	sbci	r31, 0xBE	; 190
    33f0:	80 81       	ld	r24, Z
    33f2:	12 96       	adiw	r26, 0x02	; 2
    33f4:	8c 93       	st	X, r24
    33f6:	12 97       	sbiw	r26, 0x02	; 2
		DIGIT[0][1] = fnd_tbl[Weight_100]+FND_Point;			// Ή╕κΉιΧΈυ┤Ά▓Ν   1.00Ήζα ΉηΡΈου
    33f8:	ed 2f       	mov	r30, r29
    33fa:	f0 e0       	ldi	r31, 0x00	; 0
    33fc:	e5 5c       	subi	r30, 0xC5	; 197
    33fe:	fe 4b       	sbci	r31, 0xBE	; 190
    3400:	80 81       	ld	r24, Z
    3402:	8f 5f       	subi	r24, 0xFF	; 255
    3404:	11 96       	adiw	r26, 0x01	; 1
    3406:	8c 93       	st	X, r24
    3408:	11 97       	sbiw	r26, 0x01	; 1
		DIGIT[0][0] = fnd_tbl[Weight_10];				// Ή╕κΉιΧΈυ┤Ά▓Ν   0.10Ήζα ΉηΡΈου
    340a:	ec 2f       	mov	r30, r28
    340c:	f0 e0       	ldi	r31, 0x00	; 0
    340e:	e5 5c       	subi	r30, 0xC5	; 197
    3410:	fe 4b       	sbci	r31, 0xBE	; 190
    3412:	80 81       	ld	r24, Z
    3414:	8c 93       	st	X, r24
    3416:	4c c0       	rjmp	.+152    	; 0x34b0 <INT_Desplay+0x1de>
	}
	else if(Value > 1000)							// Ή╕κΉιΧΈυ┤Ά▓Ν 10Kg Έ│┤ΈΜν ΊΒυΈσ┤
    3418:	89 ee       	ldi	r24, 0xE9	; 233
    341a:	c8 16       	cp	r12, r24
    341c:	83 e0       	ldi	r24, 0x03	; 3
    341e:	d8 06       	cpc	r13, r24
    3420:	e1 04       	cpc	r14, r1
    3422:	f1 04       	cpc	r15, r1
    3424:	10 f1       	brcs	.+68     	; 0x346a <INT_Desplay+0x198>
	{
		DIGIT[0][3] = fnd_tbl[Weight_1000];				// Ή╕κΉιΧΈυ┤Ά▓Ν 10.00Ήζα ΉηΡΈου
    3426:	e1 2f       	mov	r30, r17
    3428:	f0 e0       	ldi	r31, 0x00	; 0
    342a:	e5 5c       	subi	r30, 0xC5	; 197
    342c:	fe 4b       	sbci	r31, 0xBE	; 190
    342e:	80 81       	ld	r24, Z
    3430:	af e6       	ldi	r26, 0x6F	; 111
    3432:	b1 e4       	ldi	r27, 0x41	; 65
    3434:	13 96       	adiw	r26, 0x03	; 3
    3436:	8c 93       	st	X, r24
    3438:	13 97       	sbiw	r26, 0x03	; 3
		DIGIT[0][2] = fnd_tbl[Weight_100]+FND_Point;			// Ή╕κΉιΧΈυ┤Ά▓Ν  1.00Ήζα ΉηΡΈου
    343a:	ed 2f       	mov	r30, r29
    343c:	f0 e0       	ldi	r31, 0x00	; 0
    343e:	e5 5c       	subi	r30, 0xC5	; 197
    3440:	fe 4b       	sbci	r31, 0xBE	; 190
    3442:	80 81       	ld	r24, Z
    3444:	8f 5f       	subi	r24, 0xFF	; 255
    3446:	12 96       	adiw	r26, 0x02	; 2
    3448:	8c 93       	st	X, r24
    344a:	12 97       	sbiw	r26, 0x02	; 2
		DIGIT[0][1] = fnd_tbl[Weight_10];				// Ή╕κΉιΧΈυ┤Ά▓Ν  0.10Ήζα ΉηΡΈου
    344c:	ec 2f       	mov	r30, r28
    344e:	f0 e0       	ldi	r31, 0x00	; 0
    3450:	e5 5c       	subi	r30, 0xC5	; 197
    3452:	fe 4b       	sbci	r31, 0xBE	; 190
    3454:	80 81       	ld	r24, Z
    3456:	11 96       	adiw	r26, 0x01	; 1
    3458:	8c 93       	st	X, r24
    345a:	11 97       	sbiw	r26, 0x01	; 1
		DIGIT[0][0] = fnd_tbl[Weight_1];				// Ή╕κΉιΧΈυ┤Ά▓Ν  0.01Ήζα ΉηΡΈου
    345c:	e6 2f       	mov	r30, r22
    345e:	f0 e0       	ldi	r31, 0x00	; 0
    3460:	e5 5c       	subi	r30, 0xC5	; 197
    3462:	fe 4b       	sbci	r31, 0xBE	; 190
    3464:	80 81       	ld	r24, Z
    3466:	8c 93       	st	X, r24
    3468:	23 c0       	rjmp	.+70     	; 0x34b0 <INT_Desplay+0x1de>
	}
	else if(Value < 1000)							// Ή╕κΉιΧΈυ┤Ά▓Ν 10Kg Έ│┤ΈΜν ΉηΣΉε╝Έσ┤
    346a:	88 ee       	ldi	r24, 0xE8	; 232
    346c:	c8 16       	cp	r12, r24
    346e:	83 e0       	ldi	r24, 0x03	; 3
    3470:	d8 06       	cpc	r13, r24
    3472:	e1 04       	cpc	r14, r1
    3474:	f1 04       	cpc	r15, r1
    3476:	e0 f4       	brcc	.+56     	; 0x34b0 <INT_Desplay+0x1de>
	{
		DIGIT[0][3] = FND_OFF;						// Ή╕κΉιΧΈυ┤Ά▓Ν 10.00Ήζα ΉηΡΈου OFF
    3478:	af e6       	ldi	r26, 0x6F	; 111
    347a:	b1 e4       	ldi	r27, 0x41	; 65
    347c:	13 96       	adiw	r26, 0x03	; 3
    347e:	1c 92       	st	X, r1
    3480:	13 97       	sbiw	r26, 0x03	; 3
		DIGIT[0][2] = fnd_tbl[Weight_100]+FND_Point;			// Ή╕κΉιΧΈυ┤Ά▓Ν  1.00Ήζα ΉηΡΈου
    3482:	ed 2f       	mov	r30, r29
    3484:	f0 e0       	ldi	r31, 0x00	; 0
    3486:	e5 5c       	subi	r30, 0xC5	; 197
    3488:	fe 4b       	sbci	r31, 0xBE	; 190
    348a:	80 81       	ld	r24, Z
    348c:	8f 5f       	subi	r24, 0xFF	; 255
    348e:	12 96       	adiw	r26, 0x02	; 2
    3490:	8c 93       	st	X, r24
    3492:	12 97       	sbiw	r26, 0x02	; 2
		DIGIT[0][1] = fnd_tbl[Weight_10];				// Ή╕κΉιΧΈυ┤Ά▓Ν  0.10Ήζα ΉηΡΈου
    3494:	ec 2f       	mov	r30, r28
    3496:	f0 e0       	ldi	r31, 0x00	; 0
    3498:	e5 5c       	subi	r30, 0xC5	; 197
    349a:	fe 4b       	sbci	r31, 0xBE	; 190
    349c:	80 81       	ld	r24, Z
    349e:	11 96       	adiw	r26, 0x01	; 1
    34a0:	8c 93       	st	X, r24
    34a2:	11 97       	sbiw	r26, 0x01	; 1
		DIGIT[0][0] = fnd_tbl[Weight_1];				// Ή╕κΉιΧΈυ┤Ά▓Ν  0.01Ήζα ΉηΡΈου
    34a4:	e6 2f       	mov	r30, r22
    34a6:	f0 e0       	ldi	r31, 0x00	; 0
    34a8:	e5 5c       	subi	r30, 0xC5	; 197
    34aa:	fe 4b       	sbci	r31, 0xBE	; 190
    34ac:	80 81       	ld	r24, Z
    34ae:	8c 93       	st	X, r24
	}
}
    34b0:	df 91       	pop	r29
    34b2:	cf 91       	pop	r28
    34b4:	1f 91       	pop	r17
    34b6:	0f 91       	pop	r16
    34b8:	ff 90       	pop	r15
    34ba:	ef 90       	pop	r14
    34bc:	df 90       	pop	r13
    34be:	cf 90       	pop	r12
    34c0:	bf 90       	pop	r11
    34c2:	af 90       	pop	r10
    34c4:	9f 90       	pop	r9
    34c6:	8f 90       	pop	r8
    34c8:	08 95       	ret

000034ca <CellRead_1>:

//=================================================================================================
int32_t CellRead_1(void)							// 1 Έ▓Ι ΉΖΑ Data Ήζ╜Ά╕░, HX711 ΉιεΉΨ┤
{
    34ca:	8f 92       	push	r8
    34cc:	9f 92       	push	r9
    34ce:	af 92       	push	r10
    34d0:	bf 92       	push	r11
    34d2:	cf 92       	push	r12
    34d4:	df 92       	push	r13
    34d6:	ef 92       	push	r14
    34d8:	ff 92       	push	r15
	int32_t Value = 0;							// Data ΉιΑΉηξΉγσ Έ│ΑΉΙα Ή┤ΙΆ╕░ΊβΦ

	SCK_LOW_1;								// HX711 SCk LOW
    34da:	e4 e4       	ldi	r30, 0x44	; 68
    34dc:	f4 e0       	ldi	r31, 0x04	; 4
    34de:	80 81       	ld	r24, Z
    34e0:	8b 7f       	andi	r24, 0xFB	; 251
    34e2:	80 83       	st	Z, r24
	while(DO1);								// HX711 SDAΆ░Α HIGH Ήζ┤Έσ┤ ΈΝΑΆ╕░
    34e4:	80 91 48 04 	lds	r24, 0x0448	; 0x800448 <__TEXT_REGION_LENGTH__+0x7e0448>
    34e8:	83 ff       	sbrs	r24, 3
    34ea:	fc cf       	rjmp	.-8      	; 0x34e4 <CellRead_1+0x1a>
    34ec:	90 e0       	ldi	r25, 0x00	; 0
    34ee:	40 e0       	ldi	r20, 0x00	; 0
    34f0:	50 e0       	ldi	r21, 0x00	; 0
    34f2:	ba 01       	movw	r22, r20
    34f4:	1d c0       	rjmp	.+58     	; 0x3530 <CellRead_1+0x66>
	for(uint8_t i = 0; i < 24; i++)						// 24bit Data ΈπΝΊΒ╝ Έ░αΈ│╡
	{
		Value = Value << 1;						// Data 1ΉηΡΈου ΉΚυΊΦΕΊΛ╕
    34f6:	44 0f       	add	r20, r20
    34f8:	55 1f       	adc	r21, r21
    34fa:	66 1f       	adc	r22, r22
    34fc:	77 1f       	adc	r23, r23
		SCK_HIGH_1;							// HX711 SCk HIGH
    34fe:	e4 e4       	ldi	r30, 0x44	; 68
    3500:	f4 e0       	ldi	r31, 0x04	; 4
    3502:	80 81       	ld	r24, Z
    3504:	84 60       	ori	r24, 0x04	; 4
    3506:	80 83       	st	Z, r24
	#else
		//round up by default
		__ticks_dc = (uint32_t)(ceil(fabs(__tmp)));
	#endif

	__builtin_avr_delay_cycles(__ticks_dc);
    3508:	22 e6       	ldi	r18, 0x62	; 98
    350a:	2a 95       	dec	r18
    350c:	f1 f7       	brne	.-4      	; 0x350a <CellRead_1+0x40>
    350e:	00 00       	nop
		_delay_us(20);
		SCK_LOW_1;							// HX711 SCk LOW
    3510:	80 81       	ld	r24, Z
    3512:	8b 7f       	andi	r24, 0xFB	; 251
    3514:	80 83       	st	Z, r24
    3516:	82 e6       	ldi	r24, 0x62	; 98
    3518:	8a 95       	dec	r24
    351a:	f1 f7       	brne	.-4      	; 0x3518 <CellRead_1+0x4e>
    351c:	00 00       	nop
		_delay_us(20);
		if(DO1) {Value++;}						// HX711 SDAΆ░Α HIGH Ήζ┤Έσ┤ Bit Data ΈΞΦΊΧαΆ╕░
    351e:	80 91 48 04 	lds	r24, 0x0448	; 0x800448 <__TEXT_REGION_LENGTH__+0x7e0448>
    3522:	83 fd       	sbrc	r24, 3
    3524:	04 c0       	rjmp	.+8      	; 0x352e <CellRead_1+0x64>
    3526:	4f 5f       	subi	r20, 0xFF	; 255
    3528:	5f 4f       	sbci	r21, 0xFF	; 255
    352a:	6f 4f       	sbci	r22, 0xFF	; 255
    352c:	7f 4f       	sbci	r23, 0xFF	; 255
{
	int32_t Value = 0;							// Data ΉιΑΉηξΉγσ Έ│ΑΉΙα Ή┤ΙΆ╕░ΊβΦ

	SCK_LOW_1;								// HX711 SCk LOW
	while(DO1);								// HX711 SDAΆ░Α HIGH Ήζ┤Έσ┤ ΈΝΑΆ╕░
	for(uint8_t i = 0; i < 24; i++)						// 24bit Data ΈπΝΊΒ╝ Έ░αΈ│╡
    352e:	9f 5f       	subi	r25, 0xFF	; 255
    3530:	98 31       	cpi	r25, 0x18	; 24
    3532:	08 f3       	brcs	.-62     	; 0x34f6 <CellRead_1+0x2c>
		_delay_us(20);
		SCK_LOW_1;							// HX711 SCk LOW
		_delay_us(20);
		if(DO1) {Value++;}						// HX711 SDAΆ░Α HIGH Ήζ┤Έσ┤ Bit Data ΈΞΦΊΧαΆ╕░
	}
	SCK_HIGH_1;								// HX711 SCk HIGH
    3534:	e4 e4       	ldi	r30, 0x44	; 68
    3536:	f4 e0       	ldi	r31, 0x04	; 4
    3538:	80 81       	ld	r24, Z
    353a:	84 60       	ori	r24, 0x04	; 4
    353c:	80 83       	st	Z, r24
    353e:	92 e6       	ldi	r25, 0x62	; 98
    3540:	9a 95       	dec	r25
    3542:	f1 f7       	brne	.-4      	; 0x3540 <CellRead_1+0x76>
    3544:	00 00       	nop
	_delay_us(20);
	SCK_LOW_1;								// HX711 SCk LOW
    3546:	80 81       	ld	r24, Z
    3548:	8b 7f       	andi	r24, 0xFB	; 251
    354a:	80 83       	st	Z, r24
	#else
		//round up by default
		__ticks_dc = (uint32_t)(ceil(fabs(__tmp)));
	#endif

	__builtin_avr_delay_cycles(__ticks_dc);
    354c:	2f ef       	ldi	r18, 0xFF	; 255
    354e:	8f e7       	ldi	r24, 0x7F	; 127
    3550:	94 e0       	ldi	r25, 0x04	; 4
    3552:	21 50       	subi	r18, 0x01	; 1
    3554:	80 40       	sbci	r24, 0x00	; 0
    3556:	90 40       	sbci	r25, 0x00	; 0
    3558:	e1 f7       	brne	.-8      	; 0x3552 <CellRead_1+0x88>
    355a:	00 c0       	rjmp	.+0      	; 0x355c <CellRead_1+0x92>
    355c:	00 00       	nop
	_delay_ms(100);
	Value = Value ^ 0x400000;						// ΉιΕΉ▓┤ Data Ήζα 2Ήζα Έ│┤ΉΙα Ά░Τ Ά╡υΊΧαΆ╕░
    355e:	6a 01       	movw	r12, r20
    3560:	7b 01       	movw	r14, r22
    3562:	20 e4       	ldi	r18, 0x40	; 64
    3564:	e2 26       	eor	r14, r18
	if(Value > Cell_Capa_1 * 10000 + CELL.OFF_Set) {Value = 0;}		// ΉιΕΉ▓┤ Data Ά░Α ΉΔΒΊΧεΆ░Τ Ήζ┤ΉΔΒΉζ┤Έσ┤ Data Ή┤ΙΆ╕░ΊβΦ (if(Value > 0x7FF000) {Value = 0;})
    3566:	20 91 8b 42 	lds	r18, 0x428B	; 0x80428b <Cell_Capa_1>
    356a:	30 91 8c 42 	lds	r19, 0x428C	; 0x80428c <Cell_Capa_1+0x1>
    356e:	40 91 8d 42 	lds	r20, 0x428D	; 0x80428d <Cell_Capa_1+0x2>
    3572:	50 91 8e 42 	lds	r21, 0x428E	; 0x80428e <Cell_Capa_1+0x3>
    3576:	a0 e1       	ldi	r26, 0x10	; 16
    3578:	b7 e2       	ldi	r27, 0x27	; 39
    357a:	0e 94 52 44 	call	0x88a4	; 0x88a4 <__muluhisi3>
    357e:	80 90 41 42 	lds	r8, 0x4241	; 0x804241 <CELL+0x30>
    3582:	90 90 42 42 	lds	r9, 0x4242	; 0x804242 <CELL+0x31>
    3586:	a0 90 43 42 	lds	r10, 0x4243	; 0x804243 <CELL+0x32>
    358a:	b0 90 44 42 	lds	r11, 0x4244	; 0x804244 <CELL+0x33>
    358e:	dc 01       	movw	r26, r24
    3590:	cb 01       	movw	r24, r22
    3592:	88 0d       	add	r24, r8
    3594:	99 1d       	adc	r25, r9
    3596:	aa 1d       	adc	r26, r10
    3598:	bb 1d       	adc	r27, r11
    359a:	8c 15       	cp	r24, r12
    359c:	9d 05       	cpc	r25, r13
    359e:	ae 05       	cpc	r26, r14
    35a0:	bf 05       	cpc	r27, r15
    35a2:	18 f4       	brcc	.+6      	; 0x35aa <CellRead_1+0xe0>
    35a4:	c1 2c       	mov	r12, r1
    35a6:	d1 2c       	mov	r13, r1
    35a8:	76 01       	movw	r14, r12
	Proportion_Set();							// Έ░░Ήερ Ά│ΕΉΓ░
    35aa:	0e 94 bf 0b 	call	0x177e	; 0x177e <Proportion_Set>
	Value = Value / CELL.Proportion_1;					// Data / Έ╣ΕΉερ = Έυ┤Ά▓Ν
    35ae:	80 90 11 42 	lds	r8, 0x4211	; 0x804211 <CELL>
    35b2:	90 90 12 42 	lds	r9, 0x4212	; 0x804212 <CELL+0x1>
    35b6:	a0 90 13 42 	lds	r10, 0x4213	; 0x804213 <CELL+0x2>
    35ba:	b0 90 14 42 	lds	r11, 0x4214	; 0x804214 <CELL+0x3>
    35be:	c7 01       	movw	r24, r14
    35c0:	b6 01       	movw	r22, r12
    35c2:	0e 94 f9 3e 	call	0x7df2	; 0x7df2 <__floatsisf>
    35c6:	a5 01       	movw	r20, r10
    35c8:	94 01       	movw	r18, r8
    35ca:	0e 94 4f 3e 	call	0x7c9e	; 0x7c9e <__divsf3>
    35ce:	0e 94 c1 3e 	call	0x7d82	; 0x7d82 <__fixsfsi>
	return(Value);								// ΈουΊΕ┤ Έυ┤Ά▓Ν Data
}
    35d2:	ff 90       	pop	r15
    35d4:	ef 90       	pop	r14
    35d6:	df 90       	pop	r13
    35d8:	cf 90       	pop	r12
    35da:	bf 90       	pop	r11
    35dc:	af 90       	pop	r10
    35de:	9f 90       	pop	r9
    35e0:	8f 90       	pop	r8
    35e2:	08 95       	ret

000035e4 <CellRead_2>:

//=================================================================================================
int32_t CellRead_2(void)							// 2 Έ▓Ι ΉΖΑ Data Ήζ╜Ά╕░, HX711 ΉιεΉΨ┤
{
    35e4:	8f 92       	push	r8
    35e6:	9f 92       	push	r9
    35e8:	af 92       	push	r10
    35ea:	bf 92       	push	r11
    35ec:	cf 92       	push	r12
    35ee:	df 92       	push	r13
    35f0:	ef 92       	push	r14
    35f2:	ff 92       	push	r15
	int32_t Value = 0;							// Data ΉιΑΉηξΉγσ Έ│ΑΉΙα Ή┤ΙΆ╕░ΊβΦ

	SCK_LOW_2;								// HX711 SCk LOW
    35f4:	e4 e4       	ldi	r30, 0x44	; 68
    35f6:	f4 e0       	ldi	r31, 0x04	; 4
    35f8:	80 81       	ld	r24, Z
    35fa:	8f 7e       	andi	r24, 0xEF	; 239
    35fc:	80 83       	st	Z, r24
	while(DO2);								// HX711 SDAΆ░Α HIGH Ήζ┤Έσ┤ ΈΝΑΆ╕░
    35fe:	80 91 48 04 	lds	r24, 0x0448	; 0x800448 <__TEXT_REGION_LENGTH__+0x7e0448>
    3602:	85 ff       	sbrs	r24, 5
    3604:	fc cf       	rjmp	.-8      	; 0x35fe <CellRead_2+0x1a>
    3606:	90 e0       	ldi	r25, 0x00	; 0
    3608:	40 e0       	ldi	r20, 0x00	; 0
    360a:	50 e0       	ldi	r21, 0x00	; 0
    360c:	ba 01       	movw	r22, r20
    360e:	1d c0       	rjmp	.+58     	; 0x364a <CellRead_2+0x66>
	for(uint8_t i = 0; i < 24; i++)						// 24bit Data ΈπΝΊΒ╝ Έ░αΈ│╡
	{
		Value = Value << 1;						// Data 1ΉηΡΈου ΉΚυΊΦΕΊΛ╕
    3610:	44 0f       	add	r20, r20
    3612:	55 1f       	adc	r21, r21
    3614:	66 1f       	adc	r22, r22
    3616:	77 1f       	adc	r23, r23
		SCK_HIGH_2;							// HX711 SCk HIGH
    3618:	e4 e4       	ldi	r30, 0x44	; 68
    361a:	f4 e0       	ldi	r31, 0x04	; 4
    361c:	80 81       	ld	r24, Z
    361e:	80 61       	ori	r24, 0x10	; 16
    3620:	80 83       	st	Z, r24
	#else
		//round up by default
		__ticks_dc = (uint32_t)(ceil(fabs(__tmp)));
	#endif

	__builtin_avr_delay_cycles(__ticks_dc);
    3622:	22 e6       	ldi	r18, 0x62	; 98
    3624:	2a 95       	dec	r18
    3626:	f1 f7       	brne	.-4      	; 0x3624 <CellRead_2+0x40>
    3628:	00 00       	nop
		_delay_us(20);
		SCK_LOW_2;							// HX711 SCk LOW
    362a:	80 81       	ld	r24, Z
    362c:	8f 7e       	andi	r24, 0xEF	; 239
    362e:	80 83       	st	Z, r24
    3630:	82 e6       	ldi	r24, 0x62	; 98
    3632:	8a 95       	dec	r24
    3634:	f1 f7       	brne	.-4      	; 0x3632 <CellRead_2+0x4e>
    3636:	00 00       	nop
		_delay_us(20);
		if(DO2) {Value++;}						// HX711 SDAΆ░Α HIGH Ήζ┤Έσ┤ Bit Data ΈΞΦΊΧαΆ╕░
    3638:	80 91 48 04 	lds	r24, 0x0448	; 0x800448 <__TEXT_REGION_LENGTH__+0x7e0448>
    363c:	85 fd       	sbrc	r24, 5
    363e:	04 c0       	rjmp	.+8      	; 0x3648 <CellRead_2+0x64>
    3640:	4f 5f       	subi	r20, 0xFF	; 255
    3642:	5f 4f       	sbci	r21, 0xFF	; 255
    3644:	6f 4f       	sbci	r22, 0xFF	; 255
    3646:	7f 4f       	sbci	r23, 0xFF	; 255
{
	int32_t Value = 0;							// Data ΉιΑΉηξΉγσ Έ│ΑΉΙα Ή┤ΙΆ╕░ΊβΦ

	SCK_LOW_2;								// HX711 SCk LOW
	while(DO2);								// HX711 SDAΆ░Α HIGH Ήζ┤Έσ┤ ΈΝΑΆ╕░
	for(uint8_t i = 0; i < 24; i++)						// 24bit Data ΈπΝΊΒ╝ Έ░αΈ│╡
    3648:	9f 5f       	subi	r25, 0xFF	; 255
    364a:	98 31       	cpi	r25, 0x18	; 24
    364c:	08 f3       	brcs	.-62     	; 0x3610 <CellRead_2+0x2c>
		_delay_us(20);
		SCK_LOW_2;							// HX711 SCk LOW
		_delay_us(20);
		if(DO2) {Value++;}						// HX711 SDAΆ░Α HIGH Ήζ┤Έσ┤ Bit Data ΈΞΦΊΧαΆ╕░
	}
	SCK_HIGH_2;								// HX711 SCk HIGH
    364e:	e4 e4       	ldi	r30, 0x44	; 68
    3650:	f4 e0       	ldi	r31, 0x04	; 4
    3652:	80 81       	ld	r24, Z
    3654:	80 61       	ori	r24, 0x10	; 16
    3656:	80 83       	st	Z, r24
    3658:	92 e6       	ldi	r25, 0x62	; 98
    365a:	9a 95       	dec	r25
    365c:	f1 f7       	brne	.-4      	; 0x365a <CellRead_2+0x76>
    365e:	00 00       	nop
	_delay_us(20);
	SCK_LOW_2;								// HX711 SCk LOW
    3660:	80 81       	ld	r24, Z
    3662:	8f 7e       	andi	r24, 0xEF	; 239
    3664:	80 83       	st	Z, r24
	#else
		//round up by default
		__ticks_dc = (uint32_t)(ceil(fabs(__tmp)));
	#endif

	__builtin_avr_delay_cycles(__ticks_dc);
    3666:	2f ef       	ldi	r18, 0xFF	; 255
    3668:	8f e7       	ldi	r24, 0x7F	; 127
    366a:	94 e0       	ldi	r25, 0x04	; 4
    366c:	21 50       	subi	r18, 0x01	; 1
    366e:	80 40       	sbci	r24, 0x00	; 0
    3670:	90 40       	sbci	r25, 0x00	; 0
    3672:	e1 f7       	brne	.-8      	; 0x366c <CellRead_2+0x88>
    3674:	00 c0       	rjmp	.+0      	; 0x3676 <CellRead_2+0x92>
    3676:	00 00       	nop
	_delay_ms(100);
	Value = Value ^ 0x400000;						// ΉιΕΉ▓┤ Data Ήζα 2Ήζα Έ│┤ΉΙα Ά░Τ Ά╡υΊΧαΆ╕░
    3678:	6a 01       	movw	r12, r20
    367a:	7b 01       	movw	r14, r22
    367c:	20 e4       	ldi	r18, 0x40	; 64
    367e:	e2 26       	eor	r14, r18
	if(Value > Cell_Capa_2 * 10000 + CELL.OFF_Set) {Value = 0;}		// ΉιΕΉ▓┤ Data Ά░Α ΉΔΒΊΧεΆ░Τ Ήζ┤ΉΔΒΉζ┤Έσ┤ Data Ή┤ΙΆ╕░ΊβΦ (if(Value > 0x7FF000) {Value = 0;})
    3680:	20 91 99 42 	lds	r18, 0x4299	; 0x804299 <Cell_Capa_2>
    3684:	30 91 9a 42 	lds	r19, 0x429A	; 0x80429a <Cell_Capa_2+0x1>
    3688:	40 91 9b 42 	lds	r20, 0x429B	; 0x80429b <Cell_Capa_2+0x2>
    368c:	50 91 9c 42 	lds	r21, 0x429C	; 0x80429c <Cell_Capa_2+0x3>
    3690:	a0 e1       	ldi	r26, 0x10	; 16
    3692:	b7 e2       	ldi	r27, 0x27	; 39
    3694:	0e 94 52 44 	call	0x88a4	; 0x88a4 <__muluhisi3>
    3698:	80 90 41 42 	lds	r8, 0x4241	; 0x804241 <CELL+0x30>
    369c:	90 90 42 42 	lds	r9, 0x4242	; 0x804242 <CELL+0x31>
    36a0:	a0 90 43 42 	lds	r10, 0x4243	; 0x804243 <CELL+0x32>
    36a4:	b0 90 44 42 	lds	r11, 0x4244	; 0x804244 <CELL+0x33>
    36a8:	dc 01       	movw	r26, r24
    36aa:	cb 01       	movw	r24, r22
    36ac:	88 0d       	add	r24, r8
    36ae:	99 1d       	adc	r25, r9
    36b0:	aa 1d       	adc	r26, r10
    36b2:	bb 1d       	adc	r27, r11
    36b4:	8c 15       	cp	r24, r12
    36b6:	9d 05       	cpc	r25, r13
    36b8:	ae 05       	cpc	r26, r14
    36ba:	bf 05       	cpc	r27, r15
    36bc:	18 f4       	brcc	.+6      	; 0x36c4 <CellRead_2+0xe0>
    36be:	c1 2c       	mov	r12, r1
    36c0:	d1 2c       	mov	r13, r1
    36c2:	76 01       	movw	r14, r12
	Proportion_Set();							// Έ░░Ήερ Ά│ΕΉΓ░
    36c4:	0e 94 bf 0b 	call	0x177e	; 0x177e <Proportion_Set>
	Value = Value / CELL.Proportion_2;					// Data / Έ╣ΕΉερ = Έυ┤Ά▓Ν
    36c8:	80 90 15 42 	lds	r8, 0x4215	; 0x804215 <CELL+0x4>
    36cc:	90 90 16 42 	lds	r9, 0x4216	; 0x804216 <CELL+0x5>
    36d0:	a0 90 17 42 	lds	r10, 0x4217	; 0x804217 <CELL+0x6>
    36d4:	b0 90 18 42 	lds	r11, 0x4218	; 0x804218 <CELL+0x7>
    36d8:	c7 01       	movw	r24, r14
    36da:	b6 01       	movw	r22, r12
    36dc:	0e 94 f9 3e 	call	0x7df2	; 0x7df2 <__floatsisf>
    36e0:	a5 01       	movw	r20, r10
    36e2:	94 01       	movw	r18, r8
    36e4:	0e 94 4f 3e 	call	0x7c9e	; 0x7c9e <__divsf3>
    36e8:	0e 94 c1 3e 	call	0x7d82	; 0x7d82 <__fixsfsi>
	return(Value);								// ΈουΊΕ┤ Έυ┤Ά▓Ν Data
}
    36ec:	ff 90       	pop	r15
    36ee:	ef 90       	pop	r14
    36f0:	df 90       	pop	r13
    36f2:	cf 90       	pop	r12
    36f4:	bf 90       	pop	r11
    36f6:	af 90       	pop	r10
    36f8:	9f 90       	pop	r9
    36fa:	8f 90       	pop	r8
    36fc:	08 95       	ret

000036fe <CellRead_3>:

//=================================================================================================
int32_t CellRead_3(void)							// 3 Έ▓Ι ΉΖΑ Data Ήζ╜Ά╕░ HX711 ΉιεΉΨ┤
{
    36fe:	8f 92       	push	r8
    3700:	9f 92       	push	r9
    3702:	af 92       	push	r10
    3704:	bf 92       	push	r11
    3706:	cf 92       	push	r12
    3708:	df 92       	push	r13
    370a:	ef 92       	push	r14
    370c:	ff 92       	push	r15
	int32_t Value = 0;							// Data ΉιΑΉηξΉγσ Έ│ΑΉΙα Ή┤ΙΆ╕░ΊβΦ

	SCK_LOW_3;								// HX711 SCk LOW
    370e:	e4 e4       	ldi	r30, 0x44	; 68
    3710:	f4 e0       	ldi	r31, 0x04	; 4
    3712:	80 81       	ld	r24, Z
    3714:	8f 7b       	andi	r24, 0xBF	; 191
    3716:	80 83       	st	Z, r24
	while(DO3);								// HX711 SDAΆ░Α HIGH Ήζ┤Έσ┤ ΈΝΑΆ╕░
    3718:	80 91 48 04 	lds	r24, 0x0448	; 0x800448 <__TEXT_REGION_LENGTH__+0x7e0448>
    371c:	88 23       	and	r24, r24
    371e:	e4 f7       	brge	.-8      	; 0x3718 <CellRead_3+0x1a>
    3720:	90 e0       	ldi	r25, 0x00	; 0
    3722:	40 e0       	ldi	r20, 0x00	; 0
    3724:	50 e0       	ldi	r21, 0x00	; 0
    3726:	ba 01       	movw	r22, r20
    3728:	1d c0       	rjmp	.+58     	; 0x3764 <CellRead_3+0x66>
	for(uint8_t i = 0; i < 24; i++)						// 24bit Data ΈπΝΊΒ╝ Έ░αΈ│╡
	{
		Value = Value << 1;						// Data 1ΉηΡΈου ΉΚυΊΦΕΊΛ╕
    372a:	44 0f       	add	r20, r20
    372c:	55 1f       	adc	r21, r21
    372e:	66 1f       	adc	r22, r22
    3730:	77 1f       	adc	r23, r23
		SCK_HIGH_3;							// HX711 SCk HIGH
    3732:	e4 e4       	ldi	r30, 0x44	; 68
    3734:	f4 e0       	ldi	r31, 0x04	; 4
    3736:	80 81       	ld	r24, Z
    3738:	80 64       	ori	r24, 0x40	; 64
    373a:	80 83       	st	Z, r24
	#else
		//round up by default
		__ticks_dc = (uint32_t)(ceil(fabs(__tmp)));
	#endif

	__builtin_avr_delay_cycles(__ticks_dc);
    373c:	22 e6       	ldi	r18, 0x62	; 98
    373e:	2a 95       	dec	r18
    3740:	f1 f7       	brne	.-4      	; 0x373e <CellRead_3+0x40>
    3742:	00 00       	nop
		_delay_us(20);
		SCK_LOW_3;							// HX711 SCk LOW
    3744:	80 81       	ld	r24, Z
    3746:	8f 7b       	andi	r24, 0xBF	; 191
    3748:	80 83       	st	Z, r24
    374a:	82 e6       	ldi	r24, 0x62	; 98
    374c:	8a 95       	dec	r24
    374e:	f1 f7       	brne	.-4      	; 0x374c <CellRead_3+0x4e>
    3750:	00 00       	nop
		_delay_us(20);
		if(DO3) {Value++;}						// HX711 SDAΆ░Α HIGH Ήζ┤Έσ┤ Bit Data ΈΞΦΊΧαΆ╕░
    3752:	80 91 48 04 	lds	r24, 0x0448	; 0x800448 <__TEXT_REGION_LENGTH__+0x7e0448>
    3756:	88 23       	and	r24, r24
    3758:	24 f0       	brlt	.+8      	; 0x3762 <CellRead_3+0x64>
    375a:	4f 5f       	subi	r20, 0xFF	; 255
    375c:	5f 4f       	sbci	r21, 0xFF	; 255
    375e:	6f 4f       	sbci	r22, 0xFF	; 255
    3760:	7f 4f       	sbci	r23, 0xFF	; 255
{
	int32_t Value = 0;							// Data ΉιΑΉηξΉγσ Έ│ΑΉΙα Ή┤ΙΆ╕░ΊβΦ

	SCK_LOW_3;								// HX711 SCk LOW
	while(DO3);								// HX711 SDAΆ░Α HIGH Ήζ┤Έσ┤ ΈΝΑΆ╕░
	for(uint8_t i = 0; i < 24; i++)						// 24bit Data ΈπΝΊΒ╝ Έ░αΈ│╡
    3762:	9f 5f       	subi	r25, 0xFF	; 255
    3764:	98 31       	cpi	r25, 0x18	; 24
    3766:	08 f3       	brcs	.-62     	; 0x372a <CellRead_3+0x2c>
		_delay_us(20);
		SCK_LOW_3;							// HX711 SCk LOW
		_delay_us(20);
		if(DO3) {Value++;}						// HX711 SDAΆ░Α HIGH Ήζ┤Έσ┤ Bit Data ΈΞΦΊΧαΆ╕░
	}
	SCK_HIGH_3;								// HX711 SCk HIGH
    3768:	e4 e4       	ldi	r30, 0x44	; 68
    376a:	f4 e0       	ldi	r31, 0x04	; 4
    376c:	80 81       	ld	r24, Z
    376e:	80 64       	ori	r24, 0x40	; 64
    3770:	80 83       	st	Z, r24
    3772:	92 e6       	ldi	r25, 0x62	; 98
    3774:	9a 95       	dec	r25
    3776:	f1 f7       	brne	.-4      	; 0x3774 <CellRead_3+0x76>
    3778:	00 00       	nop
	_delay_us(20);
	SCK_LOW_3;								// HX711 SCk LOW
    377a:	80 81       	ld	r24, Z
    377c:	8f 7b       	andi	r24, 0xBF	; 191
    377e:	80 83       	st	Z, r24
	#else
		//round up by default
		__ticks_dc = (uint32_t)(ceil(fabs(__tmp)));
	#endif

	__builtin_avr_delay_cycles(__ticks_dc);
    3780:	2f ef       	ldi	r18, 0xFF	; 255
    3782:	8f e7       	ldi	r24, 0x7F	; 127
    3784:	94 e0       	ldi	r25, 0x04	; 4
    3786:	21 50       	subi	r18, 0x01	; 1
    3788:	80 40       	sbci	r24, 0x00	; 0
    378a:	90 40       	sbci	r25, 0x00	; 0
    378c:	e1 f7       	brne	.-8      	; 0x3786 <CellRead_3+0x88>
    378e:	00 c0       	rjmp	.+0      	; 0x3790 <CellRead_3+0x92>
    3790:	00 00       	nop
	_delay_ms(100);
	Value = Value ^ 0x400000;						// ΉιΕΉ▓┤ Data Ήζα 2Ήζα Έ│┤ΉΙα Ά░Τ Ά╡υΊΧαΆ╕░
    3792:	6a 01       	movw	r12, r20
    3794:	7b 01       	movw	r14, r22
    3796:	20 e4       	ldi	r18, 0x40	; 64
    3798:	e2 26       	eor	r14, r18
	if(Value > Cell_Capa_1 * 10000 + CELL.OFF_Set) {Value = 0;}		// ΉιΕΉ▓┤ Data Ά░Α ΉΔΒΊΧεΆ░Τ Ήζ┤ΉΔΒΉζ┤Έσ┤ Data Ή┤ΙΆ╕░ΊβΦ (if(Value > 0x7FF000) {Value = 0;})
    379a:	20 91 8b 42 	lds	r18, 0x428B	; 0x80428b <Cell_Capa_1>
    379e:	30 91 8c 42 	lds	r19, 0x428C	; 0x80428c <Cell_Capa_1+0x1>
    37a2:	40 91 8d 42 	lds	r20, 0x428D	; 0x80428d <Cell_Capa_1+0x2>
    37a6:	50 91 8e 42 	lds	r21, 0x428E	; 0x80428e <Cell_Capa_1+0x3>
    37aa:	a0 e1       	ldi	r26, 0x10	; 16
    37ac:	b7 e2       	ldi	r27, 0x27	; 39
    37ae:	0e 94 52 44 	call	0x88a4	; 0x88a4 <__muluhisi3>
    37b2:	80 90 41 42 	lds	r8, 0x4241	; 0x804241 <CELL+0x30>
    37b6:	90 90 42 42 	lds	r9, 0x4242	; 0x804242 <CELL+0x31>
    37ba:	a0 90 43 42 	lds	r10, 0x4243	; 0x804243 <CELL+0x32>
    37be:	b0 90 44 42 	lds	r11, 0x4244	; 0x804244 <CELL+0x33>
    37c2:	dc 01       	movw	r26, r24
    37c4:	cb 01       	movw	r24, r22
    37c6:	88 0d       	add	r24, r8
    37c8:	99 1d       	adc	r25, r9
    37ca:	aa 1d       	adc	r26, r10
    37cc:	bb 1d       	adc	r27, r11
    37ce:	8c 15       	cp	r24, r12
    37d0:	9d 05       	cpc	r25, r13
    37d2:	ae 05       	cpc	r26, r14
    37d4:	bf 05       	cpc	r27, r15
    37d6:	18 f4       	brcc	.+6      	; 0x37de <CellRead_3+0xe0>
    37d8:	c1 2c       	mov	r12, r1
    37da:	d1 2c       	mov	r13, r1
    37dc:	76 01       	movw	r14, r12
	Proportion_Set();							// Έ░░Ήερ Ά│ΕΉΓ░
    37de:	0e 94 bf 0b 	call	0x177e	; 0x177e <Proportion_Set>
	Value = Value / CELL.Proportion_3;					// Data / Έ╣ΕΉερ = Έυ┤Ά▓Ν
    37e2:	80 90 19 42 	lds	r8, 0x4219	; 0x804219 <CELL+0x8>
    37e6:	90 90 1a 42 	lds	r9, 0x421A	; 0x80421a <CELL+0x9>
    37ea:	a0 90 1b 42 	lds	r10, 0x421B	; 0x80421b <CELL+0xa>
    37ee:	b0 90 1c 42 	lds	r11, 0x421C	; 0x80421c <CELL+0xb>
    37f2:	c7 01       	movw	r24, r14
    37f4:	b6 01       	movw	r22, r12
    37f6:	0e 94 f9 3e 	call	0x7df2	; 0x7df2 <__floatsisf>
    37fa:	a5 01       	movw	r20, r10
    37fc:	94 01       	movw	r18, r8
    37fe:	0e 94 4f 3e 	call	0x7c9e	; 0x7c9e <__divsf3>
    3802:	0e 94 c1 3e 	call	0x7d82	; 0x7d82 <__fixsfsi>
	return(Value);								// ΈουΊΕ┤ Έυ┤Ά▓Ν Data
}
    3806:	ff 90       	pop	r15
    3808:	ef 90       	pop	r14
    380a:	df 90       	pop	r13
    380c:	cf 90       	pop	r12
    380e:	bf 90       	pop	r11
    3810:	af 90       	pop	r10
    3812:	9f 90       	pop	r9
    3814:	8f 90       	pop	r8
    3816:	08 95       	ret

00003818 <Cell_Zero_Set>:
// 	return(ValSum);								// ΈουΊΕ┤ ValSum
}

//=================================================================================================
void Cell_Zero_Set(uint8_t Number)						// ΈκεΈΥεΉΖΑ 0 Ά░Τ Ή░╛Ά╕░
{
    3818:	0f 93       	push	r16
    381a:	1f 93       	push	r17
	int32_t Value = 0;							// Ή╕κΉιΧ Ά░Τ Έ│ΑΉΙα Ή┤ΙΆ╕░ΊβΦ
	int32_t Value_Sum = 0;							// Ή╕κΉιΧ Ά░Τ Ά│ΕΉΓ░ Έ│ΑΉΙα Ή┤ΙΆ╕░ΊβΦ

	if(Number == 1)								// 1Έ▓Ι ΈκεΈΥεΉΖΑ Ήζ┤Έσ┤
    381c:	81 30       	cpi	r24, 0x01	; 1
    381e:	c9 f5       	brne	.+114    	; 0x3892 <Cell_Zero_Set+0x7a>
	{
		Value = CellRead_1();						// 1Έ▓Ι ΈκεΈΥεΉΖΑ Data Ήζ╜Ά╕░
    3820:	0e 94 65 1a 	call	0x34ca	; 0x34ca <CellRead_1>
    3824:	8b 01       	movw	r16, r22
    3826:	9c 01       	movw	r18, r24
		do{
			Value_Sum = CELL.OFF_Set_1 - Value;			// 1Έ▓Ι ΈκεΈΥεΉΖΑ OFF_Set Ή┤ΙΆ╕░Ά░Τ(20Kg) - Data = Value_Sum
    3828:	80 91 45 42 	lds	r24, 0x4245	; 0x804245 <CELL+0x34>
    382c:	90 91 46 42 	lds	r25, 0x4246	; 0x804246 <CELL+0x35>
    3830:	a0 91 47 42 	lds	r26, 0x4247	; 0x804247 <CELL+0x36>
    3834:	b0 91 48 42 	lds	r27, 0x4248	; 0x804248 <CELL+0x37>
    3838:	80 1b       	sub	r24, r16
    383a:	91 0b       	sbc	r25, r17
    383c:	a2 0b       	sbc	r26, r18
    383e:	b3 0b       	sbc	r27, r19
			if     (Value_Sum > 0) {CELL.OFF_Set_1 = CELL.OFF_Set_1 - Value_Sum;}	// Value_Sum Ά░ΤΉζ┤ 0 Έ│┤ΈΜν ΊΒυΈσ┤   OFF_Set - Value_Sum ΊΧ┤ΉΕε OFF_SetΉΩΡ ΉιΑΉηξ
    3840:	18 16       	cp	r1, r24
    3842:	19 06       	cpc	r1, r25
    3844:	1a 06       	cpc	r1, r26
    3846:	1b 06       	cpc	r1, r27
    3848:	7c f4       	brge	.+30     	; 0x3868 <Cell_Zero_Set+0x50>
    384a:	e1 e1       	ldi	r30, 0x11	; 17
    384c:	f2 e4       	ldi	r31, 0x42	; 66
    384e:	44 a9       	ldd	r20, Z+52	; 0x34
    3850:	55 a9       	ldd	r21, Z+53	; 0x35
    3852:	66 a9       	ldd	r22, Z+54	; 0x36
    3854:	77 a9       	ldd	r23, Z+55	; 0x37
    3856:	48 1b       	sub	r20, r24
    3858:	59 0b       	sbc	r21, r25
    385a:	6a 0b       	sbc	r22, r26
    385c:	7b 0b       	sbc	r23, r27
    385e:	44 ab       	std	Z+52, r20	; 0x34
    3860:	55 ab       	std	Z+53, r21	; 0x35
    3862:	66 ab       	std	Z+54, r22	; 0x36
    3864:	77 ab       	std	Z+55, r23	; 0x37
    3866:	10 c0       	rjmp	.+32     	; 0x3888 <Cell_Zero_Set+0x70>
			else if(Value_Sum < 0) {CELL.OFF_Set_1 = CELL.OFF_Set_1 + Value_Sum;}	// Value_Sum Ά░ΤΉζ┤ 0 Έ│┤ΈΜν ΉηΣΉε╝Έσ┤ OFF_Set + Value_Sum ΊΧ┤ΉΕε OFF_SetΉΩΡ ΉιΑΉηξ
    3868:	bb 23       	and	r27, r27
    386a:	74 f4       	brge	.+28     	; 0x3888 <Cell_Zero_Set+0x70>
    386c:	e1 e1       	ldi	r30, 0x11	; 17
    386e:	f2 e4       	ldi	r31, 0x42	; 66
    3870:	44 a9       	ldd	r20, Z+52	; 0x34
    3872:	55 a9       	ldd	r21, Z+53	; 0x35
    3874:	66 a9       	ldd	r22, Z+54	; 0x36
    3876:	77 a9       	ldd	r23, Z+55	; 0x37
    3878:	48 0f       	add	r20, r24
    387a:	59 1f       	adc	r21, r25
    387c:	6a 1f       	adc	r22, r26
    387e:	7b 1f       	adc	r23, r27
    3880:	44 ab       	std	Z+52, r20	; 0x34
    3882:	55 ab       	std	Z+53, r21	; 0x35
    3884:	66 ab       	std	Z+54, r22	; 0x36
    3886:	77 ab       	std	Z+55, r23	; 0x37
		}while(Value_Sum != 0);						// !Value_Sum Ήζ┤ 0 Ήζ╝ΈΧΝΆ╣ΝΉπΑ Έ░αΈ│╡
    3888:	89 2b       	or	r24, r25
    388a:	8a 2b       	or	r24, r26
    388c:	8b 2b       	or	r24, r27
    388e:	61 f6       	brne	.-104    	; 0x3828 <Cell_Zero_Set+0x10>
    3890:	75 c0       	rjmp	.+234    	; 0x397c <Cell_Zero_Set+0x164>
	}
	else if(Number == 2)							// 2Έ▓Ι ΈκεΈΥεΉΖΑ Ήζ┤Έσ┤
    3892:	82 30       	cpi	r24, 0x02	; 2
    3894:	c9 f5       	brne	.+114    	; 0x3908 <Cell_Zero_Set+0xf0>
	{
		Value = CellRead_2();						// 2Έ▓Ι ΈκεΈΥεΉΖΑ Data Ήζ╜Ά╕░
    3896:	0e 94 f2 1a 	call	0x35e4	; 0x35e4 <CellRead_2>
    389a:	8b 01       	movw	r16, r22
    389c:	9c 01       	movw	r18, r24
		do{
			Value_Sum = CELL.OFF_Set_2 - Value;			// 2Έ▓Ι ΈκεΈΥεΉΖΑ OFF_Set Ή┤ΙΆ╕░Ά░Τ(20Kg) - Data = Value_Sum
    389e:	80 91 49 42 	lds	r24, 0x4249	; 0x804249 <CELL+0x38>
    38a2:	90 91 4a 42 	lds	r25, 0x424A	; 0x80424a <CELL+0x39>
    38a6:	a0 91 4b 42 	lds	r26, 0x424B	; 0x80424b <CELL+0x3a>
    38aa:	b0 91 4c 42 	lds	r27, 0x424C	; 0x80424c <CELL+0x3b>
    38ae:	80 1b       	sub	r24, r16
    38b0:	91 0b       	sbc	r25, r17
    38b2:	a2 0b       	sbc	r26, r18
    38b4:	b3 0b       	sbc	r27, r19
			if     (Value_Sum > 0) {CELL.OFF_Set_2 = CELL.OFF_Set_2 - Value_Sum;}	// Value_Sum Ά░ΤΉζ┤ 0 Έ│┤ΈΜν ΊΒυΈσ┤   OFF_Set - Value_Sum ΊΧ┤ΉΕε OFF_SetΉΩΡ ΉιΑΉηξ
    38b6:	18 16       	cp	r1, r24
    38b8:	19 06       	cpc	r1, r25
    38ba:	1a 06       	cpc	r1, r26
    38bc:	1b 06       	cpc	r1, r27
    38be:	7c f4       	brge	.+30     	; 0x38de <Cell_Zero_Set+0xc6>
    38c0:	e1 e1       	ldi	r30, 0x11	; 17
    38c2:	f2 e4       	ldi	r31, 0x42	; 66
    38c4:	40 ad       	ldd	r20, Z+56	; 0x38
    38c6:	51 ad       	ldd	r21, Z+57	; 0x39
    38c8:	62 ad       	ldd	r22, Z+58	; 0x3a
    38ca:	73 ad       	ldd	r23, Z+59	; 0x3b
    38cc:	48 1b       	sub	r20, r24
    38ce:	59 0b       	sbc	r21, r25
    38d0:	6a 0b       	sbc	r22, r26
    38d2:	7b 0b       	sbc	r23, r27
    38d4:	40 af       	std	Z+56, r20	; 0x38
    38d6:	51 af       	std	Z+57, r21	; 0x39
    38d8:	62 af       	std	Z+58, r22	; 0x3a
    38da:	73 af       	std	Z+59, r23	; 0x3b
    38dc:	10 c0       	rjmp	.+32     	; 0x38fe <Cell_Zero_Set+0xe6>
			else if(Value_Sum < 0) {CELL.OFF_Set_2 = CELL.OFF_Set_2 + Value_Sum;}	// Value_Sum Ά░ΤΉζ┤ 0 Έ│┤ΈΜν ΉηΣΉε╝Έσ┤ OFF_Set + Value_Sum ΊΧ┤ΉΕε OFF_SetΉΩΡ ΉιΑΉηξ
    38de:	bb 23       	and	r27, r27
    38e0:	74 f4       	brge	.+28     	; 0x38fe <Cell_Zero_Set+0xe6>
    38e2:	e1 e1       	ldi	r30, 0x11	; 17
    38e4:	f2 e4       	ldi	r31, 0x42	; 66
    38e6:	40 ad       	ldd	r20, Z+56	; 0x38
    38e8:	51 ad       	ldd	r21, Z+57	; 0x39
    38ea:	62 ad       	ldd	r22, Z+58	; 0x3a
    38ec:	73 ad       	ldd	r23, Z+59	; 0x3b
    38ee:	48 0f       	add	r20, r24
    38f0:	59 1f       	adc	r21, r25
    38f2:	6a 1f       	adc	r22, r26
    38f4:	7b 1f       	adc	r23, r27
    38f6:	40 af       	std	Z+56, r20	; 0x38
    38f8:	51 af       	std	Z+57, r21	; 0x39
    38fa:	62 af       	std	Z+58, r22	; 0x3a
    38fc:	73 af       	std	Z+59, r23	; 0x3b
		}while(Value_Sum != 0);						// !Value_Sum Ήζ┤ 0 Ήζ╝ΈΧΝΆ╣ΝΉπΑ Έ░αΈ│╡
    38fe:	89 2b       	or	r24, r25
    3900:	8a 2b       	or	r24, r26
    3902:	8b 2b       	or	r24, r27
    3904:	61 f6       	brne	.-104    	; 0x389e <Cell_Zero_Set+0x86>
    3906:	3a c0       	rjmp	.+116    	; 0x397c <Cell_Zero_Set+0x164>
	}
	else if(Number == 3)							// 3Έ▓Ι ΈκεΈΥεΉΖΑ Ήζ┤Έσ┤
    3908:	83 30       	cpi	r24, 0x03	; 3
    390a:	c1 f5       	brne	.+112    	; 0x397c <Cell_Zero_Set+0x164>
	{
		Value = CellRead_3();						// 3Έ▓Ι ΈκεΈΥεΉΖΑ Data Ήζ╜Ά╕░
    390c:	0e 94 7f 1b 	call	0x36fe	; 0x36fe <CellRead_3>
    3910:	8b 01       	movw	r16, r22
    3912:	9c 01       	movw	r18, r24
		do{
	 		Value_Sum = CELL.OFF_Set_3 - Value;			// 3Έ▓Ι ΈκεΈΥεΉΖΑ OFF_Set Ή┤ΙΆ╕░Ά░Τ(20Kg) - Data = Value_Sum
    3914:	80 91 4d 42 	lds	r24, 0x424D	; 0x80424d <CELL+0x3c>
    3918:	90 91 4e 42 	lds	r25, 0x424E	; 0x80424e <CELL+0x3d>
    391c:	a0 91 4f 42 	lds	r26, 0x424F	; 0x80424f <CELL+0x3e>
    3920:	b0 91 50 42 	lds	r27, 0x4250	; 0x804250 <CELL+0x3f>
    3924:	80 1b       	sub	r24, r16
    3926:	91 0b       	sbc	r25, r17
    3928:	a2 0b       	sbc	r26, r18
    392a:	b3 0b       	sbc	r27, r19
	 		if     (Value_Sum > 0) {CELL.OFF_Set_3 = CELL.OFF_Set_3 - Value_Sum;}	// Value_Sum Ά░ΤΉζ┤ 0 Έ│┤ΈΜν ΊΒυΈσ┤   OFF_Set - Value_Sum ΊΧ┤ΉΕε OFF_SetΉΩΡ ΉιΑΉηξ
    392c:	18 16       	cp	r1, r24
    392e:	19 06       	cpc	r1, r25
    3930:	1a 06       	cpc	r1, r26
    3932:	1b 06       	cpc	r1, r27
    3934:	7c f4       	brge	.+30     	; 0x3954 <Cell_Zero_Set+0x13c>
    3936:	e1 e1       	ldi	r30, 0x11	; 17
    3938:	f2 e4       	ldi	r31, 0x42	; 66
    393a:	44 ad       	ldd	r20, Z+60	; 0x3c
    393c:	55 ad       	ldd	r21, Z+61	; 0x3d
    393e:	66 ad       	ldd	r22, Z+62	; 0x3e
    3940:	77 ad       	ldd	r23, Z+63	; 0x3f
    3942:	48 1b       	sub	r20, r24
    3944:	59 0b       	sbc	r21, r25
    3946:	6a 0b       	sbc	r22, r26
    3948:	7b 0b       	sbc	r23, r27
    394a:	44 af       	std	Z+60, r20	; 0x3c
    394c:	55 af       	std	Z+61, r21	; 0x3d
    394e:	66 af       	std	Z+62, r22	; 0x3e
    3950:	77 af       	std	Z+63, r23	; 0x3f
    3952:	10 c0       	rjmp	.+32     	; 0x3974 <Cell_Zero_Set+0x15c>
	 		else if(Value_Sum < 0) {CELL.OFF_Set_3 = CELL.OFF_Set_3 + Value_Sum;}	// Value_Sum Ά░ΤΉζ┤ 0 Έ│┤ΈΜν ΉηΣΉε╝Έσ┤ OFF_Set + Value_Sum ΊΧ┤ΉΕε OFF_SetΉΩΡ ΉιΑΉηξ
    3954:	bb 23       	and	r27, r27
    3956:	74 f4       	brge	.+28     	; 0x3974 <Cell_Zero_Set+0x15c>
    3958:	e1 e1       	ldi	r30, 0x11	; 17
    395a:	f2 e4       	ldi	r31, 0x42	; 66
    395c:	44 ad       	ldd	r20, Z+60	; 0x3c
    395e:	55 ad       	ldd	r21, Z+61	; 0x3d
    3960:	66 ad       	ldd	r22, Z+62	; 0x3e
    3962:	77 ad       	ldd	r23, Z+63	; 0x3f
    3964:	48 0f       	add	r20, r24
    3966:	59 1f       	adc	r21, r25
    3968:	6a 1f       	adc	r22, r26
    396a:	7b 1f       	adc	r23, r27
    396c:	44 af       	std	Z+60, r20	; 0x3c
    396e:	55 af       	std	Z+61, r21	; 0x3d
    3970:	66 af       	std	Z+62, r22	; 0x3e
    3972:	77 af       	std	Z+63, r23	; 0x3f
		}while(Value_Sum != 0);						// Value_Sum Ήζ┤ 0 Ήζ╝ΈΧΝΆ╣ΝΉπΑ Έ░αΈ│╡
    3974:	89 2b       	or	r24, r25
    3976:	8a 2b       	or	r24, r26
    3978:	8b 2b       	or	r24, r27
    397a:	61 f6       	brne	.-104    	; 0x3914 <Cell_Zero_Set+0xfc>
	}
	Beep(10);
    397c:	8a e0       	ldi	r24, 0x0A	; 10
    397e:	90 e0       	ldi	r25, 0x00	; 0
    3980:	0e 94 3b 04 	call	0x876	; 0x876 <Beep>
    3984:	26 e6       	ldi	r18, 0x66	; 102
    3986:	86 ee       	ldi	r24, 0xE6	; 230
    3988:	90 e0       	ldi	r25, 0x00	; 0
    398a:	21 50       	subi	r18, 0x01	; 1
    398c:	80 40       	sbci	r24, 0x00	; 0
    398e:	90 40       	sbci	r25, 0x00	; 0
    3990:	e1 f7       	brne	.-8      	; 0x398a <Cell_Zero_Set+0x172>
	_delay_ms(20);
	wdt_reset();								// Reset WDT
    3992:	0e 94 ef 0c 	call	0x19de	; 0x19de <wdt_reset>
}
    3996:	1f 91       	pop	r17
    3998:	0f 91       	pop	r16
    399a:	08 95       	ret

0000399c <Read_Load_Cell>:
	return(Value);								// ΈουΊΕ┤ Έυ┤Ά▓Ν Data
}

//=================================================================================================
uint16_t Read_Load_Cell(uint8_t Number)						// ΈκεΈΥεΉΖΑ Ή╕κΉιΧΆ░Τ Ήζ╜Ά╕░
{
    399c:	4f 92       	push	r4
    399e:	5f 92       	push	r5
    39a0:	6f 92       	push	r6
    39a2:	7f 92       	push	r7
    39a4:	8f 92       	push	r8
    39a6:	9f 92       	push	r9
    39a8:	af 92       	push	r10
    39aa:	bf 92       	push	r11
    39ac:	cf 92       	push	r12
    39ae:	df 92       	push	r13
    39b0:	ef 92       	push	r14
    39b2:	ff 92       	push	r15
    39b4:	cf 93       	push	r28
    39b6:	df 93       	push	r29
    39b8:	cd b7       	in	r28, 0x3d	; 61
    39ba:	de b7       	in	r29, 0x3e	; 62
    39bc:	25 97       	sbiw	r28, 0x05	; 5
    39be:	cd bf       	out	0x3d, r28	; 61
    39c0:	de bf       	out	0x3e, r29	; 62
    39c2:	8d 83       	std	Y+5, r24	; 0x05
	int32_t Value = 0;							// Ή╕κΉιΧΆ░Τ ΉιΑΉηξΉγσ Έ│ΑΉΙα Ή┤ΙΆ╕░ΊβΦ
	int32_t ValSum = 0;							// OFF-Set Ά│ΕΉΓ░Ά░Τ ΉιΑΉηξΉγσ Έ│ΑΉΙα Ή┤ΙΆ╕░ΊβΦ
	int32_t Old_ValSum = 0;							// Old_Value Έ│ΑΉΙα Ή┤ΙΆ╕░ΊβΦ
	int32_t IN_S_Value = 0;							// ΉηΖΆ╡υΉ▓┤ΉνΣ ΉιΑΉηξΉγσ Έ│ΑΉΙα Ή┤ΙΆ╕░ΊβΦ
 	uint16_t Re_cnt_1 = 50;							// ΉΨΣΉΙα ΉΩ░ΉΗΞ Ή╕κΉιΧ ΊδΕ Ή┤ΙΆ╕░ΊβΦ ΊγθΉΙα
	CELL.OFF_Set = 0;							// OFF_Set Ά░Τ ΉιΑΉηξΉγσ Έ│ΑΉΙα Ή┤ΙΆ╕░ΊβΦ
    39c4:	10 92 41 42 	sts	0x4241, r1	; 0x804241 <CELL+0x30>
    39c8:	10 92 42 42 	sts	0x4242, r1	; 0x804242 <CELL+0x31>
    39cc:	10 92 43 42 	sts	0x4243, r1	; 0x804243 <CELL+0x32>
    39d0:	10 92 44 42 	sts	0x4244, r1	; 0x804244 <CELL+0x33>
//-------------------------------------------------------------------------------------------------
	if(Number == 1)								// 1Έ▓Ι ΈκεΈΥεΉΖΑ Ήζ┤Έσ┤
    39d4:	81 30       	cpi	r24, 0x01	; 1
    39d6:	91 f5       	brne	.+100    	; 0x3a3c <Read_Load_Cell+0xa0>
	{
		Value = CellRead_1();						// 1Έ▓Ι ΈκεΈΥεΉΖΑ Ή╕κΉιΧΆ░Τ
    39d8:	0e 94 65 1a 	call	0x34ca	; 0x34ca <CellRead_1>
    39dc:	6b 01       	movw	r12, r22
    39de:	7c 01       	movw	r14, r24
 		Old_ValSum = CELL.Old_ValSum_1;					// 1Έ▓Ι ΈκεΈΥεΉΖΑ Old_Value_1 Ά░Τ
    39e0:	e1 e1       	ldi	r30, 0x11	; 17
    39e2:	f2 e4       	ldi	r31, 0x42	; 66
    39e4:	44 a0       	ldd	r4, Z+36	; 0x24
    39e6:	55 a0       	ldd	r5, Z+37	; 0x25
    39e8:	66 a0       	ldd	r6, Z+38	; 0x26
    39ea:	77 a0       	ldd	r7, Z+39	; 0x27
		CELL.OFF_Set = CELL.OFF_Set_1;					// 1Έ▓Ι ΈκεΈΥεΉΖΑ OFF_Set
    39ec:	84 a9       	ldd	r24, Z+52	; 0x34
    39ee:	95 a9       	ldd	r25, Z+53	; 0x35
    39f0:	a6 a9       	ldd	r26, Z+54	; 0x36
    39f2:	b7 a9       	ldd	r27, Z+55	; 0x37
    39f4:	80 ab       	std	Z+48, r24	; 0x30
    39f6:	91 ab       	std	Z+49, r25	; 0x31
    39f8:	a2 ab       	std	Z+50, r26	; 0x32
    39fa:	b3 ab       	std	Z+51, r27	; 0x33
		IN_S_Value = IN_Weight_1;					// 1Έ▓Ι ΈκεΈΥεΉΖΑ ΉηΖΆ╡υΉ▓┤ΉνΣ
    39fc:	80 91 ec 43 	lds	r24, 0x43EC	; 0x8043ec <IN_Weight_1>
    3a00:	90 91 ed 43 	lds	r25, 0x43ED	; 0x8043ed <IN_Weight_1+0x1>
    3a04:	9c 01       	movw	r18, r24
    3a06:	40 e0       	ldi	r20, 0x00	; 0
    3a08:	50 e0       	ldi	r21, 0x00	; 0
    3a0a:	29 83       	std	Y+1, r18	; 0x01
    3a0c:	3a 83       	std	Y+2, r19	; 0x02
    3a0e:	4b 83       	std	Y+3, r20	; 0x03
    3a10:	5c 83       	std	Y+4, r21	; 0x04
		CAPA = Cell_Capa_1 * 1000;
    3a12:	20 91 8b 42 	lds	r18, 0x428B	; 0x80428b <Cell_Capa_1>
    3a16:	30 91 8c 42 	lds	r19, 0x428C	; 0x80428c <Cell_Capa_1+0x1>
    3a1a:	40 91 8d 42 	lds	r20, 0x428D	; 0x80428d <Cell_Capa_1+0x2>
    3a1e:	50 91 8e 42 	lds	r21, 0x428E	; 0x80428e <Cell_Capa_1+0x3>
    3a22:	a8 ee       	ldi	r26, 0xE8	; 232
    3a24:	b3 e0       	ldi	r27, 0x03	; 3
    3a26:	0e 94 52 44 	call	0x88a4	; 0x88a4 <__muluhisi3>
    3a2a:	60 93 fa 41 	sts	0x41FA, r22	; 0x8041fa <CAPA>
    3a2e:	70 93 fb 41 	sts	0x41FB, r23	; 0x8041fb <CAPA+0x1>
    3a32:	80 93 fc 41 	sts	0x41FC, r24	; 0x8041fc <CAPA+0x2>
    3a36:	90 93 fd 41 	sts	0x41FD, r25	; 0x8041fd <CAPA+0x3>
    3a3a:	74 c0       	rjmp	.+232    	; 0x3b24 <Read_Load_Cell+0x188>
	}
	else if(Number == 2)							// 2Έ▓Ι ΈκεΈΥεΉΖΑ Ήζ┤Έσ┤
    3a3c:	3d 81       	ldd	r19, Y+5	; 0x05
    3a3e:	32 30       	cpi	r19, 0x02	; 2
    3a40:	91 f5       	brne	.+100    	; 0x3aa6 <Read_Load_Cell+0x10a>
	{
		Value = CellRead_2();						// 2Έ▓Ι ΈκεΈΥεΉΖΑ Ή╕κΉιΧΆ░Τ
    3a42:	0e 94 f2 1a 	call	0x35e4	; 0x35e4 <CellRead_2>
    3a46:	6b 01       	movw	r12, r22
    3a48:	7c 01       	movw	r14, r24
 		Old_ValSum = CELL.Old_ValSum_2;					// 2Έ▓Ι ΈκεΈΥεΉΖΑ Old_Value_2 Ά░Τ
    3a4a:	e1 e1       	ldi	r30, 0x11	; 17
    3a4c:	f2 e4       	ldi	r31, 0x42	; 66
    3a4e:	40 a4       	ldd	r4, Z+40	; 0x28
    3a50:	51 a4       	ldd	r5, Z+41	; 0x29
    3a52:	62 a4       	ldd	r6, Z+42	; 0x2a
    3a54:	73 a4       	ldd	r7, Z+43	; 0x2b
		CELL.OFF_Set = CELL.OFF_Set_2;					// 2Έ▓Ι ΈκεΈΥεΉΖΑ OFF_Set
    3a56:	80 ad       	ldd	r24, Z+56	; 0x38
    3a58:	91 ad       	ldd	r25, Z+57	; 0x39
    3a5a:	a2 ad       	ldd	r26, Z+58	; 0x3a
    3a5c:	b3 ad       	ldd	r27, Z+59	; 0x3b
    3a5e:	80 ab       	std	Z+48, r24	; 0x30
    3a60:	91 ab       	std	Z+49, r25	; 0x31
    3a62:	a2 ab       	std	Z+50, r26	; 0x32
    3a64:	b3 ab       	std	Z+51, r27	; 0x33
		IN_S_Value = IN_Weight_2;					// 2Έ▓Ι ΈκεΈΥεΉΖΑ ΉηΖΆ╡υΉ▓┤ΉνΣ
    3a66:	80 91 01 42 	lds	r24, 0x4201	; 0x804201 <IN_Weight_2>
    3a6a:	90 91 02 42 	lds	r25, 0x4202	; 0x804202 <IN_Weight_2+0x1>
    3a6e:	9c 01       	movw	r18, r24
    3a70:	40 e0       	ldi	r20, 0x00	; 0
    3a72:	50 e0       	ldi	r21, 0x00	; 0
    3a74:	29 83       	std	Y+1, r18	; 0x01
    3a76:	3a 83       	std	Y+2, r19	; 0x02
    3a78:	4b 83       	std	Y+3, r20	; 0x03
    3a7a:	5c 83       	std	Y+4, r21	; 0x04
		CAPA = Cell_Capa_2 * 1000;
    3a7c:	20 91 99 42 	lds	r18, 0x4299	; 0x804299 <Cell_Capa_2>
    3a80:	30 91 9a 42 	lds	r19, 0x429A	; 0x80429a <Cell_Capa_2+0x1>
    3a84:	40 91 9b 42 	lds	r20, 0x429B	; 0x80429b <Cell_Capa_2+0x2>
    3a88:	50 91 9c 42 	lds	r21, 0x429C	; 0x80429c <Cell_Capa_2+0x3>
    3a8c:	a8 ee       	ldi	r26, 0xE8	; 232
    3a8e:	b3 e0       	ldi	r27, 0x03	; 3
    3a90:	0e 94 52 44 	call	0x88a4	; 0x88a4 <__muluhisi3>
    3a94:	60 93 fa 41 	sts	0x41FA, r22	; 0x8041fa <CAPA>
    3a98:	70 93 fb 41 	sts	0x41FB, r23	; 0x8041fb <CAPA+0x1>
    3a9c:	80 93 fc 41 	sts	0x41FC, r24	; 0x8041fc <CAPA+0x2>
    3aa0:	90 93 fd 41 	sts	0x41FD, r25	; 0x8041fd <CAPA+0x3>
    3aa4:	3f c0       	rjmp	.+126    	; 0x3b24 <Read_Load_Cell+0x188>
	}
	else if(Number == 3)							// 3Έ▓Ι ΈκεΈΥεΉΖΑ Ήζ┤Έσ┤
    3aa6:	3d 81       	ldd	r19, Y+5	; 0x05
    3aa8:	33 30       	cpi	r19, 0x03	; 3
    3aaa:	91 f5       	brne	.+100    	; 0x3b10 <Read_Load_Cell+0x174>
	{
		Value = CellRead_3();						// 3Έ▓Ι ΈκεΈΥεΉΖΑ Ή╕κΉιΧΆ░Τ
    3aac:	0e 94 7f 1b 	call	0x36fe	; 0x36fe <CellRead_3>
    3ab0:	6b 01       	movw	r12, r22
    3ab2:	7c 01       	movw	r14, r24
 		Old_ValSum = CELL.Old_ValSum_3;					// 3Έ▓Ι ΈκεΈΥεΉΖΑ Old_Value_3 Ά░Τ
    3ab4:	e1 e1       	ldi	r30, 0x11	; 17
    3ab6:	f2 e4       	ldi	r31, 0x42	; 66
    3ab8:	44 a4       	ldd	r4, Z+44	; 0x2c
    3aba:	55 a4       	ldd	r5, Z+45	; 0x2d
    3abc:	66 a4       	ldd	r6, Z+46	; 0x2e
    3abe:	77 a4       	ldd	r7, Z+47	; 0x2f
		CELL.OFF_Set = CELL.OFF_Set_3;					// 3Έ▓Ι ΈκεΈΥεΉΖΑ OFF_Set
    3ac0:	84 ad       	ldd	r24, Z+60	; 0x3c
    3ac2:	95 ad       	ldd	r25, Z+61	; 0x3d
    3ac4:	a6 ad       	ldd	r26, Z+62	; 0x3e
    3ac6:	b7 ad       	ldd	r27, Z+63	; 0x3f
    3ac8:	80 ab       	std	Z+48, r24	; 0x30
    3aca:	91 ab       	std	Z+49, r25	; 0x31
    3acc:	a2 ab       	std	Z+50, r26	; 0x32
    3ace:	b3 ab       	std	Z+51, r27	; 0x33
		IN_S_Value = IN_Weight_3;					// 3Έ▓Ι ΈκεΈΥεΉΖΑ ΉηΖΆ╡υΉ▓┤ΉνΣ
    3ad0:	80 91 68 42 	lds	r24, 0x4268	; 0x804268 <IN_Weight_3>
    3ad4:	90 91 69 42 	lds	r25, 0x4269	; 0x804269 <IN_Weight_3+0x1>
    3ad8:	9c 01       	movw	r18, r24
    3ada:	40 e0       	ldi	r20, 0x00	; 0
    3adc:	50 e0       	ldi	r21, 0x00	; 0
    3ade:	29 83       	std	Y+1, r18	; 0x01
    3ae0:	3a 83       	std	Y+2, r19	; 0x02
    3ae2:	4b 83       	std	Y+3, r20	; 0x03
    3ae4:	5c 83       	std	Y+4, r21	; 0x04
		CAPA = Cell_Capa_3 * 1000;
    3ae6:	20 91 87 42 	lds	r18, 0x4287	; 0x804287 <Cell_Capa_3>
    3aea:	30 91 88 42 	lds	r19, 0x4288	; 0x804288 <Cell_Capa_3+0x1>
    3aee:	40 91 89 42 	lds	r20, 0x4289	; 0x804289 <Cell_Capa_3+0x2>
    3af2:	50 91 8a 42 	lds	r21, 0x428A	; 0x80428a <Cell_Capa_3+0x3>
    3af6:	a8 ee       	ldi	r26, 0xE8	; 232
    3af8:	b3 e0       	ldi	r27, 0x03	; 3
    3afa:	0e 94 52 44 	call	0x88a4	; 0x88a4 <__muluhisi3>
    3afe:	60 93 fa 41 	sts	0x41FA, r22	; 0x8041fa <CAPA>
    3b02:	70 93 fb 41 	sts	0x41FB, r23	; 0x8041fb <CAPA+0x1>
    3b06:	80 93 fc 41 	sts	0x41FC, r24	; 0x8041fc <CAPA+0x2>
    3b0a:	90 93 fd 41 	sts	0x41FD, r25	; 0x8041fd <CAPA+0x3>
    3b0e:	0a c0       	rjmp	.+20     	; 0x3b24 <Read_Load_Cell+0x188>
uint16_t Read_Load_Cell(uint8_t Number)						// ΈκεΈΥεΉΖΑ Ή╕κΉιΧΆ░Τ Ήζ╜Ά╕░
{
	int32_t Value = 0;							// Ή╕κΉιΧΆ░Τ ΉιΑΉηξΉγσ Έ│ΑΉΙα Ή┤ΙΆ╕░ΊβΦ
	int32_t ValSum = 0;							// OFF-Set Ά│ΕΉΓ░Ά░Τ ΉιΑΉηξΉγσ Έ│ΑΉΙα Ή┤ΙΆ╕░ΊβΦ
	int32_t Old_ValSum = 0;							// Old_Value Έ│ΑΉΙα Ή┤ΙΆ╕░ΊβΦ
	int32_t IN_S_Value = 0;							// ΉηΖΆ╡υΉ▓┤ΉνΣ ΉιΑΉηξΉγσ Έ│ΑΉΙα Ή┤ΙΆ╕░ΊβΦ
    3b10:	19 82       	std	Y+1, r1	; 0x01
    3b12:	1a 82       	std	Y+2, r1	; 0x02
    3b14:	1b 82       	std	Y+3, r1	; 0x03
    3b16:	1c 82       	std	Y+4, r1	; 0x04
//=================================================================================================
uint16_t Read_Load_Cell(uint8_t Number)						// ΈκεΈΥεΉΖΑ Ή╕κΉιΧΆ░Τ Ήζ╜Ά╕░
{
	int32_t Value = 0;							// Ή╕κΉιΧΆ░Τ ΉιΑΉηξΉγσ Έ│ΑΉΙα Ή┤ΙΆ╕░ΊβΦ
	int32_t ValSum = 0;							// OFF-Set Ά│ΕΉΓ░Ά░Τ ΉιΑΉηξΉγσ Έ│ΑΉΙα Ή┤ΙΆ╕░ΊβΦ
	int32_t Old_ValSum = 0;							// Old_Value Έ│ΑΉΙα Ή┤ΙΆ╕░ΊβΦ
    3b18:	41 2c       	mov	r4, r1
    3b1a:	51 2c       	mov	r5, r1
    3b1c:	32 01       	movw	r6, r4
}

//=================================================================================================
uint16_t Read_Load_Cell(uint8_t Number)						// ΈκεΈΥεΉΖΑ Ή╕κΉιΧΆ░Τ Ήζ╜Ά╕░
{
	int32_t Value = 0;							// Ή╕κΉιΧΆ░Τ ΉιΑΉηξΉγσ Έ│ΑΉΙα Ή┤ΙΆ╕░ΊβΦ
    3b1e:	c1 2c       	mov	r12, r1
    3b20:	d1 2c       	mov	r13, r1
    3b22:	76 01       	movw	r14, r12
		CELL.OFF_Set = CELL.OFF_Set_3;					// 3Έ▓Ι ΈκεΈΥεΉΖΑ OFF_Set
		IN_S_Value = IN_Weight_3;					// 3Έ▓Ι ΈκεΈΥεΉΖΑ ΉηΖΆ╡υΉ▓┤ΉνΣ
		CAPA = Cell_Capa_3 * 1000;
	}
//-------------------------------------------------------------------------------------------------
	if(Value > 0)								// Έυ┤Ά▓Ν Data Ά░Α ΉηΙΉε╝Έσ┤
    3b24:	1c 14       	cp	r1, r12
    3b26:	1d 04       	cpc	r1, r13
    3b28:	1e 04       	cpc	r1, r14
    3b2a:	1f 04       	cpc	r1, r15
    3b2c:	0c f0       	brlt	.+2      	; 0x3b30 <Read_Load_Cell+0x194>
    3b2e:	a4 c1       	rjmp	.+840    	; 0x3e78 <Read_Load_Cell+0x4dc>
	{
		ValSum = Value - CELL.OFF_Set;					// Έυ┤Ά▓Ν Data - OFF_Set
    3b30:	80 91 41 42 	lds	r24, 0x4241	; 0x804241 <CELL+0x30>
    3b34:	90 91 42 42 	lds	r25, 0x4242	; 0x804242 <CELL+0x31>
    3b38:	a0 91 43 42 	lds	r26, 0x4243	; 0x804243 <CELL+0x32>
    3b3c:	b0 91 44 42 	lds	r27, 0x4244	; 0x804244 <CELL+0x33>
    3b40:	a7 01       	movw	r20, r14
    3b42:	96 01       	movw	r18, r12
    3b44:	28 1b       	sub	r18, r24
    3b46:	39 0b       	sbc	r19, r25
    3b48:	4a 0b       	sbc	r20, r26
    3b4a:	5b 0b       	sbc	r21, r27
    3b4c:	ca 01       	movw	r24, r20
    3b4e:	b9 01       	movw	r22, r18
		ValSum = ValSum / 10;						// ΈΓχΉζΑ Data Ά░Τ ΉπΑΉγ░Ά╕░
    3b50:	2a e0       	ldi	r18, 0x0A	; 10
    3b52:	30 e0       	ldi	r19, 0x00	; 0
    3b54:	40 e0       	ldi	r20, 0x00	; 0
    3b56:	50 e0       	ldi	r21, 0x00	; 0
    3b58:	0e 94 1b 44 	call	0x8836	; 0x8836 <__divmodsi4>
		ValSum = ValSum * 10;						// ΈΓχΉζΑ Data Ά░Τ ΉπΑΉγ░Ά╕░
    3b5c:	da 01       	movw	r26, r20
    3b5e:	c9 01       	movw	r24, r18
    3b60:	88 0f       	add	r24, r24
    3b62:	99 1f       	adc	r25, r25
    3b64:	aa 1f       	adc	r26, r26
    3b66:	bb 1f       	adc	r27, r27
    3b68:	4c 01       	movw	r8, r24
    3b6a:	5d 01       	movw	r10, r26
    3b6c:	88 0c       	add	r8, r8
    3b6e:	99 1c       	adc	r9, r9
    3b70:	aa 1c       	adc	r10, r10
    3b72:	bb 1c       	adc	r11, r11
    3b74:	88 0c       	add	r8, r8
    3b76:	99 1c       	adc	r9, r9
    3b78:	aa 1c       	adc	r10, r10
    3b7a:	bb 1c       	adc	r11, r11
    3b7c:	88 0e       	add	r8, r24
    3b7e:	99 1e       	adc	r9, r25
    3b80:	aa 1e       	adc	r10, r26
    3b82:	bb 1e       	adc	r11, r27
    3b84:	75 01       	movw	r14, r10
    3b86:	64 01       	movw	r12, r8

		if(ValSum > 0)							// ValSum Ήζ┤ 0 Έ│┤ΈΜν ΉηΣΉε╝Έσ┤
    3b88:	18 14       	cp	r1, r8
    3b8a:	19 04       	cpc	r1, r9
    3b8c:	1a 04       	cpc	r1, r10
    3b8e:	1b 04       	cpc	r1, r11
    3b90:	0c f0       	brlt	.+2      	; 0x3b94 <Read_Load_Cell+0x1f8>
    3b92:	76 c0       	rjmp	.+236    	; 0x3c80 <Read_Load_Cell+0x2e4>
		{
			if(ValSum >= Old_ValSum)				// ValSum Ήζ┤ Old_ValSum Έ│┤ΈΜνΊΒυΆ▒░ΈΓα Ά░βΉε╝Έσ┤
    3b94:	84 14       	cp	r8, r4
    3b96:	95 04       	cpc	r9, r5
    3b98:	a6 04       	cpc	r10, r6
    3b9a:	b7 04       	cpc	r11, r7
    3b9c:	0c f4       	brge	.+2      	; 0x3ba0 <Read_Load_Cell+0x204>
    3b9e:	4f c0       	rjmp	.+158    	; 0x3c3e <Read_Load_Cell+0x2a2>
			{
				if(Number == 1) {Value_Count_1++; if(Value_Count_1 > Re_cnt_1) {CELL.OFF_Set_1 = CELL.OFF_Set + ValSum; Alarm();}}	// Value_Count_1 Έξ╝ ΉοζΆ░Α ΊΧαΆ│ι, Ή┤ΙΆ╕░ΊβΦ Ά░Τ Έ│┤ΈΜν Ή╗νΉπΑΈσ┤ Ή┤ΙΆ╕░ΊβΦ ΉπΕΊΨΚ
    3ba0:	3d 81       	ldd	r19, Y+5	; 0x05
    3ba2:	31 30       	cpi	r19, 0x01	; 1
    3ba4:	b9 f4       	brne	.+46     	; 0x3bd4 <Read_Load_Cell+0x238>
    3ba6:	80 91 6a 42 	lds	r24, 0x426A	; 0x80426a <Value_Count_1>
    3baa:	8f 5f       	subi	r24, 0xFF	; 255
    3bac:	80 93 6a 42 	sts	0x426A, r24	; 0x80426a <Value_Count_1>
    3bb0:	83 33       	cpi	r24, 0x33	; 51
    3bb2:	80 f0       	brcs	.+32     	; 0x3bd4 <Read_Load_Cell+0x238>
    3bb4:	e1 e1       	ldi	r30, 0x11	; 17
    3bb6:	f2 e4       	ldi	r31, 0x42	; 66
    3bb8:	80 a9       	ldd	r24, Z+48	; 0x30
    3bba:	91 a9       	ldd	r25, Z+49	; 0x31
    3bbc:	a2 a9       	ldd	r26, Z+50	; 0x32
    3bbe:	b3 a9       	ldd	r27, Z+51	; 0x33
    3bc0:	88 0d       	add	r24, r8
    3bc2:	99 1d       	adc	r25, r9
    3bc4:	aa 1d       	adc	r26, r10
    3bc6:	bb 1d       	adc	r27, r11
    3bc8:	84 ab       	std	Z+52, r24	; 0x34
    3bca:	95 ab       	std	Z+53, r25	; 0x35
    3bcc:	a6 ab       	std	Z+54, r26	; 0x36
    3bce:	b7 ab       	std	Z+55, r27	; 0x37
    3bd0:	0e 94 c0 08 	call	0x1180	; 0x1180 <Alarm>
				if(Number == 2) {Value_Count_2++; if(Value_Count_2 > Re_cnt_1) {CELL.OFF_Set_2 = CELL.OFF_Set + ValSum; Alarm();}}	// Value_Count_2 Έξ╝ ΉοζΆ░Α ΊΧαΆ│ι, Ή┤ΙΆ╕░ΊβΦ Ά░Τ Έ│┤ΈΜν Ή╗νΉπΑΈσ┤ Ή┤ΙΆ╕░ΊβΦ ΉπΕΊΨΚ
    3bd4:	4d 81       	ldd	r20, Y+5	; 0x05
    3bd6:	42 30       	cpi	r20, 0x02	; 2
    3bd8:	b9 f4       	brne	.+46     	; 0x3c08 <Read_Load_Cell+0x26c>
    3bda:	80 91 db 42 	lds	r24, 0x42DB	; 0x8042db <Value_Count_2>
    3bde:	8f 5f       	subi	r24, 0xFF	; 255
    3be0:	80 93 db 42 	sts	0x42DB, r24	; 0x8042db <Value_Count_2>
    3be4:	83 33       	cpi	r24, 0x33	; 51
    3be6:	80 f0       	brcs	.+32     	; 0x3c08 <Read_Load_Cell+0x26c>
    3be8:	e1 e1       	ldi	r30, 0x11	; 17
    3bea:	f2 e4       	ldi	r31, 0x42	; 66
    3bec:	80 a9       	ldd	r24, Z+48	; 0x30
    3bee:	91 a9       	ldd	r25, Z+49	; 0x31
    3bf0:	a2 a9       	ldd	r26, Z+50	; 0x32
    3bf2:	b3 a9       	ldd	r27, Z+51	; 0x33
    3bf4:	88 0d       	add	r24, r8
    3bf6:	99 1d       	adc	r25, r9
    3bf8:	aa 1d       	adc	r26, r10
    3bfa:	bb 1d       	adc	r27, r11
    3bfc:	80 af       	std	Z+56, r24	; 0x38
    3bfe:	91 af       	std	Z+57, r25	; 0x39
    3c00:	a2 af       	std	Z+58, r26	; 0x3a
    3c02:	b3 af       	std	Z+59, r27	; 0x3b
    3c04:	0e 94 c0 08 	call	0x1180	; 0x1180 <Alarm>
				if(Number == 3) {Value_Count_3++; if(Value_Count_3 > Re_cnt_1) {CELL.OFF_Set_3 = CELL.OFF_Set + ValSum; Alarm();}}	// Value_Count_3 Έξ╝ ΉοζΆ░Α ΊΧαΆ│ι, Ή┤ΙΆ╕░ΊβΦ Ά░Τ Έ│┤ΈΜν Ή╗νΉπΑΈσ┤ Ή┤ΙΆ╕░ΊβΦ ΉπΕΊΨΚ
    3c08:	5d 81       	ldd	r21, Y+5	; 0x05
    3c0a:	53 30       	cpi	r21, 0x03	; 3
    3c0c:	c9 f5       	brne	.+114    	; 0x3c80 <Read_Load_Cell+0x2e4>
    3c0e:	80 91 de 42 	lds	r24, 0x42DE	; 0x8042de <Value_Count_3>
    3c12:	8f 5f       	subi	r24, 0xFF	; 255
    3c14:	80 93 de 42 	sts	0x42DE, r24	; 0x8042de <Value_Count_3>
    3c18:	83 33       	cpi	r24, 0x33	; 51
    3c1a:	90 f1       	brcs	.+100    	; 0x3c80 <Read_Load_Cell+0x2e4>
    3c1c:	e1 e1       	ldi	r30, 0x11	; 17
    3c1e:	f2 e4       	ldi	r31, 0x42	; 66
    3c20:	80 a9       	ldd	r24, Z+48	; 0x30
    3c22:	91 a9       	ldd	r25, Z+49	; 0x31
    3c24:	a2 a9       	ldd	r26, Z+50	; 0x32
    3c26:	b3 a9       	ldd	r27, Z+51	; 0x33
    3c28:	88 0e       	add	r8, r24
    3c2a:	99 1e       	adc	r9, r25
    3c2c:	aa 1e       	adc	r10, r26
    3c2e:	bb 1e       	adc	r11, r27
    3c30:	84 ae       	std	Z+60, r8	; 0x3c
    3c32:	95 ae       	std	Z+61, r9	; 0x3d
    3c34:	a6 ae       	std	Z+62, r10	; 0x3e
    3c36:	b7 ae       	std	Z+63, r11	; 0x3f
    3c38:	0e 94 c0 08 	call	0x1180	; 0x1180 <Alarm>
    3c3c:	21 c0       	rjmp	.+66     	; 0x3c80 <Read_Load_Cell+0x2e4>
			}
			else
			{
				if(Number == 1) {CELL.Old_ValSum_1 = ValSum;}	// Old_ValSum_1 ΉζΕ ValSum Έκε ΉιΑΉηξ
    3c3e:	8d 81       	ldd	r24, Y+5	; 0x05
    3c40:	81 30       	cpi	r24, 0x01	; 1
    3c42:	41 f4       	brne	.+16     	; 0x3c54 <Read_Load_Cell+0x2b8>
    3c44:	80 92 35 42 	sts	0x4235, r8	; 0x804235 <CELL+0x24>
    3c48:	90 92 36 42 	sts	0x4236, r9	; 0x804236 <CELL+0x25>
    3c4c:	a0 92 37 42 	sts	0x4237, r10	; 0x804237 <CELL+0x26>
    3c50:	b0 92 38 42 	sts	0x4238, r11	; 0x804238 <CELL+0x27>
				if(Number == 2) {CELL.Old_ValSum_2 = ValSum;}	// Old_ValSum_2 ΉζΕ ValSum Έκε ΉιΑΉηξ
    3c54:	9d 81       	ldd	r25, Y+5	; 0x05
    3c56:	92 30       	cpi	r25, 0x02	; 2
    3c58:	41 f4       	brne	.+16     	; 0x3c6a <Read_Load_Cell+0x2ce>
    3c5a:	80 92 39 42 	sts	0x4239, r8	; 0x804239 <CELL+0x28>
    3c5e:	90 92 3a 42 	sts	0x423A, r9	; 0x80423a <CELL+0x29>
    3c62:	a0 92 3b 42 	sts	0x423B, r10	; 0x80423b <CELL+0x2a>
    3c66:	b0 92 3c 42 	sts	0x423C, r11	; 0x80423c <CELL+0x2b>
				if(Number == 3) {CELL.Old_ValSum_3 = ValSum;}	// Old_ValSum_3 ΉζΕ ValSum Έκε ΉιΑΉηξ
    3c6a:	ad 81       	ldd	r26, Y+5	; 0x05
    3c6c:	a3 30       	cpi	r26, 0x03	; 3
    3c6e:	41 f4       	brne	.+16     	; 0x3c80 <Read_Load_Cell+0x2e4>
    3c70:	80 92 3d 42 	sts	0x423D, r8	; 0x80423d <CELL+0x2c>
    3c74:	90 92 3e 42 	sts	0x423E, r9	; 0x80423e <CELL+0x2d>
    3c78:	a0 92 3f 42 	sts	0x423F, r10	; 0x80423f <CELL+0x2e>
    3c7c:	b0 92 40 42 	sts	0x4240, r11	; 0x804240 <CELL+0x2f>
			}
		}
		
		if(ValSum == 0)
    3c80:	c1 14       	cp	r12, r1
    3c82:	d1 04       	cpc	r13, r1
    3c84:	e1 04       	cpc	r14, r1
    3c86:	f1 04       	cpc	r15, r1
    3c88:	89 f4       	brne	.+34     	; 0x3cac <Read_Load_Cell+0x310>
		{
			if     (Number == 1) {Value_Count_1 = 0;}		// 1Έ▓Ι ΈκεΈΥεΉΖΑ Ήζ┤Έσ┤ Value_Count_1 Ή┤ΙΆ╕░ΊβΦ
    3c8a:	bd 81       	ldd	r27, Y+5	; 0x05
    3c8c:	b1 30       	cpi	r27, 0x01	; 1
    3c8e:	19 f4       	brne	.+6      	; 0x3c96 <Read_Load_Cell+0x2fa>
    3c90:	10 92 6a 42 	sts	0x426A, r1	; 0x80426a <Value_Count_1>
    3c94:	0b c0       	rjmp	.+22     	; 0x3cac <Read_Load_Cell+0x310>
			else if(Number == 2) {Value_Count_2 = 0;}		// 2Έ▓Ι ΈκεΈΥεΉΖΑ Ήζ┤Έσ┤ Value_Count_2 Ή┤ΙΆ╕░ΊβΦ
    3c96:	2d 81       	ldd	r18, Y+5	; 0x05
    3c98:	22 30       	cpi	r18, 0x02	; 2
    3c9a:	19 f4       	brne	.+6      	; 0x3ca2 <Read_Load_Cell+0x306>
    3c9c:	10 92 db 42 	sts	0x42DB, r1	; 0x8042db <Value_Count_2>
    3ca0:	05 c0       	rjmp	.+10     	; 0x3cac <Read_Load_Cell+0x310>
			else if(Number == 3) {Value_Count_3 = 0;}		// 3Έ▓Ι ΈκεΈΥεΉΖΑ Ήζ┤Έσ┤ Value_Count_3 Ή┤ΙΆ╕░ΊβΦ
    3ca2:	3d 81       	ldd	r19, Y+5	; 0x05
    3ca4:	33 30       	cpi	r19, 0x03	; 3
    3ca6:	11 f4       	brne	.+4      	; 0x3cac <Read_Load_Cell+0x310>
    3ca8:	10 92 de 42 	sts	0x42DE, r1	; 0x8042de <Value_Count_3>
		}
//-------------------------------------------------------------------------------------------------
		if(ValSum < 0 || ValSum > CAPA)					// ValSum Ήζ┤ 0 Έ│┤ΈΜν ΉηΣΆ▒░ΈΓα CAPA Έ│┤ΈΜν ΊΒυΈσ┤ Ή┤ΙΆ╕░ΊβΦ Ή╣┤Ήγ┤ΊΕ░
    3cac:	ff 20       	and	r15, r15
    3cae:	74 f0       	brlt	.+28     	; 0x3ccc <Read_Load_Cell+0x330>
    3cb0:	80 91 fa 41 	lds	r24, 0x41FA	; 0x8041fa <CAPA>
    3cb4:	90 91 fb 41 	lds	r25, 0x41FB	; 0x8041fb <CAPA+0x1>
    3cb8:	a0 91 fc 41 	lds	r26, 0x41FC	; 0x8041fc <CAPA+0x2>
    3cbc:	b0 91 fd 41 	lds	r27, 0x41FD	; 0x8041fd <CAPA+0x3>
    3cc0:	8c 15       	cp	r24, r12
    3cc2:	9d 05       	cpc	r25, r13
    3cc4:	ae 05       	cpc	r26, r14
    3cc6:	bf 05       	cpc	r27, r15
    3cc8:	08 f0       	brcs	.+2      	; 0x3ccc <Read_Load_Cell+0x330>
    3cca:	7e c0       	rjmp	.+252    	; 0x3dc8 <Read_Load_Cell+0x42c>
		{
			if     (Number == 1) {Value_Count_1++;}			// 1Έ▓Ι ΈκεΈΥεΉΖΑ Ήζ┤Έσ┤ Value_Count_1 ΉοζΆ░Α
    3ccc:	4d 81       	ldd	r20, Y+5	; 0x05
    3cce:	41 30       	cpi	r20, 0x01	; 1
    3cd0:	31 f4       	brne	.+12     	; 0x3cde <Read_Load_Cell+0x342>
    3cd2:	80 91 6a 42 	lds	r24, 0x426A	; 0x80426a <Value_Count_1>
    3cd6:	8f 5f       	subi	r24, 0xFF	; 255
    3cd8:	80 93 6a 42 	sts	0x426A, r24	; 0x80426a <Value_Count_1>
    3cdc:	11 c0       	rjmp	.+34     	; 0x3d00 <Read_Load_Cell+0x364>
			else if(Number == 2) {Value_Count_2++;}			// 2Έ▓Ι ΈκεΈΥεΉΖΑ Ήζ┤Έσ┤ Value_Count_2 ΉοζΆ░Α
    3cde:	5d 81       	ldd	r21, Y+5	; 0x05
    3ce0:	52 30       	cpi	r21, 0x02	; 2
    3ce2:	31 f4       	brne	.+12     	; 0x3cf0 <Read_Load_Cell+0x354>
    3ce4:	80 91 db 42 	lds	r24, 0x42DB	; 0x8042db <Value_Count_2>
    3ce8:	8f 5f       	subi	r24, 0xFF	; 255
    3cea:	80 93 db 42 	sts	0x42DB, r24	; 0x8042db <Value_Count_2>
    3cee:	08 c0       	rjmp	.+16     	; 0x3d00 <Read_Load_Cell+0x364>
			else if(Number == 3) {Value_Count_3++;}			// 3Έ▓Ι ΈκεΈΥεΉΖΑ Ήζ┤Έσ┤ Value_Count_3 ΉοζΆ░Α
    3cf0:	8d 81       	ldd	r24, Y+5	; 0x05
    3cf2:	83 30       	cpi	r24, 0x03	; 3
    3cf4:	29 f4       	brne	.+10     	; 0x3d00 <Read_Load_Cell+0x364>
    3cf6:	80 91 de 42 	lds	r24, 0x42DE	; 0x8042de <Value_Count_3>
    3cfa:	8f 5f       	subi	r24, 0xFF	; 255
    3cfc:	80 93 de 42 	sts	0x42DE, r24	; 0x8042de <Value_Count_3>

			if(Number == 1)
    3d00:	9d 81       	ldd	r25, Y+5	; 0x05
    3d02:	91 30       	cpi	r25, 0x01	; 1
    3d04:	f1 f4       	brne	.+60     	; 0x3d42 <Read_Load_Cell+0x3a6>
			{
				if(Value_Count_1 > 5)				// Value_Count_1 Ά░Α Ή┤ΙΆ╕░ΊβΦ Ά░Τ Έ│┤ΈΜν ΊΒυΈσ┤
    3d06:	80 91 6a 42 	lds	r24, 0x426A	; 0x80426a <Value_Count_1>
    3d0a:	86 30       	cpi	r24, 0x06	; 6
    3d0c:	48 f0       	brcs	.+18     	; 0x3d20 <Read_Load_Cell+0x384>
				{
					Cell_Zero_Set(Number);			// ΈκεΈΥεΉΖΑ 0 Ά░Τ Ή░╛Ά╕░
    3d0e:	89 2f       	mov	r24, r25
    3d10:	0e 94 0c 1c 	call	0x3818	; 0x3818 <Cell_Zero_Set>
					Value_Count_1 = 0;
    3d14:	10 92 6a 42 	sts	0x426A, r1	; 0x80426a <Value_Count_1>
				}
				else {CELL.OFF_Set_1 = CELL.OFF_Set -5;}	// OFF_Set - 5
				ValSum = 0;					// ValSum ΉζΕ 0Ήε╝Έκε Ή┤ΙΆ╕░ΊβΦ
    3d18:	c1 2c       	mov	r12, r1
    3d1a:	d1 2c       	mov	r13, r1
    3d1c:	76 01       	movw	r14, r12
    3d1e:	9e c0       	rjmp	.+316    	; 0x3e5c <Read_Load_Cell+0x4c0>
				if(Value_Count_1 > 5)				// Value_Count_1 Ά░Α Ή┤ΙΆ╕░ΊβΦ Ά░Τ Έ│┤ΈΜν ΊΒυΈσ┤
				{
					Cell_Zero_Set(Number);			// ΈκεΈΥεΉΖΑ 0 Ά░Τ Ή░╛Ά╕░
					Value_Count_1 = 0;
				}
				else {CELL.OFF_Set_1 = CELL.OFF_Set -5;}	// OFF_Set - 5
    3d20:	e1 e1       	ldi	r30, 0x11	; 17
    3d22:	f2 e4       	ldi	r31, 0x42	; 66
    3d24:	80 a9       	ldd	r24, Z+48	; 0x30
    3d26:	91 a9       	ldd	r25, Z+49	; 0x31
    3d28:	a2 a9       	ldd	r26, Z+50	; 0x32
    3d2a:	b3 a9       	ldd	r27, Z+51	; 0x33
    3d2c:	05 97       	sbiw	r24, 0x05	; 5
    3d2e:	a1 09       	sbc	r26, r1
    3d30:	b1 09       	sbc	r27, r1
    3d32:	84 ab       	std	Z+52, r24	; 0x34
    3d34:	95 ab       	std	Z+53, r25	; 0x35
    3d36:	a6 ab       	std	Z+54, r26	; 0x36
    3d38:	b7 ab       	std	Z+55, r27	; 0x37
				ValSum = 0;					// ValSum ΉζΕ 0Ήε╝Έκε Ή┤ΙΆ╕░ΊβΦ
    3d3a:	c1 2c       	mov	r12, r1
    3d3c:	d1 2c       	mov	r13, r1
    3d3e:	76 01       	movw	r14, r12
    3d40:	8d c0       	rjmp	.+282    	; 0x3e5c <Read_Load_Cell+0x4c0>
			}
			else if(Number == 2)
    3d42:	ad 81       	ldd	r26, Y+5	; 0x05
    3d44:	a2 30       	cpi	r26, 0x02	; 2
    3d46:	f1 f4       	brne	.+60     	; 0x3d84 <Read_Load_Cell+0x3e8>
			{
				if(Value_Count_2 > 5)				// Value_Count_2 Ά░Α Ή┤ΙΆ╕░ΊβΦ Ά░Τ Έ│┤ΈΜν ΊΒυΈσ┤
    3d48:	80 91 db 42 	lds	r24, 0x42DB	; 0x8042db <Value_Count_2>
    3d4c:	86 30       	cpi	r24, 0x06	; 6
    3d4e:	48 f0       	brcs	.+18     	; 0x3d62 <Read_Load_Cell+0x3c6>
				{
					Cell_Zero_Set(Number);			// ΈκεΈΥεΉΖΑ 0 Ά░Τ Ή░╛Ά╕░
    3d50:	8a 2f       	mov	r24, r26
    3d52:	0e 94 0c 1c 	call	0x3818	; 0x3818 <Cell_Zero_Set>
					Value_Count_1 = 0;
    3d56:	10 92 6a 42 	sts	0x426A, r1	; 0x80426a <Value_Count_1>
				}
				else {CELL.OFF_Set_2 = CELL.OFF_Set -5;}	// OFF_Set - 5
				ValSum = 0;					// ValSum ΉζΕ 0Ήε╝Έκε Ή┤ΙΆ╕░ΊβΦ
    3d5a:	c1 2c       	mov	r12, r1
    3d5c:	d1 2c       	mov	r13, r1
    3d5e:	76 01       	movw	r14, r12
    3d60:	7d c0       	rjmp	.+250    	; 0x3e5c <Read_Load_Cell+0x4c0>
				if(Value_Count_2 > 5)				// Value_Count_2 Ά░Α Ή┤ΙΆ╕░ΊβΦ Ά░Τ Έ│┤ΈΜν ΊΒυΈσ┤
				{
					Cell_Zero_Set(Number);			// ΈκεΈΥεΉΖΑ 0 Ά░Τ Ή░╛Ά╕░
					Value_Count_1 = 0;
				}
				else {CELL.OFF_Set_2 = CELL.OFF_Set -5;}	// OFF_Set - 5
    3d62:	e1 e1       	ldi	r30, 0x11	; 17
    3d64:	f2 e4       	ldi	r31, 0x42	; 66
    3d66:	80 a9       	ldd	r24, Z+48	; 0x30
    3d68:	91 a9       	ldd	r25, Z+49	; 0x31
    3d6a:	a2 a9       	ldd	r26, Z+50	; 0x32
    3d6c:	b3 a9       	ldd	r27, Z+51	; 0x33
    3d6e:	05 97       	sbiw	r24, 0x05	; 5
    3d70:	a1 09       	sbc	r26, r1
    3d72:	b1 09       	sbc	r27, r1
    3d74:	80 af       	std	Z+56, r24	; 0x38
    3d76:	91 af       	std	Z+57, r25	; 0x39
    3d78:	a2 af       	std	Z+58, r26	; 0x3a
    3d7a:	b3 af       	std	Z+59, r27	; 0x3b
				ValSum = 0;					// ValSum ΉζΕ 0Ήε╝Έκε Ή┤ΙΆ╕░ΊβΦ
    3d7c:	c1 2c       	mov	r12, r1
    3d7e:	d1 2c       	mov	r13, r1
    3d80:	76 01       	movw	r14, r12
    3d82:	6c c0       	rjmp	.+216    	; 0x3e5c <Read_Load_Cell+0x4c0>
			}
			else if(Number == 3)
    3d84:	bd 81       	ldd	r27, Y+5	; 0x05
    3d86:	b3 30       	cpi	r27, 0x03	; 3
    3d88:	09 f0       	breq	.+2      	; 0x3d8c <Read_Load_Cell+0x3f0>
    3d8a:	68 c0       	rjmp	.+208    	; 0x3e5c <Read_Load_Cell+0x4c0>
			{
				if(Value_Count_3 > 5)				// Value_Count_3 Ά░Α Ή┤ΙΆ╕░ΊβΦ Ά░Τ Έ│┤ΈΜν ΊΒυΈσ┤
    3d8c:	80 91 de 42 	lds	r24, 0x42DE	; 0x8042de <Value_Count_3>
    3d90:	86 30       	cpi	r24, 0x06	; 6
    3d92:	48 f0       	brcs	.+18     	; 0x3da6 <Read_Load_Cell+0x40a>
				{
					Cell_Zero_Set(Number);			// ΈκεΈΥεΉΖΑ 0 Ά░Τ Ή░╛Ά╕░
    3d94:	8b 2f       	mov	r24, r27
    3d96:	0e 94 0c 1c 	call	0x3818	; 0x3818 <Cell_Zero_Set>
					Value_Count_1 = 0;
    3d9a:	10 92 6a 42 	sts	0x426A, r1	; 0x80426a <Value_Count_1>
				}
				else {CELL.OFF_Set_3 = CELL.OFF_Set -5;}	// OFF_Set - 5
				ValSum = 0;					// ValSum ΉζΕ 0Ήε╝Έκε Ή┤ΙΆ╕░ΊβΦ
    3d9e:	c1 2c       	mov	r12, r1
    3da0:	d1 2c       	mov	r13, r1
    3da2:	76 01       	movw	r14, r12
    3da4:	5b c0       	rjmp	.+182    	; 0x3e5c <Read_Load_Cell+0x4c0>
				if(Value_Count_3 > 5)				// Value_Count_3 Ά░Α Ή┤ΙΆ╕░ΊβΦ Ά░Τ Έ│┤ΈΜν ΊΒυΈσ┤
				{
					Cell_Zero_Set(Number);			// ΈκεΈΥεΉΖΑ 0 Ά░Τ Ή░╛Ά╕░
					Value_Count_1 = 0;
				}
				else {CELL.OFF_Set_3 = CELL.OFF_Set -5;}	// OFF_Set - 5
    3da6:	e1 e1       	ldi	r30, 0x11	; 17
    3da8:	f2 e4       	ldi	r31, 0x42	; 66
    3daa:	80 a9       	ldd	r24, Z+48	; 0x30
    3dac:	91 a9       	ldd	r25, Z+49	; 0x31
    3dae:	a2 a9       	ldd	r26, Z+50	; 0x32
    3db0:	b3 a9       	ldd	r27, Z+51	; 0x33
    3db2:	05 97       	sbiw	r24, 0x05	; 5
    3db4:	a1 09       	sbc	r26, r1
    3db6:	b1 09       	sbc	r27, r1
    3db8:	84 af       	std	Z+60, r24	; 0x3c
    3dba:	95 af       	std	Z+61, r25	; 0x3d
    3dbc:	a6 af       	std	Z+62, r26	; 0x3e
    3dbe:	b7 af       	std	Z+63, r27	; 0x3f
				ValSum = 0;					// ValSum ΉζΕ 0Ήε╝Έκε Ή┤ΙΆ╕░ΊβΦ
    3dc0:	c1 2c       	mov	r12, r1
    3dc2:	d1 2c       	mov	r13, r1
    3dc4:	76 01       	movw	r14, r12
    3dc6:	4a c0       	rjmp	.+148    	; 0x3e5c <Read_Load_Cell+0x4c0>
			}
		}
		else if(ValSum > 0 && IN_S_Value > ValSum)			// ValSum Ήζ┤ 0 Έ│┤ΈΜν ΊΒυΆ│ι ΉηΖΆ╡υΉ▓┤ΉνΣ Έ│┤ΈΜν ΉηΣΉε╝Έσ┤
    3dc8:	1c 14       	cp	r1, r12
    3dca:	1d 04       	cpc	r1, r13
    3dcc:	1e 04       	cpc	r1, r14
    3dce:	1f 04       	cpc	r1, r15
    3dd0:	0c f0       	brlt	.+2      	; 0x3dd4 <Read_Load_Cell+0x438>
    3dd2:	44 c0       	rjmp	.+136    	; 0x3e5c <Read_Load_Cell+0x4c0>
    3dd4:	29 81       	ldd	r18, Y+1	; 0x01
    3dd6:	3a 81       	ldd	r19, Y+2	; 0x02
    3dd8:	4b 81       	ldd	r20, Y+3	; 0x03
    3dda:	5c 81       	ldd	r21, Y+4	; 0x04
    3ddc:	c2 16       	cp	r12, r18
    3dde:	d3 06       	cpc	r13, r19
    3de0:	e4 06       	cpc	r14, r20
    3de2:	f5 06       	cpc	r15, r21
    3de4:	dc f5       	brge	.+118    	; 0x3e5c <Read_Load_Cell+0x4c0>
		{
			if(Number == 1)
    3de6:	3d 81       	ldd	r19, Y+5	; 0x05
    3de8:	31 30       	cpi	r19, 0x01	; 1
    3dea:	89 f4       	brne	.+34     	; 0x3e0e <Read_Load_Cell+0x472>
			{
				CELL.OFF_Set_1 = CELL.OFF_Set + 5;		// OFF_Set + 5
    3dec:	e1 e1       	ldi	r30, 0x11	; 17
    3dee:	f2 e4       	ldi	r31, 0x42	; 66
    3df0:	80 a9       	ldd	r24, Z+48	; 0x30
    3df2:	91 a9       	ldd	r25, Z+49	; 0x31
    3df4:	a2 a9       	ldd	r26, Z+50	; 0x32
    3df6:	b3 a9       	ldd	r27, Z+51	; 0x33
    3df8:	05 96       	adiw	r24, 0x05	; 5
    3dfa:	a1 1d       	adc	r26, r1
    3dfc:	b1 1d       	adc	r27, r1
    3dfe:	84 ab       	std	Z+52, r24	; 0x34
    3e00:	95 ab       	std	Z+53, r25	; 0x35
    3e02:	a6 ab       	std	Z+54, r26	; 0x36
    3e04:	b7 ab       	std	Z+55, r27	; 0x37
				ValSum = 0;					// ValSum ΉζΕ 0Ήε╝Έκε Ή┤ΙΆ╕░ΊβΦ
    3e06:	c1 2c       	mov	r12, r1
    3e08:	d1 2c       	mov	r13, r1
    3e0a:	76 01       	movw	r14, r12
    3e0c:	27 c0       	rjmp	.+78     	; 0x3e5c <Read_Load_Cell+0x4c0>
			}
			else if(Number == 2)
    3e0e:	4d 81       	ldd	r20, Y+5	; 0x05
    3e10:	42 30       	cpi	r20, 0x02	; 2
    3e12:	89 f4       	brne	.+34     	; 0x3e36 <Read_Load_Cell+0x49a>
			{
				CELL.OFF_Set_2 = CELL.OFF_Set + 5;		// OFF_Set + 5
    3e14:	e1 e1       	ldi	r30, 0x11	; 17
    3e16:	f2 e4       	ldi	r31, 0x42	; 66
    3e18:	80 a9       	ldd	r24, Z+48	; 0x30
    3e1a:	91 a9       	ldd	r25, Z+49	; 0x31
    3e1c:	a2 a9       	ldd	r26, Z+50	; 0x32
    3e1e:	b3 a9       	ldd	r27, Z+51	; 0x33
    3e20:	05 96       	adiw	r24, 0x05	; 5
    3e22:	a1 1d       	adc	r26, r1
    3e24:	b1 1d       	adc	r27, r1
    3e26:	80 af       	std	Z+56, r24	; 0x38
    3e28:	91 af       	std	Z+57, r25	; 0x39
    3e2a:	a2 af       	std	Z+58, r26	; 0x3a
    3e2c:	b3 af       	std	Z+59, r27	; 0x3b
				ValSum = 0;					// ValSum ΉζΕ 0Ήε╝Έκε Ή┤ΙΆ╕░ΊβΦ
    3e2e:	c1 2c       	mov	r12, r1
    3e30:	d1 2c       	mov	r13, r1
    3e32:	76 01       	movw	r14, r12
    3e34:	13 c0       	rjmp	.+38     	; 0x3e5c <Read_Load_Cell+0x4c0>
			}
			else if(Number == 3)
    3e36:	5d 81       	ldd	r21, Y+5	; 0x05
    3e38:	53 30       	cpi	r21, 0x03	; 3
    3e3a:	81 f4       	brne	.+32     	; 0x3e5c <Read_Load_Cell+0x4c0>
			{
				CELL.OFF_Set_3 = CELL.OFF_Set + 5;		// OFF_Set + 5
    3e3c:	e1 e1       	ldi	r30, 0x11	; 17
    3e3e:	f2 e4       	ldi	r31, 0x42	; 66
    3e40:	80 a9       	ldd	r24, Z+48	; 0x30
    3e42:	91 a9       	ldd	r25, Z+49	; 0x31
    3e44:	a2 a9       	ldd	r26, Z+50	; 0x32
    3e46:	b3 a9       	ldd	r27, Z+51	; 0x33
    3e48:	05 96       	adiw	r24, 0x05	; 5
    3e4a:	a1 1d       	adc	r26, r1
    3e4c:	b1 1d       	adc	r27, r1
    3e4e:	84 af       	std	Z+60, r24	; 0x3c
    3e50:	95 af       	std	Z+61, r25	; 0x3d
    3e52:	a6 af       	std	Z+62, r26	; 0x3e
    3e54:	b7 af       	std	Z+63, r27	; 0x3f
				ValSum = 0;					// ValSum ΉζΕ 0Ήε╝Έκε Ή┤ΙΆ╕░ΊβΦ
    3e56:	c1 2c       	mov	r12, r1
    3e58:	d1 2c       	mov	r13, r1
    3e5a:	76 01       	movw	r14, r12
			}
		}

		if(ValSum > CAPA) {ValSum = 0;}					// ValSum Ήζ┤ CAPA(200Kg) Έ│┤ΈΜν ΊΒυΈσ┤
    3e5c:	80 91 fa 41 	lds	r24, 0x41FA	; 0x8041fa <CAPA>
    3e60:	90 91 fb 41 	lds	r25, 0x41FB	; 0x8041fb <CAPA+0x1>
    3e64:	a0 91 fc 41 	lds	r26, 0x41FC	; 0x8041fc <CAPA+0x2>
    3e68:	b0 91 fd 41 	lds	r27, 0x41FD	; 0x8041fd <CAPA+0x3>
    3e6c:	8c 15       	cp	r24, r12
    3e6e:	9d 05       	cpc	r25, r13
    3e70:	ae 05       	cpc	r26, r14
    3e72:	bf 05       	cpc	r27, r15
    3e74:	28 f0       	brcs	.+10     	; 0x3e80 <Read_Load_Cell+0x4e4>
    3e76:	07 c0       	rjmp	.+14     	; 0x3e86 <Read_Load_Cell+0x4ea>

//=================================================================================================
uint16_t Read_Load_Cell(uint8_t Number)						// ΈκεΈΥεΉΖΑ Ή╕κΉιΧΆ░Τ Ήζ╜Ά╕░
{
	int32_t Value = 0;							// Ή╕κΉιΧΆ░Τ ΉιΑΉηξΉγσ Έ│ΑΉΙα Ή┤ΙΆ╕░ΊβΦ
	int32_t ValSum = 0;							// OFF-Set Ά│ΕΉΓ░Ά░Τ ΉιΑΉηξΉγσ Έ│ΑΉΙα Ή┤ΙΆ╕░ΊβΦ
    3e78:	c1 2c       	mov	r12, r1
    3e7a:	d1 2c       	mov	r13, r1
    3e7c:	76 01       	movw	r14, r12
    3e7e:	03 c0       	rjmp	.+6      	; 0x3e86 <Read_Load_Cell+0x4ea>
				CELL.OFF_Set_3 = CELL.OFF_Set + 5;		// OFF_Set + 5
				ValSum = 0;					// ValSum ΉζΕ 0Ήε╝Έκε Ή┤ΙΆ╕░ΊβΦ
			}
		}

		if(ValSum > CAPA) {ValSum = 0;}					// ValSum Ήζ┤ CAPA(200Kg) Έ│┤ΈΜν ΊΒυΈσ┤
    3e80:	c1 2c       	mov	r12, r1
    3e82:	d1 2c       	mov	r13, r1
    3e84:	76 01       	movw	r14, r12
	}
	ValSum = ValSum / 10;							// ValSum Έξ╝ 10Ήε╝Έκε ΈΓαΈΙΦ
    3e86:	c7 01       	movw	r24, r14
    3e88:	b6 01       	movw	r22, r12
    3e8a:	2a e0       	ldi	r18, 0x0A	; 10
    3e8c:	30 e0       	ldi	r19, 0x00	; 0
    3e8e:	40 e0       	ldi	r20, 0x00	; 0
    3e90:	50 e0       	ldi	r21, 0x00	; 0
    3e92:	0e 94 1b 44 	call	0x8836	; 0x8836 <__divmodsi4>
// 
// 		if(ValSum > CAPA) {ValSum = 0;}					// ValSum Ήζ┤ CAPA(200Kg) Έ│┤ΈΜν ΊΒυΈσ┤
// 	}
// 	ValSum = ValSum / 10;							// ValSum Έξ╝ 10Ήε╝Έκε ΈΓαΈΙΦ
// 	return(ValSum);								// ΈουΊΕ┤ ValSum
}
    3e96:	c9 01       	movw	r24, r18
    3e98:	25 96       	adiw	r28, 0x05	; 5
    3e9a:	cd bf       	out	0x3d, r28	; 61
    3e9c:	de bf       	out	0x3e, r29	; 62
    3e9e:	df 91       	pop	r29
    3ea0:	cf 91       	pop	r28
    3ea2:	ff 90       	pop	r15
    3ea4:	ef 90       	pop	r14
    3ea6:	df 90       	pop	r13
    3ea8:	cf 90       	pop	r12
    3eaa:	bf 90       	pop	r11
    3eac:	af 90       	pop	r10
    3eae:	9f 90       	pop	r9
    3eb0:	8f 90       	pop	r8
    3eb2:	7f 90       	pop	r7
    3eb4:	6f 90       	pop	r6
    3eb6:	5f 90       	pop	r5
    3eb8:	4f 90       	pop	r4
    3eba:	08 95       	ret

00003ebc <IN_Scales_Set>:
	wdt_reset();								// Reset WDT
}

//=================================================================================================
void IN_Scales_Set(uint8_t Number)						// IN_Scales ΉΕνΉιΧ
{
    3ebc:	cf 93       	push	r28
    3ebe:	c8 2f       	mov	r28, r24
	DIGIT[2][0] = FND_OFF;							// ΈκεΈΥεΉΖΑ RO, ΉηΖΆ╡υΉ▓┤ΉνΣ 1Ήζα ΉηΡΈου ΉπΑΉγ░Ά╕░
    3ec0:	10 92 77 41 	sts	0x4177, r1	; 0x804177 <DIGIT+0x8>

	if     (Number == 1) {IN_S = ee_read_word(Cell_IN_S_1_Addr);}		// 1Έ▓Ι ΈκεΈΥεΉΖΑ Ήζ┤Έσ┤ ΉηΖΆ╡υΉ▓┤ΉνΣΆ░Τ Έ╢ΙΈθυΉανΆ╕░
    3ec4:	81 30       	cpi	r24, 0x01	; 1
    3ec6:	49 f4       	brne	.+18     	; 0x3eda <IN_Scales_Set+0x1e>
    3ec8:	80 e1       	ldi	r24, 0x10	; 16
    3eca:	90 e0       	ldi	r25, 0x00	; 0
    3ecc:	0e 94 54 13 	call	0x26a8	; 0x26a8 <ee_read_word>
    3ed0:	80 93 e1 43 	sts	0x43E1, r24	; 0x8043e1 <IN_S>
    3ed4:	90 93 e2 43 	sts	0x43E2, r25	; 0x8043e2 <IN_S+0x1>
    3ed8:	15 c0       	rjmp	.+42     	; 0x3f04 <IN_Scales_Set+0x48>
	else if(Number == 2) {IN_S = ee_read_word(Cell_IN_S_2_Addr);}		// 2Έ▓Ι ΈκεΈΥεΉΖΑ Ήζ┤Έσ┤ ΉηΖΆ╡υΉ▓┤ΉνΣΆ░Τ Έ╢ΙΈθυΉανΆ╕░
    3eda:	82 30       	cpi	r24, 0x02	; 2
    3edc:	49 f4       	brne	.+18     	; 0x3ef0 <IN_Scales_Set+0x34>
    3ede:	82 e1       	ldi	r24, 0x12	; 18
    3ee0:	90 e0       	ldi	r25, 0x00	; 0
    3ee2:	0e 94 54 13 	call	0x26a8	; 0x26a8 <ee_read_word>
    3ee6:	80 93 e1 43 	sts	0x43E1, r24	; 0x8043e1 <IN_S>
    3eea:	90 93 e2 43 	sts	0x43E2, r25	; 0x8043e2 <IN_S+0x1>
    3eee:	0a c0       	rjmp	.+20     	; 0x3f04 <IN_Scales_Set+0x48>
	else if(Number == 3) {IN_S = ee_read_word(Cell_IN_S_2_Addr);}		// 3Έ▓Ι ΈκεΈΥεΉΖΑ Ήζ┤Έσ┤ ΉηΖΆ╡υΉ▓┤ΉνΣΆ░Τ Έ╢ΙΈθυΉανΆ╕░
    3ef0:	83 30       	cpi	r24, 0x03	; 3
    3ef2:	41 f4       	brne	.+16     	; 0x3f04 <IN_Scales_Set+0x48>
    3ef4:	82 e1       	ldi	r24, 0x12	; 18
    3ef6:	90 e0       	ldi	r25, 0x00	; 0
    3ef8:	0e 94 54 13 	call	0x26a8	; 0x26a8 <ee_read_word>
    3efc:	80 93 e1 43 	sts	0x43E1, r24	; 0x8043e1 <IN_S>
    3f00:	90 93 e2 43 	sts	0x43E2, r25	; 0x8043e2 <IN_S+0x1>
//-------------------------------------------------------------------------------------------------
	IN_S_10000 = IN_S / 10000;						// ΈκεΈΥεΉΖΑ ΉηΖΆ╡υΉ▓┤ΉνΣ 10000Ήζα ΉηΡΈου
    3f04:	40 91 e1 43 	lds	r20, 0x43E1	; 0x8043e1 <IN_S>
    3f08:	50 91 e2 43 	lds	r21, 0x43E2	; 0x8043e2 <IN_S+0x1>
    3f0c:	9a 01       	movw	r18, r20
    3f0e:	32 95       	swap	r19
    3f10:	22 95       	swap	r18
    3f12:	2f 70       	andi	r18, 0x0F	; 15
    3f14:	23 27       	eor	r18, r19
    3f16:	3f 70       	andi	r19, 0x0F	; 15
    3f18:	23 27       	eor	r18, r19
    3f1a:	a7 e4       	ldi	r26, 0x47	; 71
    3f1c:	b3 e0       	ldi	r27, 0x03	; 3
    3f1e:	0e 94 43 44 	call	0x8886	; 0x8886 <__umulhisi3>
    3f22:	96 95       	lsr	r25
    3f24:	87 95       	ror	r24
    3f26:	96 95       	lsr	r25
    3f28:	87 95       	ror	r24
    3f2a:	96 95       	lsr	r25
    3f2c:	87 95       	ror	r24
    3f2e:	80 93 ff 41 	sts	0x41FF, r24	; 0x8041ff <IN_S_10000>
	IN_S_1000  = IN_S % 10000/ 1000;					// ΈκεΈΥεΉΖΑ ΉηΖΆ╡υΉ▓┤ΉνΣ  1000Ήζα ΉηΡΈου
    3f32:	60 e1       	ldi	r22, 0x10	; 16
    3f34:	77 e2       	ldi	r23, 0x27	; 39
    3f36:	86 9f       	mul	r24, r22
    3f38:	90 01       	movw	r18, r0
    3f3a:	87 9f       	mul	r24, r23
    3f3c:	30 0d       	add	r19, r0
    3f3e:	96 9f       	mul	r25, r22
    3f40:	30 0d       	add	r19, r0
    3f42:	11 24       	eor	r1, r1
    3f44:	ca 01       	movw	r24, r20
    3f46:	82 1b       	sub	r24, r18
    3f48:	93 0b       	sbc	r25, r19
    3f4a:	9c 01       	movw	r18, r24
    3f4c:	36 95       	lsr	r19
    3f4e:	27 95       	ror	r18
    3f50:	36 95       	lsr	r19
    3f52:	27 95       	ror	r18
    3f54:	36 95       	lsr	r19
    3f56:	27 95       	ror	r18
    3f58:	a5 ec       	ldi	r26, 0xC5	; 197
    3f5a:	b0 e2       	ldi	r27, 0x20	; 32
    3f5c:	0e 94 43 44 	call	0x8886	; 0x8886 <__umulhisi3>
    3f60:	92 95       	swap	r25
    3f62:	82 95       	swap	r24
    3f64:	8f 70       	andi	r24, 0x0F	; 15
    3f66:	89 27       	eor	r24, r25
    3f68:	9f 70       	andi	r25, 0x0F	; 15
    3f6a:	89 27       	eor	r24, r25
    3f6c:	80 93 d9 42 	sts	0x42D9, r24	; 0x8042d9 <IN_S_1000>
	IN_S_100   = IN_S % 1000 / 100;						// ΈκεΈΥεΉΖΑ ΉηΖΆ╡υΉ▓┤ΉνΣ   100Ήζα ΉηΡΈου
    3f70:	9a 01       	movw	r18, r20
    3f72:	36 95       	lsr	r19
    3f74:	27 95       	ror	r18
    3f76:	36 95       	lsr	r19
    3f78:	27 95       	ror	r18
    3f7a:	36 95       	lsr	r19
    3f7c:	27 95       	ror	r18
    3f7e:	0e 94 43 44 	call	0x8886	; 0x8886 <__umulhisi3>
    3f82:	92 95       	swap	r25
    3f84:	82 95       	swap	r24
    3f86:	8f 70       	andi	r24, 0x0F	; 15
    3f88:	89 27       	eor	r24, r25
    3f8a:	9f 70       	andi	r25, 0x0F	; 15
    3f8c:	89 27       	eor	r24, r25
    3f8e:	68 ee       	ldi	r22, 0xE8	; 232
    3f90:	73 e0       	ldi	r23, 0x03	; 3
    3f92:	86 9f       	mul	r24, r22
    3f94:	90 01       	movw	r18, r0
    3f96:	87 9f       	mul	r24, r23
    3f98:	30 0d       	add	r19, r0
    3f9a:	96 9f       	mul	r25, r22
    3f9c:	30 0d       	add	r19, r0
    3f9e:	11 24       	eor	r1, r1
    3fa0:	ca 01       	movw	r24, r20
    3fa2:	82 1b       	sub	r24, r18
    3fa4:	93 0b       	sbc	r25, r19
    3fa6:	9c 01       	movw	r18, r24
    3fa8:	36 95       	lsr	r19
    3faa:	27 95       	ror	r18
    3fac:	36 95       	lsr	r19
    3fae:	27 95       	ror	r18
    3fb0:	ab e7       	ldi	r26, 0x7B	; 123
    3fb2:	b4 e1       	ldi	r27, 0x14	; 20
    3fb4:	0e 94 43 44 	call	0x8886	; 0x8886 <__umulhisi3>
    3fb8:	96 95       	lsr	r25
    3fba:	87 95       	ror	r24
    3fbc:	80 93 00 42 	sts	0x4200, r24	; 0x804200 <IN_S_100>
	IN_S_10    = IN_S % 100 / 10;						// ΈκεΈΥεΉΖΑ ΉηΖΆ╡υΉ▓┤ΉνΣ    10Ήζα ΉηΡΈου
    3fc0:	9a 01       	movw	r18, r20
    3fc2:	36 95       	lsr	r19
    3fc4:	27 95       	ror	r18
    3fc6:	36 95       	lsr	r19
    3fc8:	27 95       	ror	r18
    3fca:	0e 94 43 44 	call	0x8886	; 0x8886 <__umulhisi3>
    3fce:	9c 01       	movw	r18, r24
    3fd0:	36 95       	lsr	r19
    3fd2:	27 95       	ror	r18
    3fd4:	64 e6       	ldi	r22, 0x64	; 100
    3fd6:	62 9f       	mul	r22, r18
    3fd8:	c0 01       	movw	r24, r0
    3fda:	63 9f       	mul	r22, r19
    3fdc:	90 0d       	add	r25, r0
    3fde:	11 24       	eor	r1, r1
    3fe0:	9a 01       	movw	r18, r20
    3fe2:	28 1b       	sub	r18, r24
    3fe4:	39 0b       	sbc	r19, r25
    3fe6:	ad ec       	ldi	r26, 0xCD	; 205
    3fe8:	bc ec       	ldi	r27, 0xCC	; 204
    3fea:	0e 94 43 44 	call	0x8886	; 0x8886 <__umulhisi3>
    3fee:	96 95       	lsr	r25
    3ff0:	87 95       	ror	r24
    3ff2:	96 95       	lsr	r25
    3ff4:	87 95       	ror	r24
    3ff6:	96 95       	lsr	r25
    3ff8:	87 95       	ror	r24
    3ffa:	80 93 da 41 	sts	0x41DA, r24	; 0x8041da <IN_S_10>
	IN_S_1     = IN_S % 10;							// ΈκεΈΥεΉΖΑ ΉηΖΆ╡υΉ▓┤ΉνΣ     1Ήζα ΉηΡΈου
    3ffe:	9a 01       	movw	r18, r20
    4000:	0e 94 43 44 	call	0x8886	; 0x8886 <__umulhisi3>
    4004:	96 95       	lsr	r25
    4006:	87 95       	ror	r24
    4008:	96 95       	lsr	r25
    400a:	87 95       	ror	r24
    400c:	96 95       	lsr	r25
    400e:	87 95       	ror	r24
    4010:	9c 01       	movw	r18, r24
    4012:	22 0f       	add	r18, r18
    4014:	33 1f       	adc	r19, r19
    4016:	88 0f       	add	r24, r24
    4018:	99 1f       	adc	r25, r25
    401a:	88 0f       	add	r24, r24
    401c:	99 1f       	adc	r25, r25
    401e:	88 0f       	add	r24, r24
    4020:	99 1f       	adc	r25, r25
    4022:	82 0f       	add	r24, r18
    4024:	93 1f       	adc	r25, r19
    4026:	9a 01       	movw	r18, r20
    4028:	28 1b       	sub	r18, r24
    402a:	39 0b       	sbc	r19, r25
    402c:	20 93 a0 42 	sts	0x42A0, r18	; 0x8042a0 <IN_S_1>
//-------------------------------------------------------------------------------------------------
	while(SET.Menu)								// ΈσΦΈΚ┤ΈςρΈΥε Ήζ┤Έσ┤ Έ░αΈ│╡
    4030:	3d c1       	rjmp	.+634    	; 0x42ac <__DATA_REGION_LENGTH__+0x2ac>
	{
		SET.Blink = 1;							// ΉηΡΈο┐ΉΙα Ά╣εΈ░ΧΉηΕ ΉΕνΉιΧ
    4032:	81 e0       	ldi	r24, 0x01	; 1
    4034:	80 93 07 42 	sts	0x4207, r24	; 0x804207 <SET+0x2>

		switch(KEY.Count)						// ΉΕιΊΔζ Key Ά░Α ΈΙΝΈο░ΊγθΉΙα
    4038:	80 91 80 42 	lds	r24, 0x4280	; 0x804280 <KEY>
    403c:	82 30       	cpi	r24, 0x02	; 2
    403e:	09 f4       	brne	.+2      	; 0x4042 <__DATA_REGION_LENGTH__+0x42>
    4040:	85 c0       	rjmp	.+266    	; 0x414c <__DATA_REGION_LENGTH__+0x14c>
    4042:	30 f4       	brcc	.+12     	; 0x4050 <__DATA_REGION_LENGTH__+0x50>
    4044:	88 23       	and	r24, r24
    4046:	69 f0       	breq	.+26     	; 0x4062 <__DATA_REGION_LENGTH__+0x62>
    4048:	81 30       	cpi	r24, 0x01	; 1
    404a:	09 f4       	brne	.+2      	; 0x404e <__DATA_REGION_LENGTH__+0x4e>
    404c:	44 c0       	rjmp	.+136    	; 0x40d6 <__DATA_REGION_LENGTH__+0xd6>
    404e:	2c c1       	rjmp	.+600    	; 0x42a8 <__DATA_REGION_LENGTH__+0x2a8>
    4050:	84 30       	cpi	r24, 0x04	; 4
    4052:	09 f4       	brne	.+2      	; 0x4056 <__DATA_REGION_LENGTH__+0x56>
    4054:	f0 c0       	rjmp	.+480    	; 0x4236 <__DATA_REGION_LENGTH__+0x236>
    4056:	08 f4       	brcc	.+2      	; 0x405a <__DATA_REGION_LENGTH__+0x5a>
    4058:	b4 c0       	rjmp	.+360    	; 0x41c2 <__DATA_REGION_LENGTH__+0x1c2>
    405a:	85 30       	cpi	r24, 0x05	; 5
    405c:	09 f4       	brne	.+2      	; 0x4060 <__DATA_REGION_LENGTH__+0x60>
    405e:	22 c1       	rjmp	.+580    	; 0x42a4 <__DATA_REGION_LENGTH__+0x2a4>
    4060:	23 c1       	rjmp	.+582    	; 0x42a8 <__DATA_REGION_LENGTH__+0x2a8>
		{
			case 0:							// ΈκεΈΥεΉΖΑ ΉηΖΆ╡υΉ▓┤ΉνΣ 10000Ήζα ΉηΡΈου
				DIGIT[2][3] = fnd_tbl[IN_S_1];			// ΈκεΈΥεΉΖΑ ΉηΖΆ╡υΉ▓┤ΉνΣ 1Ήζα ΉηΡΈου ΊΣεΉΜε
    4062:	e0 91 a0 42 	lds	r30, 0x42A0	; 0x8042a0 <IN_S_1>
    4066:	f0 e0       	ldi	r31, 0x00	; 0
    4068:	e5 5c       	subi	r30, 0xC5	; 197
    406a:	fe 4b       	sbci	r31, 0xBE	; 190
    406c:	80 81       	ld	r24, Z
    406e:	80 93 7a 41 	sts	0x417A, r24	; 0x80417a <DIGIT+0xb>
				if(Blink) {DIGIT[1][3] = FND_OFF;}		// Blink = 1 Ήζ┤Έσ┤ ΈκεΈΥεΉΖΑ ΉηΖΆ╡υΉ▓┤ΉνΣ 10000Ήζα ΉηΡΈου OFF
    4072:	80 91 b0 42 	lds	r24, 0x42B0	; 0x8042b0 <Blink>
    4076:	88 23       	and	r24, r24
    4078:	19 f0       	breq	.+6      	; 0x4080 <__DATA_REGION_LENGTH__+0x80>
    407a:	10 92 76 41 	sts	0x4176, r1	; 0x804176 <DIGIT+0x7>
    407e:	08 c0       	rjmp	.+16     	; 0x4090 <__DATA_REGION_LENGTH__+0x90>
				else	  {DIGIT[1][3] = fnd_tbl[IN_S_10000];}	// Blink = 0 Ήζ┤Έσ┤ ΈκεΈΥεΉΖΑ ΉηΖΆ╡υΉ▓┤ΉνΣ 10000Ήζα ΉηΡΈου ΊΣεΉΜε
    4080:	e0 91 ff 41 	lds	r30, 0x41FF	; 0x8041ff <IN_S_10000>
    4084:	f0 e0       	ldi	r31, 0x00	; 0
    4086:	e5 5c       	subi	r30, 0xC5	; 197
    4088:	fe 4b       	sbci	r31, 0xBE	; 190
    408a:	80 81       	ld	r24, Z
    408c:	80 93 76 41 	sts	0x4176, r24	; 0x804176 <DIGIT+0x7>

				if(KEY.Buff)					// Key ΉηΖΈιξΉζ┤ ΉηΙΉε╝Έσ┤
    4090:	80 91 81 42 	lds	r24, 0x4281	; 0x804281 <KEY+0x1>
    4094:	88 23       	and	r24, r24
    4096:	09 f4       	brne	.+2      	; 0x409a <__DATA_REGION_LENGTH__+0x9a>
    4098:	07 c1       	rjmp	.+526    	; 0x42a8 <__DATA_REGION_LENGTH__+0x2a8>
				{
					if     (KEY.Key == 1 && IN_S_10000 < 1) {IN_S_10000++; KEY.Key = 0;}	// ΉΩΖ  Έ▓ΕΊΛ╝ Ήζ┤Έσ┤ ΉηΖΆ╡υΉ▓┤ΉνΣ 10000Ήζα ΉηΡΈου ΉοζΆ░Α
    409a:	80 91 82 42 	lds	r24, 0x4282	; 0x804282 <KEY+0x2>
    409e:	81 30       	cpi	r24, 0x01	; 1
    40a0:	51 f4       	brne	.+20     	; 0x40b6 <__DATA_REGION_LENGTH__+0xb6>
    40a2:	80 91 ff 41 	lds	r24, 0x41FF	; 0x8041ff <IN_S_10000>
    40a6:	81 11       	cpse	r24, r1
    40a8:	06 c0       	rjmp	.+12     	; 0x40b6 <__DATA_REGION_LENGTH__+0xb6>
    40aa:	8f 5f       	subi	r24, 0xFF	; 255
    40ac:	80 93 ff 41 	sts	0x41FF, r24	; 0x8041ff <IN_S_10000>
    40b0:	10 92 82 42 	sts	0x4282, r1	; 0x804282 <KEY+0x2>
    40b4:	f9 c0       	rjmp	.+498    	; 0x42a8 <__DATA_REGION_LENGTH__+0x2a8>
					else if(KEY.Key == 3 && IN_S_10000 > 0) {IN_S_10000--; KEY.Key = 0;}	// ΈΜνΉγ┤Έ▓ΕΊΛ╝ Ήζ┤Έσ┤ ΉηΖΆ╡υΉ▓┤ΉνΣ 10000Ήζα ΉηΡΈου Ά░ΡΉΗΝ
    40b6:	80 91 82 42 	lds	r24, 0x4282	; 0x804282 <KEY+0x2>
    40ba:	83 30       	cpi	r24, 0x03	; 3
    40bc:	09 f0       	breq	.+2      	; 0x40c0 <__DATA_REGION_LENGTH__+0xc0>
    40be:	f4 c0       	rjmp	.+488    	; 0x42a8 <__DATA_REGION_LENGTH__+0x2a8>
    40c0:	80 91 ff 41 	lds	r24, 0x41FF	; 0x8041ff <IN_S_10000>
    40c4:	88 23       	and	r24, r24
    40c6:	09 f4       	brne	.+2      	; 0x40ca <__DATA_REGION_LENGTH__+0xca>
    40c8:	ef c0       	rjmp	.+478    	; 0x42a8 <__DATA_REGION_LENGTH__+0x2a8>
    40ca:	81 50       	subi	r24, 0x01	; 1
    40cc:	80 93 ff 41 	sts	0x41FF, r24	; 0x8041ff <IN_S_10000>
    40d0:	10 92 82 42 	sts	0x4282, r1	; 0x804282 <KEY+0x2>
    40d4:	e9 c0       	rjmp	.+466    	; 0x42a8 <__DATA_REGION_LENGTH__+0x2a8>
				}
			break;

			case 1:							// ΈκεΈΥεΉΖΑ ΉηΖΆ╡υΉ▓┤ΉνΣ 1000Ήζα ΉηΡΈου
				DIGIT[1][3] = fnd_tbl[IN_S_10000];		// ΈκεΈΥεΉΖΑ ΉηΖΆ╡υΉ▓┤ΉνΣ 10000Ήζα ΉηΡΈου ΊΣεΉΜε
    40d6:	e0 91 ff 41 	lds	r30, 0x41FF	; 0x8041ff <IN_S_10000>
    40da:	f0 e0       	ldi	r31, 0x00	; 0
    40dc:	e5 5c       	subi	r30, 0xC5	; 197
    40de:	fe 4b       	sbci	r31, 0xBE	; 190
    40e0:	80 81       	ld	r24, Z
    40e2:	80 93 76 41 	sts	0x4176, r24	; 0x804176 <DIGIT+0x7>
				if(Blink) {DIGIT[1][2] = FND_OFF;}			// Blink = 1 Ήζ┤Έσ┤ ΈκεΈΥεΉΖΑ ΉηΖΆ╡υΉ▓┤ΉνΣ 1000Ήζα ΉηΡΈου OFF
    40e6:	80 91 b0 42 	lds	r24, 0x42B0	; 0x8042b0 <Blink>
    40ea:	88 23       	and	r24, r24
    40ec:	19 f0       	breq	.+6      	; 0x40f4 <__DATA_REGION_LENGTH__+0xf4>
    40ee:	10 92 75 41 	sts	0x4175, r1	; 0x804175 <DIGIT+0x6>
    40f2:	09 c0       	rjmp	.+18     	; 0x4106 <__DATA_REGION_LENGTH__+0x106>
				else	  {DIGIT[1][2] = fnd_tbl[IN_S_1000]+FND_Point;}	// Blink = 0 Ήζ┤Έσ┤ ΈκεΈΥεΉΖΑ ΉηΖΆ╡υΉ▓┤ΉνΣ 1000Ήζα ΉηΡΈου ΊΣεΉΜε
    40f4:	e0 91 d9 42 	lds	r30, 0x42D9	; 0x8042d9 <IN_S_1000>
    40f8:	f0 e0       	ldi	r31, 0x00	; 0
    40fa:	e5 5c       	subi	r30, 0xC5	; 197
    40fc:	fe 4b       	sbci	r31, 0xBE	; 190
    40fe:	80 81       	ld	r24, Z
    4100:	8f 5f       	subi	r24, 0xFF	; 255
    4102:	80 93 75 41 	sts	0x4175, r24	; 0x804175 <DIGIT+0x6>

				if(KEY.Buff)					// Key ΉηΖΈιξΉζ┤ ΉηΙΉε╝Έσ┤
    4106:	80 91 81 42 	lds	r24, 0x4281	; 0x804281 <KEY+0x1>
    410a:	88 23       	and	r24, r24
    410c:	09 f4       	brne	.+2      	; 0x4110 <__DATA_REGION_LENGTH__+0x110>
    410e:	cc c0       	rjmp	.+408    	; 0x42a8 <__DATA_REGION_LENGTH__+0x2a8>
				{
					if     (KEY.Key == 1 && IN_S_1000 < 9) {IN_S_1000++; KEY.Key = 0;}	// ΉΩΖ  Έ▓ΕΊΛ╝ Ήζ┤Έσ┤ ΉηΖΆ╡υΉ▓┤ΉνΣ 1000Ήζα ΉηΡΈου ΉοζΆ░Α
    4110:	80 91 82 42 	lds	r24, 0x4282	; 0x804282 <KEY+0x2>
    4114:	81 30       	cpi	r24, 0x01	; 1
    4116:	51 f4       	brne	.+20     	; 0x412c <__DATA_REGION_LENGTH__+0x12c>
    4118:	80 91 d9 42 	lds	r24, 0x42D9	; 0x8042d9 <IN_S_1000>
    411c:	89 30       	cpi	r24, 0x09	; 9
    411e:	30 f4       	brcc	.+12     	; 0x412c <__DATA_REGION_LENGTH__+0x12c>
    4120:	8f 5f       	subi	r24, 0xFF	; 255
    4122:	80 93 d9 42 	sts	0x42D9, r24	; 0x8042d9 <IN_S_1000>
    4126:	10 92 82 42 	sts	0x4282, r1	; 0x804282 <KEY+0x2>
    412a:	be c0       	rjmp	.+380    	; 0x42a8 <__DATA_REGION_LENGTH__+0x2a8>
					else if(KEY.Key == 3 && IN_S_1000 > 0) {IN_S_1000--; KEY.Key = 0;}	// ΈΜνΉγ┤Έ▓ΕΊΛ╝ Ήζ┤Έσ┤ ΉηΖΆ╡υΉ▓┤ΉνΣ 1000Ήζα ΉηΡΈου Ά░ΡΉΗΝ
    412c:	80 91 82 42 	lds	r24, 0x4282	; 0x804282 <KEY+0x2>
    4130:	83 30       	cpi	r24, 0x03	; 3
    4132:	09 f0       	breq	.+2      	; 0x4136 <__DATA_REGION_LENGTH__+0x136>
    4134:	b9 c0       	rjmp	.+370    	; 0x42a8 <__DATA_REGION_LENGTH__+0x2a8>
    4136:	80 91 d9 42 	lds	r24, 0x42D9	; 0x8042d9 <IN_S_1000>
    413a:	88 23       	and	r24, r24
    413c:	09 f4       	brne	.+2      	; 0x4140 <__DATA_REGION_LENGTH__+0x140>
    413e:	b4 c0       	rjmp	.+360    	; 0x42a8 <__DATA_REGION_LENGTH__+0x2a8>
    4140:	81 50       	subi	r24, 0x01	; 1
    4142:	80 93 d9 42 	sts	0x42D9, r24	; 0x8042d9 <IN_S_1000>
    4146:	10 92 82 42 	sts	0x4282, r1	; 0x804282 <KEY+0x2>
    414a:	ae c0       	rjmp	.+348    	; 0x42a8 <__DATA_REGION_LENGTH__+0x2a8>
				}
			break;

			case 2:							// ΈκεΈΥεΉΖΑ ΉηΖΆ╡υΉ▓┤ΉνΣ 100Ήζα ΉηΡΈου
				DIGIT[1][2] = fnd_tbl[IN_S_1000]+FND_Point;	// ΈκεΈΥεΉΖΑ ΉηΖΆ╡υΉ▓┤ΉνΣ 1000Ήζα ΉηΡΈου ΊΣεΉΜε
    414c:	e0 91 d9 42 	lds	r30, 0x42D9	; 0x8042d9 <IN_S_1000>
    4150:	f0 e0       	ldi	r31, 0x00	; 0
    4152:	e5 5c       	subi	r30, 0xC5	; 197
    4154:	fe 4b       	sbci	r31, 0xBE	; 190
    4156:	80 81       	ld	r24, Z
    4158:	8f 5f       	subi	r24, 0xFF	; 255
    415a:	80 93 75 41 	sts	0x4175, r24	; 0x804175 <DIGIT+0x6>
				if(Blink) {DIGIT[1][1] = FND_OFF;}		// Blink = 1 Ήζ┤Έσ┤ ΈκεΈΥεΉΖΑ ΉηΖΆ╡υΉ▓┤ΉνΣ 100Ήζα ΉηΡΈου OFF
    415e:	80 91 b0 42 	lds	r24, 0x42B0	; 0x8042b0 <Blink>
    4162:	88 23       	and	r24, r24
    4164:	19 f0       	breq	.+6      	; 0x416c <__DATA_REGION_LENGTH__+0x16c>
    4166:	10 92 74 41 	sts	0x4174, r1	; 0x804174 <DIGIT+0x5>
    416a:	08 c0       	rjmp	.+16     	; 0x417c <__DATA_REGION_LENGTH__+0x17c>
				else	  {DIGIT[1][1] = fnd_tbl[IN_S_100];}	// Blink = 0 Ήζ┤Έσ┤ ΈκεΈΥεΉΖΑ ΉηΖΆ╡υΉ▓┤ΉνΣ 100Ήζα ΉηΡΈου ΊΣεΉΜε
    416c:	e0 91 00 42 	lds	r30, 0x4200	; 0x804200 <IN_S_100>
    4170:	f0 e0       	ldi	r31, 0x00	; 0
    4172:	e5 5c       	subi	r30, 0xC5	; 197
    4174:	fe 4b       	sbci	r31, 0xBE	; 190
    4176:	80 81       	ld	r24, Z
    4178:	80 93 74 41 	sts	0x4174, r24	; 0x804174 <DIGIT+0x5>

				if(KEY.Buff)					// Key ΉηΖΈιξΉζ┤ ΉηΙΉε╝Έσ┤
    417c:	80 91 81 42 	lds	r24, 0x4281	; 0x804281 <KEY+0x1>
    4180:	88 23       	and	r24, r24
    4182:	09 f4       	brne	.+2      	; 0x4186 <__DATA_REGION_LENGTH__+0x186>
    4184:	91 c0       	rjmp	.+290    	; 0x42a8 <__DATA_REGION_LENGTH__+0x2a8>
				{
					if     (KEY.Key == 1 && IN_S_100 < 9) {IN_S_100++; KEY.Key = 0;}	// ΉΩΖ  Έ▓ΕΊΛ╝ Ήζ┤Έσ┤ ΉηΖΆ╡υΉ▓┤ΉνΣ 100Ήζα ΉηΡΈου ΉοζΆ░Α
    4186:	80 91 82 42 	lds	r24, 0x4282	; 0x804282 <KEY+0x2>
    418a:	81 30       	cpi	r24, 0x01	; 1
    418c:	51 f4       	brne	.+20     	; 0x41a2 <__DATA_REGION_LENGTH__+0x1a2>
    418e:	80 91 00 42 	lds	r24, 0x4200	; 0x804200 <IN_S_100>
    4192:	89 30       	cpi	r24, 0x09	; 9
    4194:	30 f4       	brcc	.+12     	; 0x41a2 <__DATA_REGION_LENGTH__+0x1a2>
    4196:	8f 5f       	subi	r24, 0xFF	; 255
    4198:	80 93 00 42 	sts	0x4200, r24	; 0x804200 <IN_S_100>
    419c:	10 92 82 42 	sts	0x4282, r1	; 0x804282 <KEY+0x2>
    41a0:	83 c0       	rjmp	.+262    	; 0x42a8 <__DATA_REGION_LENGTH__+0x2a8>
					else if(KEY.Key == 3 && IN_S_100 > 0) {IN_S_100--; KEY.Key = 0;}	// ΈΜνΉγ┤Έ▓ΕΊΛ╝ Ήζ┤Έσ┤ ΉηΖΆ╡υΉ▓┤ΉνΣ 100Ήζα ΉηΡΈου Ά░ΡΉΗΝ
    41a2:	80 91 82 42 	lds	r24, 0x4282	; 0x804282 <KEY+0x2>
    41a6:	83 30       	cpi	r24, 0x03	; 3
    41a8:	09 f0       	breq	.+2      	; 0x41ac <__DATA_REGION_LENGTH__+0x1ac>
    41aa:	7e c0       	rjmp	.+252    	; 0x42a8 <__DATA_REGION_LENGTH__+0x2a8>
    41ac:	80 91 00 42 	lds	r24, 0x4200	; 0x804200 <IN_S_100>
    41b0:	88 23       	and	r24, r24
    41b2:	09 f4       	brne	.+2      	; 0x41b6 <__DATA_REGION_LENGTH__+0x1b6>
    41b4:	79 c0       	rjmp	.+242    	; 0x42a8 <__DATA_REGION_LENGTH__+0x2a8>
    41b6:	81 50       	subi	r24, 0x01	; 1
    41b8:	80 93 00 42 	sts	0x4200, r24	; 0x804200 <IN_S_100>
    41bc:	10 92 82 42 	sts	0x4282, r1	; 0x804282 <KEY+0x2>
    41c0:	73 c0       	rjmp	.+230    	; 0x42a8 <__DATA_REGION_LENGTH__+0x2a8>
				}
			break;

			case 3:							// ΈκεΈΥεΉΖΑ ΉηΖΆ╡υΉ▓┤ΉνΣ 10Ήζα ΉηΡΈου
				DIGIT[1][1] = fnd_tbl[IN_S_100];		// ΈκεΈΥεΉΖΑ ΉηΖΆ╡υΉ▓┤ΉνΣ 100Ήζα ΉηΡΈου ΊΣεΉΜε
    41c2:	e0 91 00 42 	lds	r30, 0x4200	; 0x804200 <IN_S_100>
    41c6:	f0 e0       	ldi	r31, 0x00	; 0
    41c8:	e5 5c       	subi	r30, 0xC5	; 197
    41ca:	fe 4b       	sbci	r31, 0xBE	; 190
    41cc:	80 81       	ld	r24, Z
    41ce:	80 93 74 41 	sts	0x4174, r24	; 0x804174 <DIGIT+0x5>
				if(Blink) {DIGIT[1][0] = FND_OFF;}		// Blink = 1 Ήζ┤Έσ┤ ΈκεΈΥεΉΖΑ ΉηΖΆ╡υΉ▓┤ΉνΣ 10Ήζα ΉηΡΈου OFF
    41d2:	80 91 b0 42 	lds	r24, 0x42B0	; 0x8042b0 <Blink>
    41d6:	88 23       	and	r24, r24
    41d8:	19 f0       	breq	.+6      	; 0x41e0 <__DATA_REGION_LENGTH__+0x1e0>
    41da:	10 92 73 41 	sts	0x4173, r1	; 0x804173 <DIGIT+0x4>
    41de:	08 c0       	rjmp	.+16     	; 0x41f0 <__DATA_REGION_LENGTH__+0x1f0>
				else	  {DIGIT[1][0] = fnd_tbl[IN_S_10];}	// Blink = 0 Ήζ┤Έσ┤ ΈκεΈΥεΉΖΑ ΉηΖΆ╡υΉ▓┤ΉνΣ 10Ήζα ΉηΡΈου ΊΣεΉΜε
    41e0:	e0 91 da 41 	lds	r30, 0x41DA	; 0x8041da <IN_S_10>
    41e4:	f0 e0       	ldi	r31, 0x00	; 0
    41e6:	e5 5c       	subi	r30, 0xC5	; 197
    41e8:	fe 4b       	sbci	r31, 0xBE	; 190
    41ea:	80 81       	ld	r24, Z
    41ec:	80 93 73 41 	sts	0x4173, r24	; 0x804173 <DIGIT+0x4>

				if(KEY.Buff)					// Key ΉηΖΈιξΉζ┤ ΉηΙΉε╝Έσ┤
    41f0:	80 91 81 42 	lds	r24, 0x4281	; 0x804281 <KEY+0x1>
    41f4:	88 23       	and	r24, r24
    41f6:	09 f4       	brne	.+2      	; 0x41fa <__DATA_REGION_LENGTH__+0x1fa>
    41f8:	57 c0       	rjmp	.+174    	; 0x42a8 <__DATA_REGION_LENGTH__+0x2a8>
				{
					if     (KEY.Key == 1 && IN_S_10 < 9) {IN_S_10++; KEY.Key = 0;}		// ΉΩΖ  Έ▓ΕΊΛ╝ Ήζ┤Έσ┤ ΉηΖΆ╡υΉ▓┤ΉνΣ 10Ήζα ΉηΡΈου ΉοζΆ░Α
    41fa:	80 91 82 42 	lds	r24, 0x4282	; 0x804282 <KEY+0x2>
    41fe:	81 30       	cpi	r24, 0x01	; 1
    4200:	51 f4       	brne	.+20     	; 0x4216 <__DATA_REGION_LENGTH__+0x216>
    4202:	80 91 da 41 	lds	r24, 0x41DA	; 0x8041da <IN_S_10>
    4206:	89 30       	cpi	r24, 0x09	; 9
    4208:	30 f4       	brcc	.+12     	; 0x4216 <__DATA_REGION_LENGTH__+0x216>
    420a:	8f 5f       	subi	r24, 0xFF	; 255
    420c:	80 93 da 41 	sts	0x41DA, r24	; 0x8041da <IN_S_10>
    4210:	10 92 82 42 	sts	0x4282, r1	; 0x804282 <KEY+0x2>
    4214:	49 c0       	rjmp	.+146    	; 0x42a8 <__DATA_REGION_LENGTH__+0x2a8>
					else if(KEY.Key == 3 && IN_S_10 > 0) {IN_S_10--; KEY.Key = 0;}		// ΈΜνΉγ┤Έ▓ΕΊΛ╝ Ήζ┤Έσ┤ ΉηΖΆ╡υΉ▓┤ΉνΣ 10Ήζα ΉηΡΈου Ά░ΡΉΗΝ
    4216:	80 91 82 42 	lds	r24, 0x4282	; 0x804282 <KEY+0x2>
    421a:	83 30       	cpi	r24, 0x03	; 3
    421c:	09 f0       	breq	.+2      	; 0x4220 <__DATA_REGION_LENGTH__+0x220>
    421e:	44 c0       	rjmp	.+136    	; 0x42a8 <__DATA_REGION_LENGTH__+0x2a8>
    4220:	80 91 da 41 	lds	r24, 0x41DA	; 0x8041da <IN_S_10>
    4224:	88 23       	and	r24, r24
    4226:	09 f4       	brne	.+2      	; 0x422a <__DATA_REGION_LENGTH__+0x22a>
    4228:	3f c0       	rjmp	.+126    	; 0x42a8 <__DATA_REGION_LENGTH__+0x2a8>
    422a:	81 50       	subi	r24, 0x01	; 1
    422c:	80 93 da 41 	sts	0x41DA, r24	; 0x8041da <IN_S_10>
    4230:	10 92 82 42 	sts	0x4282, r1	; 0x804282 <KEY+0x2>
    4234:	39 c0       	rjmp	.+114    	; 0x42a8 <__DATA_REGION_LENGTH__+0x2a8>
				}
			break;

			case 4:							// ΈκεΈΥεΉΖΑ ΉηΖΆ╡υΉ▓┤ΉνΣ 1Ήζα ΉηΡΈου
				DIGIT[1][0] = fnd_tbl[IN_S_10];			// ΈκεΈΥεΉΖΑ ΉηΖΆ╡υΉ▓┤ΉνΣ 10Ήζα ΉηΡΈου ΊΣεΉΜε
    4236:	e0 91 da 41 	lds	r30, 0x41DA	; 0x8041da <IN_S_10>
    423a:	f0 e0       	ldi	r31, 0x00	; 0
    423c:	e5 5c       	subi	r30, 0xC5	; 197
    423e:	fe 4b       	sbci	r31, 0xBE	; 190
    4240:	80 81       	ld	r24, Z
    4242:	80 93 73 41 	sts	0x4173, r24	; 0x804173 <DIGIT+0x4>
				if(Blink) {DIGIT[2][3] = FND_OFF;}		// Blink = 1 Ήζ┤Έσ┤ ΈκεΈΥεΉΖΑ ΉηΖΆ╡υΉ▓┤ΉνΣ 1Ήζα ΉηΡΈου OFF
    4246:	80 91 b0 42 	lds	r24, 0x42B0	; 0x8042b0 <Blink>
    424a:	88 23       	and	r24, r24
    424c:	19 f0       	breq	.+6      	; 0x4254 <__DATA_REGION_LENGTH__+0x254>
    424e:	10 92 7a 41 	sts	0x417A, r1	; 0x80417a <DIGIT+0xb>
    4252:	08 c0       	rjmp	.+16     	; 0x4264 <__DATA_REGION_LENGTH__+0x264>
				else	  {DIGIT[2][3] = fnd_tbl[IN_S_1];}	// Blink = 0 Ήζ┤Έσ┤ ΈκεΈΥεΉΖΑ ΉηΖΆ╡υΉ▓┤ΉνΣ 1Ήζα ΉηΡΈου ΊΣεΉΜε
    4254:	e0 91 a0 42 	lds	r30, 0x42A0	; 0x8042a0 <IN_S_1>
    4258:	f0 e0       	ldi	r31, 0x00	; 0
    425a:	e5 5c       	subi	r30, 0xC5	; 197
    425c:	fe 4b       	sbci	r31, 0xBE	; 190
    425e:	80 81       	ld	r24, Z
    4260:	80 93 7a 41 	sts	0x417A, r24	; 0x80417a <DIGIT+0xb>

				if(KEY.Buff)					// Key ΉηΖΈιξΉζ┤ ΉηΙΉε╝Έσ┤
    4264:	80 91 81 42 	lds	r24, 0x4281	; 0x804281 <KEY+0x1>
    4268:	88 23       	and	r24, r24
    426a:	f1 f0       	breq	.+60     	; 0x42a8 <__DATA_REGION_LENGTH__+0x2a8>
				{
					if     (KEY.Key == 1 && IN_S_1 < 9) {IN_S_1++; KEY.Key = 0;}		// ΉΩΖ  Έ▓ΕΊΛ╝ Ήζ┤Έσ┤ ΉηΖΆ╡υΉ▓┤ΉνΣ 1Ήζα ΉηΡΈου ΉοζΆ░Α
    426c:	80 91 82 42 	lds	r24, 0x4282	; 0x804282 <KEY+0x2>
    4270:	81 30       	cpi	r24, 0x01	; 1
    4272:	51 f4       	brne	.+20     	; 0x4288 <__DATA_REGION_LENGTH__+0x288>
    4274:	80 91 a0 42 	lds	r24, 0x42A0	; 0x8042a0 <IN_S_1>
    4278:	89 30       	cpi	r24, 0x09	; 9
    427a:	30 f4       	brcc	.+12     	; 0x4288 <__DATA_REGION_LENGTH__+0x288>
    427c:	8f 5f       	subi	r24, 0xFF	; 255
    427e:	80 93 a0 42 	sts	0x42A0, r24	; 0x8042a0 <IN_S_1>
    4282:	10 92 82 42 	sts	0x4282, r1	; 0x804282 <KEY+0x2>
    4286:	10 c0       	rjmp	.+32     	; 0x42a8 <__DATA_REGION_LENGTH__+0x2a8>
					else if(KEY.Key == 3 && IN_S_1 > 0) {IN_S_1--; KEY.Key = 0;}		// ΈΜνΉγ┤Έ▓ΕΊΛ╝ Ήζ┤Έσ┤ ΉηΖΆ╡υΉ▓┤ΉνΣ 1Ήζα ΉηΡΈου Ά░ΡΉΗΝ
    4288:	80 91 82 42 	lds	r24, 0x4282	; 0x804282 <KEY+0x2>
    428c:	83 30       	cpi	r24, 0x03	; 3
    428e:	61 f4       	brne	.+24     	; 0x42a8 <__DATA_REGION_LENGTH__+0x2a8>
    4290:	80 91 a0 42 	lds	r24, 0x42A0	; 0x8042a0 <IN_S_1>
    4294:	88 23       	and	r24, r24
    4296:	41 f0       	breq	.+16     	; 0x42a8 <__DATA_REGION_LENGTH__+0x2a8>
    4298:	81 50       	subi	r24, 0x01	; 1
    429a:	80 93 a0 42 	sts	0x42A0, r24	; 0x8042a0 <IN_S_1>
    429e:	10 92 82 42 	sts	0x4282, r1	; 0x804282 <KEY+0x2>
    42a2:	02 c0       	rjmp	.+4      	; 0x42a8 <__DATA_REGION_LENGTH__+0x2a8>
				}
			break;

			case 5:
				KEY.Count = 0;					// Έ░αΈ│╡ΉζΕ ΉεΕΊΧ┤ KEY.Count Έξ╝ Ή┤ΙΆ╕░ΊβΦ ΉΜεΊΓ┤
    42a4:	10 92 80 42 	sts	0x4280, r1	; 0x804280 <KEY>
			break;
		}
		wdt_reset();							// ΉδΝΉ╣αΈΠΖ ΈουΉΖΜ
    42a8:	0e 94 ef 0c 	call	0x19de	; 0x19de <wdt_reset>
	IN_S_1000  = IN_S % 10000/ 1000;					// ΈκεΈΥεΉΖΑ ΉηΖΆ╡υΉ▓┤ΉνΣ  1000Ήζα ΉηΡΈου
	IN_S_100   = IN_S % 1000 / 100;						// ΈκεΈΥεΉΖΑ ΉηΖΆ╡υΉ▓┤ΉνΣ   100Ήζα ΉηΡΈου
	IN_S_10    = IN_S % 100 / 10;						// ΈκεΈΥεΉΖΑ ΉηΖΆ╡υΉ▓┤ΉνΣ    10Ήζα ΉηΡΈου
	IN_S_1     = IN_S % 10;							// ΈκεΈΥεΉΖΑ ΉηΖΆ╡υΉ▓┤ΉνΣ     1Ήζα ΉηΡΈου
//-------------------------------------------------------------------------------------------------
	while(SET.Menu)								// ΈσΦΈΚ┤ΈςρΈΥε Ήζ┤Έσ┤ Έ░αΈ│╡
    42ac:	80 91 05 42 	lds	r24, 0x4205	; 0x804205 <SET>
    42b0:	81 11       	cpse	r24, r1
    42b2:	bf ce       	rjmp	.-642    	; 0x4032 <__DATA_REGION_LENGTH__+0x32>
		}
		wdt_reset();							// ΉδΝΉ╣αΈΠΖ ΈουΉΖΜ
	}
//-------------------------------------------------------------------------------------------------
	IN_S = 0;								// ΈκεΈΥεΉΖΑ ΉηΖΆ╡υΉ▓┤ΉνΣ Ή┤ΙΆ╕░ΊβΦ
	IN_S += (IN_S_10000 * 10000);						// ΈκεΈΥεΉΖΑ ΉηΖΆ╡υΉ▓┤ΉνΣ 10000Ήζα ΉηΡΈου
    42b4:	40 91 ff 41 	lds	r20, 0x41FF	; 0x8041ff <IN_S_10000>
    42b8:	20 e1       	ldi	r18, 0x10	; 16
    42ba:	37 e2       	ldi	r19, 0x27	; 39
    42bc:	42 9f       	mul	r20, r18
    42be:	c0 01       	movw	r24, r0
    42c0:	43 9f       	mul	r20, r19
    42c2:	90 0d       	add	r25, r0
    42c4:	11 24       	eor	r1, r1
	IN_S += (IN_S_1000  * 1000);						// ΈκεΈΥεΉΖΑ ΉηΖΆ╡υΉ▓┤ΉνΣ  1000Ήζα ΉηΡΈου
    42c6:	40 91 d9 42 	lds	r20, 0x42D9	; 0x8042d9 <IN_S_1000>
    42ca:	28 ee       	ldi	r18, 0xE8	; 232
    42cc:	33 e0       	ldi	r19, 0x03	; 3
    42ce:	42 9f       	mul	r20, r18
    42d0:	b0 01       	movw	r22, r0
    42d2:	43 9f       	mul	r20, r19
    42d4:	70 0d       	add	r23, r0
    42d6:	11 24       	eor	r1, r1
    42d8:	68 0f       	add	r22, r24
    42da:	79 1f       	adc	r23, r25
	IN_S += (IN_S_100   * 100);						// ΈκεΈΥεΉΖΑ ΉηΖΆ╡υΉ▓┤ΉνΣ   100Ήζα ΉηΡΈου
    42dc:	80 91 00 42 	lds	r24, 0x4200	; 0x804200 <IN_S_100>
    42e0:	9b 01       	movw	r18, r22
    42e2:	44 e6       	ldi	r20, 0x64	; 100
    42e4:	84 9f       	mul	r24, r20
    42e6:	20 0d       	add	r18, r0
    42e8:	31 1d       	adc	r19, r1
    42ea:	11 24       	eor	r1, r1
    42ec:	c9 01       	movw	r24, r18
	IN_S += (IN_S_10    * 10);						// ΈκεΈΥεΉΖΑ ΉηΖΆ╡υΉ▓┤ΉνΣ    10Ήζα ΉηΡΈου
    42ee:	20 91 da 41 	lds	r18, 0x41DA	; 0x8041da <IN_S_10>
    42f2:	30 e0       	ldi	r19, 0x00	; 0
    42f4:	b9 01       	movw	r22, r18
    42f6:	66 0f       	add	r22, r22
    42f8:	77 1f       	adc	r23, r23
    42fa:	22 0f       	add	r18, r18
    42fc:	33 1f       	adc	r19, r19
    42fe:	22 0f       	add	r18, r18
    4300:	33 1f       	adc	r19, r19
    4302:	22 0f       	add	r18, r18
    4304:	33 1f       	adc	r19, r19
    4306:	62 0f       	add	r22, r18
    4308:	73 1f       	adc	r23, r19
    430a:	68 0f       	add	r22, r24
    430c:	79 1f       	adc	r23, r25
	IN_S += (IN_S_1     * 1);						// ΈκεΈΥεΉΖΑ ΉηΖΆ╡υΉ▓┤ΉνΣ     1Ήζα ΉηΡΈου
    430e:	80 91 a0 42 	lds	r24, 0x42A0	; 0x8042a0 <IN_S_1>
    4312:	68 0f       	add	r22, r24
    4314:	71 1d       	adc	r23, r1
    4316:	60 93 e1 43 	sts	0x43E1, r22	; 0x8043e1 <IN_S>
    431a:	70 93 e2 43 	sts	0x43E2, r23	; 0x8043e2 <IN_S+0x1>
//-------------------------------------------------------------------------------------------------
	if     (Number == 1) {ee_write_word(Cell_IN_S_1_Addr, IN_S);}		// 1Έ▓Ι ΈκεΈΥεΉΖΑ Ήζ┤Έσ┤ ΉηΖΆ╡υΉ▓┤ΉνΣΆ░Τ ΉιΑΉηξ
    431e:	c1 30       	cpi	r28, 0x01	; 1
    4320:	29 f4       	brne	.+10     	; 0x432c <__DATA_REGION_LENGTH__+0x32c>
    4322:	80 e1       	ldi	r24, 0x10	; 16
    4324:	90 e0       	ldi	r25, 0x00	; 0
    4326:	0e 94 8f 13 	call	0x271e	; 0x271e <ee_write_word>
    432a:	0d c0       	rjmp	.+26     	; 0x4346 <__DATA_REGION_LENGTH__+0x346>
	else if(Number == 2) {ee_write_word(Cell_IN_S_2_Addr, IN_S);}		// 2Έ▓Ι ΈκεΈΥεΉΖΑ Ήζ┤Έσ┤ ΉηΖΆ╡υΉ▓┤ΉνΣΆ░Τ ΉιΑΉηξ
    432c:	c2 30       	cpi	r28, 0x02	; 2
    432e:	29 f4       	brne	.+10     	; 0x433a <__DATA_REGION_LENGTH__+0x33a>
    4330:	82 e1       	ldi	r24, 0x12	; 18
    4332:	90 e0       	ldi	r25, 0x00	; 0
    4334:	0e 94 8f 13 	call	0x271e	; 0x271e <ee_write_word>
    4338:	06 c0       	rjmp	.+12     	; 0x4346 <__DATA_REGION_LENGTH__+0x346>
	else if(Number == 3) {ee_write_word(Cell_IN_S_3_Addr, IN_S);}		// 3Έ▓Ι ΈκεΈΥεΉΖΑ Ήζ┤Έσ┤ ΉηΖΆ╡υΉ▓┤ΉνΣΆ░Τ ΉιΑΉηξ
    433a:	c3 30       	cpi	r28, 0x03	; 3
    433c:	21 f4       	brne	.+8      	; 0x4346 <__DATA_REGION_LENGTH__+0x346>
    433e:	84 e1       	ldi	r24, 0x14	; 20
    4340:	90 e0       	ldi	r25, 0x00	; 0
    4342:	0e 94 8f 13 	call	0x271e	; 0x271e <ee_write_word>

	SET.Menu = 1;								// Menu ΈςρΈΥε ΉειΉπΑ
    4346:	e5 e0       	ldi	r30, 0x05	; 5
    4348:	f2 e4       	ldi	r31, 0x42	; 66
    434a:	81 e0       	ldi	r24, 0x01	; 1
    434c:	80 83       	st	Z, r24
	SET.Select = 0;								// Select Έ▓ΕΊΛ╝ Ή┤ΙΆ╕░ΊβΦ
    434e:	11 82       	std	Z+1, r1	; 0x01
	SET.Blink = 0;								// ΉηΡΈο┐ΉΙα Ά╣εΈ░ΧΉηΕ Ή┤ΙΆ╕░ΊβΦ
    4350:	12 82       	std	Z+2, r1	; 0x02
	KEY.Count = 0;								// ΉΕιΊΔζ Key Ά░Α ΈΙΝΈο░ΊγθΉΙα Ή┤ΙΆ╕░ΊβΦ
    4352:	10 92 80 42 	sts	0x4280, r1	; 0x804280 <KEY>
}
    4356:	cf 91       	pop	r28
    4358:	08 95       	ret

0000435a <RO_Set>:

//=================================================================================================
void RO_Set(uint8_t Number)							// RO ΉΕνΉιΧ
{
    435a:	2f 92       	push	r2
    435c:	3f 92       	push	r3
    435e:	4f 92       	push	r4
    4360:	5f 92       	push	r5
    4362:	6f 92       	push	r6
    4364:	7f 92       	push	r7
    4366:	8f 92       	push	r8
    4368:	9f 92       	push	r9
    436a:	af 92       	push	r10
    436c:	bf 92       	push	r11
    436e:	cf 92       	push	r12
    4370:	df 92       	push	r13
    4372:	ef 92       	push	r14
    4374:	ff 92       	push	r15
    4376:	0f 93       	push	r16
    4378:	1f 93       	push	r17
    437a:	cf 93       	push	r28
    437c:	df 93       	push	r29
    437e:	cd b7       	in	r28, 0x3d	; 61
    4380:	de b7       	in	r29, 0x3e	; 62
    4382:	2d 97       	sbiw	r28, 0x0d	; 13
    4384:	cd bf       	out	0x3d, r28	; 61
    4386:	de bf       	out	0x3e, r29	; 62
    4388:	89 83       	std	Y+1, r24	; 0x01
	DIGIT[2][0] = FND_OFF;							// ΈκεΈΥεΉΖΑ RO, ΉηΖΆ╡υΉ▓┤ΉνΣ 1Ήζα ΉηΡΈου ΉπΑΉγ░Ά╕░
    438a:	10 92 77 41 	sts	0x4177, r1	; 0x804177 <DIGIT+0x8>

	if     (Number == 1) {RO = ee_read_dword(Cell_RO_1_Addr);}		// 1Έ▓Ι ΈκεΈΥεΉΖΑ Ήζ┤Έσ┤ ROΆ░Τ Έ╢ΙΈθυΉανΆ╕░
    438e:	81 30       	cpi	r24, 0x01	; 1
    4390:	11 f5       	brne	.+68     	; 0x43d6 <RO_Set+0x7c>
    4392:	86 e1       	ldi	r24, 0x16	; 22
    4394:	90 e0       	ldi	r25, 0x00	; 0
    4396:	0e 94 5f 13 	call	0x26be	; 0x26be <ee_read_dword>
    439a:	7b 01       	movw	r14, r22
    439c:	8c 01       	movw	r16, r24
    439e:	20 e0       	ldi	r18, 0x00	; 0
    43a0:	30 e0       	ldi	r19, 0x00	; 0
    43a2:	a9 01       	movw	r20, r18
    43a4:	6d 83       	std	Y+5, r22	; 0x05
    43a6:	fe 82       	std	Y+6, r15	; 0x06
    43a8:	0f 83       	std	Y+7, r16	; 0x07
    43aa:	18 87       	std	Y+8, r17	; 0x08
    43ac:	29 87       	std	Y+9, r18	; 0x09
    43ae:	3a 87       	std	Y+10, r19	; 0x0a
    43b0:	4b 87       	std	Y+11, r20	; 0x0b
    43b2:	5c 87       	std	Y+12, r21	; 0x0c
    43b4:	60 93 08 42 	sts	0x4208, r22	; 0x804208 <RO>
    43b8:	f0 92 09 42 	sts	0x4209, r15	; 0x804209 <RO+0x1>
    43bc:	00 93 0a 42 	sts	0x420A, r16	; 0x80420a <RO+0x2>
    43c0:	10 93 0b 42 	sts	0x420B, r17	; 0x80420b <RO+0x3>
    43c4:	10 92 0c 42 	sts	0x420C, r1	; 0x80420c <RO+0x4>
    43c8:	10 92 0d 42 	sts	0x420D, r1	; 0x80420d <RO+0x5>
    43cc:	10 92 0e 42 	sts	0x420E, r1	; 0x80420e <RO+0x6>
    43d0:	10 92 0f 42 	sts	0x420F, r1	; 0x80420f <RO+0x7>
    43d4:	49 c0       	rjmp	.+146    	; 0x4468 <RO_Set+0x10e>
	else if(Number == 2) {RO = ee_read_dword(Cell_RO_2_Addr);}		// 2Έ▓Ι ΈκεΈΥεΉΖΑ Ήζ┤Έσ┤ ROΆ░Τ Έ╢ΙΈθυΉανΆ╕░
    43d6:	09 81       	ldd	r16, Y+1	; 0x01
    43d8:	02 30       	cpi	r16, 0x02	; 2
    43da:	11 f5       	brne	.+68     	; 0x4420 <RO_Set+0xc6>
    43dc:	8a e1       	ldi	r24, 0x1A	; 26
    43de:	90 e0       	ldi	r25, 0x00	; 0
    43e0:	0e 94 5f 13 	call	0x26be	; 0x26be <ee_read_dword>
    43e4:	7b 01       	movw	r14, r22
    43e6:	8c 01       	movw	r16, r24
    43e8:	20 e0       	ldi	r18, 0x00	; 0
    43ea:	30 e0       	ldi	r19, 0x00	; 0
    43ec:	a9 01       	movw	r20, r18
    43ee:	6d 83       	std	Y+5, r22	; 0x05
    43f0:	fe 82       	std	Y+6, r15	; 0x06
    43f2:	0f 83       	std	Y+7, r16	; 0x07
    43f4:	18 87       	std	Y+8, r17	; 0x08
    43f6:	29 87       	std	Y+9, r18	; 0x09
    43f8:	3a 87       	std	Y+10, r19	; 0x0a
    43fa:	4b 87       	std	Y+11, r20	; 0x0b
    43fc:	5c 87       	std	Y+12, r21	; 0x0c
    43fe:	60 93 08 42 	sts	0x4208, r22	; 0x804208 <RO>
    4402:	f0 92 09 42 	sts	0x4209, r15	; 0x804209 <RO+0x1>
    4406:	00 93 0a 42 	sts	0x420A, r16	; 0x80420a <RO+0x2>
    440a:	10 93 0b 42 	sts	0x420B, r17	; 0x80420b <RO+0x3>
    440e:	10 92 0c 42 	sts	0x420C, r1	; 0x80420c <RO+0x4>
    4412:	10 92 0d 42 	sts	0x420D, r1	; 0x80420d <RO+0x5>
    4416:	10 92 0e 42 	sts	0x420E, r1	; 0x80420e <RO+0x6>
    441a:	10 92 0f 42 	sts	0x420F, r1	; 0x80420f <RO+0x7>
    441e:	24 c0       	rjmp	.+72     	; 0x4468 <RO_Set+0x10e>
	else if(Number == 3) {RO = ee_read_dword(Cell_RO_3_Addr);}		// 3Έ▓Ι ΈκεΈΥεΉΖΑ Ήζ┤Έσ┤ ROΆ░Τ Έ╢ΙΈθυΉανΆ╕░
    4420:	09 81       	ldd	r16, Y+1	; 0x01
    4422:	03 30       	cpi	r16, 0x03	; 3
    4424:	09 f5       	brne	.+66     	; 0x4468 <RO_Set+0x10e>
    4426:	8e e1       	ldi	r24, 0x1E	; 30
    4428:	90 e0       	ldi	r25, 0x00	; 0
    442a:	0e 94 5f 13 	call	0x26be	; 0x26be <ee_read_dword>
    442e:	7b 01       	movw	r14, r22
    4430:	8c 01       	movw	r16, r24
    4432:	20 e0       	ldi	r18, 0x00	; 0
    4434:	30 e0       	ldi	r19, 0x00	; 0
    4436:	a9 01       	movw	r20, r18
    4438:	6d 83       	std	Y+5, r22	; 0x05
    443a:	fe 82       	std	Y+6, r15	; 0x06
    443c:	0f 83       	std	Y+7, r16	; 0x07
    443e:	18 87       	std	Y+8, r17	; 0x08
    4440:	29 87       	std	Y+9, r18	; 0x09
    4442:	3a 87       	std	Y+10, r19	; 0x0a
    4444:	4b 87       	std	Y+11, r20	; 0x0b
    4446:	5c 87       	std	Y+12, r21	; 0x0c
    4448:	60 93 08 42 	sts	0x4208, r22	; 0x804208 <RO>
    444c:	f0 92 09 42 	sts	0x4209, r15	; 0x804209 <RO+0x1>
    4450:	00 93 0a 42 	sts	0x420A, r16	; 0x80420a <RO+0x2>
    4454:	10 93 0b 42 	sts	0x420B, r17	; 0x80420b <RO+0x3>
    4458:	10 92 0c 42 	sts	0x420C, r1	; 0x80420c <RO+0x4>
    445c:	10 92 0d 42 	sts	0x420D, r1	; 0x80420d <RO+0x5>
    4460:	10 92 0e 42 	sts	0x420E, r1	; 0x80420e <RO+0x6>
    4464:	10 92 0f 42 	sts	0x420F, r1	; 0x80420f <RO+0x7>
//-------------------------------------------------------------------------------------------------
	RO_10000 = RO / 10000;							// ΈκεΈΥεΉΖΑ RO 10000Ήζα ΉηΡΈου
    4468:	40 90 08 42 	lds	r4, 0x4208	; 0x804208 <RO>
    446c:	50 90 09 42 	lds	r5, 0x4209	; 0x804209 <RO+0x1>
    4470:	60 90 0a 42 	lds	r6, 0x420A	; 0x80420a <RO+0x2>
    4474:	70 90 0b 42 	lds	r7, 0x420B	; 0x80420b <RO+0x3>
    4478:	80 90 0c 42 	lds	r8, 0x420C	; 0x80420c <RO+0x4>
    447c:	90 90 0d 42 	lds	r9, 0x420D	; 0x80420d <RO+0x5>
    4480:	f0 90 0e 42 	lds	r15, 0x420E	; 0x80420e <RO+0x6>
    4484:	fb 82       	std	Y+3, r15	; 0x03
    4486:	00 91 0f 42 	lds	r16, 0x420F	; 0x80420f <RO+0x7>
    448a:	0a 83       	std	Y+2, r16	; 0x02
    448c:	68 94       	set
    448e:	aa 24       	eor	r10, r10
    4490:	a4 f8       	bld	r10, 4
    4492:	0f 2e       	mov	r0, r31
    4494:	f7 e2       	ldi	r31, 0x27	; 39
    4496:	bf 2e       	mov	r11, r31
    4498:	f0 2d       	mov	r31, r0
    449a:	c1 2c       	mov	r12, r1
    449c:	d1 2c       	mov	r13, r1
    449e:	e1 2c       	mov	r14, r1
    44a0:	f1 2c       	mov	r15, r1
    44a2:	00 e0       	ldi	r16, 0x00	; 0
    44a4:	10 e0       	ldi	r17, 0x00	; 0
    44a6:	24 2d       	mov	r18, r4
    44a8:	35 2d       	mov	r19, r5
    44aa:	46 2d       	mov	r20, r6
    44ac:	57 2d       	mov	r21, r7
    44ae:	68 2d       	mov	r22, r8
    44b0:	79 2d       	mov	r23, r9
    44b2:	8b 81       	ldd	r24, Y+3	; 0x03
    44b4:	9a 81       	ldd	r25, Y+2	; 0x02
    44b6:	0e 94 b8 44 	call	0x8970	; 0x8970 <__udivdi3>
    44ba:	20 93 90 42 	sts	0x4290, r18	; 0x804290 <RO_10000>
    44be:	30 93 91 42 	sts	0x4291, r19	; 0x804291 <RO_10000+0x1>
    44c2:	40 93 92 42 	sts	0x4292, r20	; 0x804292 <RO_10000+0x2>
    44c6:	50 93 93 42 	sts	0x4293, r21	; 0x804293 <RO_10000+0x3>
    44ca:	60 93 94 42 	sts	0x4294, r22	; 0x804294 <RO_10000+0x4>
    44ce:	70 93 95 42 	sts	0x4295, r23	; 0x804295 <RO_10000+0x5>
    44d2:	80 93 96 42 	sts	0x4296, r24	; 0x804296 <RO_10000+0x6>
    44d6:	90 93 97 42 	sts	0x4297, r25	; 0x804297 <RO_10000+0x7>
	RO_1000  = RO % 10000 / 1000;						// ΈκεΈΥεΉΖΑ RO  1000Ήζα ΉηΡΈου
    44da:	24 2d       	mov	r18, r4
    44dc:	35 2d       	mov	r19, r5
    44de:	46 2d       	mov	r20, r6
    44e0:	57 2d       	mov	r21, r7
    44e2:	68 2d       	mov	r22, r8
    44e4:	79 2d       	mov	r23, r9
    44e6:	8b 81       	ldd	r24, Y+3	; 0x03
    44e8:	9a 81       	ldd	r25, Y+2	; 0x02
    44ea:	0e 94 b6 44 	call	0x896c	; 0x896c <__umoddi3>
    44ee:	0f 2e       	mov	r0, r31
    44f0:	f8 ee       	ldi	r31, 0xE8	; 232
    44f2:	af 2e       	mov	r10, r31
    44f4:	f0 2d       	mov	r31, r0
    44f6:	0f 2e       	mov	r0, r31
    44f8:	f3 e0       	ldi	r31, 0x03	; 3
    44fa:	bf 2e       	mov	r11, r31
    44fc:	f0 2d       	mov	r31, r0
    44fe:	0e 94 b8 44 	call	0x8970	; 0x8970 <__udivdi3>
    4502:	20 93 e4 43 	sts	0x43E4, r18	; 0x8043e4 <RO_1000>
    4506:	30 93 e5 43 	sts	0x43E5, r19	; 0x8043e5 <RO_1000+0x1>
    450a:	40 93 e6 43 	sts	0x43E6, r20	; 0x8043e6 <RO_1000+0x2>
    450e:	50 93 e7 43 	sts	0x43E7, r21	; 0x8043e7 <RO_1000+0x3>
    4512:	60 93 e8 43 	sts	0x43E8, r22	; 0x8043e8 <RO_1000+0x4>
    4516:	70 93 e9 43 	sts	0x43E9, r23	; 0x8043e9 <RO_1000+0x5>
    451a:	80 93 ea 43 	sts	0x43EA, r24	; 0x8043ea <RO_1000+0x6>
    451e:	90 93 eb 43 	sts	0x43EB, r25	; 0x8043eb <RO_1000+0x7>
	RO_100   = RO % 1000 / 100;						// ΈκεΈΥεΉΖΑ RO   100Ήζα ΉηΡΈου
    4522:	24 2d       	mov	r18, r4
    4524:	35 2d       	mov	r19, r5
    4526:	46 2d       	mov	r20, r6
    4528:	57 2d       	mov	r21, r7
    452a:	68 2d       	mov	r22, r8
    452c:	79 2d       	mov	r23, r9
    452e:	8b 81       	ldd	r24, Y+3	; 0x03
    4530:	9a 81       	ldd	r25, Y+2	; 0x02
    4532:	0e 94 b6 44 	call	0x896c	; 0x896c <__umoddi3>
    4536:	0f 2e       	mov	r0, r31
    4538:	f4 e6       	ldi	r31, 0x64	; 100
    453a:	af 2e       	mov	r10, r31
    453c:	f0 2d       	mov	r31, r0
    453e:	b1 2c       	mov	r11, r1
    4540:	0e 94 b8 44 	call	0x8970	; 0x8970 <__udivdi3>
    4544:	20 93 a8 42 	sts	0x42A8, r18	; 0x8042a8 <RO_100>
    4548:	30 93 a9 42 	sts	0x42A9, r19	; 0x8042a9 <RO_100+0x1>
    454c:	40 93 aa 42 	sts	0x42AA, r20	; 0x8042aa <RO_100+0x2>
    4550:	50 93 ab 42 	sts	0x42AB, r21	; 0x8042ab <RO_100+0x3>
    4554:	60 93 ac 42 	sts	0x42AC, r22	; 0x8042ac <RO_100+0x4>
    4558:	70 93 ad 42 	sts	0x42AD, r23	; 0x8042ad <RO_100+0x5>
    455c:	80 93 ae 42 	sts	0x42AE, r24	; 0x8042ae <RO_100+0x6>
    4560:	90 93 af 42 	sts	0x42AF, r25	; 0x8042af <RO_100+0x7>
	RO_10    = RO % 100 / 10;						// ΈκεΈΥεΉΖΑ RO    10Ήζα ΉηΡΈου
    4564:	24 2d       	mov	r18, r4
    4566:	35 2d       	mov	r19, r5
    4568:	46 2d       	mov	r20, r6
    456a:	57 2d       	mov	r21, r7
    456c:	68 2d       	mov	r22, r8
    456e:	79 2d       	mov	r23, r9
    4570:	8b 81       	ldd	r24, Y+3	; 0x03
    4572:	9a 81       	ldd	r25, Y+2	; 0x02
    4574:	0e 94 b6 44 	call	0x896c	; 0x896c <__umoddi3>
    4578:	0f 2e       	mov	r0, r31
    457a:	fa e0       	ldi	r31, 0x0A	; 10
    457c:	af 2e       	mov	r10, r31
    457e:	f0 2d       	mov	r31, r0
    4580:	0e 94 b8 44 	call	0x8970	; 0x8970 <__udivdi3>
    4584:	20 93 73 42 	sts	0x4273, r18	; 0x804273 <RO_10>
    4588:	30 93 74 42 	sts	0x4274, r19	; 0x804274 <RO_10+0x1>
    458c:	40 93 75 42 	sts	0x4275, r20	; 0x804275 <RO_10+0x2>
    4590:	50 93 76 42 	sts	0x4276, r21	; 0x804276 <RO_10+0x3>
    4594:	60 93 77 42 	sts	0x4277, r22	; 0x804277 <RO_10+0x4>
    4598:	70 93 78 42 	sts	0x4278, r23	; 0x804278 <RO_10+0x5>
    459c:	80 93 79 42 	sts	0x4279, r24	; 0x804279 <RO_10+0x6>
    45a0:	90 93 7a 42 	sts	0x427A, r25	; 0x80427a <RO_10+0x7>
	RO_1     = RO % 10;							// ΈκεΈΥεΉΖΑ RO     1Ήζα ΉηΡΈου
    45a4:	24 2d       	mov	r18, r4
    45a6:	35 2d       	mov	r19, r5
    45a8:	46 2d       	mov	r20, r6
    45aa:	57 2d       	mov	r21, r7
    45ac:	68 2d       	mov	r22, r8
    45ae:	79 2d       	mov	r23, r9
    45b0:	8b 81       	ldd	r24, Y+3	; 0x03
    45b2:	9a 81       	ldd	r25, Y+2	; 0x02
    45b4:	0e 94 b6 44 	call	0x896c	; 0x896c <__umoddi3>
    45b8:	20 93 df 42 	sts	0x42DF, r18	; 0x8042df <RO_1>
    45bc:	30 93 e0 42 	sts	0x42E0, r19	; 0x8042e0 <RO_1+0x1>
    45c0:	40 93 e1 42 	sts	0x42E1, r20	; 0x8042e1 <RO_1+0x2>
    45c4:	50 93 e2 42 	sts	0x42E2, r21	; 0x8042e2 <RO_1+0x3>
    45c8:	60 93 e3 42 	sts	0x42E3, r22	; 0x8042e3 <RO_1+0x4>
    45cc:	70 93 e4 42 	sts	0x42E4, r23	; 0x8042e4 <RO_1+0x5>
    45d0:	80 93 e5 42 	sts	0x42E5, r24	; 0x8042e5 <RO_1+0x6>
    45d4:	90 93 e6 42 	sts	0x42E6, r25	; 0x8042e6 <RO_1+0x7>
//-------------------------------------------------------------------------------------------------
	while(SET.Menu)								// ΈσΦΈΚ┤Ά░Α 1 Ήζ┤Έσ┤ Έ░αΈ│╡
    45d8:	f2 c2       	rjmp	.+1508   	; 0x4bbe <RO_Set+0x864>
	{
		SET.Blink = 1;							// ΉηΡΈο┐ΉΙα Ά╣εΈ░ΧΉηΕ ΉΕνΉιΧ
    45da:	81 e0       	ldi	r24, 0x01	; 1
    45dc:	80 93 07 42 	sts	0x4207, r24	; 0x804207 <SET+0x2>

		switch(KEY.Count)						// ΉΕιΊΔζ Key Ά░Α ΈΙΝΈο░ΊγθΉΙα
    45e0:	80 91 80 42 	lds	r24, 0x4280	; 0x804280 <KEY>
    45e4:	82 30       	cpi	r24, 0x02	; 2
    45e6:	09 f4       	brne	.+2      	; 0x45ea <RO_Set+0x290>
    45e8:	35 c1       	rjmp	.+618    	; 0x4854 <RO_Set+0x4fa>
    45ea:	30 f4       	brcc	.+12     	; 0x45f8 <RO_Set+0x29e>
    45ec:	88 23       	and	r24, r24
    45ee:	69 f0       	breq	.+26     	; 0x460a <RO_Set+0x2b0>
    45f0:	81 30       	cpi	r24, 0x01	; 1
    45f2:	09 f4       	brne	.+2      	; 0x45f6 <RO_Set+0x29c>
    45f4:	9d c0       	rjmp	.+314    	; 0x4730 <RO_Set+0x3d6>
    45f6:	e1 c2       	rjmp	.+1474   	; 0x4bba <RO_Set+0x860>
    45f8:	84 30       	cpi	r24, 0x04	; 4
    45fa:	09 f4       	brne	.+2      	; 0x45fe <RO_Set+0x2a4>
    45fc:	4d c2       	rjmp	.+1178   	; 0x4a98 <RO_Set+0x73e>
    45fe:	08 f4       	brcc	.+2      	; 0x4602 <RO_Set+0x2a8>
    4600:	ba c1       	rjmp	.+884    	; 0x4976 <RO_Set+0x61c>
    4602:	85 30       	cpi	r24, 0x05	; 5
    4604:	09 f4       	brne	.+2      	; 0x4608 <RO_Set+0x2ae>
    4606:	d7 c2       	rjmp	.+1454   	; 0x4bb6 <RO_Set+0x85c>
    4608:	d8 c2       	rjmp	.+1456   	; 0x4bba <RO_Set+0x860>
		{
			case 0:							// ΈκεΈΥεΉΖΑ RO 10000Ήζα ΉηΡΈου
				DIGIT[2][3] = fnd_tbl[RO_1];			// ΈκεΈΥεΉΖΑ RO 1Ήζα ΉηΡΈου ΊΣεΉΜε
    460a:	e0 91 df 42 	lds	r30, 0x42DF	; 0x8042df <RO_1>
    460e:	f0 91 e0 42 	lds	r31, 0x42E0	; 0x8042e0 <RO_1+0x1>
    4612:	e5 5c       	subi	r30, 0xC5	; 197
    4614:	fe 4b       	sbci	r31, 0xBE	; 190
    4616:	80 81       	ld	r24, Z
    4618:	80 93 7a 41 	sts	0x417A, r24	; 0x80417a <DIGIT+0xb>
				if(Blink) {DIGIT[1][3] = FND_OFF;}				// Blink = 1 Ήζ┤Έσ┤ ΈκεΈΥεΉΖΑ RO 10000Ήζα ΉηΡΈου OFF
    461c:	80 91 b0 42 	lds	r24, 0x42B0	; 0x8042b0 <Blink>
    4620:	88 23       	and	r24, r24
    4622:	19 f0       	breq	.+6      	; 0x462a <RO_Set+0x2d0>
    4624:	10 92 76 41 	sts	0x4176, r1	; 0x804176 <DIGIT+0x7>
    4628:	0a c0       	rjmp	.+20     	; 0x463e <RO_Set+0x2e4>
				else	  {DIGIT[1][3] = fnd_tbl[RO_10000] + FND_Point;}	// Blink = 0 Ήζ┤Έσ┤ ΈκεΈΥεΉΖΑ RO 10000Ήζα ΉηΡΈου ΊΣεΉΜε
    462a:	e0 91 90 42 	lds	r30, 0x4290	; 0x804290 <RO_10000>
    462e:	f0 91 91 42 	lds	r31, 0x4291	; 0x804291 <RO_10000+0x1>
    4632:	e5 5c       	subi	r30, 0xC5	; 197
    4634:	fe 4b       	sbci	r31, 0xBE	; 190
    4636:	80 81       	ld	r24, Z
    4638:	8f 5f       	subi	r24, 0xFF	; 255
    463a:	80 93 76 41 	sts	0x4176, r24	; 0x804176 <DIGIT+0x7>

				if(KEY.Buff)					// Key ΉηΖΈιξΉζ┤ ΉηΙΉε╝Έσ┤
    463e:	80 91 81 42 	lds	r24, 0x4281	; 0x804281 <KEY+0x1>
    4642:	88 23       	and	r24, r24
    4644:	09 f4       	brne	.+2      	; 0x4648 <RO_Set+0x2ee>
    4646:	b9 c2       	rjmp	.+1394   	; 0x4bba <RO_Set+0x860>
				{
					if     (KEY.Key == 1 && RO_10000 < 8) {RO_10000++; KEY.Key = 0;}	// ΉΩΖ  Έ▓ΕΊΛ╝ Ήζ┤Έσ┤ ROΆ░Τ 10000Ήζα ΉηΡΈου ΉοζΆ░Α
    4648:	80 91 82 42 	lds	r24, 0x4282	; 0x804282 <KEY+0x2>
    464c:	81 30       	cpi	r24, 0x01	; 1
    464e:	a9 f5       	brne	.+106    	; 0x46ba <RO_Set+0x360>
    4650:	f0 90 90 42 	lds	r15, 0x4290	; 0x804290 <RO_10000>
    4654:	00 91 91 42 	lds	r16, 0x4291	; 0x804291 <RO_10000+0x1>
    4658:	10 91 92 42 	lds	r17, 0x4292	; 0x804292 <RO_10000+0x2>
    465c:	e0 90 93 42 	lds	r14, 0x4293	; 0x804293 <RO_10000+0x3>
    4660:	eb 82       	std	Y+3, r14	; 0x03
    4662:	e0 90 94 42 	lds	r14, 0x4294	; 0x804294 <RO_10000+0x4>
    4666:	ea 82       	std	Y+2, r14	; 0x02
    4668:	b0 91 95 42 	lds	r27, 0x4295	; 0x804295 <RO_10000+0x5>
    466c:	f0 91 96 42 	lds	r31, 0x4296	; 0x804296 <RO_10000+0x6>
    4670:	e0 91 97 42 	lds	r30, 0x4297	; 0x804297 <RO_10000+0x7>
    4674:	2f 2d       	mov	r18, r15
    4676:	30 2f       	mov	r19, r16
    4678:	41 2f       	mov	r20, r17
    467a:	5b 81       	ldd	r21, Y+3	; 0x03
    467c:	6e 2d       	mov	r22, r14
    467e:	7b 2f       	mov	r23, r27
    4680:	8f 2f       	mov	r24, r31
    4682:	9e 2f       	mov	r25, r30
    4684:	a7 e0       	ldi	r26, 0x07	; 7
    4686:	0e 94 4c 45 	call	0x8a98	; 0x8a98 <__cmpdi2_s8>
    468a:	09 f0       	breq	.+2      	; 0x468e <RO_Set+0x334>
    468c:	b0 f4       	brcc	.+44     	; 0x46ba <RO_Set+0x360>
    468e:	a1 e0       	ldi	r26, 0x01	; 1
    4690:	0e 94 37 45 	call	0x8a6e	; 0x8a6e <__adddi3_s8>
    4694:	20 93 90 42 	sts	0x4290, r18	; 0x804290 <RO_10000>
    4698:	30 93 91 42 	sts	0x4291, r19	; 0x804291 <RO_10000+0x1>
    469c:	40 93 92 42 	sts	0x4292, r20	; 0x804292 <RO_10000+0x2>
    46a0:	50 93 93 42 	sts	0x4293, r21	; 0x804293 <RO_10000+0x3>
    46a4:	60 93 94 42 	sts	0x4294, r22	; 0x804294 <RO_10000+0x4>
    46a8:	70 93 95 42 	sts	0x4295, r23	; 0x804295 <RO_10000+0x5>
    46ac:	80 93 96 42 	sts	0x4296, r24	; 0x804296 <RO_10000+0x6>
    46b0:	90 93 97 42 	sts	0x4297, r25	; 0x804297 <RO_10000+0x7>
    46b4:	10 92 82 42 	sts	0x4282, r1	; 0x804282 <KEY+0x2>
    46b8:	80 c2       	rjmp	.+1280   	; 0x4bba <RO_Set+0x860>
					else if(KEY.Key == 3 && RO_10000 > 1) {RO_10000--; KEY.Key = 0;}	// ΈΜνΉγ┤Έ▓ΕΊΛ╝ Ήζ┤Έσ┤ ROΆ░Τ 10000Ήζα ΉηΡΈου Ά░ΡΉΗΝ
    46ba:	80 91 82 42 	lds	r24, 0x4282	; 0x804282 <KEY+0x2>
    46be:	83 30       	cpi	r24, 0x03	; 3
    46c0:	09 f0       	breq	.+2      	; 0x46c4 <RO_Set+0x36a>
    46c2:	7b c2       	rjmp	.+1270   	; 0x4bba <RO_Set+0x860>
    46c4:	f0 90 90 42 	lds	r15, 0x4290	; 0x804290 <RO_10000>
    46c8:	00 91 91 42 	lds	r16, 0x4291	; 0x804291 <RO_10000+0x1>
    46cc:	10 91 92 42 	lds	r17, 0x4292	; 0x804292 <RO_10000+0x2>
    46d0:	e0 90 93 42 	lds	r14, 0x4293	; 0x804293 <RO_10000+0x3>
    46d4:	eb 82       	std	Y+3, r14	; 0x03
    46d6:	e0 90 94 42 	lds	r14, 0x4294	; 0x804294 <RO_10000+0x4>
    46da:	ea 82       	std	Y+2, r14	; 0x02
    46dc:	b0 91 95 42 	lds	r27, 0x4295	; 0x804295 <RO_10000+0x5>
    46e0:	f0 91 96 42 	lds	r31, 0x4296	; 0x804296 <RO_10000+0x6>
    46e4:	e0 91 97 42 	lds	r30, 0x4297	; 0x804297 <RO_10000+0x7>
    46e8:	2f 2d       	mov	r18, r15
    46ea:	30 2f       	mov	r19, r16
    46ec:	41 2f       	mov	r20, r17
    46ee:	5b 81       	ldd	r21, Y+3	; 0x03
    46f0:	6e 2d       	mov	r22, r14
    46f2:	7b 2f       	mov	r23, r27
    46f4:	8f 2f       	mov	r24, r31
    46f6:	9e 2f       	mov	r25, r30
    46f8:	a1 e0       	ldi	r26, 0x01	; 1
    46fa:	0e 94 4c 45 	call	0x8a98	; 0x8a98 <__cmpdi2_s8>
    46fe:	09 f0       	breq	.+2      	; 0x4702 <RO_Set+0x3a8>
    4700:	08 f4       	brcc	.+2      	; 0x4704 <RO_Set+0x3aa>
    4702:	5b c2       	rjmp	.+1206   	; 0x4bba <RO_Set+0x860>
    4704:	af ef       	ldi	r26, 0xFF	; 255
    4706:	0e 94 37 45 	call	0x8a6e	; 0x8a6e <__adddi3_s8>
    470a:	20 93 90 42 	sts	0x4290, r18	; 0x804290 <RO_10000>
    470e:	30 93 91 42 	sts	0x4291, r19	; 0x804291 <RO_10000+0x1>
    4712:	40 93 92 42 	sts	0x4292, r20	; 0x804292 <RO_10000+0x2>
    4716:	50 93 93 42 	sts	0x4293, r21	; 0x804293 <RO_10000+0x3>
    471a:	60 93 94 42 	sts	0x4294, r22	; 0x804294 <RO_10000+0x4>
    471e:	70 93 95 42 	sts	0x4295, r23	; 0x804295 <RO_10000+0x5>
    4722:	80 93 96 42 	sts	0x4296, r24	; 0x804296 <RO_10000+0x6>
    4726:	90 93 97 42 	sts	0x4297, r25	; 0x804297 <RO_10000+0x7>
    472a:	10 92 82 42 	sts	0x4282, r1	; 0x804282 <KEY+0x2>
    472e:	45 c2       	rjmp	.+1162   	; 0x4bba <RO_Set+0x860>
				}
			break;

			case 1:							// ΈκεΈΥεΉΖΑ RO 1000Ήζα ΉηΡΈου
				DIGIT[1][3] = fnd_tbl[RO_10000] + FND_Point;	// ΈκεΈΥεΉΖΑ RO 10000Ήζα ΉηΡΈου ΊΣεΉΜε
    4730:	e0 91 90 42 	lds	r30, 0x4290	; 0x804290 <RO_10000>
    4734:	f0 91 91 42 	lds	r31, 0x4291	; 0x804291 <RO_10000+0x1>
    4738:	e5 5c       	subi	r30, 0xC5	; 197
    473a:	fe 4b       	sbci	r31, 0xBE	; 190
    473c:	80 81       	ld	r24, Z
    473e:	8f 5f       	subi	r24, 0xFF	; 255
    4740:	80 93 76 41 	sts	0x4176, r24	; 0x804176 <DIGIT+0x7>
				if(Blink) {DIGIT[1][2] = FND_OFF;}		// Blink = 1 Ήζ┤Έσ┤ ΈκεΈΥεΉΖΑ RO 1000Ήζα ΉηΡΈου OFF
    4744:	80 91 b0 42 	lds	r24, 0x42B0	; 0x8042b0 <Blink>
    4748:	88 23       	and	r24, r24
    474a:	19 f0       	breq	.+6      	; 0x4752 <RO_Set+0x3f8>
    474c:	10 92 75 41 	sts	0x4175, r1	; 0x804175 <DIGIT+0x6>
    4750:	09 c0       	rjmp	.+18     	; 0x4764 <RO_Set+0x40a>
				else	  {DIGIT[1][2] = fnd_tbl[RO_1000];}	// Blink = 0 Ήζ┤Έσ┤ ΈκεΈΥεΉΖΑ RO 1000Ήζα ΉηΡΈου ΊΣεΉΜε
    4752:	e0 91 e4 43 	lds	r30, 0x43E4	; 0x8043e4 <RO_1000>
    4756:	f0 91 e5 43 	lds	r31, 0x43E5	; 0x8043e5 <RO_1000+0x1>
    475a:	e5 5c       	subi	r30, 0xC5	; 197
    475c:	fe 4b       	sbci	r31, 0xBE	; 190
    475e:	80 81       	ld	r24, Z
    4760:	80 93 75 41 	sts	0x4175, r24	; 0x804175 <DIGIT+0x6>

				if(KEY.Buff)					// Key ΉηΖΈιξΉζ┤ ΉηΙΉε╝Έσ┤
    4764:	80 91 81 42 	lds	r24, 0x4281	; 0x804281 <KEY+0x1>
    4768:	88 23       	and	r24, r24
    476a:	09 f4       	brne	.+2      	; 0x476e <RO_Set+0x414>
    476c:	26 c2       	rjmp	.+1100   	; 0x4bba <RO_Set+0x860>
				{
					if     (KEY.Key == 1 && RO_1000 < 9) {RO_1000++; KEY.Key = 0;}		// ΉΩΖ  Έ▓ΕΊΛ╝ Ήζ┤Έσ┤ ROΆ░Τ 1000Ήζα ΉηΡΈου ΉοζΆ░Α
    476e:	80 91 82 42 	lds	r24, 0x4282	; 0x804282 <KEY+0x2>
    4772:	81 30       	cpi	r24, 0x01	; 1
    4774:	a9 f5       	brne	.+106    	; 0x47e0 <RO_Set+0x486>
    4776:	f0 90 e4 43 	lds	r15, 0x43E4	; 0x8043e4 <RO_1000>
    477a:	00 91 e5 43 	lds	r16, 0x43E5	; 0x8043e5 <RO_1000+0x1>
    477e:	10 91 e6 43 	lds	r17, 0x43E6	; 0x8043e6 <RO_1000+0x2>
    4782:	e0 90 e7 43 	lds	r14, 0x43E7	; 0x8043e7 <RO_1000+0x3>
    4786:	eb 82       	std	Y+3, r14	; 0x03
    4788:	e0 90 e8 43 	lds	r14, 0x43E8	; 0x8043e8 <RO_1000+0x4>
    478c:	ea 82       	std	Y+2, r14	; 0x02
    478e:	b0 91 e9 43 	lds	r27, 0x43E9	; 0x8043e9 <RO_1000+0x5>
    4792:	f0 91 ea 43 	lds	r31, 0x43EA	; 0x8043ea <RO_1000+0x6>
    4796:	e0 91 eb 43 	lds	r30, 0x43EB	; 0x8043eb <RO_1000+0x7>
    479a:	2f 2d       	mov	r18, r15
    479c:	30 2f       	mov	r19, r16
    479e:	41 2f       	mov	r20, r17
    47a0:	5b 81       	ldd	r21, Y+3	; 0x03
    47a2:	6e 2d       	mov	r22, r14
    47a4:	7b 2f       	mov	r23, r27
    47a6:	8f 2f       	mov	r24, r31
    47a8:	9e 2f       	mov	r25, r30
    47aa:	a8 e0       	ldi	r26, 0x08	; 8
    47ac:	0e 94 4c 45 	call	0x8a98	; 0x8a98 <__cmpdi2_s8>
    47b0:	09 f0       	breq	.+2      	; 0x47b4 <RO_Set+0x45a>
    47b2:	b0 f4       	brcc	.+44     	; 0x47e0 <RO_Set+0x486>
    47b4:	a1 e0       	ldi	r26, 0x01	; 1
    47b6:	0e 94 37 45 	call	0x8a6e	; 0x8a6e <__adddi3_s8>
    47ba:	20 93 e4 43 	sts	0x43E4, r18	; 0x8043e4 <RO_1000>
    47be:	30 93 e5 43 	sts	0x43E5, r19	; 0x8043e5 <RO_1000+0x1>
    47c2:	40 93 e6 43 	sts	0x43E6, r20	; 0x8043e6 <RO_1000+0x2>
    47c6:	50 93 e7 43 	sts	0x43E7, r21	; 0x8043e7 <RO_1000+0x3>
    47ca:	60 93 e8 43 	sts	0x43E8, r22	; 0x8043e8 <RO_1000+0x4>
    47ce:	70 93 e9 43 	sts	0x43E9, r23	; 0x8043e9 <RO_1000+0x5>
    47d2:	80 93 ea 43 	sts	0x43EA, r24	; 0x8043ea <RO_1000+0x6>
    47d6:	90 93 eb 43 	sts	0x43EB, r25	; 0x8043eb <RO_1000+0x7>
    47da:	10 92 82 42 	sts	0x4282, r1	; 0x804282 <KEY+0x2>
    47de:	ed c1       	rjmp	.+986    	; 0x4bba <RO_Set+0x860>
					else if(KEY.Key == 3 && RO_1000 > 0) {RO_1000--; KEY.Key = 0;}		// ΈΜνΉγ┤Έ▓ΕΊΛ╝ Ήζ┤Έσ┤ ROΆ░Τ 1000Ήζα ΉηΡΈου Ά░ΡΉΗΝ
    47e0:	80 91 82 42 	lds	r24, 0x4282	; 0x804282 <KEY+0x2>
    47e4:	83 30       	cpi	r24, 0x03	; 3
    47e6:	09 f0       	breq	.+2      	; 0x47ea <RO_Set+0x490>
    47e8:	e8 c1       	rjmp	.+976    	; 0x4bba <RO_Set+0x860>
    47ea:	f0 90 e4 43 	lds	r15, 0x43E4	; 0x8043e4 <RO_1000>
    47ee:	00 91 e5 43 	lds	r16, 0x43E5	; 0x8043e5 <RO_1000+0x1>
    47f2:	10 91 e6 43 	lds	r17, 0x43E6	; 0x8043e6 <RO_1000+0x2>
    47f6:	e0 90 e7 43 	lds	r14, 0x43E7	; 0x8043e7 <RO_1000+0x3>
    47fa:	eb 82       	std	Y+3, r14	; 0x03
    47fc:	e0 90 e8 43 	lds	r14, 0x43E8	; 0x8043e8 <RO_1000+0x4>
    4800:	ea 82       	std	Y+2, r14	; 0x02
    4802:	b0 91 e9 43 	lds	r27, 0x43E9	; 0x8043e9 <RO_1000+0x5>
    4806:	f0 91 ea 43 	lds	r31, 0x43EA	; 0x8043ea <RO_1000+0x6>
    480a:	e0 91 eb 43 	lds	r30, 0x43EB	; 0x8043eb <RO_1000+0x7>
    480e:	2f 2d       	mov	r18, r15
    4810:	30 2f       	mov	r19, r16
    4812:	41 2f       	mov	r20, r17
    4814:	5b 81       	ldd	r21, Y+3	; 0x03
    4816:	6e 2d       	mov	r22, r14
    4818:	7b 2f       	mov	r23, r27
    481a:	8f 2f       	mov	r24, r31
    481c:	9e 2f       	mov	r25, r30
    481e:	a0 e0       	ldi	r26, 0x00	; 0
    4820:	0e 94 4c 45 	call	0x8a98	; 0x8a98 <__cmpdi2_s8>
    4824:	09 f4       	brne	.+2      	; 0x4828 <RO_Set+0x4ce>
    4826:	c9 c1       	rjmp	.+914    	; 0x4bba <RO_Set+0x860>
    4828:	af ef       	ldi	r26, 0xFF	; 255
    482a:	0e 94 37 45 	call	0x8a6e	; 0x8a6e <__adddi3_s8>
    482e:	20 93 e4 43 	sts	0x43E4, r18	; 0x8043e4 <RO_1000>
    4832:	30 93 e5 43 	sts	0x43E5, r19	; 0x8043e5 <RO_1000+0x1>
    4836:	40 93 e6 43 	sts	0x43E6, r20	; 0x8043e6 <RO_1000+0x2>
    483a:	50 93 e7 43 	sts	0x43E7, r21	; 0x8043e7 <RO_1000+0x3>
    483e:	60 93 e8 43 	sts	0x43E8, r22	; 0x8043e8 <RO_1000+0x4>
    4842:	70 93 e9 43 	sts	0x43E9, r23	; 0x8043e9 <RO_1000+0x5>
    4846:	80 93 ea 43 	sts	0x43EA, r24	; 0x8043ea <RO_1000+0x6>
    484a:	90 93 eb 43 	sts	0x43EB, r25	; 0x8043eb <RO_1000+0x7>
    484e:	10 92 82 42 	sts	0x4282, r1	; 0x804282 <KEY+0x2>
    4852:	b3 c1       	rjmp	.+870    	; 0x4bba <RO_Set+0x860>
				}
			break;

			case 2:							// ΈκεΈΥεΉΖΑ RO 100Ήζα ΉηΡΈου
				DIGIT[1][2] = fnd_tbl[RO_1000];			// ΈκεΈΥεΉΖΑ RO 1000Ήζα ΉηΡΈου ΊΣεΉΜε
    4854:	e0 91 e4 43 	lds	r30, 0x43E4	; 0x8043e4 <RO_1000>
    4858:	f0 91 e5 43 	lds	r31, 0x43E5	; 0x8043e5 <RO_1000+0x1>
    485c:	e5 5c       	subi	r30, 0xC5	; 197
    485e:	fe 4b       	sbci	r31, 0xBE	; 190
    4860:	80 81       	ld	r24, Z
    4862:	80 93 75 41 	sts	0x4175, r24	; 0x804175 <DIGIT+0x6>
				if(Blink) {DIGIT[1][1] = FND_OFF;}		// Blink = 1 Ήζ┤Έσ┤ ΈκεΈΥεΉΖΑ RO 100Ήζα ΉηΡΈου OFF
    4866:	80 91 b0 42 	lds	r24, 0x42B0	; 0x8042b0 <Blink>
    486a:	88 23       	and	r24, r24
    486c:	19 f0       	breq	.+6      	; 0x4874 <RO_Set+0x51a>
    486e:	10 92 74 41 	sts	0x4174, r1	; 0x804174 <DIGIT+0x5>
    4872:	09 c0       	rjmp	.+18     	; 0x4886 <RO_Set+0x52c>
				else	  {DIGIT[1][1] = fnd_tbl[RO_100];}	// Blink = 0 Ήζ┤Έσ┤ ΈκεΈΥεΉΖΑ RO 100Ήζα ΉηΡΈου ΊΣεΉΜε
    4874:	e0 91 a8 42 	lds	r30, 0x42A8	; 0x8042a8 <RO_100>
    4878:	f0 91 a9 42 	lds	r31, 0x42A9	; 0x8042a9 <RO_100+0x1>
    487c:	e5 5c       	subi	r30, 0xC5	; 197
    487e:	fe 4b       	sbci	r31, 0xBE	; 190
    4880:	80 81       	ld	r24, Z
    4882:	80 93 74 41 	sts	0x4174, r24	; 0x804174 <DIGIT+0x5>

				if(KEY.Buff)					// Key ΉηΖΈιξΉζ┤ ΉηΙΉε╝Έσ┤
    4886:	80 91 81 42 	lds	r24, 0x4281	; 0x804281 <KEY+0x1>
    488a:	88 23       	and	r24, r24
    488c:	09 f4       	brne	.+2      	; 0x4890 <RO_Set+0x536>
    488e:	95 c1       	rjmp	.+810    	; 0x4bba <RO_Set+0x860>
				{
					if     (KEY.Key == 1 && RO_100 < 9) {RO_100++; KEY.Key = 0;}		// ΉΩΖ  Έ▓ΕΊΛ╝ Ήζ┤Έσ┤ ROΆ░Τ 100Ήζα ΉηΡΈου ΉοζΆ░Α
    4890:	80 91 82 42 	lds	r24, 0x4282	; 0x804282 <KEY+0x2>
    4894:	81 30       	cpi	r24, 0x01	; 1
    4896:	a9 f5       	brne	.+106    	; 0x4902 <RO_Set+0x5a8>
    4898:	f0 90 a8 42 	lds	r15, 0x42A8	; 0x8042a8 <RO_100>
    489c:	00 91 a9 42 	lds	r16, 0x42A9	; 0x8042a9 <RO_100+0x1>
    48a0:	10 91 aa 42 	lds	r17, 0x42AA	; 0x8042aa <RO_100+0x2>
    48a4:	e0 90 ab 42 	lds	r14, 0x42AB	; 0x8042ab <RO_100+0x3>
    48a8:	eb 82       	std	Y+3, r14	; 0x03
    48aa:	e0 90 ac 42 	lds	r14, 0x42AC	; 0x8042ac <RO_100+0x4>
    48ae:	ea 82       	std	Y+2, r14	; 0x02
    48b0:	b0 91 ad 42 	lds	r27, 0x42AD	; 0x8042ad <RO_100+0x5>
    48b4:	f0 91 ae 42 	lds	r31, 0x42AE	; 0x8042ae <RO_100+0x6>
    48b8:	e0 91 af 42 	lds	r30, 0x42AF	; 0x8042af <RO_100+0x7>
    48bc:	2f 2d       	mov	r18, r15
    48be:	30 2f       	mov	r19, r16
    48c0:	41 2f       	mov	r20, r17
    48c2:	5b 81       	ldd	r21, Y+3	; 0x03
    48c4:	6e 2d       	mov	r22, r14
    48c6:	7b 2f       	mov	r23, r27
    48c8:	8f 2f       	mov	r24, r31
    48ca:	9e 2f       	mov	r25, r30
    48cc:	a8 e0       	ldi	r26, 0x08	; 8
    48ce:	0e 94 4c 45 	call	0x8a98	; 0x8a98 <__cmpdi2_s8>
    48d2:	09 f0       	breq	.+2      	; 0x48d6 <RO_Set+0x57c>
    48d4:	b0 f4       	brcc	.+44     	; 0x4902 <RO_Set+0x5a8>
    48d6:	a1 e0       	ldi	r26, 0x01	; 1
    48d8:	0e 94 37 45 	call	0x8a6e	; 0x8a6e <__adddi3_s8>
    48dc:	20 93 a8 42 	sts	0x42A8, r18	; 0x8042a8 <RO_100>
    48e0:	30 93 a9 42 	sts	0x42A9, r19	; 0x8042a9 <RO_100+0x1>
    48e4:	40 93 aa 42 	sts	0x42AA, r20	; 0x8042aa <RO_100+0x2>
    48e8:	50 93 ab 42 	sts	0x42AB, r21	; 0x8042ab <RO_100+0x3>
    48ec:	60 93 ac 42 	sts	0x42AC, r22	; 0x8042ac <RO_100+0x4>
    48f0:	70 93 ad 42 	sts	0x42AD, r23	; 0x8042ad <RO_100+0x5>
    48f4:	80 93 ae 42 	sts	0x42AE, r24	; 0x8042ae <RO_100+0x6>
    48f8:	90 93 af 42 	sts	0x42AF, r25	; 0x8042af <RO_100+0x7>
    48fc:	10 92 82 42 	sts	0x4282, r1	; 0x804282 <KEY+0x2>
    4900:	5c c1       	rjmp	.+696    	; 0x4bba <RO_Set+0x860>
					else if(KEY.Key == 3 && RO_100 > 0) {RO_100--; KEY.Key = 0;}		// ΈΜνΉγ┤Έ▓ΕΊΛ╝ Ήζ┤Έσ┤ ROΆ░Τ 100Ήζα ΉηΡΈου Ά░ΡΉΗΝ
    4902:	80 91 82 42 	lds	r24, 0x4282	; 0x804282 <KEY+0x2>
    4906:	83 30       	cpi	r24, 0x03	; 3
    4908:	09 f0       	breq	.+2      	; 0x490c <RO_Set+0x5b2>
    490a:	57 c1       	rjmp	.+686    	; 0x4bba <RO_Set+0x860>
    490c:	f0 90 a8 42 	lds	r15, 0x42A8	; 0x8042a8 <RO_100>
    4910:	00 91 a9 42 	lds	r16, 0x42A9	; 0x8042a9 <RO_100+0x1>
    4914:	10 91 aa 42 	lds	r17, 0x42AA	; 0x8042aa <RO_100+0x2>
    4918:	e0 90 ab 42 	lds	r14, 0x42AB	; 0x8042ab <RO_100+0x3>
    491c:	eb 82       	std	Y+3, r14	; 0x03
    491e:	e0 90 ac 42 	lds	r14, 0x42AC	; 0x8042ac <RO_100+0x4>
    4922:	ea 82       	std	Y+2, r14	; 0x02
    4924:	b0 91 ad 42 	lds	r27, 0x42AD	; 0x8042ad <RO_100+0x5>
    4928:	f0 91 ae 42 	lds	r31, 0x42AE	; 0x8042ae <RO_100+0x6>
    492c:	e0 91 af 42 	lds	r30, 0x42AF	; 0x8042af <RO_100+0x7>
    4930:	2f 2d       	mov	r18, r15
    4932:	30 2f       	mov	r19, r16
    4934:	41 2f       	mov	r20, r17
    4936:	5b 81       	ldd	r21, Y+3	; 0x03
    4938:	6e 2d       	mov	r22, r14
    493a:	7b 2f       	mov	r23, r27
    493c:	8f 2f       	mov	r24, r31
    493e:	9e 2f       	mov	r25, r30
    4940:	a0 e0       	ldi	r26, 0x00	; 0
    4942:	0e 94 4c 45 	call	0x8a98	; 0x8a98 <__cmpdi2_s8>
    4946:	09 f4       	brne	.+2      	; 0x494a <RO_Set+0x5f0>
    4948:	38 c1       	rjmp	.+624    	; 0x4bba <RO_Set+0x860>
    494a:	af ef       	ldi	r26, 0xFF	; 255
    494c:	0e 94 37 45 	call	0x8a6e	; 0x8a6e <__adddi3_s8>
    4950:	20 93 a8 42 	sts	0x42A8, r18	; 0x8042a8 <RO_100>
    4954:	30 93 a9 42 	sts	0x42A9, r19	; 0x8042a9 <RO_100+0x1>
    4958:	40 93 aa 42 	sts	0x42AA, r20	; 0x8042aa <RO_100+0x2>
    495c:	50 93 ab 42 	sts	0x42AB, r21	; 0x8042ab <RO_100+0x3>
    4960:	60 93 ac 42 	sts	0x42AC, r22	; 0x8042ac <RO_100+0x4>
    4964:	70 93 ad 42 	sts	0x42AD, r23	; 0x8042ad <RO_100+0x5>
    4968:	80 93 ae 42 	sts	0x42AE, r24	; 0x8042ae <RO_100+0x6>
    496c:	90 93 af 42 	sts	0x42AF, r25	; 0x8042af <RO_100+0x7>
    4970:	10 92 82 42 	sts	0x4282, r1	; 0x804282 <KEY+0x2>
    4974:	22 c1       	rjmp	.+580    	; 0x4bba <RO_Set+0x860>
				}
			break;

			case 3:							// ΈκεΈΥεΉΖΑ RO 10Ήζα ΉηΡΈου
				DIGIT[1][1] = fnd_tbl[RO_100];			// ΈκεΈΥεΉΖΑ RO 100Ήζα ΉηΡΈου ΊΣεΉΜε
    4976:	e0 91 a8 42 	lds	r30, 0x42A8	; 0x8042a8 <RO_100>
    497a:	f0 91 a9 42 	lds	r31, 0x42A9	; 0x8042a9 <RO_100+0x1>
    497e:	e5 5c       	subi	r30, 0xC5	; 197
    4980:	fe 4b       	sbci	r31, 0xBE	; 190
    4982:	80 81       	ld	r24, Z
    4984:	80 93 74 41 	sts	0x4174, r24	; 0x804174 <DIGIT+0x5>
				if(Blink) {DIGIT[1][0] = FND_OFF;}		// Blink = 1 Ήζ┤Έσ┤ ΈκεΈΥεΉΖΑ RO 10Ήζα ΉηΡΈου OFF
    4988:	80 91 b0 42 	lds	r24, 0x42B0	; 0x8042b0 <Blink>
    498c:	88 23       	and	r24, r24
    498e:	19 f0       	breq	.+6      	; 0x4996 <RO_Set+0x63c>
    4990:	10 92 73 41 	sts	0x4173, r1	; 0x804173 <DIGIT+0x4>
    4994:	09 c0       	rjmp	.+18     	; 0x49a8 <RO_Set+0x64e>
				else	  {DIGIT[1][0] = fnd_tbl[RO_10];}	// Blink = 0 Ήζ┤Έσ┤ ΈκεΈΥεΉΖΑ RO 10Ήζα ΉηΡΈου ΊΣεΉΜε
    4996:	e0 91 73 42 	lds	r30, 0x4273	; 0x804273 <RO_10>
    499a:	f0 91 74 42 	lds	r31, 0x4274	; 0x804274 <RO_10+0x1>
    499e:	e5 5c       	subi	r30, 0xC5	; 197
    49a0:	fe 4b       	sbci	r31, 0xBE	; 190
    49a2:	80 81       	ld	r24, Z
    49a4:	80 93 73 41 	sts	0x4173, r24	; 0x804173 <DIGIT+0x4>

				if(KEY.Buff)					// Key ΉηΖΈιξΉζ┤ ΉηΙΉε╝Έσ┤
    49a8:	80 91 81 42 	lds	r24, 0x4281	; 0x804281 <KEY+0x1>
    49ac:	88 23       	and	r24, r24
    49ae:	09 f4       	brne	.+2      	; 0x49b2 <RO_Set+0x658>
    49b0:	04 c1       	rjmp	.+520    	; 0x4bba <RO_Set+0x860>
				{
					if     (KEY.Key == 1 && RO_10 < 9) {RO_10++; KEY.Key = 0;}		// ΉΩΖ  Έ▓ΕΊΛ╝ Ήζ┤Έσ┤ ROΆ░Τ 10Ήζα ΉηΡΈου ΉοζΆ░Α
    49b2:	80 91 82 42 	lds	r24, 0x4282	; 0x804282 <KEY+0x2>
    49b6:	81 30       	cpi	r24, 0x01	; 1
    49b8:	a9 f5       	brne	.+106    	; 0x4a24 <RO_Set+0x6ca>
    49ba:	f0 90 73 42 	lds	r15, 0x4273	; 0x804273 <RO_10>
    49be:	00 91 74 42 	lds	r16, 0x4274	; 0x804274 <RO_10+0x1>
    49c2:	10 91 75 42 	lds	r17, 0x4275	; 0x804275 <RO_10+0x2>
    49c6:	e0 90 76 42 	lds	r14, 0x4276	; 0x804276 <RO_10+0x3>
    49ca:	eb 82       	std	Y+3, r14	; 0x03
    49cc:	e0 90 77 42 	lds	r14, 0x4277	; 0x804277 <RO_10+0x4>
    49d0:	ea 82       	std	Y+2, r14	; 0x02
    49d2:	b0 91 78 42 	lds	r27, 0x4278	; 0x804278 <RO_10+0x5>
    49d6:	f0 91 79 42 	lds	r31, 0x4279	; 0x804279 <RO_10+0x6>
    49da:	e0 91 7a 42 	lds	r30, 0x427A	; 0x80427a <RO_10+0x7>
    49de:	2f 2d       	mov	r18, r15
    49e0:	30 2f       	mov	r19, r16
    49e2:	41 2f       	mov	r20, r17
    49e4:	5b 81       	ldd	r21, Y+3	; 0x03
    49e6:	6e 2d       	mov	r22, r14
    49e8:	7b 2f       	mov	r23, r27
    49ea:	8f 2f       	mov	r24, r31
    49ec:	9e 2f       	mov	r25, r30
    49ee:	a8 e0       	ldi	r26, 0x08	; 8
    49f0:	0e 94 4c 45 	call	0x8a98	; 0x8a98 <__cmpdi2_s8>
    49f4:	09 f0       	breq	.+2      	; 0x49f8 <RO_Set+0x69e>
    49f6:	b0 f4       	brcc	.+44     	; 0x4a24 <RO_Set+0x6ca>
    49f8:	a1 e0       	ldi	r26, 0x01	; 1
    49fa:	0e 94 37 45 	call	0x8a6e	; 0x8a6e <__adddi3_s8>
    49fe:	20 93 73 42 	sts	0x4273, r18	; 0x804273 <RO_10>
    4a02:	30 93 74 42 	sts	0x4274, r19	; 0x804274 <RO_10+0x1>
    4a06:	40 93 75 42 	sts	0x4275, r20	; 0x804275 <RO_10+0x2>
    4a0a:	50 93 76 42 	sts	0x4276, r21	; 0x804276 <RO_10+0x3>
    4a0e:	60 93 77 42 	sts	0x4277, r22	; 0x804277 <RO_10+0x4>
    4a12:	70 93 78 42 	sts	0x4278, r23	; 0x804278 <RO_10+0x5>
    4a16:	80 93 79 42 	sts	0x4279, r24	; 0x804279 <RO_10+0x6>
    4a1a:	90 93 7a 42 	sts	0x427A, r25	; 0x80427a <RO_10+0x7>
    4a1e:	10 92 82 42 	sts	0x4282, r1	; 0x804282 <KEY+0x2>
    4a22:	cb c0       	rjmp	.+406    	; 0x4bba <RO_Set+0x860>
					else if(KEY.Key == 3 && RO_10 > 0) {RO_10--; KEY.Key = 0;}		// ΈΜνΉγ┤Έ▓ΕΊΛ╝ Ήζ┤Έσ┤ ROΆ░Τ 10Ήζα ΉηΡΈου Ά░ΡΉΗΝ
    4a24:	80 91 82 42 	lds	r24, 0x4282	; 0x804282 <KEY+0x2>
    4a28:	83 30       	cpi	r24, 0x03	; 3
    4a2a:	09 f0       	breq	.+2      	; 0x4a2e <RO_Set+0x6d4>
    4a2c:	c6 c0       	rjmp	.+396    	; 0x4bba <RO_Set+0x860>
    4a2e:	f0 90 73 42 	lds	r15, 0x4273	; 0x804273 <RO_10>
    4a32:	00 91 74 42 	lds	r16, 0x4274	; 0x804274 <RO_10+0x1>
    4a36:	10 91 75 42 	lds	r17, 0x4275	; 0x804275 <RO_10+0x2>
    4a3a:	e0 90 76 42 	lds	r14, 0x4276	; 0x804276 <RO_10+0x3>
    4a3e:	eb 82       	std	Y+3, r14	; 0x03
    4a40:	e0 90 77 42 	lds	r14, 0x4277	; 0x804277 <RO_10+0x4>
    4a44:	ea 82       	std	Y+2, r14	; 0x02
    4a46:	b0 91 78 42 	lds	r27, 0x4278	; 0x804278 <RO_10+0x5>
    4a4a:	f0 91 79 42 	lds	r31, 0x4279	; 0x804279 <RO_10+0x6>
    4a4e:	e0 91 7a 42 	lds	r30, 0x427A	; 0x80427a <RO_10+0x7>
    4a52:	2f 2d       	mov	r18, r15
    4a54:	30 2f       	mov	r19, r16
    4a56:	41 2f       	mov	r20, r17
    4a58:	5b 81       	ldd	r21, Y+3	; 0x03
    4a5a:	6e 2d       	mov	r22, r14
    4a5c:	7b 2f       	mov	r23, r27
    4a5e:	8f 2f       	mov	r24, r31
    4a60:	9e 2f       	mov	r25, r30
    4a62:	a0 e0       	ldi	r26, 0x00	; 0
    4a64:	0e 94 4c 45 	call	0x8a98	; 0x8a98 <__cmpdi2_s8>
    4a68:	09 f4       	brne	.+2      	; 0x4a6c <RO_Set+0x712>
    4a6a:	a7 c0       	rjmp	.+334    	; 0x4bba <RO_Set+0x860>
    4a6c:	af ef       	ldi	r26, 0xFF	; 255
    4a6e:	0e 94 37 45 	call	0x8a6e	; 0x8a6e <__adddi3_s8>
    4a72:	20 93 73 42 	sts	0x4273, r18	; 0x804273 <RO_10>
    4a76:	30 93 74 42 	sts	0x4274, r19	; 0x804274 <RO_10+0x1>
    4a7a:	40 93 75 42 	sts	0x4275, r20	; 0x804275 <RO_10+0x2>
    4a7e:	50 93 76 42 	sts	0x4276, r21	; 0x804276 <RO_10+0x3>
    4a82:	60 93 77 42 	sts	0x4277, r22	; 0x804277 <RO_10+0x4>
    4a86:	70 93 78 42 	sts	0x4278, r23	; 0x804278 <RO_10+0x5>
    4a8a:	80 93 79 42 	sts	0x4279, r24	; 0x804279 <RO_10+0x6>
    4a8e:	90 93 7a 42 	sts	0x427A, r25	; 0x80427a <RO_10+0x7>
    4a92:	10 92 82 42 	sts	0x4282, r1	; 0x804282 <KEY+0x2>
    4a96:	91 c0       	rjmp	.+290    	; 0x4bba <RO_Set+0x860>
				}
			break;

			case 4:							// ΈκεΈΥεΉΖΑ RO 1Ήζα ΉηΡΈου
				DIGIT[1][0] = fnd_tbl[RO_10];			// ΈκεΈΥεΉΖΑ RO 10Ήζα ΉηΡΈου ΊΣεΉΜε
    4a98:	e0 91 73 42 	lds	r30, 0x4273	; 0x804273 <RO_10>
    4a9c:	f0 91 74 42 	lds	r31, 0x4274	; 0x804274 <RO_10+0x1>
    4aa0:	e5 5c       	subi	r30, 0xC5	; 197
    4aa2:	fe 4b       	sbci	r31, 0xBE	; 190
    4aa4:	80 81       	ld	r24, Z
    4aa6:	80 93 73 41 	sts	0x4173, r24	; 0x804173 <DIGIT+0x4>
				if(Blink) {DIGIT[2][3] = FND_OFF;}		// Blink = 1 Ήζ┤Έσ┤ ΈκεΈΥεΉΖΑ RO 1Ήζα ΉηΡΈου OFF
    4aaa:	80 91 b0 42 	lds	r24, 0x42B0	; 0x8042b0 <Blink>
    4aae:	88 23       	and	r24, r24
    4ab0:	19 f0       	breq	.+6      	; 0x4ab8 <RO_Set+0x75e>
    4ab2:	10 92 7a 41 	sts	0x417A, r1	; 0x80417a <DIGIT+0xb>
    4ab6:	09 c0       	rjmp	.+18     	; 0x4aca <RO_Set+0x770>
				else	  {DIGIT[2][3] = fnd_tbl[RO_1];}	// Blink = 0 Ήζ┤Έσ┤ ΈκεΈΥεΉΖΑ RO 1Ήζα ΉηΡΈου ΊΣεΉΜε
    4ab8:	e0 91 df 42 	lds	r30, 0x42DF	; 0x8042df <RO_1>
    4abc:	f0 91 e0 42 	lds	r31, 0x42E0	; 0x8042e0 <RO_1+0x1>
    4ac0:	e5 5c       	subi	r30, 0xC5	; 197
    4ac2:	fe 4b       	sbci	r31, 0xBE	; 190
    4ac4:	80 81       	ld	r24, Z
    4ac6:	80 93 7a 41 	sts	0x417A, r24	; 0x80417a <DIGIT+0xb>

				if(KEY.Buff)					// Key ΉηΖΈιξΉζ┤ ΉηΙΉε╝Έσ┤
    4aca:	80 91 81 42 	lds	r24, 0x4281	; 0x804281 <KEY+0x1>
    4ace:	88 23       	and	r24, r24
    4ad0:	09 f4       	brne	.+2      	; 0x4ad4 <RO_Set+0x77a>
    4ad2:	73 c0       	rjmp	.+230    	; 0x4bba <RO_Set+0x860>
				{
					if     (KEY.Key == 1 && RO_1 < 9) {RO_1++; KEY.Key = 0;}		// ΉΩΖ  Έ▓ΕΊΛ╝ Ήζ┤Έσ┤ ROΆ░Τ 1Ήζα ΉηΡΈου ΉοζΆ░Α
    4ad4:	80 91 82 42 	lds	r24, 0x4282	; 0x804282 <KEY+0x2>
    4ad8:	81 30       	cpi	r24, 0x01	; 1
    4ada:	a9 f5       	brne	.+106    	; 0x4b46 <RO_Set+0x7ec>
    4adc:	f0 90 df 42 	lds	r15, 0x42DF	; 0x8042df <RO_1>
    4ae0:	00 91 e0 42 	lds	r16, 0x42E0	; 0x8042e0 <RO_1+0x1>
    4ae4:	10 91 e1 42 	lds	r17, 0x42E1	; 0x8042e1 <RO_1+0x2>
    4ae8:	e0 90 e2 42 	lds	r14, 0x42E2	; 0x8042e2 <RO_1+0x3>
    4aec:	eb 82       	std	Y+3, r14	; 0x03
    4aee:	e0 90 e3 42 	lds	r14, 0x42E3	; 0x8042e3 <RO_1+0x4>
    4af2:	ea 82       	std	Y+2, r14	; 0x02
    4af4:	b0 91 e4 42 	lds	r27, 0x42E4	; 0x8042e4 <RO_1+0x5>
    4af8:	f0 91 e5 42 	lds	r31, 0x42E5	; 0x8042e5 <RO_1+0x6>
    4afc:	e0 91 e6 42 	lds	r30, 0x42E6	; 0x8042e6 <RO_1+0x7>
    4b00:	2f 2d       	mov	r18, r15
    4b02:	30 2f       	mov	r19, r16
    4b04:	41 2f       	mov	r20, r17
    4b06:	5b 81       	ldd	r21, Y+3	; 0x03
    4b08:	6e 2d       	mov	r22, r14
    4b0a:	7b 2f       	mov	r23, r27
    4b0c:	8f 2f       	mov	r24, r31
    4b0e:	9e 2f       	mov	r25, r30
    4b10:	a8 e0       	ldi	r26, 0x08	; 8
    4b12:	0e 94 4c 45 	call	0x8a98	; 0x8a98 <__cmpdi2_s8>
    4b16:	09 f0       	breq	.+2      	; 0x4b1a <RO_Set+0x7c0>
    4b18:	b0 f4       	brcc	.+44     	; 0x4b46 <RO_Set+0x7ec>
    4b1a:	a1 e0       	ldi	r26, 0x01	; 1
    4b1c:	0e 94 37 45 	call	0x8a6e	; 0x8a6e <__adddi3_s8>
    4b20:	20 93 df 42 	sts	0x42DF, r18	; 0x8042df <RO_1>
    4b24:	30 93 e0 42 	sts	0x42E0, r19	; 0x8042e0 <RO_1+0x1>
    4b28:	40 93 e1 42 	sts	0x42E1, r20	; 0x8042e1 <RO_1+0x2>
    4b2c:	50 93 e2 42 	sts	0x42E2, r21	; 0x8042e2 <RO_1+0x3>
    4b30:	60 93 e3 42 	sts	0x42E3, r22	; 0x8042e3 <RO_1+0x4>
    4b34:	70 93 e4 42 	sts	0x42E4, r23	; 0x8042e4 <RO_1+0x5>
    4b38:	80 93 e5 42 	sts	0x42E5, r24	; 0x8042e5 <RO_1+0x6>
    4b3c:	90 93 e6 42 	sts	0x42E6, r25	; 0x8042e6 <RO_1+0x7>
    4b40:	10 92 82 42 	sts	0x4282, r1	; 0x804282 <KEY+0x2>
    4b44:	3a c0       	rjmp	.+116    	; 0x4bba <RO_Set+0x860>
					else if(KEY.Key == 3 && RO_1 > 0) {RO_1--; KEY.Key = 0;}		// ΈΜνΉγ┤Έ▓ΕΊΛ╝ Ήζ┤Έσ┤ ROΆ░Τ 1Ήζα ΉηΡΈου Ά░ΡΉΗΝ
    4b46:	80 91 82 42 	lds	r24, 0x4282	; 0x804282 <KEY+0x2>
    4b4a:	83 30       	cpi	r24, 0x03	; 3
    4b4c:	b1 f5       	brne	.+108    	; 0x4bba <RO_Set+0x860>
    4b4e:	f0 90 df 42 	lds	r15, 0x42DF	; 0x8042df <RO_1>
    4b52:	00 91 e0 42 	lds	r16, 0x42E0	; 0x8042e0 <RO_1+0x1>
    4b56:	10 91 e1 42 	lds	r17, 0x42E1	; 0x8042e1 <RO_1+0x2>
    4b5a:	e0 90 e2 42 	lds	r14, 0x42E2	; 0x8042e2 <RO_1+0x3>
    4b5e:	eb 82       	std	Y+3, r14	; 0x03
    4b60:	e0 90 e3 42 	lds	r14, 0x42E3	; 0x8042e3 <RO_1+0x4>
    4b64:	ea 82       	std	Y+2, r14	; 0x02
    4b66:	b0 91 e4 42 	lds	r27, 0x42E4	; 0x8042e4 <RO_1+0x5>
    4b6a:	f0 91 e5 42 	lds	r31, 0x42E5	; 0x8042e5 <RO_1+0x6>
    4b6e:	e0 91 e6 42 	lds	r30, 0x42E6	; 0x8042e6 <RO_1+0x7>
    4b72:	2f 2d       	mov	r18, r15
    4b74:	30 2f       	mov	r19, r16
    4b76:	41 2f       	mov	r20, r17
    4b78:	5b 81       	ldd	r21, Y+3	; 0x03
    4b7a:	6e 2d       	mov	r22, r14
    4b7c:	7b 2f       	mov	r23, r27
    4b7e:	8f 2f       	mov	r24, r31
    4b80:	9e 2f       	mov	r25, r30
    4b82:	a0 e0       	ldi	r26, 0x00	; 0
    4b84:	0e 94 4c 45 	call	0x8a98	; 0x8a98 <__cmpdi2_s8>
    4b88:	c1 f0       	breq	.+48     	; 0x4bba <RO_Set+0x860>
    4b8a:	af ef       	ldi	r26, 0xFF	; 255
    4b8c:	0e 94 37 45 	call	0x8a6e	; 0x8a6e <__adddi3_s8>
    4b90:	20 93 df 42 	sts	0x42DF, r18	; 0x8042df <RO_1>
    4b94:	30 93 e0 42 	sts	0x42E0, r19	; 0x8042e0 <RO_1+0x1>
    4b98:	40 93 e1 42 	sts	0x42E1, r20	; 0x8042e1 <RO_1+0x2>
    4b9c:	50 93 e2 42 	sts	0x42E2, r21	; 0x8042e2 <RO_1+0x3>
    4ba0:	60 93 e3 42 	sts	0x42E3, r22	; 0x8042e3 <RO_1+0x4>
    4ba4:	70 93 e4 42 	sts	0x42E4, r23	; 0x8042e4 <RO_1+0x5>
    4ba8:	80 93 e5 42 	sts	0x42E5, r24	; 0x8042e5 <RO_1+0x6>
    4bac:	90 93 e6 42 	sts	0x42E6, r25	; 0x8042e6 <RO_1+0x7>
    4bb0:	10 92 82 42 	sts	0x4282, r1	; 0x804282 <KEY+0x2>
    4bb4:	02 c0       	rjmp	.+4      	; 0x4bba <RO_Set+0x860>
				}
			break;

			case 5:
				KEY.Count = 0;					// Έ░αΈ│╡ΉζΕ ΉεΕΊΧ┤ KEY.Count Έξ╝ Ή┤ΙΆ╕░ΊβΦ ΉΜεΊΓ┤
    4bb6:	10 92 80 42 	sts	0x4280, r1	; 0x804280 <KEY>
			break;
		}
		wdt_reset();							// ΉδΝΉ╣αΈΠΖ ΈουΉΖΜ
    4bba:	0e 94 ef 0c 	call	0x19de	; 0x19de <wdt_reset>
	RO_1000  = RO % 10000 / 1000;						// ΈκεΈΥεΉΖΑ RO  1000Ήζα ΉηΡΈου
	RO_100   = RO % 1000 / 100;						// ΈκεΈΥεΉΖΑ RO   100Ήζα ΉηΡΈου
	RO_10    = RO % 100 / 10;						// ΈκεΈΥεΉΖΑ RO    10Ήζα ΉηΡΈου
	RO_1     = RO % 10;							// ΈκεΈΥεΉΖΑ RO     1Ήζα ΉηΡΈου
//-------------------------------------------------------------------------------------------------
	while(SET.Menu)								// ΈσΦΈΚ┤Ά░Α 1 Ήζ┤Έσ┤ Έ░αΈ│╡
    4bbe:	80 91 05 42 	lds	r24, 0x4205	; 0x804205 <SET>
    4bc2:	81 11       	cpse	r24, r1
    4bc4:	0a cd       	rjmp	.-1516   	; 0x45da <RO_Set+0x280>
		}
		wdt_reset();							// ΉδΝΉ╣αΈΠΖ ΈουΉΖΜ
	}
//-------------------------------------------------------------------------------------------------
	RO = 0;
	RO += (RO_10000 * 10000);						// ΈκεΈΥεΉΖΑ RO 10000Ήζα ΉηΡΈου
    4bc6:	68 94       	set
    4bc8:	aa 24       	eor	r10, r10
    4bca:	a4 f8       	bld	r10, 4
    4bcc:	0f 2e       	mov	r0, r31
    4bce:	f7 e2       	ldi	r31, 0x27	; 39
    4bd0:	bf 2e       	mov	r11, r31
    4bd2:	f0 2d       	mov	r31, r0
    4bd4:	c1 2c       	mov	r12, r1
    4bd6:	d1 2c       	mov	r13, r1
    4bd8:	e1 2c       	mov	r14, r1
    4bda:	f1 2c       	mov	r15, r1
    4bdc:	00 e0       	ldi	r16, 0x00	; 0
    4bde:	10 e0       	ldi	r17, 0x00	; 0
    4be0:	20 91 90 42 	lds	r18, 0x4290	; 0x804290 <RO_10000>
    4be4:	30 91 91 42 	lds	r19, 0x4291	; 0x804291 <RO_10000+0x1>
    4be8:	40 91 92 42 	lds	r20, 0x4292	; 0x804292 <RO_10000+0x2>
    4bec:	50 91 93 42 	lds	r21, 0x4293	; 0x804293 <RO_10000+0x3>
    4bf0:	60 91 94 42 	lds	r22, 0x4294	; 0x804294 <RO_10000+0x4>
    4bf4:	70 91 95 42 	lds	r23, 0x4295	; 0x804295 <RO_10000+0x5>
    4bf8:	80 91 96 42 	lds	r24, 0x4296	; 0x804296 <RO_10000+0x6>
    4bfc:	90 91 97 42 	lds	r25, 0x4297	; 0x804297 <RO_10000+0x7>
    4c00:	0e 94 5d 44 	call	0x88ba	; 0x88ba <__muldi3>
    4c04:	42 2e       	mov	r4, r18
    4c06:	53 2e       	mov	r5, r19
    4c08:	64 2e       	mov	r6, r20
    4c0a:	75 2e       	mov	r7, r21
    4c0c:	86 2e       	mov	r8, r22
    4c0e:	7a 83       	std	Y+2, r23	; 0x02
    4c10:	8b 83       	std	Y+3, r24	; 0x03
    4c12:	9c 83       	std	Y+4, r25	; 0x04
	RO += (RO_1000  * 1000);						// ΈκεΈΥεΉΖΑ RO  1000Ήζα ΉηΡΈου
    4c14:	b0 91 e4 43 	lds	r27, 0x43E4	; 0x8043e4 <RO_1000>
    4c18:	a0 91 e5 43 	lds	r26, 0x43E5	; 0x8043e5 <RO_1000+0x1>
    4c1c:	f0 91 e6 43 	lds	r31, 0x43E6	; 0x8043e6 <RO_1000+0x2>
    4c20:	e0 91 e7 43 	lds	r30, 0x43E7	; 0x8043e7 <RO_1000+0x3>
    4c24:	20 90 e8 43 	lds	r2, 0x43E8	; 0x8043e8 <RO_1000+0x4>
    4c28:	90 90 e9 43 	lds	r9, 0x43E9	; 0x8043e9 <RO_1000+0x5>
    4c2c:	f0 90 ea 43 	lds	r15, 0x43EA	; 0x8043ea <RO_1000+0x6>
    4c30:	fd 86       	std	Y+13, r15	; 0x0d
    4c32:	00 91 eb 43 	lds	r16, 0x43EB	; 0x8043eb <RO_1000+0x7>
    4c36:	0d 83       	std	Y+5, r16	; 0x05
    4c38:	2b 2f       	mov	r18, r27
    4c3a:	3a 2f       	mov	r19, r26
    4c3c:	4f 2f       	mov	r20, r31
    4c3e:	5e 2f       	mov	r21, r30
    4c40:	62 2d       	mov	r22, r2
    4c42:	79 2d       	mov	r23, r9
    4c44:	8f 2d       	mov	r24, r15
    4c46:	90 2f       	mov	r25, r16
    4c48:	02 e0       	ldi	r16, 0x02	; 2
    4c4a:	0e 94 15 45 	call	0x8a2a	; 0x8a2a <__ashldi3>
    4c4e:	a2 2e       	mov	r10, r18
    4c50:	b3 2e       	mov	r11, r19
    4c52:	c4 2e       	mov	r12, r20
    4c54:	d5 2e       	mov	r13, r21
    4c56:	e6 2e       	mov	r14, r22
    4c58:	f7 2e       	mov	r15, r23
    4c5a:	38 2e       	mov	r3, r24
    4c5c:	19 2f       	mov	r17, r25
    4c5e:	05 e0       	ldi	r16, 0x05	; 5
    4c60:	0e 94 15 45 	call	0x8a2a	; 0x8a2a <__ashldi3>
    4c64:	03 2d       	mov	r16, r3
    4c66:	0e 94 43 45 	call	0x8a86	; 0x8a86 <__subdi3>
    4c6a:	ab 2e       	mov	r10, r27
    4c6c:	ba 2e       	mov	r11, r26
    4c6e:	cf 2e       	mov	r12, r31
    4c70:	de 2e       	mov	r13, r30
    4c72:	e2 2c       	mov	r14, r2
    4c74:	f9 2c       	mov	r15, r9
    4c76:	0d 85       	ldd	r16, Y+13	; 0x0d
    4c78:	1d 81       	ldd	r17, Y+5	; 0x05
    4c7a:	0e 94 2e 45 	call	0x8a5c	; 0x8a5c <__adddi3>
    4c7e:	03 e0       	ldi	r16, 0x03	; 3
    4c80:	0e 94 15 45 	call	0x8a2a	; 0x8a2a <__ashldi3>
    4c84:	a2 2e       	mov	r10, r18
    4c86:	b3 2e       	mov	r11, r19
    4c88:	c4 2e       	mov	r12, r20
    4c8a:	d5 2e       	mov	r13, r21
    4c8c:	e6 2e       	mov	r14, r22
    4c8e:	f7 2e       	mov	r15, r23
    4c90:	08 2f       	mov	r16, r24
    4c92:	19 2f       	mov	r17, r25
    4c94:	24 2d       	mov	r18, r4
    4c96:	35 2d       	mov	r19, r5
    4c98:	46 2d       	mov	r20, r6
    4c9a:	57 2d       	mov	r21, r7
    4c9c:	68 2d       	mov	r22, r8
    4c9e:	7a 81       	ldd	r23, Y+2	; 0x02
    4ca0:	8b 81       	ldd	r24, Y+3	; 0x03
    4ca2:	9c 81       	ldd	r25, Y+4	; 0x04
    4ca4:	0e 94 2e 45 	call	0x8a5c	; 0x8a5c <__adddi3>
    4ca8:	22 2e       	mov	r2, r18
    4caa:	33 2e       	mov	r3, r19
    4cac:	44 2e       	mov	r4, r20
    4cae:	55 2e       	mov	r5, r21
    4cb0:	66 2e       	mov	r6, r22
    4cb2:	77 2e       	mov	r7, r23
    4cb4:	8a 83       	std	Y+2, r24	; 0x02
    4cb6:	9b 83       	std	Y+3, r25	; 0x03
	RO += (RO_100   * 100);							// ΈκεΈΥεΉΖΑ RO   100Ήζα ΉηΡΈου
    4cb8:	20 91 a8 42 	lds	r18, 0x42A8	; 0x8042a8 <RO_100>
    4cbc:	30 91 a9 42 	lds	r19, 0x42A9	; 0x8042a9 <RO_100+0x1>
    4cc0:	40 91 aa 42 	lds	r20, 0x42AA	; 0x8042aa <RO_100+0x2>
    4cc4:	50 91 ab 42 	lds	r21, 0x42AB	; 0x8042ab <RO_100+0x3>
    4cc8:	60 91 ac 42 	lds	r22, 0x42AC	; 0x8042ac <RO_100+0x4>
    4ccc:	70 91 ad 42 	lds	r23, 0x42AD	; 0x8042ad <RO_100+0x5>
    4cd0:	80 91 ae 42 	lds	r24, 0x42AE	; 0x8042ae <RO_100+0x6>
    4cd4:	90 91 af 42 	lds	r25, 0x42AF	; 0x8042af <RO_100+0x7>
    4cd8:	02 e0       	ldi	r16, 0x02	; 2
    4cda:	0e 94 15 45 	call	0x8a2a	; 0x8a2a <__ashldi3>
    4cde:	82 2e       	mov	r8, r18
    4ce0:	93 2e       	mov	r9, r19
    4ce2:	4d 83       	std	Y+5, r20	; 0x05
    4ce4:	5c 83       	std	Y+4, r21	; 0x04
    4ce6:	b6 2f       	mov	r27, r22
    4ce8:	a7 2f       	mov	r26, r23
    4cea:	f8 2f       	mov	r31, r24
    4cec:	e9 2f       	mov	r30, r25
    4cee:	0e 94 15 45 	call	0x8a2a	; 0x8a2a <__ashldi3>
    4cf2:	a2 2e       	mov	r10, r18
    4cf4:	b3 2e       	mov	r11, r19
    4cf6:	c4 2e       	mov	r12, r20
    4cf8:	d5 2e       	mov	r13, r21
    4cfa:	e6 2e       	mov	r14, r22
    4cfc:	f7 2e       	mov	r15, r23
    4cfe:	08 2f       	mov	r16, r24
    4d00:	19 2f       	mov	r17, r25
    4d02:	28 2d       	mov	r18, r8
    4d04:	39 2d       	mov	r19, r9
    4d06:	4d 81       	ldd	r20, Y+5	; 0x05
    4d08:	5c 81       	ldd	r21, Y+4	; 0x04
    4d0a:	6b 2f       	mov	r22, r27
    4d0c:	7a 2f       	mov	r23, r26
    4d0e:	8f 2f       	mov	r24, r31
    4d10:	9e 2f       	mov	r25, r30
    4d12:	0e 94 2e 45 	call	0x8a5c	; 0x8a5c <__adddi3>
    4d16:	82 2e       	mov	r8, r18
    4d18:	93 2e       	mov	r9, r19
    4d1a:	4d 83       	std	Y+5, r20	; 0x05
    4d1c:	5c 83       	std	Y+4, r21	; 0x04
    4d1e:	b6 2f       	mov	r27, r22
    4d20:	a7 2f       	mov	r26, r23
    4d22:	f8 2f       	mov	r31, r24
    4d24:	e9 2f       	mov	r30, r25
    4d26:	02 e0       	ldi	r16, 0x02	; 2
    4d28:	0e 94 15 45 	call	0x8a2a	; 0x8a2a <__ashldi3>
    4d2c:	a2 2e       	mov	r10, r18
    4d2e:	b3 2e       	mov	r11, r19
    4d30:	c4 2e       	mov	r12, r20
    4d32:	d5 2e       	mov	r13, r21
    4d34:	e6 2e       	mov	r14, r22
    4d36:	f7 2e       	mov	r15, r23
    4d38:	08 2f       	mov	r16, r24
    4d3a:	19 2f       	mov	r17, r25
    4d3c:	28 2d       	mov	r18, r8
    4d3e:	39 2d       	mov	r19, r9
    4d40:	4d 81       	ldd	r20, Y+5	; 0x05
    4d42:	5c 81       	ldd	r21, Y+4	; 0x04
    4d44:	6b 2f       	mov	r22, r27
    4d46:	7a 2f       	mov	r23, r26
    4d48:	8f 2f       	mov	r24, r31
    4d4a:	9e 2f       	mov	r25, r30
    4d4c:	0e 94 2e 45 	call	0x8a5c	; 0x8a5c <__adddi3>
    4d50:	a2 2e       	mov	r10, r18
    4d52:	b3 2e       	mov	r11, r19
    4d54:	c4 2e       	mov	r12, r20
    4d56:	d5 2e       	mov	r13, r21
    4d58:	e6 2e       	mov	r14, r22
    4d5a:	f7 2e       	mov	r15, r23
    4d5c:	08 2f       	mov	r16, r24
    4d5e:	19 2f       	mov	r17, r25
    4d60:	22 2d       	mov	r18, r2
    4d62:	33 2d       	mov	r19, r3
    4d64:	44 2d       	mov	r20, r4
    4d66:	55 2d       	mov	r21, r5
    4d68:	66 2d       	mov	r22, r6
    4d6a:	77 2d       	mov	r23, r7
    4d6c:	8a 81       	ldd	r24, Y+2	; 0x02
    4d6e:	9b 81       	ldd	r25, Y+3	; 0x03
    4d70:	0e 94 2e 45 	call	0x8a5c	; 0x8a5c <__adddi3>
    4d74:	22 2e       	mov	r2, r18
    4d76:	33 2e       	mov	r3, r19
    4d78:	44 2e       	mov	r4, r20
    4d7a:	55 2e       	mov	r5, r21
    4d7c:	66 2e       	mov	r6, r22
    4d7e:	77 2e       	mov	r7, r23
    4d80:	8a 83       	std	Y+2, r24	; 0x02
    4d82:	9b 83       	std	Y+3, r25	; 0x03
	RO += (RO_10    * 10);							// ΈκεΈΥεΉΖΑ RO    10Ήζα ΉηΡΈου
    4d84:	20 91 73 42 	lds	r18, 0x4273	; 0x804273 <RO_10>
    4d88:	30 91 74 42 	lds	r19, 0x4274	; 0x804274 <RO_10+0x1>
    4d8c:	40 91 75 42 	lds	r20, 0x4275	; 0x804275 <RO_10+0x2>
    4d90:	50 91 76 42 	lds	r21, 0x4276	; 0x804276 <RO_10+0x3>
    4d94:	60 91 77 42 	lds	r22, 0x4277	; 0x804277 <RO_10+0x4>
    4d98:	70 91 78 42 	lds	r23, 0x4278	; 0x804278 <RO_10+0x5>
    4d9c:	80 91 79 42 	lds	r24, 0x4279	; 0x804279 <RO_10+0x6>
    4da0:	90 91 7a 42 	lds	r25, 0x427A	; 0x80427a <RO_10+0x7>
    4da4:	01 e0       	ldi	r16, 0x01	; 1
    4da6:	0e 94 15 45 	call	0x8a2a	; 0x8a2a <__ashldi3>
    4daa:	82 2e       	mov	r8, r18
    4dac:	93 2e       	mov	r9, r19
    4dae:	4d 83       	std	Y+5, r20	; 0x05
    4db0:	5c 83       	std	Y+4, r21	; 0x04
    4db2:	b6 2f       	mov	r27, r22
    4db4:	a7 2f       	mov	r26, r23
    4db6:	f8 2f       	mov	r31, r24
    4db8:	e9 2f       	mov	r30, r25
    4dba:	02 e0       	ldi	r16, 0x02	; 2
    4dbc:	0e 94 15 45 	call	0x8a2a	; 0x8a2a <__ashldi3>
    4dc0:	a2 2e       	mov	r10, r18
    4dc2:	b3 2e       	mov	r11, r19
    4dc4:	c4 2e       	mov	r12, r20
    4dc6:	d5 2e       	mov	r13, r21
    4dc8:	e6 2e       	mov	r14, r22
    4dca:	f7 2e       	mov	r15, r23
    4dcc:	08 2f       	mov	r16, r24
    4dce:	19 2f       	mov	r17, r25
    4dd0:	28 2d       	mov	r18, r8
    4dd2:	39 2d       	mov	r19, r9
    4dd4:	4d 81       	ldd	r20, Y+5	; 0x05
    4dd6:	5c 81       	ldd	r21, Y+4	; 0x04
    4dd8:	6b 2f       	mov	r22, r27
    4dda:	7a 2f       	mov	r23, r26
    4ddc:	8f 2f       	mov	r24, r31
    4dde:	9e 2f       	mov	r25, r30
    4de0:	0e 94 2e 45 	call	0x8a5c	; 0x8a5c <__adddi3>
    4de4:	a2 2e       	mov	r10, r18
    4de6:	b3 2e       	mov	r11, r19
    4de8:	c4 2e       	mov	r12, r20
    4dea:	d5 2e       	mov	r13, r21
    4dec:	e6 2e       	mov	r14, r22
    4dee:	f7 2e       	mov	r15, r23
    4df0:	08 2f       	mov	r16, r24
    4df2:	19 2f       	mov	r17, r25
    4df4:	22 2d       	mov	r18, r2
    4df6:	33 2d       	mov	r19, r3
    4df8:	44 2d       	mov	r20, r4
    4dfa:	55 2d       	mov	r21, r5
    4dfc:	66 2d       	mov	r22, r6
    4dfe:	77 2d       	mov	r23, r7
    4e00:	8a 81       	ldd	r24, Y+2	; 0x02
    4e02:	9b 81       	ldd	r25, Y+3	; 0x03
    4e04:	0e 94 2e 45 	call	0x8a5c	; 0x8a5c <__adddi3>
	RO += (RO_1     * 1);							// ΈκεΈΥεΉΖΑ RO     1Ήζα ΉηΡΈου
    4e08:	a0 90 df 42 	lds	r10, 0x42DF	; 0x8042df <RO_1>
    4e0c:	b0 90 e0 42 	lds	r11, 0x42E0	; 0x8042e0 <RO_1+0x1>
    4e10:	c0 90 e1 42 	lds	r12, 0x42E1	; 0x8042e1 <RO_1+0x2>
    4e14:	d0 90 e2 42 	lds	r13, 0x42E2	; 0x8042e2 <RO_1+0x3>
    4e18:	e0 90 e3 42 	lds	r14, 0x42E3	; 0x8042e3 <RO_1+0x4>
    4e1c:	f0 90 e4 42 	lds	r15, 0x42E4	; 0x8042e4 <RO_1+0x5>
    4e20:	00 91 e5 42 	lds	r16, 0x42E5	; 0x8042e5 <RO_1+0x6>
    4e24:	10 91 e6 42 	lds	r17, 0x42E6	; 0x8042e6 <RO_1+0x7>
    4e28:	0e 94 2e 45 	call	0x8a5c	; 0x8a5c <__adddi3>
    4e2c:	20 93 08 42 	sts	0x4208, r18	; 0x804208 <RO>
    4e30:	30 93 09 42 	sts	0x4209, r19	; 0x804209 <RO+0x1>
    4e34:	40 93 0a 42 	sts	0x420A, r20	; 0x80420a <RO+0x2>
    4e38:	50 93 0b 42 	sts	0x420B, r21	; 0x80420b <RO+0x3>
    4e3c:	60 93 0c 42 	sts	0x420C, r22	; 0x80420c <RO+0x4>
    4e40:	70 93 0d 42 	sts	0x420D, r23	; 0x80420d <RO+0x5>
    4e44:	80 93 0e 42 	sts	0x420E, r24	; 0x80420e <RO+0x6>
    4e48:	90 93 0f 42 	sts	0x420F, r25	; 0x80420f <RO+0x7>
//-------------------------------------------------------------------------------------------------
	if     (Number == 1) {ee_write_dword(Cell_RO_1_Addr, RO);}		// 1Έ▓Ι ΈκεΈΥεΉΖΑ Ήζ┤Έσ┤ ΉιΧΆ▓σΉ╢εΈιξΆ░Τ ΉιΑΉηξ
    4e4c:	19 81       	ldd	r17, Y+1	; 0x01
    4e4e:	11 30       	cpi	r17, 0x01	; 1
    4e50:	49 f4       	brne	.+18     	; 0x4e64 <RO_Set+0xb0a>
    4e52:	64 2f       	mov	r22, r20
    4e54:	75 2f       	mov	r23, r21
    4e56:	42 2f       	mov	r20, r18
    4e58:	53 2f       	mov	r21, r19
    4e5a:	86 e1       	ldi	r24, 0x16	; 22
    4e5c:	90 e0       	ldi	r25, 0x00	; 0
    4e5e:	0e 94 ac 13 	call	0x2758	; 0x2758 <ee_write_dword>
    4e62:	17 c0       	rjmp	.+46     	; 0x4e92 <RO_Set+0xb38>
	else if(Number == 2) {ee_write_dword(Cell_RO_2_Addr, RO);}		// 2Έ▓Ι ΈκεΈΥεΉΖΑ Ήζ┤Έσ┤ ΉιΧΆ▓σΉ╢εΈιξΆ░Τ ΉιΑΉηξ
    4e64:	89 81       	ldd	r24, Y+1	; 0x01
    4e66:	82 30       	cpi	r24, 0x02	; 2
    4e68:	49 f4       	brne	.+18     	; 0x4e7c <RO_Set+0xb22>
    4e6a:	64 2f       	mov	r22, r20
    4e6c:	75 2f       	mov	r23, r21
    4e6e:	42 2f       	mov	r20, r18
    4e70:	53 2f       	mov	r21, r19
    4e72:	8a e1       	ldi	r24, 0x1A	; 26
    4e74:	90 e0       	ldi	r25, 0x00	; 0
    4e76:	0e 94 ac 13 	call	0x2758	; 0x2758 <ee_write_dword>
    4e7a:	0b c0       	rjmp	.+22     	; 0x4e92 <RO_Set+0xb38>
	else if(Number == 3) {ee_write_dword(Cell_RO_3_Addr, RO);}		// 3Έ▓Ι ΈκεΈΥεΉΖΑ Ήζ┤Έσ┤ ΉιΧΆ▓σΉ╢εΈιξΆ░Τ ΉιΑΉηξ
    4e7c:	09 81       	ldd	r16, Y+1	; 0x01
    4e7e:	03 30       	cpi	r16, 0x03	; 3
    4e80:	41 f4       	brne	.+16     	; 0x4e92 <RO_Set+0xb38>
    4e82:	64 2f       	mov	r22, r20
    4e84:	75 2f       	mov	r23, r21
    4e86:	42 2f       	mov	r20, r18
    4e88:	53 2f       	mov	r21, r19
    4e8a:	8e e1       	ldi	r24, 0x1E	; 30
    4e8c:	90 e0       	ldi	r25, 0x00	; 0
    4e8e:	0e 94 ac 13 	call	0x2758	; 0x2758 <ee_write_dword>

	SET.Menu = 1;								// Menu ΈςρΈΥε ΉειΉπΑ
    4e92:	e5 e0       	ldi	r30, 0x05	; 5
    4e94:	f2 e4       	ldi	r31, 0x42	; 66
    4e96:	81 e0       	ldi	r24, 0x01	; 1
    4e98:	80 83       	st	Z, r24
	SET.Select = 0;								// Select Έ▓ΕΊΛ╝ Ή┤ΙΆ╕░ΊβΦ
    4e9a:	11 82       	std	Z+1, r1	; 0x01
	SET.Blink = 0;								// ΉηΡΈο┐ΉΙα Ά╣εΈ░ΧΉηΕ Ή┤ΙΆ╕░ΊβΦ
    4e9c:	12 82       	std	Z+2, r1	; 0x02
	KEY.Count = 0;								// ΉΕιΊΔζ Key Ά░Α ΈΙΝΈο░ΊγθΉΙα Ή┤ΙΆ╕░ΊβΦ
    4e9e:	10 92 80 42 	sts	0x4280, r1	; 0x804280 <KEY>
}
    4ea2:	2d 96       	adiw	r28, 0x0d	; 13
    4ea4:	cd bf       	out	0x3d, r28	; 61
    4ea6:	de bf       	out	0x3e, r29	; 62
    4ea8:	df 91       	pop	r29
    4eaa:	cf 91       	pop	r28
    4eac:	1f 91       	pop	r17
    4eae:	0f 91       	pop	r16
    4eb0:	ff 90       	pop	r15
    4eb2:	ef 90       	pop	r14
    4eb4:	df 90       	pop	r13
    4eb6:	cf 90       	pop	r12
    4eb8:	bf 90       	pop	r11
    4eba:	af 90       	pop	r10
    4ebc:	9f 90       	pop	r9
    4ebe:	8f 90       	pop	r8
    4ec0:	7f 90       	pop	r7
    4ec2:	6f 90       	pop	r6
    4ec4:	5f 90       	pop	r5
    4ec6:	4f 90       	pop	r4
    4ec8:	3f 90       	pop	r3
    4eca:	2f 90       	pop	r2
    4ecc:	08 95       	ret

00004ece <Interval_Set>:

//=================================================================================================
void Interval_Set(uint8_t Number)						// Interval ΉΕνΉιΧ
{
    4ece:	2f 92       	push	r2
    4ed0:	3f 92       	push	r3
    4ed2:	4f 92       	push	r4
    4ed4:	5f 92       	push	r5
    4ed6:	6f 92       	push	r6
    4ed8:	7f 92       	push	r7
    4eda:	8f 92       	push	r8
    4edc:	9f 92       	push	r9
    4ede:	af 92       	push	r10
    4ee0:	bf 92       	push	r11
    4ee2:	cf 92       	push	r12
    4ee4:	df 92       	push	r13
    4ee6:	ef 92       	push	r14
    4ee8:	ff 92       	push	r15
    4eea:	0f 93       	push	r16
    4eec:	1f 93       	push	r17
    4eee:	cf 93       	push	r28
    4ef0:	df 93       	push	r29
    4ef2:	cd b7       	in	r28, 0x3d	; 61
    4ef4:	de b7       	in	r29, 0x3e	; 62
    4ef6:	2e 97       	sbiw	r28, 0x0e	; 14
    4ef8:	cd bf       	out	0x3d, r28	; 61
    4efa:	de bf       	out	0x3e, r29	; 62
    4efc:	8e 83       	std	Y+6, r24	; 0x06
	uint32_t Value = 0;							// Value Έ│ΑΉΙα Ή┤ΙΆ╕░ΊβΦ

	if     (Number == 1) {RO = ee_read_dword(Cell_RO_1_Addr);}		// 1Έ▓Ι ΈκεΈΥεΉΖΑ Ήζ┤Έσ┤ ROΆ░Τ Έ╢ΙΈθυΉανΆ╕░
    4efe:	81 30       	cpi	r24, 0x01	; 1
    4f00:	11 f5       	brne	.+68     	; 0x4f46 <Interval_Set+0x78>
    4f02:	86 e1       	ldi	r24, 0x16	; 22
    4f04:	90 e0       	ldi	r25, 0x00	; 0
    4f06:	0e 94 5f 13 	call	0x26be	; 0x26be <ee_read_dword>
    4f0a:	7b 01       	movw	r14, r22
    4f0c:	8c 01       	movw	r16, r24
    4f0e:	20 e0       	ldi	r18, 0x00	; 0
    4f10:	30 e0       	ldi	r19, 0x00	; 0
    4f12:	a9 01       	movw	r20, r18
    4f14:	6f 83       	std	Y+7, r22	; 0x07
    4f16:	f8 86       	std	Y+8, r15	; 0x08
    4f18:	09 87       	std	Y+9, r16	; 0x09
    4f1a:	1a 87       	std	Y+10, r17	; 0x0a
    4f1c:	2b 87       	std	Y+11, r18	; 0x0b
    4f1e:	3c 87       	std	Y+12, r19	; 0x0c
    4f20:	4d 87       	std	Y+13, r20	; 0x0d
    4f22:	5e 87       	std	Y+14, r21	; 0x0e
    4f24:	60 93 08 42 	sts	0x4208, r22	; 0x804208 <RO>
    4f28:	f0 92 09 42 	sts	0x4209, r15	; 0x804209 <RO+0x1>
    4f2c:	00 93 0a 42 	sts	0x420A, r16	; 0x80420a <RO+0x2>
    4f30:	10 93 0b 42 	sts	0x420B, r17	; 0x80420b <RO+0x3>
    4f34:	10 92 0c 42 	sts	0x420C, r1	; 0x80420c <RO+0x4>
    4f38:	10 92 0d 42 	sts	0x420D, r1	; 0x80420d <RO+0x5>
    4f3c:	10 92 0e 42 	sts	0x420E, r1	; 0x80420e <RO+0x6>
    4f40:	10 92 0f 42 	sts	0x420F, r1	; 0x80420f <RO+0x7>
    4f44:	49 c0       	rjmp	.+146    	; 0x4fd8 <Interval_Set+0x10a>
	else if(Number == 2) {RO = ee_read_dword(Cell_RO_2_Addr);}		// 2Έ▓Ι ΈκεΈΥεΉΖΑ Ήζ┤Έσ┤ ROΆ░Τ Έ╢ΙΈθυΉανΆ╕░
    4f46:	0e 81       	ldd	r16, Y+6	; 0x06
    4f48:	02 30       	cpi	r16, 0x02	; 2
    4f4a:	11 f5       	brne	.+68     	; 0x4f90 <Interval_Set+0xc2>
    4f4c:	8a e1       	ldi	r24, 0x1A	; 26
    4f4e:	90 e0       	ldi	r25, 0x00	; 0
    4f50:	0e 94 5f 13 	call	0x26be	; 0x26be <ee_read_dword>
    4f54:	7b 01       	movw	r14, r22
    4f56:	8c 01       	movw	r16, r24
    4f58:	20 e0       	ldi	r18, 0x00	; 0
    4f5a:	30 e0       	ldi	r19, 0x00	; 0
    4f5c:	a9 01       	movw	r20, r18
    4f5e:	6f 83       	std	Y+7, r22	; 0x07
    4f60:	f8 86       	std	Y+8, r15	; 0x08
    4f62:	09 87       	std	Y+9, r16	; 0x09
    4f64:	1a 87       	std	Y+10, r17	; 0x0a
    4f66:	2b 87       	std	Y+11, r18	; 0x0b
    4f68:	3c 87       	std	Y+12, r19	; 0x0c
    4f6a:	4d 87       	std	Y+13, r20	; 0x0d
    4f6c:	5e 87       	std	Y+14, r21	; 0x0e
    4f6e:	60 93 08 42 	sts	0x4208, r22	; 0x804208 <RO>
    4f72:	f0 92 09 42 	sts	0x4209, r15	; 0x804209 <RO+0x1>
    4f76:	00 93 0a 42 	sts	0x420A, r16	; 0x80420a <RO+0x2>
    4f7a:	10 93 0b 42 	sts	0x420B, r17	; 0x80420b <RO+0x3>
    4f7e:	10 92 0c 42 	sts	0x420C, r1	; 0x80420c <RO+0x4>
    4f82:	10 92 0d 42 	sts	0x420D, r1	; 0x80420d <RO+0x5>
    4f86:	10 92 0e 42 	sts	0x420E, r1	; 0x80420e <RO+0x6>
    4f8a:	10 92 0f 42 	sts	0x420F, r1	; 0x80420f <RO+0x7>
    4f8e:	24 c0       	rjmp	.+72     	; 0x4fd8 <Interval_Set+0x10a>
	else if(Number == 3) {RO = ee_read_dword(Cell_RO_3_Addr);}		// 3Έ▓Ι ΈκεΈΥεΉΖΑ Ήζ┤Έσ┤ ROΆ░Τ Έ╢ΙΈθυΉανΆ╕░
    4f90:	0e 81       	ldd	r16, Y+6	; 0x06
    4f92:	03 30       	cpi	r16, 0x03	; 3
    4f94:	09 f5       	brne	.+66     	; 0x4fd8 <Interval_Set+0x10a>
    4f96:	8e e1       	ldi	r24, 0x1E	; 30
    4f98:	90 e0       	ldi	r25, 0x00	; 0
    4f9a:	0e 94 5f 13 	call	0x26be	; 0x26be <ee_read_dword>
    4f9e:	7b 01       	movw	r14, r22
    4fa0:	8c 01       	movw	r16, r24
    4fa2:	20 e0       	ldi	r18, 0x00	; 0
    4fa4:	30 e0       	ldi	r19, 0x00	; 0
    4fa6:	a9 01       	movw	r20, r18
    4fa8:	6f 83       	std	Y+7, r22	; 0x07
    4faa:	f8 86       	std	Y+8, r15	; 0x08
    4fac:	09 87       	std	Y+9, r16	; 0x09
    4fae:	1a 87       	std	Y+10, r17	; 0x0a
    4fb0:	2b 87       	std	Y+11, r18	; 0x0b
    4fb2:	3c 87       	std	Y+12, r19	; 0x0c
    4fb4:	4d 87       	std	Y+13, r20	; 0x0d
    4fb6:	5e 87       	std	Y+14, r21	; 0x0e
    4fb8:	60 93 08 42 	sts	0x4208, r22	; 0x804208 <RO>
    4fbc:	f0 92 09 42 	sts	0x4209, r15	; 0x804209 <RO+0x1>
    4fc0:	00 93 0a 42 	sts	0x420A, r16	; 0x80420a <RO+0x2>
    4fc4:	10 93 0b 42 	sts	0x420B, r17	; 0x80420b <RO+0x3>
    4fc8:	10 92 0c 42 	sts	0x420C, r1	; 0x80420c <RO+0x4>
    4fcc:	10 92 0d 42 	sts	0x420D, r1	; 0x80420d <RO+0x5>
    4fd0:	10 92 0e 42 	sts	0x420E, r1	; 0x80420e <RO+0x6>
    4fd4:	10 92 0f 42 	sts	0x420F, r1	; 0x80420f <RO+0x7>
//-------------------------------------------------------------------------------------------------
	RO_10000 = RO / 10000;							// ΈκεΈΥεΉΖΑ RO 10000Ήζα ΉηΡΈου
    4fd8:	40 90 08 42 	lds	r4, 0x4208	; 0x804208 <RO>
    4fdc:	50 90 09 42 	lds	r5, 0x4209	; 0x804209 <RO+0x1>
    4fe0:	60 90 0a 42 	lds	r6, 0x420A	; 0x80420a <RO+0x2>
    4fe4:	70 90 0b 42 	lds	r7, 0x420B	; 0x80420b <RO+0x3>
    4fe8:	80 90 0c 42 	lds	r8, 0x420C	; 0x80420c <RO+0x4>
    4fec:	90 90 0d 42 	lds	r9, 0x420D	; 0x80420d <RO+0x5>
    4ff0:	f0 90 0e 42 	lds	r15, 0x420E	; 0x80420e <RO+0x6>
    4ff4:	fa 82       	std	Y+2, r15	; 0x02
    4ff6:	00 91 0f 42 	lds	r16, 0x420F	; 0x80420f <RO+0x7>
    4ffa:	09 83       	std	Y+1, r16	; 0x01
    4ffc:	68 94       	set
    4ffe:	aa 24       	eor	r10, r10
    5000:	a4 f8       	bld	r10, 4
    5002:	0f 2e       	mov	r0, r31
    5004:	f7 e2       	ldi	r31, 0x27	; 39
    5006:	bf 2e       	mov	r11, r31
    5008:	f0 2d       	mov	r31, r0
    500a:	c1 2c       	mov	r12, r1
    500c:	d1 2c       	mov	r13, r1
    500e:	e1 2c       	mov	r14, r1
    5010:	f1 2c       	mov	r15, r1
    5012:	00 e0       	ldi	r16, 0x00	; 0
    5014:	10 e0       	ldi	r17, 0x00	; 0
    5016:	24 2d       	mov	r18, r4
    5018:	35 2d       	mov	r19, r5
    501a:	46 2d       	mov	r20, r6
    501c:	57 2d       	mov	r21, r7
    501e:	68 2d       	mov	r22, r8
    5020:	79 2d       	mov	r23, r9
    5022:	8a 81       	ldd	r24, Y+2	; 0x02
    5024:	99 81       	ldd	r25, Y+1	; 0x01
    5026:	0e 94 b8 44 	call	0x8970	; 0x8970 <__udivdi3>
    502a:	20 93 90 42 	sts	0x4290, r18	; 0x804290 <RO_10000>
    502e:	30 93 91 42 	sts	0x4291, r19	; 0x804291 <RO_10000+0x1>
    5032:	40 93 92 42 	sts	0x4292, r20	; 0x804292 <RO_10000+0x2>
    5036:	50 93 93 42 	sts	0x4293, r21	; 0x804293 <RO_10000+0x3>
    503a:	60 93 94 42 	sts	0x4294, r22	; 0x804294 <RO_10000+0x4>
    503e:	70 93 95 42 	sts	0x4295, r23	; 0x804295 <RO_10000+0x5>
    5042:	80 93 96 42 	sts	0x4296, r24	; 0x804296 <RO_10000+0x6>
    5046:	90 93 97 42 	sts	0x4297, r25	; 0x804297 <RO_10000+0x7>
	RO_1000  = RO % 10000 / 1000;						// ΈκεΈΥεΉΖΑ RO  1000Ήζα ΉηΡΈου
    504a:	24 2d       	mov	r18, r4
    504c:	35 2d       	mov	r19, r5
    504e:	46 2d       	mov	r20, r6
    5050:	57 2d       	mov	r21, r7
    5052:	68 2d       	mov	r22, r8
    5054:	79 2d       	mov	r23, r9
    5056:	8a 81       	ldd	r24, Y+2	; 0x02
    5058:	99 81       	ldd	r25, Y+1	; 0x01
    505a:	0e 94 b6 44 	call	0x896c	; 0x896c <__umoddi3>
    505e:	0f 2e       	mov	r0, r31
    5060:	f8 ee       	ldi	r31, 0xE8	; 232
    5062:	af 2e       	mov	r10, r31
    5064:	f0 2d       	mov	r31, r0
    5066:	0f 2e       	mov	r0, r31
    5068:	f3 e0       	ldi	r31, 0x03	; 3
    506a:	bf 2e       	mov	r11, r31
    506c:	f0 2d       	mov	r31, r0
    506e:	0e 94 b8 44 	call	0x8970	; 0x8970 <__udivdi3>
    5072:	20 93 e4 43 	sts	0x43E4, r18	; 0x8043e4 <RO_1000>
    5076:	30 93 e5 43 	sts	0x43E5, r19	; 0x8043e5 <RO_1000+0x1>
    507a:	40 93 e6 43 	sts	0x43E6, r20	; 0x8043e6 <RO_1000+0x2>
    507e:	50 93 e7 43 	sts	0x43E7, r21	; 0x8043e7 <RO_1000+0x3>
    5082:	60 93 e8 43 	sts	0x43E8, r22	; 0x8043e8 <RO_1000+0x4>
    5086:	70 93 e9 43 	sts	0x43E9, r23	; 0x8043e9 <RO_1000+0x5>
    508a:	80 93 ea 43 	sts	0x43EA, r24	; 0x8043ea <RO_1000+0x6>
    508e:	90 93 eb 43 	sts	0x43EB, r25	; 0x8043eb <RO_1000+0x7>
	RO_100   = RO % 1000 / 100;						// ΈκεΈΥεΉΖΑ RO   100Ήζα ΉηΡΈου
    5092:	24 2d       	mov	r18, r4
    5094:	35 2d       	mov	r19, r5
    5096:	46 2d       	mov	r20, r6
    5098:	57 2d       	mov	r21, r7
    509a:	68 2d       	mov	r22, r8
    509c:	79 2d       	mov	r23, r9
    509e:	8a 81       	ldd	r24, Y+2	; 0x02
    50a0:	99 81       	ldd	r25, Y+1	; 0x01
    50a2:	0e 94 b6 44 	call	0x896c	; 0x896c <__umoddi3>
    50a6:	0f 2e       	mov	r0, r31
    50a8:	f4 e6       	ldi	r31, 0x64	; 100
    50aa:	af 2e       	mov	r10, r31
    50ac:	f0 2d       	mov	r31, r0
    50ae:	b1 2c       	mov	r11, r1
    50b0:	0e 94 b8 44 	call	0x8970	; 0x8970 <__udivdi3>
    50b4:	20 93 a8 42 	sts	0x42A8, r18	; 0x8042a8 <RO_100>
    50b8:	30 93 a9 42 	sts	0x42A9, r19	; 0x8042a9 <RO_100+0x1>
    50bc:	40 93 aa 42 	sts	0x42AA, r20	; 0x8042aa <RO_100+0x2>
    50c0:	50 93 ab 42 	sts	0x42AB, r21	; 0x8042ab <RO_100+0x3>
    50c4:	60 93 ac 42 	sts	0x42AC, r22	; 0x8042ac <RO_100+0x4>
    50c8:	70 93 ad 42 	sts	0x42AD, r23	; 0x8042ad <RO_100+0x5>
    50cc:	80 93 ae 42 	sts	0x42AE, r24	; 0x8042ae <RO_100+0x6>
    50d0:	90 93 af 42 	sts	0x42AF, r25	; 0x8042af <RO_100+0x7>
	RO_10    = RO % 100 / 10;						// ΈκεΈΥεΉΖΑ RO    10Ήζα ΉηΡΈου
    50d4:	24 2d       	mov	r18, r4
    50d6:	35 2d       	mov	r19, r5
    50d8:	46 2d       	mov	r20, r6
    50da:	57 2d       	mov	r21, r7
    50dc:	68 2d       	mov	r22, r8
    50de:	79 2d       	mov	r23, r9
    50e0:	8a 81       	ldd	r24, Y+2	; 0x02
    50e2:	99 81       	ldd	r25, Y+1	; 0x01
    50e4:	0e 94 b6 44 	call	0x896c	; 0x896c <__umoddi3>
    50e8:	0f 2e       	mov	r0, r31
    50ea:	fa e0       	ldi	r31, 0x0A	; 10
    50ec:	af 2e       	mov	r10, r31
    50ee:	f0 2d       	mov	r31, r0
    50f0:	0e 94 b8 44 	call	0x8970	; 0x8970 <__udivdi3>
    50f4:	20 93 73 42 	sts	0x4273, r18	; 0x804273 <RO_10>
    50f8:	30 93 74 42 	sts	0x4274, r19	; 0x804274 <RO_10+0x1>
    50fc:	40 93 75 42 	sts	0x4275, r20	; 0x804275 <RO_10+0x2>
    5100:	50 93 76 42 	sts	0x4276, r21	; 0x804276 <RO_10+0x3>
    5104:	60 93 77 42 	sts	0x4277, r22	; 0x804277 <RO_10+0x4>
    5108:	70 93 78 42 	sts	0x4278, r23	; 0x804278 <RO_10+0x5>
    510c:	80 93 79 42 	sts	0x4279, r24	; 0x804279 <RO_10+0x6>
    5110:	90 93 7a 42 	sts	0x427A, r25	; 0x80427a <RO_10+0x7>
	RO_1     = RO % 10;
    5114:	24 2d       	mov	r18, r4
    5116:	35 2d       	mov	r19, r5
    5118:	46 2d       	mov	r20, r6
    511a:	57 2d       	mov	r21, r7
    511c:	68 2d       	mov	r22, r8
    511e:	79 2d       	mov	r23, r9
    5120:	8a 81       	ldd	r24, Y+2	; 0x02
    5122:	99 81       	ldd	r25, Y+1	; 0x01
    5124:	0e 94 b6 44 	call	0x896c	; 0x896c <__umoddi3>
    5128:	20 93 df 42 	sts	0x42DF, r18	; 0x8042df <RO_1>
    512c:	30 93 e0 42 	sts	0x42E0, r19	; 0x8042e0 <RO_1+0x1>
    5130:	40 93 e1 42 	sts	0x42E1, r20	; 0x8042e1 <RO_1+0x2>
    5134:	50 93 e2 42 	sts	0x42E2, r21	; 0x8042e2 <RO_1+0x3>
    5138:	60 93 e3 42 	sts	0x42E3, r22	; 0x8042e3 <RO_1+0x4>
    513c:	70 93 e4 42 	sts	0x42E4, r23	; 0x8042e4 <RO_1+0x5>
    5140:	80 93 e5 42 	sts	0x42E5, r24	; 0x8042e5 <RO_1+0x6>
    5144:	90 93 e6 42 	sts	0x42E6, r25	; 0x8042e6 <RO_1+0x7>
}

//=================================================================================================
void Interval_Set(uint8_t Number)						// Interval ΉΕνΉιΧ
{
	uint32_t Value = 0;							// Value Έ│ΑΉΙα Ή┤ΙΆ╕░ΊβΦ
    5148:	1a 82       	std	Y+2, r1	; 0x02
    514a:	1b 82       	std	Y+3, r1	; 0x03
    514c:	1c 82       	std	Y+4, r1	; 0x04
    514e:	1d 82       	std	Y+5, r1	; 0x05
	RO_1000  = RO % 10000 / 1000;						// ΈκεΈΥεΉΖΑ RO  1000Ήζα ΉηΡΈου
	RO_100   = RO % 1000 / 100;						// ΈκεΈΥεΉΖΑ RO   100Ήζα ΉηΡΈου
	RO_10    = RO % 100 / 10;						// ΈκεΈΥεΉΖΑ RO    10Ήζα ΉηΡΈου
	RO_1     = RO % 10;
//-------------------------------------------------------------------------------------------------
	while(SET.Menu && SET.Select)						// ΈσΦΈΚ┤Ά░Α 1 Ήζ┤Έσ┤ Έ░αΈ│╡
    5150:	eb c1       	rjmp	.+982    	; 0x5528 <Interval_Set+0x65a>
	{
		Timer.RegExitTimer = 0;						// Έυ┤Ά▓ΝΉζα ΉΩ░ΉΗΞ Ή╕κΉιΧΉζΕ ΉεΕΊΧ┤ RegExitTimer Ή┤ΙΆ╕░ΊβΦ 
    5152:	10 92 5e 42 	sts	0x425E, r1	; 0x80425e <Timer+0x1>
    5156:	10 92 5f 42 	sts	0x425F, r1	; 0x80425f <Timer+0x2>

		if     (Number == 1) {Value_Count_1 = 0;}
    515a:	2e 81       	ldd	r18, Y+6	; 0x06
    515c:	21 30       	cpi	r18, 0x01	; 1
    515e:	19 f4       	brne	.+6      	; 0x5166 <Interval_Set+0x298>
    5160:	10 92 6a 42 	sts	0x426A, r1	; 0x80426a <Value_Count_1>
    5164:	0b c0       	rjmp	.+22     	; 0x517c <Interval_Set+0x2ae>
		else if(Number == 2) {Value_Count_2 = 0;}
    5166:	3e 81       	ldd	r19, Y+6	; 0x06
    5168:	32 30       	cpi	r19, 0x02	; 2
    516a:	19 f4       	brne	.+6      	; 0x5172 <Interval_Set+0x2a4>
    516c:	10 92 db 42 	sts	0x42DB, r1	; 0x8042db <Value_Count_2>
    5170:	05 c0       	rjmp	.+10     	; 0x517c <Interval_Set+0x2ae>
		else if(Number == 3) {Value_Count_3 = 0;}
    5172:	4e 81       	ldd	r20, Y+6	; 0x06
    5174:	43 30       	cpi	r20, 0x03	; 3
    5176:	11 f4       	brne	.+4      	; 0x517c <Interval_Set+0x2ae>
    5178:	10 92 de 42 	sts	0x42DE, r1	; 0x8042de <Value_Count_3>

		if(KEY.Buff)							// Key ΉηΖΈιξΉζ┤ ΉηΙΉε╝Έσ┤
    517c:	80 91 81 42 	lds	r24, 0x4281	; 0x804281 <KEY+0x1>
    5180:	88 23       	and	r24, r24
    5182:	09 f4       	brne	.+2      	; 0x5186 <Interval_Set+0x2b8>
    5184:	fd c0       	rjmp	.+506    	; 0x5380 <Interval_Set+0x4b2>
		{
			if     (KEY.Key == 1) {RO = RO + 10; KEY.Key = 0;}	// ΉΩΖ  Έ▓ΕΊΛ╝ Ήζ┤Έσ┤ RO Ά░Τ 1Ήζα ΉηΡΈου ΉοζΆ░Α
    5186:	80 91 82 42 	lds	r24, 0x4282	; 0x804282 <KEY+0x2>
    518a:	81 30       	cpi	r24, 0x01	; 1
    518c:	31 f5       	brne	.+76     	; 0x51da <Interval_Set+0x30c>
    518e:	20 91 08 42 	lds	r18, 0x4208	; 0x804208 <RO>
    5192:	30 91 09 42 	lds	r19, 0x4209	; 0x804209 <RO+0x1>
    5196:	40 91 0a 42 	lds	r20, 0x420A	; 0x80420a <RO+0x2>
    519a:	50 91 0b 42 	lds	r21, 0x420B	; 0x80420b <RO+0x3>
    519e:	60 91 0c 42 	lds	r22, 0x420C	; 0x80420c <RO+0x4>
    51a2:	70 91 0d 42 	lds	r23, 0x420D	; 0x80420d <RO+0x5>
    51a6:	80 91 0e 42 	lds	r24, 0x420E	; 0x80420e <RO+0x6>
    51aa:	90 91 0f 42 	lds	r25, 0x420F	; 0x80420f <RO+0x7>
    51ae:	aa e0       	ldi	r26, 0x0A	; 10
    51b0:	0e 94 37 45 	call	0x8a6e	; 0x8a6e <__adddi3_s8>
    51b4:	20 93 08 42 	sts	0x4208, r18	; 0x804208 <RO>
    51b8:	30 93 09 42 	sts	0x4209, r19	; 0x804209 <RO+0x1>
    51bc:	40 93 0a 42 	sts	0x420A, r20	; 0x80420a <RO+0x2>
    51c0:	50 93 0b 42 	sts	0x420B, r21	; 0x80420b <RO+0x3>
    51c4:	60 93 0c 42 	sts	0x420C, r22	; 0x80420c <RO+0x4>
    51c8:	70 93 0d 42 	sts	0x420D, r23	; 0x80420d <RO+0x5>
    51cc:	80 93 0e 42 	sts	0x420E, r24	; 0x80420e <RO+0x6>
    51d0:	90 93 0f 42 	sts	0x420F, r25	; 0x80420f <RO+0x7>
    51d4:	10 92 82 42 	sts	0x4282, r1	; 0x804282 <KEY+0x2>
    51d8:	29 c0       	rjmp	.+82     	; 0x522c <Interval_Set+0x35e>
			else if(KEY.Key == 3) {RO = RO - 10; KEY.Key = 0;}	// ΈΜνΉγ┤Έ▓ΕΊΛ╝ Ήζ┤Έσ┤ RO Ά░Τ 1Ήζα ΉηΡΈου Ά░ΡΉΗΝ
    51da:	80 91 82 42 	lds	r24, 0x4282	; 0x804282 <KEY+0x2>
    51de:	83 30       	cpi	r24, 0x03	; 3
    51e0:	29 f5       	brne	.+74     	; 0x522c <Interval_Set+0x35e>
    51e2:	20 91 08 42 	lds	r18, 0x4208	; 0x804208 <RO>
    51e6:	30 91 09 42 	lds	r19, 0x4209	; 0x804209 <RO+0x1>
    51ea:	40 91 0a 42 	lds	r20, 0x420A	; 0x80420a <RO+0x2>
    51ee:	50 91 0b 42 	lds	r21, 0x420B	; 0x80420b <RO+0x3>
    51f2:	60 91 0c 42 	lds	r22, 0x420C	; 0x80420c <RO+0x4>
    51f6:	70 91 0d 42 	lds	r23, 0x420D	; 0x80420d <RO+0x5>
    51fa:	80 91 0e 42 	lds	r24, 0x420E	; 0x80420e <RO+0x6>
    51fe:	90 91 0f 42 	lds	r25, 0x420F	; 0x80420f <RO+0x7>
    5202:	a6 ef       	ldi	r26, 0xF6	; 246
    5204:	0e 94 37 45 	call	0x8a6e	; 0x8a6e <__adddi3_s8>
    5208:	20 93 08 42 	sts	0x4208, r18	; 0x804208 <RO>
    520c:	30 93 09 42 	sts	0x4209, r19	; 0x804209 <RO+0x1>
    5210:	40 93 0a 42 	sts	0x420A, r20	; 0x80420a <RO+0x2>
    5214:	50 93 0b 42 	sts	0x420B, r21	; 0x80420b <RO+0x3>
    5218:	60 93 0c 42 	sts	0x420C, r22	; 0x80420c <RO+0x4>
    521c:	70 93 0d 42 	sts	0x420D, r23	; 0x80420d <RO+0x5>
    5220:	80 93 0e 42 	sts	0x420E, r24	; 0x80420e <RO+0x6>
    5224:	90 93 0f 42 	sts	0x420F, r25	; 0x80420f <RO+0x7>
    5228:	10 92 82 42 	sts	0x4282, r1	; 0x804282 <KEY+0x2>

			DIGIT[1][3] = fnd_tbl[RO / 10000];			// ΈκεΈΥεΉΖΑ RO 10000Ήζα ΉηΡΈου
    522c:	50 91 08 42 	lds	r21, 0x4208	; 0x804208 <RO>
    5230:	59 83       	std	Y+1, r21	; 0x01
    5232:	40 90 09 42 	lds	r4, 0x4209	; 0x804209 <RO+0x1>
    5236:	50 90 0a 42 	lds	r5, 0x420A	; 0x80420a <RO+0x2>
    523a:	60 90 0b 42 	lds	r6, 0x420B	; 0x80420b <RO+0x3>
    523e:	70 90 0c 42 	lds	r7, 0x420C	; 0x80420c <RO+0x4>
    5242:	80 90 0d 42 	lds	r8, 0x420D	; 0x80420d <RO+0x5>
    5246:	90 90 0e 42 	lds	r9, 0x420E	; 0x80420e <RO+0x6>
    524a:	80 91 0f 42 	lds	r24, 0x420F	; 0x80420f <RO+0x7>
    524e:	8f 83       	std	Y+7, r24	; 0x07
    5250:	68 94       	set
    5252:	aa 24       	eor	r10, r10
    5254:	a4 f8       	bld	r10, 4
    5256:	0f 2e       	mov	r0, r31
    5258:	f7 e2       	ldi	r31, 0x27	; 39
    525a:	bf 2e       	mov	r11, r31
    525c:	f0 2d       	mov	r31, r0
    525e:	c1 2c       	mov	r12, r1
    5260:	d1 2c       	mov	r13, r1
    5262:	e1 2c       	mov	r14, r1
    5264:	f1 2c       	mov	r15, r1
    5266:	00 e0       	ldi	r16, 0x00	; 0
    5268:	10 e0       	ldi	r17, 0x00	; 0
    526a:	25 2f       	mov	r18, r21
    526c:	34 2d       	mov	r19, r4
    526e:	45 2d       	mov	r20, r5
    5270:	56 2d       	mov	r21, r6
    5272:	67 2d       	mov	r22, r7
    5274:	78 2d       	mov	r23, r8
    5276:	89 2d       	mov	r24, r9
    5278:	9f 81       	ldd	r25, Y+7	; 0x07
    527a:	0e 94 b8 44 	call	0x8970	; 0x8970 <__udivdi3>
    527e:	02 2f       	mov	r16, r18
    5280:	13 2f       	mov	r17, r19
    5282:	f8 01       	movw	r30, r16
    5284:	e5 5c       	subi	r30, 0xC5	; 197
    5286:	fe 4b       	sbci	r31, 0xBE	; 190
    5288:	80 81       	ld	r24, Z
    528a:	0f 2e       	mov	r0, r31
    528c:	ff e6       	ldi	r31, 0x6F	; 111
    528e:	2f 2e       	mov	r2, r31
    5290:	f1 e4       	ldi	r31, 0x41	; 65
    5292:	3f 2e       	mov	r3, r31
    5294:	f0 2d       	mov	r31, r0
    5296:	d1 01       	movw	r26, r2
    5298:	17 96       	adiw	r26, 0x07	; 7
    529a:	8c 93       	st	X, r24
			DIGIT[1][2] = fnd_tbl[RO % 10000 / 1000];		// ΈκεΈΥεΉΖΑ RO  1000Ήζα ΉηΡΈου
    529c:	e1 2c       	mov	r14, r1
    529e:	f1 2c       	mov	r15, r1
    52a0:	00 e0       	ldi	r16, 0x00	; 0
    52a2:	10 e0       	ldi	r17, 0x00	; 0
    52a4:	29 81       	ldd	r18, Y+1	; 0x01
    52a6:	34 2d       	mov	r19, r4
    52a8:	45 2d       	mov	r20, r5
    52aa:	56 2d       	mov	r21, r6
    52ac:	67 2d       	mov	r22, r7
    52ae:	78 2d       	mov	r23, r8
    52b0:	89 2d       	mov	r24, r9
    52b2:	9f 81       	ldd	r25, Y+7	; 0x07
    52b4:	0e 94 b6 44 	call	0x896c	; 0x896c <__umoddi3>
    52b8:	0f 2e       	mov	r0, r31
    52ba:	f8 ee       	ldi	r31, 0xE8	; 232
    52bc:	af 2e       	mov	r10, r31
    52be:	f0 2d       	mov	r31, r0
    52c0:	0f 2e       	mov	r0, r31
    52c2:	f3 e0       	ldi	r31, 0x03	; 3
    52c4:	bf 2e       	mov	r11, r31
    52c6:	f0 2d       	mov	r31, r0
    52c8:	0e 94 b8 44 	call	0x8970	; 0x8970 <__udivdi3>
    52cc:	02 2f       	mov	r16, r18
    52ce:	13 2f       	mov	r17, r19
    52d0:	f8 01       	movw	r30, r16
    52d2:	e5 5c       	subi	r30, 0xC5	; 197
    52d4:	fe 4b       	sbci	r31, 0xBE	; 190
    52d6:	80 81       	ld	r24, Z
    52d8:	f1 01       	movw	r30, r2
    52da:	86 83       	std	Z+6, r24	; 0x06
			DIGIT[1][1] = fnd_tbl[RO % 1000 / 100 ];		// ΈκεΈΥεΉΖΑ RO   100Ήζα ΉηΡΈου
    52dc:	e1 2c       	mov	r14, r1
    52de:	f1 2c       	mov	r15, r1
    52e0:	00 e0       	ldi	r16, 0x00	; 0
    52e2:	10 e0       	ldi	r17, 0x00	; 0
    52e4:	29 81       	ldd	r18, Y+1	; 0x01
    52e6:	34 2d       	mov	r19, r4
    52e8:	45 2d       	mov	r20, r5
    52ea:	56 2d       	mov	r21, r6
    52ec:	67 2d       	mov	r22, r7
    52ee:	78 2d       	mov	r23, r8
    52f0:	89 2d       	mov	r24, r9
    52f2:	9f 81       	ldd	r25, Y+7	; 0x07
    52f4:	0e 94 b6 44 	call	0x896c	; 0x896c <__umoddi3>
    52f8:	0f 2e       	mov	r0, r31
    52fa:	f4 e6       	ldi	r31, 0x64	; 100
    52fc:	af 2e       	mov	r10, r31
    52fe:	f0 2d       	mov	r31, r0
    5300:	b1 2c       	mov	r11, r1
    5302:	0e 94 b8 44 	call	0x8970	; 0x8970 <__udivdi3>
    5306:	02 2f       	mov	r16, r18
    5308:	13 2f       	mov	r17, r19
    530a:	f8 01       	movw	r30, r16
    530c:	e5 5c       	subi	r30, 0xC5	; 197
    530e:	fe 4b       	sbci	r31, 0xBE	; 190
    5310:	80 81       	ld	r24, Z
    5312:	d1 01       	movw	r26, r2
    5314:	15 96       	adiw	r26, 0x05	; 5
    5316:	8c 93       	st	X, r24
			DIGIT[1][0] = fnd_tbl[RO % 100 / 10];			// ΈκεΈΥεΉΖΑ RO    10Ήζα ΉηΡΈου
    5318:	e1 2c       	mov	r14, r1
    531a:	f1 2c       	mov	r15, r1
    531c:	00 e0       	ldi	r16, 0x00	; 0
    531e:	10 e0       	ldi	r17, 0x00	; 0
    5320:	29 81       	ldd	r18, Y+1	; 0x01
    5322:	34 2d       	mov	r19, r4
    5324:	45 2d       	mov	r20, r5
    5326:	56 2d       	mov	r21, r6
    5328:	67 2d       	mov	r22, r7
    532a:	78 2d       	mov	r23, r8
    532c:	89 2d       	mov	r24, r9
    532e:	9f 81       	ldd	r25, Y+7	; 0x07
    5330:	0e 94 b6 44 	call	0x896c	; 0x896c <__umoddi3>
    5334:	0f 2e       	mov	r0, r31
    5336:	fa e0       	ldi	r31, 0x0A	; 10
    5338:	af 2e       	mov	r10, r31
    533a:	f0 2d       	mov	r31, r0
    533c:	0e 94 b8 44 	call	0x8970	; 0x8970 <__udivdi3>
    5340:	02 2f       	mov	r16, r18
    5342:	13 2f       	mov	r17, r19
    5344:	f8 01       	movw	r30, r16
    5346:	e5 5c       	subi	r30, 0xC5	; 197
    5348:	fe 4b       	sbci	r31, 0xBE	; 190
    534a:	80 81       	ld	r24, Z
    534c:	f1 01       	movw	r30, r2
    534e:	84 83       	std	Z+4, r24	; 0x04

			DIGIT[2][3] = fnd_tbl[RO % 10];				// ΈκεΈΥεΉΖΑ RO    1Ήζα ΉηΡΈου
    5350:	e1 2c       	mov	r14, r1
    5352:	f1 2c       	mov	r15, r1
    5354:	00 e0       	ldi	r16, 0x00	; 0
    5356:	10 e0       	ldi	r17, 0x00	; 0
    5358:	29 81       	ldd	r18, Y+1	; 0x01
    535a:	34 2d       	mov	r19, r4
    535c:	45 2d       	mov	r20, r5
    535e:	56 2d       	mov	r21, r6
    5360:	67 2d       	mov	r22, r7
    5362:	78 2d       	mov	r23, r8
    5364:	89 2d       	mov	r24, r9
    5366:	9f 81       	ldd	r25, Y+7	; 0x07
    5368:	0e 94 b6 44 	call	0x896c	; 0x896c <__umoddi3>
    536c:	39 83       	std	Y+1, r19	; 0x01
    536e:	02 2f       	mov	r16, r18
    5370:	13 2f       	mov	r17, r19
    5372:	f8 01       	movw	r30, r16
    5374:	e5 5c       	subi	r30, 0xC5	; 197
    5376:	fe 4b       	sbci	r31, 0xBE	; 190
    5378:	80 81       	ld	r24, Z
    537a:	d1 01       	movw	r26, r2
    537c:	1b 96       	adiw	r26, 0x0b	; 11
    537e:	8c 93       	st	X, r24
		}

		if     (Number == 1) {Cell_RO_1 = RO; Value = CELL.Value_1 = Read_Load_Cell(Number);}	// 1Έ▓Ι ΈκεΈΥεΉΖΑ Ή╕κΉιΧΆ░Τ
    5380:	be 81       	ldd	r27, Y+6	; 0x06
    5382:	b1 30       	cpi	r27, 0x01	; 1
    5384:	61 f5       	brne	.+88     	; 0x53de <Interval_Set+0x510>
    5386:	20 91 08 42 	lds	r18, 0x4208	; 0x804208 <RO>
    538a:	30 91 09 42 	lds	r19, 0x4209	; 0x804209 <RO+0x1>
    538e:	40 91 0a 42 	lds	r20, 0x420A	; 0x80420a <RO+0x2>
    5392:	50 91 0b 42 	lds	r21, 0x420B	; 0x80420b <RO+0x3>
    5396:	60 91 0c 42 	lds	r22, 0x420C	; 0x80420c <RO+0x4>
    539a:	70 91 0d 42 	lds	r23, 0x420D	; 0x80420d <RO+0x5>
    539e:	80 91 0e 42 	lds	r24, 0x420E	; 0x80420e <RO+0x6>
    53a2:	90 91 0f 42 	lds	r25, 0x420F	; 0x80420f <RO+0x7>
    53a6:	0e 94 34 3f 	call	0x7e68	; 0x7e68 <__floatundisf>
    53aa:	60 93 d1 41 	sts	0x41D1, r22	; 0x8041d1 <Cell_RO_1>
    53ae:	70 93 d2 41 	sts	0x41D2, r23	; 0x8041d2 <Cell_RO_1+0x1>
    53b2:	80 93 d3 41 	sts	0x41D3, r24	; 0x8041d3 <Cell_RO_1+0x2>
    53b6:	90 93 d4 41 	sts	0x41D4, r25	; 0x8041d4 <Cell_RO_1+0x3>
    53ba:	8e 81       	ldd	r24, Y+6	; 0x06
    53bc:	0e 94 ce 1c 	call	0x399c	; 0x399c <Read_Load_Cell>
    53c0:	a0 e0       	ldi	r26, 0x00	; 0
    53c2:	b0 e0       	ldi	r27, 0x00	; 0
    53c4:	80 93 1d 42 	sts	0x421D, r24	; 0x80421d <CELL+0xc>
    53c8:	90 93 1e 42 	sts	0x421E, r25	; 0x80421e <CELL+0xd>
    53cc:	a0 93 1f 42 	sts	0x421F, r26	; 0x80421f <CELL+0xe>
    53d0:	b0 93 20 42 	sts	0x4220, r27	; 0x804220 <CELL+0xf>
    53d4:	8a 83       	std	Y+2, r24	; 0x02
    53d6:	9b 83       	std	Y+3, r25	; 0x03
    53d8:	ac 83       	std	Y+4, r26	; 0x04
    53da:	bd 83       	std	Y+5, r27	; 0x05
    53dc:	5d c0       	rjmp	.+186    	; 0x5498 <Interval_Set+0x5ca>
		else if(Number == 2) {Cell_RO_2 = RO; Value = CELL.Value_2 = Read_Load_Cell(Number);}	// 2Έ▓Ι ΈκεΈΥεΉΖΑ Ή╕κΉιΧΆ░Τ
    53de:	ee 81       	ldd	r30, Y+6	; 0x06
    53e0:	e2 30       	cpi	r30, 0x02	; 2
    53e2:	61 f5       	brne	.+88     	; 0x543c <Interval_Set+0x56e>
    53e4:	20 91 08 42 	lds	r18, 0x4208	; 0x804208 <RO>
    53e8:	30 91 09 42 	lds	r19, 0x4209	; 0x804209 <RO+0x1>
    53ec:	40 91 0a 42 	lds	r20, 0x420A	; 0x80420a <RO+0x2>
    53f0:	50 91 0b 42 	lds	r21, 0x420B	; 0x80420b <RO+0x3>
    53f4:	60 91 0c 42 	lds	r22, 0x420C	; 0x80420c <RO+0x4>
    53f8:	70 91 0d 42 	lds	r23, 0x420D	; 0x80420d <RO+0x5>
    53fc:	80 91 0e 42 	lds	r24, 0x420E	; 0x80420e <RO+0x6>
    5400:	90 91 0f 42 	lds	r25, 0x420F	; 0x80420f <RO+0x7>
    5404:	0e 94 34 3f 	call	0x7e68	; 0x7e68 <__floatundisf>
    5408:	60 93 a0 41 	sts	0x41A0, r22	; 0x8041a0 <Cell_RO_2>
    540c:	70 93 a1 41 	sts	0x41A1, r23	; 0x8041a1 <Cell_RO_2+0x1>
    5410:	80 93 a2 41 	sts	0x41A2, r24	; 0x8041a2 <Cell_RO_2+0x2>
    5414:	90 93 a3 41 	sts	0x41A3, r25	; 0x8041a3 <Cell_RO_2+0x3>
    5418:	8e 81       	ldd	r24, Y+6	; 0x06
    541a:	0e 94 ce 1c 	call	0x399c	; 0x399c <Read_Load_Cell>
    541e:	a0 e0       	ldi	r26, 0x00	; 0
    5420:	b0 e0       	ldi	r27, 0x00	; 0
    5422:	80 93 21 42 	sts	0x4221, r24	; 0x804221 <CELL+0x10>
    5426:	90 93 22 42 	sts	0x4222, r25	; 0x804222 <CELL+0x11>
    542a:	a0 93 23 42 	sts	0x4223, r26	; 0x804223 <CELL+0x12>
    542e:	b0 93 24 42 	sts	0x4224, r27	; 0x804224 <CELL+0x13>
    5432:	8a 83       	std	Y+2, r24	; 0x02
    5434:	9b 83       	std	Y+3, r25	; 0x03
    5436:	ac 83       	std	Y+4, r26	; 0x04
    5438:	bd 83       	std	Y+5, r27	; 0x05
    543a:	2e c0       	rjmp	.+92     	; 0x5498 <Interval_Set+0x5ca>
		else if(Number == 3) {Cell_RO_3 = RO; Value = CELL.Value_3 = Read_Load_Cell(Number);}	// 3Έ▓Ι ΈκεΈΥεΉΖΑ Ή╕κΉιΧΆ░Τ
    543c:	fe 81       	ldd	r31, Y+6	; 0x06
    543e:	f3 30       	cpi	r31, 0x03	; 3
    5440:	59 f5       	brne	.+86     	; 0x5498 <Interval_Set+0x5ca>
    5442:	20 91 08 42 	lds	r18, 0x4208	; 0x804208 <RO>
    5446:	30 91 09 42 	lds	r19, 0x4209	; 0x804209 <RO+0x1>
    544a:	40 91 0a 42 	lds	r20, 0x420A	; 0x80420a <RO+0x2>
    544e:	50 91 0b 42 	lds	r21, 0x420B	; 0x80420b <RO+0x3>
    5452:	60 91 0c 42 	lds	r22, 0x420C	; 0x80420c <RO+0x4>
    5456:	70 91 0d 42 	lds	r23, 0x420D	; 0x80420d <RO+0x5>
    545a:	80 91 0e 42 	lds	r24, 0x420E	; 0x80420e <RO+0x6>
    545e:	90 91 0f 42 	lds	r25, 0x420F	; 0x80420f <RO+0x7>
    5462:	0e 94 34 3f 	call	0x7e68	; 0x7e68 <__floatundisf>
    5466:	60 93 db 41 	sts	0x41DB, r22	; 0x8041db <Cell_RO_3>
    546a:	70 93 dc 41 	sts	0x41DC, r23	; 0x8041dc <Cell_RO_3+0x1>
    546e:	80 93 dd 41 	sts	0x41DD, r24	; 0x8041dd <Cell_RO_3+0x2>
    5472:	90 93 de 41 	sts	0x41DE, r25	; 0x8041de <Cell_RO_3+0x3>
    5476:	8e 81       	ldd	r24, Y+6	; 0x06
    5478:	0e 94 ce 1c 	call	0x399c	; 0x399c <Read_Load_Cell>
    547c:	a0 e0       	ldi	r26, 0x00	; 0
    547e:	b0 e0       	ldi	r27, 0x00	; 0
    5480:	80 93 25 42 	sts	0x4225, r24	; 0x804225 <CELL+0x14>
    5484:	90 93 26 42 	sts	0x4226, r25	; 0x804226 <CELL+0x15>
    5488:	a0 93 27 42 	sts	0x4227, r26	; 0x804227 <CELL+0x16>
    548c:	b0 93 28 42 	sts	0x4228, r27	; 0x804228 <CELL+0x17>
    5490:	8a 83       	std	Y+2, r24	; 0x02
    5492:	9b 83       	std	Y+3, r25	; 0x03
    5494:	ac 83       	std	Y+4, r26	; 0x04
    5496:	bd 83       	std	Y+5, r27	; 0x05

		if(Value)							// Ή╕κΉιΧΉ▓┤ΉνΣΉζ┤ ΉηΙΉε╝Έσ┤
    5498:	ea 80       	ldd	r14, Y+2	; 0x02
    549a:	fb 80       	ldd	r15, Y+3	; 0x03
    549c:	0c 81       	ldd	r16, Y+4	; 0x04
    549e:	1d 81       	ldd	r17, Y+5	; 0x05
    54a0:	ef 28       	or	r14, r15
    54a2:	e0 2a       	or	r14, r16
    54a4:	e1 2a       	or	r14, r17
    54a6:	99 f1       	breq	.+102    	; 0x550e <Interval_Set+0x640>
		{
			if     (Number == 1) {CELL.Value_1 = CELL.Value_1; INT_Desplay(Number);}	// 1Έ▓Ι ΈκεΈΥεΉΖΑ Ήζ┤Έσ┤ Ή╕κΉιΧΉ▓┤ΉνΣ ΊΣεΉΜε
    54a8:	0e 81       	ldd	r16, Y+6	; 0x06
    54aa:	01 30       	cpi	r16, 0x01	; 1
    54ac:	71 f4       	brne	.+28     	; 0x54ca <Interval_Set+0x5fc>
    54ae:	e1 e1       	ldi	r30, 0x11	; 17
    54b0:	f2 e4       	ldi	r31, 0x42	; 66
    54b2:	84 85       	ldd	r24, Z+12	; 0x0c
    54b4:	95 85       	ldd	r25, Z+13	; 0x0d
    54b6:	a6 85       	ldd	r26, Z+14	; 0x0e
    54b8:	b7 85       	ldd	r27, Z+15	; 0x0f
    54ba:	84 87       	std	Z+12, r24	; 0x0c
    54bc:	95 87       	std	Z+13, r25	; 0x0d
    54be:	a6 87       	std	Z+14, r26	; 0x0e
    54c0:	b7 87       	std	Z+15, r27	; 0x0f
    54c2:	80 2f       	mov	r24, r16
    54c4:	0e 94 69 19 	call	0x32d2	; 0x32d2 <INT_Desplay>
    54c8:	2d c0       	rjmp	.+90     	; 0x5524 <Interval_Set+0x656>
			else if(Number == 2) {CELL.Value_2 = CELL.Value_2; INT_Desplay(Number);}	// 2Έ▓Ι ΈκεΈΥεΉΖΑ Ήζ┤Έσ┤ Ή╕κΉιΧΉ▓┤ΉνΣ ΊΣεΉΜε
    54ca:	1e 81       	ldd	r17, Y+6	; 0x06
    54cc:	12 30       	cpi	r17, 0x02	; 2
    54ce:	71 f4       	brne	.+28     	; 0x54ec <Interval_Set+0x61e>
    54d0:	e1 e1       	ldi	r30, 0x11	; 17
    54d2:	f2 e4       	ldi	r31, 0x42	; 66
    54d4:	80 89       	ldd	r24, Z+16	; 0x10
    54d6:	91 89       	ldd	r25, Z+17	; 0x11
    54d8:	a2 89       	ldd	r26, Z+18	; 0x12
    54da:	b3 89       	ldd	r27, Z+19	; 0x13
    54dc:	80 8b       	std	Z+16, r24	; 0x10
    54de:	91 8b       	std	Z+17, r25	; 0x11
    54e0:	a2 8b       	std	Z+18, r26	; 0x12
    54e2:	b3 8b       	std	Z+19, r27	; 0x13
    54e4:	81 2f       	mov	r24, r17
    54e6:	0e 94 69 19 	call	0x32d2	; 0x32d2 <INT_Desplay>
    54ea:	1c c0       	rjmp	.+56     	; 0x5524 <Interval_Set+0x656>
			else if(Number == 3) {CELL.Value_3 = CELL.Value_3; INT_Desplay(Number);}	// 3Έ▓Ι ΈκεΈΥεΉΖΑ Ήζ┤Έσ┤ Ή╕κΉιΧΉ▓┤ΉνΣ ΊΣεΉΜε
    54ec:	2e 81       	ldd	r18, Y+6	; 0x06
    54ee:	23 30       	cpi	r18, 0x03	; 3
    54f0:	c9 f4       	brne	.+50     	; 0x5524 <Interval_Set+0x656>
    54f2:	e1 e1       	ldi	r30, 0x11	; 17
    54f4:	f2 e4       	ldi	r31, 0x42	; 66
    54f6:	84 89       	ldd	r24, Z+20	; 0x14
    54f8:	95 89       	ldd	r25, Z+21	; 0x15
    54fa:	a6 89       	ldd	r26, Z+22	; 0x16
    54fc:	b7 89       	ldd	r27, Z+23	; 0x17
    54fe:	84 8b       	std	Z+20, r24	; 0x14
    5500:	95 8b       	std	Z+21, r25	; 0x15
    5502:	a6 8b       	std	Z+22, r26	; 0x16
    5504:	b7 8b       	std	Z+23, r27	; 0x17
    5506:	82 2f       	mov	r24, r18
    5508:	0e 94 69 19 	call	0x32d2	; 0x32d2 <INT_Desplay>
    550c:	0b c0       	rjmp	.+22     	; 0x5524 <Interval_Set+0x656>
		}
		else if(Value == 0) {INT_Desplay(Number);}			// Ή╕κΉιΧΉ▓┤ΉνΣΉζ┤ 0 Ήζ┤Έσ┤
    550e:	8a 81       	ldd	r24, Y+2	; 0x02
    5510:	9b 81       	ldd	r25, Y+3	; 0x03
    5512:	ac 81       	ldd	r26, Y+4	; 0x04
    5514:	bd 81       	ldd	r27, Y+5	; 0x05
    5516:	89 2b       	or	r24, r25
    5518:	8a 2b       	or	r24, r26
    551a:	8b 2b       	or	r24, r27
    551c:	19 f4       	brne	.+6      	; 0x5524 <Interval_Set+0x656>
    551e:	8e 81       	ldd	r24, Y+6	; 0x06
    5520:	0e 94 69 19 	call	0x32d2	; 0x32d2 <INT_Desplay>
		wdt_reset();							// ΉδΝΉ╣αΈΠΖ ΈουΉΖΜ
    5524:	0e 94 ef 0c 	call	0x19de	; 0x19de <wdt_reset>
	RO_1000  = RO % 10000 / 1000;						// ΈκεΈΥεΉΖΑ RO  1000Ήζα ΉηΡΈου
	RO_100   = RO % 1000 / 100;						// ΈκεΈΥεΉΖΑ RO   100Ήζα ΉηΡΈου
	RO_10    = RO % 100 / 10;						// ΈκεΈΥεΉΖΑ RO    10Ήζα ΉηΡΈου
	RO_1     = RO % 10;
//-------------------------------------------------------------------------------------------------
	while(SET.Menu && SET.Select)						// ΈσΦΈΚ┤Ά░Α 1 Ήζ┤Έσ┤ Έ░αΈ│╡
    5528:	80 91 05 42 	lds	r24, 0x4205	; 0x804205 <SET>
    552c:	88 23       	and	r24, r24
    552e:	21 f0       	breq	.+8      	; 0x5538 <Interval_Set+0x66a>
    5530:	80 91 06 42 	lds	r24, 0x4206	; 0x804206 <SET+0x1>
    5534:	81 11       	cpse	r24, r1
    5536:	0d ce       	rjmp	.-998    	; 0x5152 <Interval_Set+0x284>
			else if(Number == 3) {CELL.Value_3 = CELL.Value_3; INT_Desplay(Number);}	// 3Έ▓Ι ΈκεΈΥεΉΖΑ Ήζ┤Έσ┤ Ή╕κΉιΧΉ▓┤ΉνΣ ΊΣεΉΜε
		}
		else if(Value == 0) {INT_Desplay(Number);}			// Ή╕κΉιΧΉ▓┤ΉνΣΉζ┤ 0 Ήζ┤Έσ┤
		wdt_reset();							// ΉδΝΉ╣αΈΠΖ ΈουΉΖΜ
	}
	if     (Number == 1) {ee_write_dword(Cell_RO_1_Addr, RO);}		// 1Έ▓Ι ΈκεΈΥεΉΖΑ Ήζ┤Έσ┤ ΉιΧΆ▓σΉ╢εΈιξΆ░Τ ΉιΑΉηξ
    5538:	9e 81       	ldd	r25, Y+6	; 0x06
    553a:	91 30       	cpi	r25, 0x01	; 1
    553c:	69 f4       	brne	.+26     	; 0x5558 <Interval_Set+0x68a>
    553e:	40 91 08 42 	lds	r20, 0x4208	; 0x804208 <RO>
    5542:	50 91 09 42 	lds	r21, 0x4209	; 0x804209 <RO+0x1>
    5546:	60 91 0a 42 	lds	r22, 0x420A	; 0x80420a <RO+0x2>
    554a:	70 91 0b 42 	lds	r23, 0x420B	; 0x80420b <RO+0x3>
    554e:	86 e1       	ldi	r24, 0x16	; 22
    5550:	90 e0       	ldi	r25, 0x00	; 0
    5552:	0e 94 ac 13 	call	0x2758	; 0x2758 <ee_write_dword>
    5556:	1f c0       	rjmp	.+62     	; 0x5596 <Interval_Set+0x6c8>
	else if(Number == 2) {ee_write_dword(Cell_RO_2_Addr, RO);}		// 2Έ▓Ι ΈκεΈΥεΉΖΑ Ήζ┤Έσ┤ ΉιΧΆ▓σΉ╢εΈιξΆ░Τ ΉιΑΉηξ
    5558:	ae 81       	ldd	r26, Y+6	; 0x06
    555a:	a2 30       	cpi	r26, 0x02	; 2
    555c:	69 f4       	brne	.+26     	; 0x5578 <Interval_Set+0x6aa>
    555e:	40 91 08 42 	lds	r20, 0x4208	; 0x804208 <RO>
    5562:	50 91 09 42 	lds	r21, 0x4209	; 0x804209 <RO+0x1>
    5566:	60 91 0a 42 	lds	r22, 0x420A	; 0x80420a <RO+0x2>
    556a:	70 91 0b 42 	lds	r23, 0x420B	; 0x80420b <RO+0x3>
    556e:	8a e1       	ldi	r24, 0x1A	; 26
    5570:	90 e0       	ldi	r25, 0x00	; 0
    5572:	0e 94 ac 13 	call	0x2758	; 0x2758 <ee_write_dword>
    5576:	0f c0       	rjmp	.+30     	; 0x5596 <Interval_Set+0x6c8>
	else if(Number == 3) {ee_write_dword(Cell_RO_3_Addr, RO);}		// 3Έ▓Ι ΈκεΈΥεΉΖΑ Ήζ┤Έσ┤ ΉιΧΆ▓σΉ╢εΈιξΆ░Τ ΉιΑΉηξ
    5578:	be 81       	ldd	r27, Y+6	; 0x06
    557a:	b3 30       	cpi	r27, 0x03	; 3
    557c:	61 f4       	brne	.+24     	; 0x5596 <Interval_Set+0x6c8>
    557e:	40 91 08 42 	lds	r20, 0x4208	; 0x804208 <RO>
    5582:	50 91 09 42 	lds	r21, 0x4209	; 0x804209 <RO+0x1>
    5586:	60 91 0a 42 	lds	r22, 0x420A	; 0x80420a <RO+0x2>
    558a:	70 91 0b 42 	lds	r23, 0x420B	; 0x80420b <RO+0x3>
    558e:	8e e1       	ldi	r24, 0x1E	; 30
    5590:	90 e0       	ldi	r25, 0x00	; 0
    5592:	0e 94 ac 13 	call	0x2758	; 0x2758 <ee_write_dword>
}
    5596:	2e 96       	adiw	r28, 0x0e	; 14
    5598:	cd bf       	out	0x3d, r28	; 61
    559a:	de bf       	out	0x3e, r29	; 62
    559c:	df 91       	pop	r29
    559e:	cf 91       	pop	r28
    55a0:	1f 91       	pop	r17
    55a2:	0f 91       	pop	r16
    55a4:	ff 90       	pop	r15
    55a6:	ef 90       	pop	r14
    55a8:	df 90       	pop	r13
    55aa:	cf 90       	pop	r12
    55ac:	bf 90       	pop	r11
    55ae:	af 90       	pop	r10
    55b0:	9f 90       	pop	r9
    55b2:	8f 90       	pop	r8
    55b4:	7f 90       	pop	r7
    55b6:	6f 90       	pop	r6
    55b8:	5f 90       	pop	r5
    55ba:	4f 90       	pop	r4
    55bc:	3f 90       	pop	r3
    55be:	2f 90       	pop	r2
    55c0:	08 95       	ret

000055c2 <CAPA_Set>:

//=================================================================================================
void CAPA_Set(uint8_t Number)							// CAPA ΉΕνΉιΧ
{
    55c2:	8f 92       	push	r8
    55c4:	9f 92       	push	r9
    55c6:	af 92       	push	r10
    55c8:	bf 92       	push	r11
    55ca:	cf 92       	push	r12
    55cc:	df 92       	push	r13
    55ce:	ef 92       	push	r14
    55d0:	ff 92       	push	r15
    55d2:	0f 93       	push	r16
    55d4:	1f 93       	push	r17
    55d6:	cf 93       	push	r28
    55d8:	c8 2f       	mov	r28, r24
	DIGIT[2][0] = FND_OFF;							// ΈκεΈΥεΉΖΑ RO, ΉηΖΆ╡υΉ▓┤ΉνΣ 1Ήζα ΉηΡΈου ΉπΑΉγ░Ά╕░
    55da:	10 92 77 41 	sts	0x4177, r1	; 0x804177 <DIGIT+0x8>

	if     (Number == 1) {CAPA = ee_read_word(Cell_Capa_1_Addr);}		// 1Έ▓Ι ΈκεΈΥεΉΖΑ Ήζ┤Έσ┤ ΉγσΈθΚΆ░Τ Έ╢ΙΈθυΉανΆ╕░
    55de:	81 30       	cpi	r24, 0x01	; 1
    55e0:	79 f4       	brne	.+30     	; 0x5600 <CAPA_Set+0x3e>
    55e2:	8a e0       	ldi	r24, 0x0A	; 10
    55e4:	90 e0       	ldi	r25, 0x00	; 0
    55e6:	0e 94 54 13 	call	0x26a8	; 0x26a8 <ee_read_word>
    55ea:	a0 e0       	ldi	r26, 0x00	; 0
    55ec:	b0 e0       	ldi	r27, 0x00	; 0
    55ee:	80 93 fa 41 	sts	0x41FA, r24	; 0x8041fa <CAPA>
    55f2:	90 93 fb 41 	sts	0x41FB, r25	; 0x8041fb <CAPA+0x1>
    55f6:	a0 93 fc 41 	sts	0x41FC, r26	; 0x8041fc <CAPA+0x2>
    55fa:	b0 93 fd 41 	sts	0x41FD, r27	; 0x8041fd <CAPA+0x3>
    55fe:	21 c0       	rjmp	.+66     	; 0x5642 <CAPA_Set+0x80>
	else if(Number == 2) {CAPA = ee_read_word(Cell_Capa_2_Addr);}		// 2Έ▓Ι ΈκεΈΥεΉΖΑ Ήζ┤Έσ┤ ΉγσΈθΚΆ░Τ Έ╢ΙΈθυΉανΆ╕░
    5600:	82 30       	cpi	r24, 0x02	; 2
    5602:	79 f4       	brne	.+30     	; 0x5622 <CAPA_Set+0x60>
    5604:	8c e0       	ldi	r24, 0x0C	; 12
    5606:	90 e0       	ldi	r25, 0x00	; 0
    5608:	0e 94 54 13 	call	0x26a8	; 0x26a8 <ee_read_word>
    560c:	a0 e0       	ldi	r26, 0x00	; 0
    560e:	b0 e0       	ldi	r27, 0x00	; 0
    5610:	80 93 fa 41 	sts	0x41FA, r24	; 0x8041fa <CAPA>
    5614:	90 93 fb 41 	sts	0x41FB, r25	; 0x8041fb <CAPA+0x1>
    5618:	a0 93 fc 41 	sts	0x41FC, r26	; 0x8041fc <CAPA+0x2>
    561c:	b0 93 fd 41 	sts	0x41FD, r27	; 0x8041fd <CAPA+0x3>
    5620:	10 c0       	rjmp	.+32     	; 0x5642 <CAPA_Set+0x80>
	else if(Number == 3) {CAPA = ee_read_word(Cell_Capa_3_Addr);}		// 3Έ▓Ι ΈκεΈΥεΉΖΑ Ήζ┤Έσ┤ ΉγσΈθΚΆ░Τ Έ╢ΙΈθυΉανΆ╕░
    5622:	83 30       	cpi	r24, 0x03	; 3
    5624:	71 f4       	brne	.+28     	; 0x5642 <CAPA_Set+0x80>
    5626:	8e e0       	ldi	r24, 0x0E	; 14
    5628:	90 e0       	ldi	r25, 0x00	; 0
    562a:	0e 94 54 13 	call	0x26a8	; 0x26a8 <ee_read_word>
    562e:	a0 e0       	ldi	r26, 0x00	; 0
    5630:	b0 e0       	ldi	r27, 0x00	; 0
    5632:	80 93 fa 41 	sts	0x41FA, r24	; 0x8041fa <CAPA>
    5636:	90 93 fb 41 	sts	0x41FB, r25	; 0x8041fb <CAPA+0x1>
    563a:	a0 93 fc 41 	sts	0x41FC, r26	; 0x8041fc <CAPA+0x2>
    563e:	b0 93 fd 41 	sts	0x41FD, r27	; 0x8041fd <CAPA+0x3>
//-------------------------------------------------------------------------------------------------
	CAPA_1000 = CAPA / 1000;						// ΈκεΈΥεΉΖΑ CAPA 1000Ήζα ΉηΡΈου
    5642:	c0 90 fa 41 	lds	r12, 0x41FA	; 0x8041fa <CAPA>
    5646:	d0 90 fb 41 	lds	r13, 0x41FB	; 0x8041fb <CAPA+0x1>
    564a:	e0 90 fc 41 	lds	r14, 0x41FC	; 0x8041fc <CAPA+0x2>
    564e:	f0 90 fd 41 	lds	r15, 0x41FD	; 0x8041fd <CAPA+0x3>
    5652:	c7 01       	movw	r24, r14
    5654:	b6 01       	movw	r22, r12
    5656:	28 ee       	ldi	r18, 0xE8	; 232
    5658:	33 e0       	ldi	r19, 0x03	; 3
    565a:	40 e0       	ldi	r20, 0x00	; 0
    565c:	50 e0       	ldi	r21, 0x00	; 0
    565e:	0e 94 f9 43 	call	0x87f2	; 0x87f2 <__udivmodsi4>
    5662:	20 93 9f 41 	sts	0x419F, r18	; 0x80419f <CAPA_1000>
	CAPA_100  = CAPA % 1000 / 100;						// ΈκεΈΥεΉΖΑ CAPA 100Ήζα ΉηΡΈου
    5666:	0f 2e       	mov	r0, r31
    5668:	f4 e6       	ldi	r31, 0x64	; 100
    566a:	8f 2e       	mov	r8, r31
    566c:	91 2c       	mov	r9, r1
    566e:	a1 2c       	mov	r10, r1
    5670:	b1 2c       	mov	r11, r1
    5672:	f0 2d       	mov	r31, r0
    5674:	a5 01       	movw	r20, r10
    5676:	94 01       	movw	r18, r8
    5678:	0e 94 f9 43 	call	0x87f2	; 0x87f2 <__udivmodsi4>
    567c:	20 93 98 42 	sts	0x4298, r18	; 0x804298 <CAPA_100>
	CAPA_10   = CAPA % 100 / 10;						// ΈκεΈΥεΉΖΑ CAPA  10Ήζα ΉηΡΈου
    5680:	c7 01       	movw	r24, r14
    5682:	b6 01       	movw	r22, r12
    5684:	a5 01       	movw	r20, r10
    5686:	94 01       	movw	r18, r8
    5688:	0e 94 f9 43 	call	0x87f2	; 0x87f2 <__udivmodsi4>
    568c:	0f 2e       	mov	r0, r31
    568e:	fa e0       	ldi	r31, 0x0A	; 10
    5690:	8f 2e       	mov	r8, r31
    5692:	91 2c       	mov	r9, r1
    5694:	a1 2c       	mov	r10, r1
    5696:	b1 2c       	mov	r11, r1
    5698:	f0 2d       	mov	r31, r0
    569a:	a5 01       	movw	r20, r10
    569c:	94 01       	movw	r18, r8
    569e:	0e 94 f9 43 	call	0x87f2	; 0x87f2 <__udivmodsi4>
    56a2:	20 93 a4 42 	sts	0x42A4, r18	; 0x8042a4 <CAPA_10>
	CAPA_1    = CAPA % 10;							// ΈκεΈΥεΉΖΑ CAPA   1Ήζα ΉηΡΈου
    56a6:	c7 01       	movw	r24, r14
    56a8:	b6 01       	movw	r22, r12
    56aa:	a5 01       	movw	r20, r10
    56ac:	94 01       	movw	r18, r8
    56ae:	0e 94 f9 43 	call	0x87f2	; 0x87f2 <__udivmodsi4>
    56b2:	60 93 5a 42 	sts	0x425A, r22	; 0x80425a <CAPA_1>
//-------------------------------------------------------------------------------------------------
	while(SET.Menu)								// ΈσΦΈΚ┤Ά░Α 1 Ήζ┤Έσ┤ Έ░αΈ│╡
    56b6:	ff c0       	rjmp	.+510    	; 0x58b6 <CAPA_Set+0x2f4>
	{
		SET.Blink = 1;							// ΉηΡΈο┐ΉΙα Ά╣εΈ░ΧΉηΕ ΉΕνΉιΧ
    56b8:	81 e0       	ldi	r24, 0x01	; 1
    56ba:	80 93 07 42 	sts	0x4207, r24	; 0x804207 <SET+0x2>

		switch(KEY.Count)						// ΉΕιΊΔζ Key Ά░Α ΈΙΝΈο░ΊγθΉΙα
    56be:	80 91 80 42 	lds	r24, 0x4280	; 0x804280 <KEY>
    56c2:	82 30       	cpi	r24, 0x02	; 2
    56c4:	09 f4       	brne	.+2      	; 0x56c8 <CAPA_Set+0x106>
    56c6:	82 c0       	rjmp	.+260    	; 0x57cc <CAPA_Set+0x20a>
    56c8:	30 f4       	brcc	.+12     	; 0x56d6 <CAPA_Set+0x114>
    56ca:	88 23       	and	r24, r24
    56cc:	59 f0       	breq	.+22     	; 0x56e4 <CAPA_Set+0x122>
    56ce:	81 30       	cpi	r24, 0x01	; 1
    56d0:	09 f4       	brne	.+2      	; 0x56d4 <CAPA_Set+0x112>
    56d2:	42 c0       	rjmp	.+132    	; 0x5758 <CAPA_Set+0x196>
    56d4:	ee c0       	rjmp	.+476    	; 0x58b2 <CAPA_Set+0x2f0>
    56d6:	83 30       	cpi	r24, 0x03	; 3
    56d8:	09 f4       	brne	.+2      	; 0x56dc <CAPA_Set+0x11a>
    56da:	b2 c0       	rjmp	.+356    	; 0x5840 <CAPA_Set+0x27e>
    56dc:	84 30       	cpi	r24, 0x04	; 4
    56de:	09 f4       	brne	.+2      	; 0x56e2 <CAPA_Set+0x120>
    56e0:	e6 c0       	rjmp	.+460    	; 0x58ae <CAPA_Set+0x2ec>
    56e2:	e7 c0       	rjmp	.+462    	; 0x58b2 <CAPA_Set+0x2f0>
		{
			case 0:							// ΈκεΈΥεΉΖΑ CAPA 1000Ήζα ΉηΡΈου
				DIGIT[1][0] = fnd_tbl[CAPA_1];			// ΈκεΈΥεΉΖΑ CAPA    1Ήζα ΉηΡΈου ΊΣεΉΜε
    56e4:	e0 91 5a 42 	lds	r30, 0x425A	; 0x80425a <CAPA_1>
    56e8:	f0 e0       	ldi	r31, 0x00	; 0
    56ea:	e5 5c       	subi	r30, 0xC5	; 197
    56ec:	fe 4b       	sbci	r31, 0xBE	; 190
    56ee:	80 81       	ld	r24, Z
    56f0:	80 93 73 41 	sts	0x4173, r24	; 0x804173 <DIGIT+0x4>
				if(Blink) {DIGIT[1][3] = FND_OFF;}		// Blink = 1 Ήζ┤Έσ┤ ΈκεΈΥεΉΖΑ CAPA 100Ήζα ΉηΡΈου OFF
    56f4:	80 91 b0 42 	lds	r24, 0x42B0	; 0x8042b0 <Blink>
    56f8:	88 23       	and	r24, r24
    56fa:	19 f0       	breq	.+6      	; 0x5702 <CAPA_Set+0x140>
    56fc:	10 92 76 41 	sts	0x4176, r1	; 0x804176 <DIGIT+0x7>
    5700:	08 c0       	rjmp	.+16     	; 0x5712 <CAPA_Set+0x150>
				else	  {DIGIT[1][3] = fnd_tbl[CAPA_1000];}	// Blink = 0 Ήζ┤Έσ┤ ΈκεΈΥεΉΖΑ CAPA 100Ήζα ΉηΡΈου ΊΣεΉΜε
    5702:	e0 91 9f 41 	lds	r30, 0x419F	; 0x80419f <CAPA_1000>
    5706:	f0 e0       	ldi	r31, 0x00	; 0
    5708:	e5 5c       	subi	r30, 0xC5	; 197
    570a:	fe 4b       	sbci	r31, 0xBE	; 190
    570c:	80 81       	ld	r24, Z
    570e:	80 93 76 41 	sts	0x4176, r24	; 0x804176 <DIGIT+0x7>

				if(KEY.Buff)					// Key ΉηΖΈιξΉζ┤ ΉηΙΉε╝Έσ┤
    5712:	80 91 81 42 	lds	r24, 0x4281	; 0x804281 <KEY+0x1>
    5716:	88 23       	and	r24, r24
    5718:	09 f4       	brne	.+2      	; 0x571c <CAPA_Set+0x15a>
    571a:	cb c0       	rjmp	.+406    	; 0x58b2 <CAPA_Set+0x2f0>
				{
					if     (KEY.Key == 1 && CAPA_1000 < 1) {CAPA_1000++; KEY.Key = 0;}	// ΉΩΖ  Έ▓ΕΊΛ╝ Ήζ┤Έσ┤ CAPAΆ░Τ 1000Ήζα ΉηΡΈου ΉοζΆ░Α
    571c:	80 91 82 42 	lds	r24, 0x4282	; 0x804282 <KEY+0x2>
    5720:	81 30       	cpi	r24, 0x01	; 1
    5722:	51 f4       	brne	.+20     	; 0x5738 <CAPA_Set+0x176>
    5724:	80 91 9f 41 	lds	r24, 0x419F	; 0x80419f <CAPA_1000>
    5728:	81 11       	cpse	r24, r1
    572a:	06 c0       	rjmp	.+12     	; 0x5738 <CAPA_Set+0x176>
    572c:	8f 5f       	subi	r24, 0xFF	; 255
    572e:	80 93 9f 41 	sts	0x419F, r24	; 0x80419f <CAPA_1000>
    5732:	10 92 82 42 	sts	0x4282, r1	; 0x804282 <KEY+0x2>
    5736:	bd c0       	rjmp	.+378    	; 0x58b2 <CAPA_Set+0x2f0>
					else if(KEY.Key == 3 && CAPA_1000 > 0) {CAPA_1000--; KEY.Key = 0;}	// ΈΜνΉγ┤Έ▓ΕΊΛ╝ Ήζ┤Έσ┤ CAPAΆ░Τ 1000Ήζα ΉηΡΈου Ά░ΡΉΗΝ
    5738:	80 91 82 42 	lds	r24, 0x4282	; 0x804282 <KEY+0x2>
    573c:	83 30       	cpi	r24, 0x03	; 3
    573e:	09 f0       	breq	.+2      	; 0x5742 <CAPA_Set+0x180>
    5740:	b8 c0       	rjmp	.+368    	; 0x58b2 <CAPA_Set+0x2f0>
    5742:	80 91 9f 41 	lds	r24, 0x419F	; 0x80419f <CAPA_1000>
    5746:	88 23       	and	r24, r24
    5748:	09 f4       	brne	.+2      	; 0x574c <CAPA_Set+0x18a>
    574a:	b3 c0       	rjmp	.+358    	; 0x58b2 <CAPA_Set+0x2f0>
    574c:	81 50       	subi	r24, 0x01	; 1
    574e:	80 93 9f 41 	sts	0x419F, r24	; 0x80419f <CAPA_1000>
    5752:	10 92 82 42 	sts	0x4282, r1	; 0x804282 <KEY+0x2>
    5756:	ad c0       	rjmp	.+346    	; 0x58b2 <CAPA_Set+0x2f0>
				}
			break;

			case 1:							// ΈκεΈΥεΉΖΑ CAPA  100Ήζα ΉηΡΈου
				DIGIT[1][3] = fnd_tbl[CAPA_1000];		// ΈκεΈΥεΉΖΑ CAPA 1000Ήζα ΉηΡΈου ΊΣεΉΜε
    5758:	e0 91 9f 41 	lds	r30, 0x419F	; 0x80419f <CAPA_1000>
    575c:	f0 e0       	ldi	r31, 0x00	; 0
    575e:	e5 5c       	subi	r30, 0xC5	; 197
    5760:	fe 4b       	sbci	r31, 0xBE	; 190
    5762:	80 81       	ld	r24, Z
    5764:	80 93 76 41 	sts	0x4176, r24	; 0x804176 <DIGIT+0x7>
				if(Blink) {DIGIT[1][2] = FND_OFF;}		// Blink = 1 Ήζ┤Έσ┤ ΈκεΈΥεΉΖΑ CAPA 100Ήζα ΉηΡΈου OFF
    5768:	80 91 b0 42 	lds	r24, 0x42B0	; 0x8042b0 <Blink>
    576c:	88 23       	and	r24, r24
    576e:	19 f0       	breq	.+6      	; 0x5776 <CAPA_Set+0x1b4>
    5770:	10 92 75 41 	sts	0x4175, r1	; 0x804175 <DIGIT+0x6>
    5774:	08 c0       	rjmp	.+16     	; 0x5786 <CAPA_Set+0x1c4>
				else	  {DIGIT[1][2] = fnd_tbl[CAPA_100];}	// Blink = 0 Ήζ┤Έσ┤ ΈκεΈΥεΉΖΑ CAPA 100Ήζα ΉηΡΈου ΊΣεΉΜε
    5776:	e0 91 98 42 	lds	r30, 0x4298	; 0x804298 <CAPA_100>
    577a:	f0 e0       	ldi	r31, 0x00	; 0
    577c:	e5 5c       	subi	r30, 0xC5	; 197
    577e:	fe 4b       	sbci	r31, 0xBE	; 190
    5780:	80 81       	ld	r24, Z
    5782:	80 93 75 41 	sts	0x4175, r24	; 0x804175 <DIGIT+0x6>

				if(KEY.Buff)					// Key ΉηΖΈιξΉζ┤ ΉηΙΉε╝Έσ┤
    5786:	80 91 81 42 	lds	r24, 0x4281	; 0x804281 <KEY+0x1>
    578a:	88 23       	and	r24, r24
    578c:	09 f4       	brne	.+2      	; 0x5790 <CAPA_Set+0x1ce>
    578e:	91 c0       	rjmp	.+290    	; 0x58b2 <CAPA_Set+0x2f0>
				{
					if     (KEY.Key == 1 && CAPA_100 < 5) {CAPA_100++; KEY.Key = 0;}	// ΉΩΖ  Έ▓ΕΊΛ╝ Ήζ┤Έσ┤ CAPAΆ░Τ 100Ήζα ΉηΡΈου ΉοζΆ░Α
    5790:	80 91 82 42 	lds	r24, 0x4282	; 0x804282 <KEY+0x2>
    5794:	81 30       	cpi	r24, 0x01	; 1
    5796:	51 f4       	brne	.+20     	; 0x57ac <CAPA_Set+0x1ea>
    5798:	80 91 98 42 	lds	r24, 0x4298	; 0x804298 <CAPA_100>
    579c:	85 30       	cpi	r24, 0x05	; 5
    579e:	30 f4       	brcc	.+12     	; 0x57ac <CAPA_Set+0x1ea>
    57a0:	8f 5f       	subi	r24, 0xFF	; 255
    57a2:	80 93 98 42 	sts	0x4298, r24	; 0x804298 <CAPA_100>
    57a6:	10 92 82 42 	sts	0x4282, r1	; 0x804282 <KEY+0x2>
    57aa:	83 c0       	rjmp	.+262    	; 0x58b2 <CAPA_Set+0x2f0>
					else if(KEY.Key == 3 && CAPA_100 > 0) {CAPA_100--; KEY.Key = 0;}	// ΈΜνΉγ┤Έ▓ΕΊΛ╝ Ήζ┤Έσ┤ CAPAΆ░Τ 100Ήζα ΉηΡΈου Ά░ΡΉΗΝ
    57ac:	80 91 82 42 	lds	r24, 0x4282	; 0x804282 <KEY+0x2>
    57b0:	83 30       	cpi	r24, 0x03	; 3
    57b2:	09 f0       	breq	.+2      	; 0x57b6 <CAPA_Set+0x1f4>
    57b4:	7e c0       	rjmp	.+252    	; 0x58b2 <CAPA_Set+0x2f0>
    57b6:	80 91 98 42 	lds	r24, 0x4298	; 0x804298 <CAPA_100>
    57ba:	88 23       	and	r24, r24
    57bc:	09 f4       	brne	.+2      	; 0x57c0 <CAPA_Set+0x1fe>
    57be:	79 c0       	rjmp	.+242    	; 0x58b2 <CAPA_Set+0x2f0>
    57c0:	81 50       	subi	r24, 0x01	; 1
    57c2:	80 93 98 42 	sts	0x4298, r24	; 0x804298 <CAPA_100>
    57c6:	10 92 82 42 	sts	0x4282, r1	; 0x804282 <KEY+0x2>
    57ca:	73 c0       	rjmp	.+230    	; 0x58b2 <CAPA_Set+0x2f0>
				}
			break;

			case 2:							// ΈκεΈΥεΉΖΑ CAPA 10Ήζα ΉηΡΈου
				DIGIT[1][2] = fnd_tbl[CAPA_100];		// ΈκεΈΥεΉΖΑ CAPA 100Ήζα ΉηΡΈου ΊΣεΉΜε
    57cc:	e0 91 98 42 	lds	r30, 0x4298	; 0x804298 <CAPA_100>
    57d0:	f0 e0       	ldi	r31, 0x00	; 0
    57d2:	e5 5c       	subi	r30, 0xC5	; 197
    57d4:	fe 4b       	sbci	r31, 0xBE	; 190
    57d6:	80 81       	ld	r24, Z
    57d8:	80 93 75 41 	sts	0x4175, r24	; 0x804175 <DIGIT+0x6>
				if(Blink) {DIGIT[1][1] = FND_OFF;}		// Blink = 1 Ήζ┤Έσ┤ ΈκεΈΥεΉΖΑ CAPA 10Ήζα ΉηΡΈου OFF
    57dc:	80 91 b0 42 	lds	r24, 0x42B0	; 0x8042b0 <Blink>
    57e0:	88 23       	and	r24, r24
    57e2:	19 f0       	breq	.+6      	; 0x57ea <CAPA_Set+0x228>
    57e4:	10 92 74 41 	sts	0x4174, r1	; 0x804174 <DIGIT+0x5>
    57e8:	08 c0       	rjmp	.+16     	; 0x57fa <CAPA_Set+0x238>
				else	  {DIGIT[1][1] = fnd_tbl[CAPA_10];}	// Blink = 0 Ήζ┤Έσ┤ ΈκεΈΥεΉΖΑ CAPA 10Ήζα ΉηΡΈου ΊΣεΉΜε
    57ea:	e0 91 a4 42 	lds	r30, 0x42A4	; 0x8042a4 <CAPA_10>
    57ee:	f0 e0       	ldi	r31, 0x00	; 0
    57f0:	e5 5c       	subi	r30, 0xC5	; 197
    57f2:	fe 4b       	sbci	r31, 0xBE	; 190
    57f4:	80 81       	ld	r24, Z
    57f6:	80 93 74 41 	sts	0x4174, r24	; 0x804174 <DIGIT+0x5>

				if(KEY.Buff)					// Key ΉηΖΈιξΉζ┤ ΉηΙΉε╝Έσ┤
    57fa:	80 91 81 42 	lds	r24, 0x4281	; 0x804281 <KEY+0x1>
    57fe:	88 23       	and	r24, r24
    5800:	09 f4       	brne	.+2      	; 0x5804 <CAPA_Set+0x242>
    5802:	57 c0       	rjmp	.+174    	; 0x58b2 <CAPA_Set+0x2f0>
				{
					if     (KEY.Key == 1 && CAPA_10 < 9) {CAPA_10++; KEY.Key = 0;}	// ΉΩΖ  Έ▓ΕΊΛ╝ Ήζ┤Έσ┤ CAPAΆ░Τ 10Ήζα ΉηΡΈου ΉοζΆ░Α
    5804:	80 91 82 42 	lds	r24, 0x4282	; 0x804282 <KEY+0x2>
    5808:	81 30       	cpi	r24, 0x01	; 1
    580a:	51 f4       	brne	.+20     	; 0x5820 <CAPA_Set+0x25e>
    580c:	80 91 a4 42 	lds	r24, 0x42A4	; 0x8042a4 <CAPA_10>
    5810:	89 30       	cpi	r24, 0x09	; 9
    5812:	30 f4       	brcc	.+12     	; 0x5820 <CAPA_Set+0x25e>
    5814:	8f 5f       	subi	r24, 0xFF	; 255
    5816:	80 93 a4 42 	sts	0x42A4, r24	; 0x8042a4 <CAPA_10>
    581a:	10 92 82 42 	sts	0x4282, r1	; 0x804282 <KEY+0x2>
    581e:	49 c0       	rjmp	.+146    	; 0x58b2 <CAPA_Set+0x2f0>
					else if(KEY.Key == 3 && CAPA_10 > 0) {CAPA_10--; KEY.Key = 0;}	// ΈΜνΉγ┤Έ▓ΕΊΛ╝ Ήζ┤Έσ┤ CAPAΆ░Τ 10Ήζα ΉηΡΈου Ά░ΡΉΗΝ
    5820:	80 91 82 42 	lds	r24, 0x4282	; 0x804282 <KEY+0x2>
    5824:	83 30       	cpi	r24, 0x03	; 3
    5826:	09 f0       	breq	.+2      	; 0x582a <CAPA_Set+0x268>
    5828:	44 c0       	rjmp	.+136    	; 0x58b2 <CAPA_Set+0x2f0>
    582a:	80 91 a4 42 	lds	r24, 0x42A4	; 0x8042a4 <CAPA_10>
    582e:	88 23       	and	r24, r24
    5830:	09 f4       	brne	.+2      	; 0x5834 <CAPA_Set+0x272>
    5832:	3f c0       	rjmp	.+126    	; 0x58b2 <CAPA_Set+0x2f0>
    5834:	81 50       	subi	r24, 0x01	; 1
    5836:	80 93 a4 42 	sts	0x42A4, r24	; 0x8042a4 <CAPA_10>
    583a:	10 92 82 42 	sts	0x4282, r1	; 0x804282 <KEY+0x2>
    583e:	39 c0       	rjmp	.+114    	; 0x58b2 <CAPA_Set+0x2f0>
				}
			break;

			case 3:							// ΈκεΈΥεΉΖΑ CAPA 1Ήζα ΉηΡΈου
				DIGIT[1][1] = fnd_tbl[CAPA_10];			// ΈκεΈΥεΉΖΑ CAPA 10Ήζα ΉηΡΈου ΊΣεΉΜε
    5840:	e0 91 a4 42 	lds	r30, 0x42A4	; 0x8042a4 <CAPA_10>
    5844:	f0 e0       	ldi	r31, 0x00	; 0
    5846:	e5 5c       	subi	r30, 0xC5	; 197
    5848:	fe 4b       	sbci	r31, 0xBE	; 190
    584a:	80 81       	ld	r24, Z
    584c:	80 93 74 41 	sts	0x4174, r24	; 0x804174 <DIGIT+0x5>
				if(Blink) {DIGIT[1][0] = FND_OFF;}		// Blink = 1 Ήζ┤Έσ┤ ΈκεΈΥεΉΖΑ CAPA 1Ήζα ΉηΡΈου OFF
    5850:	80 91 b0 42 	lds	r24, 0x42B0	; 0x8042b0 <Blink>
    5854:	88 23       	and	r24, r24
    5856:	19 f0       	breq	.+6      	; 0x585e <CAPA_Set+0x29c>
    5858:	10 92 73 41 	sts	0x4173, r1	; 0x804173 <DIGIT+0x4>
    585c:	08 c0       	rjmp	.+16     	; 0x586e <CAPA_Set+0x2ac>
				else	  {DIGIT[1][0] = fnd_tbl[CAPA_1];}	// Blink = 0 Ήζ┤Έσ┤ ΈκεΈΥεΉΖΑ CAPA 1Ήζα ΉηΡΈου ΊΣεΉΜε
    585e:	e0 91 5a 42 	lds	r30, 0x425A	; 0x80425a <CAPA_1>
    5862:	f0 e0       	ldi	r31, 0x00	; 0
    5864:	e5 5c       	subi	r30, 0xC5	; 197
    5866:	fe 4b       	sbci	r31, 0xBE	; 190
    5868:	80 81       	ld	r24, Z
    586a:	80 93 73 41 	sts	0x4173, r24	; 0x804173 <DIGIT+0x4>

				if(KEY.Buff)					// Key ΉηΖΈιξΉζ┤ ΉηΙΉε╝Έσ┤
    586e:	80 91 81 42 	lds	r24, 0x4281	; 0x804281 <KEY+0x1>
    5872:	88 23       	and	r24, r24
    5874:	f1 f0       	breq	.+60     	; 0x58b2 <CAPA_Set+0x2f0>
				{
					if     (KEY.Key == 1 && CAPA_1 < 9) {CAPA_1++; KEY.Key = 0;}	// ΉΩΖ  Έ▓ΕΊΛ╝ Ήζ┤Έσ┤ CAPAΆ░Τ 1Ήζα ΉηΡΈου ΉοζΆ░Α
    5876:	80 91 82 42 	lds	r24, 0x4282	; 0x804282 <KEY+0x2>
    587a:	81 30       	cpi	r24, 0x01	; 1
    587c:	51 f4       	brne	.+20     	; 0x5892 <CAPA_Set+0x2d0>
    587e:	80 91 5a 42 	lds	r24, 0x425A	; 0x80425a <CAPA_1>
    5882:	89 30       	cpi	r24, 0x09	; 9
    5884:	30 f4       	brcc	.+12     	; 0x5892 <CAPA_Set+0x2d0>
    5886:	8f 5f       	subi	r24, 0xFF	; 255
    5888:	80 93 5a 42 	sts	0x425A, r24	; 0x80425a <CAPA_1>
    588c:	10 92 82 42 	sts	0x4282, r1	; 0x804282 <KEY+0x2>
    5890:	10 c0       	rjmp	.+32     	; 0x58b2 <CAPA_Set+0x2f0>
					else if(KEY.Key == 3 && CAPA_1 > 0) {CAPA_1--; KEY.Key = 0;}	// ΈΜνΉγ┤Έ▓ΕΊΛ╝ Ήζ┤Έσ┤ CAPAΆ░Τ 1Ήζα ΉηΡΈου Ά░ΡΉΗΝ
    5892:	80 91 82 42 	lds	r24, 0x4282	; 0x804282 <KEY+0x2>
    5896:	83 30       	cpi	r24, 0x03	; 3
    5898:	61 f4       	brne	.+24     	; 0x58b2 <CAPA_Set+0x2f0>
    589a:	80 91 5a 42 	lds	r24, 0x425A	; 0x80425a <CAPA_1>
    589e:	88 23       	and	r24, r24
    58a0:	41 f0       	breq	.+16     	; 0x58b2 <CAPA_Set+0x2f0>
    58a2:	81 50       	subi	r24, 0x01	; 1
    58a4:	80 93 5a 42 	sts	0x425A, r24	; 0x80425a <CAPA_1>
    58a8:	10 92 82 42 	sts	0x4282, r1	; 0x804282 <KEY+0x2>
    58ac:	02 c0       	rjmp	.+4      	; 0x58b2 <CAPA_Set+0x2f0>
				}
			break;

			case 4:
				KEY.Count = 0;					// Έ░αΈ│╡ΉζΕ ΉεΕΊΧ┤ CountΈξ╝ Ή╡εΉιΑΈκε Ά░ΡΉΗΝ ΉΜεΊΓ┤
    58ae:	10 92 80 42 	sts	0x4280, r1	; 0x804280 <KEY>
			break;
		}
		wdt_reset();							// ΉδΝΉ╣αΈΠΖ ΈουΉΖΜ
    58b2:	0e 94 ef 0c 	call	0x19de	; 0x19de <wdt_reset>
	CAPA_1000 = CAPA / 1000;						// ΈκεΈΥεΉΖΑ CAPA 1000Ήζα ΉηΡΈου
	CAPA_100  = CAPA % 1000 / 100;						// ΈκεΈΥεΉΖΑ CAPA 100Ήζα ΉηΡΈου
	CAPA_10   = CAPA % 100 / 10;						// ΈκεΈΥεΉΖΑ CAPA  10Ήζα ΉηΡΈου
	CAPA_1    = CAPA % 10;							// ΈκεΈΥεΉΖΑ CAPA   1Ήζα ΉηΡΈου
//-------------------------------------------------------------------------------------------------
	while(SET.Menu)								// ΈσΦΈΚ┤Ά░Α 1 Ήζ┤Έσ┤ Έ░αΈ│╡
    58b6:	80 91 05 42 	lds	r24, 0x4205	; 0x804205 <SET>
    58ba:	81 11       	cpse	r24, r1
    58bc:	fd ce       	rjmp	.-518    	; 0x56b8 <CAPA_Set+0xf6>
		}
		wdt_reset();							// ΉδΝΉ╣αΈΠΖ ΈουΉΖΜ
	}
//-------------------------------------------------------------------------------------------------
	CAPA = 0;
	CAPA += (CAPA_1000 * 1000);						// ΈκεΈΥεΉΖΑ CAPA 1000Ήζα ΉηΡΈου
    58be:	20 91 9f 41 	lds	r18, 0x419F	; 0x80419f <CAPA_1000>
    58c2:	88 ee       	ldi	r24, 0xE8	; 232
    58c4:	93 e0       	ldi	r25, 0x03	; 3
    58c6:	28 9f       	mul	r18, r24
    58c8:	a0 01       	movw	r20, r0
    58ca:	29 9f       	mul	r18, r25
    58cc:	50 0d       	add	r21, r0
    58ce:	11 24       	eor	r1, r1
    58d0:	8a 01       	movw	r16, r20
    58d2:	55 0f       	add	r21, r21
    58d4:	22 0b       	sbc	r18, r18
    58d6:	33 0b       	sbc	r19, r19
	CAPA += (CAPA_100  * 100);						// ΈκεΈΥεΉΖΑ CAPA  100Ήζα ΉηΡΈου
    58d8:	80 91 98 42 	lds	r24, 0x4298	; 0x804298 <CAPA_100>
    58dc:	44 e6       	ldi	r20, 0x64	; 100
    58de:	84 9f       	mul	r24, r20
    58e0:	c0 01       	movw	r24, r0
    58e2:	11 24       	eor	r1, r1
    58e4:	09 2e       	mov	r0, r25
    58e6:	00 0c       	add	r0, r0
    58e8:	aa 0b       	sbc	r26, r26
    58ea:	bb 0b       	sbc	r27, r27
    58ec:	ac 01       	movw	r20, r24
    58ee:	bd 01       	movw	r22, r26
    58f0:	40 0f       	add	r20, r16
    58f2:	51 1f       	adc	r21, r17
    58f4:	62 1f       	adc	r22, r18
    58f6:	73 1f       	adc	r23, r19
	CAPA += (CAPA_10   * 10);						// ΈκεΈΥεΉΖΑ CAPA   10Ήζα ΉηΡΈου
    58f8:	20 91 a4 42 	lds	r18, 0x42A4	; 0x8042a4 <CAPA_10>
    58fc:	30 e0       	ldi	r19, 0x00	; 0
    58fe:	c9 01       	movw	r24, r18
    5900:	88 0f       	add	r24, r24
    5902:	99 1f       	adc	r25, r25
    5904:	22 0f       	add	r18, r18
    5906:	33 1f       	adc	r19, r19
    5908:	22 0f       	add	r18, r18
    590a:	33 1f       	adc	r19, r19
    590c:	22 0f       	add	r18, r18
    590e:	33 1f       	adc	r19, r19
    5910:	82 0f       	add	r24, r18
    5912:	93 1f       	adc	r25, r19
    5914:	09 2e       	mov	r0, r25
    5916:	00 0c       	add	r0, r0
    5918:	aa 0b       	sbc	r26, r26
    591a:	bb 0b       	sbc	r27, r27
    591c:	84 0f       	add	r24, r20
    591e:	95 1f       	adc	r25, r21
    5920:	a6 1f       	adc	r26, r22
    5922:	b7 1f       	adc	r27, r23
	CAPA += (CAPA_1    * 1);						// ΈκεΈΥεΉΖΑ CAPA    1Ήζα ΉηΡΈου
    5924:	20 91 5a 42 	lds	r18, 0x425A	; 0x80425a <CAPA_1>
    5928:	bc 01       	movw	r22, r24
    592a:	cd 01       	movw	r24, r26
    592c:	62 0f       	add	r22, r18
    592e:	71 1d       	adc	r23, r1
    5930:	81 1d       	adc	r24, r1
    5932:	91 1d       	adc	r25, r1
    5934:	60 93 fa 41 	sts	0x41FA, r22	; 0x8041fa <CAPA>
    5938:	70 93 fb 41 	sts	0x41FB, r23	; 0x8041fb <CAPA+0x1>
    593c:	80 93 fc 41 	sts	0x41FC, r24	; 0x8041fc <CAPA+0x2>
    5940:	90 93 fd 41 	sts	0x41FD, r25	; 0x8041fd <CAPA+0x3>
//-------------------------------------------------------------------------------------------------
	if     (Number == 1) {ee_write_word(Cell_Capa_1_Addr, CAPA);}		// 1Έ▓Ι ΈκεΈΥεΉΖΑ Ήζ┤Έσ┤ ΉγσΈθΚΆ░Τ ΉιΑΉηξ
    5944:	c1 30       	cpi	r28, 0x01	; 1
    5946:	29 f4       	brne	.+10     	; 0x5952 <CAPA_Set+0x390>
    5948:	8a e0       	ldi	r24, 0x0A	; 10
    594a:	90 e0       	ldi	r25, 0x00	; 0
    594c:	0e 94 8f 13 	call	0x271e	; 0x271e <ee_write_word>
    5950:	0d c0       	rjmp	.+26     	; 0x596c <CAPA_Set+0x3aa>
	else if(Number == 2) {ee_write_word(Cell_Capa_2_Addr, CAPA);}		// 2Έ▓Ι ΈκεΈΥεΉΖΑ Ήζ┤Έσ┤ ΉγσΈθΚΆ░Τ ΉιΑΉηξ
    5952:	c2 30       	cpi	r28, 0x02	; 2
    5954:	29 f4       	brne	.+10     	; 0x5960 <CAPA_Set+0x39e>
    5956:	8c e0       	ldi	r24, 0x0C	; 12
    5958:	90 e0       	ldi	r25, 0x00	; 0
    595a:	0e 94 8f 13 	call	0x271e	; 0x271e <ee_write_word>
    595e:	06 c0       	rjmp	.+12     	; 0x596c <CAPA_Set+0x3aa>
	else if(Number == 3) {ee_write_word(Cell_Capa_3_Addr, CAPA);}		// 3Έ▓Ι ΈκεΈΥεΉΖΑ Ήζ┤Έσ┤ ΉγσΈθΚΆ░Τ ΉιΑΉηξ
    5960:	c3 30       	cpi	r28, 0x03	; 3
    5962:	21 f4       	brne	.+8      	; 0x596c <CAPA_Set+0x3aa>
    5964:	8e e0       	ldi	r24, 0x0E	; 14
    5966:	90 e0       	ldi	r25, 0x00	; 0
    5968:	0e 94 8f 13 	call	0x271e	; 0x271e <ee_write_word>

	SET.Menu = 1;								// Menu ΈςρΈΥε ΉειΉπΑ
    596c:	e5 e0       	ldi	r30, 0x05	; 5
    596e:	f2 e4       	ldi	r31, 0x42	; 66
    5970:	81 e0       	ldi	r24, 0x01	; 1
    5972:	80 83       	st	Z, r24
	SET.Select = 0;								// Select Έ▓ΕΊΛ╝ Ή┤ΙΆ╕░ΊβΦ
    5974:	11 82       	std	Z+1, r1	; 0x01
	SET.Blink = 0;								// ΉηΡΈο┐ΉΙα Ά╣εΈ░ΧΉηΕ Ή┤ΙΆ╕░ΊβΦ
    5976:	12 82       	std	Z+2, r1	; 0x02
	KEY.Count = 0;								// ΉΕιΊΔζ Key Ά░Α ΈΙΝΈο░ΊγθΉΙα Ή┤ΙΆ╕░ΊβΦ
    5978:	10 92 80 42 	sts	0x4280, r1	; 0x804280 <KEY>
}
    597c:	cf 91       	pop	r28
    597e:	1f 91       	pop	r17
    5980:	0f 91       	pop	r16
    5982:	ff 90       	pop	r15
    5984:	ef 90       	pop	r14
    5986:	df 90       	pop	r13
    5988:	cf 90       	pop	r12
    598a:	bf 90       	pop	r11
    598c:	af 90       	pop	r10
    598e:	9f 90       	pop	r9
    5990:	8f 90       	pop	r8
    5992:	08 95       	ret

00005994 <CNT_Set>:

//=================================================================================================
void CNT_Set(uint8_t Number)							// Ά░ψΉΙα ΉΕνΉιΧ
{
    5994:	cf 93       	push	r28
    5996:	c8 2f       	mov	r28, r24
	FND_Value_Data(0, 2, 12);						// FND 0 ~ 2 FND_OFF
    5998:	4c e0       	ldi	r20, 0x0C	; 12
    599a:	62 e0       	ldi	r22, 0x02	; 2
    599c:	80 e0       	ldi	r24, 0x00	; 0
    599e:	0e 94 d9 05 	call	0xbb2	; 0xbb2 <FND_Value_Data>

	while(SET.Menu && SET.Select)						// ΈσΦΈΚ┤ ΉβΑ ΉΕιΊΔζ Ήζ┤ ΈςρΈΣΡ 1 Ήζ┤Έσ┤ Έ░αΈ│╡
    59a2:	49 c0       	rjmp	.+146    	; 0x5a36 <CNT_Set+0xa2>
	{
		DIGIT[0][3] = FND_c;						// FND 0 ΉΩΡ cnt ΊΣεΉΜε
    59a4:	ef e6       	ldi	r30, 0x6F	; 111
    59a6:	f1 e4       	ldi	r31, 0x41	; 65
    59a8:	8a e1       	ldi	r24, 0x1A	; 26
    59aa:	83 83       	std	Z+3, r24	; 0x03
		DIGIT[0][2] = FND_n;
    59ac:	8a e2       	ldi	r24, 0x2A	; 42
    59ae:	82 83       	std	Z+2, r24	; 0x02
		DIGIT[0][1] = FND_t;
    59b0:	8e e1       	ldi	r24, 0x1E	; 30
    59b2:	81 83       	std	Z+1, r24	; 0x01
		DIGIT[0][0] = fnd_tbl[Number];					// FND 0 ΉΩΡ Cell Έ▓ΙΊα╕ ΊΣεΉΜε
    59b4:	ac 2f       	mov	r26, r28
    59b6:	b0 e0       	ldi	r27, 0x00	; 0
    59b8:	a5 5c       	subi	r26, 0xC5	; 197
    59ba:	be 4b       	sbci	r27, 0xBE	; 190
    59bc:	8c 91       	ld	r24, X
    59be:	80 83       	st	Z, r24

		DIGIT[1][3] = FND_OFF;						// FND 1 OFF
    59c0:	17 82       	std	Z+7, r1	; 0x07
		DIGIT[1][2] = FND_OFF;
    59c2:	16 82       	std	Z+6, r1	; 0x06
		DIGIT[1][1] = fnd_tbl[CNT / 10];				// FND 1 ΉΩΡ CNT Έ▓ΙΊα╕ ΊΣεΉΜε
    59c4:	20 91 a6 42 	lds	r18, 0x42A6	; 0x8042a6 <CNT>
    59c8:	8d ec       	ldi	r24, 0xCD	; 205
    59ca:	28 9f       	mul	r18, r24
    59cc:	81 2d       	mov	r24, r1
    59ce:	11 24       	eor	r1, r1
    59d0:	86 95       	lsr	r24
    59d2:	86 95       	lsr	r24
    59d4:	86 95       	lsr	r24
    59d6:	a8 2f       	mov	r26, r24
    59d8:	b0 e0       	ldi	r27, 0x00	; 0
    59da:	a5 5c       	subi	r26, 0xC5	; 197
    59dc:	be 4b       	sbci	r27, 0xBE	; 190
    59de:	9c 91       	ld	r25, X
    59e0:	95 83       	std	Z+5, r25	; 0x05
		DIGIT[1][0] = fnd_tbl[CNT % 10];
    59e2:	88 0f       	add	r24, r24
    59e4:	98 2f       	mov	r25, r24
    59e6:	99 0f       	add	r25, r25
    59e8:	99 0f       	add	r25, r25
    59ea:	89 0f       	add	r24, r25
    59ec:	a2 2f       	mov	r26, r18
    59ee:	a8 1b       	sub	r26, r24
    59f0:	b0 e0       	ldi	r27, 0x00	; 0
    59f2:	a5 5c       	subi	r26, 0xC5	; 197
    59f4:	be 4b       	sbci	r27, 0xBE	; 190
    59f6:	8c 91       	ld	r24, X
    59f8:	84 83       	std	Z+4, r24	; 0x04

		DIGIT[2][0] = FND_OFF;						// ΈκεΈΥεΉΖΑ RO, ΉηΖΆ╡υΉ▓┤ΉνΣ 1Ήζα ΉηΡΈου ΉπΑΉγ░Ά╕░
    59fa:	10 86       	std	Z+8, r1	; 0x08

		if(KEY.Buff)							// Key ΉηΖΈιξΉζ┤ ΉηΙΉε╝Έσ┤
    59fc:	80 91 81 42 	lds	r24, 0x4281	; 0x804281 <KEY+0x1>
    5a00:	88 23       	and	r24, r24
    5a02:	b9 f0       	breq	.+46     	; 0x5a32 <CNT_Set+0x9e>
		{
			if     (KEY.Key == 1 && CNT < 4) {CNT = CNT * 2; KEY.Key = 0;}	// ΉΩΖ  Έ▓ΕΊΛ╝ Ήζ┤Έσ┤ Ά░ψΉΙα ΉΕνΉιΧΆ░Τ ΉοζΆ░Α
    5a04:	80 91 82 42 	lds	r24, 0x4282	; 0x804282 <KEY+0x2>
    5a08:	81 30       	cpi	r24, 0x01	; 1
    5a0a:	41 f4       	brne	.+16     	; 0x5a1c <CNT_Set+0x88>
    5a0c:	24 30       	cpi	r18, 0x04	; 4
    5a0e:	30 f4       	brcc	.+12     	; 0x5a1c <CNT_Set+0x88>
    5a10:	22 0f       	add	r18, r18
    5a12:	20 93 a6 42 	sts	0x42A6, r18	; 0x8042a6 <CNT>
    5a16:	10 92 82 42 	sts	0x4282, r1	; 0x804282 <KEY+0x2>
    5a1a:	0b c0       	rjmp	.+22     	; 0x5a32 <CNT_Set+0x9e>
			else if(KEY.Key == 3 && CNT > 1) {CNT = CNT / 2; KEY.Key = 0;}	// ΈΜνΉγ┤Έ▓ΕΊΛ╝ Ήζ┤Έσ┤ Ά░ψΉΙα ΉΕνΉιΧΆ░Τ Ά░ΡΉΗΝ
    5a1c:	80 91 82 42 	lds	r24, 0x4282	; 0x804282 <KEY+0x2>
    5a20:	83 30       	cpi	r24, 0x03	; 3
    5a22:	39 f4       	brne	.+14     	; 0x5a32 <CNT_Set+0x9e>
    5a24:	22 30       	cpi	r18, 0x02	; 2
    5a26:	28 f0       	brcs	.+10     	; 0x5a32 <CNT_Set+0x9e>
    5a28:	26 95       	lsr	r18
    5a2a:	20 93 a6 42 	sts	0x42A6, r18	; 0x8042a6 <CNT>
    5a2e:	10 92 82 42 	sts	0x4282, r1	; 0x804282 <KEY+0x2>
		}
		wdt_reset();							// ΉδΝΉ╣αΈΠΖ ΈουΉΖΜ
    5a32:	0e 94 ef 0c 	call	0x19de	; 0x19de <wdt_reset>
//=================================================================================================
void CNT_Set(uint8_t Number)							// Ά░ψΉΙα ΉΕνΉιΧ
{
	FND_Value_Data(0, 2, 12);						// FND 0 ~ 2 FND_OFF

	while(SET.Menu && SET.Select)						// ΈσΦΈΚ┤ ΉβΑ ΉΕιΊΔζ Ήζ┤ ΈςρΈΣΡ 1 Ήζ┤Έσ┤ Έ░αΈ│╡
    5a36:	80 91 05 42 	lds	r24, 0x4205	; 0x804205 <SET>
    5a3a:	88 23       	and	r24, r24
    5a3c:	21 f0       	breq	.+8      	; 0x5a46 <CNT_Set+0xb2>
    5a3e:	80 91 06 42 	lds	r24, 0x4206	; 0x804206 <SET+0x1>
    5a42:	81 11       	cpse	r24, r1
    5a44:	af cf       	rjmp	.-162    	; 0x59a4 <CNT_Set+0x10>
			else if(KEY.Key == 3 && CNT > 1) {CNT = CNT / 2; KEY.Key = 0;}	// ΈΜνΉγ┤Έ▓ΕΊΛ╝ Ήζ┤Έσ┤ Ά░ψΉΙα ΉΕνΉιΧΆ░Τ Ά░ΡΉΗΝ
		}
		wdt_reset();							// ΉδΝΉ╣αΈΠΖ ΈουΉΖΜ
	}
//-------------------------------------------------------------------------------------------------
	if     (Number == 1) {ee_write_byte(Cell_CNT_1_Addr, CNT);}		// 1Έ▓Ι ΈκεΈΥεΉΖΑ Ήζ┤Έσ┤ Ά░ψΉΙα ΉΕνΉιΧΆ░ΤΉζΕ EEPROM ΉΩΡ ΉιΑΉηξ
    5a46:	c1 30       	cpi	r28, 0x01	; 1
    5a48:	39 f4       	brne	.+14     	; 0x5a58 <CNT_Set+0xc4>
    5a4a:	60 91 a6 42 	lds	r22, 0x42A6	; 0x8042a6 <CNT>
    5a4e:	87 e0       	ldi	r24, 0x07	; 7
    5a50:	90 e0       	ldi	r25, 0x00	; 0
    5a52:	0e 94 6c 13 	call	0x26d8	; 0x26d8 <ee_write_byte>
    5a56:	11 c0       	rjmp	.+34     	; 0x5a7a <CNT_Set+0xe6>
	else if(Number == 2) {ee_write_byte(Cell_CNT_2_Addr, CNT);}		// 2Έ▓Ι ΈκεΈΥεΉΖΑ Ήζ┤Έσ┤ Ά░ψΉΙα ΉΕνΉιΧΆ░ΤΉζΕ EEPROM ΉΩΡ ΉιΑΉηξ
    5a58:	c2 30       	cpi	r28, 0x02	; 2
    5a5a:	39 f4       	brne	.+14     	; 0x5a6a <CNT_Set+0xd6>
    5a5c:	60 91 a6 42 	lds	r22, 0x42A6	; 0x8042a6 <CNT>
    5a60:	88 e0       	ldi	r24, 0x08	; 8
    5a62:	90 e0       	ldi	r25, 0x00	; 0
    5a64:	0e 94 6c 13 	call	0x26d8	; 0x26d8 <ee_write_byte>
    5a68:	08 c0       	rjmp	.+16     	; 0x5a7a <CNT_Set+0xe6>
	else if(Number == 3) {ee_write_byte(Cell_CNT_3_Addr, CNT);}		// 3Έ▓Ι ΈκεΈΥεΉΖΑ Ήζ┤Έσ┤ Ά░ψΉΙα ΉΕνΉιΧΆ░ΤΉζΕ EEPROM ΉΩΡ ΉιΑΉηξ
    5a6a:	c3 30       	cpi	r28, 0x03	; 3
    5a6c:	31 f4       	brne	.+12     	; 0x5a7a <CNT_Set+0xe6>
    5a6e:	60 91 a6 42 	lds	r22, 0x42A6	; 0x8042a6 <CNT>
    5a72:	89 e0       	ldi	r24, 0x09	; 9
    5a74:	90 e0       	ldi	r25, 0x00	; 0
    5a76:	0e 94 6c 13 	call	0x26d8	; 0x26d8 <ee_write_byte>
}
    5a7a:	cf 91       	pop	r28
    5a7c:	08 95       	ret

00005a7e <ID_Set>:

//=================================================================================================
void ID_Set(uint8_t Number)							// ID ΉΕνΉιΧ
{
    5a7e:	cf 93       	push	r28
    5a80:	c8 2f       	mov	r28, r24
	FND_Value_Data(0, 2, 12);						// FND 0 ~ 2 FND_OFF
    5a82:	4c e0       	ldi	r20, 0x0C	; 12
    5a84:	62 e0       	ldi	r22, 0x02	; 2
    5a86:	80 e0       	ldi	r24, 0x00	; 0
    5a88:	0e 94 d9 05 	call	0xbb2	; 0xbb2 <FND_Value_Data>

	while(SET.Menu && SET.Select)						// ΈσΦΈΚ┤ ΉβΑ ΉΕιΊΔζ Ήζ┤ ΈςρΈΣΡ 1 Ήζ┤Έσ┤ Έ░αΈ│╡
    5a8c:	49 c0       	rjmp	.+146    	; 0x5b20 <ID_Set+0xa2>
	{
		DIGIT[0][3] = FND_I;						// FND 0 ΉΩΡ ID ΊΣεΉΜε
    5a8e:	ef e6       	ldi	r30, 0x6F	; 111
    5a90:	f1 e4       	ldi	r31, 0x41	; 65
    5a92:	80 e6       	ldi	r24, 0x60	; 96
    5a94:	83 83       	std	Z+3, r24	; 0x03
		DIGIT[0][2] = FND_d;
    5a96:	8a e7       	ldi	r24, 0x7A	; 122
    5a98:	82 83       	std	Z+2, r24	; 0x02
		DIGIT[0][1] = FND_MINUS;
    5a9a:	82 e0       	ldi	r24, 0x02	; 2
    5a9c:	81 83       	std	Z+1, r24	; 0x01
		DIGIT[0][0] = fnd_tbl[Number];					// FND 0 ΉΩΡ Cell Έ▓ΙΊα╕ ΊΣεΉΜε
    5a9e:	ac 2f       	mov	r26, r28
    5aa0:	b0 e0       	ldi	r27, 0x00	; 0
    5aa2:	a5 5c       	subi	r26, 0xC5	; 197
    5aa4:	be 4b       	sbci	r27, 0xBE	; 190
    5aa6:	8c 91       	ld	r24, X
    5aa8:	80 83       	st	Z, r24

		DIGIT[1][3] = FND_OFF;						// FND 1 OFF
    5aaa:	17 82       	std	Z+7, r1	; 0x07
		DIGIT[1][2] = FND_OFF;
    5aac:	16 82       	std	Z+6, r1	; 0x06
		DIGIT[1][1] = fnd_tbl[ID / 10];					// FND 1 ΉΩΡ ID Έ▓ΙΊα╕ ΊΣεΉΜε
    5aae:	20 91 df 41 	lds	r18, 0x41DF	; 0x8041df <ID>
    5ab2:	8d ec       	ldi	r24, 0xCD	; 205
    5ab4:	28 9f       	mul	r18, r24
    5ab6:	81 2d       	mov	r24, r1
    5ab8:	11 24       	eor	r1, r1
    5aba:	86 95       	lsr	r24
    5abc:	86 95       	lsr	r24
    5abe:	86 95       	lsr	r24
    5ac0:	a8 2f       	mov	r26, r24
    5ac2:	b0 e0       	ldi	r27, 0x00	; 0
    5ac4:	a5 5c       	subi	r26, 0xC5	; 197
    5ac6:	be 4b       	sbci	r27, 0xBE	; 190
    5ac8:	9c 91       	ld	r25, X
    5aca:	95 83       	std	Z+5, r25	; 0x05
		DIGIT[1][0] = fnd_tbl[ID % 10];
    5acc:	88 0f       	add	r24, r24
    5ace:	98 2f       	mov	r25, r24
    5ad0:	99 0f       	add	r25, r25
    5ad2:	99 0f       	add	r25, r25
    5ad4:	89 0f       	add	r24, r25
    5ad6:	a2 2f       	mov	r26, r18
    5ad8:	a8 1b       	sub	r26, r24
    5ada:	b0 e0       	ldi	r27, 0x00	; 0
    5adc:	a5 5c       	subi	r26, 0xC5	; 197
    5ade:	be 4b       	sbci	r27, 0xBE	; 190
    5ae0:	8c 91       	ld	r24, X
    5ae2:	84 83       	std	Z+4, r24	; 0x04

		DIGIT[2][0] = FND_OFF;						// ΈκεΈΥεΉΖΑ RO, ΉηΖΆ╡υΉ▓┤ΉνΣ 1Ήζα ΉηΡΈου ΉπΑΉγ░Ά╕░
    5ae4:	10 86       	std	Z+8, r1	; 0x08

		if(KEY.Buff)							// Key ΉηΖΈιξΉζ┤ ΉηΙΉε╝Έσ┤
    5ae6:	80 91 81 42 	lds	r24, 0x4281	; 0x804281 <KEY+0x1>
    5aea:	88 23       	and	r24, r24
    5aec:	b9 f0       	breq	.+46     	; 0x5b1c <ID_Set+0x9e>
		{
			if     (KEY.Key == 1 && ID < 60) {ID++; KEY.Key = 0;}	// ΉΩΖ  Έ▓ΕΊΛ╝ Ήζ┤Έσ┤ IDΆ░Τ ΉοζΆ░Α
    5aee:	80 91 82 42 	lds	r24, 0x4282	; 0x804282 <KEY+0x2>
    5af2:	81 30       	cpi	r24, 0x01	; 1
    5af4:	41 f4       	brne	.+16     	; 0x5b06 <ID_Set+0x88>
    5af6:	2c 33       	cpi	r18, 0x3C	; 60
    5af8:	30 f4       	brcc	.+12     	; 0x5b06 <ID_Set+0x88>
    5afa:	2f 5f       	subi	r18, 0xFF	; 255
    5afc:	20 93 df 41 	sts	0x41DF, r18	; 0x8041df <ID>
    5b00:	10 92 82 42 	sts	0x4282, r1	; 0x804282 <KEY+0x2>
    5b04:	0b c0       	rjmp	.+22     	; 0x5b1c <ID_Set+0x9e>
			else if(KEY.Key == 3 && ID > 0)  {ID--; KEY.Key = 0;}	// ΈΜνΉγ┤Έ▓ΕΊΛ╝ Ήζ┤Έσ┤ IDΆ░Τ Ά░ΡΉΗΝ
    5b06:	80 91 82 42 	lds	r24, 0x4282	; 0x804282 <KEY+0x2>
    5b0a:	83 30       	cpi	r24, 0x03	; 3
    5b0c:	39 f4       	brne	.+14     	; 0x5b1c <ID_Set+0x9e>
    5b0e:	22 23       	and	r18, r18
    5b10:	29 f0       	breq	.+10     	; 0x5b1c <ID_Set+0x9e>
    5b12:	21 50       	subi	r18, 0x01	; 1
    5b14:	20 93 df 41 	sts	0x41DF, r18	; 0x8041df <ID>
    5b18:	10 92 82 42 	sts	0x4282, r1	; 0x804282 <KEY+0x2>
		}
		wdt_reset();							// ΉδΝΉ╣αΈΠΖ ΈουΉΖΜ
    5b1c:	0e 94 ef 0c 	call	0x19de	; 0x19de <wdt_reset>
//=================================================================================================
void ID_Set(uint8_t Number)							// ID ΉΕνΉιΧ
{
	FND_Value_Data(0, 2, 12);						// FND 0 ~ 2 FND_OFF

	while(SET.Menu && SET.Select)						// ΈσΦΈΚ┤ ΉβΑ ΉΕιΊΔζ Ήζ┤ ΈςρΈΣΡ 1 Ήζ┤Έσ┤ Έ░αΈ│╡
    5b20:	80 91 05 42 	lds	r24, 0x4205	; 0x804205 <SET>
    5b24:	88 23       	and	r24, r24
    5b26:	21 f0       	breq	.+8      	; 0x5b30 <ID_Set+0xb2>
    5b28:	80 91 06 42 	lds	r24, 0x4206	; 0x804206 <SET+0x1>
    5b2c:	81 11       	cpse	r24, r1
    5b2e:	af cf       	rjmp	.-162    	; 0x5a8e <ID_Set+0x10>
			else if(KEY.Key == 3 && ID > 0)  {ID--; KEY.Key = 0;}	// ΈΜνΉγ┤Έ▓ΕΊΛ╝ Ήζ┤Έσ┤ IDΆ░Τ Ά░ΡΉΗΝ
		}
		wdt_reset();							// ΉδΝΉ╣αΈΠΖ ΈουΉΖΜ
	}
//-------------------------------------------------------------------------------------------------
	if     (Number == 1) {ee_write_byte(Cell_ID_1_Addr, ID);}		// 1Έ▓Ι ΈκεΈΥεΉΖΑ Ήζ┤Έσ┤ ID Έξ╝ EEPROM ΉΩΡ ΉιΑΉηξ
    5b30:	c1 30       	cpi	r28, 0x01	; 1
    5b32:	39 f4       	brne	.+14     	; 0x5b42 <ID_Set+0xc4>
    5b34:	60 91 df 41 	lds	r22, 0x41DF	; 0x8041df <ID>
    5b38:	84 e0       	ldi	r24, 0x04	; 4
    5b3a:	90 e0       	ldi	r25, 0x00	; 0
    5b3c:	0e 94 6c 13 	call	0x26d8	; 0x26d8 <ee_write_byte>
    5b40:	11 c0       	rjmp	.+34     	; 0x5b64 <ID_Set+0xe6>
	else if(Number == 2) {ee_write_byte(Cell_ID_2_Addr, ID);}		// 2Έ▓Ι ΈκεΈΥεΉΖΑ Ήζ┤Έσ┤ ID Έξ╝ EEPROM ΉΩΡ ΉιΑΉηξ
    5b42:	c2 30       	cpi	r28, 0x02	; 2
    5b44:	39 f4       	brne	.+14     	; 0x5b54 <ID_Set+0xd6>
    5b46:	60 91 df 41 	lds	r22, 0x41DF	; 0x8041df <ID>
    5b4a:	85 e0       	ldi	r24, 0x05	; 5
    5b4c:	90 e0       	ldi	r25, 0x00	; 0
    5b4e:	0e 94 6c 13 	call	0x26d8	; 0x26d8 <ee_write_byte>
    5b52:	08 c0       	rjmp	.+16     	; 0x5b64 <ID_Set+0xe6>
	else if(Number == 3) {ee_write_byte(Cell_ID_3_Addr, ID);}		// 3Έ▓Ι ΈκεΈΥεΉΖΑ Ήζ┤Έσ┤ ID Έξ╝ EEPROM ΉΩΡ ΉιΑΉηξ
    5b54:	c3 30       	cpi	r28, 0x03	; 3
    5b56:	31 f4       	brne	.+12     	; 0x5b64 <ID_Set+0xe6>
    5b58:	60 91 df 41 	lds	r22, 0x41DF	; 0x8041df <ID>
    5b5c:	86 e0       	ldi	r24, 0x06	; 6
    5b5e:	90 e0       	ldi	r25, 0x00	; 0
    5b60:	0e 94 6c 13 	call	0x26d8	; 0x26d8 <ee_write_byte>
}
    5b64:	cf 91       	pop	r28
    5b66:	08 95       	ret

00005b68 <Cell_Select>:

//=================================================================================================
void Cell_Select(uint8_t Number)						// ΈκεΈΥεΉΖΑ ΉΕιΊΔζ
{
    5b68:	3f 92       	push	r3
    5b6a:	4f 92       	push	r4
    5b6c:	5f 92       	push	r5
    5b6e:	6f 92       	push	r6
    5b70:	7f 92       	push	r7
    5b72:	8f 92       	push	r8
    5b74:	9f 92       	push	r9
    5b76:	af 92       	push	r10
    5b78:	bf 92       	push	r11
    5b7a:	cf 92       	push	r12
    5b7c:	df 92       	push	r13
    5b7e:	ef 92       	push	r14
    5b80:	ff 92       	push	r15
    5b82:	0f 93       	push	r16
    5b84:	1f 93       	push	r17
    5b86:	cf 93       	push	r28
    5b88:	df 93       	push	r29
    5b8a:	c8 2f       	mov	r28, r24
	uint8_t Count = 1;							// Ή╣┤Ήγ┤ΊΛ╕ Έ│ΑΉΙα Ή┤ΙΆ╕░ΊβΦ

	SET.Select = 0;								// Select Έ▓ΕΊΛ╝ Ή┤ΙΆ╕░ΊβΦ
    5b8c:	10 92 06 42 	sts	0x4206, r1	; 0x804206 <SET+0x1>
	FND_Value_Data(0, 2, 12);						// FND 0 ~ 2 FND_OFF
    5b90:	4c e0       	ldi	r20, 0x0C	; 12
    5b92:	62 e0       	ldi	r22, 0x02	; 2
    5b94:	80 e0       	ldi	r24, 0x00	; 0
    5b96:	0e 94 d9 05 	call	0xbb2	; 0xbb2 <FND_Value_Data>
//-------------------------------------------------------------------------------------------------
	if(Number == 1)								// 1Έ▓Ι ΈκεΈΥεΉΖΑ Ήζ┤Έσ┤
    5b9a:	c1 30       	cpi	r28, 0x01	; 1
    5b9c:	c9 f5       	brne	.+114    	; 0x5c10 <Cell_Select+0xa8>
	{
		ID   = ee_read_byte(Cell_ID_1_Addr);				// 1Έ▓Ι ΈκεΈΥεΉΖΑ ID Ά░Τ
    5b9e:	84 e0       	ldi	r24, 0x04	; 4
    5ba0:	90 e0       	ldi	r25, 0x00	; 0
    5ba2:	0e 94 4a 13 	call	0x2694	; 0x2694 <ee_read_byte>
    5ba6:	80 93 df 41 	sts	0x41DF, r24	; 0x8041df <ID>
		CNT  = ee_read_byte(Cell_CNT_1_Addr);				// 1Έ▓Ι ΈκεΈΥεΉΖΑ Ά░ψΉΙα ΉΕνΉιΧΆ░Τ
    5baa:	87 e0       	ldi	r24, 0x07	; 7
    5bac:	90 e0       	ldi	r25, 0x00	; 0
    5bae:	0e 94 4a 13 	call	0x2694	; 0x2694 <ee_read_byte>
    5bb2:	80 93 a6 42 	sts	0x42A6, r24	; 0x8042a6 <CNT>
		CAPA = ee_read_word(Cell_Capa_1_Addr);				// 1Έ▓Ι ΈκεΈΥεΉΖΑ CAPA Ά░Τ
    5bb6:	8a e0       	ldi	r24, 0x0A	; 10
    5bb8:	90 e0       	ldi	r25, 0x00	; 0
    5bba:	0e 94 54 13 	call	0x26a8	; 0x26a8 <ee_read_word>
    5bbe:	a0 e0       	ldi	r26, 0x00	; 0
    5bc0:	b0 e0       	ldi	r27, 0x00	; 0
    5bc2:	80 93 fa 41 	sts	0x41FA, r24	; 0x8041fa <CAPA>
    5bc6:	90 93 fb 41 	sts	0x41FB, r25	; 0x8041fb <CAPA+0x1>
    5bca:	a0 93 fc 41 	sts	0x41FC, r26	; 0x8041fc <CAPA+0x2>
    5bce:	b0 93 fd 41 	sts	0x41FD, r27	; 0x8041fd <CAPA+0x3>
		RO   = ee_read_dword(Cell_RO_1_Addr);				// 1Έ▓Ι ΈκεΈΥεΉΖΑ RO Ά░Τ
    5bd2:	86 e1       	ldi	r24, 0x16	; 22
    5bd4:	90 e0       	ldi	r25, 0x00	; 0
    5bd6:	0e 94 5f 13 	call	0x26be	; 0x26be <ee_read_dword>
    5bda:	8b 01       	movw	r16, r22
    5bdc:	9c 01       	movw	r18, r24
    5bde:	00 93 08 42 	sts	0x4208, r16	; 0x804208 <RO>
    5be2:	10 93 09 42 	sts	0x4209, r17	; 0x804209 <RO+0x1>
    5be6:	20 93 0a 42 	sts	0x420A, r18	; 0x80420a <RO+0x2>
    5bea:	30 93 0b 42 	sts	0x420B, r19	; 0x80420b <RO+0x3>
    5bee:	10 92 0c 42 	sts	0x420C, r1	; 0x80420c <RO+0x4>
    5bf2:	10 92 0d 42 	sts	0x420D, r1	; 0x80420d <RO+0x5>
    5bf6:	10 92 0e 42 	sts	0x420E, r1	; 0x80420e <RO+0x6>
    5bfa:	10 92 0f 42 	sts	0x420F, r1	; 0x80420f <RO+0x7>
// 		INT  = ee_read_word(Cell_Interval_1_Addr);			// 1Έ▓Ι ΈκεΈΥεΉΖΑ Έ│┤ΉιΧ Ά░Τ
		IN_S = ee_read_word(Cell_IN_S_1_Addr);				// 1Έ▓Ι ΈκεΈΥεΉΖΑ ΉηΖΆ╡υΉ▓┤ΉνΣ Ά░Τ
    5bfe:	80 e1       	ldi	r24, 0x10	; 16
    5c00:	90 e0       	ldi	r25, 0x00	; 0
    5c02:	0e 94 54 13 	call	0x26a8	; 0x26a8 <ee_read_word>
    5c06:	80 93 e1 43 	sts	0x43E1, r24	; 0x8043e1 <IN_S>
    5c0a:	90 93 e2 43 	sts	0x43E2, r25	; 0x8043e2 <IN_S+0x1>
    5c0e:	75 c0       	rjmp	.+234    	; 0x5cfa <Cell_Select+0x192>
	}
	else if(Number == 2)							// 2Έ▓Ι ΈκεΈΥεΉΖΑ Ήζ┤Έσ┤
    5c10:	c2 30       	cpi	r28, 0x02	; 2
    5c12:	c9 f5       	brne	.+114    	; 0x5c86 <Cell_Select+0x11e>
	{
		ID   = ee_read_byte(Cell_ID_2_Addr);				// 2Έ▓Ι ΈκεΈΥεΉΖΑ ID Ά░Τ
    5c14:	85 e0       	ldi	r24, 0x05	; 5
    5c16:	90 e0       	ldi	r25, 0x00	; 0
    5c18:	0e 94 4a 13 	call	0x2694	; 0x2694 <ee_read_byte>
    5c1c:	80 93 df 41 	sts	0x41DF, r24	; 0x8041df <ID>
		CNT  = ee_read_byte(Cell_CNT_2_Addr);				// 2Έ▓Ι ΈκεΈΥεΉΖΑ Ά░ψΉΙα ΉΕνΉιΧΆ░Τ
    5c20:	88 e0       	ldi	r24, 0x08	; 8
    5c22:	90 e0       	ldi	r25, 0x00	; 0
    5c24:	0e 94 4a 13 	call	0x2694	; 0x2694 <ee_read_byte>
    5c28:	80 93 a6 42 	sts	0x42A6, r24	; 0x8042a6 <CNT>
		CAPA = ee_read_word(Cell_Capa_2_Addr);				// 2Έ▓Ι ΈκεΈΥεΉΖΑ CAPA Ά░Τ
    5c2c:	8c e0       	ldi	r24, 0x0C	; 12
    5c2e:	90 e0       	ldi	r25, 0x00	; 0
    5c30:	0e 94 54 13 	call	0x26a8	; 0x26a8 <ee_read_word>
    5c34:	a0 e0       	ldi	r26, 0x00	; 0
    5c36:	b0 e0       	ldi	r27, 0x00	; 0
    5c38:	80 93 fa 41 	sts	0x41FA, r24	; 0x8041fa <CAPA>
    5c3c:	90 93 fb 41 	sts	0x41FB, r25	; 0x8041fb <CAPA+0x1>
    5c40:	a0 93 fc 41 	sts	0x41FC, r26	; 0x8041fc <CAPA+0x2>
    5c44:	b0 93 fd 41 	sts	0x41FD, r27	; 0x8041fd <CAPA+0x3>
		RO   = ee_read_dword(Cell_RO_2_Addr);				// 2Έ▓Ι ΈκεΈΥεΉΖΑ RO Ά░Τ
    5c48:	8a e1       	ldi	r24, 0x1A	; 26
    5c4a:	90 e0       	ldi	r25, 0x00	; 0
    5c4c:	0e 94 5f 13 	call	0x26be	; 0x26be <ee_read_dword>
    5c50:	8b 01       	movw	r16, r22
    5c52:	9c 01       	movw	r18, r24
    5c54:	00 93 08 42 	sts	0x4208, r16	; 0x804208 <RO>
    5c58:	10 93 09 42 	sts	0x4209, r17	; 0x804209 <RO+0x1>
    5c5c:	20 93 0a 42 	sts	0x420A, r18	; 0x80420a <RO+0x2>
    5c60:	30 93 0b 42 	sts	0x420B, r19	; 0x80420b <RO+0x3>
    5c64:	10 92 0c 42 	sts	0x420C, r1	; 0x80420c <RO+0x4>
    5c68:	10 92 0d 42 	sts	0x420D, r1	; 0x80420d <RO+0x5>
    5c6c:	10 92 0e 42 	sts	0x420E, r1	; 0x80420e <RO+0x6>
    5c70:	10 92 0f 42 	sts	0x420F, r1	; 0x80420f <RO+0x7>
// 		INT  = ee_read_word(Cell_Interval_2_Addr);			// 2Έ▓Ι ΈκεΈΥεΉΖΑ Έ│┤ΉιΧ Ά░Τ
		IN_S = ee_read_word(Cell_IN_S_2_Addr);				// 2Έ▓Ι ΈκεΈΥεΉΖΑ ΉηΖΆ╡υΉ▓┤ΉνΣ Ά░Τ
    5c74:	82 e1       	ldi	r24, 0x12	; 18
    5c76:	90 e0       	ldi	r25, 0x00	; 0
    5c78:	0e 94 54 13 	call	0x26a8	; 0x26a8 <ee_read_word>
    5c7c:	80 93 e1 43 	sts	0x43E1, r24	; 0x8043e1 <IN_S>
    5c80:	90 93 e2 43 	sts	0x43E2, r25	; 0x8043e2 <IN_S+0x1>
    5c84:	3a c0       	rjmp	.+116    	; 0x5cfa <Cell_Select+0x192>
	}
	else if(Number == 3)							// 3Έ▓Ι ΈκεΈΥεΉΖΑ Ήζ┤Έσ┤
    5c86:	c3 30       	cpi	r28, 0x03	; 3
    5c88:	c1 f5       	brne	.+112    	; 0x5cfa <Cell_Select+0x192>
	{
		ID   = ee_read_byte(Cell_ID_3_Addr);				// 3Έ▓Ι ΈκεΈΥεΉΖΑ ID Ά░Τ
    5c8a:	86 e0       	ldi	r24, 0x06	; 6
    5c8c:	90 e0       	ldi	r25, 0x00	; 0
    5c8e:	0e 94 4a 13 	call	0x2694	; 0x2694 <ee_read_byte>
    5c92:	80 93 df 41 	sts	0x41DF, r24	; 0x8041df <ID>
		CNT  = ee_read_byte(Cell_CNT_3_Addr);				// 3Έ▓Ι ΈκεΈΥεΉΖΑ Ά░ψΉΙα ΉΕνΉιΧΆ░Τ
    5c96:	89 e0       	ldi	r24, 0x09	; 9
    5c98:	90 e0       	ldi	r25, 0x00	; 0
    5c9a:	0e 94 4a 13 	call	0x2694	; 0x2694 <ee_read_byte>
    5c9e:	80 93 a6 42 	sts	0x42A6, r24	; 0x8042a6 <CNT>
		CAPA = ee_read_word(Cell_Capa_3_Addr);				// 3Έ▓Ι ΈκεΈΥεΉΖΑ CAPA Ά░Τ
    5ca2:	8e e0       	ldi	r24, 0x0E	; 14
    5ca4:	90 e0       	ldi	r25, 0x00	; 0
    5ca6:	0e 94 54 13 	call	0x26a8	; 0x26a8 <ee_read_word>
    5caa:	a0 e0       	ldi	r26, 0x00	; 0
    5cac:	b0 e0       	ldi	r27, 0x00	; 0
    5cae:	80 93 fa 41 	sts	0x41FA, r24	; 0x8041fa <CAPA>
    5cb2:	90 93 fb 41 	sts	0x41FB, r25	; 0x8041fb <CAPA+0x1>
    5cb6:	a0 93 fc 41 	sts	0x41FC, r26	; 0x8041fc <CAPA+0x2>
    5cba:	b0 93 fd 41 	sts	0x41FD, r27	; 0x8041fd <CAPA+0x3>
		RO   = ee_read_dword(Cell_RO_3_Addr);				// 3Έ▓Ι ΈκεΈΥεΉΖΑ RO Ά░Τ
    5cbe:	8e e1       	ldi	r24, 0x1E	; 30
    5cc0:	90 e0       	ldi	r25, 0x00	; 0
    5cc2:	0e 94 5f 13 	call	0x26be	; 0x26be <ee_read_dword>
    5cc6:	8b 01       	movw	r16, r22
    5cc8:	9c 01       	movw	r18, r24
    5cca:	00 93 08 42 	sts	0x4208, r16	; 0x804208 <RO>
    5cce:	10 93 09 42 	sts	0x4209, r17	; 0x804209 <RO+0x1>
    5cd2:	20 93 0a 42 	sts	0x420A, r18	; 0x80420a <RO+0x2>
    5cd6:	30 93 0b 42 	sts	0x420B, r19	; 0x80420b <RO+0x3>
    5cda:	10 92 0c 42 	sts	0x420C, r1	; 0x80420c <RO+0x4>
    5cde:	10 92 0d 42 	sts	0x420D, r1	; 0x80420d <RO+0x5>
    5ce2:	10 92 0e 42 	sts	0x420E, r1	; 0x80420e <RO+0x6>
    5ce6:	10 92 0f 42 	sts	0x420F, r1	; 0x80420f <RO+0x7>
// 		INT  = ee_read_word(Cell_Interval_3_Addr);			// 3Έ▓Ι ΈκεΈΥεΉΖΑ Έ│┤ΉιΧ Ά░Τ
		IN_S = ee_read_word(Cell_IN_S_3_Addr);				// 3Έ▓Ι ΈκεΈΥεΉΖΑ ΉηΖΆ╡υΉ▓┤ΉνΣ Ά░Τ
    5cea:	84 e1       	ldi	r24, 0x14	; 20
    5cec:	90 e0       	ldi	r25, 0x00	; 0
    5cee:	0e 94 54 13 	call	0x26a8	; 0x26a8 <ee_read_word>
    5cf2:	80 93 e1 43 	sts	0x43E1, r24	; 0x8043e1 <IN_S>
    5cf6:	90 93 e2 43 	sts	0x43E2, r25	; 0x8043e2 <IN_S+0x1>
	}
//-------------------------------------------------------------------------------------------------
	CAPA_1000 = CAPA / 1000;						// ΈκεΈΥεΉΖΑ CAPA 1000Ήζα ΉηΡΈου
    5cfa:	40 90 fa 41 	lds	r4, 0x41FA	; 0x8041fa <CAPA>
    5cfe:	50 90 fb 41 	lds	r5, 0x41FB	; 0x8041fb <CAPA+0x1>
    5d02:	60 90 fc 41 	lds	r6, 0x41FC	; 0x8041fc <CAPA+0x2>
    5d06:	70 90 fd 41 	lds	r7, 0x41FD	; 0x8041fd <CAPA+0x3>
    5d0a:	c3 01       	movw	r24, r6
    5d0c:	b2 01       	movw	r22, r4
    5d0e:	28 ee       	ldi	r18, 0xE8	; 232
    5d10:	33 e0       	ldi	r19, 0x03	; 3
    5d12:	40 e0       	ldi	r20, 0x00	; 0
    5d14:	50 e0       	ldi	r21, 0x00	; 0
    5d16:	0e 94 f9 43 	call	0x87f2	; 0x87f2 <__udivmodsi4>
    5d1a:	20 93 9f 41 	sts	0x419F, r18	; 0x80419f <CAPA_1000>
	CAPA_100  = CAPA % 1000 / 100;						// ΈκεΈΥεΉΖΑ CAPA  100Ήζα ΉηΡΈου
    5d1e:	0f 2e       	mov	r0, r31
    5d20:	f4 e6       	ldi	r31, 0x64	; 100
    5d22:	8f 2e       	mov	r8, r31
    5d24:	91 2c       	mov	r9, r1
    5d26:	a1 2c       	mov	r10, r1
    5d28:	b1 2c       	mov	r11, r1
    5d2a:	f0 2d       	mov	r31, r0
    5d2c:	a5 01       	movw	r20, r10
    5d2e:	94 01       	movw	r18, r8
    5d30:	0e 94 f9 43 	call	0x87f2	; 0x87f2 <__udivmodsi4>
    5d34:	20 93 98 42 	sts	0x4298, r18	; 0x804298 <CAPA_100>
	CAPA_10   = CAPA % 100 / 10;						// ΈκεΈΥεΉΖΑ CAPA   10Ήζα ΉηΡΈου
    5d38:	c3 01       	movw	r24, r6
    5d3a:	b2 01       	movw	r22, r4
    5d3c:	a5 01       	movw	r20, r10
    5d3e:	94 01       	movw	r18, r8
    5d40:	0e 94 f9 43 	call	0x87f2	; 0x87f2 <__udivmodsi4>
    5d44:	0f 2e       	mov	r0, r31
    5d46:	fa e0       	ldi	r31, 0x0A	; 10
    5d48:	8f 2e       	mov	r8, r31
    5d4a:	91 2c       	mov	r9, r1
    5d4c:	a1 2c       	mov	r10, r1
    5d4e:	b1 2c       	mov	r11, r1
    5d50:	f0 2d       	mov	r31, r0
    5d52:	a5 01       	movw	r20, r10
    5d54:	94 01       	movw	r18, r8
    5d56:	0e 94 f9 43 	call	0x87f2	; 0x87f2 <__udivmodsi4>
    5d5a:	20 93 a4 42 	sts	0x42A4, r18	; 0x8042a4 <CAPA_10>
	CAPA_1    = CAPA % 10;							// ΈκεΈΥεΉΖΑ CAPA    1Ήζα ΉηΡΈου
    5d5e:	c3 01       	movw	r24, r6
    5d60:	b2 01       	movw	r22, r4
    5d62:	a5 01       	movw	r20, r10
    5d64:	94 01       	movw	r18, r8
    5d66:	0e 94 f9 43 	call	0x87f2	; 0x87f2 <__udivmodsi4>
    5d6a:	60 93 5a 42 	sts	0x425A, r22	; 0x80425a <CAPA_1>
//-------------------------------------------------------------------------------------------------
	RO_10000 = RO / 10000;							// ΈκεΈΥεΉΖΑ RO 10000Ήζα ΉηΡΈου
    5d6e:	30 90 08 42 	lds	r3, 0x4208	; 0x804208 <RO>
    5d72:	40 90 09 42 	lds	r4, 0x4209	; 0x804209 <RO+0x1>
    5d76:	50 90 0a 42 	lds	r5, 0x420A	; 0x80420a <RO+0x2>
    5d7a:	60 90 0b 42 	lds	r6, 0x420B	; 0x80420b <RO+0x3>
    5d7e:	70 90 0c 42 	lds	r7, 0x420C	; 0x80420c <RO+0x4>
    5d82:	80 90 0d 42 	lds	r8, 0x420D	; 0x80420d <RO+0x5>
    5d86:	90 90 0e 42 	lds	r9, 0x420E	; 0x80420e <RO+0x6>
    5d8a:	d0 91 0f 42 	lds	r29, 0x420F	; 0x80420f <RO+0x7>
    5d8e:	68 94       	set
    5d90:	aa 24       	eor	r10, r10
    5d92:	a4 f8       	bld	r10, 4
    5d94:	0f 2e       	mov	r0, r31
    5d96:	f7 e2       	ldi	r31, 0x27	; 39
    5d98:	bf 2e       	mov	r11, r31
    5d9a:	f0 2d       	mov	r31, r0
    5d9c:	c1 2c       	mov	r12, r1
    5d9e:	d1 2c       	mov	r13, r1
    5da0:	e1 2c       	mov	r14, r1
    5da2:	f1 2c       	mov	r15, r1
    5da4:	00 e0       	ldi	r16, 0x00	; 0
    5da6:	10 e0       	ldi	r17, 0x00	; 0
    5da8:	23 2d       	mov	r18, r3
    5daa:	34 2d       	mov	r19, r4
    5dac:	45 2d       	mov	r20, r5
    5dae:	56 2d       	mov	r21, r6
    5db0:	67 2d       	mov	r22, r7
    5db2:	78 2d       	mov	r23, r8
    5db4:	89 2d       	mov	r24, r9
    5db6:	9d 2f       	mov	r25, r29
    5db8:	0e 94 b8 44 	call	0x8970	; 0x8970 <__udivdi3>
    5dbc:	20 93 90 42 	sts	0x4290, r18	; 0x804290 <RO_10000>
    5dc0:	30 93 91 42 	sts	0x4291, r19	; 0x804291 <RO_10000+0x1>
    5dc4:	40 93 92 42 	sts	0x4292, r20	; 0x804292 <RO_10000+0x2>
    5dc8:	50 93 93 42 	sts	0x4293, r21	; 0x804293 <RO_10000+0x3>
    5dcc:	60 93 94 42 	sts	0x4294, r22	; 0x804294 <RO_10000+0x4>
    5dd0:	70 93 95 42 	sts	0x4295, r23	; 0x804295 <RO_10000+0x5>
    5dd4:	80 93 96 42 	sts	0x4296, r24	; 0x804296 <RO_10000+0x6>
    5dd8:	90 93 97 42 	sts	0x4297, r25	; 0x804297 <RO_10000+0x7>
	RO_1000  = RO % 10000 / 1000;						// ΈκεΈΥεΉΖΑ RO  1000Ήζα ΉηΡΈου
    5ddc:	23 2d       	mov	r18, r3
    5dde:	34 2d       	mov	r19, r4
    5de0:	45 2d       	mov	r20, r5
    5de2:	56 2d       	mov	r21, r6
    5de4:	67 2d       	mov	r22, r7
    5de6:	78 2d       	mov	r23, r8
    5de8:	89 2d       	mov	r24, r9
    5dea:	9d 2f       	mov	r25, r29
    5dec:	0e 94 b6 44 	call	0x896c	; 0x896c <__umoddi3>
    5df0:	0f 2e       	mov	r0, r31
    5df2:	f8 ee       	ldi	r31, 0xE8	; 232
    5df4:	af 2e       	mov	r10, r31
    5df6:	f0 2d       	mov	r31, r0
    5df8:	0f 2e       	mov	r0, r31
    5dfa:	f3 e0       	ldi	r31, 0x03	; 3
    5dfc:	bf 2e       	mov	r11, r31
    5dfe:	f0 2d       	mov	r31, r0
    5e00:	0e 94 b8 44 	call	0x8970	; 0x8970 <__udivdi3>
    5e04:	20 93 e4 43 	sts	0x43E4, r18	; 0x8043e4 <RO_1000>
    5e08:	30 93 e5 43 	sts	0x43E5, r19	; 0x8043e5 <RO_1000+0x1>
    5e0c:	40 93 e6 43 	sts	0x43E6, r20	; 0x8043e6 <RO_1000+0x2>
    5e10:	50 93 e7 43 	sts	0x43E7, r21	; 0x8043e7 <RO_1000+0x3>
    5e14:	60 93 e8 43 	sts	0x43E8, r22	; 0x8043e8 <RO_1000+0x4>
    5e18:	70 93 e9 43 	sts	0x43E9, r23	; 0x8043e9 <RO_1000+0x5>
    5e1c:	80 93 ea 43 	sts	0x43EA, r24	; 0x8043ea <RO_1000+0x6>
    5e20:	90 93 eb 43 	sts	0x43EB, r25	; 0x8043eb <RO_1000+0x7>
	RO_100   = RO % 1000 / 100;						// ΈκεΈΥεΉΖΑ RO   100Ήζα ΉηΡΈου
    5e24:	23 2d       	mov	r18, r3
    5e26:	34 2d       	mov	r19, r4
    5e28:	45 2d       	mov	r20, r5
    5e2a:	56 2d       	mov	r21, r6
    5e2c:	67 2d       	mov	r22, r7
    5e2e:	78 2d       	mov	r23, r8
    5e30:	89 2d       	mov	r24, r9
    5e32:	9d 2f       	mov	r25, r29
    5e34:	0e 94 b6 44 	call	0x896c	; 0x896c <__umoddi3>
    5e38:	0f 2e       	mov	r0, r31
    5e3a:	f4 e6       	ldi	r31, 0x64	; 100
    5e3c:	af 2e       	mov	r10, r31
    5e3e:	f0 2d       	mov	r31, r0
    5e40:	b1 2c       	mov	r11, r1
    5e42:	0e 94 b8 44 	call	0x8970	; 0x8970 <__udivdi3>
    5e46:	20 93 a8 42 	sts	0x42A8, r18	; 0x8042a8 <RO_100>
    5e4a:	30 93 a9 42 	sts	0x42A9, r19	; 0x8042a9 <RO_100+0x1>
    5e4e:	40 93 aa 42 	sts	0x42AA, r20	; 0x8042aa <RO_100+0x2>
    5e52:	50 93 ab 42 	sts	0x42AB, r21	; 0x8042ab <RO_100+0x3>
    5e56:	60 93 ac 42 	sts	0x42AC, r22	; 0x8042ac <RO_100+0x4>
    5e5a:	70 93 ad 42 	sts	0x42AD, r23	; 0x8042ad <RO_100+0x5>
    5e5e:	80 93 ae 42 	sts	0x42AE, r24	; 0x8042ae <RO_100+0x6>
    5e62:	90 93 af 42 	sts	0x42AF, r25	; 0x8042af <RO_100+0x7>
	RO_10    = RO % 100 / 10;						// ΈκεΈΥεΉΖΑ RO    10Ήζα ΉηΡΈου
    5e66:	23 2d       	mov	r18, r3
    5e68:	34 2d       	mov	r19, r4
    5e6a:	45 2d       	mov	r20, r5
    5e6c:	56 2d       	mov	r21, r6
    5e6e:	67 2d       	mov	r22, r7
    5e70:	78 2d       	mov	r23, r8
    5e72:	89 2d       	mov	r24, r9
    5e74:	9d 2f       	mov	r25, r29
    5e76:	0e 94 b6 44 	call	0x896c	; 0x896c <__umoddi3>
    5e7a:	0f 2e       	mov	r0, r31
    5e7c:	fa e0       	ldi	r31, 0x0A	; 10
    5e7e:	af 2e       	mov	r10, r31
    5e80:	f0 2d       	mov	r31, r0
    5e82:	0e 94 b8 44 	call	0x8970	; 0x8970 <__udivdi3>
    5e86:	20 93 73 42 	sts	0x4273, r18	; 0x804273 <RO_10>
    5e8a:	30 93 74 42 	sts	0x4274, r19	; 0x804274 <RO_10+0x1>
    5e8e:	40 93 75 42 	sts	0x4275, r20	; 0x804275 <RO_10+0x2>
    5e92:	50 93 76 42 	sts	0x4276, r21	; 0x804276 <RO_10+0x3>
    5e96:	60 93 77 42 	sts	0x4277, r22	; 0x804277 <RO_10+0x4>
    5e9a:	70 93 78 42 	sts	0x4278, r23	; 0x804278 <RO_10+0x5>
    5e9e:	80 93 79 42 	sts	0x4279, r24	; 0x804279 <RO_10+0x6>
    5ea2:	90 93 7a 42 	sts	0x427A, r25	; 0x80427a <RO_10+0x7>
	RO_1     = RO % 10;							// ΈκεΈΥεΉΖΑ RO     1Ήζα ΉηΡΈου
    5ea6:	23 2d       	mov	r18, r3
    5ea8:	34 2d       	mov	r19, r4
    5eaa:	45 2d       	mov	r20, r5
    5eac:	56 2d       	mov	r21, r6
    5eae:	67 2d       	mov	r22, r7
    5eb0:	78 2d       	mov	r23, r8
    5eb2:	89 2d       	mov	r24, r9
    5eb4:	9d 2f       	mov	r25, r29
    5eb6:	0e 94 b6 44 	call	0x896c	; 0x896c <__umoddi3>
    5eba:	20 93 df 42 	sts	0x42DF, r18	; 0x8042df <RO_1>
    5ebe:	30 93 e0 42 	sts	0x42E0, r19	; 0x8042e0 <RO_1+0x1>
    5ec2:	40 93 e1 42 	sts	0x42E1, r20	; 0x8042e1 <RO_1+0x2>
    5ec6:	50 93 e2 42 	sts	0x42E2, r21	; 0x8042e2 <RO_1+0x3>
    5eca:	60 93 e3 42 	sts	0x42E3, r22	; 0x8042e3 <RO_1+0x4>
    5ece:	70 93 e4 42 	sts	0x42E4, r23	; 0x8042e4 <RO_1+0x5>
    5ed2:	80 93 e5 42 	sts	0x42E5, r24	; 0x8042e5 <RO_1+0x6>
    5ed6:	90 93 e6 42 	sts	0x42E6, r25	; 0x8042e6 <RO_1+0x7>
//-------------------------------------------------------------------------------------------------
	IN_S_10000 = IN_S / 10000;						// ΉηΖΆ╡υ Ή▓┤ΉνΣ 10.000kgΉζα ΉηΡΈου
    5eda:	40 91 e1 43 	lds	r20, 0x43E1	; 0x8043e1 <IN_S>
    5ede:	50 91 e2 43 	lds	r21, 0x43E2	; 0x8043e2 <IN_S+0x1>
    5ee2:	4a 01       	movw	r8, r20
    5ee4:	96 94       	lsr	r9
    5ee6:	87 94       	ror	r8
    5ee8:	96 94       	lsr	r9
    5eea:	87 94       	ror	r8
    5eec:	96 94       	lsr	r9
    5eee:	87 94       	ror	r8
    5ef0:	96 94       	lsr	r9
    5ef2:	87 94       	ror	r8
    5ef4:	94 01       	movw	r18, r8
    5ef6:	a7 e4       	ldi	r26, 0x47	; 71
    5ef8:	b3 e0       	ldi	r27, 0x03	; 3
    5efa:	0e 94 43 44 	call	0x8886	; 0x8886 <__umulhisi3>
    5efe:	fc 01       	movw	r30, r24
    5f00:	f6 95       	lsr	r31
    5f02:	e7 95       	ror	r30
    5f04:	f6 95       	lsr	r31
    5f06:	e7 95       	ror	r30
    5f08:	f6 95       	lsr	r31
    5f0a:	e7 95       	ror	r30
    5f0c:	e0 93 ff 41 	sts	0x41FF, r30	; 0x8041ff <IN_S_10000>
	IN_S_1000 = IN_S % 10000/ 1000;						// ΉηΖΆ╡υ Ή▓┤ΉνΣ  1.000kgΉζα ΉηΡΈου
    5f10:	20 e1       	ldi	r18, 0x10	; 16
    5f12:	37 e2       	ldi	r19, 0x27	; 39
    5f14:	e2 9f       	mul	r30, r18
    5f16:	c0 01       	movw	r24, r0
    5f18:	e3 9f       	mul	r30, r19
    5f1a:	90 0d       	add	r25, r0
    5f1c:	f2 9f       	mul	r31, r18
    5f1e:	90 0d       	add	r25, r0
    5f20:	11 24       	eor	r1, r1
    5f22:	9a 01       	movw	r18, r20
    5f24:	28 1b       	sub	r18, r24
    5f26:	39 0b       	sbc	r19, r25
    5f28:	36 95       	lsr	r19
    5f2a:	27 95       	ror	r18
    5f2c:	36 95       	lsr	r19
    5f2e:	27 95       	ror	r18
    5f30:	36 95       	lsr	r19
    5f32:	27 95       	ror	r18
    5f34:	a5 ec       	ldi	r26, 0xC5	; 197
    5f36:	b0 e2       	ldi	r27, 0x20	; 32
    5f38:	0e 94 43 44 	call	0x8886	; 0x8886 <__umulhisi3>
    5f3c:	92 95       	swap	r25
    5f3e:	82 95       	swap	r24
    5f40:	8f 70       	andi	r24, 0x0F	; 15
    5f42:	89 27       	eor	r24, r25
    5f44:	9f 70       	andi	r25, 0x0F	; 15
    5f46:	89 27       	eor	r24, r25
    5f48:	80 93 d9 42 	sts	0x42D9, r24	; 0x8042d9 <IN_S_1000>
	IN_S_100 = IN_S % 1000 / 100;						// ΉηΖΆ╡υ Ή▓┤ΉνΣ  0.100kgΉζα ΉηΡΈου
    5f4c:	9a 01       	movw	r18, r20
    5f4e:	36 95       	lsr	r19
    5f50:	27 95       	ror	r18
    5f52:	36 95       	lsr	r19
    5f54:	27 95       	ror	r18
    5f56:	36 95       	lsr	r19
    5f58:	27 95       	ror	r18
    5f5a:	0e 94 43 44 	call	0x8886	; 0x8886 <__umulhisi3>
    5f5e:	92 95       	swap	r25
    5f60:	82 95       	swap	r24
    5f62:	8f 70       	andi	r24, 0x0F	; 15
    5f64:	89 27       	eor	r24, r25
    5f66:	9f 70       	andi	r25, 0x0F	; 15
    5f68:	89 27       	eor	r24, r25
    5f6a:	68 ee       	ldi	r22, 0xE8	; 232
    5f6c:	73 e0       	ldi	r23, 0x03	; 3
    5f6e:	86 9f       	mul	r24, r22
    5f70:	90 01       	movw	r18, r0
    5f72:	87 9f       	mul	r24, r23
    5f74:	30 0d       	add	r19, r0
    5f76:	96 9f       	mul	r25, r22
    5f78:	30 0d       	add	r19, r0
    5f7a:	11 24       	eor	r1, r1
    5f7c:	ca 01       	movw	r24, r20
    5f7e:	82 1b       	sub	r24, r18
    5f80:	93 0b       	sbc	r25, r19
    5f82:	9c 01       	movw	r18, r24
    5f84:	36 95       	lsr	r19
    5f86:	27 95       	ror	r18
    5f88:	36 95       	lsr	r19
    5f8a:	27 95       	ror	r18
    5f8c:	ab e7       	ldi	r26, 0x7B	; 123
    5f8e:	b4 e1       	ldi	r27, 0x14	; 20
    5f90:	0e 94 43 44 	call	0x8886	; 0x8886 <__umulhisi3>
    5f94:	96 95       	lsr	r25
    5f96:	87 95       	ror	r24
    5f98:	80 93 00 42 	sts	0x4200, r24	; 0x804200 <IN_S_100>
	IN_S_10 = IN_S % 100 / 10;						// ΉηΖΆ╡υ Ή▓┤ΉνΣ  0.010kgΉζα ΉηΡΈου
    5f9c:	9a 01       	movw	r18, r20
    5f9e:	36 95       	lsr	r19
    5fa0:	27 95       	ror	r18
    5fa2:	36 95       	lsr	r19
    5fa4:	27 95       	ror	r18
    5fa6:	0e 94 43 44 	call	0x8886	; 0x8886 <__umulhisi3>
    5faa:	9c 01       	movw	r18, r24
    5fac:	36 95       	lsr	r19
    5fae:	27 95       	ror	r18
    5fb0:	64 e6       	ldi	r22, 0x64	; 100
    5fb2:	62 9f       	mul	r22, r18
    5fb4:	c0 01       	movw	r24, r0
    5fb6:	63 9f       	mul	r22, r19
    5fb8:	90 0d       	add	r25, r0
    5fba:	11 24       	eor	r1, r1
    5fbc:	9a 01       	movw	r18, r20
    5fbe:	28 1b       	sub	r18, r24
    5fc0:	39 0b       	sbc	r19, r25
    5fc2:	ad ec       	ldi	r26, 0xCD	; 205
    5fc4:	bc ec       	ldi	r27, 0xCC	; 204
    5fc6:	0e 94 43 44 	call	0x8886	; 0x8886 <__umulhisi3>
    5fca:	96 95       	lsr	r25
    5fcc:	87 95       	ror	r24
    5fce:	96 95       	lsr	r25
    5fd0:	87 95       	ror	r24
    5fd2:	96 95       	lsr	r25
    5fd4:	87 95       	ror	r24
    5fd6:	80 93 da 41 	sts	0x41DA, r24	; 0x8041da <IN_S_10>
	IN_S_1 = IN_S % 10;							// ΉηΖΆ╡υ Ή▓┤ΉνΣ  0.001kgΉζα ΉηΡΈου
    5fda:	9a 01       	movw	r18, r20
    5fdc:	0e 94 43 44 	call	0x8886	; 0x8886 <__umulhisi3>
    5fe0:	96 95       	lsr	r25
    5fe2:	87 95       	ror	r24
    5fe4:	96 95       	lsr	r25
    5fe6:	87 95       	ror	r24
    5fe8:	96 95       	lsr	r25
    5fea:	87 95       	ror	r24
    5fec:	9c 01       	movw	r18, r24
    5fee:	22 0f       	add	r18, r18
    5ff0:	33 1f       	adc	r19, r19
    5ff2:	88 0f       	add	r24, r24
    5ff4:	99 1f       	adc	r25, r25
    5ff6:	88 0f       	add	r24, r24
    5ff8:	99 1f       	adc	r25, r25
    5ffa:	88 0f       	add	r24, r24
    5ffc:	99 1f       	adc	r25, r25
    5ffe:	82 0f       	add	r24, r18
    6000:	93 1f       	adc	r25, r19
    6002:	9a 01       	movw	r18, r20
    6004:	28 1b       	sub	r18, r24
    6006:	39 0b       	sbc	r19, r25
    6008:	20 93 a0 42 	sts	0x42A0, r18	; 0x8042a0 <IN_S_1>
}

//=================================================================================================
void Cell_Select(uint8_t Number)						// ΈκεΈΥεΉΖΑ ΉΕιΊΔζ
{
	uint8_t Count = 1;							// Ή╣┤Ήγ┤ΊΛ╕ Έ│ΑΉΙα Ή┤ΙΆ╕░ΊβΦ
    600c:	d1 e0       	ldi	r29, 0x01	; 1
	IN_S_1000 = IN_S % 10000/ 1000;						// ΉηΖΆ╡υ Ή▓┤ΉνΣ  1.000kgΉζα ΉηΡΈου
	IN_S_100 = IN_S % 1000 / 100;						// ΉηΖΆ╡υ Ή▓┤ΉνΣ  0.100kgΉζα ΉηΡΈου
	IN_S_10 = IN_S % 100 / 10;						// ΉηΖΆ╡υ Ή▓┤ΉνΣ  0.010kgΉζα ΉηΡΈου
	IN_S_1 = IN_S % 10;							// ΉηΖΆ╡υ Ή▓┤ΉνΣ  0.001kgΉζα ΉηΡΈου
//-------------------------------------------------------------------------------------------------
	while(SET.Menu)								// ΈσΦΈΚ┤Ά░Α 1 Ήζ┤Έσ┤ Έ░αΈ│╡
    600e:	69 c1       	rjmp	.+722    	; 0x62e2 <Cell_Select+0x77a>
	{
		if(KEY.Buff)							// Key ΉηΖΈιξΉζ┤ ΉηΙΉε╝Έσ┤
    6010:	80 91 81 42 	lds	r24, 0x4281	; 0x804281 <KEY+0x1>
    6014:	88 23       	and	r24, r24
    6016:	99 f0       	breq	.+38     	; 0x603e <Cell_Select+0x4d6>
		{
			if     (KEY.Key == 1 && Count < 7) {Count++; KEY.Key = 0;}	// ΉΩΖ  Έ▓ΕΊΛ╝ Ήζ┤Έσ┤ Count ΉοζΆ░Α
    6018:	80 91 82 42 	lds	r24, 0x4282	; 0x804282 <KEY+0x2>
    601c:	81 30       	cpi	r24, 0x01	; 1
    601e:	31 f4       	brne	.+12     	; 0x602c <Cell_Select+0x4c4>
    6020:	d7 30       	cpi	r29, 0x07	; 7
    6022:	20 f4       	brcc	.+8      	; 0x602c <Cell_Select+0x4c4>
    6024:	df 5f       	subi	r29, 0xFF	; 255
    6026:	10 92 82 42 	sts	0x4282, r1	; 0x804282 <KEY+0x2>
    602a:	09 c0       	rjmp	.+18     	; 0x603e <Cell_Select+0x4d6>
			else if(KEY.Key == 3 && Count > 0) {Count--; KEY.Key = 0;}	// ΈΜνΉγ┤Έ▓ΕΊΛ╝ Ήζ┤Έσ┤ Count Ά░ΡΉΗΝ
    602c:	80 91 82 42 	lds	r24, 0x4282	; 0x804282 <KEY+0x2>
    6030:	83 30       	cpi	r24, 0x03	; 3
    6032:	29 f4       	brne	.+10     	; 0x603e <Cell_Select+0x4d6>
    6034:	dd 23       	and	r29, r29
    6036:	19 f0       	breq	.+6      	; 0x603e <Cell_Select+0x4d6>
    6038:	d1 50       	subi	r29, 0x01	; 1
    603a:	10 92 82 42 	sts	0x4282, r1	; 0x804282 <KEY+0x2>
		}
		DIGIT[2][0] = fnd_tbl[Count];					// FND 2.0 ΉΩΡ Count ΊΣεΉΜε
    603e:	ed 2f       	mov	r30, r29
    6040:	f0 e0       	ldi	r31, 0x00	; 0
    6042:	e5 5c       	subi	r30, 0xC5	; 197
    6044:	fe 4b       	sbci	r31, 0xBE	; 190
    6046:	80 81       	ld	r24, Z
    6048:	80 93 77 41 	sts	0x4177, r24	; 0x804177 <DIGIT+0x8>

		switch(Count)							// Count
    604c:	8d 2f       	mov	r24, r29
    604e:	90 e0       	ldi	r25, 0x00	; 0
    6050:	88 30       	cpi	r24, 0x08	; 8
    6052:	91 05       	cpc	r25, r1
    6054:	08 f0       	brcs	.+2      	; 0x6058 <Cell_Select+0x4f0>
    6056:	43 c1       	rjmp	.+646    	; 0x62de <Cell_Select+0x776>
    6058:	fc 01       	movw	r30, r24
    605a:	e0 58       	subi	r30, 0x80	; 128
    605c:	fc 4f       	sbci	r31, 0xFC	; 252
    605e:	0c 94 3a 44 	jmp	0x8874	; 0x8874 <__tablejump2__>
			case 0:							// Count = 0 Ήζ┤Έσ┤
				Count = 6;					// Έ░αΈ│╡ΉζΕ ΉεΕΊΧ┤ CountΈξ╝ Ή╡εΆ│ιΈκε ΉοζΆ░Α ΉΜεΊΓ┤
			break;

			case 1:							// Count = 1 Ήζ┤Έσ┤
				DIGIT[0][3] = FND_OFF;				// FND 0 ΉΩΡ id ΊΣεΉΜε
    6062:	ef e6       	ldi	r30, 0x6F	; 111
    6064:	f1 e4       	ldi	r31, 0x41	; 65
    6066:	13 82       	std	Z+3, r1	; 0x03
				DIGIT[0][2] = FND_OFF;
    6068:	12 82       	std	Z+2, r1	; 0x02
				DIGIT[0][1] = FND_I;
    606a:	80 e6       	ldi	r24, 0x60	; 96
    606c:	81 83       	std	Z+1, r24	; 0x01
				DIGIT[0][0] = FND_d;
    606e:	8a e7       	ldi	r24, 0x7A	; 122
    6070:	80 83       	st	Z, r24

				DIGIT[1][3] = FND_OFF;				
    6072:	17 82       	std	Z+7, r1	; 0x07
				DIGIT[1][2] = FND_OFF;
    6074:	16 82       	std	Z+6, r1	; 0x06
				DIGIT[1][1] = fnd_tbl[ID / 10];			// FND 1 ΉΩΡ IDΆ░Τ ΊΣεΉΜε
    6076:	40 91 df 41 	lds	r20, 0x41DF	; 0x8041df <ID>
    607a:	8d ec       	ldi	r24, 0xCD	; 205
    607c:	48 9f       	mul	r20, r24
    607e:	81 2d       	mov	r24, r1
    6080:	11 24       	eor	r1, r1
    6082:	86 95       	lsr	r24
    6084:	86 95       	lsr	r24
    6086:	86 95       	lsr	r24
    6088:	28 2f       	mov	r18, r24
    608a:	30 e0       	ldi	r19, 0x00	; 0
    608c:	25 5c       	subi	r18, 0xC5	; 197
    608e:	3e 4b       	sbci	r19, 0xBE	; 190
    6090:	d9 01       	movw	r26, r18
    6092:	9c 91       	ld	r25, X
    6094:	95 83       	std	Z+5, r25	; 0x05
				DIGIT[1][0] = fnd_tbl[ID % 10];
    6096:	88 0f       	add	r24, r24
    6098:	98 2f       	mov	r25, r24
    609a:	99 0f       	add	r25, r25
    609c:	99 0f       	add	r25, r25
    609e:	89 0f       	add	r24, r25
    60a0:	a4 2f       	mov	r26, r20
    60a2:	a8 1b       	sub	r26, r24
    60a4:	b0 e0       	ldi	r27, 0x00	; 0
    60a6:	a5 5c       	subi	r26, 0xC5	; 197
    60a8:	be 4b       	sbci	r27, 0xBE	; 190
    60aa:	8c 91       	ld	r24, X
    60ac:	84 83       	std	Z+4, r24	; 0x04

				DIGIT[2][3] = FND_OFF;				// ΈκεΈΥεΉΖΑ RO, ΉηΖΆ╡υΉ▓┤ΉνΣ 1Ήζα ΉηΡΈου ΉπΑΉγ░Ά╕░
    60ae:	13 86       	std	Z+11, r1	; 0x0b

				if(SET.Select) {ID_Set(Number);}		// Cell ID ΉΕνΉιΧ
    60b0:	80 91 06 42 	lds	r24, 0x4206	; 0x804206 <SET+0x1>
    60b4:	88 23       	and	r24, r24
    60b6:	09 f4       	brne	.+2      	; 0x60ba <Cell_Select+0x552>
    60b8:	12 c1       	rjmp	.+548    	; 0x62de <Cell_Select+0x776>
    60ba:	8c 2f       	mov	r24, r28
    60bc:	0e 94 3f 2d 	call	0x5a7e	; 0x5a7e <ID_Set>
    60c0:	0e c1       	rjmp	.+540    	; 0x62de <Cell_Select+0x776>
			break;

			case 2:							// Count = 2 Ήζ┤Έσ┤
				DIGIT[0][3] = FND_OFF;				// FND 0 ΉΩΡ cnt ΊΣεΉΜε
    60c2:	ef e6       	ldi	r30, 0x6F	; 111
    60c4:	f1 e4       	ldi	r31, 0x41	; 65
    60c6:	13 82       	std	Z+3, r1	; 0x03
				DIGIT[0][2] = FND_c;
    60c8:	8a e1       	ldi	r24, 0x1A	; 26
    60ca:	82 83       	std	Z+2, r24	; 0x02
				DIGIT[0][1] = FND_n;
    60cc:	8a e2       	ldi	r24, 0x2A	; 42
    60ce:	81 83       	std	Z+1, r24	; 0x01
				DIGIT[0][0] = FND_t;
    60d0:	8e e1       	ldi	r24, 0x1E	; 30
    60d2:	80 83       	st	Z, r24

				DIGIT[1][3] = FND_OFF;
    60d4:	17 82       	std	Z+7, r1	; 0x07
				DIGIT[1][2] = FND_OFF;
    60d6:	16 82       	std	Z+6, r1	; 0x06
				DIGIT[1][1] = fnd_tbl[CNT / 10];		// FND 1 ΉΩΡ Ά░ψΉΙα ΉΕνΉιΧΆ░Τ ΊΣεΉΜε
    60d8:	40 91 a6 42 	lds	r20, 0x42A6	; 0x8042a6 <CNT>
    60dc:	8d ec       	ldi	r24, 0xCD	; 205
    60de:	48 9f       	mul	r20, r24
    60e0:	81 2d       	mov	r24, r1
    60e2:	11 24       	eor	r1, r1
    60e4:	86 95       	lsr	r24
    60e6:	86 95       	lsr	r24
    60e8:	86 95       	lsr	r24
    60ea:	28 2f       	mov	r18, r24
    60ec:	30 e0       	ldi	r19, 0x00	; 0
    60ee:	25 5c       	subi	r18, 0xC5	; 197
    60f0:	3e 4b       	sbci	r19, 0xBE	; 190
    60f2:	d9 01       	movw	r26, r18
    60f4:	9c 91       	ld	r25, X
    60f6:	95 83       	std	Z+5, r25	; 0x05
				DIGIT[1][0] = fnd_tbl[CNT % 10];
    60f8:	88 0f       	add	r24, r24
    60fa:	98 2f       	mov	r25, r24
    60fc:	99 0f       	add	r25, r25
    60fe:	99 0f       	add	r25, r25
    6100:	89 0f       	add	r24, r25
    6102:	a4 2f       	mov	r26, r20
    6104:	a8 1b       	sub	r26, r24
    6106:	b0 e0       	ldi	r27, 0x00	; 0
    6108:	a5 5c       	subi	r26, 0xC5	; 197
    610a:	be 4b       	sbci	r27, 0xBE	; 190
    610c:	8c 91       	ld	r24, X
    610e:	84 83       	std	Z+4, r24	; 0x04

				DIGIT[2][3] = FND_OFF;				// ΈκεΈΥεΉΖΑ RO, ΉηΖΆ╡υΉ▓┤ΉνΣ 1Ήζα ΉηΡΈου ΉπΑΉγ░Ά╕░
    6110:	13 86       	std	Z+11, r1	; 0x0b

				if(SET.Select) {CNT_Set(Number);}		// Cell Ά░ψΉΙα ΉΕνΉιΧ
    6112:	80 91 06 42 	lds	r24, 0x4206	; 0x804206 <SET+0x1>
    6116:	88 23       	and	r24, r24
    6118:	09 f4       	brne	.+2      	; 0x611c <Cell_Select+0x5b4>
    611a:	e1 c0       	rjmp	.+450    	; 0x62de <Cell_Select+0x776>
    611c:	8c 2f       	mov	r24, r28
    611e:	0e 94 ca 2c 	call	0x5994	; 0x5994 <CNT_Set>
    6122:	dd c0       	rjmp	.+442    	; 0x62de <Cell_Select+0x776>
			break;

			case 3:							// Count = 3 Ήζ┤Έσ┤
				DIGIT[0][3] = FND_C;				// FND 0 ΉΩΡ Capa ΊΣεΉΜε
    6124:	ef e6       	ldi	r30, 0x6F	; 111
    6126:	f1 e4       	ldi	r31, 0x41	; 65
    6128:	8c e9       	ldi	r24, 0x9C	; 156
    612a:	83 83       	std	Z+3, r24	; 0x03
				DIGIT[0][2] = FND_a;
    612c:	8a ef       	ldi	r24, 0xFA	; 250
    612e:	82 83       	std	Z+2, r24	; 0x02
				DIGIT[0][1] = FND_P;
    6130:	9e ec       	ldi	r25, 0xCE	; 206
    6132:	91 83       	std	Z+1, r25	; 0x01
				DIGIT[0][0] = FND_a;
    6134:	80 83       	st	Z, r24

				DIGIT[1][3] = fnd_tbl[CAPA_1000];		// ΈκεΈΥεΉΖΑ CAPA 1000Ήζα ΉηΡΈου
    6136:	a0 91 9f 41 	lds	r26, 0x419F	; 0x80419f <CAPA_1000>
    613a:	b0 e0       	ldi	r27, 0x00	; 0
    613c:	a5 5c       	subi	r26, 0xC5	; 197
    613e:	be 4b       	sbci	r27, 0xBE	; 190
    6140:	8c 91       	ld	r24, X
    6142:	87 83       	std	Z+7, r24	; 0x07
				DIGIT[1][2] = fnd_tbl[CAPA_100 ];		// ΈκεΈΥεΉΖΑ CAPA  100Ήζα ΉηΡΈου
    6144:	a0 91 98 42 	lds	r26, 0x4298	; 0x804298 <CAPA_100>
    6148:	b0 e0       	ldi	r27, 0x00	; 0
    614a:	a5 5c       	subi	r26, 0xC5	; 197
    614c:	be 4b       	sbci	r27, 0xBE	; 190
    614e:	8c 91       	ld	r24, X
    6150:	86 83       	std	Z+6, r24	; 0x06
				DIGIT[1][1] = fnd_tbl[CAPA_10  ];		// ΈκεΈΥεΉΖΑ CAPA   10Ήζα ΉηΡΈου
    6152:	a0 91 a4 42 	lds	r26, 0x42A4	; 0x8042a4 <CAPA_10>
    6156:	b0 e0       	ldi	r27, 0x00	; 0
    6158:	a5 5c       	subi	r26, 0xC5	; 197
    615a:	be 4b       	sbci	r27, 0xBE	; 190
    615c:	8c 91       	ld	r24, X
    615e:	85 83       	std	Z+5, r24	; 0x05
				DIGIT[1][0] = fnd_tbl[CAPA_1   ];		// ΈκεΈΥεΉΖΑ CAPA    1Ήζα ΉηΡΈου
    6160:	a0 91 5a 42 	lds	r26, 0x425A	; 0x80425a <CAPA_1>
    6164:	b0 e0       	ldi	r27, 0x00	; 0
    6166:	a5 5c       	subi	r26, 0xC5	; 197
    6168:	be 4b       	sbci	r27, 0xBE	; 190
    616a:	8c 91       	ld	r24, X
    616c:	84 83       	std	Z+4, r24	; 0x04

				DIGIT[2][3] = FND_OFF;				// ΈκεΈΥεΉΖΑ RO, ΉηΖΆ╡υΉ▓┤ΉνΣ 1Ήζα ΉηΡΈου ΉπΑΉγ░Ά╕░
    616e:	13 86       	std	Z+11, r1	; 0x0b

				if(SET.Select) {CAPA_Set(Number);}		// ΈκεΈΥεΉΖΑ CAPA ΉΕνΉιΧ
    6170:	80 91 06 42 	lds	r24, 0x4206	; 0x804206 <SET+0x1>
    6174:	88 23       	and	r24, r24
    6176:	09 f4       	brne	.+2      	; 0x617a <Cell_Select+0x612>
    6178:	b2 c0       	rjmp	.+356    	; 0x62de <Cell_Select+0x776>
    617a:	8c 2f       	mov	r24, r28
    617c:	0e 94 e1 2a 	call	0x55c2	; 0x55c2 <CAPA_Set>
    6180:	ae c0       	rjmp	.+348    	; 0x62de <Cell_Select+0x776>
			break;

			case 4:							// Count = 4 Ήζ┤Έσ┤
				DIGIT[0][3] = FND_OFF;				// FND 0 ΉΩΡ ro ΊΣεΉΜε
    6182:	ef e6       	ldi	r30, 0x6F	; 111
    6184:	f1 e4       	ldi	r31, 0x41	; 65
    6186:	13 82       	std	Z+3, r1	; 0x03
				DIGIT[0][2] = FND_OFF;
    6188:	12 82       	std	Z+2, r1	; 0x02
				DIGIT[0][1] = FND_r;
    618a:	8a e0       	ldi	r24, 0x0A	; 10
    618c:	81 83       	std	Z+1, r24	; 0x01
				DIGIT[0][0] = FND_o;
    618e:	8a e3       	ldi	r24, 0x3A	; 58
    6190:	80 83       	st	Z, r24

				DIGIT[1][3] = fnd_tbl[RO_10000]+FND_Point;	// ΈκεΈΥεΉΖΑ RO 10000Ήζα ΉηΡΈου FND 1 ΉΩΡ RO Ά░Τ ΊΣεΉΜε
    6192:	a0 91 90 42 	lds	r26, 0x4290	; 0x804290 <RO_10000>
    6196:	b0 91 91 42 	lds	r27, 0x4291	; 0x804291 <RO_10000+0x1>
    619a:	a5 5c       	subi	r26, 0xC5	; 197
    619c:	be 4b       	sbci	r27, 0xBE	; 190
    619e:	8c 91       	ld	r24, X
    61a0:	8f 5f       	subi	r24, 0xFF	; 255
    61a2:	87 83       	std	Z+7, r24	; 0x07
				DIGIT[1][2] = fnd_tbl[RO_1000 ];		// ΈκεΈΥεΉΖΑ RO  1000Ήζα ΉηΡΈου
    61a4:	a0 91 e4 43 	lds	r26, 0x43E4	; 0x8043e4 <RO_1000>
    61a8:	b0 91 e5 43 	lds	r27, 0x43E5	; 0x8043e5 <RO_1000+0x1>
    61ac:	a5 5c       	subi	r26, 0xC5	; 197
    61ae:	be 4b       	sbci	r27, 0xBE	; 190
    61b0:	8c 91       	ld	r24, X
    61b2:	86 83       	std	Z+6, r24	; 0x06
				DIGIT[1][1] = fnd_tbl[RO_100  ];		// ΈκεΈΥεΉΖΑ RO   100Ήζα ΉηΡΈου
    61b4:	a0 91 a8 42 	lds	r26, 0x42A8	; 0x8042a8 <RO_100>
    61b8:	b0 91 a9 42 	lds	r27, 0x42A9	; 0x8042a9 <RO_100+0x1>
    61bc:	a5 5c       	subi	r26, 0xC5	; 197
    61be:	be 4b       	sbci	r27, 0xBE	; 190
    61c0:	8c 91       	ld	r24, X
    61c2:	85 83       	std	Z+5, r24	; 0x05
				DIGIT[1][0] = fnd_tbl[RO_10   ];		// ΈκεΈΥεΉΖΑ RO    10Ήζα ΉηΡΈου
    61c4:	a0 91 73 42 	lds	r26, 0x4273	; 0x804273 <RO_10>
    61c8:	b0 91 74 42 	lds	r27, 0x4274	; 0x804274 <RO_10+0x1>
    61cc:	a5 5c       	subi	r26, 0xC5	; 197
    61ce:	be 4b       	sbci	r27, 0xBE	; 190
    61d0:	8c 91       	ld	r24, X
    61d2:	84 83       	std	Z+4, r24	; 0x04

				DIGIT[2][3] = fnd_tbl[RO_1    ];		// ΈκεΈΥεΉΖΑ RO     1Ήζα ΉηΡΈου FND 2 ΉΩΡ ROΆ░Τ ΊΣεΉΜε
    61d4:	a0 91 df 42 	lds	r26, 0x42DF	; 0x8042df <RO_1>
    61d8:	b0 91 e0 42 	lds	r27, 0x42E0	; 0x8042e0 <RO_1+0x1>
    61dc:	a5 5c       	subi	r26, 0xC5	; 197
    61de:	be 4b       	sbci	r27, 0xBE	; 190
    61e0:	8c 91       	ld	r24, X
    61e2:	83 87       	std	Z+11, r24	; 0x0b

				if(SET.Select) {RO_Set(Number);}		// ΈκεΈΥεΉΖΑ RO ΉΕνΉιΧ
    61e4:	80 91 06 42 	lds	r24, 0x4206	; 0x804206 <SET+0x1>
    61e8:	88 23       	and	r24, r24
    61ea:	09 f4       	brne	.+2      	; 0x61ee <Cell_Select+0x686>
    61ec:	78 c0       	rjmp	.+240    	; 0x62de <Cell_Select+0x776>
    61ee:	8c 2f       	mov	r24, r28
    61f0:	0e 94 ad 21 	call	0x435a	; 0x435a <RO_Set>
    61f4:	74 c0       	rjmp	.+232    	; 0x62de <Cell_Select+0x776>
			break;

			case 5:							// Count = 5 Ήζ┤Έσ┤
				DIGIT[0][3] = FND_S;				// FND 0 ΉΩΡ Scal ΊΣεΉΜε
    61f6:	ef e6       	ldi	r30, 0x6F	; 111
    61f8:	f1 e4       	ldi	r31, 0x41	; 65
    61fa:	86 eb       	ldi	r24, 0xB6	; 182
    61fc:	83 83       	std	Z+3, r24	; 0x03
				DIGIT[0][2] = FND_c;
    61fe:	8a e1       	ldi	r24, 0x1A	; 26
    6200:	82 83       	std	Z+2, r24	; 0x02
				DIGIT[0][1] = FND_a;
    6202:	8a ef       	ldi	r24, 0xFA	; 250
    6204:	81 83       	std	Z+1, r24	; 0x01
				DIGIT[0][0] = FND_l;
    6206:	80 e6       	ldi	r24, 0x60	; 96
    6208:	80 83       	st	Z, r24

				DIGIT[1][3] = fnd_tbl[RO_10000]+FND_Point;	// ΈκεΈΥεΉΖΑ RO 10000Ήζα ΉηΡΈου FND 1 ΉΩΡ RO Ά░Τ ΊΣεΉΜε
    620a:	a0 91 90 42 	lds	r26, 0x4290	; 0x804290 <RO_10000>
    620e:	b0 91 91 42 	lds	r27, 0x4291	; 0x804291 <RO_10000+0x1>
    6212:	a5 5c       	subi	r26, 0xC5	; 197
    6214:	be 4b       	sbci	r27, 0xBE	; 190
    6216:	8c 91       	ld	r24, X
    6218:	8f 5f       	subi	r24, 0xFF	; 255
    621a:	87 83       	std	Z+7, r24	; 0x07
				DIGIT[1][2] = fnd_tbl[RO_1000 ];		// ΈκεΈΥεΉΖΑ RO  1000Ήζα ΉηΡΈου
    621c:	a0 91 e4 43 	lds	r26, 0x43E4	; 0x8043e4 <RO_1000>
    6220:	b0 91 e5 43 	lds	r27, 0x43E5	; 0x8043e5 <RO_1000+0x1>
    6224:	a5 5c       	subi	r26, 0xC5	; 197
    6226:	be 4b       	sbci	r27, 0xBE	; 190
    6228:	8c 91       	ld	r24, X
    622a:	86 83       	std	Z+6, r24	; 0x06
				DIGIT[1][1] = fnd_tbl[RO_100  ];		// ΈκεΈΥεΉΖΑ RO   100Ήζα ΉηΡΈου
    622c:	a0 91 a8 42 	lds	r26, 0x42A8	; 0x8042a8 <RO_100>
    6230:	b0 91 a9 42 	lds	r27, 0x42A9	; 0x8042a9 <RO_100+0x1>
    6234:	a5 5c       	subi	r26, 0xC5	; 197
    6236:	be 4b       	sbci	r27, 0xBE	; 190
    6238:	8c 91       	ld	r24, X
    623a:	85 83       	std	Z+5, r24	; 0x05
				DIGIT[1][0] = fnd_tbl[RO_10   ];		// ΈκεΈΥεΉΖΑ RO    10Ήζα ΉηΡΈου
    623c:	a0 91 73 42 	lds	r26, 0x4273	; 0x804273 <RO_10>
    6240:	b0 91 74 42 	lds	r27, 0x4274	; 0x804274 <RO_10+0x1>
    6244:	a5 5c       	subi	r26, 0xC5	; 197
    6246:	be 4b       	sbci	r27, 0xBE	; 190
    6248:	8c 91       	ld	r24, X
    624a:	84 83       	std	Z+4, r24	; 0x04

				DIGIT[2][3] = fnd_tbl[RO_1    ];		// ΈκεΈΥεΉΖΑ RO     1Ήζα ΉηΡΈου FND 2 ΉΩΡ ROΆ░Τ ΊΣεΉΜε
    624c:	a0 91 df 42 	lds	r26, 0x42DF	; 0x8042df <RO_1>
    6250:	b0 91 e0 42 	lds	r27, 0x42E0	; 0x8042e0 <RO_1+0x1>
    6254:	a5 5c       	subi	r26, 0xC5	; 197
    6256:	be 4b       	sbci	r27, 0xBE	; 190
    6258:	8c 91       	ld	r24, X
    625a:	83 87       	std	Z+11, r24	; 0x0b

				if(SET.Select) {Interval_Set(Number);}		// ΈκεΈΥεΉΖΑ RO ΉΕνΉιΧ
    625c:	80 91 06 42 	lds	r24, 0x4206	; 0x804206 <SET+0x1>
    6260:	88 23       	and	r24, r24
    6262:	e9 f1       	breq	.+122    	; 0x62de <Cell_Select+0x776>
    6264:	8c 2f       	mov	r24, r28
    6266:	0e 94 67 27 	call	0x4ece	; 0x4ece <Interval_Set>
    626a:	39 c0       	rjmp	.+114    	; 0x62de <Cell_Select+0x776>
			break;

			case 6:							// Count = 6 Ήζ┤Έσ┤
				DIGIT[0][3] = FND_I;				// FND 0 ΉΩΡ IN-S ΊΣεΉΜε
    626c:	ef e6       	ldi	r30, 0x6F	; 111
    626e:	f1 e4       	ldi	r31, 0x41	; 65
    6270:	80 e6       	ldi	r24, 0x60	; 96
    6272:	83 83       	std	Z+3, r24	; 0x03
				DIGIT[0][2] = FND_N;
    6274:	8c ee       	ldi	r24, 0xEC	; 236
    6276:	82 83       	std	Z+2, r24	; 0x02
				DIGIT[0][1] = FND_MINUS;
    6278:	82 e0       	ldi	r24, 0x02	; 2
    627a:	81 83       	std	Z+1, r24	; 0x01
				DIGIT[0][0] = FND_S;
    627c:	86 eb       	ldi	r24, 0xB6	; 182
    627e:	80 83       	st	Z, r24

				DIGIT[1][3] = fnd_tbl[IN_S_10000];		// ΉηΖΆ╡υ Ή▓┤ΉνΣ 10.000kgΉζα ΉηΡΈου FND 1 ΉΩΡ ΉηΖΆ╡υΉ▓┤ΉνΣΆ░Τ ΊΣεΉΜε
    6280:	a0 91 ff 41 	lds	r26, 0x41FF	; 0x8041ff <IN_S_10000>
    6284:	b0 e0       	ldi	r27, 0x00	; 0
    6286:	a5 5c       	subi	r26, 0xC5	; 197
    6288:	be 4b       	sbci	r27, 0xBE	; 190
    628a:	8c 91       	ld	r24, X
    628c:	87 83       	std	Z+7, r24	; 0x07
				DIGIT[1][2] = fnd_tbl[IN_S_1000]+FND_Point;	// ΉηΖΆ╡υ Ή▓┤ΉνΣ  1.000kgΉζα ΉηΡΈου
    628e:	a0 91 d9 42 	lds	r26, 0x42D9	; 0x8042d9 <IN_S_1000>
    6292:	b0 e0       	ldi	r27, 0x00	; 0
    6294:	a5 5c       	subi	r26, 0xC5	; 197
    6296:	be 4b       	sbci	r27, 0xBE	; 190
    6298:	8c 91       	ld	r24, X
    629a:	8f 5f       	subi	r24, 0xFF	; 255
    629c:	86 83       	std	Z+6, r24	; 0x06
				DIGIT[1][1] = fnd_tbl[IN_S_100];		// ΉηΖΆ╡υ Ή▓┤ΉνΣ  0.100kgΉζα ΉηΡΈου
    629e:	a0 91 00 42 	lds	r26, 0x4200	; 0x804200 <IN_S_100>
    62a2:	b0 e0       	ldi	r27, 0x00	; 0
    62a4:	a5 5c       	subi	r26, 0xC5	; 197
    62a6:	be 4b       	sbci	r27, 0xBE	; 190
    62a8:	8c 91       	ld	r24, X
    62aa:	85 83       	std	Z+5, r24	; 0x05
				DIGIT[1][0] = fnd_tbl[IN_S_10];			// ΉηΖΆ╡υ Ή▓┤ΉνΣ  0.010kgΉζα ΉηΡΈου
    62ac:	a0 91 da 41 	lds	r26, 0x41DA	; 0x8041da <IN_S_10>
    62b0:	b0 e0       	ldi	r27, 0x00	; 0
    62b2:	a5 5c       	subi	r26, 0xC5	; 197
    62b4:	be 4b       	sbci	r27, 0xBE	; 190
    62b6:	8c 91       	ld	r24, X
    62b8:	84 83       	std	Z+4, r24	; 0x04
				DIGIT[2][3] = fnd_tbl[IN_S_1];			// ΉηΖΆ╡υ Ή▓┤ΉνΣ  0.001kgΉζα ΉηΡΈου FND 2 ΉΩΡ ΉηΖΆ╡υΉ▓┤ΉνΣΆ░Τ ΊΣεΉΜε
    62ba:	a0 91 a0 42 	lds	r26, 0x42A0	; 0x8042a0 <IN_S_1>
    62be:	b0 e0       	ldi	r27, 0x00	; 0
    62c0:	a5 5c       	subi	r26, 0xC5	; 197
    62c2:	be 4b       	sbci	r27, 0xBE	; 190
    62c4:	8c 91       	ld	r24, X
    62c6:	83 87       	std	Z+11, r24	; 0x0b

				if(SET.Select) {IN_Scales_Set(Number);}		// ΈκεΈΥεΉΖΑ ΉηΖΆ╡υΉ▓┤ΉνΣ ΉΕνΉιΧ
    62c8:	80 91 06 42 	lds	r24, 0x4206	; 0x804206 <SET+0x1>
    62cc:	88 23       	and	r24, r24
    62ce:	39 f0       	breq	.+14     	; 0x62de <Cell_Select+0x776>
    62d0:	8c 2f       	mov	r24, r28
    62d2:	0e 94 5e 1f 	call	0x3ebc	; 0x3ebc <IN_Scales_Set>
    62d6:	03 c0       	rjmp	.+6      	; 0x62de <Cell_Select+0x776>
			break;

			case 7:							// Count = 7 Ήζ┤Έσ┤
				Count = 1;					// Έ░αΈ│╡ΉζΕ ΉεΕΊΧ┤ CountΈξ╝ Ή╡εΉιΑΈκε Ά░ΡΉΗΝ ΉΜεΊΓ┤
    62d8:	d1 e0       	ldi	r29, 0x01	; 1
			break;
    62da:	01 c0       	rjmp	.+2      	; 0x62de <Cell_Select+0x776>
		DIGIT[2][0] = fnd_tbl[Count];					// FND 2.0 ΉΩΡ Count ΊΣεΉΜε

		switch(Count)							// Count
		{
			case 0:							// Count = 0 Ήζ┤Έσ┤
				Count = 6;					// Έ░αΈ│╡ΉζΕ ΉεΕΊΧ┤ CountΈξ╝ Ή╡εΆ│ιΈκε ΉοζΆ░Α ΉΜεΊΓ┤
    62dc:	d6 e0       	ldi	r29, 0x06	; 6

			case 7:							// Count = 7 Ήζ┤Έσ┤
				Count = 1;					// Έ░αΈ│╡ΉζΕ ΉεΕΊΧ┤ CountΈξ╝ Ή╡εΉιΑΈκε Ά░ΡΉΗΝ ΉΜεΊΓ┤
			break;
		}
		wdt_reset();							// ΉδΝΉ╣αΈΠΖ ΈουΉΖΜ
    62de:	0e 94 ef 0c 	call	0x19de	; 0x19de <wdt_reset>
	IN_S_1000 = IN_S % 10000/ 1000;						// ΉηΖΆ╡υ Ή▓┤ΉνΣ  1.000kgΉζα ΉηΡΈου
	IN_S_100 = IN_S % 1000 / 100;						// ΉηΖΆ╡υ Ή▓┤ΉνΣ  0.100kgΉζα ΉηΡΈου
	IN_S_10 = IN_S % 100 / 10;						// ΉηΖΆ╡υ Ή▓┤ΉνΣ  0.010kgΉζα ΉηΡΈου
	IN_S_1 = IN_S % 10;							// ΉηΖΆ╡υ Ή▓┤ΉνΣ  0.001kgΉζα ΉηΡΈου
//-------------------------------------------------------------------------------------------------
	while(SET.Menu)								// ΈσΦΈΚ┤Ά░Α 1 Ήζ┤Έσ┤ Έ░αΈ│╡
    62e2:	80 91 05 42 	lds	r24, 0x4205	; 0x804205 <SET>
    62e6:	81 11       	cpse	r24, r1
    62e8:	93 ce       	rjmp	.-730    	; 0x6010 <Cell_Select+0x4a8>
				Count = 1;					// Έ░αΈ│╡ΉζΕ ΉεΕΊΧ┤ CountΈξ╝ Ή╡εΉιΑΈκε Ά░ΡΉΗΝ ΉΜεΊΓ┤
			break;
		}
		wdt_reset();							// ΉδΝΉ╣αΈΠΖ ΈουΉΖΜ
	}
}
    62ea:	df 91       	pop	r29
    62ec:	cf 91       	pop	r28
    62ee:	1f 91       	pop	r17
    62f0:	0f 91       	pop	r16
    62f2:	ff 90       	pop	r15
    62f4:	ef 90       	pop	r14
    62f6:	df 90       	pop	r13
    62f8:	cf 90       	pop	r12
    62fa:	bf 90       	pop	r11
    62fc:	af 90       	pop	r10
    62fe:	9f 90       	pop	r9
    6300:	8f 90       	pop	r8
    6302:	7f 90       	pop	r7
    6304:	6f 90       	pop	r6
    6306:	5f 90       	pop	r5
    6308:	4f 90       	pop	r4
    630a:	3f 90       	pop	r3
    630c:	08 95       	ret

0000630e <Loadcell_Set>:

//=================================================================================================
void Loadcell_Set(void)								// ΈκεΈΥεΉΖΑ ΉΕνΉιΧ ΈςρΈΥε
{
    630e:	cf 93       	push	r28
	uint8_t Count = 1;							// Ή╣┤Ήγ┤ΊΛ╕ Έ│ΑΉΙα Ή┤ΙΆ╕░ΊβΦ
	SET.Select = 0;								// Select Έ▓ΕΊΛ╝ Ή┤ΙΆ╕░ΊβΦ
    6310:	10 92 06 42 	sts	0x4206, r1	; 0x804206 <SET+0x1>

	FND_Value_Data(0, 2, 12);						// FND 0 ~ 2 FND_OFF
    6314:	4c e0       	ldi	r20, 0x0C	; 12
    6316:	62 e0       	ldi	r22, 0x02	; 2
    6318:	80 e0       	ldi	r24, 0x00	; 0
    631a:	0e 94 d9 05 	call	0xbb2	; 0xbb2 <FND_Value_Data>
    631e:	2f ef       	ldi	r18, 0xFF	; 255
    6320:	8f e3       	ldi	r24, 0x3F	; 63
    6322:	9b e0       	ldi	r25, 0x0B	; 11
    6324:	21 50       	subi	r18, 0x01	; 1
    6326:	80 40       	sbci	r24, 0x00	; 0
    6328:	90 40       	sbci	r25, 0x00	; 0
    632a:	e1 f7       	brne	.-8      	; 0x6324 <Loadcell_Set+0x16>
    632c:	00 c0       	rjmp	.+0      	; 0x632e <Loadcell_Set+0x20>
    632e:	00 00       	nop
}

//=================================================================================================
void Loadcell_Set(void)								// ΈκεΈΥεΉΖΑ ΉΕνΉιΧ ΈςρΈΥε
{
	uint8_t Count = 1;							// Ή╣┤Ήγ┤ΊΛ╕ Έ│ΑΉΙα Ή┤ΙΆ╕░ΊβΦ
    6330:	c1 e0       	ldi	r28, 0x01	; 1
    6332:	69 c0       	rjmp	.+210    	; 0x6406 <Loadcell_Set+0xf8>
	FND_Value_Data(0, 2, 12);						// FND 0 ~ 2 FND_OFF
	_delay_ms(250);

	while(SET.Menu)								// ΈσΦΈΚ┤Ά░Α 1 Ήζ┤Έσ┤ Έ░αΈ│╡
	{
		if(KEY.Buff)							// Key ΉηΖΈιξΉζ┤ ΉηΙΉε╝Έσ┤
    6334:	80 91 81 42 	lds	r24, 0x4281	; 0x804281 <KEY+0x1>
    6338:	88 23       	and	r24, r24
    633a:	99 f0       	breq	.+38     	; 0x6362 <Loadcell_Set+0x54>
		{
			if     (KEY.Key == 1 && Count < 4) {Count++; KEY.Key = 0;}	// ΉΩΖ  Έ▓ΕΊΛ╝ Ήζ┤Έσ┤ Count ΉοζΆ░Α
    633c:	80 91 82 42 	lds	r24, 0x4282	; 0x804282 <KEY+0x2>
    6340:	81 30       	cpi	r24, 0x01	; 1
    6342:	31 f4       	brne	.+12     	; 0x6350 <Loadcell_Set+0x42>
    6344:	c4 30       	cpi	r28, 0x04	; 4
    6346:	20 f4       	brcc	.+8      	; 0x6350 <Loadcell_Set+0x42>
    6348:	cf 5f       	subi	r28, 0xFF	; 255
    634a:	10 92 82 42 	sts	0x4282, r1	; 0x804282 <KEY+0x2>
    634e:	09 c0       	rjmp	.+18     	; 0x6362 <Loadcell_Set+0x54>
			else if(KEY.Key == 3 && Count > 0) {Count--; KEY.Key = 0;}	// ΈΜνΉγ┤Έ▓ΕΊΛ╝ Ήζ┤Έσ┤ Count Ά░ΡΉΗΝ
    6350:	80 91 82 42 	lds	r24, 0x4282	; 0x804282 <KEY+0x2>
    6354:	83 30       	cpi	r24, 0x03	; 3
    6356:	29 f4       	brne	.+10     	; 0x6362 <Loadcell_Set+0x54>
    6358:	cc 23       	and	r28, r28
    635a:	19 f0       	breq	.+6      	; 0x6362 <Loadcell_Set+0x54>
    635c:	c1 50       	subi	r28, 0x01	; 1
    635e:	10 92 82 42 	sts	0x4282, r1	; 0x804282 <KEY+0x2>
		}
		DIGIT[2][0] = fnd_tbl[Count];					// FND 2.0 ΉΩΡ Count ΊΣεΉΜε
    6362:	ec 2f       	mov	r30, r28
    6364:	f0 e0       	ldi	r31, 0x00	; 0
    6366:	e5 5c       	subi	r30, 0xC5	; 197
    6368:	fe 4b       	sbci	r31, 0xBE	; 190
    636a:	80 81       	ld	r24, Z
    636c:	80 93 77 41 	sts	0x4177, r24	; 0x804177 <DIGIT+0x8>

		switch(Count)							// Count
    6370:	c2 30       	cpi	r28, 0x02	; 2
    6372:	f1 f0       	breq	.+60     	; 0x63b0 <Loadcell_Set+0xa2>
    6374:	30 f4       	brcc	.+12     	; 0x6382 <Loadcell_Set+0x74>
    6376:	cc 23       	and	r28, r28
    6378:	09 f4       	brne	.+2      	; 0x637c <Loadcell_Set+0x6e>
    637a:	42 c0       	rjmp	.+132    	; 0x6400 <Loadcell_Set+0xf2>
    637c:	c1 30       	cpi	r28, 0x01	; 1
    637e:	31 f0       	breq	.+12     	; 0x638c <Loadcell_Set+0x7e>
    6380:	40 c0       	rjmp	.+128    	; 0x6402 <Loadcell_Set+0xf4>
    6382:	c3 30       	cpi	r28, 0x03	; 3
    6384:	41 f1       	breq	.+80     	; 0x63d6 <Loadcell_Set+0xc8>
    6386:	c4 30       	cpi	r28, 0x04	; 4
    6388:	c9 f1       	breq	.+114    	; 0x63fc <Loadcell_Set+0xee>
    638a:	3b c0       	rjmp	.+118    	; 0x6402 <Loadcell_Set+0xf4>
			case 0:							// Count = 0 Ήζ┤Έσ┤
				Count = 3;					// Έ░αΈ│╡ΉζΕ ΉεΕΊΧ┤ CountΈξ╝ Ή╡εΆ│ιΈκε ΉοζΆ░Α ΉΜεΊΓ┤
			break;

			case 1:							// Count = 1 Ήζ┤Έσ┤
				DIGIT[0][3] = FND_c;				// FND 0 ΉΩΡ cell ΊΣεΉΜε
    638c:	ef e6       	ldi	r30, 0x6F	; 111
    638e:	f1 e4       	ldi	r31, 0x41	; 65
    6390:	8a e1       	ldi	r24, 0x1A	; 26
    6392:	83 83       	std	Z+3, r24	; 0x03
				DIGIT[0][2] = FND_e;
    6394:	8e ed       	ldi	r24, 0xDE	; 222
    6396:	82 83       	std	Z+2, r24	; 0x02
				DIGIT[0][1] = FND_l;
    6398:	80 e6       	ldi	r24, 0x60	; 96
    639a:	81 83       	std	Z+1, r24	; 0x01
				DIGIT[0][0] = FND_l;
    639c:	80 83       	st	Z, r24

				DIGIT[1][0] = FND_1;				// FND 1 ΉΩΡ 1Έ▓Ι ΈκεΈΥεΉΖΑ ΊΣεΉΜε
    639e:	84 83       	std	Z+4, r24	; 0x04

				if(SET.Select) {Cell_Select(1);}		// 1Έ▓Ι ΈκεΈΥεΉΖΑ ΉΕνΉιΧ ΉΕιΊΔζ
    63a0:	80 91 06 42 	lds	r24, 0x4206	; 0x804206 <SET+0x1>
    63a4:	88 23       	and	r24, r24
    63a6:	69 f1       	breq	.+90     	; 0x6402 <Loadcell_Set+0xf4>
    63a8:	81 e0       	ldi	r24, 0x01	; 1
    63aa:	0e 94 b4 2d 	call	0x5b68	; 0x5b68 <Cell_Select>
    63ae:	29 c0       	rjmp	.+82     	; 0x6402 <Loadcell_Set+0xf4>
			break;

			case 2:							// Count = 2 Ήζ┤Έσ┤
				DIGIT[0][3] = FND_c;				// FND 0 ΉΩΡ cell ΊΣεΉΜε
    63b0:	ef e6       	ldi	r30, 0x6F	; 111
    63b2:	f1 e4       	ldi	r31, 0x41	; 65
    63b4:	8a e1       	ldi	r24, 0x1A	; 26
    63b6:	83 83       	std	Z+3, r24	; 0x03
				DIGIT[0][2] = FND_e;
    63b8:	8e ed       	ldi	r24, 0xDE	; 222
    63ba:	82 83       	std	Z+2, r24	; 0x02
				DIGIT[0][1] = FND_l;
    63bc:	80 e6       	ldi	r24, 0x60	; 96
    63be:	81 83       	std	Z+1, r24	; 0x01
				DIGIT[0][0] = FND_l;
    63c0:	80 83       	st	Z, r24

				DIGIT[1][0] = FND_2;				// FND 1 ΉΩΡ 2Έ▓Ι ΈκεΈΥεΉΖΑ ΊΣεΉΜε
    63c2:	8a ed       	ldi	r24, 0xDA	; 218
    63c4:	84 83       	std	Z+4, r24	; 0x04

				if(SET.Select) {Cell_Select(2);}		// 2Έ▓Ι ΈκεΈΥεΉΖΑ ΉΕνΉιΧ ΉΕιΊΔζ
    63c6:	80 91 06 42 	lds	r24, 0x4206	; 0x804206 <SET+0x1>
    63ca:	88 23       	and	r24, r24
    63cc:	d1 f0       	breq	.+52     	; 0x6402 <Loadcell_Set+0xf4>
    63ce:	82 e0       	ldi	r24, 0x02	; 2
    63d0:	0e 94 b4 2d 	call	0x5b68	; 0x5b68 <Cell_Select>
    63d4:	16 c0       	rjmp	.+44     	; 0x6402 <Loadcell_Set+0xf4>
			break;

			case 3:							// Count = 3 Ήζ┤Έσ┤
				DIGIT[0][3] = FND_c;				// FND 0 ΉΩΡ cell ΊΣεΉΜε
    63d6:	ef e6       	ldi	r30, 0x6F	; 111
    63d8:	f1 e4       	ldi	r31, 0x41	; 65
    63da:	8a e1       	ldi	r24, 0x1A	; 26
    63dc:	83 83       	std	Z+3, r24	; 0x03
				DIGIT[0][2] = FND_e;
    63de:	8e ed       	ldi	r24, 0xDE	; 222
    63e0:	82 83       	std	Z+2, r24	; 0x02
				DIGIT[0][1] = FND_l;
    63e2:	80 e6       	ldi	r24, 0x60	; 96
    63e4:	81 83       	std	Z+1, r24	; 0x01
				DIGIT[0][0] = FND_l;
    63e6:	80 83       	st	Z, r24

				DIGIT[1][0] = FND_3;				// FND 1 ΉΩΡ 3Έ▓Ι ΈκεΈΥεΉΖΑ ΊΣεΉΜε
    63e8:	82 ef       	ldi	r24, 0xF2	; 242
    63ea:	84 83       	std	Z+4, r24	; 0x04

				if(SET.Select) {Cell_Select(3);}		// 3Έ▓Ι ΈκεΈΥεΉΖΑ ΉΕνΉιΧ ΉΕιΊΔζ
    63ec:	80 91 06 42 	lds	r24, 0x4206	; 0x804206 <SET+0x1>
    63f0:	88 23       	and	r24, r24
    63f2:	39 f0       	breq	.+14     	; 0x6402 <Loadcell_Set+0xf4>
    63f4:	83 e0       	ldi	r24, 0x03	; 3
    63f6:	0e 94 b4 2d 	call	0x5b68	; 0x5b68 <Cell_Select>
    63fa:	03 c0       	rjmp	.+6      	; 0x6402 <Loadcell_Set+0xf4>
			break;

			case 4:							// Count = 4 Ήζ┤Έσ┤
				Count = 1;					// Έ░αΈ│╡ΉζΕ ΉεΕΊΧ┤ CountΈξ╝ Ή╡εΉιΑΈκε Ά░ΡΉΗΝ ΉΜεΊΓ┤
    63fc:	c1 e0       	ldi	r28, 0x01	; 1
			break;
    63fe:	01 c0       	rjmp	.+2      	; 0x6402 <Loadcell_Set+0xf4>
		DIGIT[2][0] = fnd_tbl[Count];					// FND 2.0 ΉΩΡ Count ΊΣεΉΜε

		switch(Count)							// Count
		{
			case 0:							// Count = 0 Ήζ┤Έσ┤
				Count = 3;					// Έ░αΈ│╡ΉζΕ ΉεΕΊΧ┤ CountΈξ╝ Ή╡εΆ│ιΈκε ΉοζΆ░Α ΉΜεΊΓ┤
    6400:	c3 e0       	ldi	r28, 0x03	; 3

			case 4:							// Count = 4 Ήζ┤Έσ┤
				Count = 1;					// Έ░αΈ│╡ΉζΕ ΉεΕΊΧ┤ CountΈξ╝ Ή╡εΉιΑΈκε Ά░ΡΉΗΝ ΉΜεΊΓ┤
			break;
		}
		wdt_reset();							// ΉδΝΉ╣αΈΠΖ ΈουΉΖΜ
    6402:	0e 94 ef 0c 	call	0x19de	; 0x19de <wdt_reset>
	SET.Select = 0;								// Select Έ▓ΕΊΛ╝ Ή┤ΙΆ╕░ΊβΦ

	FND_Value_Data(0, 2, 12);						// FND 0 ~ 2 FND_OFF
	_delay_ms(250);

	while(SET.Menu)								// ΈσΦΈΚ┤Ά░Α 1 Ήζ┤Έσ┤ Έ░αΈ│╡
    6406:	80 91 05 42 	lds	r24, 0x4205	; 0x804205 <SET>
    640a:	81 11       	cpse	r24, r1
    640c:	93 cf       	rjmp	.-218    	; 0x6334 <Loadcell_Set+0x26>
				Count = 1;					// Έ░αΈ│╡ΉζΕ ΉεΕΊΧ┤ CountΈξ╝ Ή╡εΉιΑΈκε Ά░ΡΉΗΝ ΉΜεΊΓ┤
			break;
		}
		wdt_reset();							// ΉδΝΉ╣αΈΠΖ ΈουΉΖΜ
	}
}
    640e:	cf 91       	pop	r28
    6410:	08 95       	ret

00006412 <protected_write_io>:
    6412:	1b be       	out	0x3b, r1	; 59
    6414:	fc 01       	movw	r30, r24
    6416:	64 bf       	out	0x34, r22	; 52
    6418:	40 83       	st	Z, r20
    641a:	08 95       	ret

0000641c <RTC_Single_Read>:
uint8_t RTC_Single_Read(uint8_t reg)					// RTC 1Byte Data └╨▒έ
{
	uint8_t data	= 0;						// data ║ψ╝÷ ├╩▒έ╚φ
	uint8_t retData = 0;						// retData ║ψ╝÷ ├╩▒έ╚φ

	data = I2C_0_read1ByteRegister(RTC_ADDRESS, reg);		// 1Byte Data └╨▒έ
    641c:	68 2f       	mov	r22, r24
    641e:	88 e6       	ldi	r24, 0x68	; 104
    6420:	0e 94 25 18 	call	0x304a	; 0x304a <I2C_0_read1ByteRegister>
	retData = ((data >> 4) * 10) + (data & 0x0F);			// 1010└╟ └┌╕χ, 1└╟ └┌╕χ ║ψ╚ψ
    6424:	98 2f       	mov	r25, r24
    6426:	92 95       	swap	r25
    6428:	9f 70       	andi	r25, 0x0F	; 15
    642a:	99 0f       	add	r25, r25
    642c:	29 2f       	mov	r18, r25
    642e:	22 0f       	add	r18, r18
    6430:	22 0f       	add	r18, r18
    6432:	92 0f       	add	r25, r18
    6434:	8f 70       	andi	r24, 0x0F	; 15

	return retData;							// ╕χ┼╧ retData
}
    6436:	89 0f       	add	r24, r25
    6438:	08 95       	ret

0000643a <RTC_Time_Read>:

//=================================================================================================
void RTC_Time_Read(void)						// RTC Data └╨▒έ
{
    643a:	cf 93       	push	r28
    643c:	df 93       	push	r29
	RTC_T.Year  = RTC_Single_Read(RTC_YEAR);			// YEAR
    643e:	86 e0       	ldi	r24, 0x06	; 6
    6440:	0e 94 0e 32 	call	0x641c	; 0x641c <RTC_Single_Read>
    6444:	cb e6       	ldi	r28, 0x6B	; 107
    6446:	d2 e4       	ldi	r29, 0x42	; 66
    6448:	8e 83       	std	Y+6, r24	; 0x06
	RTC_T.Month = RTC_Single_Read(RTC_MONTH);			// MONTH
    644a:	85 e0       	ldi	r24, 0x05	; 5
    644c:	0e 94 0e 32 	call	0x641c	; 0x641c <RTC_Single_Read>
    6450:	8d 83       	std	Y+5, r24	; 0x05
	RTC_T.Date  = RTC_Single_Read(RTC_DATE);			// DATE
    6452:	84 e0       	ldi	r24, 0x04	; 4
    6454:	0e 94 0e 32 	call	0x641c	; 0x641c <RTC_Single_Read>
    6458:	8c 83       	std	Y+4, r24	; 0x04
	RTC_T.Day   = RTC_Single_Read(RTC_DAYOFWEEK);			// DAYOFWEEK ┐ϊ└╧
    645a:	83 e0       	ldi	r24, 0x03	; 3
    645c:	0e 94 0e 32 	call	0x641c	; 0x641c <RTC_Single_Read>
    6460:	8b 83       	std	Y+3, r24	; 0x03
	RTC_T.Hour  = RTC_Single_Read(RTC_HOUR);			// HOUR
    6462:	82 e0       	ldi	r24, 0x02	; 2
    6464:	0e 94 0e 32 	call	0x641c	; 0x641c <RTC_Single_Read>
    6468:	8a 83       	std	Y+2, r24	; 0x02
	RTC_T.Min   = RTC_Single_Read(RTC_MINUTE);			// MINUTE
    646a:	81 e0       	ldi	r24, 0x01	; 1
    646c:	0e 94 0e 32 	call	0x641c	; 0x641c <RTC_Single_Read>
    6470:	89 83       	std	Y+1, r24	; 0x01
	RTC_T.Sec   = RTC_Single_Read(RTC_SECOND);			// SECOND
    6472:	80 e0       	ldi	r24, 0x00	; 0
    6474:	0e 94 0e 32 	call	0x641c	; 0x641c <RTC_Single_Read>
    6478:	88 83       	st	Y, r24
}
    647a:	df 91       	pop	r29
    647c:	cf 91       	pop	r28
    647e:	08 95       	ret

00006480 <RTC_Single_Write>:

//=================================================================================================
void RTC_Single_Write(uint8_t reg, uint8_t wData)			// RTC 1Byte Data ╛▓▒έ
{
	uint8_t bcdData = ((wData / 10) << 4) | ((wData % 10) & 0x0F);	// 1010└╟ └┌╕χ, 1└╟ └┌╕χ ║┤├d
    6480:	9d ec       	ldi	r25, 0xCD	; 205
    6482:	69 9f       	mul	r22, r25
    6484:	91 2d       	mov	r25, r1
    6486:	11 24       	eor	r1, r1
    6488:	96 95       	lsr	r25
    648a:	96 95       	lsr	r25
    648c:	96 95       	lsr	r25
    648e:	20 e1       	ldi	r18, 0x10	; 16
    6490:	92 9f       	mul	r25, r18
    6492:	a0 01       	movw	r20, r0
    6494:	11 24       	eor	r1, r1
    6496:	99 0f       	add	r25, r25
    6498:	29 2f       	mov	r18, r25
    649a:	22 0f       	add	r18, r18
    649c:	22 0f       	add	r18, r18
    649e:	92 0f       	add	r25, r18
    64a0:	69 1b       	sub	r22, r25
    64a2:	6f 70       	andi	r22, 0x0F	; 15
    64a4:	46 2b       	or	r20, r22
	I2C_0_write1ByteRegister(RTC_ADDRESS, (uint8_t)reg, bcdData);	// 1Byte Data ╛▓▒έ
    64a6:	68 2f       	mov	r22, r24
    64a8:	88 e6       	ldi	r24, 0x68	; 104
    64aa:	0e 94 e1 17 	call	0x2fc2	; 0x2fc2 <I2C_0_write1ByteRegister>
    64ae:	08 95       	ret

000064b0 <RTC_Time_Write>:
}

//=================================================================================================
void RTC_Time_Write(uint8_t item, uint8_t value)			// RTC Data ╛▓▒έ
{
    64b0:	96 2f       	mov	r25, r22
	uint8_t data = 0;						// data ║ψ╝÷ ├╩▒έ╚φ

	switch(item)							// item
    64b2:	48 2f       	mov	r20, r24
    64b4:	50 e0       	ldi	r21, 0x00	; 0
    64b6:	47 30       	cpi	r20, 0x07	; 7
    64b8:	51 05       	cpc	r21, r1
    64ba:	18 f5       	brcc	.+70     	; 0x6502 <RTC_Time_Write+0x52>
    64bc:	fa 01       	movw	r30, r20
    64be:	e8 57       	subi	r30, 0x78	; 120
    64c0:	fc 4f       	sbci	r31, 0xFC	; 252
    64c2:	0c 94 3a 44 	jmp	0x8874	; 0x8874 <__tablejump2__>
	{
		case RTC_SECOND:					// ├╩
			if(value > 59) {data = 0;}			// 59├╩ └╠╗≤└╠╕ώ 0├╩╖╬ ├╩▒έ╚φ
    64c6:	9c 33       	cpi	r25, 0x3C	; 60
    64c8:	e8 f0       	brcs	.+58     	; 0x6504 <RTC_Time_Write+0x54>
    64ca:	90 e0       	ldi	r25, 0x00	; 0
    64cc:	1b c0       	rjmp	.+54     	; 0x6504 <RTC_Time_Write+0x54>
			else	       {data = value;}			// ╛╞┤╧╕ώ value └·└ί
		break;

		case RTC_MINUTE:					// ║╨
			if(value > 59) {data = 0;}			// 59║╨ └╠╗≤└╠╕ώ 0║╨└╕╖╬ ├╩▒έ╚φ
    64ce:	9c 33       	cpi	r25, 0x3C	; 60
    64d0:	c8 f0       	brcs	.+50     	; 0x6504 <RTC_Time_Write+0x54>
    64d2:	90 e0       	ldi	r25, 0x00	; 0
    64d4:	17 c0       	rjmp	.+46     	; 0x6504 <RTC_Time_Write+0x54>
			else	       {data = value;}			// ╛╞┤╧╕ώ value └·└ί
		break;

		case RTC_HOUR:						// ╜├
			if(value > 23) {data = 0;}			// 23╜├ └╠╗≤└╠╕ώ 0╜├╖╬ ├╩▒έ╚φ
    64d6:	98 31       	cpi	r25, 0x18	; 24
    64d8:	a8 f0       	brcs	.+42     	; 0x6504 <RTC_Time_Write+0x54>
    64da:	90 e0       	ldi	r25, 0x00	; 0
    64dc:	13 c0       	rjmp	.+38     	; 0x6504 <RTC_Time_Write+0x54>
			else	       {data = value;}			// ╛╞┤╧╕ώ value └·└ί
		break;

		case RTC_DAYOFWEEK:					// ┐ϊ└╧ 1(└╧┐ϊ└╧) ~ 7(┼ϊ┐ϊ└╧) ╗ύ┐Έ
			if(value > 7 || value == 0) {data = 1;}		// 7 └╠╗≤ └╠░┼│ς 0 └╠╕ώ 1(└╧)╖╬ ├╩▒έ╚φ
    64de:	2f ef       	ldi	r18, 0xFF	; 255
    64e0:	29 0f       	add	r18, r25
    64e2:	27 30       	cpi	r18, 0x07	; 7
    64e4:	78 f0       	brcs	.+30     	; 0x6504 <RTC_Time_Write+0x54>
    64e6:	91 e0       	ldi	r25, 0x01	; 1
    64e8:	0d c0       	rjmp	.+26     	; 0x6504 <RTC_Time_Write+0x54>
			else			    {data = value;}	// ╛╞┤╧╕ώ value └·└ί
		break;

		case RTC_DATE:						// └╧
			if(value > 31) {data = 1;}			// 31└╧ └╠╗≤└╠╕ώ 1└╧╖╬ ├╩▒έ╚φ
    64ea:	90 32       	cpi	r25, 0x20	; 32
    64ec:	58 f0       	brcs	.+22     	; 0x6504 <RTC_Time_Write+0x54>
    64ee:	91 e0       	ldi	r25, 0x01	; 1
    64f0:	09 c0       	rjmp	.+18     	; 0x6504 <RTC_Time_Write+0x54>
			else	       {data = value;}			// ╛╞┤╧╕ώ value └·└ί
		break;

		case RTC_MONTH:						// ┐∙
			if(value > 12) {data = 1;}			// 12┐∙ └╠╗≤└╠╕ώ 1┐∙╖╬ ├╩▒έ╚φ
    64f2:	9d 30       	cpi	r25, 0x0D	; 13
    64f4:	38 f0       	brcs	.+14     	; 0x6504 <RTC_Time_Write+0x54>
    64f6:	91 e0       	ldi	r25, 0x01	; 1
    64f8:	05 c0       	rjmp	.+10     	; 0x6504 <RTC_Time_Write+0x54>
			else	       {data = value;}			// ╛╞┤╧╕ώ value └·└ί
		break;

		case RTC_YEAR:						// │έ
			if(value == 0) {data = 21;}			// 00│έ └╠╕ώ 21│έ └╕╖╬ ├╩▒έ╚φ
    64fa:	91 11       	cpse	r25, r1
    64fc:	03 c0       	rjmp	.+6      	; 0x6504 <RTC_Time_Write+0x54>
    64fe:	95 e1       	ldi	r25, 0x15	; 21
    6500:	01 c0       	rjmp	.+2      	; 0x6504 <RTC_Time_Write+0x54>
}

//=================================================================================================
void RTC_Time_Write(uint8_t item, uint8_t value)			// RTC Data ╛▓▒έ
{
	uint8_t data = 0;						// data ║ψ╝÷ ├╩▒έ╚φ
    6502:	90 e0       	ldi	r25, 0x00	; 0
		case RTC_YEAR:						// │έ
			if(value == 0) {data = 21;}			// 00│έ └╠╕ώ 21│έ └╕╖╬ ├╩▒έ╚φ
			else	       {data = value;}			// ╛╞┤╧╕ώ value └·└ί
		break;
	}
	RTC_Single_Write(item, data);					// RTC 1Byte Data ╛▓▒έ
    6504:	69 2f       	mov	r22, r25
    6506:	0e 94 40 32 	call	0x6480	; 0x6480 <RTC_Single_Write>
    650a:	08 95       	ret

0000650c <RTC_Set>:
//=================================================================================================
#include <rtc.h>

//=================================================================================================
void RTC_Set(void)							// RTC ╝│┴ν ╕Ώ╡ί
{
    650c:	cf 93       	push	r28
    650e:	df 93       	push	r29
	SET.Select = 0;							// Select ╣÷╞░ ├╩▒έ╚φ
    6510:	10 92 06 42 	sts	0x4206, r1	; 0x804206 <SET+0x1>

	FND_Value_Data(0, 2, 12);					// FND 0 ~ 2 FND_OFF
    6514:	4c e0       	ldi	r20, 0x0C	; 12
    6516:	62 e0       	ldi	r22, 0x02	; 2
    6518:	80 e0       	ldi	r24, 0x00	; 0
    651a:	0e 94 d9 05 	call	0xbb2	; 0xbb2 <FND_Value_Data>

	RTC_Time_Read();						// RTC Data └╨▒έ
    651e:	0e 94 1d 32 	call	0x643a	; 0x643a <RTC_Time_Read>

	DIGIT[0][3] = fnd_tbl[RTC_T.Year / 10];				// │έ ╟ξ╜├
    6522:	cb e6       	ldi	r28, 0x6B	; 107
    6524:	d2 e4       	ldi	r29, 0x42	; 66
    6526:	ae 81       	ldd	r26, Y+6	; 0x06
    6528:	8d ec       	ldi	r24, 0xCD	; 205
    652a:	a8 9f       	mul	r26, r24
    652c:	91 2d       	mov	r25, r1
    652e:	11 24       	eor	r1, r1
    6530:	96 95       	lsr	r25
    6532:	96 95       	lsr	r25
    6534:	96 95       	lsr	r25
    6536:	e9 2f       	mov	r30, r25
    6538:	f0 e0       	ldi	r31, 0x00	; 0
    653a:	e5 5c       	subi	r30, 0xC5	; 197
    653c:	fe 4b       	sbci	r31, 0xBE	; 190
    653e:	20 81       	ld	r18, Z
    6540:	ef e6       	ldi	r30, 0x6F	; 111
    6542:	f1 e4       	ldi	r31, 0x41	; 65
    6544:	23 83       	std	Z+3, r18	; 0x03
	DIGIT[0][2] = fnd_tbl[RTC_T.Year % 10];
    6546:	99 0f       	add	r25, r25
    6548:	29 2f       	mov	r18, r25
    654a:	22 0f       	add	r18, r18
    654c:	22 0f       	add	r18, r18
    654e:	92 0f       	add	r25, r18
    6550:	a9 1b       	sub	r26, r25
    6552:	b0 e0       	ldi	r27, 0x00	; 0
    6554:	a5 5c       	subi	r26, 0xC5	; 197
    6556:	be 4b       	sbci	r27, 0xBE	; 190
    6558:	9c 91       	ld	r25, X
    655a:	92 83       	std	Z+2, r25	; 0x02

	DIGIT[0][1] = fnd_tbl[RTC_T.Month / 10];			// ┐∙ ╟ξ╜├
    655c:	4d 81       	ldd	r20, Y+5	; 0x05
    655e:	48 9f       	mul	r20, r24
    6560:	91 2d       	mov	r25, r1
    6562:	11 24       	eor	r1, r1
    6564:	96 95       	lsr	r25
    6566:	96 95       	lsr	r25
    6568:	96 95       	lsr	r25
    656a:	29 2f       	mov	r18, r25
    656c:	30 e0       	ldi	r19, 0x00	; 0
    656e:	25 5c       	subi	r18, 0xC5	; 197
    6570:	3e 4b       	sbci	r19, 0xBE	; 190
    6572:	d9 01       	movw	r26, r18
    6574:	2c 91       	ld	r18, X
    6576:	21 83       	std	Z+1, r18	; 0x01
	DIGIT[0][0] = fnd_tbl[RTC_T.Month % 10];
    6578:	99 0f       	add	r25, r25
    657a:	29 2f       	mov	r18, r25
    657c:	22 0f       	add	r18, r18
    657e:	22 0f       	add	r18, r18
    6580:	92 0f       	add	r25, r18
    6582:	a4 2f       	mov	r26, r20
    6584:	a9 1b       	sub	r26, r25
    6586:	b0 e0       	ldi	r27, 0x00	; 0
    6588:	a5 5c       	subi	r26, 0xC5	; 197
    658a:	be 4b       	sbci	r27, 0xBE	; 190
    658c:	9c 91       	ld	r25, X
    658e:	90 83       	st	Z, r25

	DIGIT[1][3] = fnd_tbl[RTC_T.Date / 10];				// └╧ ╟ξ╜├
    6590:	4c 81       	ldd	r20, Y+4	; 0x04
    6592:	48 9f       	mul	r20, r24
    6594:	91 2d       	mov	r25, r1
    6596:	11 24       	eor	r1, r1
    6598:	96 95       	lsr	r25
    659a:	96 95       	lsr	r25
    659c:	96 95       	lsr	r25
    659e:	29 2f       	mov	r18, r25
    65a0:	30 e0       	ldi	r19, 0x00	; 0
    65a2:	25 5c       	subi	r18, 0xC5	; 197
    65a4:	3e 4b       	sbci	r19, 0xBE	; 190
    65a6:	d9 01       	movw	r26, r18
    65a8:	2c 91       	ld	r18, X
    65aa:	27 83       	std	Z+7, r18	; 0x07
	DIGIT[1][2] = fnd_tbl[RTC_T.Date % 10];
    65ac:	99 0f       	add	r25, r25
    65ae:	29 2f       	mov	r18, r25
    65b0:	22 0f       	add	r18, r18
    65b2:	22 0f       	add	r18, r18
    65b4:	92 0f       	add	r25, r18
    65b6:	a4 2f       	mov	r26, r20
    65b8:	a9 1b       	sub	r26, r25
    65ba:	b0 e0       	ldi	r27, 0x00	; 0
    65bc:	a5 5c       	subi	r26, 0xC5	; 197
    65be:	be 4b       	sbci	r27, 0xBE	; 190
    65c0:	9c 91       	ld	r25, X
    65c2:	96 83       	std	Z+6, r25	; 0x06

	DIGIT[1][1] = fnd_tbl[RTC_T.Hour / 10];				// ╜├ ╟ξ╜├
    65c4:	4a 81       	ldd	r20, Y+2	; 0x02
    65c6:	48 9f       	mul	r20, r24
    65c8:	91 2d       	mov	r25, r1
    65ca:	11 24       	eor	r1, r1
    65cc:	96 95       	lsr	r25
    65ce:	96 95       	lsr	r25
    65d0:	96 95       	lsr	r25
    65d2:	29 2f       	mov	r18, r25
    65d4:	30 e0       	ldi	r19, 0x00	; 0
    65d6:	25 5c       	subi	r18, 0xC5	; 197
    65d8:	3e 4b       	sbci	r19, 0xBE	; 190
    65da:	d9 01       	movw	r26, r18
    65dc:	2c 91       	ld	r18, X
    65de:	25 83       	std	Z+5, r18	; 0x05
	DIGIT[1][0] = fnd_tbl[RTC_T.Hour % 10];
    65e0:	99 0f       	add	r25, r25
    65e2:	29 2f       	mov	r18, r25
    65e4:	22 0f       	add	r18, r18
    65e6:	22 0f       	add	r18, r18
    65e8:	92 0f       	add	r25, r18
    65ea:	a4 2f       	mov	r26, r20
    65ec:	a9 1b       	sub	r26, r25
    65ee:	b0 e0       	ldi	r27, 0x00	; 0
    65f0:	a5 5c       	subi	r26, 0xC5	; 197
    65f2:	be 4b       	sbci	r27, 0xBE	; 190
    65f4:	9c 91       	ld	r25, X
    65f6:	94 83       	std	Z+4, r25	; 0x04

	DIGIT[2][3] = fnd_tbl[RTC_T.Min / 10];				// ║╨ ╟ξ╜├
    65f8:	49 81       	ldd	r20, Y+1	; 0x01
    65fa:	48 9f       	mul	r20, r24
    65fc:	91 2d       	mov	r25, r1
    65fe:	11 24       	eor	r1, r1
    6600:	96 95       	lsr	r25
    6602:	96 95       	lsr	r25
    6604:	96 95       	lsr	r25
    6606:	29 2f       	mov	r18, r25
    6608:	30 e0       	ldi	r19, 0x00	; 0
    660a:	25 5c       	subi	r18, 0xC5	; 197
    660c:	3e 4b       	sbci	r19, 0xBE	; 190
    660e:	d9 01       	movw	r26, r18
    6610:	2c 91       	ld	r18, X
    6612:	23 87       	std	Z+11, r18	; 0x0b
	DIGIT[2][2] = fnd_tbl[RTC_T.Min % 10];
    6614:	99 0f       	add	r25, r25
    6616:	29 2f       	mov	r18, r25
    6618:	22 0f       	add	r18, r18
    661a:	22 0f       	add	r18, r18
    661c:	92 0f       	add	r25, r18
    661e:	a4 2f       	mov	r26, r20
    6620:	a9 1b       	sub	r26, r25
    6622:	b0 e0       	ldi	r27, 0x00	; 0
    6624:	a5 5c       	subi	r26, 0xC5	; 197
    6626:	be 4b       	sbci	r27, 0xBE	; 190
    6628:	9c 91       	ld	r25, X
    662a:	92 87       	std	Z+10, r25	; 0x0a

	DIGIT[2][1] = fnd_tbl[RTC_T.Sec / 10];				// ├╩ ╟ξ╜├
    662c:	a8 81       	ld	r26, Y
    662e:	a8 9f       	mul	r26, r24
    6630:	81 2d       	mov	r24, r1
    6632:	11 24       	eor	r1, r1
    6634:	86 95       	lsr	r24
    6636:	86 95       	lsr	r24
    6638:	86 95       	lsr	r24
    663a:	c8 2f       	mov	r28, r24
    663c:	d0 e0       	ldi	r29, 0x00	; 0
    663e:	c5 5c       	subi	r28, 0xC5	; 197
    6640:	de 4b       	sbci	r29, 0xBE	; 190
    6642:	98 81       	ld	r25, Y
    6644:	91 87       	std	Z+9, r25	; 0x09
	DIGIT[2][0] = fnd_tbl[RTC_T.Sec % 10];
    6646:	88 0f       	add	r24, r24
    6648:	98 2f       	mov	r25, r24
    664a:	99 0f       	add	r25, r25
    664c:	99 0f       	add	r25, r25
    664e:	89 0f       	add	r24, r25
    6650:	a8 1b       	sub	r26, r24
    6652:	b0 e0       	ldi	r27, 0x00	; 0
    6654:	a5 5c       	subi	r26, 0xC5	; 197
    6656:	be 4b       	sbci	r27, 0xBE	; 190
    6658:	8c 91       	ld	r24, X
    665a:	80 87       	std	Z+8, r24	; 0x08

	while(SET.Menu)							// ╕▐┤║╕Ώ╡ί └╠╕ώ ╣▌║╣
    665c:	8a c2       	rjmp	.+1300   	; 0x6b72 <RTC_Set+0x666>
	{
		SET.Blink = 1;						// └┌╕┤╝÷ ▒Ϊ╣┌└╙ ╝│┴ν
    665e:	81 e0       	ldi	r24, 0x01	; 1
    6660:	80 93 07 42 	sts	0x4207, r24	; 0x804207 <SET+0x2>

		switch(KEY.Count)					// ╝▒┼├ Key ░κ ┤φ╕░╚╜╝÷
    6664:	e0 91 80 42 	lds	r30, 0x4280	; 0x804280 <KEY>
    6668:	8e 2f       	mov	r24, r30
    666a:	90 e0       	ldi	r25, 0x00	; 0
    666c:	87 30       	cpi	r24, 0x07	; 7
    666e:	91 05       	cpc	r25, r1
    6670:	08 f0       	brcs	.+2      	; 0x6674 <RTC_Set+0x168>
    6672:	7d c2       	rjmp	.+1274   	; 0x6b6e <RTC_Set+0x662>
    6674:	fc 01       	movw	r30, r24
    6676:	e1 57       	subi	r30, 0x71	; 113
    6678:	fc 4f       	sbci	r31, 0xFC	; 252
    667a:	0c 94 3a 44 	jmp	0x8874	; 0x8874 <__tablejump2__>
		{
			case 0:						// │έ ╟ξ╜├ ╣╫ ╝│┴ν
				DIGIT[2][1] = fnd_tbl[RTC_T.Sec / 10];	// ├╩ ╟ξ╜├
    667e:	e0 91 6b 42 	lds	r30, 0x426B	; 0x80426b <RTC_T>
    6682:	8d ec       	ldi	r24, 0xCD	; 205
    6684:	e8 9f       	mul	r30, r24
    6686:	81 2d       	mov	r24, r1
    6688:	11 24       	eor	r1, r1
    668a:	86 95       	lsr	r24
    668c:	86 95       	lsr	r24
    668e:	86 95       	lsr	r24
    6690:	a8 2f       	mov	r26, r24
    6692:	b0 e0       	ldi	r27, 0x00	; 0
    6694:	a5 5c       	subi	r26, 0xC5	; 197
    6696:	be 4b       	sbci	r27, 0xBE	; 190
    6698:	9c 91       	ld	r25, X
    669a:	af e6       	ldi	r26, 0x6F	; 111
    669c:	b1 e4       	ldi	r27, 0x41	; 65
    669e:	19 96       	adiw	r26, 0x09	; 9
    66a0:	9c 93       	st	X, r25
    66a2:	19 97       	sbiw	r26, 0x09	; 9
				DIGIT[2][0] = fnd_tbl[RTC_T.Sec % 10];
    66a4:	88 0f       	add	r24, r24
    66a6:	98 2f       	mov	r25, r24
    66a8:	99 0f       	add	r25, r25
    66aa:	99 0f       	add	r25, r25
    66ac:	89 0f       	add	r24, r25
    66ae:	e8 1b       	sub	r30, r24
    66b0:	f0 e0       	ldi	r31, 0x00	; 0
    66b2:	e5 5c       	subi	r30, 0xC5	; 197
    66b4:	fe 4b       	sbci	r31, 0xBE	; 190
    66b6:	80 81       	ld	r24, Z
    66b8:	18 96       	adiw	r26, 0x08	; 8
    66ba:	8c 93       	st	X, r24
    66bc:	18 97       	sbiw	r26, 0x08	; 8
				if(Blink)				// Blink = 1 └╠╕ώ 
    66be:	80 91 b0 42 	lds	r24, 0x42B0	; 0x8042b0 <Blink>
    66c2:	88 23       	and	r24, r24
    66c4:	21 f0       	breq	.+8      	; 0x66ce <RTC_Set+0x1c2>
				{
					DIGIT[0][3] = FND_OFF;		// ╖╬╡ί╝┐ Year └┌╕χ OFF
    66c6:	fd 01       	movw	r30, r26
    66c8:	13 82       	std	Z+3, r1	; 0x03
					DIGIT[0][2] = FND_OFF;
    66ca:	12 82       	std	Z+2, r1	; 0x02
    66cc:	1f c0       	rjmp	.+62     	; 0x670c <RTC_Set+0x200>
				}
				else					// Blink = 0 └╠╕ώ
				{
					DIGIT[0][3] = fnd_tbl[RTC_T.Year / 10];	// ╖╬╡ί╝┐ Year └┌╕χ ╟ξ╜├
    66ce:	e0 91 71 42 	lds	r30, 0x4271	; 0x804271 <RTC_T+0x6>
    66d2:	8d ec       	ldi	r24, 0xCD	; 205
    66d4:	e8 9f       	mul	r30, r24
    66d6:	81 2d       	mov	r24, r1
    66d8:	11 24       	eor	r1, r1
    66da:	86 95       	lsr	r24
    66dc:	86 95       	lsr	r24
    66de:	86 95       	lsr	r24
    66e0:	a8 2f       	mov	r26, r24
    66e2:	b0 e0       	ldi	r27, 0x00	; 0
    66e4:	a5 5c       	subi	r26, 0xC5	; 197
    66e6:	be 4b       	sbci	r27, 0xBE	; 190
    66e8:	9c 91       	ld	r25, X
    66ea:	af e6       	ldi	r26, 0x6F	; 111
    66ec:	b1 e4       	ldi	r27, 0x41	; 65
    66ee:	13 96       	adiw	r26, 0x03	; 3
    66f0:	9c 93       	st	X, r25
    66f2:	13 97       	sbiw	r26, 0x03	; 3
					DIGIT[0][2] = fnd_tbl[RTC_T.Year % 10];
    66f4:	88 0f       	add	r24, r24
    66f6:	98 2f       	mov	r25, r24
    66f8:	99 0f       	add	r25, r25
    66fa:	99 0f       	add	r25, r25
    66fc:	89 0f       	add	r24, r25
    66fe:	e8 1b       	sub	r30, r24
    6700:	f0 e0       	ldi	r31, 0x00	; 0
    6702:	e5 5c       	subi	r30, 0xC5	; 197
    6704:	fe 4b       	sbci	r31, 0xBE	; 190
    6706:	80 81       	ld	r24, Z
    6708:	12 96       	adiw	r26, 0x02	; 2
    670a:	8c 93       	st	X, r24
				}

				if(KEY.Buff)				// Key └╘╖┬└╠ └╓└╕╕ώ
    670c:	80 91 81 42 	lds	r24, 0x4281	; 0x804281 <KEY+0x1>
    6710:	88 23       	and	r24, r24
    6712:	09 f4       	brne	.+2      	; 0x6716 <RTC_Set+0x20a>
    6714:	2c c2       	rjmp	.+1112   	; 0x6b6e <RTC_Set+0x662>
				{
					if     (KEY.Key == 1 && RTC_T.Year < 99) {RTC_T.Year ++; KEY.Key = 0;}	// ╛≈  ╣÷╞░ └╠╕ώ Year ┴Ϋ░κ
    6716:	80 91 82 42 	lds	r24, 0x4282	; 0x804282 <KEY+0x2>
    671a:	81 30       	cpi	r24, 0x01	; 1
    671c:	51 f4       	brne	.+20     	; 0x6732 <RTC_Set+0x226>
    671e:	80 91 71 42 	lds	r24, 0x4271	; 0x804271 <RTC_T+0x6>
    6722:	83 36       	cpi	r24, 0x63	; 99
    6724:	30 f4       	brcc	.+12     	; 0x6732 <RTC_Set+0x226>
    6726:	8f 5f       	subi	r24, 0xFF	; 255
    6728:	80 93 71 42 	sts	0x4271, r24	; 0x804271 <RTC_T+0x6>
    672c:	10 92 82 42 	sts	0x4282, r1	; 0x804282 <KEY+0x2>
    6730:	1e c2       	rjmp	.+1084   	; 0x6b6e <RTC_Set+0x662>
					else if(KEY.Key == 3 && RTC_T.Year >  0) {RTC_T.Year --; KEY.Key = 0;}	// ┤┘┐Ό╣÷╞░ └╠╕ώ Year ░ρ╝╥
    6732:	80 91 82 42 	lds	r24, 0x4282	; 0x804282 <KEY+0x2>
    6736:	83 30       	cpi	r24, 0x03	; 3
    6738:	09 f0       	breq	.+2      	; 0x673c <RTC_Set+0x230>
    673a:	19 c2       	rjmp	.+1074   	; 0x6b6e <RTC_Set+0x662>
    673c:	80 91 71 42 	lds	r24, 0x4271	; 0x804271 <RTC_T+0x6>
    6740:	88 23       	and	r24, r24
    6742:	09 f4       	brne	.+2      	; 0x6746 <RTC_Set+0x23a>
    6744:	14 c2       	rjmp	.+1064   	; 0x6b6e <RTC_Set+0x662>
    6746:	81 50       	subi	r24, 0x01	; 1
    6748:	80 93 71 42 	sts	0x4271, r24	; 0x804271 <RTC_T+0x6>
    674c:	10 92 82 42 	sts	0x4282, r1	; 0x804282 <KEY+0x2>
    6750:	0e c2       	rjmp	.+1052   	; 0x6b6e <RTC_Set+0x662>
				}
			break;

			case 1:						// ┐∙ ╟ξ╜├ ╣╫ ╝│┴ν
				DIGIT[0][3] = fnd_tbl[RTC_T.Year / 10];	// │έ ╟ξ╜├
    6752:	e0 91 71 42 	lds	r30, 0x4271	; 0x804271 <RTC_T+0x6>
    6756:	8d ec       	ldi	r24, 0xCD	; 205
    6758:	e8 9f       	mul	r30, r24
    675a:	81 2d       	mov	r24, r1
    675c:	11 24       	eor	r1, r1
    675e:	86 95       	lsr	r24
    6760:	86 95       	lsr	r24
    6762:	86 95       	lsr	r24
    6764:	a8 2f       	mov	r26, r24
    6766:	b0 e0       	ldi	r27, 0x00	; 0
    6768:	a5 5c       	subi	r26, 0xC5	; 197
    676a:	be 4b       	sbci	r27, 0xBE	; 190
    676c:	9c 91       	ld	r25, X
    676e:	af e6       	ldi	r26, 0x6F	; 111
    6770:	b1 e4       	ldi	r27, 0x41	; 65
    6772:	13 96       	adiw	r26, 0x03	; 3
    6774:	9c 93       	st	X, r25
    6776:	13 97       	sbiw	r26, 0x03	; 3
				DIGIT[0][2] = fnd_tbl[RTC_T.Year % 10];
    6778:	88 0f       	add	r24, r24
    677a:	98 2f       	mov	r25, r24
    677c:	99 0f       	add	r25, r25
    677e:	99 0f       	add	r25, r25
    6780:	89 0f       	add	r24, r25
    6782:	e8 1b       	sub	r30, r24
    6784:	f0 e0       	ldi	r31, 0x00	; 0
    6786:	e5 5c       	subi	r30, 0xC5	; 197
    6788:	fe 4b       	sbci	r31, 0xBE	; 190
    678a:	80 81       	ld	r24, Z
    678c:	12 96       	adiw	r26, 0x02	; 2
    678e:	8c 93       	st	X, r24
    6790:	12 97       	sbiw	r26, 0x02	; 2
				if(Blink)				// Blink = 1 └╠╕ώ
    6792:	80 91 b0 42 	lds	r24, 0x42B0	; 0x8042b0 <Blink>
    6796:	88 23       	and	r24, r24
    6798:	21 f0       	breq	.+8      	; 0x67a2 <RTC_Set+0x296>
				{
					DIGIT[0][1] = FND_OFF;		// ╖╬╡ί╝┐ Month └┌╕χ OFF
    679a:	fd 01       	movw	r30, r26
    679c:	11 82       	std	Z+1, r1	; 0x01
					DIGIT[0][0] = FND_OFF;
    679e:	10 82       	st	Z, r1
    67a0:	1e c0       	rjmp	.+60     	; 0x67de <RTC_Set+0x2d2>
				}
				else					// Blink = 0 └╠╕ώ
				{
					DIGIT[0][1] = fnd_tbl[RTC_T.Month / 10];// ╖╬╡ί╝┐ Month └┌╕χ ╟ξ╜├
    67a2:	e0 91 70 42 	lds	r30, 0x4270	; 0x804270 <RTC_T+0x5>
    67a6:	8d ec       	ldi	r24, 0xCD	; 205
    67a8:	e8 9f       	mul	r30, r24
    67aa:	81 2d       	mov	r24, r1
    67ac:	11 24       	eor	r1, r1
    67ae:	86 95       	lsr	r24
    67b0:	86 95       	lsr	r24
    67b2:	86 95       	lsr	r24
    67b4:	a8 2f       	mov	r26, r24
    67b6:	b0 e0       	ldi	r27, 0x00	; 0
    67b8:	a5 5c       	subi	r26, 0xC5	; 197
    67ba:	be 4b       	sbci	r27, 0xBE	; 190
    67bc:	9c 91       	ld	r25, X
    67be:	af e6       	ldi	r26, 0x6F	; 111
    67c0:	b1 e4       	ldi	r27, 0x41	; 65
    67c2:	11 96       	adiw	r26, 0x01	; 1
    67c4:	9c 93       	st	X, r25
    67c6:	11 97       	sbiw	r26, 0x01	; 1
					DIGIT[0][0] = fnd_tbl[RTC_T.Month % 10];
    67c8:	88 0f       	add	r24, r24
    67ca:	98 2f       	mov	r25, r24
    67cc:	99 0f       	add	r25, r25
    67ce:	99 0f       	add	r25, r25
    67d0:	89 0f       	add	r24, r25
    67d2:	e8 1b       	sub	r30, r24
    67d4:	f0 e0       	ldi	r31, 0x00	; 0
    67d6:	e5 5c       	subi	r30, 0xC5	; 197
    67d8:	fe 4b       	sbci	r31, 0xBE	; 190
    67da:	80 81       	ld	r24, Z
    67dc:	8c 93       	st	X, r24
				}

				if(KEY.Buff)				// Key └╘╖┬└╠ └╓└╕╕ώ
    67de:	80 91 81 42 	lds	r24, 0x4281	; 0x804281 <KEY+0x1>
    67e2:	88 23       	and	r24, r24
    67e4:	09 f4       	brne	.+2      	; 0x67e8 <RTC_Set+0x2dc>
    67e6:	c3 c1       	rjmp	.+902    	; 0x6b6e <RTC_Set+0x662>
				{
					if     (KEY.Key == 1 && RTC_T.Month < 12) {RTC_T.Month ++; KEY.Key = 0;}// ╛≈  ╣÷╞░ └╠╕ώ Month ┴Ϋ░κ
    67e8:	80 91 82 42 	lds	r24, 0x4282	; 0x804282 <KEY+0x2>
    67ec:	81 30       	cpi	r24, 0x01	; 1
    67ee:	51 f4       	brne	.+20     	; 0x6804 <RTC_Set+0x2f8>
    67f0:	80 91 70 42 	lds	r24, 0x4270	; 0x804270 <RTC_T+0x5>
    67f4:	8c 30       	cpi	r24, 0x0C	; 12
    67f6:	30 f4       	brcc	.+12     	; 0x6804 <RTC_Set+0x2f8>
    67f8:	8f 5f       	subi	r24, 0xFF	; 255
    67fa:	80 93 70 42 	sts	0x4270, r24	; 0x804270 <RTC_T+0x5>
    67fe:	10 92 82 42 	sts	0x4282, r1	; 0x804282 <KEY+0x2>
    6802:	b5 c1       	rjmp	.+874    	; 0x6b6e <RTC_Set+0x662>
					else if(KEY.Key == 3 && RTC_T.Month >  1) {RTC_T.Month --; KEY.Key = 0;}// ┤┘┐Ό╣÷╞░ └╠╕ώ Month ░ρ╝╥
    6804:	80 91 82 42 	lds	r24, 0x4282	; 0x804282 <KEY+0x2>
    6808:	83 30       	cpi	r24, 0x03	; 3
    680a:	09 f0       	breq	.+2      	; 0x680e <RTC_Set+0x302>
    680c:	b0 c1       	rjmp	.+864    	; 0x6b6e <RTC_Set+0x662>
    680e:	80 91 70 42 	lds	r24, 0x4270	; 0x804270 <RTC_T+0x5>
    6812:	82 30       	cpi	r24, 0x02	; 2
    6814:	08 f4       	brcc	.+2      	; 0x6818 <RTC_Set+0x30c>
    6816:	ab c1       	rjmp	.+854    	; 0x6b6e <RTC_Set+0x662>
    6818:	81 50       	subi	r24, 0x01	; 1
    681a:	80 93 70 42 	sts	0x4270, r24	; 0x804270 <RTC_T+0x5>
    681e:	10 92 82 42 	sts	0x4282, r1	; 0x804282 <KEY+0x2>
    6822:	a5 c1       	rjmp	.+842    	; 0x6b6e <RTC_Set+0x662>
				}
			break;

			case 2:						// └╧ ╟ξ╜├ ╣╫ ╝│┴ν
				DIGIT[0][1] = fnd_tbl[RTC_T.Month / 10];// ┐∙ ╟ξ╜├
    6824:	e0 91 70 42 	lds	r30, 0x4270	; 0x804270 <RTC_T+0x5>
    6828:	8d ec       	ldi	r24, 0xCD	; 205
    682a:	e8 9f       	mul	r30, r24
    682c:	81 2d       	mov	r24, r1
    682e:	11 24       	eor	r1, r1
    6830:	86 95       	lsr	r24
    6832:	86 95       	lsr	r24
    6834:	86 95       	lsr	r24
    6836:	a8 2f       	mov	r26, r24
    6838:	b0 e0       	ldi	r27, 0x00	; 0
    683a:	a5 5c       	subi	r26, 0xC5	; 197
    683c:	be 4b       	sbci	r27, 0xBE	; 190
    683e:	9c 91       	ld	r25, X
    6840:	af e6       	ldi	r26, 0x6F	; 111
    6842:	b1 e4       	ldi	r27, 0x41	; 65
    6844:	11 96       	adiw	r26, 0x01	; 1
    6846:	9c 93       	st	X, r25
    6848:	11 97       	sbiw	r26, 0x01	; 1
				DIGIT[0][0] = fnd_tbl[RTC_T.Month % 10];
    684a:	88 0f       	add	r24, r24
    684c:	98 2f       	mov	r25, r24
    684e:	99 0f       	add	r25, r25
    6850:	99 0f       	add	r25, r25
    6852:	89 0f       	add	r24, r25
    6854:	e8 1b       	sub	r30, r24
    6856:	f0 e0       	ldi	r31, 0x00	; 0
    6858:	e5 5c       	subi	r30, 0xC5	; 197
    685a:	fe 4b       	sbci	r31, 0xBE	; 190
    685c:	80 81       	ld	r24, Z
    685e:	8c 93       	st	X, r24
				if(Blink)				// Blink = 1 └╠╕ώ
    6860:	80 91 b0 42 	lds	r24, 0x42B0	; 0x8042b0 <Blink>
    6864:	88 23       	and	r24, r24
    6866:	21 f0       	breq	.+8      	; 0x6870 <RTC_Set+0x364>
				{
					DIGIT[1][3] = FND_OFF;		// ╖╬╡ί╝┐ Date └┌╕χ OFF
    6868:	fd 01       	movw	r30, r26
    686a:	17 82       	std	Z+7, r1	; 0x07
					DIGIT[1][2] = FND_OFF;
    686c:	16 82       	std	Z+6, r1	; 0x06
    686e:	1f c0       	rjmp	.+62     	; 0x68ae <RTC_Set+0x3a2>
				}
				else					// Blink = 0 └╠╕ώ
				{
					DIGIT[1][3] = fnd_tbl[RTC_T.Date / 10];	// ╖╬╡ί╝┐ Date └┌╕χ ╟ξ╜├
    6870:	e0 91 6f 42 	lds	r30, 0x426F	; 0x80426f <RTC_T+0x4>
    6874:	8d ec       	ldi	r24, 0xCD	; 205
    6876:	e8 9f       	mul	r30, r24
    6878:	81 2d       	mov	r24, r1
    687a:	11 24       	eor	r1, r1
    687c:	86 95       	lsr	r24
    687e:	86 95       	lsr	r24
    6880:	86 95       	lsr	r24
    6882:	a8 2f       	mov	r26, r24
    6884:	b0 e0       	ldi	r27, 0x00	; 0
    6886:	a5 5c       	subi	r26, 0xC5	; 197
    6888:	be 4b       	sbci	r27, 0xBE	; 190
    688a:	9c 91       	ld	r25, X
    688c:	af e6       	ldi	r26, 0x6F	; 111
    688e:	b1 e4       	ldi	r27, 0x41	; 65
    6890:	17 96       	adiw	r26, 0x07	; 7
    6892:	9c 93       	st	X, r25
    6894:	17 97       	sbiw	r26, 0x07	; 7
					DIGIT[1][2] = fnd_tbl[RTC_T.Date % 10];
    6896:	88 0f       	add	r24, r24
    6898:	98 2f       	mov	r25, r24
    689a:	99 0f       	add	r25, r25
    689c:	99 0f       	add	r25, r25
    689e:	89 0f       	add	r24, r25
    68a0:	e8 1b       	sub	r30, r24
    68a2:	f0 e0       	ldi	r31, 0x00	; 0
    68a4:	e5 5c       	subi	r30, 0xC5	; 197
    68a6:	fe 4b       	sbci	r31, 0xBE	; 190
    68a8:	80 81       	ld	r24, Z
    68aa:	16 96       	adiw	r26, 0x06	; 6
    68ac:	8c 93       	st	X, r24
				}

				if(KEY.Buff)				// Key └╘╖┬└╠ └╓└╕╕ώ
    68ae:	80 91 81 42 	lds	r24, 0x4281	; 0x804281 <KEY+0x1>
    68b2:	88 23       	and	r24, r24
    68b4:	09 f4       	brne	.+2      	; 0x68b8 <RTC_Set+0x3ac>
    68b6:	5b c1       	rjmp	.+694    	; 0x6b6e <RTC_Set+0x662>
				{
					if     (KEY.Key == 1 && RTC_T.Date < 31) {RTC_T.Date ++; KEY.Key = 0;}	// ╛≈  ╣÷╞░ └╠╕ώ Date ┴Ϋ░κ
    68b8:	80 91 82 42 	lds	r24, 0x4282	; 0x804282 <KEY+0x2>
    68bc:	81 30       	cpi	r24, 0x01	; 1
    68be:	51 f4       	brne	.+20     	; 0x68d4 <RTC_Set+0x3c8>
    68c0:	80 91 6f 42 	lds	r24, 0x426F	; 0x80426f <RTC_T+0x4>
    68c4:	8f 31       	cpi	r24, 0x1F	; 31
    68c6:	30 f4       	brcc	.+12     	; 0x68d4 <RTC_Set+0x3c8>
    68c8:	8f 5f       	subi	r24, 0xFF	; 255
    68ca:	80 93 6f 42 	sts	0x426F, r24	; 0x80426f <RTC_T+0x4>
    68ce:	10 92 82 42 	sts	0x4282, r1	; 0x804282 <KEY+0x2>
    68d2:	4d c1       	rjmp	.+666    	; 0x6b6e <RTC_Set+0x662>
					else if(KEY.Key == 3 && RTC_T.Date >  1) {RTC_T.Date --; KEY.Key = 0;}	// ┤┘┐Ό╣÷╞░ └╠╕ώ Date ░ρ╝╥
    68d4:	80 91 82 42 	lds	r24, 0x4282	; 0x804282 <KEY+0x2>
    68d8:	83 30       	cpi	r24, 0x03	; 3
    68da:	09 f0       	breq	.+2      	; 0x68de <RTC_Set+0x3d2>
    68dc:	48 c1       	rjmp	.+656    	; 0x6b6e <RTC_Set+0x662>
    68de:	80 91 6f 42 	lds	r24, 0x426F	; 0x80426f <RTC_T+0x4>
    68e2:	82 30       	cpi	r24, 0x02	; 2
    68e4:	08 f4       	brcc	.+2      	; 0x68e8 <RTC_Set+0x3dc>
    68e6:	43 c1       	rjmp	.+646    	; 0x6b6e <RTC_Set+0x662>
    68e8:	81 50       	subi	r24, 0x01	; 1
    68ea:	80 93 6f 42 	sts	0x426F, r24	; 0x80426f <RTC_T+0x4>
    68ee:	10 92 82 42 	sts	0x4282, r1	; 0x804282 <KEY+0x2>
    68f2:	3d c1       	rjmp	.+634    	; 0x6b6e <RTC_Set+0x662>
				}
			break;

			case 3:						// ╜├ ╟ξ╜├ ╣╫ ╝│┴ν
				DIGIT[1][3] = fnd_tbl[RTC_T.Date / 10];	// └╧ ╟ξ╜├
    68f4:	e0 91 6f 42 	lds	r30, 0x426F	; 0x80426f <RTC_T+0x4>
    68f8:	8d ec       	ldi	r24, 0xCD	; 205
    68fa:	e8 9f       	mul	r30, r24
    68fc:	81 2d       	mov	r24, r1
    68fe:	11 24       	eor	r1, r1
    6900:	86 95       	lsr	r24
    6902:	86 95       	lsr	r24
    6904:	86 95       	lsr	r24
    6906:	a8 2f       	mov	r26, r24
    6908:	b0 e0       	ldi	r27, 0x00	; 0
    690a:	a5 5c       	subi	r26, 0xC5	; 197
    690c:	be 4b       	sbci	r27, 0xBE	; 190
    690e:	9c 91       	ld	r25, X
    6910:	af e6       	ldi	r26, 0x6F	; 111
    6912:	b1 e4       	ldi	r27, 0x41	; 65
    6914:	17 96       	adiw	r26, 0x07	; 7
    6916:	9c 93       	st	X, r25
    6918:	17 97       	sbiw	r26, 0x07	; 7
				DIGIT[1][2] = fnd_tbl[RTC_T.Date % 10];
    691a:	88 0f       	add	r24, r24
    691c:	98 2f       	mov	r25, r24
    691e:	99 0f       	add	r25, r25
    6920:	99 0f       	add	r25, r25
    6922:	89 0f       	add	r24, r25
    6924:	e8 1b       	sub	r30, r24
    6926:	f0 e0       	ldi	r31, 0x00	; 0
    6928:	e5 5c       	subi	r30, 0xC5	; 197
    692a:	fe 4b       	sbci	r31, 0xBE	; 190
    692c:	80 81       	ld	r24, Z
    692e:	16 96       	adiw	r26, 0x06	; 6
    6930:	8c 93       	st	X, r24
    6932:	16 97       	sbiw	r26, 0x06	; 6
				if(Blink)				// Blink = 1 └╠╕ώ
    6934:	80 91 b0 42 	lds	r24, 0x42B0	; 0x8042b0 <Blink>
    6938:	88 23       	and	r24, r24
    693a:	21 f0       	breq	.+8      	; 0x6944 <RTC_Set+0x438>
				{
					DIGIT[1][1] = FND_OFF;		// ╖╬╡ί╝┐ Hour └┌╕χ OFF
    693c:	fd 01       	movw	r30, r26
    693e:	15 82       	std	Z+5, r1	; 0x05
					DIGIT[1][0] = FND_OFF;
    6940:	14 82       	std	Z+4, r1	; 0x04
    6942:	1f c0       	rjmp	.+62     	; 0x6982 <RTC_Set+0x476>
				}
				else					// Blink = 0 └╠╕ώ
				{
					DIGIT[1][1] = fnd_tbl[RTC_T.Hour / 10];	// ╖╬╡ί╝┐ Hour └┌╕χ ╟ξ╜├
    6944:	e0 91 6d 42 	lds	r30, 0x426D	; 0x80426d <RTC_T+0x2>
    6948:	8d ec       	ldi	r24, 0xCD	; 205
    694a:	e8 9f       	mul	r30, r24
    694c:	81 2d       	mov	r24, r1
    694e:	11 24       	eor	r1, r1
    6950:	86 95       	lsr	r24
    6952:	86 95       	lsr	r24
    6954:	86 95       	lsr	r24
    6956:	a8 2f       	mov	r26, r24
    6958:	b0 e0       	ldi	r27, 0x00	; 0
    695a:	a5 5c       	subi	r26, 0xC5	; 197
    695c:	be 4b       	sbci	r27, 0xBE	; 190
    695e:	9c 91       	ld	r25, X
    6960:	af e6       	ldi	r26, 0x6F	; 111
    6962:	b1 e4       	ldi	r27, 0x41	; 65
    6964:	15 96       	adiw	r26, 0x05	; 5
    6966:	9c 93       	st	X, r25
    6968:	15 97       	sbiw	r26, 0x05	; 5
					DIGIT[1][0] = fnd_tbl[RTC_T.Hour % 10];
    696a:	88 0f       	add	r24, r24
    696c:	98 2f       	mov	r25, r24
    696e:	99 0f       	add	r25, r25
    6970:	99 0f       	add	r25, r25
    6972:	89 0f       	add	r24, r25
    6974:	e8 1b       	sub	r30, r24
    6976:	f0 e0       	ldi	r31, 0x00	; 0
    6978:	e5 5c       	subi	r30, 0xC5	; 197
    697a:	fe 4b       	sbci	r31, 0xBE	; 190
    697c:	80 81       	ld	r24, Z
    697e:	14 96       	adiw	r26, 0x04	; 4
    6980:	8c 93       	st	X, r24
				}

				if(KEY.Buff)				// Key └╘╖┬└╠ └╓└╕╕ώ
    6982:	80 91 81 42 	lds	r24, 0x4281	; 0x804281 <KEY+0x1>
    6986:	88 23       	and	r24, r24
    6988:	09 f4       	brne	.+2      	; 0x698c <RTC_Set+0x480>
    698a:	f1 c0       	rjmp	.+482    	; 0x6b6e <RTC_Set+0x662>
				{
					if     (KEY.Key == 1 && RTC_T.Hour < 23) {RTC_T.Hour ++; KEY.Key = 0;}	// ╛≈  ╣÷╞░ └╠╕ώ Hour ┴Ϋ░κ
    698c:	80 91 82 42 	lds	r24, 0x4282	; 0x804282 <KEY+0x2>
    6990:	81 30       	cpi	r24, 0x01	; 1
    6992:	51 f4       	brne	.+20     	; 0x69a8 <RTC_Set+0x49c>
    6994:	80 91 6d 42 	lds	r24, 0x426D	; 0x80426d <RTC_T+0x2>
    6998:	87 31       	cpi	r24, 0x17	; 23
    699a:	30 f4       	brcc	.+12     	; 0x69a8 <RTC_Set+0x49c>
    699c:	8f 5f       	subi	r24, 0xFF	; 255
    699e:	80 93 6d 42 	sts	0x426D, r24	; 0x80426d <RTC_T+0x2>
    69a2:	10 92 82 42 	sts	0x4282, r1	; 0x804282 <KEY+0x2>
    69a6:	e3 c0       	rjmp	.+454    	; 0x6b6e <RTC_Set+0x662>
					else if(KEY.Key == 3 && RTC_T.Hour >  0) {RTC_T.Hour --; KEY.Key = 0;}	// ┤┘┐Ό╣÷╞░ └╠╕ώ Hour ░ρ╝╥
    69a8:	80 91 82 42 	lds	r24, 0x4282	; 0x804282 <KEY+0x2>
    69ac:	83 30       	cpi	r24, 0x03	; 3
    69ae:	09 f0       	breq	.+2      	; 0x69b2 <RTC_Set+0x4a6>
    69b0:	de c0       	rjmp	.+444    	; 0x6b6e <RTC_Set+0x662>
    69b2:	80 91 6d 42 	lds	r24, 0x426D	; 0x80426d <RTC_T+0x2>
    69b6:	88 23       	and	r24, r24
    69b8:	09 f4       	brne	.+2      	; 0x69bc <RTC_Set+0x4b0>
    69ba:	d9 c0       	rjmp	.+434    	; 0x6b6e <RTC_Set+0x662>
    69bc:	81 50       	subi	r24, 0x01	; 1
    69be:	80 93 6d 42 	sts	0x426D, r24	; 0x80426d <RTC_T+0x2>
    69c2:	10 92 82 42 	sts	0x4282, r1	; 0x804282 <KEY+0x2>
    69c6:	d3 c0       	rjmp	.+422    	; 0x6b6e <RTC_Set+0x662>
				}
			break;

			case 4:						// ║╨ ╟ξ╜├ ╣╫ ╝│┴ν
				DIGIT[1][1] = fnd_tbl[RTC_T.Hour / 10];	// ╜├ ╟ξ╜├
    69c8:	e0 91 6d 42 	lds	r30, 0x426D	; 0x80426d <RTC_T+0x2>
    69cc:	8d ec       	ldi	r24, 0xCD	; 205
    69ce:	e8 9f       	mul	r30, r24
    69d0:	81 2d       	mov	r24, r1
    69d2:	11 24       	eor	r1, r1
    69d4:	86 95       	lsr	r24
    69d6:	86 95       	lsr	r24
    69d8:	86 95       	lsr	r24
    69da:	a8 2f       	mov	r26, r24
    69dc:	b0 e0       	ldi	r27, 0x00	; 0
    69de:	a5 5c       	subi	r26, 0xC5	; 197
    69e0:	be 4b       	sbci	r27, 0xBE	; 190
    69e2:	9c 91       	ld	r25, X
    69e4:	af e6       	ldi	r26, 0x6F	; 111
    69e6:	b1 e4       	ldi	r27, 0x41	; 65
    69e8:	15 96       	adiw	r26, 0x05	; 5
    69ea:	9c 93       	st	X, r25
    69ec:	15 97       	sbiw	r26, 0x05	; 5
				DIGIT[1][0] = fnd_tbl[RTC_T.Hour % 10];
    69ee:	88 0f       	add	r24, r24
    69f0:	98 2f       	mov	r25, r24
    69f2:	99 0f       	add	r25, r25
    69f4:	99 0f       	add	r25, r25
    69f6:	89 0f       	add	r24, r25
    69f8:	e8 1b       	sub	r30, r24
    69fa:	f0 e0       	ldi	r31, 0x00	; 0
    69fc:	e5 5c       	subi	r30, 0xC5	; 197
    69fe:	fe 4b       	sbci	r31, 0xBE	; 190
    6a00:	80 81       	ld	r24, Z
    6a02:	14 96       	adiw	r26, 0x04	; 4
    6a04:	8c 93       	st	X, r24
    6a06:	14 97       	sbiw	r26, 0x04	; 4
				if(Blink)				// Blink = 1 └╠╕ώ
    6a08:	80 91 b0 42 	lds	r24, 0x42B0	; 0x8042b0 <Blink>
    6a0c:	88 23       	and	r24, r24
    6a0e:	21 f0       	breq	.+8      	; 0x6a18 <RTC_Set+0x50c>
				{
					DIGIT[2][3] = FND_OFF;		// ╖╬╡ί╝┐ Min └┌╕χ OFF
    6a10:	fd 01       	movw	r30, r26
    6a12:	13 86       	std	Z+11, r1	; 0x0b
					DIGIT[2][2] = FND_OFF;
    6a14:	12 86       	std	Z+10, r1	; 0x0a
    6a16:	1f c0       	rjmp	.+62     	; 0x6a56 <RTC_Set+0x54a>
				}
				else					// Blink = 0 └╠╕ώ
				{
					DIGIT[2][3] = fnd_tbl[RTC_T.Min / 10];	// ╖╬╡ί╝┐ Min └┌╕χ ╟ξ╜├
    6a18:	e0 91 6c 42 	lds	r30, 0x426C	; 0x80426c <RTC_T+0x1>
    6a1c:	8d ec       	ldi	r24, 0xCD	; 205
    6a1e:	e8 9f       	mul	r30, r24
    6a20:	81 2d       	mov	r24, r1
    6a22:	11 24       	eor	r1, r1
    6a24:	86 95       	lsr	r24
    6a26:	86 95       	lsr	r24
    6a28:	86 95       	lsr	r24
    6a2a:	a8 2f       	mov	r26, r24
    6a2c:	b0 e0       	ldi	r27, 0x00	; 0
    6a2e:	a5 5c       	subi	r26, 0xC5	; 197
    6a30:	be 4b       	sbci	r27, 0xBE	; 190
    6a32:	9c 91       	ld	r25, X
    6a34:	af e6       	ldi	r26, 0x6F	; 111
    6a36:	b1 e4       	ldi	r27, 0x41	; 65
    6a38:	1b 96       	adiw	r26, 0x0b	; 11
    6a3a:	9c 93       	st	X, r25
    6a3c:	1b 97       	sbiw	r26, 0x0b	; 11
					DIGIT[2][2] = fnd_tbl[RTC_T.Min % 10];
    6a3e:	88 0f       	add	r24, r24
    6a40:	98 2f       	mov	r25, r24
    6a42:	99 0f       	add	r25, r25
    6a44:	99 0f       	add	r25, r25
    6a46:	89 0f       	add	r24, r25
    6a48:	e8 1b       	sub	r30, r24
    6a4a:	f0 e0       	ldi	r31, 0x00	; 0
    6a4c:	e5 5c       	subi	r30, 0xC5	; 197
    6a4e:	fe 4b       	sbci	r31, 0xBE	; 190
    6a50:	80 81       	ld	r24, Z
    6a52:	1a 96       	adiw	r26, 0x0a	; 10
    6a54:	8c 93       	st	X, r24
				}

				if(KEY.Buff)				// Key └╘╖┬└╠ └╓└╕╕ώ
    6a56:	80 91 81 42 	lds	r24, 0x4281	; 0x804281 <KEY+0x1>
    6a5a:	88 23       	and	r24, r24
    6a5c:	09 f4       	brne	.+2      	; 0x6a60 <RTC_Set+0x554>
    6a5e:	87 c0       	rjmp	.+270    	; 0x6b6e <RTC_Set+0x662>
				{
					if     (KEY.Key == 1 && RTC_T.Min < 59) {RTC_T.Min ++; KEY.Key = 0;}	// ╛≈  ╣÷╞░ └╠╕ώ Min ┴Ϋ░κ
    6a60:	80 91 82 42 	lds	r24, 0x4282	; 0x804282 <KEY+0x2>
    6a64:	81 30       	cpi	r24, 0x01	; 1
    6a66:	51 f4       	brne	.+20     	; 0x6a7c <RTC_Set+0x570>
    6a68:	80 91 6c 42 	lds	r24, 0x426C	; 0x80426c <RTC_T+0x1>
    6a6c:	8b 33       	cpi	r24, 0x3B	; 59
    6a6e:	30 f4       	brcc	.+12     	; 0x6a7c <RTC_Set+0x570>
    6a70:	8f 5f       	subi	r24, 0xFF	; 255
    6a72:	80 93 6c 42 	sts	0x426C, r24	; 0x80426c <RTC_T+0x1>
    6a76:	10 92 82 42 	sts	0x4282, r1	; 0x804282 <KEY+0x2>
    6a7a:	79 c0       	rjmp	.+242    	; 0x6b6e <RTC_Set+0x662>
					else if(KEY.Key == 3 && RTC_T.Min >  0) {RTC_T.Min --; KEY.Key = 0;}	// ┤┘┐Ό╣÷╞░ └╠╕ώ Min ░ρ╝╥
    6a7c:	80 91 82 42 	lds	r24, 0x4282	; 0x804282 <KEY+0x2>
    6a80:	83 30       	cpi	r24, 0x03	; 3
    6a82:	09 f0       	breq	.+2      	; 0x6a86 <RTC_Set+0x57a>
    6a84:	74 c0       	rjmp	.+232    	; 0x6b6e <RTC_Set+0x662>
    6a86:	80 91 6c 42 	lds	r24, 0x426C	; 0x80426c <RTC_T+0x1>
    6a8a:	88 23       	and	r24, r24
    6a8c:	09 f4       	brne	.+2      	; 0x6a90 <RTC_Set+0x584>
    6a8e:	6f c0       	rjmp	.+222    	; 0x6b6e <RTC_Set+0x662>
    6a90:	81 50       	subi	r24, 0x01	; 1
    6a92:	80 93 6c 42 	sts	0x426C, r24	; 0x80426c <RTC_T+0x1>
    6a96:	10 92 82 42 	sts	0x4282, r1	; 0x804282 <KEY+0x2>
    6a9a:	69 c0       	rjmp	.+210    	; 0x6b6e <RTC_Set+0x662>
				}
			break;

			case 5:						// ╖╬╡ί╝┐ RO 10└╟ └┌╕χ
				DIGIT[2][3] = fnd_tbl[RTC_T.Min / 10];	// ║╨ ╟ξ╜├
    6a9c:	e0 91 6c 42 	lds	r30, 0x426C	; 0x80426c <RTC_T+0x1>
    6aa0:	8d ec       	ldi	r24, 0xCD	; 205
    6aa2:	e8 9f       	mul	r30, r24
    6aa4:	81 2d       	mov	r24, r1
    6aa6:	11 24       	eor	r1, r1
    6aa8:	86 95       	lsr	r24
    6aaa:	86 95       	lsr	r24
    6aac:	86 95       	lsr	r24
    6aae:	a8 2f       	mov	r26, r24
    6ab0:	b0 e0       	ldi	r27, 0x00	; 0
    6ab2:	a5 5c       	subi	r26, 0xC5	; 197
    6ab4:	be 4b       	sbci	r27, 0xBE	; 190
    6ab6:	9c 91       	ld	r25, X
    6ab8:	af e6       	ldi	r26, 0x6F	; 111
    6aba:	b1 e4       	ldi	r27, 0x41	; 65
    6abc:	1b 96       	adiw	r26, 0x0b	; 11
    6abe:	9c 93       	st	X, r25
    6ac0:	1b 97       	sbiw	r26, 0x0b	; 11
				DIGIT[2][2] = fnd_tbl[RTC_T.Min % 10];
    6ac2:	88 0f       	add	r24, r24
    6ac4:	98 2f       	mov	r25, r24
    6ac6:	99 0f       	add	r25, r25
    6ac8:	99 0f       	add	r25, r25
    6aca:	89 0f       	add	r24, r25
    6acc:	e8 1b       	sub	r30, r24
    6ace:	f0 e0       	ldi	r31, 0x00	; 0
    6ad0:	e5 5c       	subi	r30, 0xC5	; 197
    6ad2:	fe 4b       	sbci	r31, 0xBE	; 190
    6ad4:	80 81       	ld	r24, Z
    6ad6:	1a 96       	adiw	r26, 0x0a	; 10
    6ad8:	8c 93       	st	X, r24
    6ada:	1a 97       	sbiw	r26, 0x0a	; 10
				if(Blink)				// Blink = 1 └╠╕ώ
    6adc:	80 91 b0 42 	lds	r24, 0x42B0	; 0x8042b0 <Blink>
    6ae0:	88 23       	and	r24, r24
    6ae2:	21 f0       	breq	.+8      	; 0x6aec <RTC_Set+0x5e0>
				{
					DIGIT[2][1] = FND_OFF;		// ╖╬╡ί╝┐ Sec └┌╕χ OFF
    6ae4:	fd 01       	movw	r30, r26
    6ae6:	11 86       	std	Z+9, r1	; 0x09
					DIGIT[2][0] = FND_OFF;
    6ae8:	10 86       	std	Z+8, r1	; 0x08
    6aea:	1f c0       	rjmp	.+62     	; 0x6b2a <RTC_Set+0x61e>
				}
				else					// Blink = 0 └╠╕ώ
				{
					DIGIT[2][1] = fnd_tbl[RTC_T.Sec / 10];	// ╖╬╡ί╝┐ Sec └┌╕χ ╟ξ╜├
    6aec:	e0 91 6b 42 	lds	r30, 0x426B	; 0x80426b <RTC_T>
    6af0:	8d ec       	ldi	r24, 0xCD	; 205
    6af2:	e8 9f       	mul	r30, r24
    6af4:	81 2d       	mov	r24, r1
    6af6:	11 24       	eor	r1, r1
    6af8:	86 95       	lsr	r24
    6afa:	86 95       	lsr	r24
    6afc:	86 95       	lsr	r24
    6afe:	a8 2f       	mov	r26, r24
    6b00:	b0 e0       	ldi	r27, 0x00	; 0
    6b02:	a5 5c       	subi	r26, 0xC5	; 197
    6b04:	be 4b       	sbci	r27, 0xBE	; 190
    6b06:	9c 91       	ld	r25, X
    6b08:	af e6       	ldi	r26, 0x6F	; 111
    6b0a:	b1 e4       	ldi	r27, 0x41	; 65
    6b0c:	19 96       	adiw	r26, 0x09	; 9
    6b0e:	9c 93       	st	X, r25
    6b10:	19 97       	sbiw	r26, 0x09	; 9
					DIGIT[2][0] = fnd_tbl[RTC_T.Sec % 10];
    6b12:	88 0f       	add	r24, r24
    6b14:	98 2f       	mov	r25, r24
    6b16:	99 0f       	add	r25, r25
    6b18:	99 0f       	add	r25, r25
    6b1a:	89 0f       	add	r24, r25
    6b1c:	e8 1b       	sub	r30, r24
    6b1e:	f0 e0       	ldi	r31, 0x00	; 0
    6b20:	e5 5c       	subi	r30, 0xC5	; 197
    6b22:	fe 4b       	sbci	r31, 0xBE	; 190
    6b24:	80 81       	ld	r24, Z
    6b26:	18 96       	adiw	r26, 0x08	; 8
    6b28:	8c 93       	st	X, r24
				}

				if(KEY.Buff)				// Key └╘╖┬└╠ └╓└╕╕ώ
    6b2a:	80 91 81 42 	lds	r24, 0x4281	; 0x804281 <KEY+0x1>
    6b2e:	88 23       	and	r24, r24
    6b30:	f1 f0       	breq	.+60     	; 0x6b6e <RTC_Set+0x662>
				{
					if     (KEY.Key == 1 && RTC_T.Sec < 59) {RTC_T.Sec++; KEY.Key = 0;}	// ╛≈  ╣÷╞░ └╠╕ώ Sec ┴Ϋ░κ
    6b32:	80 91 82 42 	lds	r24, 0x4282	; 0x804282 <KEY+0x2>
    6b36:	81 30       	cpi	r24, 0x01	; 1
    6b38:	51 f4       	brne	.+20     	; 0x6b4e <RTC_Set+0x642>
    6b3a:	80 91 6b 42 	lds	r24, 0x426B	; 0x80426b <RTC_T>
    6b3e:	8b 33       	cpi	r24, 0x3B	; 59
    6b40:	30 f4       	brcc	.+12     	; 0x6b4e <RTC_Set+0x642>
    6b42:	8f 5f       	subi	r24, 0xFF	; 255
    6b44:	80 93 6b 42 	sts	0x426B, r24	; 0x80426b <RTC_T>
    6b48:	10 92 82 42 	sts	0x4282, r1	; 0x804282 <KEY+0x2>
    6b4c:	10 c0       	rjmp	.+32     	; 0x6b6e <RTC_Set+0x662>
					else if(KEY.Key == 3 && RTC_T.Sec >  0) {RTC_T.Sec--; KEY.Key = 0;}	// ┤┘┐Ό╣÷╞░ └╠╕ώ Sec ░ρ╝╥
    6b4e:	80 91 82 42 	lds	r24, 0x4282	; 0x804282 <KEY+0x2>
    6b52:	83 30       	cpi	r24, 0x03	; 3
    6b54:	61 f4       	brne	.+24     	; 0x6b6e <RTC_Set+0x662>
    6b56:	80 91 6b 42 	lds	r24, 0x426B	; 0x80426b <RTC_T>
    6b5a:	88 23       	and	r24, r24
    6b5c:	41 f0       	breq	.+16     	; 0x6b6e <RTC_Set+0x662>
    6b5e:	81 50       	subi	r24, 0x01	; 1
    6b60:	80 93 6b 42 	sts	0x426B, r24	; 0x80426b <RTC_T>
    6b64:	10 92 82 42 	sts	0x4282, r1	; 0x804282 <KEY+0x2>
    6b68:	02 c0       	rjmp	.+4      	; 0x6b6e <RTC_Set+0x662>
				}
			break;
			
			case 6:
				KEY.Count = 0;				// ╣▌║╣└╗ └π╟╪ Count╕ο ├╓└·╖╬ ░ρ╝╥ ╜├┼┤
    6b6a:	10 92 80 42 	sts	0x4280, r1	; 0x804280 <KEY>
			break;
		}
		wdt_reset();						// ┐÷─κ╡╢ ╕χ╝┬
    6b6e:	0e 94 ef 0c 	call	0x19de	; 0x19de <wdt_reset>
	DIGIT[2][2] = fnd_tbl[RTC_T.Min % 10];

	DIGIT[2][1] = fnd_tbl[RTC_T.Sec / 10];				// ├╩ ╟ξ╜├
	DIGIT[2][0] = fnd_tbl[RTC_T.Sec % 10];

	while(SET.Menu)							// ╕▐┤║╕Ώ╡ί └╠╕ώ ╣▌║╣
    6b72:	80 91 05 42 	lds	r24, 0x4205	; 0x804205 <SET>
    6b76:	81 11       	cpse	r24, r1
    6b78:	72 cd       	rjmp	.-1308   	; 0x665e <RTC_Set+0x152>
				KEY.Count = 0;				// ╣▌║╣└╗ └π╟╪ Count╕ο ├╓└·╖╬ ░ρ╝╥ ╜├┼┤
			break;
		}
		wdt_reset();						// ┐÷─κ╡╢ ╕χ╝┬
	}
	RTC_Time_Write(RTC_YEAR,   RTC_T.Year);				// RTC ┐κ │έ └·└ί
    6b7a:	cb e6       	ldi	r28, 0x6B	; 107
    6b7c:	d2 e4       	ldi	r29, 0x42	; 66
    6b7e:	6e 81       	ldd	r22, Y+6	; 0x06
    6b80:	86 e0       	ldi	r24, 0x06	; 6
    6b82:	0e 94 58 32 	call	0x64b0	; 0x64b0 <RTC_Time_Write>
	RTC_Time_Write(RTC_MONTH,  RTC_T.Month);			// RTC ┐κ ┐∙ └·└ί
    6b86:	6d 81       	ldd	r22, Y+5	; 0x05
    6b88:	85 e0       	ldi	r24, 0x05	; 5
    6b8a:	0e 94 58 32 	call	0x64b0	; 0x64b0 <RTC_Time_Write>
	RTC_Time_Write(RTC_DATE,   RTC_T.Date);				// RTC ┐κ └╧ └·└ί
    6b8e:	6c 81       	ldd	r22, Y+4	; 0x04
    6b90:	84 e0       	ldi	r24, 0x04	; 4
    6b92:	0e 94 58 32 	call	0x64b0	; 0x64b0 <RTC_Time_Write>
	RTC_Time_Write(RTC_HOUR,   RTC_T.Hour);				// RTC ┐κ ╜├ └·└ί
    6b96:	6a 81       	ldd	r22, Y+2	; 0x02
    6b98:	82 e0       	ldi	r24, 0x02	; 2
    6b9a:	0e 94 58 32 	call	0x64b0	; 0x64b0 <RTC_Time_Write>
	RTC_Time_Write(RTC_MINUTE, RTC_T.Min);				// RTC ┐κ ║╨ └·└ί
    6b9e:	69 81       	ldd	r22, Y+1	; 0x01
    6ba0:	81 e0       	ldi	r24, 0x01	; 1
    6ba2:	0e 94 58 32 	call	0x64b0	; 0x64b0 <RTC_Time_Write>
	RTC_Time_Write(RTC_SECOND, RTC_T.Sec);				// RTC ┐κ ├╩ └·└ί
    6ba6:	68 81       	ld	r22, Y
    6ba8:	80 e0       	ldi	r24, 0x00	; 0
    6baa:	0e 94 58 32 	call	0x64b0	; 0x64b0 <RTC_Time_Write>
}
    6bae:	df 91       	pop	r29
    6bb0:	cf 91       	pop	r28
    6bb2:	08 95       	ret

00006bb4 <SLPCTRL_init>:
    6bb4:	80 e0       	ldi	r24, 0x00	; 0
    6bb6:	08 95       	ret

00006bb8 <TIMER_1_init>:
	//		 | 0 << TCA_SINGLE_CNTBEI_bp /* Count on Event Input B: disabled */
	//		 | TCA_SINGLE_EVACTA_CNT_POSEDGE_gc /* Count on positive edge event */
	//		 | TCA_SINGLE_EVACTB_UPDOWN_gc; /* Count on prescaled clock. Event controls count direction. Up-count when
	//event line is 0, down-count when event line is 1. */

	TCA1.SINGLE.INTCTRL = 0 << TCA_SINGLE_CMP0_bp   /* Compare 0 Interrupt: disabled */
    6bb8:	e0 e4       	ldi	r30, 0x40	; 64
    6bba:	fa e0       	ldi	r31, 0x0A	; 10
    6bbc:	81 e0       	ldi	r24, 0x01	; 1
    6bbe:	82 87       	std	Z+10, r24	; 0x0a
	                      | 0 << TCA_SINGLE_CMP1_bp /* Compare 1 Interrupt: disabled */
	                      | 0 << TCA_SINGLE_CMP2_bp /* Compare 2 Interrupt: disabled */
	                      | 1 << TCA_SINGLE_OVF_bp; /* Overflow Interrupt: enabled */

	TCA1.SINGLE.PER = 0x0047;	//   5mSec
    6bc0:	87 e4       	ldi	r24, 0x47	; 71
    6bc2:	90 e0       	ldi	r25, 0x00	; 0
    6bc4:	86 a3       	std	Z+38, r24	; 0x26
    6bc6:	97 a3       	std	Z+39, r25	; 0x27
	// TCA1.SINGLE.PER = 0x008F;	//  10mSec
	// TCA1.SINGLE.PER = 0x02CF;	//  50mSec
	// TCA1.SINGLE.PER = 0x1C20;	// 500mSec
	// TCA1.SINGLE.PER = 0x38B0;	//    1Sec

	TCA1.SINGLE.CTRLA = TCA_SINGLE_CLKSEL_DIV1024_gc      /* System Clock / 1024 */
    6bc8:	8f e0       	ldi	r24, 0x0F	; 15
    6bca:	80 83       	st	Z, r24
	                    | 1 << TCA_SINGLE_ENABLE_bp    /* Module Enable: enabled */
	                    | 0 << TCA_SINGLE_RUNSTDBY_bp; /* RUN STANDBY: disabled */
	return 0;
}
    6bcc:	80 e0       	ldi	r24, 0x00	; 0
    6bce:	08 95       	ret

00006bd0 <USART_1_init>:

//-------------------------------------------------------------------------------------------------
void Rx1_Buff_Clear(void)						// Rx1 Buffer Clear
{
	memset(Rx1_Buff, 0, RX1_SIZE);					// Rx1_Buff ╕ο Rx1_SIZE(250)╕╕┼φ 0└╕╖╬ ├╩▒έ╚φ
	Rx1_Cnt = 0;							// Rx1 Data Count ├╩▒έ╚φ
    6bd0:	e0 e2       	ldi	r30, 0x20	; 32
    6bd2:	f8 e0       	ldi	r31, 0x08	; 8
    6bd4:	80 e0       	ldi	r24, 0x00	; 0
    6bd6:	98 e1       	ldi	r25, 0x18	; 24
    6bd8:	80 87       	std	Z+8, r24	; 0x08
    6bda:	91 87       	std	Z+9, r25	; 0x09
    6bdc:	84 e9       	ldi	r24, 0x94	; 148
    6bde:	85 83       	std	Z+5, r24	; 0x05
    6be0:	80 ec       	ldi	r24, 0xC0	; 192
    6be2:	86 83       	std	Z+6, r24	; 0x06
    6be4:	80 e0       	ldi	r24, 0x00	; 0
    6be6:	08 95       	ret

00006be8 <USART1_Write>:
    6be8:	90 91 24 08 	lds	r25, 0x0824	; 0x800824 <__TEXT_REGION_LENGTH__+0x7e0824>
    6bec:	95 ff       	sbrs	r25, 5
    6bee:	fc cf       	rjmp	.-8      	; 0x6be8 <USART1_Write>
    6bf0:	80 93 22 08 	sts	0x0822, r24	; 0x800822 <__TEXT_REGION_LENGTH__+0x7e0822>
    6bf4:	81 e0       	ldi	r24, 0x01	; 1
    6bf6:	90 e0       	ldi	r25, 0x00	; 0
    6bf8:	08 95       	ret

00006bfa <USART_3_init>:

//=================================================================================================
#ifdef Usart_3
int8_t USART_3_init()
{
	USART3.BAUD = (uint16_t)USART3_BAUD_RATE(Usart3_BAUD);		/* set baud rate register */
    6bfa:	e0 e6       	ldi	r30, 0x60	; 96
    6bfc:	f8 e0       	ldi	r31, 0x08	; 8
    6bfe:	80 e0       	ldi	r24, 0x00	; 0
    6c00:	98 e1       	ldi	r25, 0x18	; 24
    6c02:	80 87       	std	Z+8, r24	; 0x08
    6c04:	91 87       	std	Z+9, r25	; 0x09

	USART3.CTRLA = 1 << USART_ABEIE_bp			/* Auto-baud Error Interrupt Enable: disabled */
    6c06:	84 e9       	ldi	r24, 0x94	; 148
    6c08:	85 83       	std	Z+5, r24	; 0x05
			| USART_RS485_DISABLE_gc		/* RS485 Mode disabled */
			| 1 << USART_RXCIE_bp			/* Receive Complete Interrupt Enable: enabled */
			| 1 << USART_RXSIE_bp			/* Receiver Start Frame Interrupt Enable: enabled */
			| 0 << USART_TXCIE_bp;			/* Transmit Complete Interrupt Enable: disabled */

	USART3.CTRLB = 0 << USART_MPCM_bp			/* Multi-processor Communication Mode: disabled */
    6c0a:	80 ec       	ldi	r24, 0xC0	; 192
    6c0c:	86 83       	std	Z+6, r24	; 0x06
	// USART3.EVCTRL = 0 << USART_IREI_bp;			/* IrDA Event Input Enable: disabled */
	// USART3.RXPLCTRL = 0x0 << USART_RXPL_gp;		/* Receiver Pulse Lenght: 0x0 */
	// USART3.TXPLCTRL = 0x0 << USART_TXPL_gp;		/* Transmit pulse length: 0x0 */

	return 0;
}
    6c0e:	80 e0       	ldi	r24, 0x00	; 0
    6c10:	08 95       	ret

00006c12 <USART3_Write>:

//-------------------------------------------------------------------------------------------------
int USART3_Write(char data)
{
	while(!(USART3.STATUS & USART_DREIF_bm)) ;
    6c12:	90 91 64 08 	lds	r25, 0x0864	; 0x800864 <__TEXT_REGION_LENGTH__+0x7e0864>
    6c16:	95 ff       	sbrs	r25, 5
    6c18:	fc cf       	rjmp	.-8      	; 0x6c12 <USART3_Write>
	USART3.TXDATAL = data;
    6c1a:	80 93 62 08 	sts	0x0862, r24	; 0x800862 <__TEXT_REGION_LENGTH__+0x7e0862>
	return 1;
}
    6c1e:	81 e0       	ldi	r24, 0x01	; 1
    6c20:	90 e0       	ldi	r25, 0x00	; 0
    6c22:	08 95       	ret

00006c24 <USART3_SendString>:

//-------------------------------------------------------------------------------------------------
void USART3_SendString(const char *str)
{
    6c24:	0f 93       	push	r16
    6c26:	1f 93       	push	r17
    6c28:	cf 93       	push	r28
    6c2a:	df 93       	push	r29
    6c2c:	8c 01       	movw	r16, r24
	for(size_t i = 0; i < strlen(str); i++) {USART3_Write(str[i]);}
    6c2e:	c0 e0       	ldi	r28, 0x00	; 0
    6c30:	d0 e0       	ldi	r29, 0x00	; 0
    6c32:	07 c0       	rjmp	.+14     	; 0x6c42 <USART3_SendString+0x1e>
    6c34:	f8 01       	movw	r30, r16
    6c36:	ec 0f       	add	r30, r28
    6c38:	fd 1f       	adc	r31, r29
    6c3a:	80 81       	ld	r24, Z
    6c3c:	0e 94 09 36 	call	0x6c12	; 0x6c12 <USART3_Write>
    6c40:	21 96       	adiw	r28, 0x01	; 1
    6c42:	f8 01       	movw	r30, r16
    6c44:	01 90       	ld	r0, Z+
    6c46:	00 20       	and	r0, r0
    6c48:	e9 f7       	brne	.-6      	; 0x6c44 <USART3_SendString+0x20>
    6c4a:	31 97       	sbiw	r30, 0x01	; 1
    6c4c:	e0 1b       	sub	r30, r16
    6c4e:	f1 0b       	sbc	r31, r17
    6c50:	ce 17       	cp	r28, r30
    6c52:	df 07       	cpc	r29, r31
    6c54:	78 f3       	brcs	.-34     	; 0x6c34 <USART3_SendString+0x10>
}
    6c56:	df 91       	pop	r29
    6c58:	cf 91       	pop	r28
    6c5a:	1f 91       	pop	r17
    6c5c:	0f 91       	pop	r16
    6c5e:	08 95       	ret

00006c60 <Rx3_Buff_Clear>:

//-------------------------------------------------------------------------------------------------
void Rx3_Buff_Clear(void)						// Rx3 Buffer Clear
{
	memset(Rx3_Buff, 0, RX3_SIZE);					// Rx3_Buff ╕ο Rx3_SIZE(250)╕╕┼φ 0└╕╖╬ ├╩▒έ╚φ
    6c60:	8a ef       	ldi	r24, 0xFA	; 250
    6c62:	e7 ee       	ldi	r30, 0xE7	; 231
    6c64:	f2 e4       	ldi	r31, 0x42	; 66
    6c66:	df 01       	movw	r26, r30
    6c68:	1d 92       	st	X+, r1
    6c6a:	8a 95       	dec	r24
    6c6c:	e9 f7       	brne	.-6      	; 0x6c68 <Rx3_Buff_Clear+0x8>
	Rx3_Cnt = 0;							// Rx3 Data Count ├╩▒έ╚φ
    6c6e:	10 92 a7 42 	sts	0x42A7, r1	; 0x8042a7 <Rx3_Cnt>
    6c72:	08 95       	ret

00006c74 <WDT_init>:
    6c74:	4a e0       	ldi	r20, 0x0A	; 10
    6c76:	68 ed       	ldi	r22, 0xD8	; 216
    6c78:	80 e0       	ldi	r24, 0x00	; 0
    6c7a:	91 e0       	ldi	r25, 0x01	; 1
    6c7c:	0e 94 09 32 	call	0x6412	; 0x6412 <protected_write_io>
    6c80:	80 e0       	ldi	r24, 0x00	; 0
    6c82:	08 95       	ret

00006c84 <ZigBee_Write_id>:
int CH[15] = {0x3043, 0x3044, 0x3045, 0x3046, 0x3130, 0x3131, 0x3132, 0x3133, 0x3134, 0x3135, 0x3136, 0x3137, 0x3138, 0x3139, 0x3140};
//┴÷▒╫║± ├ν│╬{    0C,     0D,     0E,     0F,     10,     11,     12,     13,     14,     15,     16,     17,     18,     19,     1A}

//=================================================================================================
void ZigBee_Write_id(void)							// ZigBee PanID └·└ί
{
    6c84:	cf 93       	push	r28
	uint8_t zbid_write = 0;							// zbid_write ║ψ╝÷ ├╩▒έ╚φ
    6c86:	c0 e0       	ldi	r28, 0x00	; 0

	do{
		switch(zbid_write)						// zbid_write
    6c88:	c1 30       	cpi	r28, 0x01	; 1
    6c8a:	a1 f0       	breq	.+40     	; 0x6cb4 <ZigBee_Write_id+0x30>
    6c8c:	28 f0       	brcs	.+10     	; 0x6c98 <ZigBee_Write_id+0x14>
    6c8e:	c2 30       	cpi	r28, 0x02	; 2
    6c90:	69 f1       	breq	.+90     	; 0x6cec <ZigBee_Write_id+0x68>
    6c92:	c3 30       	cpi	r28, 0x03	; 3
    6c94:	81 f1       	breq	.+96     	; 0x6cf6 <ZigBee_Write_id+0x72>
    6c96:	33 c0       	rjmp	.+102    	; 0x6cfe <ZigBee_Write_id+0x7a>
		{
			case 0:							// zbch_wite = 0 └╠╕ώ
				USART3_SendString("+++");			// USART3 ┐κ +++ └ⁿ╝█
    6c98:	88 e4       	ldi	r24, 0x48	; 72
    6c9a:	91 e4       	ldi	r25, 0x41	; 65
    6c9c:	0e 94 12 36 	call	0x6c24	; 0x6c24 <USART3_SendString>
    6ca0:	2f ef       	ldi	r18, 0xFF	; 255
    6ca2:	8f ef       	ldi	r24, 0xFF	; 255
    6ca4:	9c e2       	ldi	r25, 0x2C	; 44
    6ca6:	21 50       	subi	r18, 0x01	; 1
    6ca8:	80 40       	sbci	r24, 0x00	; 0
    6caa:	90 40       	sbci	r25, 0x00	; 0
    6cac:	e1 f7       	brne	.-8      	; 0x6ca6 <ZigBee_Write_id+0x22>
    6cae:	00 c0       	rjmp	.+0      	; 0x6cb0 <ZigBee_Write_id+0x2c>
    6cb0:	00 00       	nop
    6cb2:	25 c0       	rjmp	.+74     	; 0x6cfe <ZigBee_Write_id+0x7a>
				_delay_ms(1000);				// ZigBee ├╓├╩ ┤ϊ║ψ ╜├░μ 1├╩ Delay
			break;

			case 1:							// zbch_wite = 1 └╠╕ώ
				USART3_SendString("ATID");			// USART3 ┐κ ATCH └ⁿ╝█
    6cb4:	8c e4       	ldi	r24, 0x4C	; 76
    6cb6:	91 e4       	ldi	r25, 0x41	; 65
    6cb8:	0e 94 12 36 	call	0x6c24	; 0x6c24 <USART3_SendString>
				USART3_Write(Pan_id_1000 + 0x30);		// USART3 ┐κ Pan ID 2Byte ╗≤└π └ⁿ╝█
    6cbc:	80 91 7d 42 	lds	r24, 0x427D	; 0x80427d <Pan_id_1000>
    6cc0:	80 5d       	subi	r24, 0xD0	; 208
    6cc2:	0e 94 09 36 	call	0x6c12	; 0x6c12 <USART3_Write>
				USART3_Write(Pan_id_100 + 0x30);		// USART3 ┐κ Pan ID 2Byte ╟╧└π └ⁿ╝█
    6cc6:	80 91 a7 41 	lds	r24, 0x41A7	; 0x8041a7 <Pan_id_100>
    6cca:	80 5d       	subi	r24, 0xD0	; 208
    6ccc:	0e 94 09 36 	call	0x6c12	; 0x6c12 <USART3_Write>
				USART3_Write(Pan_id_10 + 0x30);			// USART3 ┐κ Pan ID 1Byte ╗≤└π └ⁿ╝█
    6cd0:	80 91 03 42 	lds	r24, 0x4203	; 0x804203 <Pan_id_10>
    6cd4:	80 5d       	subi	r24, 0xD0	; 208
    6cd6:	0e 94 09 36 	call	0x6c12	; 0x6c12 <USART3_Write>
				USART3_Write(Pan_id_1 + 0x30);			// USART3 ┐κ Pan ID 1Byte ╟╧└π └ⁿ╝█
    6cda:	80 91 d8 41 	lds	r24, 0x41D8	; 0x8041d8 <Pan_id_1>
    6cde:	80 5d       	subi	r24, 0xD0	; 208
    6ce0:	0e 94 09 36 	call	0x6c12	; 0x6c12 <USART3_Write>
				USART3_Write('\r');				// USART3 ┐κ \r
    6ce4:	8d e0       	ldi	r24, 0x0D	; 13
    6ce6:	0e 94 09 36 	call	0x6c12	; 0x6c12 <USART3_Write>
			break;
    6cea:	09 c0       	rjmp	.+18     	; 0x6cfe <ZigBee_Write_id+0x7a>

			case 2:							// zbch_wite = 2 └╠╕ώ
				USART3_SendString("ATWR\r");			// USART3 ┐κ ATWR\r └ⁿ╝█
    6cec:	81 e5       	ldi	r24, 0x51	; 81
    6cee:	91 e4       	ldi	r25, 0x41	; 65
    6cf0:	0e 94 12 36 	call	0x6c24	; 0x6c24 <USART3_SendString>
			break;
    6cf4:	04 c0       	rjmp	.+8      	; 0x6cfe <ZigBee_Write_id+0x7a>

			case 3:							// zbch_wite = 3 └╠╕ώ
				USART3_SendString("ATCN\r");			// USART3 ┐κ ATCN\r └ⁿ╝█
    6cf6:	87 e5       	ldi	r24, 0x57	; 87
    6cf8:	91 e4       	ldi	r25, 0x41	; 65
    6cfa:	0e 94 12 36 	call	0x6c24	; 0x6c24 <USART3_SendString>
			break;
		}
//-------------------------------------------------------------------------------------------------
		for(uint8_t cnt = 0; cnt < RX3_SIZE; cnt++)			// RX3_SIZE ╕╕┼φ ╣▌║╣
    6cfe:	80 e0       	ldi	r24, 0x00	; 0
    6d00:	9d c0       	rjmp	.+314    	; 0x6e3c <ZigBee_Write_id+0x1b8>
		{
			if(zbid_write == 0 && Rx3_Buff[cnt] == 'O' && Rx3_Buff[cnt + 1] == 'K' && Rx3_Buff[cnt + 2] == 0x0d)
    6d02:	c1 11       	cpse	r28, r1
    6d04:	25 c0       	rjmp	.+74     	; 0x6d50 <ZigBee_Write_id+0xcc>
    6d06:	28 2f       	mov	r18, r24
    6d08:	30 e0       	ldi	r19, 0x00	; 0
    6d0a:	f9 01       	movw	r30, r18
    6d0c:	e9 51       	subi	r30, 0x19	; 25
    6d0e:	fd 4b       	sbci	r31, 0xBD	; 189
    6d10:	90 81       	ld	r25, Z
    6d12:	9f 34       	cpi	r25, 0x4F	; 79
    6d14:	e9 f4       	brne	.+58     	; 0x6d50 <ZigBee_Write_id+0xcc>
    6d16:	f9 01       	movw	r30, r18
    6d18:	e8 51       	subi	r30, 0x18	; 24
    6d1a:	fd 4b       	sbci	r31, 0xBD	; 189
    6d1c:	90 81       	ld	r25, Z
    6d1e:	9b 34       	cpi	r25, 0x4B	; 75
    6d20:	b9 f4       	brne	.+46     	; 0x6d50 <ZigBee_Write_id+0xcc>
    6d22:	f9 01       	movw	r30, r18
    6d24:	e7 51       	subi	r30, 0x17	; 23
    6d26:	fd 4b       	sbci	r31, 0xBD	; 189
    6d28:	90 81       	ld	r25, Z
    6d2a:	9d 30       	cpi	r25, 0x0D	; 13
    6d2c:	89 f4       	brne	.+34     	; 0x6d50 <ZigBee_Write_id+0xcc>
			{							// 0+OK+CR
				zbid_write = 1;					// ┤ϊ║ψ ╚χ└╬ ╚─ ┤┘└╜└╕╖╬ ┴Ϋ░κ
				Beep(3);
    6d2e:	83 e0       	ldi	r24, 0x03	; 3
    6d30:	90 e0       	ldi	r25, 0x00	; 0
    6d32:	0e 94 3b 04 	call	0x876	; 0x876 <Beep>
    6d36:	2f ef       	ldi	r18, 0xFF	; 255
    6d38:	8f e3       	ldi	r24, 0x3F	; 63
    6d3a:	92 e0       	ldi	r25, 0x02	; 2
    6d3c:	21 50       	subi	r18, 0x01	; 1
    6d3e:	80 40       	sbci	r24, 0x00	; 0
    6d40:	90 40       	sbci	r25, 0x00	; 0
    6d42:	e1 f7       	brne	.-8      	; 0x6d3c <ZigBee_Write_id+0xb8>
    6d44:	00 c0       	rjmp	.+0      	; 0x6d46 <ZigBee_Write_id+0xc2>
    6d46:	00 00       	nop
				_delay_ms(50);					// ZigBee ├│╕χ ╜├░μ ╚─
				Rx3_Buff_Clear();				// Rx3 Buff Clear
    6d48:	0e 94 30 36 	call	0x6c60	; 0x6c60 <Rx3_Buff_Clear>
//-------------------------------------------------------------------------------------------------
		for(uint8_t cnt = 0; cnt < RX3_SIZE; cnt++)			// RX3_SIZE ╕╕┼φ ╣▌║╣
		{
			if(zbid_write == 0 && Rx3_Buff[cnt] == 'O' && Rx3_Buff[cnt + 1] == 'K' && Rx3_Buff[cnt + 2] == 0x0d)
			{							// 0+OK+CR
				zbid_write = 1;					// ┤ϊ║ψ ╚χ└╬ ╚─ ┤┘└╜└╕╖╬ ┴Ϋ░κ
    6d4c:	c1 e0       	ldi	r28, 0x01	; 1
				Beep(3);
				_delay_ms(50);					// ZigBee ├│╕χ ╜├░μ ╚─
				Rx3_Buff_Clear();				// Rx3 Buff Clear
				break;
    6d4e:	79 c0       	rjmp	.+242    	; 0x6e42 <ZigBee_Write_id+0x1be>
			}

			if(zbid_write == 1 && Rx3_Buff[cnt] == 'O' && Rx3_Buff[cnt + 1] == 'K' && Rx3_Buff[cnt + 2] == 0x0d)
    6d50:	c1 30       	cpi	r28, 0x01	; 1
    6d52:	29 f5       	brne	.+74     	; 0x6d9e <ZigBee_Write_id+0x11a>
    6d54:	28 2f       	mov	r18, r24
    6d56:	30 e0       	ldi	r19, 0x00	; 0
    6d58:	f9 01       	movw	r30, r18
    6d5a:	e9 51       	subi	r30, 0x19	; 25
    6d5c:	fd 4b       	sbci	r31, 0xBD	; 189
    6d5e:	90 81       	ld	r25, Z
    6d60:	9f 34       	cpi	r25, 0x4F	; 79
    6d62:	e9 f4       	brne	.+58     	; 0x6d9e <ZigBee_Write_id+0x11a>
    6d64:	f9 01       	movw	r30, r18
    6d66:	e8 51       	subi	r30, 0x18	; 24
    6d68:	fd 4b       	sbci	r31, 0xBD	; 189
    6d6a:	90 81       	ld	r25, Z
    6d6c:	9b 34       	cpi	r25, 0x4B	; 75
    6d6e:	b9 f4       	brne	.+46     	; 0x6d9e <ZigBee_Write_id+0x11a>
    6d70:	f9 01       	movw	r30, r18
    6d72:	e7 51       	subi	r30, 0x17	; 23
    6d74:	fd 4b       	sbci	r31, 0xBD	; 189
    6d76:	90 81       	ld	r25, Z
    6d78:	9d 30       	cpi	r25, 0x0D	; 13
    6d7a:	89 f4       	brne	.+34     	; 0x6d9e <ZigBee_Write_id+0x11a>
			{							// 1+OK+CR
				zbid_write = 2;					// ┤ϊ║ψ ╚χ└╬ ╚─ ┤┘└╜└╕╖╬ ┴Ϋ░κ
				Beep(3);
    6d7c:	83 e0       	ldi	r24, 0x03	; 3
    6d7e:	90 e0       	ldi	r25, 0x00	; 0
    6d80:	0e 94 3b 04 	call	0x876	; 0x876 <Beep>
    6d84:	2f ef       	ldi	r18, 0xFF	; 255
    6d86:	8f e3       	ldi	r24, 0x3F	; 63
    6d88:	92 e0       	ldi	r25, 0x02	; 2
    6d8a:	21 50       	subi	r18, 0x01	; 1
    6d8c:	80 40       	sbci	r24, 0x00	; 0
    6d8e:	90 40       	sbci	r25, 0x00	; 0
    6d90:	e1 f7       	brne	.-8      	; 0x6d8a <ZigBee_Write_id+0x106>
    6d92:	00 c0       	rjmp	.+0      	; 0x6d94 <ZigBee_Write_id+0x110>
    6d94:	00 00       	nop
				_delay_ms(50);					// ZigBee ├│╕χ ╜├░μ ╚─
				Rx3_Buff_Clear();				// Rx3 Buff Clear
    6d96:	0e 94 30 36 	call	0x6c60	; 0x6c60 <Rx3_Buff_Clear>
				break;
			}

			if(zbid_write == 1 && Rx3_Buff[cnt] == 'O' && Rx3_Buff[cnt + 1] == 'K' && Rx3_Buff[cnt + 2] == 0x0d)
			{							// 1+OK+CR
				zbid_write = 2;					// ┤ϊ║ψ ╚χ└╬ ╚─ ┤┘└╜└╕╖╬ ┴Ϋ░κ
    6d9a:	c2 e0       	ldi	r28, 0x02	; 2
				Beep(3);
				_delay_ms(50);					// ZigBee ├│╕χ ╜├░μ ╚─
				Rx3_Buff_Clear();				// Rx3 Buff Clear
				break;
    6d9c:	52 c0       	rjmp	.+164    	; 0x6e42 <ZigBee_Write_id+0x1be>
			}

			if(zbid_write == 2 && Rx3_Buff[cnt] == 'O' && Rx3_Buff[cnt + 1] == 'K' && Rx3_Buff[cnt + 2] == 0x0d)
    6d9e:	c2 30       	cpi	r28, 0x02	; 2
    6da0:	29 f5       	brne	.+74     	; 0x6dec <ZigBee_Write_id+0x168>
    6da2:	28 2f       	mov	r18, r24
    6da4:	30 e0       	ldi	r19, 0x00	; 0
    6da6:	f9 01       	movw	r30, r18
    6da8:	e9 51       	subi	r30, 0x19	; 25
    6daa:	fd 4b       	sbci	r31, 0xBD	; 189
    6dac:	90 81       	ld	r25, Z
    6dae:	9f 34       	cpi	r25, 0x4F	; 79
    6db0:	e9 f4       	brne	.+58     	; 0x6dec <ZigBee_Write_id+0x168>
    6db2:	f9 01       	movw	r30, r18
    6db4:	e8 51       	subi	r30, 0x18	; 24
    6db6:	fd 4b       	sbci	r31, 0xBD	; 189
    6db8:	90 81       	ld	r25, Z
    6dba:	9b 34       	cpi	r25, 0x4B	; 75
    6dbc:	b9 f4       	brne	.+46     	; 0x6dec <ZigBee_Write_id+0x168>
    6dbe:	f9 01       	movw	r30, r18
    6dc0:	e7 51       	subi	r30, 0x17	; 23
    6dc2:	fd 4b       	sbci	r31, 0xBD	; 189
    6dc4:	90 81       	ld	r25, Z
    6dc6:	9d 30       	cpi	r25, 0x0D	; 13
    6dc8:	89 f4       	brne	.+34     	; 0x6dec <ZigBee_Write_id+0x168>
			{							// 2+OK+CR
				zbid_write = 3;					// ┤ϊ║ψ ╚χ└╬ ╚─ ┤┘└╜└╕╖╬ ┴Ϋ░κ
				Beep(3);
    6dca:	83 e0       	ldi	r24, 0x03	; 3
    6dcc:	90 e0       	ldi	r25, 0x00	; 0
    6dce:	0e 94 3b 04 	call	0x876	; 0x876 <Beep>
    6dd2:	2f ef       	ldi	r18, 0xFF	; 255
    6dd4:	8f e3       	ldi	r24, 0x3F	; 63
    6dd6:	92 e0       	ldi	r25, 0x02	; 2
    6dd8:	21 50       	subi	r18, 0x01	; 1
    6dda:	80 40       	sbci	r24, 0x00	; 0
    6ddc:	90 40       	sbci	r25, 0x00	; 0
    6dde:	e1 f7       	brne	.-8      	; 0x6dd8 <ZigBee_Write_id+0x154>
    6de0:	00 c0       	rjmp	.+0      	; 0x6de2 <ZigBee_Write_id+0x15e>
    6de2:	00 00       	nop
				_delay_ms(50);					// ZigBee ├│╕χ ╜├░μ ╚─
				Rx3_Buff_Clear();				// Rx3 Buff Clear
    6de4:	0e 94 30 36 	call	0x6c60	; 0x6c60 <Rx3_Buff_Clear>
				break;
			}

			if(zbid_write == 2 && Rx3_Buff[cnt] == 'O' && Rx3_Buff[cnt + 1] == 'K' && Rx3_Buff[cnt + 2] == 0x0d)
			{							// 2+OK+CR
				zbid_write = 3;					// ┤ϊ║ψ ╚χ└╬ ╚─ ┤┘└╜└╕╖╬ ┴Ϋ░κ
    6de8:	c3 e0       	ldi	r28, 0x03	; 3
				Beep(3);
				_delay_ms(50);					// ZigBee ├│╕χ ╜├░μ ╚─
				Rx3_Buff_Clear();				// Rx3 Buff Clear
				break;
    6dea:	2b c0       	rjmp	.+86     	; 0x6e42 <ZigBee_Write_id+0x1be>
			}

			if(zbid_write == 3 && Rx3_Buff[cnt] == 'O' && Rx3_Buff[cnt + 1] == 'K' && Rx3_Buff[cnt + 2] == 0x0d)
    6dec:	c3 30       	cpi	r28, 0x03	; 3
    6dee:	29 f5       	brne	.+74     	; 0x6e3a <ZigBee_Write_id+0x1b6>
    6df0:	28 2f       	mov	r18, r24
    6df2:	30 e0       	ldi	r19, 0x00	; 0
    6df4:	f9 01       	movw	r30, r18
    6df6:	e9 51       	subi	r30, 0x19	; 25
    6df8:	fd 4b       	sbci	r31, 0xBD	; 189
    6dfa:	90 81       	ld	r25, Z
    6dfc:	9f 34       	cpi	r25, 0x4F	; 79
    6dfe:	e9 f4       	brne	.+58     	; 0x6e3a <ZigBee_Write_id+0x1b6>
    6e00:	f9 01       	movw	r30, r18
    6e02:	e8 51       	subi	r30, 0x18	; 24
    6e04:	fd 4b       	sbci	r31, 0xBD	; 189
    6e06:	90 81       	ld	r25, Z
    6e08:	9b 34       	cpi	r25, 0x4B	; 75
    6e0a:	b9 f4       	brne	.+46     	; 0x6e3a <ZigBee_Write_id+0x1b6>
    6e0c:	f9 01       	movw	r30, r18
    6e0e:	e7 51       	subi	r30, 0x17	; 23
    6e10:	fd 4b       	sbci	r31, 0xBD	; 189
    6e12:	90 81       	ld	r25, Z
    6e14:	9d 30       	cpi	r25, 0x0D	; 13
    6e16:	89 f4       	brne	.+34     	; 0x6e3a <ZigBee_Write_id+0x1b6>
			{							// 3+OK+CR
				zbid_write = 5;					// ┤ϊ║ψ ╚χ└╬ ╚─ While()╣χ ┴╛╖ά
				Beep(3);
    6e18:	83 e0       	ldi	r24, 0x03	; 3
    6e1a:	90 e0       	ldi	r25, 0x00	; 0
    6e1c:	0e 94 3b 04 	call	0x876	; 0x876 <Beep>
    6e20:	2f ef       	ldi	r18, 0xFF	; 255
    6e22:	8f e3       	ldi	r24, 0x3F	; 63
    6e24:	92 e0       	ldi	r25, 0x02	; 2
    6e26:	21 50       	subi	r18, 0x01	; 1
    6e28:	80 40       	sbci	r24, 0x00	; 0
    6e2a:	90 40       	sbci	r25, 0x00	; 0
    6e2c:	e1 f7       	brne	.-8      	; 0x6e26 <ZigBee_Write_id+0x1a2>
    6e2e:	00 c0       	rjmp	.+0      	; 0x6e30 <ZigBee_Write_id+0x1ac>
    6e30:	00 00       	nop
				_delay_ms(50);					// ZigBee ├│╕χ ╜├░μ ╚─
				Rx3_Buff_Clear();				// Rx3 Buff Clear
    6e32:	0e 94 30 36 	call	0x6c60	; 0x6c60 <Rx3_Buff_Clear>
				break;
			}

			if(zbid_write == 3 && Rx3_Buff[cnt] == 'O' && Rx3_Buff[cnt + 1] == 'K' && Rx3_Buff[cnt + 2] == 0x0d)
			{							// 3+OK+CR
				zbid_write = 5;					// ┤ϊ║ψ ╚χ└╬ ╚─ While()╣χ ┴╛╖ά
    6e36:	c5 e0       	ldi	r28, 0x05	; 5
				Beep(3);
				_delay_ms(50);					// ZigBee ├│╕χ ╜├░μ ╚─
				Rx3_Buff_Clear();				// Rx3 Buff Clear
				break;
    6e38:	04 c0       	rjmp	.+8      	; 0x6e42 <ZigBee_Write_id+0x1be>
			case 3:							// zbch_wite = 3 └╠╕ώ
				USART3_SendString("ATCN\r");			// USART3 ┐κ ATCN\r └ⁿ╝█
			break;
		}
//-------------------------------------------------------------------------------------------------
		for(uint8_t cnt = 0; cnt < RX3_SIZE; cnt++)			// RX3_SIZE ╕╕┼φ ╣▌║╣
    6e3a:	8f 5f       	subi	r24, 0xFF	; 255
    6e3c:	8a 3f       	cpi	r24, 0xFA	; 250
    6e3e:	08 f4       	brcc	.+2      	; 0x6e42 <ZigBee_Write_id+0x1be>
    6e40:	60 cf       	rjmp	.-320    	; 0x6d02 <ZigBee_Write_id+0x7e>
				_delay_ms(50);					// ZigBee ├│╕χ ╜├░μ ╚─
				Rx3_Buff_Clear();				// Rx3 Buff Clear
				break;
			}
		}
		wdt_reset();							// ┐÷─κ╡╢ ╕χ╝┬
    6e42:	0e 94 ef 0c 	call	0x19de	; 0x19de <wdt_reset>
	}while(zbid_write != 5);						// zbid_write ░κ 5 └╧╢π ▒Ό┴÷ ╣▌║╣
    6e46:	c5 30       	cpi	r28, 0x05	; 5
    6e48:	09 f0       	breq	.+2      	; 0x6e4c <ZigBee_Write_id+0x1c8>
    6e4a:	1e cf       	rjmp	.-452    	; 0x6c88 <ZigBee_Write_id+0x4>
}
    6e4c:	cf 91       	pop	r28
    6e4e:	08 95       	ret

00006e50 <ZigBee_PanID_Write>:

//=================================================================================================
void ZigBee_PanID_Write(void)							// ZigBee PanID ╝│┴ν
{
    6e50:	6f 92       	push	r6
    6e52:	7f 92       	push	r7
    6e54:	8f 92       	push	r8
    6e56:	9f 92       	push	r9
    6e58:	bf 92       	push	r11
    6e5a:	cf 92       	push	r12
    6e5c:	df 92       	push	r13
    6e5e:	ef 92       	push	r14
    6e60:	ff 92       	push	r15
    6e62:	0f 93       	push	r16
    6e64:	1f 93       	push	r17
    6e66:	cf 93       	push	r28
    6e68:	df 93       	push	r29
	uint8_t digit_5, digit_4, digit_3, digit_2, digit_1;			// digit ║ψ╝÷ ├╩▒έ╚φ

	FND_Value_Data(1, 2, 12);						// FND 0 ~ 2 FND_OFF
    6e6a:	4c e0       	ldi	r20, 0x0C	; 12
    6e6c:	62 e0       	ldi	r22, 0x02	; 2
    6e6e:	81 e0       	ldi	r24, 0x01	; 1
    6e70:	0e 94 d9 05 	call	0xbb2	; 0xbb2 <FND_Value_Data>

	digit_5 = ZB_id / 10000;						// ZigBee PanID 10000└╟ └┌╕χ
    6e74:	80 90 9d 42 	lds	r8, 0x429D	; 0x80429d <ZB_id>
    6e78:	90 90 9e 42 	lds	r9, 0x429E	; 0x80429e <ZB_id+0x1>
    6e7c:	94 01       	movw	r18, r8
    6e7e:	32 95       	swap	r19
    6e80:	22 95       	swap	r18
    6e82:	2f 70       	andi	r18, 0x0F	; 15
    6e84:	23 27       	eor	r18, r19
    6e86:	3f 70       	andi	r19, 0x0F	; 15
    6e88:	23 27       	eor	r18, r19
    6e8a:	a7 e4       	ldi	r26, 0x47	; 71
    6e8c:	b3 e0       	ldi	r27, 0x03	; 3
    6e8e:	0e 94 43 44 	call	0x8886	; 0x8886 <__umulhisi3>
    6e92:	6c 01       	movw	r12, r24
    6e94:	d6 94       	lsr	r13
    6e96:	c7 94       	ror	r12
    6e98:	d6 94       	lsr	r13
    6e9a:	c7 94       	ror	r12
    6e9c:	d6 94       	lsr	r13
    6e9e:	c7 94       	ror	r12
    6ea0:	dc 2d       	mov	r29, r12
	digit_4 = ZB_id % 10000 / 1000;						// ZigBee PanID  1000└╟ └┌╕χ
    6ea2:	20 e1       	ldi	r18, 0x10	; 16
    6ea4:	37 e2       	ldi	r19, 0x27	; 39
    6ea6:	c2 9e       	mul	r12, r18
    6ea8:	c0 01       	movw	r24, r0
    6eaa:	c3 9e       	mul	r12, r19
    6eac:	90 0d       	add	r25, r0
    6eae:	d2 9e       	mul	r13, r18
    6eb0:	90 0d       	add	r25, r0
    6eb2:	11 24       	eor	r1, r1
    6eb4:	94 01       	movw	r18, r8
    6eb6:	28 1b       	sub	r18, r24
    6eb8:	39 0b       	sbc	r19, r25
    6eba:	36 95       	lsr	r19
    6ebc:	27 95       	ror	r18
    6ebe:	36 95       	lsr	r19
    6ec0:	27 95       	ror	r18
    6ec2:	36 95       	lsr	r19
    6ec4:	27 95       	ror	r18
    6ec6:	a5 ec       	ldi	r26, 0xC5	; 197
    6ec8:	b0 e2       	ldi	r27, 0x20	; 32
    6eca:	0e 94 43 44 	call	0x8886	; 0x8886 <__umulhisi3>
    6ece:	7c 01       	movw	r14, r24
    6ed0:	f6 94       	lsr	r15
    6ed2:	e7 94       	ror	r14
    6ed4:	f6 94       	lsr	r15
    6ed6:	e7 94       	ror	r14
    6ed8:	f6 94       	lsr	r15
    6eda:	e7 94       	ror	r14
    6edc:	f6 94       	lsr	r15
    6ede:	e7 94       	ror	r14
    6ee0:	be 2c       	mov	r11, r14
	digit_3 = ZB_id % 1000 / 100;						// ZigBee PanID   100└╟ └┌╕χ
    6ee2:	94 01       	movw	r18, r8
    6ee4:	36 95       	lsr	r19
    6ee6:	27 95       	ror	r18
    6ee8:	36 95       	lsr	r19
    6eea:	27 95       	ror	r18
    6eec:	36 95       	lsr	r19
    6eee:	27 95       	ror	r18
    6ef0:	0e 94 43 44 	call	0x8886	; 0x8886 <__umulhisi3>
    6ef4:	92 95       	swap	r25
    6ef6:	82 95       	swap	r24
    6ef8:	8f 70       	andi	r24, 0x0F	; 15
    6efa:	89 27       	eor	r24, r25
    6efc:	9f 70       	andi	r25, 0x0F	; 15
    6efe:	89 27       	eor	r24, r25
    6f00:	48 ee       	ldi	r20, 0xE8	; 232
    6f02:	53 e0       	ldi	r21, 0x03	; 3
    6f04:	84 9f       	mul	r24, r20
    6f06:	90 01       	movw	r18, r0
    6f08:	85 9f       	mul	r24, r21
    6f0a:	30 0d       	add	r19, r0
    6f0c:	94 9f       	mul	r25, r20
    6f0e:	30 0d       	add	r19, r0
    6f10:	11 24       	eor	r1, r1
    6f12:	c4 01       	movw	r24, r8
    6f14:	82 1b       	sub	r24, r18
    6f16:	93 0b       	sbc	r25, r19
    6f18:	9c 01       	movw	r18, r24
    6f1a:	36 95       	lsr	r19
    6f1c:	27 95       	ror	r18
    6f1e:	36 95       	lsr	r19
    6f20:	27 95       	ror	r18
    6f22:	ab e7       	ldi	r26, 0x7B	; 123
    6f24:	b4 e1       	ldi	r27, 0x14	; 20
    6f26:	0e 94 43 44 	call	0x8886	; 0x8886 <__umulhisi3>
    6f2a:	3c 01       	movw	r6, r24
    6f2c:	76 94       	lsr	r7
    6f2e:	67 94       	ror	r6
    6f30:	06 2d       	mov	r16, r6
	digit_2 = ZB_id % 100 / 10;						// ZigBee PanID    10└╟ └┌╕χ
    6f32:	94 01       	movw	r18, r8
    6f34:	36 95       	lsr	r19
    6f36:	27 95       	ror	r18
    6f38:	36 95       	lsr	r19
    6f3a:	27 95       	ror	r18
    6f3c:	0e 94 43 44 	call	0x8886	; 0x8886 <__umulhisi3>
    6f40:	9c 01       	movw	r18, r24
    6f42:	36 95       	lsr	r19
    6f44:	27 95       	ror	r18
    6f46:	44 e6       	ldi	r20, 0x64	; 100
    6f48:	42 9f       	mul	r20, r18
    6f4a:	c0 01       	movw	r24, r0
    6f4c:	43 9f       	mul	r20, r19
    6f4e:	90 0d       	add	r25, r0
    6f50:	11 24       	eor	r1, r1
    6f52:	94 01       	movw	r18, r8
    6f54:	28 1b       	sub	r18, r24
    6f56:	39 0b       	sbc	r19, r25
    6f58:	ad ec       	ldi	r26, 0xCD	; 205
    6f5a:	bc ec       	ldi	r27, 0xCC	; 204
    6f5c:	0e 94 43 44 	call	0x8886	; 0x8886 <__umulhisi3>
    6f60:	ac 01       	movw	r20, r24
    6f62:	56 95       	lsr	r21
    6f64:	47 95       	ror	r20
    6f66:	56 95       	lsr	r21
    6f68:	47 95       	ror	r20
    6f6a:	56 95       	lsr	r21
    6f6c:	47 95       	ror	r20
    6f6e:	c4 2f       	mov	r28, r20
	digit_1 = ZB_id % 10;							// ZigBee PanID     1└╟ └┌╕χ
    6f70:	94 01       	movw	r18, r8
    6f72:	0e 94 43 44 	call	0x8886	; 0x8886 <__umulhisi3>
    6f76:	96 95       	lsr	r25
    6f78:	87 95       	ror	r24
    6f7a:	96 95       	lsr	r25
    6f7c:	87 95       	ror	r24
    6f7e:	96 95       	lsr	r25
    6f80:	87 95       	ror	r24
    6f82:	9c 01       	movw	r18, r24
    6f84:	22 0f       	add	r18, r18
    6f86:	33 1f       	adc	r19, r19
    6f88:	88 0f       	add	r24, r24
    6f8a:	99 1f       	adc	r25, r25
    6f8c:	88 0f       	add	r24, r24
    6f8e:	99 1f       	adc	r25, r25
    6f90:	88 0f       	add	r24, r24
    6f92:	99 1f       	adc	r25, r25
    6f94:	82 0f       	add	r24, r18
    6f96:	93 1f       	adc	r25, r19
    6f98:	94 01       	movw	r18, r8
    6f9a:	28 1b       	sub	r18, r24
    6f9c:	39 0b       	sbc	r19, r25
    6f9e:	c9 01       	movw	r24, r18
    6fa0:	12 2f       	mov	r17, r18

	DIGIT[1][3] = fnd_tbl[digit_5];						// ZigBee PanID 10000└╟ └┌╕χ ╟ξ╜├
    6fa2:	d6 01       	movw	r26, r12
    6fa4:	a5 5c       	subi	r26, 0xC5	; 197
    6fa6:	be 4b       	sbci	r27, 0xBE	; 190
    6fa8:	2c 91       	ld	r18, X
    6faa:	af e6       	ldi	r26, 0x6F	; 111
    6fac:	b1 e4       	ldi	r27, 0x41	; 65
    6fae:	17 96       	adiw	r26, 0x07	; 7
    6fb0:	2c 93       	st	X, r18
    6fb2:	17 97       	sbiw	r26, 0x07	; 7
	DIGIT[1][2] = fnd_tbl[digit_4];						// ZigBee PanID  1000└╟ └┌╕χ ╟ξ╜├
    6fb4:	97 01       	movw	r18, r14
    6fb6:	33 27       	eor	r19, r19
    6fb8:	25 5c       	subi	r18, 0xC5	; 197
    6fba:	3e 4b       	sbci	r19, 0xBE	; 190
    6fbc:	f9 01       	movw	r30, r18
    6fbe:	20 81       	ld	r18, Z
    6fc0:	16 96       	adiw	r26, 0x06	; 6
    6fc2:	2c 93       	st	X, r18
    6fc4:	16 97       	sbiw	r26, 0x06	; 6
	DIGIT[1][1] = fnd_tbl[digit_3];						// ZigBee PanID   100└╟ └┌╕χ ╟ξ╜├
    6fc6:	f3 01       	movw	r30, r6
    6fc8:	ff 27       	eor	r31, r31
    6fca:	e5 5c       	subi	r30, 0xC5	; 197
    6fcc:	fe 4b       	sbci	r31, 0xBE	; 190
    6fce:	20 81       	ld	r18, Z
    6fd0:	15 96       	adiw	r26, 0x05	; 5
    6fd2:	2c 93       	st	X, r18
    6fd4:	15 97       	sbiw	r26, 0x05	; 5
	DIGIT[1][0] = fnd_tbl[digit_2];						// ZigBee PanID    10└╟ └┌╕χ ╟ξ╜├
    6fd6:	55 27       	eor	r21, r21
    6fd8:	fa 01       	movw	r30, r20
    6fda:	e5 5c       	subi	r30, 0xC5	; 197
    6fdc:	fe 4b       	sbci	r31, 0xBE	; 190
    6fde:	20 81       	ld	r18, Z
    6fe0:	14 96       	adiw	r26, 0x04	; 4
    6fe2:	2c 93       	st	X, r18
    6fe4:	14 97       	sbiw	r26, 0x04	; 4

	DIGIT[2][3] = fnd_tbl[digit_1];						// ZigBee PanID     1└╟ └┌╕χ ╟ξ╜├
    6fe6:	99 27       	eor	r25, r25
    6fe8:	fc 01       	movw	r30, r24
    6fea:	e5 5c       	subi	r30, 0xC5	; 197
    6fec:	fe 4b       	sbci	r31, 0xBE	; 190
    6fee:	80 81       	ld	r24, Z
    6ff0:	1b 96       	adiw	r26, 0x0b	; 11
    6ff2:	8c 93       	st	X, r24

	while(SET.Menu)								// ╕▐┤║╕Ώ╡ί └╠╕ώ ╣▌║╣
    6ff4:	77 c1       	rjmp	.+750    	; 0x72e4 <ZigBee_PanID_Write+0x494>
	{
		SET.Blink = 1;							// └┌╕┤╝÷ ▒Ϊ╣┌└╙ ╝│┴ν
    6ff6:	81 e0       	ldi	r24, 0x01	; 1
    6ff8:	80 93 07 42 	sts	0x4207, r24	; 0x804207 <SET+0x2>

		switch(KEY.Count)						// ╝▒┼├ Key ░κ ┤φ╕░╚╜╝÷
    6ffc:	80 91 80 42 	lds	r24, 0x4280	; 0x804280 <KEY>
    7000:	82 30       	cpi	r24, 0x02	; 2
    7002:	09 f4       	brne	.+2      	; 0x7006 <ZigBee_PanID_Write+0x1b6>
    7004:	89 c0       	rjmp	.+274    	; 0x7118 <ZigBee_PanID_Write+0x2c8>
    7006:	28 f4       	brcc	.+10     	; 0x7012 <ZigBee_PanID_Write+0x1c2>
    7008:	88 23       	and	r24, r24
    700a:	61 f0       	breq	.+24     	; 0x7024 <ZigBee_PanID_Write+0x1d4>
    700c:	81 30       	cpi	r24, 0x01	; 1
    700e:	d1 f1       	breq	.+116    	; 0x7084 <ZigBee_PanID_Write+0x234>
    7010:	67 c1       	rjmp	.+718    	; 0x72e0 <ZigBee_PanID_Write+0x490>
    7012:	84 30       	cpi	r24, 0x04	; 4
    7014:	09 f4       	brne	.+2      	; 0x7018 <ZigBee_PanID_Write+0x1c8>
    7016:	18 c1       	rjmp	.+560    	; 0x7248 <ZigBee_PanID_Write+0x3f8>
    7018:	08 f4       	brcc	.+2      	; 0x701c <ZigBee_PanID_Write+0x1cc>
    701a:	c9 c0       	rjmp	.+402    	; 0x71ae <ZigBee_PanID_Write+0x35e>
    701c:	85 30       	cpi	r24, 0x05	; 5
    701e:	09 f4       	brne	.+2      	; 0x7022 <ZigBee_PanID_Write+0x1d2>
    7020:	5d c1       	rjmp	.+698    	; 0x72dc <ZigBee_PanID_Write+0x48c>
    7022:	5e c1       	rjmp	.+700    	; 0x72e0 <ZigBee_PanID_Write+0x490>
		{
//-------------------------------------------------------------------------------------------------
			case 0:							// ZigBee PanID 10000└╟ └┌╕χ
				DIGIT[2][3] = fnd_tbl[digit_1];			// ZigBee PanID     1└╟ └┌╕χ ╟ξ╜├
    7024:	e1 2f       	mov	r30, r17
    7026:	f0 e0       	ldi	r31, 0x00	; 0
    7028:	e5 5c       	subi	r30, 0xC5	; 197
    702a:	fe 4b       	sbci	r31, 0xBE	; 190
    702c:	80 81       	ld	r24, Z
    702e:	80 93 7a 41 	sts	0x417A, r24	; 0x80417a <DIGIT+0xb>
				if(Blink) {DIGIT[1][3] = FND_OFF;}		// Blink = 1 └╠╕ώ ZigBee PanID 10000└╟ └┌╕χ OFF
    7032:	80 91 b0 42 	lds	r24, 0x42B0	; 0x8042b0 <Blink>
    7036:	88 23       	and	r24, r24
    7038:	19 f0       	breq	.+6      	; 0x7040 <ZigBee_PanID_Write+0x1f0>
    703a:	10 92 76 41 	sts	0x4176, r1	; 0x804176 <DIGIT+0x7>
    703e:	07 c0       	rjmp	.+14     	; 0x704e <ZigBee_PanID_Write+0x1fe>
				else	  {DIGIT[1][3] = fnd_tbl[digit_5];}	// Blink = 0 └╠╕ώ ZigBee PanID 10000└╟ └┌╕χ ╟ξ╜├
    7040:	ed 2f       	mov	r30, r29
    7042:	f0 e0       	ldi	r31, 0x00	; 0
    7044:	e5 5c       	subi	r30, 0xC5	; 197
    7046:	fe 4b       	sbci	r31, 0xBE	; 190
    7048:	80 81       	ld	r24, Z
    704a:	80 93 76 41 	sts	0x4176, r24	; 0x804176 <DIGIT+0x7>

				if(KEY.Buff)					// Key └╘╖┬└╠ └╓└╕╕ώ
    704e:	80 91 81 42 	lds	r24, 0x4281	; 0x804281 <KEY+0x1>
    7052:	88 23       	and	r24, r24
    7054:	09 f4       	brne	.+2      	; 0x7058 <ZigBee_PanID_Write+0x208>
    7056:	44 c1       	rjmp	.+648    	; 0x72e0 <ZigBee_PanID_Write+0x490>
				{
					if     (KEY.Key == 1 && digit_5 < 6) {digit_5++; KEY.Key = 0;}	// ╛≈  ╣÷╞░ └╠╕ώ ZigBee PanID 10000└╟ └┌╕χ ┴Ϋ░κ
    7058:	80 91 82 42 	lds	r24, 0x4282	; 0x804282 <KEY+0x2>
    705c:	81 30       	cpi	r24, 0x01	; 1
    705e:	31 f4       	brne	.+12     	; 0x706c <ZigBee_PanID_Write+0x21c>
    7060:	d6 30       	cpi	r29, 0x06	; 6
    7062:	20 f4       	brcc	.+8      	; 0x706c <ZigBee_PanID_Write+0x21c>
    7064:	df 5f       	subi	r29, 0xFF	; 255
    7066:	10 92 82 42 	sts	0x4282, r1	; 0x804282 <KEY+0x2>
    706a:	3a c1       	rjmp	.+628    	; 0x72e0 <ZigBee_PanID_Write+0x490>
					else if(KEY.Key == 3 && digit_5 > 0) {digit_5--; KEY.Key = 0;}	// ┤┘┐Ό╣÷╞░ └╠╕ώ ZigBee PanID 10000└╟ └┌╕χ ░ρ╝╥
    706c:	80 91 82 42 	lds	r24, 0x4282	; 0x804282 <KEY+0x2>
    7070:	83 30       	cpi	r24, 0x03	; 3
    7072:	09 f0       	breq	.+2      	; 0x7076 <ZigBee_PanID_Write+0x226>
    7074:	35 c1       	rjmp	.+618    	; 0x72e0 <ZigBee_PanID_Write+0x490>
    7076:	dd 23       	and	r29, r29
    7078:	09 f4       	brne	.+2      	; 0x707c <ZigBee_PanID_Write+0x22c>
    707a:	32 c1       	rjmp	.+612    	; 0x72e0 <ZigBee_PanID_Write+0x490>
    707c:	d1 50       	subi	r29, 0x01	; 1
    707e:	10 92 82 42 	sts	0x4282, r1	; 0x804282 <KEY+0x2>
    7082:	2e c1       	rjmp	.+604    	; 0x72e0 <ZigBee_PanID_Write+0x490>
				}
			break;
//-------------------------------------------------------------------------------------------------
			case 1:							// ZigBee PanID 1000└╟ └┌╕χ
				DIGIT[1][3] = fnd_tbl[digit_5];			// ZigBee PanID 10000└╟ └┌╕χ ╟ξ╜├
    7084:	ed 2f       	mov	r30, r29
    7086:	f0 e0       	ldi	r31, 0x00	; 0
    7088:	e5 5c       	subi	r30, 0xC5	; 197
    708a:	fe 4b       	sbci	r31, 0xBE	; 190
    708c:	80 81       	ld	r24, Z
    708e:	80 93 76 41 	sts	0x4176, r24	; 0x804176 <DIGIT+0x7>
				if(Blink) {DIGIT[1][2] = FND_OFF;}		// Blink = 1 └╠╕ώ ZigBee PanID 1000└╟ └┌╕χ OFF
    7092:	80 91 b0 42 	lds	r24, 0x42B0	; 0x8042b0 <Blink>
    7096:	88 23       	and	r24, r24
    7098:	19 f0       	breq	.+6      	; 0x70a0 <ZigBee_PanID_Write+0x250>
    709a:	10 92 75 41 	sts	0x4175, r1	; 0x804175 <DIGIT+0x6>
    709e:	07 c0       	rjmp	.+14     	; 0x70ae <ZigBee_PanID_Write+0x25e>
				else	  {DIGIT[1][2] = fnd_tbl[digit_4];}	// Blink = 0 └╠╕ώ ZigBee PanID 1000└╟ └┌╕χ ╟ξ╜├
    70a0:	eb 2d       	mov	r30, r11
    70a2:	f0 e0       	ldi	r31, 0x00	; 0
    70a4:	e5 5c       	subi	r30, 0xC5	; 197
    70a6:	fe 4b       	sbci	r31, 0xBE	; 190
    70a8:	80 81       	ld	r24, Z
    70aa:	80 93 75 41 	sts	0x4175, r24	; 0x804175 <DIGIT+0x6>

				if(KEY.Buff)					// Key └╘╖┬└╠ └╓└╕╕ώ
    70ae:	80 91 81 42 	lds	r24, 0x4281	; 0x804281 <KEY+0x1>
    70b2:	88 23       	and	r24, r24
    70b4:	09 f4       	brne	.+2      	; 0x70b8 <ZigBee_PanID_Write+0x268>
    70b6:	14 c1       	rjmp	.+552    	; 0x72e0 <ZigBee_PanID_Write+0x490>
				{
					if(digit_5 >= 6)							// ZigBee PanID ░κ 60000 ░· ░░░┼│ς ┼σ╕ώ
    70b8:	d6 30       	cpi	r29, 0x06	; 6
    70ba:	b8 f0       	brcs	.+46     	; 0x70ea <ZigBee_PanID_Write+0x29a>
					{
						if     (KEY.Key == 1 && digit_4 < 5) {digit_4++; KEY.Key = 0;}	// ╛≈  ╣÷╞░ └╠╕ώ ZigBee PanID 1000└╟ └┌╕χ 5▒Ό┴÷ ┴Ϋ░κ
    70bc:	80 91 82 42 	lds	r24, 0x4282	; 0x804282 <KEY+0x2>
    70c0:	81 30       	cpi	r24, 0x01	; 1
    70c2:	39 f4       	brne	.+14     	; 0x70d2 <ZigBee_PanID_Write+0x282>
    70c4:	f4 e0       	ldi	r31, 0x04	; 4
    70c6:	fb 15       	cp	r31, r11
    70c8:	20 f0       	brcs	.+8      	; 0x70d2 <ZigBee_PanID_Write+0x282>
    70ca:	b3 94       	inc	r11
    70cc:	10 92 82 42 	sts	0x4282, r1	; 0x804282 <KEY+0x2>
    70d0:	07 c1       	rjmp	.+526    	; 0x72e0 <ZigBee_PanID_Write+0x490>
						else if(KEY.Key == 3 && digit_4 > 0) {digit_4--; KEY.Key = 0;}	// ┤┘┐Ό╣÷╞░ └╠╕ώ ZigBee PanID 1000└╟ └┌╕χ ░ρ╝╥
    70d2:	80 91 82 42 	lds	r24, 0x4282	; 0x804282 <KEY+0x2>
    70d6:	83 30       	cpi	r24, 0x03	; 3
    70d8:	09 f0       	breq	.+2      	; 0x70dc <ZigBee_PanID_Write+0x28c>
    70da:	02 c1       	rjmp	.+516    	; 0x72e0 <ZigBee_PanID_Write+0x490>
    70dc:	bb 20       	and	r11, r11
    70de:	09 f4       	brne	.+2      	; 0x70e2 <ZigBee_PanID_Write+0x292>
    70e0:	ff c0       	rjmp	.+510    	; 0x72e0 <ZigBee_PanID_Write+0x490>
    70e2:	ba 94       	dec	r11
    70e4:	10 92 82 42 	sts	0x4282, r1	; 0x804282 <KEY+0x2>
    70e8:	fb c0       	rjmp	.+502    	; 0x72e0 <ZigBee_PanID_Write+0x490>
					}
					else									// ZigBee PanID ░κ 60000 ░· ░░░┼│ς ┼σ┴÷ ╛╩└╕╕ώ
					{
						if     (KEY.Key == 1 && digit_4 < 9) {digit_4++; KEY.Key = 0;}	// ╛≈  ╣÷╞░ └╠╕ώ ZigBee PanID 1000└╟ └┌╕χ 9▒Ό┴÷ ┴Ϋ░κ
    70ea:	80 91 82 42 	lds	r24, 0x4282	; 0x804282 <KEY+0x2>
    70ee:	81 30       	cpi	r24, 0x01	; 1
    70f0:	39 f4       	brne	.+14     	; 0x7100 <ZigBee_PanID_Write+0x2b0>
    70f2:	28 e0       	ldi	r18, 0x08	; 8
    70f4:	2b 15       	cp	r18, r11
    70f6:	20 f0       	brcs	.+8      	; 0x7100 <ZigBee_PanID_Write+0x2b0>
    70f8:	b3 94       	inc	r11
    70fa:	10 92 82 42 	sts	0x4282, r1	; 0x804282 <KEY+0x2>
    70fe:	f0 c0       	rjmp	.+480    	; 0x72e0 <ZigBee_PanID_Write+0x490>
						else if(KEY.Key == 3 && digit_4 > 0) {digit_4--; KEY.Key = 0;}	// ┤┘┐Ό╣÷╞░ └╠╕ώ ZigBee PanID 1000└╟ └┌╕χ 0▒Ό┴÷ ░ρ╝╥
    7100:	80 91 82 42 	lds	r24, 0x4282	; 0x804282 <KEY+0x2>
    7104:	83 30       	cpi	r24, 0x03	; 3
    7106:	09 f0       	breq	.+2      	; 0x710a <ZigBee_PanID_Write+0x2ba>
    7108:	eb c0       	rjmp	.+470    	; 0x72e0 <ZigBee_PanID_Write+0x490>
    710a:	bb 20       	and	r11, r11
    710c:	09 f4       	brne	.+2      	; 0x7110 <ZigBee_PanID_Write+0x2c0>
    710e:	e8 c0       	rjmp	.+464    	; 0x72e0 <ZigBee_PanID_Write+0x490>
    7110:	ba 94       	dec	r11
    7112:	10 92 82 42 	sts	0x4282, r1	; 0x804282 <KEY+0x2>
    7116:	e4 c0       	rjmp	.+456    	; 0x72e0 <ZigBee_PanID_Write+0x490>
					}
				}
			break;
//-------------------------------------------------------------------------------------------------
			case 2:							// ZigBee PanID 100└╟ └┌╕χ
				DIGIT[1][2] = fnd_tbl[digit_4];			// ZigBee PanID 1000└╟ └┌╕χ ╟ξ╜├
    7118:	eb 2d       	mov	r30, r11
    711a:	f0 e0       	ldi	r31, 0x00	; 0
    711c:	e5 5c       	subi	r30, 0xC5	; 197
    711e:	fe 4b       	sbci	r31, 0xBE	; 190
    7120:	80 81       	ld	r24, Z
    7122:	80 93 75 41 	sts	0x4175, r24	; 0x804175 <DIGIT+0x6>
				if(Blink) {DIGIT[1][1] = FND_OFF;}		// Blink = 1 └╠╕ώ ZigBee PanID 100└╟ └┌╕χ OFF
    7126:	80 91 b0 42 	lds	r24, 0x42B0	; 0x8042b0 <Blink>
    712a:	88 23       	and	r24, r24
    712c:	19 f0       	breq	.+6      	; 0x7134 <ZigBee_PanID_Write+0x2e4>
    712e:	10 92 74 41 	sts	0x4174, r1	; 0x804174 <DIGIT+0x5>
    7132:	07 c0       	rjmp	.+14     	; 0x7142 <ZigBee_PanID_Write+0x2f2>
				else	  {DIGIT[1][1] = fnd_tbl[digit_3];}	// Blink = 0 └╠╕ώ ZigBee PanID 100└╟ └┌╕χ ╟ξ╜├
    7134:	e0 2f       	mov	r30, r16
    7136:	f0 e0       	ldi	r31, 0x00	; 0
    7138:	e5 5c       	subi	r30, 0xC5	; 197
    713a:	fe 4b       	sbci	r31, 0xBE	; 190
    713c:	80 81       	ld	r24, Z
    713e:	80 93 74 41 	sts	0x4174, r24	; 0x804174 <DIGIT+0x5>

				if(KEY.Buff)					// Key └╘╖┬└╠ └╓└╕╕ώ
    7142:	80 91 81 42 	lds	r24, 0x4281	; 0x804281 <KEY+0x1>
    7146:	88 23       	and	r24, r24
    7148:	09 f4       	brne	.+2      	; 0x714c <ZigBee_PanID_Write+0x2fc>
    714a:	ca c0       	rjmp	.+404    	; 0x72e0 <ZigBee_PanID_Write+0x490>
				{
					if(digit_5 >= 6 && digit_4 >= 5)					// ZigBee PanID ░κ 65000 ░· ░░░┼│ς ┼σ╕ώ
    714c:	d6 30       	cpi	r29, 0x06	; 6
    714e:	c8 f0       	brcs	.+50     	; 0x7182 <ZigBee_PanID_Write+0x332>
    7150:	34 e0       	ldi	r19, 0x04	; 4
    7152:	3b 15       	cp	r19, r11
    7154:	b0 f4       	brcc	.+44     	; 0x7182 <ZigBee_PanID_Write+0x332>
					{
						if     (KEY.Key == 1 && digit_3 < 5) {digit_3++; KEY.Key = 0;}	// ╛≈  ╣÷╞░ └╠╕ώ ZigBee PanID 100└╟ └┌╕χ 5▒Ό┴÷ ┴Ϋ░κ
    7156:	80 91 82 42 	lds	r24, 0x4282	; 0x804282 <KEY+0x2>
    715a:	81 30       	cpi	r24, 0x01	; 1
    715c:	31 f4       	brne	.+12     	; 0x716a <ZigBee_PanID_Write+0x31a>
    715e:	05 30       	cpi	r16, 0x05	; 5
    7160:	20 f4       	brcc	.+8      	; 0x716a <ZigBee_PanID_Write+0x31a>
    7162:	0f 5f       	subi	r16, 0xFF	; 255
    7164:	10 92 82 42 	sts	0x4282, r1	; 0x804282 <KEY+0x2>
    7168:	bb c0       	rjmp	.+374    	; 0x72e0 <ZigBee_PanID_Write+0x490>
						else if(KEY.Key == 3 && digit_3 > 0) {digit_3--; KEY.Key = 0;}	// ┤┘┐Ό╣÷╞░ └╠╕ώ ZigBee PanID 100└╟ └┌╕χ ░ρ╝╥
    716a:	80 91 82 42 	lds	r24, 0x4282	; 0x804282 <KEY+0x2>
    716e:	83 30       	cpi	r24, 0x03	; 3
    7170:	09 f0       	breq	.+2      	; 0x7174 <ZigBee_PanID_Write+0x324>
    7172:	b6 c0       	rjmp	.+364    	; 0x72e0 <ZigBee_PanID_Write+0x490>
    7174:	00 23       	and	r16, r16
    7176:	09 f4       	brne	.+2      	; 0x717a <ZigBee_PanID_Write+0x32a>
    7178:	b3 c0       	rjmp	.+358    	; 0x72e0 <ZigBee_PanID_Write+0x490>
    717a:	01 50       	subi	r16, 0x01	; 1
    717c:	10 92 82 42 	sts	0x4282, r1	; 0x804282 <KEY+0x2>
    7180:	af c0       	rjmp	.+350    	; 0x72e0 <ZigBee_PanID_Write+0x490>
					}
					else									// ZigBee PanID ░κ 65000 ░· ░░░┼│ς ┼σ┴÷ ╛╩└╕╕ώ
					{
						if     (KEY.Key == 1 && digit_3 < 9) {digit_3++; KEY.Key = 0;}	// ╛≈  ╣÷╞░ └╠╕ώ ZigBee PanID 100└╟ └┌╕χ 9▒Ό┴÷ ┴Ϋ░κ
    7182:	80 91 82 42 	lds	r24, 0x4282	; 0x804282 <KEY+0x2>
    7186:	81 30       	cpi	r24, 0x01	; 1
    7188:	31 f4       	brne	.+12     	; 0x7196 <ZigBee_PanID_Write+0x346>
    718a:	09 30       	cpi	r16, 0x09	; 9
    718c:	20 f4       	brcc	.+8      	; 0x7196 <ZigBee_PanID_Write+0x346>
    718e:	0f 5f       	subi	r16, 0xFF	; 255
    7190:	10 92 82 42 	sts	0x4282, r1	; 0x804282 <KEY+0x2>
    7194:	a5 c0       	rjmp	.+330    	; 0x72e0 <ZigBee_PanID_Write+0x490>
						else if(KEY.Key == 3 && digit_3 > 0) {digit_3--; KEY.Key = 0;}	// ┤┘┐Ό╣÷╞░ └╠╕ώ ZigBee PanID 100└╟ └┌╕χ 0▒Ό┴÷ ░ρ╝╥
    7196:	80 91 82 42 	lds	r24, 0x4282	; 0x804282 <KEY+0x2>
    719a:	83 30       	cpi	r24, 0x03	; 3
    719c:	09 f0       	breq	.+2      	; 0x71a0 <ZigBee_PanID_Write+0x350>
    719e:	a0 c0       	rjmp	.+320    	; 0x72e0 <ZigBee_PanID_Write+0x490>
    71a0:	00 23       	and	r16, r16
    71a2:	09 f4       	brne	.+2      	; 0x71a6 <ZigBee_PanID_Write+0x356>
    71a4:	9d c0       	rjmp	.+314    	; 0x72e0 <ZigBee_PanID_Write+0x490>
    71a6:	01 50       	subi	r16, 0x01	; 1
    71a8:	10 92 82 42 	sts	0x4282, r1	; 0x804282 <KEY+0x2>
    71ac:	99 c0       	rjmp	.+306    	; 0x72e0 <ZigBee_PanID_Write+0x490>
					}
				}
			break;
//-------------------------------------------------------------------------------------------------
			case 3:							// ZigBee PanID 10└╟ └┌╕χ
				DIGIT[1][1] = fnd_tbl[digit_3];			// ZigBee PanID 100└╟ └┌╕χ ╟ξ╜├
    71ae:	e0 2f       	mov	r30, r16
    71b0:	f0 e0       	ldi	r31, 0x00	; 0
    71b2:	e5 5c       	subi	r30, 0xC5	; 197
    71b4:	fe 4b       	sbci	r31, 0xBE	; 190
    71b6:	80 81       	ld	r24, Z
    71b8:	80 93 74 41 	sts	0x4174, r24	; 0x804174 <DIGIT+0x5>
				if(Blink) {DIGIT[1][0] = FND_OFF;}		// Blink = 1 └╠╕ώ ZigBee PanID 10└╟ └┌╕χ OFF
    71bc:	80 91 b0 42 	lds	r24, 0x42B0	; 0x8042b0 <Blink>
    71c0:	88 23       	and	r24, r24
    71c2:	19 f0       	breq	.+6      	; 0x71ca <ZigBee_PanID_Write+0x37a>
    71c4:	10 92 73 41 	sts	0x4173, r1	; 0x804173 <DIGIT+0x4>
    71c8:	07 c0       	rjmp	.+14     	; 0x71d8 <ZigBee_PanID_Write+0x388>
				else	  {DIGIT[1][0] = fnd_tbl[digit_2];}	// Blink = 0 └╠╕ώ ZigBee PanID 10└╟ └┌╕χ ╟ξ╜├
    71ca:	ec 2f       	mov	r30, r28
    71cc:	f0 e0       	ldi	r31, 0x00	; 0
    71ce:	e5 5c       	subi	r30, 0xC5	; 197
    71d0:	fe 4b       	sbci	r31, 0xBE	; 190
    71d2:	80 81       	ld	r24, Z
    71d4:	80 93 73 41 	sts	0x4173, r24	; 0x804173 <DIGIT+0x4>

				if(KEY.Buff)					// Key └╘╖┬└╠ └╓└╕╕ώ
    71d8:	80 91 81 42 	lds	r24, 0x4281	; 0x804281 <KEY+0x1>
    71dc:	88 23       	and	r24, r24
    71de:	09 f4       	brne	.+2      	; 0x71e2 <ZigBee_PanID_Write+0x392>
    71e0:	7f c0       	rjmp	.+254    	; 0x72e0 <ZigBee_PanID_Write+0x490>
				{
					if(digit_5 >= 6 && digit_4 >= 5 && digit_3 >= 5)			// ZigBee PanID ░κ 65500 ░· ░░░┼│ς ┼σ╕ώ
    71e2:	d6 30       	cpi	r29, 0x06	; 6
    71e4:	d8 f0       	brcs	.+54     	; 0x721c <ZigBee_PanID_Write+0x3cc>
    71e6:	44 e0       	ldi	r20, 0x04	; 4
    71e8:	4b 15       	cp	r20, r11
    71ea:	c0 f4       	brcc	.+48     	; 0x721c <ZigBee_PanID_Write+0x3cc>
    71ec:	05 30       	cpi	r16, 0x05	; 5
    71ee:	b0 f0       	brcs	.+44     	; 0x721c <ZigBee_PanID_Write+0x3cc>
					{
						if     (KEY.Key == 1 && digit_2 < 3) {digit_2++; KEY.Key = 0;}	// ╛≈  ╣÷╞░ └╠╕ώ ZigBee PanID 10└╟ └┌╕χ 3▒Ό┴÷ ┴Ϋ░κ
    71f0:	80 91 82 42 	lds	r24, 0x4282	; 0x804282 <KEY+0x2>
    71f4:	81 30       	cpi	r24, 0x01	; 1
    71f6:	31 f4       	brne	.+12     	; 0x7204 <ZigBee_PanID_Write+0x3b4>
    71f8:	c3 30       	cpi	r28, 0x03	; 3
    71fa:	20 f4       	brcc	.+8      	; 0x7204 <ZigBee_PanID_Write+0x3b4>
    71fc:	cf 5f       	subi	r28, 0xFF	; 255
    71fe:	10 92 82 42 	sts	0x4282, r1	; 0x804282 <KEY+0x2>
    7202:	6e c0       	rjmp	.+220    	; 0x72e0 <ZigBee_PanID_Write+0x490>
						else if(KEY.Key == 3 && digit_2 > 0) {digit_2--; KEY.Key = 0;}	// ┤┘┐Ό╣÷╞░ └╠╕ώ ZigBee PanID 10└╟ └┌╕χ ░ρ╝╥
    7204:	80 91 82 42 	lds	r24, 0x4282	; 0x804282 <KEY+0x2>
    7208:	83 30       	cpi	r24, 0x03	; 3
    720a:	09 f0       	breq	.+2      	; 0x720e <ZigBee_PanID_Write+0x3be>
    720c:	69 c0       	rjmp	.+210    	; 0x72e0 <ZigBee_PanID_Write+0x490>
    720e:	cc 23       	and	r28, r28
    7210:	09 f4       	brne	.+2      	; 0x7214 <ZigBee_PanID_Write+0x3c4>
    7212:	66 c0       	rjmp	.+204    	; 0x72e0 <ZigBee_PanID_Write+0x490>
    7214:	c1 50       	subi	r28, 0x01	; 1
    7216:	10 92 82 42 	sts	0x4282, r1	; 0x804282 <KEY+0x2>
    721a:	62 c0       	rjmp	.+196    	; 0x72e0 <ZigBee_PanID_Write+0x490>
					}
					else									// ZigBee PanID ░κ 65500 ░· ░░░┼│ς ┼σ┴÷ ╛╩└╕╕ώ
					{
						if     (KEY.Key == 1 && digit_2 < 9) {digit_2++; KEY.Key = 0;}	// ╛≈  ╣÷╞░ └╠╕ώ ZigBee PanID 10└╟ └┌╕χ 9▒Ό┴÷ ┴Ϋ░κ
    721c:	80 91 82 42 	lds	r24, 0x4282	; 0x804282 <KEY+0x2>
    7220:	81 30       	cpi	r24, 0x01	; 1
    7222:	31 f4       	brne	.+12     	; 0x7230 <ZigBee_PanID_Write+0x3e0>
    7224:	c9 30       	cpi	r28, 0x09	; 9
    7226:	20 f4       	brcc	.+8      	; 0x7230 <ZigBee_PanID_Write+0x3e0>
    7228:	cf 5f       	subi	r28, 0xFF	; 255
    722a:	10 92 82 42 	sts	0x4282, r1	; 0x804282 <KEY+0x2>
    722e:	58 c0       	rjmp	.+176    	; 0x72e0 <ZigBee_PanID_Write+0x490>
						else if(KEY.Key == 3 && digit_2 > 0) {digit_2--; KEY.Key = 0;}	// ┤┘┐Ό╣÷╞░ └╠╕ώ ZigBee PanID 10└╟ └┌╕χ 0▒Ό┴÷ ░ρ╝╥
    7230:	80 91 82 42 	lds	r24, 0x4282	; 0x804282 <KEY+0x2>
    7234:	83 30       	cpi	r24, 0x03	; 3
    7236:	09 f0       	breq	.+2      	; 0x723a <ZigBee_PanID_Write+0x3ea>
    7238:	53 c0       	rjmp	.+166    	; 0x72e0 <ZigBee_PanID_Write+0x490>
    723a:	cc 23       	and	r28, r28
    723c:	09 f4       	brne	.+2      	; 0x7240 <ZigBee_PanID_Write+0x3f0>
    723e:	50 c0       	rjmp	.+160    	; 0x72e0 <ZigBee_PanID_Write+0x490>
    7240:	c1 50       	subi	r28, 0x01	; 1
    7242:	10 92 82 42 	sts	0x4282, r1	; 0x804282 <KEY+0x2>
    7246:	4c c0       	rjmp	.+152    	; 0x72e0 <ZigBee_PanID_Write+0x490>
					}
				}
			break;
//-------------------------------------------------------------------------------------------------
			case 4:							// ZigBee PanID 1└╟ └┌╕χ
				DIGIT[1][0] = fnd_tbl[digit_2];			// ZigBee PanID 10└╟ └┌╕χ ╟ξ╜├
    7248:	ec 2f       	mov	r30, r28
    724a:	f0 e0       	ldi	r31, 0x00	; 0
    724c:	e5 5c       	subi	r30, 0xC5	; 197
    724e:	fe 4b       	sbci	r31, 0xBE	; 190
    7250:	80 81       	ld	r24, Z
    7252:	80 93 73 41 	sts	0x4173, r24	; 0x804173 <DIGIT+0x4>
				if(Blink) {DIGIT[2][3] = FND_OFF;}		// Blink = 1 └╠╕ώ ZigBee PanID 1└╟ └┌╕χ OFF
    7256:	80 91 b0 42 	lds	r24, 0x42B0	; 0x8042b0 <Blink>
    725a:	88 23       	and	r24, r24
    725c:	19 f0       	breq	.+6      	; 0x7264 <ZigBee_PanID_Write+0x414>
    725e:	10 92 7a 41 	sts	0x417A, r1	; 0x80417a <DIGIT+0xb>
    7262:	07 c0       	rjmp	.+14     	; 0x7272 <ZigBee_PanID_Write+0x422>
				else	  {DIGIT[2][3] = fnd_tbl[digit_1];}	// Blink = 0 └╠╕ώ ZigBee PanID 1└╟ └┌╕χ ╟ξ╜├
    7264:	e1 2f       	mov	r30, r17
    7266:	f0 e0       	ldi	r31, 0x00	; 0
    7268:	e5 5c       	subi	r30, 0xC5	; 197
    726a:	fe 4b       	sbci	r31, 0xBE	; 190
    726c:	80 81       	ld	r24, Z
    726e:	80 93 7a 41 	sts	0x417A, r24	; 0x80417a <DIGIT+0xb>

				if(KEY.Buff)					// Key └╘╖┬└╠ └╓└╕╕ώ
    7272:	80 91 81 42 	lds	r24, 0x4281	; 0x804281 <KEY+0x1>
    7276:	88 23       	and	r24, r24
    7278:	99 f1       	breq	.+102    	; 0x72e0 <ZigBee_PanID_Write+0x490>
				{
					if(digit_5 >= 6 && digit_4 >= 5 && digit_3 >= 5 && digit_2 >= 3)	// ZigBee PanID ░κ 65530 ░· ░░░┼│ς ┼σ╕ώ
    727a:	d6 30       	cpi	r29, 0x06	; 6
    727c:	d8 f0       	brcs	.+54     	; 0x72b4 <ZigBee_PanID_Write+0x464>
    727e:	84 e0       	ldi	r24, 0x04	; 4
    7280:	8b 15       	cp	r24, r11
    7282:	c0 f4       	brcc	.+48     	; 0x72b4 <ZigBee_PanID_Write+0x464>
    7284:	05 30       	cpi	r16, 0x05	; 5
    7286:	b0 f0       	brcs	.+44     	; 0x72b4 <ZigBee_PanID_Write+0x464>
    7288:	c3 30       	cpi	r28, 0x03	; 3
    728a:	a0 f0       	brcs	.+40     	; 0x72b4 <ZigBee_PanID_Write+0x464>
					{
						if     (KEY.Key == 1 && digit_1 < 5) {digit_1++; KEY.Key = 0;}	// ╛≈  ╣÷╞░ └╠╕ώ ZigBee PanID 1└╟ └┌╕χ 6▒Ό┴÷ ┴Ϋ░κ
    728c:	80 91 82 42 	lds	r24, 0x4282	; 0x804282 <KEY+0x2>
    7290:	81 30       	cpi	r24, 0x01	; 1
    7292:	31 f4       	brne	.+12     	; 0x72a0 <ZigBee_PanID_Write+0x450>
    7294:	15 30       	cpi	r17, 0x05	; 5
    7296:	20 f4       	brcc	.+8      	; 0x72a0 <ZigBee_PanID_Write+0x450>
    7298:	1f 5f       	subi	r17, 0xFF	; 255
    729a:	10 92 82 42 	sts	0x4282, r1	; 0x804282 <KEY+0x2>
    729e:	20 c0       	rjmp	.+64     	; 0x72e0 <ZigBee_PanID_Write+0x490>
						else if(KEY.Key == 3 && digit_1 > 0) {digit_1--; KEY.Key = 0;}	// ┤┘┐Ό╣÷╞░ └╠╕ώ ZigBee PanID 1└╟ └┌╕χ ░ρ╝╥
    72a0:	80 91 82 42 	lds	r24, 0x4282	; 0x804282 <KEY+0x2>
    72a4:	83 30       	cpi	r24, 0x03	; 3
    72a6:	e1 f4       	brne	.+56     	; 0x72e0 <ZigBee_PanID_Write+0x490>
    72a8:	11 23       	and	r17, r17
    72aa:	d1 f0       	breq	.+52     	; 0x72e0 <ZigBee_PanID_Write+0x490>
    72ac:	11 50       	subi	r17, 0x01	; 1
    72ae:	10 92 82 42 	sts	0x4282, r1	; 0x804282 <KEY+0x2>
    72b2:	16 c0       	rjmp	.+44     	; 0x72e0 <ZigBee_PanID_Write+0x490>
					}
					else									// ZigBee PanID ░κ 65530 ░· ░░░┼│ς ┼σ┴÷ ╛╩└╕╕ώ
					{
						if     (KEY.Key == 1 && digit_1 < 9) {digit_1++; KEY.Key = 0;}	// ╛≈  ╣÷╞░ └╠╕ώ ZigBee PanID 1└╟ └┌╕χ 9▒Ό┴÷ ┴Ϋ░κ
    72b4:	80 91 82 42 	lds	r24, 0x4282	; 0x804282 <KEY+0x2>
    72b8:	81 30       	cpi	r24, 0x01	; 1
    72ba:	31 f4       	brne	.+12     	; 0x72c8 <ZigBee_PanID_Write+0x478>
    72bc:	19 30       	cpi	r17, 0x09	; 9
    72be:	20 f4       	brcc	.+8      	; 0x72c8 <ZigBee_PanID_Write+0x478>
    72c0:	1f 5f       	subi	r17, 0xFF	; 255
    72c2:	10 92 82 42 	sts	0x4282, r1	; 0x804282 <KEY+0x2>
    72c6:	0c c0       	rjmp	.+24     	; 0x72e0 <ZigBee_PanID_Write+0x490>
						else if(KEY.Key == 3 && digit_1 > 0) {digit_1--; KEY.Key = 0;}	// ┤┘┐Ό╣÷╞░ └╠╕ώ ZigBee PanID 1└╟ └┌╕χ 0▒Ό┴÷ ░ρ╝╥
    72c8:	80 91 82 42 	lds	r24, 0x4282	; 0x804282 <KEY+0x2>
    72cc:	83 30       	cpi	r24, 0x03	; 3
    72ce:	41 f4       	brne	.+16     	; 0x72e0 <ZigBee_PanID_Write+0x490>
    72d0:	11 23       	and	r17, r17
    72d2:	31 f0       	breq	.+12     	; 0x72e0 <ZigBee_PanID_Write+0x490>
    72d4:	11 50       	subi	r17, 0x01	; 1
    72d6:	10 92 82 42 	sts	0x4282, r1	; 0x804282 <KEY+0x2>
    72da:	02 c0       	rjmp	.+4      	; 0x72e0 <ZigBee_PanID_Write+0x490>
					}
				}
			break;
//-------------------------------------------------------------------------------------------------
			case 5:
				KEY.Count = 0;					// ╣▌║╣└╗ └π╟╪ Count╕ο ├╓└·╖╬ ░ρ╝╥ ╜├┼┤
    72dc:	10 92 80 42 	sts	0x4280, r1	; 0x804280 <KEY>
			break;
		}
		wdt_reset();							// ┐÷─κ╡╢ ╕χ╝┬
    72e0:	0e 94 ef 0c 	call	0x19de	; 0x19de <wdt_reset>
	DIGIT[1][1] = fnd_tbl[digit_3];						// ZigBee PanID   100└╟ └┌╕χ ╟ξ╜├
	DIGIT[1][0] = fnd_tbl[digit_2];						// ZigBee PanID    10└╟ └┌╕χ ╟ξ╜├

	DIGIT[2][3] = fnd_tbl[digit_1];						// ZigBee PanID     1└╟ └┌╕χ ╟ξ╜├

	while(SET.Menu)								// ╕▐┤║╕Ώ╡ί └╠╕ώ ╣▌║╣
    72e4:	80 91 05 42 	lds	r24, 0x4205	; 0x804205 <SET>
    72e8:	81 11       	cpse	r24, r1
    72ea:	85 ce       	rjmp	.-758    	; 0x6ff6 <ZigBee_PanID_Write+0x1a6>
		}
		wdt_reset();							// ┐÷─κ╡╢ ╕χ╝┬
	}
//-------------------------------------------------------------------------------------------------
	ZB_id = 0;								// ZigBee Pan_id ├╩▒έ╚φ
	ZB_id += (digit_5 * 10000);						// ZigBee Pan_id 10000└╟ └┌╕χ
    72ec:	20 e1       	ldi	r18, 0x10	; 16
    72ee:	37 e2       	ldi	r19, 0x27	; 39
    72f0:	d2 9f       	mul	r29, r18
    72f2:	c0 01       	movw	r24, r0
    72f4:	d3 9f       	mul	r29, r19
    72f6:	90 0d       	add	r25, r0
    72f8:	11 24       	eor	r1, r1
	ZB_id += (digit_4 * 1000);						// ZigBee Pan_id  1000└╟ └┌╕χ
    72fa:	48 ee       	ldi	r20, 0xE8	; 232
    72fc:	53 e0       	ldi	r21, 0x03	; 3
    72fe:	b4 9e       	mul	r11, r20
    7300:	90 01       	movw	r18, r0
    7302:	b5 9e       	mul	r11, r21
    7304:	30 0d       	add	r19, r0
    7306:	11 24       	eor	r1, r1
    7308:	82 0f       	add	r24, r18
    730a:	93 1f       	adc	r25, r19
	ZB_id += (digit_3 * 100);						// ZigBee Pan_id   100└╟ └┌╕χ
    730c:	9c 01       	movw	r18, r24
    730e:	e4 e6       	ldi	r30, 0x64	; 100
    7310:	0e 9f       	mul	r16, r30
    7312:	20 0d       	add	r18, r0
    7314:	31 1d       	adc	r19, r1
    7316:	11 24       	eor	r1, r1
	ZB_id += (digit_2 * 10);						// ZigBee Pan_id    10└╟ └┌╕χ
    7318:	d0 e0       	ldi	r29, 0x00	; 0
    731a:	ce 01       	movw	r24, r28
    731c:	88 0f       	add	r24, r24
    731e:	99 1f       	adc	r25, r25
    7320:	cc 0f       	add	r28, r28
    7322:	dd 1f       	adc	r29, r29
    7324:	cc 0f       	add	r28, r28
    7326:	dd 1f       	adc	r29, r29
    7328:	cc 0f       	add	r28, r28
    732a:	dd 1f       	adc	r29, r29
    732c:	8c 0f       	add	r24, r28
    732e:	9d 1f       	adc	r25, r29
    7330:	82 0f       	add	r24, r18
    7332:	93 1f       	adc	r25, r19
	ZB_id += (digit_1 * 1);							// ZigBee Pan_id     1└╟ └┌╕χ
    7334:	81 0f       	add	r24, r17
    7336:	91 1d       	adc	r25, r1
    7338:	80 93 9d 42 	sts	0x429D, r24	; 0x80429d <ZB_id>
    733c:	90 93 9e 42 	sts	0x429E, r25	; 0x80429e <ZB_id+0x1>

	Pan_id_1000 = (ZB_id / 4096);						// ZigBee Pan_id HEX Code 2Byte ╗≤└π
    7340:	29 2f       	mov	r18, r25
    7342:	22 95       	swap	r18
    7344:	2f 70       	andi	r18, 0x0F	; 15
    7346:	20 93 7d 42 	sts	0x427D, r18	; 0x80427d <Pan_id_1000>
    734a:	10 92 7e 42 	sts	0x427E, r1	; 0x80427e <Pan_id_1000+0x1>
	Pan_id_100  = (ZB_id % 4096 / 256);					// ZigBee Pan_id HEX Code 2Byte ╟╧└π
    734e:	9c 01       	movw	r18, r24
    7350:	3f 70       	andi	r19, 0x0F	; 15
    7352:	30 93 a7 41 	sts	0x41A7, r19	; 0x8041a7 <Pan_id_100>
    7356:	10 92 a8 41 	sts	0x41A8, r1	; 0x8041a8 <Pan_id_100+0x1>
	Pan_id_10   = (ZB_id % 4096 % 256 / 16);				// ZigBee Pan_id HEX Code 1Byte ╗≤└π
    735a:	9c 01       	movw	r18, r24
    735c:	33 27       	eor	r19, r19
    735e:	32 95       	swap	r19
    7360:	22 95       	swap	r18
    7362:	2f 70       	andi	r18, 0x0F	; 15
    7364:	23 27       	eor	r18, r19
    7366:	3f 70       	andi	r19, 0x0F	; 15
    7368:	23 27       	eor	r18, r19
    736a:	20 93 03 42 	sts	0x4203, r18	; 0x804203 <Pan_id_10>
    736e:	30 93 04 42 	sts	0x4204, r19	; 0x804204 <Pan_id_10+0x1>
	Pan_id_1    = (ZB_id % 4096 % 256 % 16);				// ZigBee Pan_id HEX Code 1Byte ╟╧└π
    7372:	8f 70       	andi	r24, 0x0F	; 15
    7374:	99 27       	eor	r25, r25
    7376:	80 93 d8 41 	sts	0x41D8, r24	; 0x8041d8 <Pan_id_1>
    737a:	90 93 d9 41 	sts	0x41D9, r25	; 0x8041d9 <Pan_id_1+0x1>

	ZigBee_Write_id();							// ZigBee PanID └·└ί
    737e:	0e 94 42 36 	call	0x6c84	; 0x6c84 <ZigBee_Write_id>

	SET.Menu = 1;								// Menu ╕Ώ╡ί └ψ┴÷
    7382:	e5 e0       	ldi	r30, 0x05	; 5
    7384:	f2 e4       	ldi	r31, 0x42	; 66
    7386:	81 e0       	ldi	r24, 0x01	; 1
    7388:	80 83       	st	Z, r24
	SET.Select = 0;								// Select ╣÷╞░ ├╩▒έ╚φ
    738a:	11 82       	std	Z+1, r1	; 0x01
	SET.Blink = 0;								// └┌╕┤╝÷ ▒Ϊ╣┌└╙ ├╩▒έ╚φ
    738c:	12 82       	std	Z+2, r1	; 0x02
	KEY.Count = 0;								// ╝▒┼├ Key ░κ ┤φ╕░╚╜╝÷ ├╩▒έ╚φ
    738e:	10 92 80 42 	sts	0x4280, r1	; 0x804280 <KEY>
}
    7392:	df 91       	pop	r29
    7394:	cf 91       	pop	r28
    7396:	1f 91       	pop	r17
    7398:	0f 91       	pop	r16
    739a:	ff 90       	pop	r15
    739c:	ef 90       	pop	r14
    739e:	df 90       	pop	r13
    73a0:	cf 90       	pop	r12
    73a2:	bf 90       	pop	r11
    73a4:	9f 90       	pop	r9
    73a6:	8f 90       	pop	r8
    73a8:	7f 90       	pop	r7
    73aa:	6f 90       	pop	r6
    73ac:	08 95       	ret

000073ae <ZigBee_Write_ch>:

//=================================================================================================
void ZigBee_Write_ch(void)							// ZigBee ├ν│╬ └·└ί
{
    73ae:	cf 93       	push	r28
	uint8_t zbch_wite = 0;							// zbch_wite ║ψ╝÷ ├╩▒έ╚φ
    73b0:	c0 e0       	ldi	r28, 0x00	; 0

	do{
		switch(zbch_wite)						// zbch_wite
    73b2:	c1 30       	cpi	r28, 0x01	; 1
    73b4:	a1 f0       	breq	.+40     	; 0x73de <ZigBee_Write_ch+0x30>
    73b6:	28 f0       	brcs	.+10     	; 0x73c2 <ZigBee_Write_ch+0x14>
    73b8:	c2 30       	cpi	r28, 0x02	; 2
    73ba:	d1 f1       	breq	.+116    	; 0x7430 <ZigBee_Write_ch+0x82>
    73bc:	c3 30       	cpi	r28, 0x03	; 3
    73be:	e9 f1       	breq	.+122    	; 0x743a <ZigBee_Write_ch+0x8c>
    73c0:	40 c0       	rjmp	.+128    	; 0x7442 <ZigBee_Write_ch+0x94>
		{
			case 0:							// zbch_wite = 0 └╠╕ώ
				USART3_SendString("+++");			// USART3 ┐κ +++ └ⁿ╝█
    73c2:	88 e4       	ldi	r24, 0x48	; 72
    73c4:	91 e4       	ldi	r25, 0x41	; 65
    73c6:	0e 94 12 36 	call	0x6c24	; 0x6c24 <USART3_SendString>
    73ca:	2f ef       	ldi	r18, 0xFF	; 255
    73cc:	8f ef       	ldi	r24, 0xFF	; 255
    73ce:	9c e2       	ldi	r25, 0x2C	; 44
    73d0:	21 50       	subi	r18, 0x01	; 1
    73d2:	80 40       	sbci	r24, 0x00	; 0
    73d4:	90 40       	sbci	r25, 0x00	; 0
    73d6:	e1 f7       	brne	.-8      	; 0x73d0 <ZigBee_Write_ch+0x22>
    73d8:	00 c0       	rjmp	.+0      	; 0x73da <ZigBee_Write_ch+0x2c>
    73da:	00 00       	nop
    73dc:	32 c0       	rjmp	.+100    	; 0x7442 <ZigBee_Write_ch+0x94>
				_delay_ms(1000);				// ZigBee ├╓├╩ ┤ϊ║ψ ╜├░μ 1├╩ Delay
			break;

			case 1:							// zbch_wite = 1 └╠╕ώ
				USART3_SendString("ATCH");			// USART3 ┐κ ATCH └ⁿ╝█
    73de:	8d e5       	ldi	r24, 0x5D	; 93
    73e0:	91 e4       	ldi	r25, 0x41	; 65
    73e2:	0e 94 12 36 	call	0x6c24	; 0x6c24 <USART3_SendString>
				USART3_Write(CH[ZB_ch] / 256);			// USART3 ┐κ ├ν│╬ 1Byte ╗≤└π └ⁿ╝█
    73e6:	e0 91 d7 41 	lds	r30, 0x41D7	; 0x8041d7 <ZB_ch>
    73ea:	f0 e0       	ldi	r31, 0x00	; 0
    73ec:	ee 0f       	add	r30, r30
    73ee:	ff 1f       	adc	r31, r31
    73f0:	e6 5d       	subi	r30, 0xD6	; 214
    73f2:	ff 4b       	sbci	r31, 0xBF	; 191
    73f4:	80 81       	ld	r24, Z
    73f6:	91 81       	ldd	r25, Z+1	; 0x01
    73f8:	99 23       	and	r25, r25
    73fa:	14 f4       	brge	.+4      	; 0x7400 <ZigBee_Write_ch+0x52>
    73fc:	81 50       	subi	r24, 0x01	; 1
    73fe:	9f 4f       	sbci	r25, 0xFF	; 255
    7400:	89 2f       	mov	r24, r25
    7402:	0e 94 09 36 	call	0x6c12	; 0x6c12 <USART3_Write>
				USART3_Write(CH[ZB_ch] % 256);			// USART3 ┐κ ├ν│╬ 1Byte ╟╧└π └ⁿ╝█
    7406:	e0 91 d7 41 	lds	r30, 0x41D7	; 0x8041d7 <ZB_ch>
    740a:	f0 e0       	ldi	r31, 0x00	; 0
    740c:	ee 0f       	add	r30, r30
    740e:	ff 1f       	adc	r31, r31
    7410:	e6 5d       	subi	r30, 0xD6	; 214
    7412:	ff 4b       	sbci	r31, 0xBF	; 191
    7414:	80 81       	ld	r24, Z
    7416:	91 81       	ldd	r25, Z+1	; 0x01
    7418:	90 78       	andi	r25, 0x80	; 128
    741a:	99 23       	and	r25, r25
    741c:	1c f4       	brge	.+6      	; 0x7424 <ZigBee_Write_ch+0x76>
    741e:	01 97       	sbiw	r24, 0x01	; 1
    7420:	9f 6f       	ori	r25, 0xFF	; 255
    7422:	01 96       	adiw	r24, 0x01	; 1
    7424:	0e 94 09 36 	call	0x6c12	; 0x6c12 <USART3_Write>
				USART3_Write('\r');				// USART3 ┐κ \r
    7428:	8d e0       	ldi	r24, 0x0D	; 13
    742a:	0e 94 09 36 	call	0x6c12	; 0x6c12 <USART3_Write>
			break;
    742e:	09 c0       	rjmp	.+18     	; 0x7442 <ZigBee_Write_ch+0x94>

			case 2:							// zbch_wite = 2 └╠╕ώ
				USART3_SendString("ATWR\r");			// USART3 ┐κ ATWR\r └ⁿ╝█
    7430:	81 e5       	ldi	r24, 0x51	; 81
    7432:	91 e4       	ldi	r25, 0x41	; 65
    7434:	0e 94 12 36 	call	0x6c24	; 0x6c24 <USART3_SendString>
			break;
    7438:	04 c0       	rjmp	.+8      	; 0x7442 <ZigBee_Write_ch+0x94>

			case 3:							// zbch_wite = 3 └╠╕ώ
				USART3_SendString("ATCN\r");			// USART3 ┐κ ATCN\r └ⁿ╝█
    743a:	87 e5       	ldi	r24, 0x57	; 87
    743c:	91 e4       	ldi	r25, 0x41	; 65
    743e:	0e 94 12 36 	call	0x6c24	; 0x6c24 <USART3_SendString>
			break;
		}
//-------------------------------------------------------------------------------------------------
		for(uint8_t cnt = 0; cnt < RX3_SIZE; cnt++)			// RX3_SIZE ╕╕┼φ ╣▌║╣
    7442:	80 e0       	ldi	r24, 0x00	; 0
    7444:	9d c0       	rjmp	.+314    	; 0x7580 <ZigBee_Write_ch+0x1d2>
		{
			if(zbch_wite == 0 && Rx3_Buff[cnt] == 'O' && Rx3_Buff[cnt + 1] == 'K' && Rx3_Buff[cnt + 2] == 0x0d)
    7446:	c1 11       	cpse	r28, r1
    7448:	25 c0       	rjmp	.+74     	; 0x7494 <ZigBee_Write_ch+0xe6>
    744a:	28 2f       	mov	r18, r24
    744c:	30 e0       	ldi	r19, 0x00	; 0
    744e:	f9 01       	movw	r30, r18
    7450:	e9 51       	subi	r30, 0x19	; 25
    7452:	fd 4b       	sbci	r31, 0xBD	; 189
    7454:	90 81       	ld	r25, Z
    7456:	9f 34       	cpi	r25, 0x4F	; 79
    7458:	e9 f4       	brne	.+58     	; 0x7494 <ZigBee_Write_ch+0xe6>
    745a:	f9 01       	movw	r30, r18
    745c:	e8 51       	subi	r30, 0x18	; 24
    745e:	fd 4b       	sbci	r31, 0xBD	; 189
    7460:	90 81       	ld	r25, Z
    7462:	9b 34       	cpi	r25, 0x4B	; 75
    7464:	b9 f4       	brne	.+46     	; 0x7494 <ZigBee_Write_ch+0xe6>
    7466:	f9 01       	movw	r30, r18
    7468:	e7 51       	subi	r30, 0x17	; 23
    746a:	fd 4b       	sbci	r31, 0xBD	; 189
    746c:	90 81       	ld	r25, Z
    746e:	9d 30       	cpi	r25, 0x0D	; 13
    7470:	89 f4       	brne	.+34     	; 0x7494 <ZigBee_Write_ch+0xe6>
			{							// 0+OK+CR
				zbch_wite = 1;					// ┤ϊ║ψ ╚χ└╬ ╚─ ┤┘└╜└╕╖╬ ┴Ϋ░κ
				Beep(3);
    7472:	83 e0       	ldi	r24, 0x03	; 3
    7474:	90 e0       	ldi	r25, 0x00	; 0
    7476:	0e 94 3b 04 	call	0x876	; 0x876 <Beep>
    747a:	2f ef       	ldi	r18, 0xFF	; 255
    747c:	8f e3       	ldi	r24, 0x3F	; 63
    747e:	92 e0       	ldi	r25, 0x02	; 2
    7480:	21 50       	subi	r18, 0x01	; 1
    7482:	80 40       	sbci	r24, 0x00	; 0
    7484:	90 40       	sbci	r25, 0x00	; 0
    7486:	e1 f7       	brne	.-8      	; 0x7480 <ZigBee_Write_ch+0xd2>
    7488:	00 c0       	rjmp	.+0      	; 0x748a <ZigBee_Write_ch+0xdc>
    748a:	00 00       	nop
				_delay_ms(50);					// ZigBee ├│╕χ ╜├░μ ╚─
				Rx3_Buff_Clear();				// Rx3 Buff Clear
    748c:	0e 94 30 36 	call	0x6c60	; 0x6c60 <Rx3_Buff_Clear>
//-------------------------------------------------------------------------------------------------
		for(uint8_t cnt = 0; cnt < RX3_SIZE; cnt++)			// RX3_SIZE ╕╕┼φ ╣▌║╣
		{
			if(zbch_wite == 0 && Rx3_Buff[cnt] == 'O' && Rx3_Buff[cnt + 1] == 'K' && Rx3_Buff[cnt + 2] == 0x0d)
			{							// 0+OK+CR
				zbch_wite = 1;					// ┤ϊ║ψ ╚χ└╬ ╚─ ┤┘└╜└╕╖╬ ┴Ϋ░κ
    7490:	c1 e0       	ldi	r28, 0x01	; 1
				Beep(3);
				_delay_ms(50);					// ZigBee ├│╕χ ╜├░μ ╚─
				Rx3_Buff_Clear();				// Rx3 Buff Clear
				break;
    7492:	79 c0       	rjmp	.+242    	; 0x7586 <ZigBee_Write_ch+0x1d8>
			}

			if(zbch_wite == 1 && Rx3_Buff[cnt] == 'O' && Rx3_Buff[cnt + 1] == 'K' && Rx3_Buff[cnt + 2] == 0x0d)
    7494:	c1 30       	cpi	r28, 0x01	; 1
    7496:	29 f5       	brne	.+74     	; 0x74e2 <ZigBee_Write_ch+0x134>
    7498:	28 2f       	mov	r18, r24
    749a:	30 e0       	ldi	r19, 0x00	; 0
    749c:	f9 01       	movw	r30, r18
    749e:	e9 51       	subi	r30, 0x19	; 25
    74a0:	fd 4b       	sbci	r31, 0xBD	; 189
    74a2:	90 81       	ld	r25, Z
    74a4:	9f 34       	cpi	r25, 0x4F	; 79
    74a6:	e9 f4       	brne	.+58     	; 0x74e2 <ZigBee_Write_ch+0x134>
    74a8:	f9 01       	movw	r30, r18
    74aa:	e8 51       	subi	r30, 0x18	; 24
    74ac:	fd 4b       	sbci	r31, 0xBD	; 189
    74ae:	90 81       	ld	r25, Z
    74b0:	9b 34       	cpi	r25, 0x4B	; 75
    74b2:	b9 f4       	brne	.+46     	; 0x74e2 <ZigBee_Write_ch+0x134>
    74b4:	f9 01       	movw	r30, r18
    74b6:	e7 51       	subi	r30, 0x17	; 23
    74b8:	fd 4b       	sbci	r31, 0xBD	; 189
    74ba:	90 81       	ld	r25, Z
    74bc:	9d 30       	cpi	r25, 0x0D	; 13
    74be:	89 f4       	brne	.+34     	; 0x74e2 <ZigBee_Write_ch+0x134>
			{							// 1+OK+CR
				zbch_wite = 2;					// ┤ϊ║ψ ╚χ└╬ ╚─ ┤┘└╜└╕╖╬ ┴Ϋ░κ
				Beep(3);
    74c0:	83 e0       	ldi	r24, 0x03	; 3
    74c2:	90 e0       	ldi	r25, 0x00	; 0
    74c4:	0e 94 3b 04 	call	0x876	; 0x876 <Beep>
    74c8:	2f ef       	ldi	r18, 0xFF	; 255
    74ca:	8f e3       	ldi	r24, 0x3F	; 63
    74cc:	92 e0       	ldi	r25, 0x02	; 2
    74ce:	21 50       	subi	r18, 0x01	; 1
    74d0:	80 40       	sbci	r24, 0x00	; 0
    74d2:	90 40       	sbci	r25, 0x00	; 0
    74d4:	e1 f7       	brne	.-8      	; 0x74ce <ZigBee_Write_ch+0x120>
    74d6:	00 c0       	rjmp	.+0      	; 0x74d8 <ZigBee_Write_ch+0x12a>
    74d8:	00 00       	nop
				_delay_ms(50);					// ZigBee ├│╕χ ╜├░μ ╚─
				Rx3_Buff_Clear();				// Rx3 Buff Clear
    74da:	0e 94 30 36 	call	0x6c60	; 0x6c60 <Rx3_Buff_Clear>
				break;
			}

			if(zbch_wite == 1 && Rx3_Buff[cnt] == 'O' && Rx3_Buff[cnt + 1] == 'K' && Rx3_Buff[cnt + 2] == 0x0d)
			{							// 1+OK+CR
				zbch_wite = 2;					// ┤ϊ║ψ ╚χ└╬ ╚─ ┤┘└╜└╕╖╬ ┴Ϋ░κ
    74de:	c2 e0       	ldi	r28, 0x02	; 2
				Beep(3);
				_delay_ms(50);					// ZigBee ├│╕χ ╜├░μ ╚─
				Rx3_Buff_Clear();				// Rx3 Buff Clear
				break;
    74e0:	52 c0       	rjmp	.+164    	; 0x7586 <ZigBee_Write_ch+0x1d8>
			}

			if(zbch_wite == 2 && Rx3_Buff[cnt] == 'O' && Rx3_Buff[cnt + 1] == 'K' && Rx3_Buff[cnt + 2] == 0x0d)
    74e2:	c2 30       	cpi	r28, 0x02	; 2
    74e4:	29 f5       	brne	.+74     	; 0x7530 <ZigBee_Write_ch+0x182>
    74e6:	28 2f       	mov	r18, r24
    74e8:	30 e0       	ldi	r19, 0x00	; 0
    74ea:	f9 01       	movw	r30, r18
    74ec:	e9 51       	subi	r30, 0x19	; 25
    74ee:	fd 4b       	sbci	r31, 0xBD	; 189
    74f0:	90 81       	ld	r25, Z
    74f2:	9f 34       	cpi	r25, 0x4F	; 79
    74f4:	e9 f4       	brne	.+58     	; 0x7530 <ZigBee_Write_ch+0x182>
    74f6:	f9 01       	movw	r30, r18
    74f8:	e8 51       	subi	r30, 0x18	; 24
    74fa:	fd 4b       	sbci	r31, 0xBD	; 189
    74fc:	90 81       	ld	r25, Z
    74fe:	9b 34       	cpi	r25, 0x4B	; 75
    7500:	b9 f4       	brne	.+46     	; 0x7530 <ZigBee_Write_ch+0x182>
    7502:	f9 01       	movw	r30, r18
    7504:	e7 51       	subi	r30, 0x17	; 23
    7506:	fd 4b       	sbci	r31, 0xBD	; 189
    7508:	90 81       	ld	r25, Z
    750a:	9d 30       	cpi	r25, 0x0D	; 13
    750c:	89 f4       	brne	.+34     	; 0x7530 <ZigBee_Write_ch+0x182>
			{							// 2+OK+CR
				zbch_wite = 3;					// ┤ϊ║ψ ╚χ└╬ ╚─ ┤┘└╜└╕╖╬ ┴Ϋ░κ
				Beep(3);
    750e:	83 e0       	ldi	r24, 0x03	; 3
    7510:	90 e0       	ldi	r25, 0x00	; 0
    7512:	0e 94 3b 04 	call	0x876	; 0x876 <Beep>
    7516:	2f ef       	ldi	r18, 0xFF	; 255
    7518:	8f e3       	ldi	r24, 0x3F	; 63
    751a:	92 e0       	ldi	r25, 0x02	; 2
    751c:	21 50       	subi	r18, 0x01	; 1
    751e:	80 40       	sbci	r24, 0x00	; 0
    7520:	90 40       	sbci	r25, 0x00	; 0
    7522:	e1 f7       	brne	.-8      	; 0x751c <ZigBee_Write_ch+0x16e>
    7524:	00 c0       	rjmp	.+0      	; 0x7526 <ZigBee_Write_ch+0x178>
    7526:	00 00       	nop
				_delay_ms(50);					// ZigBee ├│╕χ ╜├░μ ╚─
				Rx3_Buff_Clear();				// Rx3 Buff Clear
    7528:	0e 94 30 36 	call	0x6c60	; 0x6c60 <Rx3_Buff_Clear>
				break;
			}

			if(zbch_wite == 2 && Rx3_Buff[cnt] == 'O' && Rx3_Buff[cnt + 1] == 'K' && Rx3_Buff[cnt + 2] == 0x0d)
			{							// 2+OK+CR
				zbch_wite = 3;					// ┤ϊ║ψ ╚χ└╬ ╚─ ┤┘└╜└╕╖╬ ┴Ϋ░κ
    752c:	c3 e0       	ldi	r28, 0x03	; 3
				Beep(3);
				_delay_ms(50);					// ZigBee ├│╕χ ╜├░μ ╚─
				Rx3_Buff_Clear();				// Rx3 Buff Clear
				break;
    752e:	2b c0       	rjmp	.+86     	; 0x7586 <ZigBee_Write_ch+0x1d8>
			}

			if(zbch_wite == 3 && Rx3_Buff[cnt] == 'O' && Rx3_Buff[cnt + 1] == 'K' && Rx3_Buff[cnt + 2] == 0x0d)
    7530:	c3 30       	cpi	r28, 0x03	; 3
    7532:	29 f5       	brne	.+74     	; 0x757e <ZigBee_Write_ch+0x1d0>
    7534:	28 2f       	mov	r18, r24
    7536:	30 e0       	ldi	r19, 0x00	; 0
    7538:	f9 01       	movw	r30, r18
    753a:	e9 51       	subi	r30, 0x19	; 25
    753c:	fd 4b       	sbci	r31, 0xBD	; 189
    753e:	90 81       	ld	r25, Z
    7540:	9f 34       	cpi	r25, 0x4F	; 79
    7542:	e9 f4       	brne	.+58     	; 0x757e <ZigBee_Write_ch+0x1d0>
    7544:	f9 01       	movw	r30, r18
    7546:	e8 51       	subi	r30, 0x18	; 24
    7548:	fd 4b       	sbci	r31, 0xBD	; 189
    754a:	90 81       	ld	r25, Z
    754c:	9b 34       	cpi	r25, 0x4B	; 75
    754e:	b9 f4       	brne	.+46     	; 0x757e <ZigBee_Write_ch+0x1d0>
    7550:	f9 01       	movw	r30, r18
    7552:	e7 51       	subi	r30, 0x17	; 23
    7554:	fd 4b       	sbci	r31, 0xBD	; 189
    7556:	90 81       	ld	r25, Z
    7558:	9d 30       	cpi	r25, 0x0D	; 13
    755a:	89 f4       	brne	.+34     	; 0x757e <ZigBee_Write_ch+0x1d0>
			{							// 3+OK+CR
				zbch_wite = 5;					// ┤ϊ║ψ ╚χ└╬ ╚─ While()╣χ ┴╛╖ά
				Beep(3);
    755c:	83 e0       	ldi	r24, 0x03	; 3
    755e:	90 e0       	ldi	r25, 0x00	; 0
    7560:	0e 94 3b 04 	call	0x876	; 0x876 <Beep>
    7564:	2f ef       	ldi	r18, 0xFF	; 255
    7566:	8f e3       	ldi	r24, 0x3F	; 63
    7568:	92 e0       	ldi	r25, 0x02	; 2
    756a:	21 50       	subi	r18, 0x01	; 1
    756c:	80 40       	sbci	r24, 0x00	; 0
    756e:	90 40       	sbci	r25, 0x00	; 0
    7570:	e1 f7       	brne	.-8      	; 0x756a <ZigBee_Write_ch+0x1bc>
    7572:	00 c0       	rjmp	.+0      	; 0x7574 <ZigBee_Write_ch+0x1c6>
    7574:	00 00       	nop
				_delay_ms(50);					// ZigBee ├│╕χ ╜├░μ ╚─
				Rx3_Buff_Clear();				// Rx3 Buff Clear
    7576:	0e 94 30 36 	call	0x6c60	; 0x6c60 <Rx3_Buff_Clear>
				break;
			}

			if(zbch_wite == 3 && Rx3_Buff[cnt] == 'O' && Rx3_Buff[cnt + 1] == 'K' && Rx3_Buff[cnt + 2] == 0x0d)
			{							// 3+OK+CR
				zbch_wite = 5;					// ┤ϊ║ψ ╚χ└╬ ╚─ While()╣χ ┴╛╖ά
    757a:	c5 e0       	ldi	r28, 0x05	; 5
				Beep(3);
				_delay_ms(50);					// ZigBee ├│╕χ ╜├░μ ╚─
				Rx3_Buff_Clear();				// Rx3 Buff Clear
				break;
    757c:	04 c0       	rjmp	.+8      	; 0x7586 <ZigBee_Write_ch+0x1d8>
			case 3:							// zbch_wite = 3 └╠╕ώ
				USART3_SendString("ATCN\r");			// USART3 ┐κ ATCN\r └ⁿ╝█
			break;
		}
//-------------------------------------------------------------------------------------------------
		for(uint8_t cnt = 0; cnt < RX3_SIZE; cnt++)			// RX3_SIZE ╕╕┼φ ╣▌║╣
    757e:	8f 5f       	subi	r24, 0xFF	; 255
    7580:	8a 3f       	cpi	r24, 0xFA	; 250
    7582:	08 f4       	brcc	.+2      	; 0x7586 <ZigBee_Write_ch+0x1d8>
    7584:	60 cf       	rjmp	.-320    	; 0x7446 <ZigBee_Write_ch+0x98>
				_delay_ms(50);					// ZigBee ├│╕χ ╜├░μ ╚─
				Rx3_Buff_Clear();				// Rx3 Buff Clear
				break;
			}
		}
		wdt_reset();							// ┐÷─κ╡╢ ╕χ╝┬
    7586:	0e 94 ef 0c 	call	0x19de	; 0x19de <wdt_reset>
	}while(zbch_wite != 5);							// zbch_wite ░κ 5 └╧╢π ▒Ό┴÷ ╣▌║╣
    758a:	c5 30       	cpi	r28, 0x05	; 5
    758c:	09 f0       	breq	.+2      	; 0x7590 <ZigBee_Write_ch+0x1e2>
    758e:	11 cf       	rjmp	.-478    	; 0x73b2 <ZigBee_Write_ch+0x4>
}
    7590:	cf 91       	pop	r28
    7592:	08 95       	ret

00007594 <ZigBee_Channel_Write>:

//=================================================================================================
void ZigBee_Channel_Write(void)							// ZigBee ├ν│╬ ╝│┴ν
{
	FND_Value_Data(2, 2, 12);						// FND 0 ~ 2 FND_OFF
    7594:	4c e0       	ldi	r20, 0x0C	; 12
    7596:	62 e0       	ldi	r22, 0x02	; 2
    7598:	82 e0       	ldi	r24, 0x02	; 2
    759a:	0e 94 d9 05 	call	0xbb2	; 0xbb2 <FND_Value_Data>

	while(SET.Select && SET.Menu)						// ╕▐┤║ ┐═ ╝▒┼├ └╠ ╕Ώ╡╬ 1 └╠╕ώ ╣▌║╣
    759e:	3d c0       	rjmp	.+122    	; 0x761a <ZigBee_Channel_Write+0x86>
	{
		DIGIT[1][1] = fnd_tbl[ZB_ch / 10];				// FND 2 ┐κ ┴÷▒╫║± ├╝│╬ ╟ξ╜├
    75a0:	20 91 d7 41 	lds	r18, 0x41D7	; 0x8041d7 <ZB_ch>
    75a4:	8d ec       	ldi	r24, 0xCD	; 205
    75a6:	28 9f       	mul	r18, r24
    75a8:	81 2d       	mov	r24, r1
    75aa:	11 24       	eor	r1, r1
    75ac:	86 95       	lsr	r24
    75ae:	86 95       	lsr	r24
    75b0:	86 95       	lsr	r24
    75b2:	e8 2f       	mov	r30, r24
    75b4:	f0 e0       	ldi	r31, 0x00	; 0
    75b6:	e5 5c       	subi	r30, 0xC5	; 197
    75b8:	fe 4b       	sbci	r31, 0xBE	; 190
    75ba:	90 81       	ld	r25, Z
    75bc:	af e6       	ldi	r26, 0x6F	; 111
    75be:	b1 e4       	ldi	r27, 0x41	; 65
    75c0:	15 96       	adiw	r26, 0x05	; 5
    75c2:	9c 93       	st	X, r25
    75c4:	15 97       	sbiw	r26, 0x05	; 5
		DIGIT[1][0] = fnd_tbl[ZB_ch % 10];
    75c6:	88 0f       	add	r24, r24
    75c8:	98 2f       	mov	r25, r24
    75ca:	99 0f       	add	r25, r25
    75cc:	99 0f       	add	r25, r25
    75ce:	89 0f       	add	r24, r25
    75d0:	e2 2f       	mov	r30, r18
    75d2:	e8 1b       	sub	r30, r24
    75d4:	f0 e0       	ldi	r31, 0x00	; 0
    75d6:	e5 5c       	subi	r30, 0xC5	; 197
    75d8:	fe 4b       	sbci	r31, 0xBE	; 190
    75da:	80 81       	ld	r24, Z
    75dc:	14 96       	adiw	r26, 0x04	; 4
    75de:	8c 93       	st	X, r24

		if(KEY.Buff)							// Key └╘╖┬└╠ └╓└╕╕ώ
    75e0:	80 91 81 42 	lds	r24, 0x4281	; 0x804281 <KEY+0x1>
    75e4:	88 23       	and	r24, r24
    75e6:	b9 f0       	breq	.+46     	; 0x7616 <ZigBee_Channel_Write+0x82>
		{
			if     (KEY.Key == 1 && ZB_ch < 14) {ZB_ch++; KEY.Key = 0;}	// ╛≈  ╣÷╞░ └╠╕ώ ZigBee ├ν│╬ 14▒Ό┴÷ ┴Ϋ░κ
    75e8:	80 91 82 42 	lds	r24, 0x4282	; 0x804282 <KEY+0x2>
    75ec:	81 30       	cpi	r24, 0x01	; 1
    75ee:	41 f4       	brne	.+16     	; 0x7600 <ZigBee_Channel_Write+0x6c>
    75f0:	2e 30       	cpi	r18, 0x0E	; 14
    75f2:	30 f4       	brcc	.+12     	; 0x7600 <ZigBee_Channel_Write+0x6c>
    75f4:	2f 5f       	subi	r18, 0xFF	; 255
    75f6:	20 93 d7 41 	sts	0x41D7, r18	; 0x8041d7 <ZB_ch>
    75fa:	10 92 82 42 	sts	0x4282, r1	; 0x804282 <KEY+0x2>
    75fe:	0b c0       	rjmp	.+22     	; 0x7616 <ZigBee_Channel_Write+0x82>
			else if(KEY.Key == 3 && ZB_ch > 0)  {ZB_ch--; KEY.Key = 0;}	// ┤┘┐Ό╣÷╞░ └╠╕ώ ZigBee ├ν│╬  0▒Ό┴÷ ░ρ╝╥
    7600:	80 91 82 42 	lds	r24, 0x4282	; 0x804282 <KEY+0x2>
    7604:	83 30       	cpi	r24, 0x03	; 3
    7606:	39 f4       	brne	.+14     	; 0x7616 <ZigBee_Channel_Write+0x82>
    7608:	22 23       	and	r18, r18
    760a:	29 f0       	breq	.+10     	; 0x7616 <ZigBee_Channel_Write+0x82>
    760c:	21 50       	subi	r18, 0x01	; 1
    760e:	20 93 d7 41 	sts	0x41D7, r18	; 0x8041d7 <ZB_ch>
    7612:	10 92 82 42 	sts	0x4282, r1	; 0x804282 <KEY+0x2>
		}
		wdt_reset();							// ┐÷─κ╡╢ ╕χ╝┬
    7616:	0e 94 ef 0c 	call	0x19de	; 0x19de <wdt_reset>
//=================================================================================================
void ZigBee_Channel_Write(void)							// ZigBee ├ν│╬ ╝│┴ν
{
	FND_Value_Data(2, 2, 12);						// FND 0 ~ 2 FND_OFF

	while(SET.Select && SET.Menu)						// ╕▐┤║ ┐═ ╝▒┼├ └╠ ╕Ώ╡╬ 1 └╠╕ώ ╣▌║╣
    761a:	80 91 06 42 	lds	r24, 0x4206	; 0x804206 <SET+0x1>
    761e:	88 23       	and	r24, r24
    7620:	21 f0       	breq	.+8      	; 0x762a <ZigBee_Channel_Write+0x96>
    7622:	80 91 05 42 	lds	r24, 0x4205	; 0x804205 <SET>
    7626:	81 11       	cpse	r24, r1
    7628:	bb cf       	rjmp	.-138    	; 0x75a0 <ZigBee_Channel_Write+0xc>
			if     (KEY.Key == 1 && ZB_ch < 14) {ZB_ch++; KEY.Key = 0;}	// ╛≈  ╣÷╞░ └╠╕ώ ZigBee ├ν│╬ 14▒Ό┴÷ ┴Ϋ░κ
			else if(KEY.Key == 3 && ZB_ch > 0)  {ZB_ch--; KEY.Key = 0;}	// ┤┘┐Ό╣÷╞░ └╠╕ώ ZigBee ├ν│╬  0▒Ό┴÷ ░ρ╝╥
		}
		wdt_reset();							// ┐÷─κ╡╢ ╕χ╝┬
	}
	ZigBee_Write_ch();							// ZigBee ┐κ ├ν│╬ └·└ί
    762a:	0e 94 d7 39 	call	0x73ae	; 0x73ae <ZigBee_Write_ch>
    762e:	08 95       	ret

00007630 <ZigBee_Read>:
}

//=================================================================================================
void ZigBee_Read(void)								// ZigBee ╝│┴ν░ς └╨▒έ								
{
    7630:	cf 93       	push	r28
	uint8_t zbch_read = 0;							// zbch_read ║ψ╝÷ ├╩▒έ╚φ
    7632:	c0 e0       	ldi	r28, 0x00	; 0

	do{
		switch(zbch_read)						// zbch_read
    7634:	c1 30       	cpi	r28, 0x01	; 1
    7636:	a1 f0       	breq	.+40     	; 0x7660 <ZigBee_Read+0x30>
    7638:	28 f0       	brcs	.+10     	; 0x7644 <ZigBee_Read+0x14>
    763a:	c2 30       	cpi	r28, 0x02	; 2
    763c:	b1 f0       	breq	.+44     	; 0x766a <ZigBee_Read+0x3a>
    763e:	c3 30       	cpi	r28, 0x03	; 3
    7640:	c9 f0       	breq	.+50     	; 0x7674 <ZigBee_Read+0x44>
    7642:	1c c0       	rjmp	.+56     	; 0x767c <ZigBee_Read+0x4c>
		{
			case 0:							// zbch_read = 0 └╠╕ώ
				USART3_SendString("+++");			// USART3 ┐κ +++ └ⁿ╝█
    7644:	88 e4       	ldi	r24, 0x48	; 72
    7646:	91 e4       	ldi	r25, 0x41	; 65
    7648:	0e 94 12 36 	call	0x6c24	; 0x6c24 <USART3_SendString>
    764c:	2f ef       	ldi	r18, 0xFF	; 255
    764e:	8f ef       	ldi	r24, 0xFF	; 255
    7650:	9c e2       	ldi	r25, 0x2C	; 44
    7652:	21 50       	subi	r18, 0x01	; 1
    7654:	80 40       	sbci	r24, 0x00	; 0
    7656:	90 40       	sbci	r25, 0x00	; 0
    7658:	e1 f7       	brne	.-8      	; 0x7652 <ZigBee_Read+0x22>
    765a:	00 c0       	rjmp	.+0      	; 0x765c <ZigBee_Read+0x2c>
    765c:	00 00       	nop
    765e:	0e c0       	rjmp	.+28     	; 0x767c <ZigBee_Read+0x4c>
				_delay_ms(1000);				// ZigBee ├╓├╩ ┤ϊ║ψ ╜├░μ 1├╩ Delay
			break;

			case 1:							// zbch_read = 1 └╠╕ώ
				USART3_SendString("ATCH\r");			// USART3 ┐κ ATCH └ⁿ╝█
    7660:	82 e6       	ldi	r24, 0x62	; 98
    7662:	91 e4       	ldi	r25, 0x41	; 65
    7664:	0e 94 12 36 	call	0x6c24	; 0x6c24 <USART3_SendString>
			break;
    7668:	09 c0       	rjmp	.+18     	; 0x767c <ZigBee_Read+0x4c>

			case 2:							// zbch_read = 2 └╠╕ώ
				USART3_SendString("ATID\r");			// USART3 ┐κ ATWR └ⁿ╝█
    766a:	88 e6       	ldi	r24, 0x68	; 104
    766c:	91 e4       	ldi	r25, 0x41	; 65
    766e:	0e 94 12 36 	call	0x6c24	; 0x6c24 <USART3_SendString>
			break;
    7672:	04 c0       	rjmp	.+8      	; 0x767c <ZigBee_Read+0x4c>

			case 3:							// zbch_read = 3 └╠╕ώ
				USART3_SendString("ATCN\r");			// USART3 ┐κ ATCN └ⁿ╝█
    7674:	87 e5       	ldi	r24, 0x57	; 87
    7676:	91 e4       	ldi	r25, 0x41	; 65
    7678:	0e 94 12 36 	call	0x6c24	; 0x6c24 <USART3_SendString>
			break;
		}
//-------------------------------------------------------------------------------------------------
		for(uint8_t cnt = 0; cnt < RX3_SIZE; cnt++)			// RX3_SIZE ╕╕┼φ ╣▌║╣
    767c:	80 e0       	ldi	r24, 0x00	; 0
    767e:	30 c1       	rjmp	.+608    	; 0x78e0 <ZigBee_Read+0x2b0>
		{
			if(zbch_read == 0 && Rx3_Buff[cnt] == 'O' && Rx3_Buff[cnt + 1] == 'K' && Rx3_Buff[cnt + 2] == 0x0d)
    7680:	c1 11       	cpse	r28, r1
    7682:	25 c0       	rjmp	.+74     	; 0x76ce <ZigBee_Read+0x9e>
    7684:	28 2f       	mov	r18, r24
    7686:	30 e0       	ldi	r19, 0x00	; 0
    7688:	f9 01       	movw	r30, r18
    768a:	e9 51       	subi	r30, 0x19	; 25
    768c:	fd 4b       	sbci	r31, 0xBD	; 189
    768e:	90 81       	ld	r25, Z
    7690:	9f 34       	cpi	r25, 0x4F	; 79
    7692:	e9 f4       	brne	.+58     	; 0x76ce <ZigBee_Read+0x9e>
    7694:	f9 01       	movw	r30, r18
    7696:	e8 51       	subi	r30, 0x18	; 24
    7698:	fd 4b       	sbci	r31, 0xBD	; 189
    769a:	90 81       	ld	r25, Z
    769c:	9b 34       	cpi	r25, 0x4B	; 75
    769e:	b9 f4       	brne	.+46     	; 0x76ce <ZigBee_Read+0x9e>
    76a0:	f9 01       	movw	r30, r18
    76a2:	e7 51       	subi	r30, 0x17	; 23
    76a4:	fd 4b       	sbci	r31, 0xBD	; 189
    76a6:	90 81       	ld	r25, Z
    76a8:	9d 30       	cpi	r25, 0x0D	; 13
    76aa:	89 f4       	brne	.+34     	; 0x76ce <ZigBee_Read+0x9e>
			{							// 0+OK+CR
				zbch_read = 1;					// ┤ϊ║ψ ╚χ└╬ ╚─ ┤┘└╜└╕╖╬ ┴Ϋ░κ
				Beep(3);
    76ac:	83 e0       	ldi	r24, 0x03	; 3
    76ae:	90 e0       	ldi	r25, 0x00	; 0
    76b0:	0e 94 3b 04 	call	0x876	; 0x876 <Beep>
    76b4:	2f ef       	ldi	r18, 0xFF	; 255
    76b6:	8f e3       	ldi	r24, 0x3F	; 63
    76b8:	92 e0       	ldi	r25, 0x02	; 2
    76ba:	21 50       	subi	r18, 0x01	; 1
    76bc:	80 40       	sbci	r24, 0x00	; 0
    76be:	90 40       	sbci	r25, 0x00	; 0
    76c0:	e1 f7       	brne	.-8      	; 0x76ba <ZigBee_Read+0x8a>
    76c2:	00 c0       	rjmp	.+0      	; 0x76c4 <ZigBee_Read+0x94>
    76c4:	00 00       	nop
				_delay_ms(50);					// ZigBee ├│╕χ ╜├░μ ╚─
				Rx3_Buff_Clear();				// Rx3 Buff Clear
    76c6:	0e 94 30 36 	call	0x6c60	; 0x6c60 <Rx3_Buff_Clear>
//-------------------------------------------------------------------------------------------------
		for(uint8_t cnt = 0; cnt < RX3_SIZE; cnt++)			// RX3_SIZE ╕╕┼φ ╣▌║╣
		{
			if(zbch_read == 0 && Rx3_Buff[cnt] == 'O' && Rx3_Buff[cnt + 1] == 'K' && Rx3_Buff[cnt + 2] == 0x0d)
			{							// 0+OK+CR
				zbch_read = 1;					// ┤ϊ║ψ ╚χ└╬ ╚─ ┤┘└╜└╕╖╬ ┴Ϋ░κ
    76ca:	c1 e0       	ldi	r28, 0x01	; 1
				Beep(3);
				_delay_ms(50);					// ZigBee ├│╕χ ╜├░μ ╚─
				Rx3_Buff_Clear();				// Rx3 Buff Clear
				break;
    76cc:	0c c1       	rjmp	.+536    	; 0x78e6 <ZigBee_Read+0x2b6>
			}
//-------------------------------------------------------------------------------------------------
			if(zbch_read == 1 && Rx3_Buff[cnt] == 0x0d)
    76ce:	c1 30       	cpi	r28, 0x01	; 1
    76d0:	09 f0       	breq	.+2      	; 0x76d4 <ZigBee_Read+0xa4>
    76d2:	4e c0       	rjmp	.+156    	; 0x7770 <ZigBee_Read+0x140>
    76d4:	28 2f       	mov	r18, r24
    76d6:	30 e0       	ldi	r19, 0x00	; 0
    76d8:	f9 01       	movw	r30, r18
    76da:	e9 51       	subi	r30, 0x19	; 25
    76dc:	fd 4b       	sbci	r31, 0xBD	; 189
    76de:	90 81       	ld	r25, Z
    76e0:	9d 30       	cpi	r25, 0x0D	; 13
    76e2:	09 f0       	breq	.+2      	; 0x76e6 <ZigBee_Read+0xb6>
    76e4:	45 c0       	rjmp	.+138    	; 0x7770 <ZigBee_Read+0x140>
			{							// 1+CR
				switch(cnt)					// cnt
    76e6:	81 30       	cpi	r24, 0x01	; 1
    76e8:	19 f0       	breq	.+6      	; 0x76f0 <ZigBee_Read+0xc0>
    76ea:	82 30       	cpi	r24, 0x02	; 2
    76ec:	49 f0       	breq	.+18     	; 0x7700 <ZigBee_Read+0xd0>
    76ee:	2f c0       	rjmp	.+94     	; 0x774e <ZigBee_Read+0x11e>
				{
					case 1:					// ZigBee channel └╨╛Ό┐└▒έ. ╟╤└┌╕χ
						ZB_ch = Rx3_Buff[cnt-1] - 0x43;	// ZigBee channel 1└╟ └┌╕χ
    76f0:	f9 01       	movw	r30, r18
    76f2:	ea 51       	subi	r30, 0x1A	; 26
    76f4:	fd 4b       	sbci	r31, 0xBD	; 189
    76f6:	80 81       	ld	r24, Z
    76f8:	83 54       	subi	r24, 0x43	; 67
    76fa:	80 93 d7 41 	sts	0x41D7, r24	; 0x8041d7 <ZB_ch>
					break;
    76fe:	27 c0       	rjmp	.+78     	; 0x774e <ZigBee_Read+0x11e>

					case 2:					// ZigBee channel └╨╛Ό┐└▒έ. ╡╬└┌╕χ
						if(Rx3_Buff[cnt-1] <= 0x39) {ZB_ch = (Rx3_Buff[cnt-2] - 0x30) * 10 + (Rx3_Buff[cnt -1] - 0x30) - 6;}	// HEX To DEC
    7700:	f9 01       	movw	r30, r18
    7702:	ea 51       	subi	r30, 0x1A	; 26
    7704:	fd 4b       	sbci	r31, 0xBD	; 189
    7706:	80 81       	ld	r24, Z
    7708:	8a 33       	cpi	r24, 0x3A	; 58
    770a:	88 f4       	brcc	.+34     	; 0x772e <ZigBee_Read+0xfe>
    770c:	f9 01       	movw	r30, r18
    770e:	eb 51       	subi	r30, 0x1B	; 27
    7710:	fd 4b       	sbci	r31, 0xBD	; 189
    7712:	20 81       	ld	r18, Z
    7714:	30 e0       	ldi	r19, 0x00	; 0
    7716:	20 53       	subi	r18, 0x30	; 48
    7718:	31 09       	sbc	r19, r1
    771a:	22 0f       	add	r18, r18
    771c:	92 2f       	mov	r25, r18
    771e:	99 0f       	add	r25, r25
    7720:	99 0f       	add	r25, r25
    7722:	29 0f       	add	r18, r25
    7724:	82 0f       	add	r24, r18
    7726:	86 53       	subi	r24, 0x36	; 54
    7728:	80 93 d7 41 	sts	0x41D7, r24	; 0x8041d7 <ZB_ch>
    772c:	10 c0       	rjmp	.+32     	; 0x774e <ZigBee_Read+0x11e>
						else			    {ZB_ch = (Rx3_Buff[cnt-2] - 0x30) * 10 + (Rx3_Buff[cnt -1] - 0x37) - 6;}	// HEX To DEC
    772e:	f9 01       	movw	r30, r18
    7730:	eb 51       	subi	r30, 0x1B	; 27
    7732:	fd 4b       	sbci	r31, 0xBD	; 189
    7734:	20 81       	ld	r18, Z
    7736:	30 e0       	ldi	r19, 0x00	; 0
    7738:	20 53       	subi	r18, 0x30	; 48
    773a:	31 09       	sbc	r19, r1
    773c:	22 0f       	add	r18, r18
    773e:	92 2f       	mov	r25, r18
    7740:	99 0f       	add	r25, r25
    7742:	99 0f       	add	r25, r25
    7744:	29 0f       	add	r18, r25
    7746:	82 0f       	add	r24, r18
    7748:	8d 53       	subi	r24, 0x3D	; 61
    774a:	80 93 d7 41 	sts	0x41D7, r24	; 0x8041d7 <ZB_ch>
					break;
				}
				zbch_read = 2;					// ┤ϊ║ψ ╚χ└╬ ╚─ ┤┘└╜└╕╖╬ ┴Ϋ░κ
				Beep(3);
    774e:	83 e0       	ldi	r24, 0x03	; 3
    7750:	90 e0       	ldi	r25, 0x00	; 0
    7752:	0e 94 3b 04 	call	0x876	; 0x876 <Beep>
    7756:	2f ef       	ldi	r18, 0xFF	; 255
    7758:	8f e3       	ldi	r24, 0x3F	; 63
    775a:	92 e0       	ldi	r25, 0x02	; 2
    775c:	21 50       	subi	r18, 0x01	; 1
    775e:	80 40       	sbci	r24, 0x00	; 0
    7760:	90 40       	sbci	r25, 0x00	; 0
    7762:	e1 f7       	brne	.-8      	; 0x775c <ZigBee_Read+0x12c>
    7764:	00 c0       	rjmp	.+0      	; 0x7766 <ZigBee_Read+0x136>
    7766:	00 00       	nop
				_delay_ms(50);					// ZigBee ├│╕χ ╜├░μ ╚─
				Rx3_Buff_Clear();				// Rx3 Buff Clear
    7768:	0e 94 30 36 	call	0x6c60	; 0x6c60 <Rx3_Buff_Clear>
					case 2:					// ZigBee channel └╨╛Ό┐└▒έ. ╡╬└┌╕χ
						if(Rx3_Buff[cnt-1] <= 0x39) {ZB_ch = (Rx3_Buff[cnt-2] - 0x30) * 10 + (Rx3_Buff[cnt -1] - 0x30) - 6;}	// HEX To DEC
						else			    {ZB_ch = (Rx3_Buff[cnt-2] - 0x30) * 10 + (Rx3_Buff[cnt -1] - 0x37) - 6;}	// HEX To DEC
					break;
				}
				zbch_read = 2;					// ┤ϊ║ψ ╚χ└╬ ╚─ ┤┘└╜└╕╖╬ ┴Ϋ░κ
    776c:	c2 e0       	ldi	r28, 0x02	; 2
				Beep(3);
				_delay_ms(50);					// ZigBee ├│╕χ ╜├░μ ╚─
				Rx3_Buff_Clear();				// Rx3 Buff Clear
				break;
    776e:	bb c0       	rjmp	.+374    	; 0x78e6 <ZigBee_Read+0x2b6>
			}
//-------------------------------------------------------------------------------------------------
			if(zbch_read == 2 && Rx3_Buff[cnt] == 0x0d)
    7770:	c2 30       	cpi	r28, 0x02	; 2
    7772:	09 f0       	breq	.+2      	; 0x7776 <ZigBee_Read+0x146>
    7774:	8d c0       	rjmp	.+282    	; 0x7890 <ZigBee_Read+0x260>
    7776:	28 2f       	mov	r18, r24
    7778:	30 e0       	ldi	r19, 0x00	; 0
    777a:	f9 01       	movw	r30, r18
    777c:	e9 51       	subi	r30, 0x19	; 25
    777e:	fd 4b       	sbci	r31, 0xBD	; 189
    7780:	90 81       	ld	r25, Z
    7782:	9d 30       	cpi	r25, 0x0D	; 13
    7784:	09 f0       	breq	.+2      	; 0x7788 <ZigBee_Read+0x158>
    7786:	84 c0       	rjmp	.+264    	; 0x7890 <ZigBee_Read+0x260>
			{							// 2+CR
				switch(cnt)					// cnt
    7788:	82 30       	cpi	r24, 0x02	; 2
    778a:	a9 f0       	breq	.+42     	; 0x77b6 <ZigBee_Read+0x186>
    778c:	18 f4       	brcc	.+6      	; 0x7794 <ZigBee_Read+0x164>
    778e:	81 30       	cpi	r24, 0x01	; 1
    7790:	39 f0       	breq	.+14     	; 0x77a0 <ZigBee_Read+0x170>
    7792:	6d c0       	rjmp	.+218    	; 0x786e <ZigBee_Read+0x23e>
    7794:	83 30       	cpi	r24, 0x03	; 3
    7796:	21 f1       	breq	.+72     	; 0x77e0 <ZigBee_Read+0x1b0>
    7798:	84 30       	cpi	r24, 0x04	; 4
    779a:	09 f4       	brne	.+2      	; 0x779e <ZigBee_Read+0x16e>
    779c:	40 c0       	rjmp	.+128    	; 0x781e <ZigBee_Read+0x1ee>
    779e:	67 c0       	rjmp	.+206    	; 0x786e <ZigBee_Read+0x23e>
				{
					case 1:						// ZigBee Pan ID └╨╛Ό┐└▒έ. 1 └┌╕χ
						Pan_id_1   = Rx3_Buff[cnt-1] - 0x30;	// ZigBee Pan_id 1└╟ └┌╕χ
    77a0:	f9 01       	movw	r30, r18
    77a2:	ea 51       	subi	r30, 0x1A	; 26
    77a4:	fd 4b       	sbci	r31, 0xBD	; 189
    77a6:	80 81       	ld	r24, Z
    77a8:	90 e0       	ldi	r25, 0x00	; 0
    77aa:	c0 97       	sbiw	r24, 0x30	; 48
    77ac:	80 93 d8 41 	sts	0x41D8, r24	; 0x8041d8 <Pan_id_1>
    77b0:	90 93 d9 41 	sts	0x41D9, r25	; 0x8041d9 <Pan_id_1+0x1>
					break;
    77b4:	5c c0       	rjmp	.+184    	; 0x786e <ZigBee_Read+0x23e>

					case 2:						// ZigBee Pan ID └╨╛Ό┐└▒έ. 2 └┌╕χ
						Pan_id_10  = Rx3_Buff[cnt-2] - 0x30;	// ZigBee Pan_id 10└╟ └┌╕χ
    77b6:	f9 01       	movw	r30, r18
    77b8:	eb 51       	subi	r30, 0x1B	; 27
    77ba:	fd 4b       	sbci	r31, 0xBD	; 189
    77bc:	80 81       	ld	r24, Z
    77be:	90 e0       	ldi	r25, 0x00	; 0
    77c0:	c0 97       	sbiw	r24, 0x30	; 48
    77c2:	80 93 03 42 	sts	0x4203, r24	; 0x804203 <Pan_id_10>
    77c6:	90 93 04 42 	sts	0x4204, r25	; 0x804204 <Pan_id_10+0x1>
						Pan_id_1   = Rx3_Buff[cnt-1] - 0x30;	// ZigBee Pan_id  1└╟ └┌╕χ
    77ca:	f9 01       	movw	r30, r18
    77cc:	ea 51       	subi	r30, 0x1A	; 26
    77ce:	fd 4b       	sbci	r31, 0xBD	; 189
    77d0:	80 81       	ld	r24, Z
    77d2:	90 e0       	ldi	r25, 0x00	; 0
    77d4:	c0 97       	sbiw	r24, 0x30	; 48
    77d6:	80 93 d8 41 	sts	0x41D8, r24	; 0x8041d8 <Pan_id_1>
    77da:	90 93 d9 41 	sts	0x41D9, r25	; 0x8041d9 <Pan_id_1+0x1>
					break;
    77de:	47 c0       	rjmp	.+142    	; 0x786e <ZigBee_Read+0x23e>

					case 3:						// ZigBee Pan ID └╨╛Ό┐└▒έ. 3 └┌╕χ
						Pan_id_100 = Rx3_Buff[cnt-3] - 0x30;	// ZigBee Pan_id 100└╟ └┌╕χ
    77e0:	f9 01       	movw	r30, r18
    77e2:	ec 51       	subi	r30, 0x1C	; 28
    77e4:	fd 4b       	sbci	r31, 0xBD	; 189
    77e6:	80 81       	ld	r24, Z
    77e8:	90 e0       	ldi	r25, 0x00	; 0
    77ea:	c0 97       	sbiw	r24, 0x30	; 48
    77ec:	80 93 a7 41 	sts	0x41A7, r24	; 0x8041a7 <Pan_id_100>
    77f0:	90 93 a8 41 	sts	0x41A8, r25	; 0x8041a8 <Pan_id_100+0x1>
						Pan_id_10  = Rx3_Buff[cnt-2] - 0x30;	// ZigBee Pan_id  10└╟ └┌╕χ
    77f4:	f9 01       	movw	r30, r18
    77f6:	eb 51       	subi	r30, 0x1B	; 27
    77f8:	fd 4b       	sbci	r31, 0xBD	; 189
    77fa:	80 81       	ld	r24, Z
    77fc:	90 e0       	ldi	r25, 0x00	; 0
    77fe:	c0 97       	sbiw	r24, 0x30	; 48
    7800:	80 93 03 42 	sts	0x4203, r24	; 0x804203 <Pan_id_10>
    7804:	90 93 04 42 	sts	0x4204, r25	; 0x804204 <Pan_id_10+0x1>
						Pan_id_1   = Rx3_Buff[cnt-1] - 0x30;	// ZigBee Pan_id   1└╟ └┌╕χ
    7808:	f9 01       	movw	r30, r18
    780a:	ea 51       	subi	r30, 0x1A	; 26
    780c:	fd 4b       	sbci	r31, 0xBD	; 189
    780e:	80 81       	ld	r24, Z
    7810:	90 e0       	ldi	r25, 0x00	; 0
    7812:	c0 97       	sbiw	r24, 0x30	; 48
    7814:	80 93 d8 41 	sts	0x41D8, r24	; 0x8041d8 <Pan_id_1>
    7818:	90 93 d9 41 	sts	0x41D9, r25	; 0x8041d9 <Pan_id_1+0x1>
					break;
    781c:	28 c0       	rjmp	.+80     	; 0x786e <ZigBee_Read+0x23e>

					case 4:						// ZigBee Pan ID └╨╛Ό┐└▒έ. 4 └┌╕χ
						Pan_id_1000 = Rx3_Buff[cnt-4] - 0x30;	// ZigBee Pan_id 1000└╟ └┌╕χ
    781e:	f9 01       	movw	r30, r18
    7820:	ed 51       	subi	r30, 0x1D	; 29
    7822:	fd 4b       	sbci	r31, 0xBD	; 189
    7824:	80 81       	ld	r24, Z
    7826:	90 e0       	ldi	r25, 0x00	; 0
    7828:	c0 97       	sbiw	r24, 0x30	; 48
    782a:	80 93 7d 42 	sts	0x427D, r24	; 0x80427d <Pan_id_1000>
    782e:	90 93 7e 42 	sts	0x427E, r25	; 0x80427e <Pan_id_1000+0x1>
						Pan_id_100  = Rx3_Buff[cnt-3] - 0x30;	// ZigBee Pan_id  100└╟ └┌╕χ
    7832:	f9 01       	movw	r30, r18
    7834:	ec 51       	subi	r30, 0x1C	; 28
    7836:	fd 4b       	sbci	r31, 0xBD	; 189
    7838:	80 81       	ld	r24, Z
    783a:	90 e0       	ldi	r25, 0x00	; 0
    783c:	c0 97       	sbiw	r24, 0x30	; 48
    783e:	80 93 a7 41 	sts	0x41A7, r24	; 0x8041a7 <Pan_id_100>
    7842:	90 93 a8 41 	sts	0x41A8, r25	; 0x8041a8 <Pan_id_100+0x1>
						Pan_id_10   = Rx3_Buff[cnt-2] - 0x30;	// ZigBee Pan_id   10└╟ └┌╕χ
    7846:	f9 01       	movw	r30, r18
    7848:	eb 51       	subi	r30, 0x1B	; 27
    784a:	fd 4b       	sbci	r31, 0xBD	; 189
    784c:	80 81       	ld	r24, Z
    784e:	90 e0       	ldi	r25, 0x00	; 0
    7850:	c0 97       	sbiw	r24, 0x30	; 48
    7852:	80 93 03 42 	sts	0x4203, r24	; 0x804203 <Pan_id_10>
    7856:	90 93 04 42 	sts	0x4204, r25	; 0x804204 <Pan_id_10+0x1>
						Pan_id_1    = Rx3_Buff[cnt-1] - 0x30;	// ZigBee Pan_id    1└╟ └┌╕χ
    785a:	f9 01       	movw	r30, r18
    785c:	ea 51       	subi	r30, 0x1A	; 26
    785e:	fd 4b       	sbci	r31, 0xBD	; 189
    7860:	80 81       	ld	r24, Z
    7862:	90 e0       	ldi	r25, 0x00	; 0
    7864:	c0 97       	sbiw	r24, 0x30	; 48
    7866:	80 93 d8 41 	sts	0x41D8, r24	; 0x8041d8 <Pan_id_1>
    786a:	90 93 d9 41 	sts	0x41D9, r25	; 0x8041d9 <Pan_id_1+0x1>
					break;
				}
				zbch_read = 3;					// ┤ϊ║ψ ╚χ└╬ ╚─ ┤┘└╜└╕╖╬ ┴Ϋ░κ
				Beep(3);
    786e:	83 e0       	ldi	r24, 0x03	; 3
    7870:	90 e0       	ldi	r25, 0x00	; 0
    7872:	0e 94 3b 04 	call	0x876	; 0x876 <Beep>
    7876:	2f ef       	ldi	r18, 0xFF	; 255
    7878:	8f e3       	ldi	r24, 0x3F	; 63
    787a:	92 e0       	ldi	r25, 0x02	; 2
    787c:	21 50       	subi	r18, 0x01	; 1
    787e:	80 40       	sbci	r24, 0x00	; 0
    7880:	90 40       	sbci	r25, 0x00	; 0
    7882:	e1 f7       	brne	.-8      	; 0x787c <ZigBee_Read+0x24c>
    7884:	00 c0       	rjmp	.+0      	; 0x7886 <ZigBee_Read+0x256>
    7886:	00 00       	nop
				_delay_ms(50);					// ZigBee ├│╕χ ╜├░μ ╚─
				Rx3_Buff_Clear();				// Rx3 Buff Clear
    7888:	0e 94 30 36 	call	0x6c60	; 0x6c60 <Rx3_Buff_Clear>
						Pan_id_100  = Rx3_Buff[cnt-3] - 0x30;	// ZigBee Pan_id  100└╟ └┌╕χ
						Pan_id_10   = Rx3_Buff[cnt-2] - 0x30;	// ZigBee Pan_id   10└╟ └┌╕χ
						Pan_id_1    = Rx3_Buff[cnt-1] - 0x30;	// ZigBee Pan_id    1└╟ └┌╕χ
					break;
				}
				zbch_read = 3;					// ┤ϊ║ψ ╚χ└╬ ╚─ ┤┘└╜└╕╖╬ ┴Ϋ░κ
    788c:	c3 e0       	ldi	r28, 0x03	; 3
				Beep(3);
				_delay_ms(50);					// ZigBee ├│╕χ ╜├░μ ╚─
				Rx3_Buff_Clear();				// Rx3 Buff Clear
				break;
    788e:	2b c0       	rjmp	.+86     	; 0x78e6 <ZigBee_Read+0x2b6>
			}
//-------------------------------------------------------------------------------------------------
			if(zbch_read == 3 && Rx3_Buff[cnt] == 'O' && Rx3_Buff[cnt + 1] == 'K' && Rx3_Buff[cnt + 2] == 0x0d)
    7890:	c3 30       	cpi	r28, 0x03	; 3
    7892:	29 f5       	brne	.+74     	; 0x78de <ZigBee_Read+0x2ae>
    7894:	28 2f       	mov	r18, r24
    7896:	30 e0       	ldi	r19, 0x00	; 0
    7898:	f9 01       	movw	r30, r18
    789a:	e9 51       	subi	r30, 0x19	; 25
    789c:	fd 4b       	sbci	r31, 0xBD	; 189
    789e:	90 81       	ld	r25, Z
    78a0:	9f 34       	cpi	r25, 0x4F	; 79
    78a2:	e9 f4       	brne	.+58     	; 0x78de <ZigBee_Read+0x2ae>
    78a4:	f9 01       	movw	r30, r18
    78a6:	e8 51       	subi	r30, 0x18	; 24
    78a8:	fd 4b       	sbci	r31, 0xBD	; 189
    78aa:	90 81       	ld	r25, Z
    78ac:	9b 34       	cpi	r25, 0x4B	; 75
    78ae:	b9 f4       	brne	.+46     	; 0x78de <ZigBee_Read+0x2ae>
    78b0:	f9 01       	movw	r30, r18
    78b2:	e7 51       	subi	r30, 0x17	; 23
    78b4:	fd 4b       	sbci	r31, 0xBD	; 189
    78b6:	90 81       	ld	r25, Z
    78b8:	9d 30       	cpi	r25, 0x0D	; 13
    78ba:	89 f4       	brne	.+34     	; 0x78de <ZigBee_Read+0x2ae>
			{							// 3+OK+CR
				zbch_read = 5;					// ┤ϊ║ψ ╚χ└╬ ╚─ While()╣χ ┴╛╖ά
				Beep(3);
    78bc:	83 e0       	ldi	r24, 0x03	; 3
    78be:	90 e0       	ldi	r25, 0x00	; 0
    78c0:	0e 94 3b 04 	call	0x876	; 0x876 <Beep>
    78c4:	2f ef       	ldi	r18, 0xFF	; 255
    78c6:	8f e3       	ldi	r24, 0x3F	; 63
    78c8:	92 e0       	ldi	r25, 0x02	; 2
    78ca:	21 50       	subi	r18, 0x01	; 1
    78cc:	80 40       	sbci	r24, 0x00	; 0
    78ce:	90 40       	sbci	r25, 0x00	; 0
    78d0:	e1 f7       	brne	.-8      	; 0x78ca <ZigBee_Read+0x29a>
    78d2:	00 c0       	rjmp	.+0      	; 0x78d4 <ZigBee_Read+0x2a4>
    78d4:	00 00       	nop
				_delay_ms(50);					// ZigBee ├│╕χ ╜├░μ ╚─
				Rx3_Buff_Clear();				// Rx3 Buff Clear
    78d6:	0e 94 30 36 	call	0x6c60	; 0x6c60 <Rx3_Buff_Clear>
				break;
			}
//-------------------------------------------------------------------------------------------------
			if(zbch_read == 3 && Rx3_Buff[cnt] == 'O' && Rx3_Buff[cnt + 1] == 'K' && Rx3_Buff[cnt + 2] == 0x0d)
			{							// 3+OK+CR
				zbch_read = 5;					// ┤ϊ║ψ ╚χ└╬ ╚─ While()╣χ ┴╛╖ά
    78da:	c5 e0       	ldi	r28, 0x05	; 5
				Beep(3);
				_delay_ms(50);					// ZigBee ├│╕χ ╜├░μ ╚─
				Rx3_Buff_Clear();				// Rx3 Buff Clear
				break;
    78dc:	04 c0       	rjmp	.+8      	; 0x78e6 <ZigBee_Read+0x2b6>
			case 3:							// zbch_read = 3 └╠╕ώ
				USART3_SendString("ATCN\r");			// USART3 ┐κ ATCN └ⁿ╝█
			break;
		}
//-------------------------------------------------------------------------------------------------
		for(uint8_t cnt = 0; cnt < RX3_SIZE; cnt++)			// RX3_SIZE ╕╕┼φ ╣▌║╣
    78de:	8f 5f       	subi	r24, 0xFF	; 255
    78e0:	8a 3f       	cpi	r24, 0xFA	; 250
    78e2:	08 f4       	brcc	.+2      	; 0x78e6 <ZigBee_Read+0x2b6>
    78e4:	cd ce       	rjmp	.-614    	; 0x7680 <ZigBee_Read+0x50>
				_delay_ms(50);					// ZigBee ├│╕χ ╜├░μ ╚─
				Rx3_Buff_Clear();				// Rx3 Buff Clear
				break;
			}
		}
		wdt_reset();							// ┐÷─κ╡╢ ╕χ╝┬
    78e6:	0e 94 ef 0c 	call	0x19de	; 0x19de <wdt_reset>
	}while(zbch_read != 5);							// zbch_read ░κ 5 └╧╢π ▒Ό┴÷ ╣▌║╣
    78ea:	c5 30       	cpi	r28, 0x05	; 5
    78ec:	09 f0       	breq	.+2      	; 0x78f0 <ZigBee_Read+0x2c0>
    78ee:	a2 ce       	rjmp	.-700    	; 0x7634 <ZigBee_Read+0x4>
}
    78f0:	cf 91       	pop	r28
    78f2:	08 95       	ret

000078f4 <ZigBee_Set>:

//=================================================================================================
void ZigBee_Set(void)								// ZigBee ├ν│╬ ╣╫ PanID ╝│┴ν ╕Ώ╡ί
{
    78f4:	ef 92       	push	r14
    78f6:	ff 92       	push	r15
    78f8:	0f 93       	push	r16
    78fa:	1f 93       	push	r17
    78fc:	cf 93       	push	r28
	uint8_t Count = 1;							// ─τ┐Ό╞χ ║ψ╝÷ ├╩▒έ╚φ
	SET.Select = 0;								// Select ╣÷╞░ ├╩▒έ╚φ
    78fe:	10 92 06 42 	sts	0x4206, r1	; 0x804206 <SET+0x1>
	FND_Value_Data(0, 2, 12);						// FND 0 ~ 2 FND_OFF
    7902:	4c e0       	ldi	r20, 0x0C	; 12
    7904:	62 e0       	ldi	r22, 0x02	; 2
    7906:	80 e0       	ldi	r24, 0x00	; 0
    7908:	0e 94 d9 05 	call	0xbb2	; 0xbb2 <FND_Value_Data>
	ZigBee_Read();								// ZigBee ╝│┴ν░ς └╨▒έ
    790c:	0e 94 18 3b 	call	0x7630	; 0x7630 <ZigBee_Read>
}

//=================================================================================================
void ZigBee_Set(void)								// ZigBee ├ν│╬ ╣╫ PanID ╝│┴ν ╕Ώ╡ί
{
	uint8_t Count = 1;							// ─τ┐Ό╞χ ║ψ╝÷ ├╩▒έ╚φ
    7910:	c1 e0       	ldi	r28, 0x01	; 1
	SET.Select = 0;								// Select ╣÷╞░ ├╩▒έ╚φ
	FND_Value_Data(0, 2, 12);						// FND 0 ~ 2 FND_OFF
	ZigBee_Read();								// ZigBee ╝│┴ν░ς └╨▒έ
//-------------------------------------------------------------------------------------------------
	while(SET.Menu)								// ╕▐┤║░κ 1 └╠╕ώ ╣▌║╣
    7912:	49 c1       	rjmp	.+658    	; 0x7ba6 <ZigBee_Set+0x2b2>
	{
		if(KEY.Buff)							// Key └╘╖┬└╠ └╓└╕╕ώ
    7914:	80 91 81 42 	lds	r24, 0x4281	; 0x804281 <KEY+0x1>
    7918:	88 23       	and	r24, r24
    791a:	99 f0       	breq	.+38     	; 0x7942 <ZigBee_Set+0x4e>
		{
			if     (KEY.Key == 1 && Count < 3) {Count++; KEY.Key = 0;}	// ╛≈  ╣÷╞░ └╠╕ώ Count ┴Ϋ░κ
    791c:	80 91 82 42 	lds	r24, 0x4282	; 0x804282 <KEY+0x2>
    7920:	81 30       	cpi	r24, 0x01	; 1
    7922:	31 f4       	brne	.+12     	; 0x7930 <ZigBee_Set+0x3c>
    7924:	c3 30       	cpi	r28, 0x03	; 3
    7926:	20 f4       	brcc	.+8      	; 0x7930 <ZigBee_Set+0x3c>
    7928:	cf 5f       	subi	r28, 0xFF	; 255
    792a:	10 92 82 42 	sts	0x4282, r1	; 0x804282 <KEY+0x2>
    792e:	09 c0       	rjmp	.+18     	; 0x7942 <ZigBee_Set+0x4e>
			else if(KEY.Key == 3 && Count > 0) {Count--; KEY.Key = 0;}	// ┤┘┐Ό╣÷╞░ └╠╕ώ Count ░ρ╝╥
    7930:	80 91 82 42 	lds	r24, 0x4282	; 0x804282 <KEY+0x2>
    7934:	83 30       	cpi	r24, 0x03	; 3
    7936:	29 f4       	brne	.+10     	; 0x7942 <ZigBee_Set+0x4e>
    7938:	cc 23       	and	r28, r28
    793a:	19 f0       	breq	.+6      	; 0x7942 <ZigBee_Set+0x4e>
    793c:	c1 50       	subi	r28, 0x01	; 1
    793e:	10 92 82 42 	sts	0x4282, r1	; 0x804282 <KEY+0x2>
		}
		DIGIT[2][0] = fnd_tbl[Count];					// FND 2.0 ┐κ Count ╟ξ╜├
    7942:	ec 2f       	mov	r30, r28
    7944:	f0 e0       	ldi	r31, 0x00	; 0
    7946:	e5 5c       	subi	r30, 0xC5	; 197
    7948:	fe 4b       	sbci	r31, 0xBE	; 190
    794a:	80 81       	ld	r24, Z
    794c:	80 93 77 41 	sts	0x4177, r24	; 0x804177 <DIGIT+0x8>

		switch(Count)							// Count
    7950:	c1 30       	cpi	r28, 0x01	; 1
    7952:	41 f0       	breq	.+16     	; 0x7964 <ZigBee_Set+0x70>
    7954:	08 f4       	brcc	.+2      	; 0x7958 <ZigBee_Set+0x64>
    7956:	24 c1       	rjmp	.+584    	; 0x7ba0 <ZigBee_Set+0x2ac>
    7958:	c2 30       	cpi	r28, 0x02	; 2
    795a:	b9 f1       	breq	.+110    	; 0x79ca <ZigBee_Set+0xd6>
    795c:	c3 30       	cpi	r28, 0x03	; 3
    795e:	09 f4       	brne	.+2      	; 0x7962 <ZigBee_Set+0x6e>
    7960:	1d c1       	rjmp	.+570    	; 0x7b9c <ZigBee_Set+0x2a8>
    7962:	1f c1       	rjmp	.+574    	; 0x7ba2 <ZigBee_Set+0x2ae>
			case 0:							// Count = 0 └╠╕ώ
				Count = 2;					// ╣▌║╣└╗ └π╟╪ Count╕ο ├╓░Ί╖╬ ┴Ϋ░κ ╜├┼┤
			break;

			case 1:							// Count = 1 └╠╕ώ
				DIGIT[0][3] = FND_Z;				// FND 0 ┐κ Z-ch ╟ξ╜├
    7964:	ef e6       	ldi	r30, 0x6F	; 111
    7966:	f1 e4       	ldi	r31, 0x41	; 65
    7968:	8a ed       	ldi	r24, 0xDA	; 218
    796a:	83 83       	std	Z+3, r24	; 0x03
				DIGIT[0][2] = FND_MINUS;
    796c:	82 e0       	ldi	r24, 0x02	; 2
    796e:	82 83       	std	Z+2, r24	; 0x02
				DIGIT[0][1] = FND_c;
    7970:	8a e1       	ldi	r24, 0x1A	; 26
    7972:	81 83       	std	Z+1, r24	; 0x01
				DIGIT[0][0] = FND_h;
    7974:	8e e2       	ldi	r24, 0x2E	; 46
    7976:	80 83       	st	Z, r24

				DIGIT[1][3] = FND_OFF;				// FND 2 ┐κ ZigBee ├ν│╬ ╟ξ╜├
    7978:	17 82       	std	Z+7, r1	; 0x07
				DIGIT[1][2] = FND_OFF;
    797a:	16 82       	std	Z+6, r1	; 0x06
				DIGIT[1][1] = fnd_tbl[ZB_ch / 10];
    797c:	40 91 d7 41 	lds	r20, 0x41D7	; 0x8041d7 <ZB_ch>
    7980:	8d ec       	ldi	r24, 0xCD	; 205
    7982:	48 9f       	mul	r20, r24
    7984:	81 2d       	mov	r24, r1
    7986:	11 24       	eor	r1, r1
    7988:	86 95       	lsr	r24
    798a:	86 95       	lsr	r24
    798c:	86 95       	lsr	r24
    798e:	28 2f       	mov	r18, r24
    7990:	30 e0       	ldi	r19, 0x00	; 0
    7992:	25 5c       	subi	r18, 0xC5	; 197
    7994:	3e 4b       	sbci	r19, 0xBE	; 190
    7996:	d9 01       	movw	r26, r18
    7998:	9c 91       	ld	r25, X
    799a:	95 83       	std	Z+5, r25	; 0x05
				DIGIT[1][0] = fnd_tbl[ZB_ch % 10];
    799c:	88 0f       	add	r24, r24
    799e:	98 2f       	mov	r25, r24
    79a0:	99 0f       	add	r25, r25
    79a2:	99 0f       	add	r25, r25
    79a4:	89 0f       	add	r24, r25
    79a6:	a4 2f       	mov	r26, r20
    79a8:	a8 1b       	sub	r26, r24
    79aa:	b0 e0       	ldi	r27, 0x00	; 0
    79ac:	a5 5c       	subi	r26, 0xC5	; 197
    79ae:	be 4b       	sbci	r27, 0xBE	; 190
    79b0:	8c 91       	ld	r24, X
    79b2:	84 83       	std	Z+4, r24	; 0x04

				DIGIT[2][3] = FND_OFF;				// FND 2 1~3 OFF
    79b4:	13 86       	std	Z+11, r1	; 0x0b
				DIGIT[2][2] = FND_OFF;
    79b6:	12 86       	std	Z+10, r1	; 0x0a
				DIGIT[2][1] = FND_OFF;
    79b8:	11 86       	std	Z+9, r1	; 0x09

				if(SET.Select) {ZigBee_Channel_Write();}	// ZigBee ├ν│╬ ╝│┴ν
    79ba:	80 91 06 42 	lds	r24, 0x4206	; 0x804206 <SET+0x1>
    79be:	88 23       	and	r24, r24
    79c0:	09 f4       	brne	.+2      	; 0x79c4 <ZigBee_Set+0xd0>
    79c2:	ef c0       	rjmp	.+478    	; 0x7ba2 <ZigBee_Set+0x2ae>
    79c4:	0e 94 ca 3a 	call	0x7594	; 0x7594 <ZigBee_Channel_Write>
    79c8:	ec c0       	rjmp	.+472    	; 0x7ba2 <ZigBee_Set+0x2ae>
			break;

			case 2:							// Count = 2 └╠╕ώ
				DIGIT[0][3] = FND_Z;				// FND 0 ┐κ Z-Id ╟ξ╜├
    79ca:	ef e6       	ldi	r30, 0x6F	; 111
    79cc:	f1 e4       	ldi	r31, 0x41	; 65
    79ce:	8a ed       	ldi	r24, 0xDA	; 218
    79d0:	83 83       	std	Z+3, r24	; 0x03
				DIGIT[0][2] = FND_MINUS;
    79d2:	82 e0       	ldi	r24, 0x02	; 2
    79d4:	82 83       	std	Z+2, r24	; 0x02
				DIGIT[0][1] = FND_I;
    79d6:	80 e6       	ldi	r24, 0x60	; 96
    79d8:	81 83       	std	Z+1, r24	; 0x01
				DIGIT[0][0] = FND_d;
    79da:	8a e7       	ldi	r24, 0x7A	; 122
    79dc:	80 83       	st	Z, r24

				ZB_id = (Pan_id_1000 * 4096) + (Pan_id_100 * 256) + (Pan_id_10 * 16) + Pan_id_1;	// ZigBee PanID ░ϋ╗Ά
    79de:	40 91 7d 42 	lds	r20, 0x427D	; 0x80427d <Pan_id_1000>
    79e2:	50 91 7e 42 	lds	r21, 0x427E	; 0x80427e <Pan_id_1000+0x1>
    79e6:	42 95       	swap	r20
    79e8:	52 95       	swap	r21
    79ea:	50 7f       	andi	r21, 0xF0	; 240
    79ec:	54 27       	eor	r21, r20
    79ee:	40 7f       	andi	r20, 0xF0	; 240
    79f0:	54 27       	eor	r21, r20
    79f2:	80 91 a7 41 	lds	r24, 0x41A7	; 0x8041a7 <Pan_id_100>
    79f6:	90 91 a8 41 	lds	r25, 0x41A8	; 0x8041a8 <Pan_id_100+0x1>
    79fa:	48 0f       	add	r20, r24
    79fc:	59 1f       	adc	r21, r25
    79fe:	42 95       	swap	r20
    7a00:	52 95       	swap	r21
    7a02:	50 7f       	andi	r21, 0xF0	; 240
    7a04:	54 27       	eor	r21, r20
    7a06:	40 7f       	andi	r20, 0xF0	; 240
    7a08:	54 27       	eor	r21, r20
    7a0a:	80 91 03 42 	lds	r24, 0x4203	; 0x804203 <Pan_id_10>
    7a0e:	90 91 04 42 	lds	r25, 0x4204	; 0x804204 <Pan_id_10+0x1>
    7a12:	48 0f       	add	r20, r24
    7a14:	59 1f       	adc	r21, r25
    7a16:	42 95       	swap	r20
    7a18:	52 95       	swap	r21
    7a1a:	50 7f       	andi	r21, 0xF0	; 240
    7a1c:	54 27       	eor	r21, r20
    7a1e:	40 7f       	andi	r20, 0xF0	; 240
    7a20:	54 27       	eor	r21, r20
    7a22:	80 91 d8 41 	lds	r24, 0x41D8	; 0x8041d8 <Pan_id_1>
    7a26:	90 91 d9 41 	lds	r25, 0x41D9	; 0x8041d9 <Pan_id_1+0x1>
    7a2a:	48 0f       	add	r20, r24
    7a2c:	59 1f       	adc	r21, r25
    7a2e:	40 93 9d 42 	sts	0x429D, r20	; 0x80429d <ZB_id>
    7a32:	50 93 9e 42 	sts	0x429E, r21	; 0x80429e <ZB_id+0x1>
				DIGIT[1][3] = fnd_tbl[ZB_id / 10000];		// FND 1 ┐κ ZigBee PanID 1000~10└╟ └┌╕χ ╟ξ╜├
    7a36:	7a 01       	movw	r14, r20
    7a38:	f6 94       	lsr	r15
    7a3a:	e7 94       	ror	r14
    7a3c:	f6 94       	lsr	r15
    7a3e:	e7 94       	ror	r14
    7a40:	f6 94       	lsr	r15
    7a42:	e7 94       	ror	r14
    7a44:	f6 94       	lsr	r15
    7a46:	e7 94       	ror	r14
    7a48:	97 01       	movw	r18, r14
    7a4a:	a7 e4       	ldi	r26, 0x47	; 71
    7a4c:	b3 e0       	ldi	r27, 0x03	; 3
    7a4e:	0e 94 43 44 	call	0x8886	; 0x8886 <__umulhisi3>
    7a52:	8c 01       	movw	r16, r24
    7a54:	16 95       	lsr	r17
    7a56:	07 95       	ror	r16
    7a58:	16 95       	lsr	r17
    7a5a:	07 95       	ror	r16
    7a5c:	16 95       	lsr	r17
    7a5e:	07 95       	ror	r16
    7a60:	d8 01       	movw	r26, r16
    7a62:	a5 5c       	subi	r26, 0xC5	; 197
    7a64:	be 4b       	sbci	r27, 0xBE	; 190
    7a66:	8c 91       	ld	r24, X
    7a68:	87 83       	std	Z+7, r24	; 0x07
				DIGIT[1][2] = fnd_tbl[ZB_id % 10000 / 1000];
    7a6a:	20 e1       	ldi	r18, 0x10	; 16
    7a6c:	37 e2       	ldi	r19, 0x27	; 39
    7a6e:	02 9f       	mul	r16, r18
    7a70:	c0 01       	movw	r24, r0
    7a72:	03 9f       	mul	r16, r19
    7a74:	90 0d       	add	r25, r0
    7a76:	12 9f       	mul	r17, r18
    7a78:	90 0d       	add	r25, r0
    7a7a:	11 24       	eor	r1, r1
    7a7c:	9a 01       	movw	r18, r20
    7a7e:	28 1b       	sub	r18, r24
    7a80:	39 0b       	sbc	r19, r25
    7a82:	36 95       	lsr	r19
    7a84:	27 95       	ror	r18
    7a86:	36 95       	lsr	r19
    7a88:	27 95       	ror	r18
    7a8a:	36 95       	lsr	r19
    7a8c:	27 95       	ror	r18
    7a8e:	a5 ec       	ldi	r26, 0xC5	; 197
    7a90:	b0 e2       	ldi	r27, 0x20	; 32
    7a92:	0e 94 43 44 	call	0x8886	; 0x8886 <__umulhisi3>
    7a96:	92 95       	swap	r25
    7a98:	82 95       	swap	r24
    7a9a:	8f 70       	andi	r24, 0x0F	; 15
    7a9c:	89 27       	eor	r24, r25
    7a9e:	9f 70       	andi	r25, 0x0F	; 15
    7aa0:	89 27       	eor	r24, r25
    7aa2:	dc 01       	movw	r26, r24
    7aa4:	a5 5c       	subi	r26, 0xC5	; 197
    7aa6:	be 4b       	sbci	r27, 0xBE	; 190
    7aa8:	8c 91       	ld	r24, X
    7aaa:	86 83       	std	Z+6, r24	; 0x06
				DIGIT[1][1] = fnd_tbl[ZB_id % 1000 / 100];
    7aac:	9a 01       	movw	r18, r20
    7aae:	36 95       	lsr	r19
    7ab0:	27 95       	ror	r18
    7ab2:	36 95       	lsr	r19
    7ab4:	27 95       	ror	r18
    7ab6:	36 95       	lsr	r19
    7ab8:	27 95       	ror	r18
    7aba:	a5 ec       	ldi	r26, 0xC5	; 197
    7abc:	b0 e2       	ldi	r27, 0x20	; 32
    7abe:	0e 94 43 44 	call	0x8886	; 0x8886 <__umulhisi3>
    7ac2:	92 95       	swap	r25
    7ac4:	82 95       	swap	r24
    7ac6:	8f 70       	andi	r24, 0x0F	; 15
    7ac8:	89 27       	eor	r24, r25
    7aca:	9f 70       	andi	r25, 0x0F	; 15
    7acc:	89 27       	eor	r24, r25
    7ace:	68 ee       	ldi	r22, 0xE8	; 232
    7ad0:	73 e0       	ldi	r23, 0x03	; 3
    7ad2:	86 9f       	mul	r24, r22
    7ad4:	90 01       	movw	r18, r0
    7ad6:	87 9f       	mul	r24, r23
    7ad8:	30 0d       	add	r19, r0
    7ada:	96 9f       	mul	r25, r22
    7adc:	30 0d       	add	r19, r0
    7ade:	11 24       	eor	r1, r1
    7ae0:	ca 01       	movw	r24, r20
    7ae2:	82 1b       	sub	r24, r18
    7ae4:	93 0b       	sbc	r25, r19
    7ae6:	9c 01       	movw	r18, r24
    7ae8:	36 95       	lsr	r19
    7aea:	27 95       	ror	r18
    7aec:	36 95       	lsr	r19
    7aee:	27 95       	ror	r18
    7af0:	ab e7       	ldi	r26, 0x7B	; 123
    7af2:	b4 e1       	ldi	r27, 0x14	; 20
    7af4:	0e 94 43 44 	call	0x8886	; 0x8886 <__umulhisi3>
    7af8:	96 95       	lsr	r25
    7afa:	87 95       	ror	r24
    7afc:	dc 01       	movw	r26, r24
    7afe:	a5 5c       	subi	r26, 0xC5	; 197
    7b00:	be 4b       	sbci	r27, 0xBE	; 190
    7b02:	8c 91       	ld	r24, X
    7b04:	85 83       	std	Z+5, r24	; 0x05
				DIGIT[1][0] = fnd_tbl[ZB_id % 100 / 10];
    7b06:	9a 01       	movw	r18, r20
    7b08:	36 95       	lsr	r19
    7b0a:	27 95       	ror	r18
    7b0c:	36 95       	lsr	r19
    7b0e:	27 95       	ror	r18
    7b10:	ab e7       	ldi	r26, 0x7B	; 123
    7b12:	b4 e1       	ldi	r27, 0x14	; 20
    7b14:	0e 94 43 44 	call	0x8886	; 0x8886 <__umulhisi3>
    7b18:	9c 01       	movw	r18, r24
    7b1a:	36 95       	lsr	r19
    7b1c:	27 95       	ror	r18
    7b1e:	64 e6       	ldi	r22, 0x64	; 100
    7b20:	62 9f       	mul	r22, r18
    7b22:	c0 01       	movw	r24, r0
    7b24:	63 9f       	mul	r22, r19
    7b26:	90 0d       	add	r25, r0
    7b28:	11 24       	eor	r1, r1
    7b2a:	9a 01       	movw	r18, r20
    7b2c:	28 1b       	sub	r18, r24
    7b2e:	39 0b       	sbc	r19, r25
    7b30:	ad ec       	ldi	r26, 0xCD	; 205
    7b32:	bc ec       	ldi	r27, 0xCC	; 204
    7b34:	0e 94 43 44 	call	0x8886	; 0x8886 <__umulhisi3>
    7b38:	96 95       	lsr	r25
    7b3a:	87 95       	ror	r24
    7b3c:	96 95       	lsr	r25
    7b3e:	87 95       	ror	r24
    7b40:	96 95       	lsr	r25
    7b42:	87 95       	ror	r24
    7b44:	dc 01       	movw	r26, r24
    7b46:	a5 5c       	subi	r26, 0xC5	; 197
    7b48:	be 4b       	sbci	r27, 0xBE	; 190
    7b4a:	8c 91       	ld	r24, X
    7b4c:	84 83       	std	Z+4, r24	; 0x04

				DIGIT[2][3] = fnd_tbl[ZB_id % 10];		// FND 1 ┐κ ZigBee PanID 1└╟ └┌╕χ ╟ξ╜├
    7b4e:	9a 01       	movw	r18, r20
    7b50:	ad ec       	ldi	r26, 0xCD	; 205
    7b52:	bc ec       	ldi	r27, 0xCC	; 204
    7b54:	0e 94 43 44 	call	0x8886	; 0x8886 <__umulhisi3>
    7b58:	96 95       	lsr	r25
    7b5a:	87 95       	ror	r24
    7b5c:	96 95       	lsr	r25
    7b5e:	87 95       	ror	r24
    7b60:	96 95       	lsr	r25
    7b62:	87 95       	ror	r24
    7b64:	9c 01       	movw	r18, r24
    7b66:	22 0f       	add	r18, r18
    7b68:	33 1f       	adc	r19, r19
    7b6a:	88 0f       	add	r24, r24
    7b6c:	99 1f       	adc	r25, r25
    7b6e:	88 0f       	add	r24, r24
    7b70:	99 1f       	adc	r25, r25
    7b72:	88 0f       	add	r24, r24
    7b74:	99 1f       	adc	r25, r25
    7b76:	82 0f       	add	r24, r18
    7b78:	93 1f       	adc	r25, r19
    7b7a:	9a 01       	movw	r18, r20
    7b7c:	28 1b       	sub	r18, r24
    7b7e:	39 0b       	sbc	r19, r25
    7b80:	d9 01       	movw	r26, r18
    7b82:	a5 5c       	subi	r26, 0xC5	; 197
    7b84:	be 4b       	sbci	r27, 0xBE	; 190
    7b86:	8c 91       	ld	r24, X
    7b88:	83 87       	std	Z+11, r24	; 0x0b
				DIGIT[2][2] = FND_OFF;
    7b8a:	12 86       	std	Z+10, r1	; 0x0a
				DIGIT[2][1] = FND_OFF;
    7b8c:	11 86       	std	Z+9, r1	; 0x09

				if(SET.Select) {ZigBee_PanID_Write();}		// ZigBee PanID ╝│┴ν
    7b8e:	80 91 06 42 	lds	r24, 0x4206	; 0x804206 <SET+0x1>
    7b92:	88 23       	and	r24, r24
    7b94:	31 f0       	breq	.+12     	; 0x7ba2 <ZigBee_Set+0x2ae>
    7b96:	0e 94 28 37 	call	0x6e50	; 0x6e50 <ZigBee_PanID_Write>
    7b9a:	03 c0       	rjmp	.+6      	; 0x7ba2 <ZigBee_Set+0x2ae>
			break;

			case 3:							// Count = 3 └╠╕ώ
				Count = 1;					// ╣▌║╣└╗ └π╟╪ Count╕ο ├╓└·╖╬ ░ρ╝╥ ╜├┼┤
    7b9c:	c1 e0       	ldi	r28, 0x01	; 1
			break;
    7b9e:	01 c0       	rjmp	.+2      	; 0x7ba2 <ZigBee_Set+0x2ae>
		DIGIT[2][0] = fnd_tbl[Count];					// FND 2.0 ┐κ Count ╟ξ╜├

		switch(Count)							// Count
		{
			case 0:							// Count = 0 └╠╕ώ
				Count = 2;					// ╣▌║╣└╗ └π╟╪ Count╕ο ├╓░Ί╖╬ ┴Ϋ░κ ╜├┼┤
    7ba0:	c2 e0       	ldi	r28, 0x02	; 2

			case 3:							// Count = 3 └╠╕ώ
				Count = 1;					// ╣▌║╣└╗ └π╟╪ Count╕ο ├╓└·╖╬ ░ρ╝╥ ╜├┼┤
			break;
		}
		wdt_reset();							// ┐÷─κ╡╢ ╕χ╝┬
    7ba2:	0e 94 ef 0c 	call	0x19de	; 0x19de <wdt_reset>
	uint8_t Count = 1;							// ─τ┐Ό╞χ ║ψ╝÷ ├╩▒έ╚φ
	SET.Select = 0;								// Select ╣÷╞░ ├╩▒έ╚φ
	FND_Value_Data(0, 2, 12);						// FND 0 ~ 2 FND_OFF
	ZigBee_Read();								// ZigBee ╝│┴ν░ς └╨▒έ
//-------------------------------------------------------------------------------------------------
	while(SET.Menu)								// ╕▐┤║░κ 1 └╠╕ώ ╣▌║╣
    7ba6:	80 91 05 42 	lds	r24, 0x4205	; 0x804205 <SET>
    7baa:	81 11       	cpse	r24, r1
    7bac:	b3 ce       	rjmp	.-666    	; 0x7914 <ZigBee_Set+0x20>
				Count = 1;					// ╣▌║╣└╗ └π╟╪ Count╕ο ├╓└·╖╬ ░ρ╝╥ ╜├┼┤
			break;
		}
		wdt_reset();							// ┐÷─κ╡╢ ╕χ╝┬
	}
}
    7bae:	cf 91       	pop	r28
    7bb0:	1f 91       	pop	r17
    7bb2:	0f 91       	pop	r16
    7bb4:	ff 90       	pop	r15
    7bb6:	ef 90       	pop	r14
    7bb8:	08 95       	ret

00007bba <__subsf3>:
    7bba:	50 58       	subi	r21, 0x80	; 128

00007bbc <__addsf3>:
    7bbc:	bb 27       	eor	r27, r27
    7bbe:	aa 27       	eor	r26, r26
    7bc0:	0e 94 f5 3d 	call	0x7bea	; 0x7bea <__addsf3x>
    7bc4:	0c 94 ad 3f 	jmp	0x7f5a	; 0x7f5a <__fp_round>
    7bc8:	0e 94 9f 3f 	call	0x7f3e	; 0x7f3e <__fp_pscA>
    7bcc:	38 f0       	brcs	.+14     	; 0x7bdc <__addsf3+0x20>
    7bce:	0e 94 a6 3f 	call	0x7f4c	; 0x7f4c <__fp_pscB>
    7bd2:	20 f0       	brcs	.+8      	; 0x7bdc <__addsf3+0x20>
    7bd4:	39 f4       	brne	.+14     	; 0x7be4 <__addsf3+0x28>
    7bd6:	9f 3f       	cpi	r25, 0xFF	; 255
    7bd8:	19 f4       	brne	.+6      	; 0x7be0 <__addsf3+0x24>
    7bda:	26 f4       	brtc	.+8      	; 0x7be4 <__addsf3+0x28>
    7bdc:	0c 94 9c 3f 	jmp	0x7f38	; 0x7f38 <__fp_nan>
    7be0:	0e f4       	brtc	.+2      	; 0x7be4 <__addsf3+0x28>
    7be2:	e0 95       	com	r30
    7be4:	e7 fb       	bst	r30, 7
    7be6:	0c 94 96 3f 	jmp	0x7f2c	; 0x7f2c <__fp_inf>

00007bea <__addsf3x>:
    7bea:	e9 2f       	mov	r30, r25
    7bec:	0e 94 be 3f 	call	0x7f7c	; 0x7f7c <__fp_split3>
    7bf0:	58 f3       	brcs	.-42     	; 0x7bc8 <__addsf3+0xc>
    7bf2:	ba 17       	cp	r27, r26
    7bf4:	62 07       	cpc	r22, r18
    7bf6:	73 07       	cpc	r23, r19
    7bf8:	84 07       	cpc	r24, r20
    7bfa:	95 07       	cpc	r25, r21
    7bfc:	20 f0       	brcs	.+8      	; 0x7c06 <__addsf3x+0x1c>
    7bfe:	79 f4       	brne	.+30     	; 0x7c1e <__addsf3x+0x34>
    7c00:	a6 f5       	brtc	.+104    	; 0x7c6a <__addsf3x+0x80>
    7c02:	0c 94 e0 3f 	jmp	0x7fc0	; 0x7fc0 <__fp_zero>
    7c06:	0e f4       	brtc	.+2      	; 0x7c0a <__addsf3x+0x20>
    7c08:	e0 95       	com	r30
    7c0a:	0b 2e       	mov	r0, r27
    7c0c:	ba 2f       	mov	r27, r26
    7c0e:	a0 2d       	mov	r26, r0
    7c10:	0b 01       	movw	r0, r22
    7c12:	b9 01       	movw	r22, r18
    7c14:	90 01       	movw	r18, r0
    7c16:	0c 01       	movw	r0, r24
    7c18:	ca 01       	movw	r24, r20
    7c1a:	a0 01       	movw	r20, r0
    7c1c:	11 24       	eor	r1, r1
    7c1e:	ff 27       	eor	r31, r31
    7c20:	59 1b       	sub	r21, r25
    7c22:	99 f0       	breq	.+38     	; 0x7c4a <__addsf3x+0x60>
    7c24:	59 3f       	cpi	r21, 0xF9	; 249
    7c26:	50 f4       	brcc	.+20     	; 0x7c3c <__addsf3x+0x52>
    7c28:	50 3e       	cpi	r21, 0xE0	; 224
    7c2a:	68 f1       	brcs	.+90     	; 0x7c86 <__addsf3x+0x9c>
    7c2c:	1a 16       	cp	r1, r26
    7c2e:	f0 40       	sbci	r31, 0x00	; 0
    7c30:	a2 2f       	mov	r26, r18
    7c32:	23 2f       	mov	r18, r19
    7c34:	34 2f       	mov	r19, r20
    7c36:	44 27       	eor	r20, r20
    7c38:	58 5f       	subi	r21, 0xF8	; 248
    7c3a:	f3 cf       	rjmp	.-26     	; 0x7c22 <__addsf3x+0x38>
    7c3c:	46 95       	lsr	r20
    7c3e:	37 95       	ror	r19
    7c40:	27 95       	ror	r18
    7c42:	a7 95       	ror	r26
    7c44:	f0 40       	sbci	r31, 0x00	; 0
    7c46:	53 95       	inc	r21
    7c48:	c9 f7       	brne	.-14     	; 0x7c3c <__addsf3x+0x52>
    7c4a:	7e f4       	brtc	.+30     	; 0x7c6a <__addsf3x+0x80>
    7c4c:	1f 16       	cp	r1, r31
    7c4e:	ba 0b       	sbc	r27, r26
    7c50:	62 0b       	sbc	r22, r18
    7c52:	73 0b       	sbc	r23, r19
    7c54:	84 0b       	sbc	r24, r20
    7c56:	ba f0       	brmi	.+46     	; 0x7c86 <__addsf3x+0x9c>
    7c58:	91 50       	subi	r25, 0x01	; 1
    7c5a:	a1 f0       	breq	.+40     	; 0x7c84 <__addsf3x+0x9a>
    7c5c:	ff 0f       	add	r31, r31
    7c5e:	bb 1f       	adc	r27, r27
    7c60:	66 1f       	adc	r22, r22
    7c62:	77 1f       	adc	r23, r23
    7c64:	88 1f       	adc	r24, r24
    7c66:	c2 f7       	brpl	.-16     	; 0x7c58 <__addsf3x+0x6e>
    7c68:	0e c0       	rjmp	.+28     	; 0x7c86 <__addsf3x+0x9c>
    7c6a:	ba 0f       	add	r27, r26
    7c6c:	62 1f       	adc	r22, r18
    7c6e:	73 1f       	adc	r23, r19
    7c70:	84 1f       	adc	r24, r20
    7c72:	48 f4       	brcc	.+18     	; 0x7c86 <__addsf3x+0x9c>
    7c74:	87 95       	ror	r24
    7c76:	77 95       	ror	r23
    7c78:	67 95       	ror	r22
    7c7a:	b7 95       	ror	r27
    7c7c:	f7 95       	ror	r31
    7c7e:	9e 3f       	cpi	r25, 0xFE	; 254
    7c80:	08 f0       	brcs	.+2      	; 0x7c84 <__addsf3x+0x9a>
    7c82:	b0 cf       	rjmp	.-160    	; 0x7be4 <__addsf3+0x28>
    7c84:	93 95       	inc	r25
    7c86:	88 0f       	add	r24, r24
    7c88:	08 f0       	brcs	.+2      	; 0x7c8c <__addsf3x+0xa2>
    7c8a:	99 27       	eor	r25, r25
    7c8c:	ee 0f       	add	r30, r30
    7c8e:	97 95       	ror	r25
    7c90:	87 95       	ror	r24
    7c92:	08 95       	ret

00007c94 <__cmpsf2>:
    7c94:	0e 94 72 3f 	call	0x7ee4	; 0x7ee4 <__fp_cmp>
    7c98:	08 f4       	brcc	.+2      	; 0x7c9c <__cmpsf2+0x8>
    7c9a:	81 e0       	ldi	r24, 0x01	; 1
    7c9c:	08 95       	ret

00007c9e <__divsf3>:
    7c9e:	0e 94 63 3e 	call	0x7cc6	; 0x7cc6 <__divsf3x>
    7ca2:	0c 94 ad 3f 	jmp	0x7f5a	; 0x7f5a <__fp_round>
    7ca6:	0e 94 a6 3f 	call	0x7f4c	; 0x7f4c <__fp_pscB>
    7caa:	58 f0       	brcs	.+22     	; 0x7cc2 <__divsf3+0x24>
    7cac:	0e 94 9f 3f 	call	0x7f3e	; 0x7f3e <__fp_pscA>
    7cb0:	40 f0       	brcs	.+16     	; 0x7cc2 <__divsf3+0x24>
    7cb2:	29 f4       	brne	.+10     	; 0x7cbe <__divsf3+0x20>
    7cb4:	5f 3f       	cpi	r21, 0xFF	; 255
    7cb6:	29 f0       	breq	.+10     	; 0x7cc2 <__divsf3+0x24>
    7cb8:	0c 94 96 3f 	jmp	0x7f2c	; 0x7f2c <__fp_inf>
    7cbc:	51 11       	cpse	r21, r1
    7cbe:	0c 94 e1 3f 	jmp	0x7fc2	; 0x7fc2 <__fp_szero>
    7cc2:	0c 94 9c 3f 	jmp	0x7f38	; 0x7f38 <__fp_nan>

00007cc6 <__divsf3x>:
    7cc6:	0e 94 be 3f 	call	0x7f7c	; 0x7f7c <__fp_split3>
    7cca:	68 f3       	brcs	.-38     	; 0x7ca6 <__divsf3+0x8>

00007ccc <__divsf3_pse>:
    7ccc:	99 23       	and	r25, r25
    7cce:	b1 f3       	breq	.-20     	; 0x7cbc <__divsf3+0x1e>
    7cd0:	55 23       	and	r21, r21
    7cd2:	91 f3       	breq	.-28     	; 0x7cb8 <__divsf3+0x1a>
    7cd4:	95 1b       	sub	r25, r21
    7cd6:	55 0b       	sbc	r21, r21
    7cd8:	bb 27       	eor	r27, r27
    7cda:	aa 27       	eor	r26, r26
    7cdc:	62 17       	cp	r22, r18
    7cde:	73 07       	cpc	r23, r19
    7ce0:	84 07       	cpc	r24, r20
    7ce2:	38 f0       	brcs	.+14     	; 0x7cf2 <__divsf3_pse+0x26>
    7ce4:	9f 5f       	subi	r25, 0xFF	; 255
    7ce6:	5f 4f       	sbci	r21, 0xFF	; 255
    7ce8:	22 0f       	add	r18, r18
    7cea:	33 1f       	adc	r19, r19
    7cec:	44 1f       	adc	r20, r20
    7cee:	aa 1f       	adc	r26, r26
    7cf0:	a9 f3       	breq	.-22     	; 0x7cdc <__divsf3_pse+0x10>
    7cf2:	35 d0       	rcall	.+106    	; 0x7d5e <__divsf3_pse+0x92>
    7cf4:	0e 2e       	mov	r0, r30
    7cf6:	3a f0       	brmi	.+14     	; 0x7d06 <__divsf3_pse+0x3a>
    7cf8:	e0 e8       	ldi	r30, 0x80	; 128
    7cfa:	32 d0       	rcall	.+100    	; 0x7d60 <__divsf3_pse+0x94>
    7cfc:	91 50       	subi	r25, 0x01	; 1
    7cfe:	50 40       	sbci	r21, 0x00	; 0
    7d00:	e6 95       	lsr	r30
    7d02:	00 1c       	adc	r0, r0
    7d04:	ca f7       	brpl	.-14     	; 0x7cf8 <__divsf3_pse+0x2c>
    7d06:	2b d0       	rcall	.+86     	; 0x7d5e <__divsf3_pse+0x92>
    7d08:	fe 2f       	mov	r31, r30
    7d0a:	29 d0       	rcall	.+82     	; 0x7d5e <__divsf3_pse+0x92>
    7d0c:	66 0f       	add	r22, r22
    7d0e:	77 1f       	adc	r23, r23
    7d10:	88 1f       	adc	r24, r24
    7d12:	bb 1f       	adc	r27, r27
    7d14:	26 17       	cp	r18, r22
    7d16:	37 07       	cpc	r19, r23
    7d18:	48 07       	cpc	r20, r24
    7d1a:	ab 07       	cpc	r26, r27
    7d1c:	b0 e8       	ldi	r27, 0x80	; 128
    7d1e:	09 f0       	breq	.+2      	; 0x7d22 <__divsf3_pse+0x56>
    7d20:	bb 0b       	sbc	r27, r27
    7d22:	80 2d       	mov	r24, r0
    7d24:	bf 01       	movw	r22, r30
    7d26:	ff 27       	eor	r31, r31
    7d28:	93 58       	subi	r25, 0x83	; 131
    7d2a:	5f 4f       	sbci	r21, 0xFF	; 255
    7d2c:	3a f0       	brmi	.+14     	; 0x7d3c <__divsf3_pse+0x70>
    7d2e:	9e 3f       	cpi	r25, 0xFE	; 254
    7d30:	51 05       	cpc	r21, r1
    7d32:	78 f0       	brcs	.+30     	; 0x7d52 <__divsf3_pse+0x86>
    7d34:	0c 94 96 3f 	jmp	0x7f2c	; 0x7f2c <__fp_inf>
    7d38:	0c 94 e1 3f 	jmp	0x7fc2	; 0x7fc2 <__fp_szero>
    7d3c:	5f 3f       	cpi	r21, 0xFF	; 255
    7d3e:	e4 f3       	brlt	.-8      	; 0x7d38 <__divsf3_pse+0x6c>
    7d40:	98 3e       	cpi	r25, 0xE8	; 232
    7d42:	d4 f3       	brlt	.-12     	; 0x7d38 <__divsf3_pse+0x6c>
    7d44:	86 95       	lsr	r24
    7d46:	77 95       	ror	r23
    7d48:	67 95       	ror	r22
    7d4a:	b7 95       	ror	r27
    7d4c:	f7 95       	ror	r31
    7d4e:	9f 5f       	subi	r25, 0xFF	; 255
    7d50:	c9 f7       	brne	.-14     	; 0x7d44 <__divsf3_pse+0x78>
    7d52:	88 0f       	add	r24, r24
    7d54:	91 1d       	adc	r25, r1
    7d56:	96 95       	lsr	r25
    7d58:	87 95       	ror	r24
    7d5a:	97 f9       	bld	r25, 7
    7d5c:	08 95       	ret
    7d5e:	e1 e0       	ldi	r30, 0x01	; 1
    7d60:	66 0f       	add	r22, r22
    7d62:	77 1f       	adc	r23, r23
    7d64:	88 1f       	adc	r24, r24
    7d66:	bb 1f       	adc	r27, r27
    7d68:	62 17       	cp	r22, r18
    7d6a:	73 07       	cpc	r23, r19
    7d6c:	84 07       	cpc	r24, r20
    7d6e:	ba 07       	cpc	r27, r26
    7d70:	20 f0       	brcs	.+8      	; 0x7d7a <__divsf3_pse+0xae>
    7d72:	62 1b       	sub	r22, r18
    7d74:	73 0b       	sbc	r23, r19
    7d76:	84 0b       	sbc	r24, r20
    7d78:	ba 0b       	sbc	r27, r26
    7d7a:	ee 1f       	adc	r30, r30
    7d7c:	88 f7       	brcc	.-30     	; 0x7d60 <__divsf3_pse+0x94>
    7d7e:	e0 95       	com	r30
    7d80:	08 95       	ret

00007d82 <__fixsfsi>:
    7d82:	0e 94 c8 3e 	call	0x7d90	; 0x7d90 <__fixunssfsi>
    7d86:	68 94       	set
    7d88:	b1 11       	cpse	r27, r1
    7d8a:	0c 94 e1 3f 	jmp	0x7fc2	; 0x7fc2 <__fp_szero>
    7d8e:	08 95       	ret

00007d90 <__fixunssfsi>:
    7d90:	0e 94 c6 3f 	call	0x7f8c	; 0x7f8c <__fp_splitA>
    7d94:	88 f0       	brcs	.+34     	; 0x7db8 <__fixunssfsi+0x28>
    7d96:	9f 57       	subi	r25, 0x7F	; 127
    7d98:	98 f0       	brcs	.+38     	; 0x7dc0 <__fixunssfsi+0x30>
    7d9a:	b9 2f       	mov	r27, r25
    7d9c:	99 27       	eor	r25, r25
    7d9e:	b7 51       	subi	r27, 0x17	; 23
    7da0:	b0 f0       	brcs	.+44     	; 0x7dce <__fixunssfsi+0x3e>
    7da2:	e1 f0       	breq	.+56     	; 0x7ddc <__fixunssfsi+0x4c>
    7da4:	66 0f       	add	r22, r22
    7da6:	77 1f       	adc	r23, r23
    7da8:	88 1f       	adc	r24, r24
    7daa:	99 1f       	adc	r25, r25
    7dac:	1a f0       	brmi	.+6      	; 0x7db4 <__fixunssfsi+0x24>
    7dae:	ba 95       	dec	r27
    7db0:	c9 f7       	brne	.-14     	; 0x7da4 <__fixunssfsi+0x14>
    7db2:	14 c0       	rjmp	.+40     	; 0x7ddc <__fixunssfsi+0x4c>
    7db4:	b1 30       	cpi	r27, 0x01	; 1
    7db6:	91 f0       	breq	.+36     	; 0x7ddc <__fixunssfsi+0x4c>
    7db8:	0e 94 e0 3f 	call	0x7fc0	; 0x7fc0 <__fp_zero>
    7dbc:	b1 e0       	ldi	r27, 0x01	; 1
    7dbe:	08 95       	ret
    7dc0:	0c 94 e0 3f 	jmp	0x7fc0	; 0x7fc0 <__fp_zero>
    7dc4:	67 2f       	mov	r22, r23
    7dc6:	78 2f       	mov	r23, r24
    7dc8:	88 27       	eor	r24, r24
    7dca:	b8 5f       	subi	r27, 0xF8	; 248
    7dcc:	39 f0       	breq	.+14     	; 0x7ddc <__fixunssfsi+0x4c>
    7dce:	b9 3f       	cpi	r27, 0xF9	; 249
    7dd0:	cc f3       	brlt	.-14     	; 0x7dc4 <__fixunssfsi+0x34>
    7dd2:	86 95       	lsr	r24
    7dd4:	77 95       	ror	r23
    7dd6:	67 95       	ror	r22
    7dd8:	b3 95       	inc	r27
    7dda:	d9 f7       	brne	.-10     	; 0x7dd2 <__fixunssfsi+0x42>
    7ddc:	3e f4       	brtc	.+14     	; 0x7dec <__fixunssfsi+0x5c>
    7dde:	90 95       	com	r25
    7de0:	80 95       	com	r24
    7de2:	70 95       	com	r23
    7de4:	61 95       	neg	r22
    7de6:	7f 4f       	sbci	r23, 0xFF	; 255
    7de8:	8f 4f       	sbci	r24, 0xFF	; 255
    7dea:	9f 4f       	sbci	r25, 0xFF	; 255
    7dec:	08 95       	ret

00007dee <__floatunsisf>:
    7dee:	e8 94       	clt
    7df0:	09 c0       	rjmp	.+18     	; 0x7e04 <__floatsisf+0x12>

00007df2 <__floatsisf>:
    7df2:	97 fb       	bst	r25, 7
    7df4:	3e f4       	brtc	.+14     	; 0x7e04 <__floatsisf+0x12>
    7df6:	90 95       	com	r25
    7df8:	80 95       	com	r24
    7dfa:	70 95       	com	r23
    7dfc:	61 95       	neg	r22
    7dfe:	7f 4f       	sbci	r23, 0xFF	; 255
    7e00:	8f 4f       	sbci	r24, 0xFF	; 255
    7e02:	9f 4f       	sbci	r25, 0xFF	; 255
    7e04:	99 23       	and	r25, r25
    7e06:	a9 f0       	breq	.+42     	; 0x7e32 <__floatsisf+0x40>
    7e08:	f9 2f       	mov	r31, r25
    7e0a:	96 e9       	ldi	r25, 0x96	; 150
    7e0c:	bb 27       	eor	r27, r27
    7e0e:	93 95       	inc	r25
    7e10:	f6 95       	lsr	r31
    7e12:	87 95       	ror	r24
    7e14:	77 95       	ror	r23
    7e16:	67 95       	ror	r22
    7e18:	b7 95       	ror	r27
    7e1a:	f1 11       	cpse	r31, r1
    7e1c:	f8 cf       	rjmp	.-16     	; 0x7e0e <__floatsisf+0x1c>
    7e1e:	fa f4       	brpl	.+62     	; 0x7e5e <__floatsisf+0x6c>
    7e20:	bb 0f       	add	r27, r27
    7e22:	11 f4       	brne	.+4      	; 0x7e28 <__floatsisf+0x36>
    7e24:	60 ff       	sbrs	r22, 0
    7e26:	1b c0       	rjmp	.+54     	; 0x7e5e <__floatsisf+0x6c>
    7e28:	6f 5f       	subi	r22, 0xFF	; 255
    7e2a:	7f 4f       	sbci	r23, 0xFF	; 255
    7e2c:	8f 4f       	sbci	r24, 0xFF	; 255
    7e2e:	9f 4f       	sbci	r25, 0xFF	; 255
    7e30:	16 c0       	rjmp	.+44     	; 0x7e5e <__floatsisf+0x6c>
    7e32:	88 23       	and	r24, r24
    7e34:	11 f0       	breq	.+4      	; 0x7e3a <__floatsisf+0x48>
    7e36:	96 e9       	ldi	r25, 0x96	; 150
    7e38:	11 c0       	rjmp	.+34     	; 0x7e5c <__floatsisf+0x6a>
    7e3a:	77 23       	and	r23, r23
    7e3c:	21 f0       	breq	.+8      	; 0x7e46 <__floatsisf+0x54>
    7e3e:	9e e8       	ldi	r25, 0x8E	; 142
    7e40:	87 2f       	mov	r24, r23
    7e42:	76 2f       	mov	r23, r22
    7e44:	05 c0       	rjmp	.+10     	; 0x7e50 <__floatsisf+0x5e>
    7e46:	66 23       	and	r22, r22
    7e48:	71 f0       	breq	.+28     	; 0x7e66 <__floatsisf+0x74>
    7e4a:	96 e8       	ldi	r25, 0x86	; 134
    7e4c:	86 2f       	mov	r24, r22
    7e4e:	70 e0       	ldi	r23, 0x00	; 0
    7e50:	60 e0       	ldi	r22, 0x00	; 0
    7e52:	2a f0       	brmi	.+10     	; 0x7e5e <__floatsisf+0x6c>
    7e54:	9a 95       	dec	r25
    7e56:	66 0f       	add	r22, r22
    7e58:	77 1f       	adc	r23, r23
    7e5a:	88 1f       	adc	r24, r24
    7e5c:	da f7       	brpl	.-10     	; 0x7e54 <__floatsisf+0x62>
    7e5e:	88 0f       	add	r24, r24
    7e60:	96 95       	lsr	r25
    7e62:	87 95       	ror	r24
    7e64:	97 f9       	bld	r25, 7
    7e66:	08 95       	ret

00007e68 <__floatundisf>:
    7e68:	e8 94       	clt

00007e6a <__fp_di2sf>:
    7e6a:	f9 2f       	mov	r31, r25
    7e6c:	96 eb       	ldi	r25, 0xB6	; 182
    7e6e:	ff 23       	and	r31, r31
    7e70:	81 f0       	breq	.+32     	; 0x7e92 <__fp_di2sf+0x28>
    7e72:	12 16       	cp	r1, r18
    7e74:	13 06       	cpc	r1, r19
    7e76:	14 06       	cpc	r1, r20
    7e78:	44 0b       	sbc	r20, r20
    7e7a:	93 95       	inc	r25
    7e7c:	f6 95       	lsr	r31
    7e7e:	87 95       	ror	r24
    7e80:	77 95       	ror	r23
    7e82:	67 95       	ror	r22
    7e84:	57 95       	ror	r21
    7e86:	40 40       	sbci	r20, 0x00	; 0
    7e88:	ff 23       	and	r31, r31
    7e8a:	b9 f7       	brne	.-18     	; 0x7e7a <__fp_di2sf+0x10>
    7e8c:	1b c0       	rjmp	.+54     	; 0x7ec4 <__fp_di2sf+0x5a>
    7e8e:	99 27       	eor	r25, r25
    7e90:	08 95       	ret
    7e92:	88 23       	and	r24, r24
    7e94:	51 f4       	brne	.+20     	; 0x7eaa <__fp_di2sf+0x40>
    7e96:	98 50       	subi	r25, 0x08	; 8
    7e98:	d2 f7       	brpl	.-12     	; 0x7e8e <__fp_di2sf+0x24>
    7e9a:	87 2b       	or	r24, r23
    7e9c:	76 2f       	mov	r23, r22
    7e9e:	65 2f       	mov	r22, r21
    7ea0:	54 2f       	mov	r21, r20
    7ea2:	43 2f       	mov	r20, r19
    7ea4:	32 2f       	mov	r19, r18
    7ea6:	20 e0       	ldi	r18, 0x00	; 0
    7ea8:	b1 f3       	breq	.-20     	; 0x7e96 <__fp_di2sf+0x2c>
    7eaa:	12 16       	cp	r1, r18
    7eac:	13 06       	cpc	r1, r19
    7eae:	14 06       	cpc	r1, r20
    7eb0:	44 0b       	sbc	r20, r20
    7eb2:	88 23       	and	r24, r24
    7eb4:	3a f0       	brmi	.+14     	; 0x7ec4 <__fp_di2sf+0x5a>
    7eb6:	9a 95       	dec	r25
    7eb8:	44 0f       	add	r20, r20
    7eba:	55 1f       	adc	r21, r21
    7ebc:	66 1f       	adc	r22, r22
    7ebe:	77 1f       	adc	r23, r23
    7ec0:	88 1f       	adc	r24, r24
    7ec2:	ca f7       	brpl	.-14     	; 0x7eb6 <__fp_di2sf+0x4c>
    7ec4:	55 23       	and	r21, r21
    7ec6:	4a f4       	brpl	.+18     	; 0x7eda <__fp_di2sf+0x70>
    7ec8:	44 0f       	add	r20, r20
    7eca:	55 1f       	adc	r21, r21
    7ecc:	11 f4       	brne	.+4      	; 0x7ed2 <__fp_di2sf+0x68>
    7ece:	60 ff       	sbrs	r22, 0
    7ed0:	04 c0       	rjmp	.+8      	; 0x7eda <__fp_di2sf+0x70>
    7ed2:	6f 5f       	subi	r22, 0xFF	; 255
    7ed4:	7f 4f       	sbci	r23, 0xFF	; 255
    7ed6:	8f 4f       	sbci	r24, 0xFF	; 255
    7ed8:	9f 4f       	sbci	r25, 0xFF	; 255
    7eda:	88 0f       	add	r24, r24
    7edc:	96 95       	lsr	r25
    7ede:	87 95       	ror	r24
    7ee0:	97 f9       	bld	r25, 7
    7ee2:	08 95       	ret

00007ee4 <__fp_cmp>:
    7ee4:	99 0f       	add	r25, r25
    7ee6:	00 08       	sbc	r0, r0
    7ee8:	55 0f       	add	r21, r21
    7eea:	aa 0b       	sbc	r26, r26
    7eec:	e0 e8       	ldi	r30, 0x80	; 128
    7eee:	fe ef       	ldi	r31, 0xFE	; 254
    7ef0:	16 16       	cp	r1, r22
    7ef2:	17 06       	cpc	r1, r23
    7ef4:	e8 07       	cpc	r30, r24
    7ef6:	f9 07       	cpc	r31, r25
    7ef8:	c0 f0       	brcs	.+48     	; 0x7f2a <__fp_cmp+0x46>
    7efa:	12 16       	cp	r1, r18
    7efc:	13 06       	cpc	r1, r19
    7efe:	e4 07       	cpc	r30, r20
    7f00:	f5 07       	cpc	r31, r21
    7f02:	98 f0       	brcs	.+38     	; 0x7f2a <__fp_cmp+0x46>
    7f04:	62 1b       	sub	r22, r18
    7f06:	73 0b       	sbc	r23, r19
    7f08:	84 0b       	sbc	r24, r20
    7f0a:	95 0b       	sbc	r25, r21
    7f0c:	39 f4       	brne	.+14     	; 0x7f1c <__fp_cmp+0x38>
    7f0e:	0a 26       	eor	r0, r26
    7f10:	61 f0       	breq	.+24     	; 0x7f2a <__fp_cmp+0x46>
    7f12:	23 2b       	or	r18, r19
    7f14:	24 2b       	or	r18, r20
    7f16:	25 2b       	or	r18, r21
    7f18:	21 f4       	brne	.+8      	; 0x7f22 <__fp_cmp+0x3e>
    7f1a:	08 95       	ret
    7f1c:	0a 26       	eor	r0, r26
    7f1e:	09 f4       	brne	.+2      	; 0x7f22 <__fp_cmp+0x3e>
    7f20:	a1 40       	sbci	r26, 0x01	; 1
    7f22:	a6 95       	lsr	r26
    7f24:	8f ef       	ldi	r24, 0xFF	; 255
    7f26:	81 1d       	adc	r24, r1
    7f28:	81 1d       	adc	r24, r1
    7f2a:	08 95       	ret

00007f2c <__fp_inf>:
    7f2c:	97 f9       	bld	r25, 7
    7f2e:	9f 67       	ori	r25, 0x7F	; 127
    7f30:	80 e8       	ldi	r24, 0x80	; 128
    7f32:	70 e0       	ldi	r23, 0x00	; 0
    7f34:	60 e0       	ldi	r22, 0x00	; 0
    7f36:	08 95       	ret

00007f38 <__fp_nan>:
    7f38:	9f ef       	ldi	r25, 0xFF	; 255
    7f3a:	80 ec       	ldi	r24, 0xC0	; 192
    7f3c:	08 95       	ret

00007f3e <__fp_pscA>:
    7f3e:	00 24       	eor	r0, r0
    7f40:	0a 94       	dec	r0
    7f42:	16 16       	cp	r1, r22
    7f44:	17 06       	cpc	r1, r23
    7f46:	18 06       	cpc	r1, r24
    7f48:	09 06       	cpc	r0, r25
    7f4a:	08 95       	ret

00007f4c <__fp_pscB>:
    7f4c:	00 24       	eor	r0, r0
    7f4e:	0a 94       	dec	r0
    7f50:	12 16       	cp	r1, r18
    7f52:	13 06       	cpc	r1, r19
    7f54:	14 06       	cpc	r1, r20
    7f56:	05 06       	cpc	r0, r21
    7f58:	08 95       	ret

00007f5a <__fp_round>:
    7f5a:	09 2e       	mov	r0, r25
    7f5c:	03 94       	inc	r0
    7f5e:	00 0c       	add	r0, r0
    7f60:	11 f4       	brne	.+4      	; 0x7f66 <__fp_round+0xc>
    7f62:	88 23       	and	r24, r24
    7f64:	52 f0       	brmi	.+20     	; 0x7f7a <__fp_round+0x20>
    7f66:	bb 0f       	add	r27, r27
    7f68:	40 f4       	brcc	.+16     	; 0x7f7a <__fp_round+0x20>
    7f6a:	bf 2b       	or	r27, r31
    7f6c:	11 f4       	brne	.+4      	; 0x7f72 <__fp_round+0x18>
    7f6e:	60 ff       	sbrs	r22, 0
    7f70:	04 c0       	rjmp	.+8      	; 0x7f7a <__fp_round+0x20>
    7f72:	6f 5f       	subi	r22, 0xFF	; 255
    7f74:	7f 4f       	sbci	r23, 0xFF	; 255
    7f76:	8f 4f       	sbci	r24, 0xFF	; 255
    7f78:	9f 4f       	sbci	r25, 0xFF	; 255
    7f7a:	08 95       	ret

00007f7c <__fp_split3>:
    7f7c:	57 fd       	sbrc	r21, 7
    7f7e:	90 58       	subi	r25, 0x80	; 128
    7f80:	44 0f       	add	r20, r20
    7f82:	55 1f       	adc	r21, r21
    7f84:	59 f0       	breq	.+22     	; 0x7f9c <__fp_splitA+0x10>
    7f86:	5f 3f       	cpi	r21, 0xFF	; 255
    7f88:	71 f0       	breq	.+28     	; 0x7fa6 <__fp_splitA+0x1a>
    7f8a:	47 95       	ror	r20

00007f8c <__fp_splitA>:
    7f8c:	88 0f       	add	r24, r24
    7f8e:	97 fb       	bst	r25, 7
    7f90:	99 1f       	adc	r25, r25
    7f92:	61 f0       	breq	.+24     	; 0x7fac <__fp_splitA+0x20>
    7f94:	9f 3f       	cpi	r25, 0xFF	; 255
    7f96:	79 f0       	breq	.+30     	; 0x7fb6 <__fp_splitA+0x2a>
    7f98:	87 95       	ror	r24
    7f9a:	08 95       	ret
    7f9c:	12 16       	cp	r1, r18
    7f9e:	13 06       	cpc	r1, r19
    7fa0:	14 06       	cpc	r1, r20
    7fa2:	55 1f       	adc	r21, r21
    7fa4:	f2 cf       	rjmp	.-28     	; 0x7f8a <__fp_split3+0xe>
    7fa6:	46 95       	lsr	r20
    7fa8:	f1 df       	rcall	.-30     	; 0x7f8c <__fp_splitA>
    7faa:	08 c0       	rjmp	.+16     	; 0x7fbc <__fp_splitA+0x30>
    7fac:	16 16       	cp	r1, r22
    7fae:	17 06       	cpc	r1, r23
    7fb0:	18 06       	cpc	r1, r24
    7fb2:	99 1f       	adc	r25, r25
    7fb4:	f1 cf       	rjmp	.-30     	; 0x7f98 <__fp_splitA+0xc>
    7fb6:	86 95       	lsr	r24
    7fb8:	71 05       	cpc	r23, r1
    7fba:	61 05       	cpc	r22, r1
    7fbc:	08 94       	sec
    7fbe:	08 95       	ret

00007fc0 <__fp_zero>:
    7fc0:	e8 94       	clt

00007fc2 <__fp_szero>:
    7fc2:	bb 27       	eor	r27, r27
    7fc4:	66 27       	eor	r22, r22
    7fc6:	77 27       	eor	r23, r23
    7fc8:	cb 01       	movw	r24, r22
    7fca:	97 f9       	bld	r25, 7
    7fcc:	08 95       	ret

00007fce <__gesf2>:
    7fce:	0e 94 72 3f 	call	0x7ee4	; 0x7ee4 <__fp_cmp>
    7fd2:	08 f4       	brcc	.+2      	; 0x7fd6 <__gesf2+0x8>
    7fd4:	8f ef       	ldi	r24, 0xFF	; 255
    7fd6:	08 95       	ret

00007fd8 <__mulsf3>:
    7fd8:	0e 94 ff 3f 	call	0x7ffe	; 0x7ffe <__mulsf3x>
    7fdc:	0c 94 ad 3f 	jmp	0x7f5a	; 0x7f5a <__fp_round>
    7fe0:	0e 94 9f 3f 	call	0x7f3e	; 0x7f3e <__fp_pscA>
    7fe4:	38 f0       	brcs	.+14     	; 0x7ff4 <__mulsf3+0x1c>
    7fe6:	0e 94 a6 3f 	call	0x7f4c	; 0x7f4c <__fp_pscB>
    7fea:	20 f0       	brcs	.+8      	; 0x7ff4 <__mulsf3+0x1c>
    7fec:	95 23       	and	r25, r21
    7fee:	11 f0       	breq	.+4      	; 0x7ff4 <__mulsf3+0x1c>
    7ff0:	0c 94 96 3f 	jmp	0x7f2c	; 0x7f2c <__fp_inf>
    7ff4:	0c 94 9c 3f 	jmp	0x7f38	; 0x7f38 <__fp_nan>
    7ff8:	11 24       	eor	r1, r1
    7ffa:	0c 94 e1 3f 	jmp	0x7fc2	; 0x7fc2 <__fp_szero>

00007ffe <__mulsf3x>:
    7ffe:	0e 94 be 3f 	call	0x7f7c	; 0x7f7c <__fp_split3>
    8002:	70 f3       	brcs	.-36     	; 0x7fe0 <__mulsf3+0x8>

00008004 <__mulsf3_pse>:
    8004:	95 9f       	mul	r25, r21
    8006:	c1 f3       	breq	.-16     	; 0x7ff8 <__mulsf3+0x20>
    8008:	95 0f       	add	r25, r21
    800a:	50 e0       	ldi	r21, 0x00	; 0
    800c:	55 1f       	adc	r21, r21
    800e:	62 9f       	mul	r22, r18
    8010:	f0 01       	movw	r30, r0
    8012:	72 9f       	mul	r23, r18
    8014:	bb 27       	eor	r27, r27
    8016:	f0 0d       	add	r31, r0
    8018:	b1 1d       	adc	r27, r1
    801a:	63 9f       	mul	r22, r19
    801c:	aa 27       	eor	r26, r26
    801e:	f0 0d       	add	r31, r0
    8020:	b1 1d       	adc	r27, r1
    8022:	aa 1f       	adc	r26, r26
    8024:	64 9f       	mul	r22, r20
    8026:	66 27       	eor	r22, r22
    8028:	b0 0d       	add	r27, r0
    802a:	a1 1d       	adc	r26, r1
    802c:	66 1f       	adc	r22, r22
    802e:	82 9f       	mul	r24, r18
    8030:	22 27       	eor	r18, r18
    8032:	b0 0d       	add	r27, r0
    8034:	a1 1d       	adc	r26, r1
    8036:	62 1f       	adc	r22, r18
    8038:	73 9f       	mul	r23, r19
    803a:	b0 0d       	add	r27, r0
    803c:	a1 1d       	adc	r26, r1
    803e:	62 1f       	adc	r22, r18
    8040:	83 9f       	mul	r24, r19
    8042:	a0 0d       	add	r26, r0
    8044:	61 1d       	adc	r22, r1
    8046:	22 1f       	adc	r18, r18
    8048:	74 9f       	mul	r23, r20
    804a:	33 27       	eor	r19, r19
    804c:	a0 0d       	add	r26, r0
    804e:	61 1d       	adc	r22, r1
    8050:	23 1f       	adc	r18, r19
    8052:	84 9f       	mul	r24, r20
    8054:	60 0d       	add	r22, r0
    8056:	21 1d       	adc	r18, r1
    8058:	82 2f       	mov	r24, r18
    805a:	76 2f       	mov	r23, r22
    805c:	6a 2f       	mov	r22, r26
    805e:	11 24       	eor	r1, r1
    8060:	9f 57       	subi	r25, 0x7F	; 127
    8062:	50 40       	sbci	r21, 0x00	; 0
    8064:	9a f0       	brmi	.+38     	; 0x808c <__mulsf3_pse+0x88>
    8066:	f1 f0       	breq	.+60     	; 0x80a4 <__mulsf3_pse+0xa0>
    8068:	88 23       	and	r24, r24
    806a:	4a f0       	brmi	.+18     	; 0x807e <__mulsf3_pse+0x7a>
    806c:	ee 0f       	add	r30, r30
    806e:	ff 1f       	adc	r31, r31
    8070:	bb 1f       	adc	r27, r27
    8072:	66 1f       	adc	r22, r22
    8074:	77 1f       	adc	r23, r23
    8076:	88 1f       	adc	r24, r24
    8078:	91 50       	subi	r25, 0x01	; 1
    807a:	50 40       	sbci	r21, 0x00	; 0
    807c:	a9 f7       	brne	.-22     	; 0x8068 <__mulsf3_pse+0x64>
    807e:	9e 3f       	cpi	r25, 0xFE	; 254
    8080:	51 05       	cpc	r21, r1
    8082:	80 f0       	brcs	.+32     	; 0x80a4 <__mulsf3_pse+0xa0>
    8084:	0c 94 96 3f 	jmp	0x7f2c	; 0x7f2c <__fp_inf>
    8088:	0c 94 e1 3f 	jmp	0x7fc2	; 0x7fc2 <__fp_szero>
    808c:	5f 3f       	cpi	r21, 0xFF	; 255
    808e:	e4 f3       	brlt	.-8      	; 0x8088 <__mulsf3_pse+0x84>
    8090:	98 3e       	cpi	r25, 0xE8	; 232
    8092:	d4 f3       	brlt	.-12     	; 0x8088 <__mulsf3_pse+0x84>
    8094:	86 95       	lsr	r24
    8096:	77 95       	ror	r23
    8098:	67 95       	ror	r22
    809a:	b7 95       	ror	r27
    809c:	f7 95       	ror	r31
    809e:	e7 95       	ror	r30
    80a0:	9f 5f       	subi	r25, 0xFF	; 255
    80a2:	c1 f7       	brne	.-16     	; 0x8094 <__mulsf3_pse+0x90>
    80a4:	fe 2b       	or	r31, r30
    80a6:	88 0f       	add	r24, r24
    80a8:	91 1d       	adc	r25, r1
    80aa:	96 95       	lsr	r25
    80ac:	87 95       	ror	r24
    80ae:	97 f9       	bld	r25, 7
    80b0:	08 95       	ret

000080b2 <vfprintf>:
    80b2:	2f 92       	push	r2
    80b4:	3f 92       	push	r3
    80b6:	4f 92       	push	r4
    80b8:	5f 92       	push	r5
    80ba:	6f 92       	push	r6
    80bc:	7f 92       	push	r7
    80be:	8f 92       	push	r8
    80c0:	9f 92       	push	r9
    80c2:	af 92       	push	r10
    80c4:	bf 92       	push	r11
    80c6:	cf 92       	push	r12
    80c8:	df 92       	push	r13
    80ca:	ef 92       	push	r14
    80cc:	ff 92       	push	r15
    80ce:	0f 93       	push	r16
    80d0:	1f 93       	push	r17
    80d2:	cf 93       	push	r28
    80d4:	df 93       	push	r29
    80d6:	cd b7       	in	r28, 0x3d	; 61
    80d8:	de b7       	in	r29, 0x3e	; 62
    80da:	60 97       	sbiw	r28, 0x10	; 16
    80dc:	cd bf       	out	0x3d, r28	; 61
    80de:	de bf       	out	0x3e, r29	; 62
    80e0:	7c 01       	movw	r14, r24
    80e2:	1b 01       	movw	r2, r22
    80e4:	6a 01       	movw	r12, r20
    80e6:	fc 01       	movw	r30, r24
    80e8:	16 82       	std	Z+6, r1	; 0x06
    80ea:	17 82       	std	Z+7, r1	; 0x07
    80ec:	83 81       	ldd	r24, Z+3	; 0x03
    80ee:	81 ff       	sbrs	r24, 1
    80f0:	44 c3       	rjmp	.+1672   	; 0x877a <vfprintf+0x6c8>
    80f2:	9e 01       	movw	r18, r28
    80f4:	2f 5f       	subi	r18, 0xFF	; 255
    80f6:	3f 4f       	sbci	r19, 0xFF	; 255
    80f8:	39 01       	movw	r6, r18
    80fa:	f7 01       	movw	r30, r14
    80fc:	93 81       	ldd	r25, Z+3	; 0x03
    80fe:	f1 01       	movw	r30, r2
    8100:	93 fd       	sbrc	r25, 3
    8102:	85 91       	lpm	r24, Z+
    8104:	93 ff       	sbrs	r25, 3
    8106:	81 91       	ld	r24, Z+
    8108:	1f 01       	movw	r2, r30
    810a:	88 23       	and	r24, r24
    810c:	09 f4       	brne	.+2      	; 0x8110 <vfprintf+0x5e>
    810e:	31 c3       	rjmp	.+1634   	; 0x8772 <vfprintf+0x6c0>
    8110:	85 32       	cpi	r24, 0x25	; 37
    8112:	39 f4       	brne	.+14     	; 0x8122 <vfprintf+0x70>
    8114:	93 fd       	sbrc	r25, 3
    8116:	85 91       	lpm	r24, Z+
    8118:	93 ff       	sbrs	r25, 3
    811a:	81 91       	ld	r24, Z+
    811c:	1f 01       	movw	r2, r30
    811e:	85 32       	cpi	r24, 0x25	; 37
    8120:	39 f4       	brne	.+14     	; 0x8130 <vfprintf+0x7e>
    8122:	b7 01       	movw	r22, r14
    8124:	90 e0       	ldi	r25, 0x00	; 0
    8126:	0e 94 91 46 	call	0x8d22	; 0x8d22 <fputc>
    812a:	56 01       	movw	r10, r12
    812c:	65 01       	movw	r12, r10
    812e:	e5 cf       	rjmp	.-54     	; 0x80fa <vfprintf+0x48>
    8130:	10 e0       	ldi	r17, 0x00	; 0
    8132:	51 2c       	mov	r5, r1
    8134:	91 2c       	mov	r9, r1
    8136:	ff e1       	ldi	r31, 0x1F	; 31
    8138:	f9 15       	cp	r31, r9
    813a:	d8 f0       	brcs	.+54     	; 0x8172 <vfprintf+0xc0>
    813c:	8b 32       	cpi	r24, 0x2B	; 43
    813e:	79 f0       	breq	.+30     	; 0x815e <vfprintf+0xac>
    8140:	38 f4       	brcc	.+14     	; 0x8150 <vfprintf+0x9e>
    8142:	80 32       	cpi	r24, 0x20	; 32
    8144:	79 f0       	breq	.+30     	; 0x8164 <vfprintf+0xb2>
    8146:	83 32       	cpi	r24, 0x23	; 35
    8148:	a1 f4       	brne	.+40     	; 0x8172 <vfprintf+0xc0>
    814a:	f9 2d       	mov	r31, r9
    814c:	f0 61       	ori	r31, 0x10	; 16
    814e:	2e c0       	rjmp	.+92     	; 0x81ac <vfprintf+0xfa>
    8150:	8d 32       	cpi	r24, 0x2D	; 45
    8152:	61 f0       	breq	.+24     	; 0x816c <vfprintf+0xba>
    8154:	80 33       	cpi	r24, 0x30	; 48
    8156:	69 f4       	brne	.+26     	; 0x8172 <vfprintf+0xc0>
    8158:	29 2d       	mov	r18, r9
    815a:	21 60       	ori	r18, 0x01	; 1
    815c:	2d c0       	rjmp	.+90     	; 0x81b8 <vfprintf+0x106>
    815e:	39 2d       	mov	r19, r9
    8160:	32 60       	ori	r19, 0x02	; 2
    8162:	93 2e       	mov	r9, r19
    8164:	89 2d       	mov	r24, r9
    8166:	84 60       	ori	r24, 0x04	; 4
    8168:	98 2e       	mov	r9, r24
    816a:	2a c0       	rjmp	.+84     	; 0x81c0 <vfprintf+0x10e>
    816c:	e9 2d       	mov	r30, r9
    816e:	e8 60       	ori	r30, 0x08	; 8
    8170:	15 c0       	rjmp	.+42     	; 0x819c <vfprintf+0xea>
    8172:	97 fc       	sbrc	r9, 7
    8174:	2d c0       	rjmp	.+90     	; 0x81d0 <vfprintf+0x11e>
    8176:	20 ed       	ldi	r18, 0xD0	; 208
    8178:	28 0f       	add	r18, r24
    817a:	2a 30       	cpi	r18, 0x0A	; 10
    817c:	88 f4       	brcc	.+34     	; 0x81a0 <vfprintf+0xee>
    817e:	96 fe       	sbrs	r9, 6
    8180:	06 c0       	rjmp	.+12     	; 0x818e <vfprintf+0xdc>
    8182:	3a e0       	ldi	r19, 0x0A	; 10
    8184:	13 9f       	mul	r17, r19
    8186:	20 0d       	add	r18, r0
    8188:	11 24       	eor	r1, r1
    818a:	12 2f       	mov	r17, r18
    818c:	19 c0       	rjmp	.+50     	; 0x81c0 <vfprintf+0x10e>
    818e:	8a e0       	ldi	r24, 0x0A	; 10
    8190:	58 9e       	mul	r5, r24
    8192:	20 0d       	add	r18, r0
    8194:	11 24       	eor	r1, r1
    8196:	52 2e       	mov	r5, r18
    8198:	e9 2d       	mov	r30, r9
    819a:	e0 62       	ori	r30, 0x20	; 32
    819c:	9e 2e       	mov	r9, r30
    819e:	10 c0       	rjmp	.+32     	; 0x81c0 <vfprintf+0x10e>
    81a0:	8e 32       	cpi	r24, 0x2E	; 46
    81a2:	31 f4       	brne	.+12     	; 0x81b0 <vfprintf+0xfe>
    81a4:	96 fc       	sbrc	r9, 6
    81a6:	e5 c2       	rjmp	.+1482   	; 0x8772 <vfprintf+0x6c0>
    81a8:	f9 2d       	mov	r31, r9
    81aa:	f0 64       	ori	r31, 0x40	; 64
    81ac:	9f 2e       	mov	r9, r31
    81ae:	08 c0       	rjmp	.+16     	; 0x81c0 <vfprintf+0x10e>
    81b0:	8c 36       	cpi	r24, 0x6C	; 108
    81b2:	21 f4       	brne	.+8      	; 0x81bc <vfprintf+0x10a>
    81b4:	29 2d       	mov	r18, r9
    81b6:	20 68       	ori	r18, 0x80	; 128
    81b8:	92 2e       	mov	r9, r18
    81ba:	02 c0       	rjmp	.+4      	; 0x81c0 <vfprintf+0x10e>
    81bc:	88 36       	cpi	r24, 0x68	; 104
    81be:	41 f4       	brne	.+16     	; 0x81d0 <vfprintf+0x11e>
    81c0:	f1 01       	movw	r30, r2
    81c2:	93 fd       	sbrc	r25, 3
    81c4:	85 91       	lpm	r24, Z+
    81c6:	93 ff       	sbrs	r25, 3
    81c8:	81 91       	ld	r24, Z+
    81ca:	1f 01       	movw	r2, r30
    81cc:	81 11       	cpse	r24, r1
    81ce:	b3 cf       	rjmp	.-154    	; 0x8136 <vfprintf+0x84>
    81d0:	9b eb       	ldi	r25, 0xBB	; 187
    81d2:	98 0f       	add	r25, r24
    81d4:	93 30       	cpi	r25, 0x03	; 3
    81d6:	20 f4       	brcc	.+8      	; 0x81e0 <vfprintf+0x12e>
    81d8:	99 2d       	mov	r25, r9
    81da:	90 61       	ori	r25, 0x10	; 16
    81dc:	80 5e       	subi	r24, 0xE0	; 224
    81de:	07 c0       	rjmp	.+14     	; 0x81ee <vfprintf+0x13c>
    81e0:	9b e9       	ldi	r25, 0x9B	; 155
    81e2:	98 0f       	add	r25, r24
    81e4:	93 30       	cpi	r25, 0x03	; 3
    81e6:	08 f0       	brcs	.+2      	; 0x81ea <vfprintf+0x138>
    81e8:	66 c1       	rjmp	.+716    	; 0x84b6 <vfprintf+0x404>
    81ea:	99 2d       	mov	r25, r9
    81ec:	9f 7e       	andi	r25, 0xEF	; 239
    81ee:	96 ff       	sbrs	r25, 6
    81f0:	16 e0       	ldi	r17, 0x06	; 6
    81f2:	9f 73       	andi	r25, 0x3F	; 63
    81f4:	99 2e       	mov	r9, r25
    81f6:	85 36       	cpi	r24, 0x65	; 101
    81f8:	19 f4       	brne	.+6      	; 0x8200 <vfprintf+0x14e>
    81fa:	90 64       	ori	r25, 0x40	; 64
    81fc:	99 2e       	mov	r9, r25
    81fe:	08 c0       	rjmp	.+16     	; 0x8210 <vfprintf+0x15e>
    8200:	86 36       	cpi	r24, 0x66	; 102
    8202:	21 f4       	brne	.+8      	; 0x820c <vfprintf+0x15a>
    8204:	39 2f       	mov	r19, r25
    8206:	30 68       	ori	r19, 0x80	; 128
    8208:	93 2e       	mov	r9, r19
    820a:	02 c0       	rjmp	.+4      	; 0x8210 <vfprintf+0x15e>
    820c:	11 11       	cpse	r17, r1
    820e:	11 50       	subi	r17, 0x01	; 1
    8210:	97 fe       	sbrs	r9, 7
    8212:	07 c0       	rjmp	.+14     	; 0x8222 <vfprintf+0x170>
    8214:	1c 33       	cpi	r17, 0x3C	; 60
    8216:	50 f4       	brcc	.+20     	; 0x822c <vfprintf+0x17a>
    8218:	44 24       	eor	r4, r4
    821a:	43 94       	inc	r4
    821c:	41 0e       	add	r4, r17
    821e:	27 e0       	ldi	r18, 0x07	; 7
    8220:	0b c0       	rjmp	.+22     	; 0x8238 <vfprintf+0x186>
    8222:	18 30       	cpi	r17, 0x08	; 8
    8224:	38 f0       	brcs	.+14     	; 0x8234 <vfprintf+0x182>
    8226:	27 e0       	ldi	r18, 0x07	; 7
    8228:	17 e0       	ldi	r17, 0x07	; 7
    822a:	05 c0       	rjmp	.+10     	; 0x8236 <vfprintf+0x184>
    822c:	27 e0       	ldi	r18, 0x07	; 7
    822e:	9c e3       	ldi	r25, 0x3C	; 60
    8230:	49 2e       	mov	r4, r25
    8232:	02 c0       	rjmp	.+4      	; 0x8238 <vfprintf+0x186>
    8234:	21 2f       	mov	r18, r17
    8236:	41 2c       	mov	r4, r1
    8238:	56 01       	movw	r10, r12
    823a:	84 e0       	ldi	r24, 0x04	; 4
    823c:	a8 0e       	add	r10, r24
    823e:	b1 1c       	adc	r11, r1
    8240:	f6 01       	movw	r30, r12
    8242:	60 81       	ld	r22, Z
    8244:	71 81       	ldd	r23, Z+1	; 0x01
    8246:	82 81       	ldd	r24, Z+2	; 0x02
    8248:	93 81       	ldd	r25, Z+3	; 0x03
    824a:	04 2d       	mov	r16, r4
    824c:	a3 01       	movw	r20, r6
    824e:	0e 94 58 45 	call	0x8ab0	; 0x8ab0 <__ftoa_engine>
    8252:	6c 01       	movw	r12, r24
    8254:	f9 81       	ldd	r31, Y+1	; 0x01
    8256:	fc 87       	std	Y+12, r31	; 0x0c
    8258:	f0 ff       	sbrs	r31, 0
    825a:	02 c0       	rjmp	.+4      	; 0x8260 <vfprintf+0x1ae>
    825c:	f3 ff       	sbrs	r31, 3
    825e:	06 c0       	rjmp	.+12     	; 0x826c <vfprintf+0x1ba>
    8260:	91 fc       	sbrc	r9, 1
    8262:	06 c0       	rjmp	.+12     	; 0x8270 <vfprintf+0x1be>
    8264:	92 fe       	sbrs	r9, 2
    8266:	06 c0       	rjmp	.+12     	; 0x8274 <vfprintf+0x1c2>
    8268:	00 e2       	ldi	r16, 0x20	; 32
    826a:	05 c0       	rjmp	.+10     	; 0x8276 <vfprintf+0x1c4>
    826c:	0d e2       	ldi	r16, 0x2D	; 45
    826e:	03 c0       	rjmp	.+6      	; 0x8276 <vfprintf+0x1c4>
    8270:	0b e2       	ldi	r16, 0x2B	; 43
    8272:	01 c0       	rjmp	.+2      	; 0x8276 <vfprintf+0x1c4>
    8274:	00 e0       	ldi	r16, 0x00	; 0
    8276:	8c 85       	ldd	r24, Y+12	; 0x0c
    8278:	8c 70       	andi	r24, 0x0C	; 12
    827a:	19 f0       	breq	.+6      	; 0x8282 <vfprintf+0x1d0>
    827c:	01 11       	cpse	r16, r1
    827e:	5a c2       	rjmp	.+1204   	; 0x8734 <vfprintf+0x682>
    8280:	9b c2       	rjmp	.+1334   	; 0x87b8 <vfprintf+0x706>
    8282:	97 fe       	sbrs	r9, 7
    8284:	10 c0       	rjmp	.+32     	; 0x82a6 <vfprintf+0x1f4>
    8286:	4c 0c       	add	r4, r12
    8288:	fc 85       	ldd	r31, Y+12	; 0x0c
    828a:	f4 ff       	sbrs	r31, 4
    828c:	04 c0       	rjmp	.+8      	; 0x8296 <vfprintf+0x1e4>
    828e:	8a 81       	ldd	r24, Y+2	; 0x02
    8290:	81 33       	cpi	r24, 0x31	; 49
    8292:	09 f4       	brne	.+2      	; 0x8296 <vfprintf+0x1e4>
    8294:	4a 94       	dec	r4
    8296:	14 14       	cp	r1, r4
    8298:	74 f5       	brge	.+92     	; 0x82f6 <vfprintf+0x244>
    829a:	28 e0       	ldi	r18, 0x08	; 8
    829c:	24 15       	cp	r18, r4
    829e:	78 f5       	brcc	.+94     	; 0x82fe <vfprintf+0x24c>
    82a0:	88 e0       	ldi	r24, 0x08	; 8
    82a2:	48 2e       	mov	r4, r24
    82a4:	2c c0       	rjmp	.+88     	; 0x82fe <vfprintf+0x24c>
    82a6:	96 fc       	sbrc	r9, 6
    82a8:	2a c0       	rjmp	.+84     	; 0x82fe <vfprintf+0x24c>
    82aa:	81 2f       	mov	r24, r17
    82ac:	90 e0       	ldi	r25, 0x00	; 0
    82ae:	8c 15       	cp	r24, r12
    82b0:	9d 05       	cpc	r25, r13
    82b2:	9c f0       	brlt	.+38     	; 0x82da <vfprintf+0x228>
    82b4:	3c ef       	ldi	r19, 0xFC	; 252
    82b6:	c3 16       	cp	r12, r19
    82b8:	3f ef       	ldi	r19, 0xFF	; 255
    82ba:	d3 06       	cpc	r13, r19
    82bc:	74 f0       	brlt	.+28     	; 0x82da <vfprintf+0x228>
    82be:	89 2d       	mov	r24, r9
    82c0:	80 68       	ori	r24, 0x80	; 128
    82c2:	98 2e       	mov	r9, r24
    82c4:	0a c0       	rjmp	.+20     	; 0x82da <vfprintf+0x228>
    82c6:	e2 e0       	ldi	r30, 0x02	; 2
    82c8:	f0 e0       	ldi	r31, 0x00	; 0
    82ca:	ec 0f       	add	r30, r28
    82cc:	fd 1f       	adc	r31, r29
    82ce:	e1 0f       	add	r30, r17
    82d0:	f1 1d       	adc	r31, r1
    82d2:	80 81       	ld	r24, Z
    82d4:	80 33       	cpi	r24, 0x30	; 48
    82d6:	19 f4       	brne	.+6      	; 0x82de <vfprintf+0x22c>
    82d8:	11 50       	subi	r17, 0x01	; 1
    82da:	11 11       	cpse	r17, r1
    82dc:	f4 cf       	rjmp	.-24     	; 0x82c6 <vfprintf+0x214>
    82de:	97 fe       	sbrs	r9, 7
    82e0:	0e c0       	rjmp	.+28     	; 0x82fe <vfprintf+0x24c>
    82e2:	44 24       	eor	r4, r4
    82e4:	43 94       	inc	r4
    82e6:	41 0e       	add	r4, r17
    82e8:	81 2f       	mov	r24, r17
    82ea:	90 e0       	ldi	r25, 0x00	; 0
    82ec:	c8 16       	cp	r12, r24
    82ee:	d9 06       	cpc	r13, r25
    82f0:	2c f4       	brge	.+10     	; 0x82fc <vfprintf+0x24a>
    82f2:	1c 19       	sub	r17, r12
    82f4:	04 c0       	rjmp	.+8      	; 0x82fe <vfprintf+0x24c>
    82f6:	44 24       	eor	r4, r4
    82f8:	43 94       	inc	r4
    82fa:	01 c0       	rjmp	.+2      	; 0x82fe <vfprintf+0x24c>
    82fc:	10 e0       	ldi	r17, 0x00	; 0
    82fe:	97 fe       	sbrs	r9, 7
    8300:	06 c0       	rjmp	.+12     	; 0x830e <vfprintf+0x25c>
    8302:	1c 14       	cp	r1, r12
    8304:	1d 04       	cpc	r1, r13
    8306:	34 f4       	brge	.+12     	; 0x8314 <vfprintf+0x262>
    8308:	c6 01       	movw	r24, r12
    830a:	01 96       	adiw	r24, 0x01	; 1
    830c:	05 c0       	rjmp	.+10     	; 0x8318 <vfprintf+0x266>
    830e:	85 e0       	ldi	r24, 0x05	; 5
    8310:	90 e0       	ldi	r25, 0x00	; 0
    8312:	02 c0       	rjmp	.+4      	; 0x8318 <vfprintf+0x266>
    8314:	81 e0       	ldi	r24, 0x01	; 1
    8316:	90 e0       	ldi	r25, 0x00	; 0
    8318:	01 11       	cpse	r16, r1
    831a:	01 96       	adiw	r24, 0x01	; 1
    831c:	11 23       	and	r17, r17
    831e:	31 f0       	breq	.+12     	; 0x832c <vfprintf+0x27a>
    8320:	21 2f       	mov	r18, r17
    8322:	30 e0       	ldi	r19, 0x00	; 0
    8324:	2f 5f       	subi	r18, 0xFF	; 255
    8326:	3f 4f       	sbci	r19, 0xFF	; 255
    8328:	82 0f       	add	r24, r18
    832a:	93 1f       	adc	r25, r19
    832c:	25 2d       	mov	r18, r5
    832e:	30 e0       	ldi	r19, 0x00	; 0
    8330:	82 17       	cp	r24, r18
    8332:	93 07       	cpc	r25, r19
    8334:	14 f4       	brge	.+4      	; 0x833a <vfprintf+0x288>
    8336:	58 1a       	sub	r5, r24
    8338:	01 c0       	rjmp	.+2      	; 0x833c <vfprintf+0x28a>
    833a:	51 2c       	mov	r5, r1
    833c:	89 2d       	mov	r24, r9
    833e:	89 70       	andi	r24, 0x09	; 9
    8340:	49 f4       	brne	.+18     	; 0x8354 <vfprintf+0x2a2>
    8342:	55 20       	and	r5, r5
    8344:	39 f0       	breq	.+14     	; 0x8354 <vfprintf+0x2a2>
    8346:	b7 01       	movw	r22, r14
    8348:	80 e2       	ldi	r24, 0x20	; 32
    834a:	90 e0       	ldi	r25, 0x00	; 0
    834c:	0e 94 91 46 	call	0x8d22	; 0x8d22 <fputc>
    8350:	5a 94       	dec	r5
    8352:	f7 cf       	rjmp	.-18     	; 0x8342 <vfprintf+0x290>
    8354:	00 23       	and	r16, r16
    8356:	29 f0       	breq	.+10     	; 0x8362 <vfprintf+0x2b0>
    8358:	b7 01       	movw	r22, r14
    835a:	80 2f       	mov	r24, r16
    835c:	90 e0       	ldi	r25, 0x00	; 0
    835e:	0e 94 91 46 	call	0x8d22	; 0x8d22 <fputc>
    8362:	93 fc       	sbrc	r9, 3
    8364:	09 c0       	rjmp	.+18     	; 0x8378 <vfprintf+0x2c6>
    8366:	55 20       	and	r5, r5
    8368:	39 f0       	breq	.+14     	; 0x8378 <vfprintf+0x2c6>
    836a:	b7 01       	movw	r22, r14
    836c:	80 e3       	ldi	r24, 0x30	; 48
    836e:	90 e0       	ldi	r25, 0x00	; 0
    8370:	0e 94 91 46 	call	0x8d22	; 0x8d22 <fputc>
    8374:	5a 94       	dec	r5
    8376:	f7 cf       	rjmp	.-18     	; 0x8366 <vfprintf+0x2b4>
    8378:	97 fe       	sbrs	r9, 7
    837a:	4c c0       	rjmp	.+152    	; 0x8414 <vfprintf+0x362>
    837c:	46 01       	movw	r8, r12
    837e:	d7 fe       	sbrs	r13, 7
    8380:	02 c0       	rjmp	.+4      	; 0x8386 <vfprintf+0x2d4>
    8382:	81 2c       	mov	r8, r1
    8384:	91 2c       	mov	r9, r1
    8386:	c6 01       	movw	r24, r12
    8388:	88 19       	sub	r24, r8
    838a:	99 09       	sbc	r25, r9
    838c:	f3 01       	movw	r30, r6
    838e:	e8 0f       	add	r30, r24
    8390:	f9 1f       	adc	r31, r25
    8392:	ed 87       	std	Y+13, r30	; 0x0d
    8394:	fe 87       	std	Y+14, r31	; 0x0e
    8396:	96 01       	movw	r18, r12
    8398:	24 19       	sub	r18, r4
    839a:	31 09       	sbc	r19, r1
    839c:	2f 87       	std	Y+15, r18	; 0x0f
    839e:	38 8b       	std	Y+16, r19	; 0x10
    83a0:	01 2f       	mov	r16, r17
    83a2:	10 e0       	ldi	r17, 0x00	; 0
    83a4:	11 95       	neg	r17
    83a6:	01 95       	neg	r16
    83a8:	11 09       	sbc	r17, r1
    83aa:	3f ef       	ldi	r19, 0xFF	; 255
    83ac:	83 16       	cp	r8, r19
    83ae:	93 06       	cpc	r9, r19
    83b0:	29 f4       	brne	.+10     	; 0x83bc <vfprintf+0x30a>
    83b2:	b7 01       	movw	r22, r14
    83b4:	8e e2       	ldi	r24, 0x2E	; 46
    83b6:	90 e0       	ldi	r25, 0x00	; 0
    83b8:	0e 94 91 46 	call	0x8d22	; 0x8d22 <fputc>
    83bc:	c8 14       	cp	r12, r8
    83be:	d9 04       	cpc	r13, r9
    83c0:	4c f0       	brlt	.+18     	; 0x83d4 <vfprintf+0x322>
    83c2:	8f 85       	ldd	r24, Y+15	; 0x0f
    83c4:	98 89       	ldd	r25, Y+16	; 0x10
    83c6:	88 15       	cp	r24, r8
    83c8:	99 05       	cpc	r25, r9
    83ca:	24 f4       	brge	.+8      	; 0x83d4 <vfprintf+0x322>
    83cc:	ed 85       	ldd	r30, Y+13	; 0x0d
    83ce:	fe 85       	ldd	r31, Y+14	; 0x0e
    83d0:	81 81       	ldd	r24, Z+1	; 0x01
    83d2:	01 c0       	rjmp	.+2      	; 0x83d6 <vfprintf+0x324>
    83d4:	80 e3       	ldi	r24, 0x30	; 48
    83d6:	f1 e0       	ldi	r31, 0x01	; 1
    83d8:	8f 1a       	sub	r8, r31
    83da:	91 08       	sbc	r9, r1
    83dc:	2d 85       	ldd	r18, Y+13	; 0x0d
    83de:	3e 85       	ldd	r19, Y+14	; 0x0e
    83e0:	2f 5f       	subi	r18, 0xFF	; 255
    83e2:	3f 4f       	sbci	r19, 0xFF	; 255
    83e4:	2d 87       	std	Y+13, r18	; 0x0d
    83e6:	3e 87       	std	Y+14, r19	; 0x0e
    83e8:	80 16       	cp	r8, r16
    83ea:	91 06       	cpc	r9, r17
    83ec:	2c f0       	brlt	.+10     	; 0x83f8 <vfprintf+0x346>
    83ee:	b7 01       	movw	r22, r14
    83f0:	90 e0       	ldi	r25, 0x00	; 0
    83f2:	0e 94 91 46 	call	0x8d22	; 0x8d22 <fputc>
    83f6:	d9 cf       	rjmp	.-78     	; 0x83aa <vfprintf+0x2f8>
    83f8:	c8 14       	cp	r12, r8
    83fa:	d9 04       	cpc	r13, r9
    83fc:	41 f4       	brne	.+16     	; 0x840e <vfprintf+0x35c>
    83fe:	9a 81       	ldd	r25, Y+2	; 0x02
    8400:	96 33       	cpi	r25, 0x36	; 54
    8402:	20 f4       	brcc	.+8      	; 0x840c <vfprintf+0x35a>
    8404:	95 33       	cpi	r25, 0x35	; 53
    8406:	19 f4       	brne	.+6      	; 0x840e <vfprintf+0x35c>
    8408:	3c 85       	ldd	r19, Y+12	; 0x0c
    840a:	34 ff       	sbrs	r19, 4
    840c:	81 e3       	ldi	r24, 0x31	; 49
    840e:	b7 01       	movw	r22, r14
    8410:	90 e0       	ldi	r25, 0x00	; 0
    8412:	4e c0       	rjmp	.+156    	; 0x84b0 <vfprintf+0x3fe>
    8414:	8a 81       	ldd	r24, Y+2	; 0x02
    8416:	81 33       	cpi	r24, 0x31	; 49
    8418:	19 f0       	breq	.+6      	; 0x8420 <vfprintf+0x36e>
    841a:	9c 85       	ldd	r25, Y+12	; 0x0c
    841c:	9f 7e       	andi	r25, 0xEF	; 239
    841e:	9c 87       	std	Y+12, r25	; 0x0c
    8420:	b7 01       	movw	r22, r14
    8422:	90 e0       	ldi	r25, 0x00	; 0
    8424:	0e 94 91 46 	call	0x8d22	; 0x8d22 <fputc>
    8428:	11 11       	cpse	r17, r1
    842a:	05 c0       	rjmp	.+10     	; 0x8436 <vfprintf+0x384>
    842c:	94 fc       	sbrc	r9, 4
    842e:	18 c0       	rjmp	.+48     	; 0x8460 <vfprintf+0x3ae>
    8430:	85 e6       	ldi	r24, 0x65	; 101
    8432:	90 e0       	ldi	r25, 0x00	; 0
    8434:	17 c0       	rjmp	.+46     	; 0x8464 <vfprintf+0x3b2>
    8436:	b7 01       	movw	r22, r14
    8438:	8e e2       	ldi	r24, 0x2E	; 46
    843a:	90 e0       	ldi	r25, 0x00	; 0
    843c:	0e 94 91 46 	call	0x8d22	; 0x8d22 <fputc>
    8440:	1e 5f       	subi	r17, 0xFE	; 254
    8442:	82 e0       	ldi	r24, 0x02	; 2
    8444:	01 e0       	ldi	r16, 0x01	; 1
    8446:	08 0f       	add	r16, r24
    8448:	f3 01       	movw	r30, r6
    844a:	e8 0f       	add	r30, r24
    844c:	f1 1d       	adc	r31, r1
    844e:	80 81       	ld	r24, Z
    8450:	b7 01       	movw	r22, r14
    8452:	90 e0       	ldi	r25, 0x00	; 0
    8454:	0e 94 91 46 	call	0x8d22	; 0x8d22 <fputc>
    8458:	80 2f       	mov	r24, r16
    845a:	01 13       	cpse	r16, r17
    845c:	f3 cf       	rjmp	.-26     	; 0x8444 <vfprintf+0x392>
    845e:	e6 cf       	rjmp	.-52     	; 0x842c <vfprintf+0x37a>
    8460:	85 e4       	ldi	r24, 0x45	; 69
    8462:	90 e0       	ldi	r25, 0x00	; 0
    8464:	b7 01       	movw	r22, r14
    8466:	0e 94 91 46 	call	0x8d22	; 0x8d22 <fputc>
    846a:	d7 fc       	sbrc	r13, 7
    846c:	06 c0       	rjmp	.+12     	; 0x847a <vfprintf+0x3c8>
    846e:	c1 14       	cp	r12, r1
    8470:	d1 04       	cpc	r13, r1
    8472:	41 f4       	brne	.+16     	; 0x8484 <vfprintf+0x3d2>
    8474:	ec 85       	ldd	r30, Y+12	; 0x0c
    8476:	e4 ff       	sbrs	r30, 4
    8478:	05 c0       	rjmp	.+10     	; 0x8484 <vfprintf+0x3d2>
    847a:	d1 94       	neg	r13
    847c:	c1 94       	neg	r12
    847e:	d1 08       	sbc	r13, r1
    8480:	8d e2       	ldi	r24, 0x2D	; 45
    8482:	01 c0       	rjmp	.+2      	; 0x8486 <vfprintf+0x3d4>
    8484:	8b e2       	ldi	r24, 0x2B	; 43
    8486:	b7 01       	movw	r22, r14
    8488:	90 e0       	ldi	r25, 0x00	; 0
    848a:	0e 94 91 46 	call	0x8d22	; 0x8d22 <fputc>
    848e:	80 e3       	ldi	r24, 0x30	; 48
    8490:	2a e0       	ldi	r18, 0x0A	; 10
    8492:	c2 16       	cp	r12, r18
    8494:	d1 04       	cpc	r13, r1
    8496:	2c f0       	brlt	.+10     	; 0x84a2 <vfprintf+0x3f0>
    8498:	8f 5f       	subi	r24, 0xFF	; 255
    849a:	fa e0       	ldi	r31, 0x0A	; 10
    849c:	cf 1a       	sub	r12, r31
    849e:	d1 08       	sbc	r13, r1
    84a0:	f7 cf       	rjmp	.-18     	; 0x8490 <vfprintf+0x3de>
    84a2:	b7 01       	movw	r22, r14
    84a4:	90 e0       	ldi	r25, 0x00	; 0
    84a6:	0e 94 91 46 	call	0x8d22	; 0x8d22 <fputc>
    84aa:	b7 01       	movw	r22, r14
    84ac:	c6 01       	movw	r24, r12
    84ae:	c0 96       	adiw	r24, 0x30	; 48
    84b0:	0e 94 91 46 	call	0x8d22	; 0x8d22 <fputc>
    84b4:	54 c1       	rjmp	.+680    	; 0x875e <vfprintf+0x6ac>
    84b6:	83 36       	cpi	r24, 0x63	; 99
    84b8:	31 f0       	breq	.+12     	; 0x84c6 <vfprintf+0x414>
    84ba:	83 37       	cpi	r24, 0x73	; 115
    84bc:	79 f0       	breq	.+30     	; 0x84dc <vfprintf+0x42a>
    84be:	83 35       	cpi	r24, 0x53	; 83
    84c0:	09 f0       	breq	.+2      	; 0x84c4 <vfprintf+0x412>
    84c2:	56 c0       	rjmp	.+172    	; 0x8570 <vfprintf+0x4be>
    84c4:	20 c0       	rjmp	.+64     	; 0x8506 <vfprintf+0x454>
    84c6:	56 01       	movw	r10, r12
    84c8:	32 e0       	ldi	r19, 0x02	; 2
    84ca:	a3 0e       	add	r10, r19
    84cc:	b1 1c       	adc	r11, r1
    84ce:	f6 01       	movw	r30, r12
    84d0:	80 81       	ld	r24, Z
    84d2:	89 83       	std	Y+1, r24	; 0x01
    84d4:	01 e0       	ldi	r16, 0x01	; 1
    84d6:	10 e0       	ldi	r17, 0x00	; 0
    84d8:	63 01       	movw	r12, r6
    84da:	12 c0       	rjmp	.+36     	; 0x8500 <vfprintf+0x44e>
    84dc:	56 01       	movw	r10, r12
    84de:	f2 e0       	ldi	r31, 0x02	; 2
    84e0:	af 0e       	add	r10, r31
    84e2:	b1 1c       	adc	r11, r1
    84e4:	f6 01       	movw	r30, r12
    84e6:	c0 80       	ld	r12, Z
    84e8:	d1 80       	ldd	r13, Z+1	; 0x01
    84ea:	96 fe       	sbrs	r9, 6
    84ec:	03 c0       	rjmp	.+6      	; 0x84f4 <vfprintf+0x442>
    84ee:	61 2f       	mov	r22, r17
    84f0:	70 e0       	ldi	r23, 0x00	; 0
    84f2:	02 c0       	rjmp	.+4      	; 0x84f8 <vfprintf+0x446>
    84f4:	6f ef       	ldi	r22, 0xFF	; 255
    84f6:	7f ef       	ldi	r23, 0xFF	; 255
    84f8:	c6 01       	movw	r24, r12
    84fa:	0e 94 3b 46 	call	0x8c76	; 0x8c76 <strnlen>
    84fe:	8c 01       	movw	r16, r24
    8500:	f9 2d       	mov	r31, r9
    8502:	ff 77       	andi	r31, 0x7F	; 127
    8504:	14 c0       	rjmp	.+40     	; 0x852e <vfprintf+0x47c>
    8506:	56 01       	movw	r10, r12
    8508:	22 e0       	ldi	r18, 0x02	; 2
    850a:	a2 0e       	add	r10, r18
    850c:	b1 1c       	adc	r11, r1
    850e:	f6 01       	movw	r30, r12
    8510:	c0 80       	ld	r12, Z
    8512:	d1 80       	ldd	r13, Z+1	; 0x01
    8514:	96 fe       	sbrs	r9, 6
    8516:	03 c0       	rjmp	.+6      	; 0x851e <vfprintf+0x46c>
    8518:	61 2f       	mov	r22, r17
    851a:	70 e0       	ldi	r23, 0x00	; 0
    851c:	02 c0       	rjmp	.+4      	; 0x8522 <vfprintf+0x470>
    851e:	6f ef       	ldi	r22, 0xFF	; 255
    8520:	7f ef       	ldi	r23, 0xFF	; 255
    8522:	c6 01       	movw	r24, r12
    8524:	0e 94 30 46 	call	0x8c60	; 0x8c60 <strnlen_P>
    8528:	8c 01       	movw	r16, r24
    852a:	f9 2d       	mov	r31, r9
    852c:	f0 68       	ori	r31, 0x80	; 128
    852e:	9f 2e       	mov	r9, r31
    8530:	f3 fd       	sbrc	r31, 3
    8532:	1a c0       	rjmp	.+52     	; 0x8568 <vfprintf+0x4b6>
    8534:	85 2d       	mov	r24, r5
    8536:	90 e0       	ldi	r25, 0x00	; 0
    8538:	08 17       	cp	r16, r24
    853a:	19 07       	cpc	r17, r25
    853c:	a8 f4       	brcc	.+42     	; 0x8568 <vfprintf+0x4b6>
    853e:	b7 01       	movw	r22, r14
    8540:	80 e2       	ldi	r24, 0x20	; 32
    8542:	90 e0       	ldi	r25, 0x00	; 0
    8544:	0e 94 91 46 	call	0x8d22	; 0x8d22 <fputc>
    8548:	5a 94       	dec	r5
    854a:	f4 cf       	rjmp	.-24     	; 0x8534 <vfprintf+0x482>
    854c:	f6 01       	movw	r30, r12
    854e:	97 fc       	sbrc	r9, 7
    8550:	85 91       	lpm	r24, Z+
    8552:	97 fe       	sbrs	r9, 7
    8554:	81 91       	ld	r24, Z+
    8556:	6f 01       	movw	r12, r30
    8558:	b7 01       	movw	r22, r14
    855a:	90 e0       	ldi	r25, 0x00	; 0
    855c:	0e 94 91 46 	call	0x8d22	; 0x8d22 <fputc>
    8560:	51 10       	cpse	r5, r1
    8562:	5a 94       	dec	r5
    8564:	01 50       	subi	r16, 0x01	; 1
    8566:	11 09       	sbc	r17, r1
    8568:	01 15       	cp	r16, r1
    856a:	11 05       	cpc	r17, r1
    856c:	79 f7       	brne	.-34     	; 0x854c <vfprintf+0x49a>
    856e:	f7 c0       	rjmp	.+494    	; 0x875e <vfprintf+0x6ac>
    8570:	84 36       	cpi	r24, 0x64	; 100
    8572:	11 f0       	breq	.+4      	; 0x8578 <vfprintf+0x4c6>
    8574:	89 36       	cpi	r24, 0x69	; 105
    8576:	61 f5       	brne	.+88     	; 0x85d0 <vfprintf+0x51e>
    8578:	56 01       	movw	r10, r12
    857a:	97 fe       	sbrs	r9, 7
    857c:	09 c0       	rjmp	.+18     	; 0x8590 <vfprintf+0x4de>
    857e:	24 e0       	ldi	r18, 0x04	; 4
    8580:	a2 0e       	add	r10, r18
    8582:	b1 1c       	adc	r11, r1
    8584:	f6 01       	movw	r30, r12
    8586:	60 81       	ld	r22, Z
    8588:	71 81       	ldd	r23, Z+1	; 0x01
    858a:	82 81       	ldd	r24, Z+2	; 0x02
    858c:	93 81       	ldd	r25, Z+3	; 0x03
    858e:	0a c0       	rjmp	.+20     	; 0x85a4 <vfprintf+0x4f2>
    8590:	f2 e0       	ldi	r31, 0x02	; 2
    8592:	af 0e       	add	r10, r31
    8594:	b1 1c       	adc	r11, r1
    8596:	f6 01       	movw	r30, r12
    8598:	60 81       	ld	r22, Z
    859a:	71 81       	ldd	r23, Z+1	; 0x01
    859c:	07 2e       	mov	r0, r23
    859e:	00 0c       	add	r0, r0
    85a0:	88 0b       	sbc	r24, r24
    85a2:	99 0b       	sbc	r25, r25
    85a4:	f9 2d       	mov	r31, r9
    85a6:	ff 76       	andi	r31, 0x6F	; 111
    85a8:	9f 2e       	mov	r9, r31
    85aa:	97 ff       	sbrs	r25, 7
    85ac:	09 c0       	rjmp	.+18     	; 0x85c0 <vfprintf+0x50e>
    85ae:	90 95       	com	r25
    85b0:	80 95       	com	r24
    85b2:	70 95       	com	r23
    85b4:	61 95       	neg	r22
    85b6:	7f 4f       	sbci	r23, 0xFF	; 255
    85b8:	8f 4f       	sbci	r24, 0xFF	; 255
    85ba:	9f 4f       	sbci	r25, 0xFF	; 255
    85bc:	f0 68       	ori	r31, 0x80	; 128
    85be:	9f 2e       	mov	r9, r31
    85c0:	2a e0       	ldi	r18, 0x0A	; 10
    85c2:	30 e0       	ldi	r19, 0x00	; 0
    85c4:	a3 01       	movw	r20, r6
    85c6:	0e 94 11 47 	call	0x8e22	; 0x8e22 <__ultoa_invert>
    85ca:	c8 2e       	mov	r12, r24
    85cc:	c6 18       	sub	r12, r6
    85ce:	3f c0       	rjmp	.+126    	; 0x864e <vfprintf+0x59c>
    85d0:	09 2d       	mov	r16, r9
    85d2:	85 37       	cpi	r24, 0x75	; 117
    85d4:	21 f4       	brne	.+8      	; 0x85de <vfprintf+0x52c>
    85d6:	0f 7e       	andi	r16, 0xEF	; 239
    85d8:	2a e0       	ldi	r18, 0x0A	; 10
    85da:	30 e0       	ldi	r19, 0x00	; 0
    85dc:	1d c0       	rjmp	.+58     	; 0x8618 <vfprintf+0x566>
    85de:	09 7f       	andi	r16, 0xF9	; 249
    85e0:	8f 36       	cpi	r24, 0x6F	; 111
    85e2:	91 f0       	breq	.+36     	; 0x8608 <vfprintf+0x556>
    85e4:	18 f4       	brcc	.+6      	; 0x85ec <vfprintf+0x53a>
    85e6:	88 35       	cpi	r24, 0x58	; 88
    85e8:	59 f0       	breq	.+22     	; 0x8600 <vfprintf+0x54e>
    85ea:	c3 c0       	rjmp	.+390    	; 0x8772 <vfprintf+0x6c0>
    85ec:	80 37       	cpi	r24, 0x70	; 112
    85ee:	19 f0       	breq	.+6      	; 0x85f6 <vfprintf+0x544>
    85f0:	88 37       	cpi	r24, 0x78	; 120
    85f2:	11 f0       	breq	.+4      	; 0x85f8 <vfprintf+0x546>
    85f4:	be c0       	rjmp	.+380    	; 0x8772 <vfprintf+0x6c0>
    85f6:	00 61       	ori	r16, 0x10	; 16
    85f8:	04 ff       	sbrs	r16, 4
    85fa:	09 c0       	rjmp	.+18     	; 0x860e <vfprintf+0x55c>
    85fc:	04 60       	ori	r16, 0x04	; 4
    85fe:	07 c0       	rjmp	.+14     	; 0x860e <vfprintf+0x55c>
    8600:	94 fe       	sbrs	r9, 4
    8602:	08 c0       	rjmp	.+16     	; 0x8614 <vfprintf+0x562>
    8604:	06 60       	ori	r16, 0x06	; 6
    8606:	06 c0       	rjmp	.+12     	; 0x8614 <vfprintf+0x562>
    8608:	28 e0       	ldi	r18, 0x08	; 8
    860a:	30 e0       	ldi	r19, 0x00	; 0
    860c:	05 c0       	rjmp	.+10     	; 0x8618 <vfprintf+0x566>
    860e:	20 e1       	ldi	r18, 0x10	; 16
    8610:	30 e0       	ldi	r19, 0x00	; 0
    8612:	02 c0       	rjmp	.+4      	; 0x8618 <vfprintf+0x566>
    8614:	20 e1       	ldi	r18, 0x10	; 16
    8616:	32 e0       	ldi	r19, 0x02	; 2
    8618:	56 01       	movw	r10, r12
    861a:	07 ff       	sbrs	r16, 7
    861c:	09 c0       	rjmp	.+18     	; 0x8630 <vfprintf+0x57e>
    861e:	84 e0       	ldi	r24, 0x04	; 4
    8620:	a8 0e       	add	r10, r24
    8622:	b1 1c       	adc	r11, r1
    8624:	f6 01       	movw	r30, r12
    8626:	60 81       	ld	r22, Z
    8628:	71 81       	ldd	r23, Z+1	; 0x01
    862a:	82 81       	ldd	r24, Z+2	; 0x02
    862c:	93 81       	ldd	r25, Z+3	; 0x03
    862e:	08 c0       	rjmp	.+16     	; 0x8640 <vfprintf+0x58e>
    8630:	f2 e0       	ldi	r31, 0x02	; 2
    8632:	af 0e       	add	r10, r31
    8634:	b1 1c       	adc	r11, r1
    8636:	f6 01       	movw	r30, r12
    8638:	60 81       	ld	r22, Z
    863a:	71 81       	ldd	r23, Z+1	; 0x01
    863c:	80 e0       	ldi	r24, 0x00	; 0
    863e:	90 e0       	ldi	r25, 0x00	; 0
    8640:	a3 01       	movw	r20, r6
    8642:	0e 94 11 47 	call	0x8e22	; 0x8e22 <__ultoa_invert>
    8646:	c8 2e       	mov	r12, r24
    8648:	c6 18       	sub	r12, r6
    864a:	0f 77       	andi	r16, 0x7F	; 127
    864c:	90 2e       	mov	r9, r16
    864e:	96 fe       	sbrs	r9, 6
    8650:	0b c0       	rjmp	.+22     	; 0x8668 <vfprintf+0x5b6>
    8652:	09 2d       	mov	r16, r9
    8654:	0e 7f       	andi	r16, 0xFE	; 254
    8656:	c1 16       	cp	r12, r17
    8658:	50 f4       	brcc	.+20     	; 0x866e <vfprintf+0x5bc>
    865a:	94 fe       	sbrs	r9, 4
    865c:	0a c0       	rjmp	.+20     	; 0x8672 <vfprintf+0x5c0>
    865e:	92 fc       	sbrc	r9, 2
    8660:	08 c0       	rjmp	.+16     	; 0x8672 <vfprintf+0x5c0>
    8662:	09 2d       	mov	r16, r9
    8664:	0e 7e       	andi	r16, 0xEE	; 238
    8666:	05 c0       	rjmp	.+10     	; 0x8672 <vfprintf+0x5c0>
    8668:	dc 2c       	mov	r13, r12
    866a:	09 2d       	mov	r16, r9
    866c:	03 c0       	rjmp	.+6      	; 0x8674 <vfprintf+0x5c2>
    866e:	dc 2c       	mov	r13, r12
    8670:	01 c0       	rjmp	.+2      	; 0x8674 <vfprintf+0x5c2>
    8672:	d1 2e       	mov	r13, r17
    8674:	04 ff       	sbrs	r16, 4
    8676:	0d c0       	rjmp	.+26     	; 0x8692 <vfprintf+0x5e0>
    8678:	fe 01       	movw	r30, r28
    867a:	ec 0d       	add	r30, r12
    867c:	f1 1d       	adc	r31, r1
    867e:	80 81       	ld	r24, Z
    8680:	80 33       	cpi	r24, 0x30	; 48
    8682:	11 f4       	brne	.+4      	; 0x8688 <vfprintf+0x5d6>
    8684:	09 7e       	andi	r16, 0xE9	; 233
    8686:	09 c0       	rjmp	.+18     	; 0x869a <vfprintf+0x5e8>
    8688:	02 ff       	sbrs	r16, 2
    868a:	06 c0       	rjmp	.+12     	; 0x8698 <vfprintf+0x5e6>
    868c:	d3 94       	inc	r13
    868e:	d3 94       	inc	r13
    8690:	04 c0       	rjmp	.+8      	; 0x869a <vfprintf+0x5e8>
    8692:	80 2f       	mov	r24, r16
    8694:	86 78       	andi	r24, 0x86	; 134
    8696:	09 f0       	breq	.+2      	; 0x869a <vfprintf+0x5e8>
    8698:	d3 94       	inc	r13
    869a:	03 fd       	sbrc	r16, 3
    869c:	11 c0       	rjmp	.+34     	; 0x86c0 <vfprintf+0x60e>
    869e:	00 ff       	sbrs	r16, 0
    86a0:	06 c0       	rjmp	.+12     	; 0x86ae <vfprintf+0x5fc>
    86a2:	1c 2d       	mov	r17, r12
    86a4:	d5 14       	cp	r13, r5
    86a6:	80 f4       	brcc	.+32     	; 0x86c8 <vfprintf+0x616>
    86a8:	15 0d       	add	r17, r5
    86aa:	1d 19       	sub	r17, r13
    86ac:	0d c0       	rjmp	.+26     	; 0x86c8 <vfprintf+0x616>
    86ae:	d5 14       	cp	r13, r5
    86b0:	58 f4       	brcc	.+22     	; 0x86c8 <vfprintf+0x616>
    86b2:	b7 01       	movw	r22, r14
    86b4:	80 e2       	ldi	r24, 0x20	; 32
    86b6:	90 e0       	ldi	r25, 0x00	; 0
    86b8:	0e 94 91 46 	call	0x8d22	; 0x8d22 <fputc>
    86bc:	d3 94       	inc	r13
    86be:	f7 cf       	rjmp	.-18     	; 0x86ae <vfprintf+0x5fc>
    86c0:	d5 14       	cp	r13, r5
    86c2:	10 f4       	brcc	.+4      	; 0x86c8 <vfprintf+0x616>
    86c4:	5d 18       	sub	r5, r13
    86c6:	01 c0       	rjmp	.+2      	; 0x86ca <vfprintf+0x618>
    86c8:	51 2c       	mov	r5, r1
    86ca:	04 ff       	sbrs	r16, 4
    86cc:	10 c0       	rjmp	.+32     	; 0x86ee <vfprintf+0x63c>
    86ce:	b7 01       	movw	r22, r14
    86d0:	80 e3       	ldi	r24, 0x30	; 48
    86d2:	90 e0       	ldi	r25, 0x00	; 0
    86d4:	0e 94 91 46 	call	0x8d22	; 0x8d22 <fputc>
    86d8:	02 ff       	sbrs	r16, 2
    86da:	17 c0       	rjmp	.+46     	; 0x870a <vfprintf+0x658>
    86dc:	01 fd       	sbrc	r16, 1
    86de:	03 c0       	rjmp	.+6      	; 0x86e6 <vfprintf+0x634>
    86e0:	88 e7       	ldi	r24, 0x78	; 120
    86e2:	90 e0       	ldi	r25, 0x00	; 0
    86e4:	02 c0       	rjmp	.+4      	; 0x86ea <vfprintf+0x638>
    86e6:	88 e5       	ldi	r24, 0x58	; 88
    86e8:	90 e0       	ldi	r25, 0x00	; 0
    86ea:	b7 01       	movw	r22, r14
    86ec:	0c c0       	rjmp	.+24     	; 0x8706 <vfprintf+0x654>
    86ee:	80 2f       	mov	r24, r16
    86f0:	86 78       	andi	r24, 0x86	; 134
    86f2:	59 f0       	breq	.+22     	; 0x870a <vfprintf+0x658>
    86f4:	01 ff       	sbrs	r16, 1
    86f6:	02 c0       	rjmp	.+4      	; 0x86fc <vfprintf+0x64a>
    86f8:	8b e2       	ldi	r24, 0x2B	; 43
    86fa:	01 c0       	rjmp	.+2      	; 0x86fe <vfprintf+0x64c>
    86fc:	80 e2       	ldi	r24, 0x20	; 32
    86fe:	07 fd       	sbrc	r16, 7
    8700:	8d e2       	ldi	r24, 0x2D	; 45
    8702:	b7 01       	movw	r22, r14
    8704:	90 e0       	ldi	r25, 0x00	; 0
    8706:	0e 94 91 46 	call	0x8d22	; 0x8d22 <fputc>
    870a:	c1 16       	cp	r12, r17
    870c:	38 f4       	brcc	.+14     	; 0x871c <vfprintf+0x66a>
    870e:	b7 01       	movw	r22, r14
    8710:	80 e3       	ldi	r24, 0x30	; 48
    8712:	90 e0       	ldi	r25, 0x00	; 0
    8714:	0e 94 91 46 	call	0x8d22	; 0x8d22 <fputc>
    8718:	11 50       	subi	r17, 0x01	; 1
    871a:	f7 cf       	rjmp	.-18     	; 0x870a <vfprintf+0x658>
    871c:	ca 94       	dec	r12
    871e:	f3 01       	movw	r30, r6
    8720:	ec 0d       	add	r30, r12
    8722:	f1 1d       	adc	r31, r1
    8724:	80 81       	ld	r24, Z
    8726:	b7 01       	movw	r22, r14
    8728:	90 e0       	ldi	r25, 0x00	; 0
    872a:	0e 94 91 46 	call	0x8d22	; 0x8d22 <fputc>
    872e:	c1 10       	cpse	r12, r1
    8730:	f5 cf       	rjmp	.-22     	; 0x871c <vfprintf+0x66a>
    8732:	15 c0       	rjmp	.+42     	; 0x875e <vfprintf+0x6ac>
    8734:	f4 e0       	ldi	r31, 0x04	; 4
    8736:	f5 15       	cp	r31, r5
    8738:	60 f5       	brcc	.+88     	; 0x8792 <vfprintf+0x6e0>
    873a:	84 e0       	ldi	r24, 0x04	; 4
    873c:	58 1a       	sub	r5, r24
    873e:	93 fe       	sbrs	r9, 3
    8740:	1f c0       	rjmp	.+62     	; 0x8780 <vfprintf+0x6ce>
    8742:	01 11       	cpse	r16, r1
    8744:	27 c0       	rjmp	.+78     	; 0x8794 <vfprintf+0x6e2>
    8746:	2c 85       	ldd	r18, Y+12	; 0x0c
    8748:	23 ff       	sbrs	r18, 3
    874a:	2a c0       	rjmp	.+84     	; 0x87a0 <vfprintf+0x6ee>
    874c:	0c e2       	ldi	r16, 0x2C	; 44
    874e:	17 e0       	ldi	r17, 0x07	; 7
    8750:	39 2d       	mov	r19, r9
    8752:	30 71       	andi	r19, 0x10	; 16
    8754:	93 2e       	mov	r9, r19
    8756:	f8 01       	movw	r30, r16
    8758:	84 91       	lpm	r24, Z
    875a:	81 11       	cpse	r24, r1
    875c:	24 c0       	rjmp	.+72     	; 0x87a6 <vfprintf+0x6f4>
    875e:	55 20       	and	r5, r5
    8760:	09 f4       	brne	.+2      	; 0x8764 <vfprintf+0x6b2>
    8762:	e4 cc       	rjmp	.-1592   	; 0x812c <vfprintf+0x7a>
    8764:	b7 01       	movw	r22, r14
    8766:	80 e2       	ldi	r24, 0x20	; 32
    8768:	90 e0       	ldi	r25, 0x00	; 0
    876a:	0e 94 91 46 	call	0x8d22	; 0x8d22 <fputc>
    876e:	5a 94       	dec	r5
    8770:	f6 cf       	rjmp	.-20     	; 0x875e <vfprintf+0x6ac>
    8772:	f7 01       	movw	r30, r14
    8774:	86 81       	ldd	r24, Z+6	; 0x06
    8776:	97 81       	ldd	r25, Z+7	; 0x07
    8778:	26 c0       	rjmp	.+76     	; 0x87c6 <vfprintf+0x714>
    877a:	8f ef       	ldi	r24, 0xFF	; 255
    877c:	9f ef       	ldi	r25, 0xFF	; 255
    877e:	23 c0       	rjmp	.+70     	; 0x87c6 <vfprintf+0x714>
    8780:	b7 01       	movw	r22, r14
    8782:	80 e2       	ldi	r24, 0x20	; 32
    8784:	90 e0       	ldi	r25, 0x00	; 0
    8786:	0e 94 91 46 	call	0x8d22	; 0x8d22 <fputc>
    878a:	5a 94       	dec	r5
    878c:	51 10       	cpse	r5, r1
    878e:	f8 cf       	rjmp	.-16     	; 0x8780 <vfprintf+0x6ce>
    8790:	d8 cf       	rjmp	.-80     	; 0x8742 <vfprintf+0x690>
    8792:	51 2c       	mov	r5, r1
    8794:	b7 01       	movw	r22, r14
    8796:	80 2f       	mov	r24, r16
    8798:	90 e0       	ldi	r25, 0x00	; 0
    879a:	0e 94 91 46 	call	0x8d22	; 0x8d22 <fputc>
    879e:	d3 cf       	rjmp	.-90     	; 0x8746 <vfprintf+0x694>
    87a0:	00 e3       	ldi	r16, 0x30	; 48
    87a2:	17 e0       	ldi	r17, 0x07	; 7
    87a4:	d5 cf       	rjmp	.-86     	; 0x8750 <vfprintf+0x69e>
    87a6:	91 10       	cpse	r9, r1
    87a8:	80 52       	subi	r24, 0x20	; 32
    87aa:	b7 01       	movw	r22, r14
    87ac:	90 e0       	ldi	r25, 0x00	; 0
    87ae:	0e 94 91 46 	call	0x8d22	; 0x8d22 <fputc>
    87b2:	0f 5f       	subi	r16, 0xFF	; 255
    87b4:	1f 4f       	sbci	r17, 0xFF	; 255
    87b6:	cf cf       	rjmp	.-98     	; 0x8756 <vfprintf+0x6a4>
    87b8:	23 e0       	ldi	r18, 0x03	; 3
    87ba:	25 15       	cp	r18, r5
    87bc:	10 f4       	brcc	.+4      	; 0x87c2 <vfprintf+0x710>
    87be:	83 e0       	ldi	r24, 0x03	; 3
    87c0:	bd cf       	rjmp	.-134    	; 0x873c <vfprintf+0x68a>
    87c2:	51 2c       	mov	r5, r1
    87c4:	c0 cf       	rjmp	.-128    	; 0x8746 <vfprintf+0x694>
    87c6:	60 96       	adiw	r28, 0x10	; 16
    87c8:	cd bf       	out	0x3d, r28	; 61
    87ca:	de bf       	out	0x3e, r29	; 62
    87cc:	df 91       	pop	r29
    87ce:	cf 91       	pop	r28
    87d0:	1f 91       	pop	r17
    87d2:	0f 91       	pop	r16
    87d4:	ff 90       	pop	r15
    87d6:	ef 90       	pop	r14
    87d8:	df 90       	pop	r13
    87da:	cf 90       	pop	r12
    87dc:	bf 90       	pop	r11
    87de:	af 90       	pop	r10
    87e0:	9f 90       	pop	r9
    87e2:	8f 90       	pop	r8
    87e4:	7f 90       	pop	r7
    87e6:	6f 90       	pop	r6
    87e8:	5f 90       	pop	r5
    87ea:	4f 90       	pop	r4
    87ec:	3f 90       	pop	r3
    87ee:	2f 90       	pop	r2
    87f0:	08 95       	ret

000087f2 <__udivmodsi4>:
    87f2:	a1 e2       	ldi	r26, 0x21	; 33
    87f4:	1a 2e       	mov	r1, r26
    87f6:	aa 1b       	sub	r26, r26
    87f8:	bb 1b       	sub	r27, r27
    87fa:	fd 01       	movw	r30, r26
    87fc:	0d c0       	rjmp	.+26     	; 0x8818 <__udivmodsi4_ep>

000087fe <__udivmodsi4_loop>:
    87fe:	aa 1f       	adc	r26, r26
    8800:	bb 1f       	adc	r27, r27
    8802:	ee 1f       	adc	r30, r30
    8804:	ff 1f       	adc	r31, r31
    8806:	a2 17       	cp	r26, r18
    8808:	b3 07       	cpc	r27, r19
    880a:	e4 07       	cpc	r30, r20
    880c:	f5 07       	cpc	r31, r21
    880e:	20 f0       	brcs	.+8      	; 0x8818 <__udivmodsi4_ep>
    8810:	a2 1b       	sub	r26, r18
    8812:	b3 0b       	sbc	r27, r19
    8814:	e4 0b       	sbc	r30, r20
    8816:	f5 0b       	sbc	r31, r21

00008818 <__udivmodsi4_ep>:
    8818:	66 1f       	adc	r22, r22
    881a:	77 1f       	adc	r23, r23
    881c:	88 1f       	adc	r24, r24
    881e:	99 1f       	adc	r25, r25
    8820:	1a 94       	dec	r1
    8822:	69 f7       	brne	.-38     	; 0x87fe <__udivmodsi4_loop>
    8824:	60 95       	com	r22
    8826:	70 95       	com	r23
    8828:	80 95       	com	r24
    882a:	90 95       	com	r25
    882c:	9b 01       	movw	r18, r22
    882e:	ac 01       	movw	r20, r24
    8830:	bd 01       	movw	r22, r26
    8832:	cf 01       	movw	r24, r30
    8834:	08 95       	ret

00008836 <__divmodsi4>:
    8836:	05 2e       	mov	r0, r21
    8838:	97 fb       	bst	r25, 7
    883a:	1e f4       	brtc	.+6      	; 0x8842 <__divmodsi4+0xc>
    883c:	00 94       	com	r0
    883e:	0e 94 32 44 	call	0x8864	; 0x8864 <__negsi2>
    8842:	57 fd       	sbrc	r21, 7
    8844:	07 d0       	rcall	.+14     	; 0x8854 <__divmodsi4_neg2>
    8846:	0e 94 f9 43 	call	0x87f2	; 0x87f2 <__udivmodsi4>
    884a:	07 fc       	sbrc	r0, 7
    884c:	03 d0       	rcall	.+6      	; 0x8854 <__divmodsi4_neg2>
    884e:	4e f4       	brtc	.+18     	; 0x8862 <__divmodsi4_exit>
    8850:	0c 94 32 44 	jmp	0x8864	; 0x8864 <__negsi2>

00008854 <__divmodsi4_neg2>:
    8854:	50 95       	com	r21
    8856:	40 95       	com	r20
    8858:	30 95       	com	r19
    885a:	21 95       	neg	r18
    885c:	3f 4f       	sbci	r19, 0xFF	; 255
    885e:	4f 4f       	sbci	r20, 0xFF	; 255
    8860:	5f 4f       	sbci	r21, 0xFF	; 255

00008862 <__divmodsi4_exit>:
    8862:	08 95       	ret

00008864 <__negsi2>:
    8864:	90 95       	com	r25
    8866:	80 95       	com	r24
    8868:	70 95       	com	r23
    886a:	61 95       	neg	r22
    886c:	7f 4f       	sbci	r23, 0xFF	; 255
    886e:	8f 4f       	sbci	r24, 0xFF	; 255
    8870:	9f 4f       	sbci	r25, 0xFF	; 255
    8872:	08 95       	ret

00008874 <__tablejump2__>:
    8874:	ee 0f       	add	r30, r30
    8876:	ff 1f       	adc	r31, r31
    8878:	00 24       	eor	r0, r0
    887a:	00 1c       	adc	r0, r0
    887c:	0b be       	out	0x3b, r0	; 59
    887e:	07 90       	elpm	r0, Z+
    8880:	f6 91       	elpm	r31, Z
    8882:	e0 2d       	mov	r30, r0
    8884:	09 94       	ijmp

00008886 <__umulhisi3>:
    8886:	a2 9f       	mul	r26, r18
    8888:	b0 01       	movw	r22, r0
    888a:	b3 9f       	mul	r27, r19
    888c:	c0 01       	movw	r24, r0
    888e:	a3 9f       	mul	r26, r19
    8890:	70 0d       	add	r23, r0
    8892:	81 1d       	adc	r24, r1
    8894:	11 24       	eor	r1, r1
    8896:	91 1d       	adc	r25, r1
    8898:	b2 9f       	mul	r27, r18
    889a:	70 0d       	add	r23, r0
    889c:	81 1d       	adc	r24, r1
    889e:	11 24       	eor	r1, r1
    88a0:	91 1d       	adc	r25, r1
    88a2:	08 95       	ret

000088a4 <__muluhisi3>:
    88a4:	0e 94 43 44 	call	0x8886	; 0x8886 <__umulhisi3>
    88a8:	a5 9f       	mul	r26, r21
    88aa:	90 0d       	add	r25, r0
    88ac:	b4 9f       	mul	r27, r20
    88ae:	90 0d       	add	r25, r0
    88b0:	a4 9f       	mul	r26, r20
    88b2:	80 0d       	add	r24, r0
    88b4:	91 1d       	adc	r25, r1
    88b6:	11 24       	eor	r1, r1
    88b8:	08 95       	ret

000088ba <__muldi3>:
    88ba:	df 93       	push	r29
    88bc:	cf 93       	push	r28
    88be:	1f 93       	push	r17
    88c0:	0f 93       	push	r16
    88c2:	9a 9d       	mul	r25, r10
    88c4:	f0 2d       	mov	r31, r0
    88c6:	21 9f       	mul	r18, r17
    88c8:	f0 0d       	add	r31, r0
    88ca:	8b 9d       	mul	r24, r11
    88cc:	f0 0d       	add	r31, r0
    88ce:	8a 9d       	mul	r24, r10
    88d0:	e0 2d       	mov	r30, r0
    88d2:	f1 0d       	add	r31, r1
    88d4:	03 9f       	mul	r16, r19
    88d6:	f0 0d       	add	r31, r0
    88d8:	02 9f       	mul	r16, r18
    88da:	e0 0d       	add	r30, r0
    88dc:	f1 1d       	adc	r31, r1
    88de:	4e 9d       	mul	r20, r14
    88e0:	e0 0d       	add	r30, r0
    88e2:	f1 1d       	adc	r31, r1
    88e4:	5e 9d       	mul	r21, r14
    88e6:	f0 0d       	add	r31, r0
    88e8:	4f 9d       	mul	r20, r15
    88ea:	f0 0d       	add	r31, r0
    88ec:	7f 93       	push	r23
    88ee:	6f 93       	push	r22
    88f0:	bf 92       	push	r11
    88f2:	af 92       	push	r10
    88f4:	5f 93       	push	r21
    88f6:	4f 93       	push	r20
    88f8:	d5 01       	movw	r26, r10
    88fa:	0e 94 43 44 	call	0x8886	; 0x8886 <__umulhisi3>
    88fe:	8b 01       	movw	r16, r22
    8900:	ac 01       	movw	r20, r24
    8902:	d7 01       	movw	r26, r14
    8904:	0e 94 43 44 	call	0x8886	; 0x8886 <__umulhisi3>
    8908:	eb 01       	movw	r28, r22
    890a:	e8 0f       	add	r30, r24
    890c:	f9 1f       	adc	r31, r25
    890e:	d6 01       	movw	r26, r12
    8910:	0e 94 ad 44 	call	0x895a	; 0x895a <__muldi3_6>
    8914:	2f 91       	pop	r18
    8916:	3f 91       	pop	r19
    8918:	d6 01       	movw	r26, r12
    891a:	0e 94 43 44 	call	0x8886	; 0x8886 <__umulhisi3>
    891e:	c6 0f       	add	r28, r22
    8920:	d7 1f       	adc	r29, r23
    8922:	e8 1f       	adc	r30, r24
    8924:	f9 1f       	adc	r31, r25
    8926:	af 91       	pop	r26
    8928:	bf 91       	pop	r27
    892a:	0e 94 ad 44 	call	0x895a	; 0x895a <__muldi3_6>
    892e:	2f 91       	pop	r18
    8930:	3f 91       	pop	r19
    8932:	0e 94 43 44 	call	0x8886	; 0x8886 <__umulhisi3>
    8936:	c6 0f       	add	r28, r22
    8938:	d7 1f       	adc	r29, r23
    893a:	e8 1f       	adc	r30, r24
    893c:	f9 1f       	adc	r31, r25
    893e:	d6 01       	movw	r26, r12
    8940:	0e 94 43 44 	call	0x8886	; 0x8886 <__umulhisi3>
    8944:	e6 0f       	add	r30, r22
    8946:	f7 1f       	adc	r31, r23
    8948:	98 01       	movw	r18, r16
    894a:	be 01       	movw	r22, r28
    894c:	cf 01       	movw	r24, r30
    894e:	11 24       	eor	r1, r1
    8950:	0f 91       	pop	r16
    8952:	1f 91       	pop	r17
    8954:	cf 91       	pop	r28
    8956:	df 91       	pop	r29
    8958:	08 95       	ret

0000895a <__muldi3_6>:
    895a:	0e 94 43 44 	call	0x8886	; 0x8886 <__umulhisi3>
    895e:	46 0f       	add	r20, r22
    8960:	57 1f       	adc	r21, r23
    8962:	c8 1f       	adc	r28, r24
    8964:	d9 1f       	adc	r29, r25
    8966:	08 f4       	brcc	.+2      	; 0x896a <__muldi3_6+0x10>
    8968:	31 96       	adiw	r30, 0x01	; 1
    896a:	08 95       	ret

0000896c <__umoddi3>:
    896c:	68 94       	set
    896e:	01 c0       	rjmp	.+2      	; 0x8972 <__udivdi3_umoddi3>

00008970 <__udivdi3>:
    8970:	e8 94       	clt

00008972 <__udivdi3_umoddi3>:
    8972:	8f 92       	push	r8
    8974:	9f 92       	push	r9
    8976:	cf 93       	push	r28
    8978:	df 93       	push	r29
    897a:	0e 94 c4 44 	call	0x8988	; 0x8988 <__udivmod64>
    897e:	df 91       	pop	r29
    8980:	cf 91       	pop	r28
    8982:	9f 90       	pop	r9
    8984:	8f 90       	pop	r8
    8986:	08 95       	ret

00008988 <__udivmod64>:
    8988:	88 24       	eor	r8, r8
    898a:	99 24       	eor	r9, r9
    898c:	f4 01       	movw	r30, r8
    898e:	e4 01       	movw	r28, r8
    8990:	b0 e4       	ldi	r27, 0x40	; 64
    8992:	9f 93       	push	r25
    8994:	aa 27       	eor	r26, r26
    8996:	9a 15       	cp	r25, r10
    8998:	8b 04       	cpc	r8, r11
    899a:	9c 04       	cpc	r9, r12
    899c:	ed 05       	cpc	r30, r13
    899e:	fe 05       	cpc	r31, r14
    89a0:	cf 05       	cpc	r28, r15
    89a2:	d0 07       	cpc	r29, r16
    89a4:	a1 07       	cpc	r26, r17
    89a6:	98 f4       	brcc	.+38     	; 0x89ce <__udivmod64+0x46>
    89a8:	ad 2f       	mov	r26, r29
    89aa:	dc 2f       	mov	r29, r28
    89ac:	cf 2f       	mov	r28, r31
    89ae:	fe 2f       	mov	r31, r30
    89b0:	e9 2d       	mov	r30, r9
    89b2:	98 2c       	mov	r9, r8
    89b4:	89 2e       	mov	r8, r25
    89b6:	98 2f       	mov	r25, r24
    89b8:	87 2f       	mov	r24, r23
    89ba:	76 2f       	mov	r23, r22
    89bc:	65 2f       	mov	r22, r21
    89be:	54 2f       	mov	r21, r20
    89c0:	43 2f       	mov	r20, r19
    89c2:	32 2f       	mov	r19, r18
    89c4:	22 27       	eor	r18, r18
    89c6:	b8 50       	subi	r27, 0x08	; 8
    89c8:	31 f7       	brne	.-52     	; 0x8996 <__udivmod64+0xe>
    89ca:	bf 91       	pop	r27
    89cc:	27 c0       	rjmp	.+78     	; 0x8a1c <__udivmod64+0x94>
    89ce:	1b 2e       	mov	r1, r27
    89d0:	bf 91       	pop	r27
    89d2:	bb 27       	eor	r27, r27
    89d4:	22 0f       	add	r18, r18
    89d6:	33 1f       	adc	r19, r19
    89d8:	44 1f       	adc	r20, r20
    89da:	55 1f       	adc	r21, r21
    89dc:	66 1f       	adc	r22, r22
    89de:	77 1f       	adc	r23, r23
    89e0:	88 1f       	adc	r24, r24
    89e2:	99 1f       	adc	r25, r25
    89e4:	88 1c       	adc	r8, r8
    89e6:	99 1c       	adc	r9, r9
    89e8:	ee 1f       	adc	r30, r30
    89ea:	ff 1f       	adc	r31, r31
    89ec:	cc 1f       	adc	r28, r28
    89ee:	dd 1f       	adc	r29, r29
    89f0:	aa 1f       	adc	r26, r26
    89f2:	bb 1f       	adc	r27, r27
    89f4:	8a 14       	cp	r8, r10
    89f6:	9b 04       	cpc	r9, r11
    89f8:	ec 05       	cpc	r30, r12
    89fa:	fd 05       	cpc	r31, r13
    89fc:	ce 05       	cpc	r28, r14
    89fe:	df 05       	cpc	r29, r15
    8a00:	a0 07       	cpc	r26, r16
    8a02:	b1 07       	cpc	r27, r17
    8a04:	48 f0       	brcs	.+18     	; 0x8a18 <__udivmod64+0x90>
    8a06:	8a 18       	sub	r8, r10
    8a08:	9b 08       	sbc	r9, r11
    8a0a:	ec 09       	sbc	r30, r12
    8a0c:	fd 09       	sbc	r31, r13
    8a0e:	ce 09       	sbc	r28, r14
    8a10:	df 09       	sbc	r29, r15
    8a12:	a0 0b       	sbc	r26, r16
    8a14:	b1 0b       	sbc	r27, r17
    8a16:	21 60       	ori	r18, 0x01	; 1
    8a18:	1a 94       	dec	r1
    8a1a:	e1 f6       	brne	.-72     	; 0x89d4 <__udivmod64+0x4c>
    8a1c:	2e f4       	brtc	.+10     	; 0x8a28 <__udivmod64+0xa0>
    8a1e:	94 01       	movw	r18, r8
    8a20:	af 01       	movw	r20, r30
    8a22:	be 01       	movw	r22, r28
    8a24:	cd 01       	movw	r24, r26
    8a26:	00 0c       	add	r0, r0
    8a28:	08 95       	ret

00008a2a <__ashldi3>:
    8a2a:	0f 93       	push	r16
    8a2c:	08 30       	cpi	r16, 0x08	; 8
    8a2e:	90 f0       	brcs	.+36     	; 0x8a54 <__ashldi3+0x2a>
    8a30:	98 2f       	mov	r25, r24
    8a32:	87 2f       	mov	r24, r23
    8a34:	76 2f       	mov	r23, r22
    8a36:	65 2f       	mov	r22, r21
    8a38:	54 2f       	mov	r21, r20
    8a3a:	43 2f       	mov	r20, r19
    8a3c:	32 2f       	mov	r19, r18
    8a3e:	22 27       	eor	r18, r18
    8a40:	08 50       	subi	r16, 0x08	; 8
    8a42:	f4 cf       	rjmp	.-24     	; 0x8a2c <__ashldi3+0x2>
    8a44:	22 0f       	add	r18, r18
    8a46:	33 1f       	adc	r19, r19
    8a48:	44 1f       	adc	r20, r20
    8a4a:	55 1f       	adc	r21, r21
    8a4c:	66 1f       	adc	r22, r22
    8a4e:	77 1f       	adc	r23, r23
    8a50:	88 1f       	adc	r24, r24
    8a52:	99 1f       	adc	r25, r25
    8a54:	0a 95       	dec	r16
    8a56:	b2 f7       	brpl	.-20     	; 0x8a44 <__ashldi3+0x1a>
    8a58:	0f 91       	pop	r16
    8a5a:	08 95       	ret

00008a5c <__adddi3>:
    8a5c:	2a 0d       	add	r18, r10
    8a5e:	3b 1d       	adc	r19, r11
    8a60:	4c 1d       	adc	r20, r12
    8a62:	5d 1d       	adc	r21, r13
    8a64:	6e 1d       	adc	r22, r14
    8a66:	7f 1d       	adc	r23, r15
    8a68:	80 1f       	adc	r24, r16
    8a6a:	91 1f       	adc	r25, r17
    8a6c:	08 95       	ret

00008a6e <__adddi3_s8>:
    8a6e:	00 24       	eor	r0, r0
    8a70:	a7 fd       	sbrc	r26, 7
    8a72:	00 94       	com	r0
    8a74:	2a 0f       	add	r18, r26
    8a76:	30 1d       	adc	r19, r0
    8a78:	40 1d       	adc	r20, r0
    8a7a:	50 1d       	adc	r21, r0
    8a7c:	60 1d       	adc	r22, r0
    8a7e:	70 1d       	adc	r23, r0
    8a80:	80 1d       	adc	r24, r0
    8a82:	90 1d       	adc	r25, r0
    8a84:	08 95       	ret

00008a86 <__subdi3>:
    8a86:	2a 19       	sub	r18, r10
    8a88:	3b 09       	sbc	r19, r11
    8a8a:	4c 09       	sbc	r20, r12
    8a8c:	5d 09       	sbc	r21, r13
    8a8e:	6e 09       	sbc	r22, r14
    8a90:	7f 09       	sbc	r23, r15
    8a92:	80 0b       	sbc	r24, r16
    8a94:	91 0b       	sbc	r25, r17
    8a96:	08 95       	ret

00008a98 <__cmpdi2_s8>:
    8a98:	00 24       	eor	r0, r0
    8a9a:	a7 fd       	sbrc	r26, 7
    8a9c:	00 94       	com	r0
    8a9e:	2a 17       	cp	r18, r26
    8aa0:	30 05       	cpc	r19, r0
    8aa2:	40 05       	cpc	r20, r0
    8aa4:	50 05       	cpc	r21, r0
    8aa6:	60 05       	cpc	r22, r0
    8aa8:	70 05       	cpc	r23, r0
    8aaa:	80 05       	cpc	r24, r0
    8aac:	90 05       	cpc	r25, r0
    8aae:	08 95       	ret

00008ab0 <__ftoa_engine>:
    8ab0:	28 30       	cpi	r18, 0x08	; 8
    8ab2:	08 f0       	brcs	.+2      	; 0x8ab6 <__ftoa_engine+0x6>
    8ab4:	27 e0       	ldi	r18, 0x07	; 7
    8ab6:	33 27       	eor	r19, r19
    8ab8:	da 01       	movw	r26, r20
    8aba:	99 0f       	add	r25, r25
    8abc:	31 1d       	adc	r19, r1
    8abe:	87 fd       	sbrc	r24, 7
    8ac0:	91 60       	ori	r25, 0x01	; 1
    8ac2:	00 96       	adiw	r24, 0x00	; 0
    8ac4:	61 05       	cpc	r22, r1
    8ac6:	71 05       	cpc	r23, r1
    8ac8:	39 f4       	brne	.+14     	; 0x8ad8 <__ftoa_engine+0x28>
    8aca:	32 60       	ori	r19, 0x02	; 2
    8acc:	2e 5f       	subi	r18, 0xFE	; 254
    8ace:	3d 93       	st	X+, r19
    8ad0:	30 e3       	ldi	r19, 0x30	; 48
    8ad2:	2a 95       	dec	r18
    8ad4:	e1 f7       	brne	.-8      	; 0x8ace <__ftoa_engine+0x1e>
    8ad6:	08 95       	ret
    8ad8:	9f 3f       	cpi	r25, 0xFF	; 255
    8ada:	30 f0       	brcs	.+12     	; 0x8ae8 <__ftoa_engine+0x38>
    8adc:	80 38       	cpi	r24, 0x80	; 128
    8ade:	71 05       	cpc	r23, r1
    8ae0:	61 05       	cpc	r22, r1
    8ae2:	09 f0       	breq	.+2      	; 0x8ae6 <__ftoa_engine+0x36>
    8ae4:	3c 5f       	subi	r19, 0xFC	; 252
    8ae6:	3c 5f       	subi	r19, 0xFC	; 252
    8ae8:	3d 93       	st	X+, r19
    8aea:	91 30       	cpi	r25, 0x01	; 1
    8aec:	08 f0       	brcs	.+2      	; 0x8af0 <__ftoa_engine+0x40>
    8aee:	80 68       	ori	r24, 0x80	; 128
    8af0:	91 1d       	adc	r25, r1
    8af2:	df 93       	push	r29
    8af4:	cf 93       	push	r28
    8af6:	1f 93       	push	r17
    8af8:	0f 93       	push	r16
    8afa:	ff 92       	push	r15
    8afc:	ef 92       	push	r14
    8afe:	19 2f       	mov	r17, r25
    8b00:	98 7f       	andi	r25, 0xF8	; 248
    8b02:	96 95       	lsr	r25
    8b04:	e9 2f       	mov	r30, r25
    8b06:	96 95       	lsr	r25
    8b08:	96 95       	lsr	r25
    8b0a:	e9 0f       	add	r30, r25
    8b0c:	ff 27       	eor	r31, r31
    8b0e:	e2 57       	subi	r30, 0x72	; 114
    8b10:	f8 4f       	sbci	r31, 0xF8	; 248
    8b12:	99 27       	eor	r25, r25
    8b14:	33 27       	eor	r19, r19
    8b16:	ee 24       	eor	r14, r14
    8b18:	ff 24       	eor	r15, r15
    8b1a:	a7 01       	movw	r20, r14
    8b1c:	e7 01       	movw	r28, r14
    8b1e:	05 90       	lpm	r0, Z+
    8b20:	08 94       	sec
    8b22:	07 94       	ror	r0
    8b24:	28 f4       	brcc	.+10     	; 0x8b30 <__ftoa_engine+0x80>
    8b26:	36 0f       	add	r19, r22
    8b28:	e7 1e       	adc	r14, r23
    8b2a:	f8 1e       	adc	r15, r24
    8b2c:	49 1f       	adc	r20, r25
    8b2e:	51 1d       	adc	r21, r1
    8b30:	66 0f       	add	r22, r22
    8b32:	77 1f       	adc	r23, r23
    8b34:	88 1f       	adc	r24, r24
    8b36:	99 1f       	adc	r25, r25
    8b38:	06 94       	lsr	r0
    8b3a:	a1 f7       	brne	.-24     	; 0x8b24 <__ftoa_engine+0x74>
    8b3c:	05 90       	lpm	r0, Z+
    8b3e:	07 94       	ror	r0
    8b40:	28 f4       	brcc	.+10     	; 0x8b4c <__ftoa_engine+0x9c>
    8b42:	e7 0e       	add	r14, r23
    8b44:	f8 1e       	adc	r15, r24
    8b46:	49 1f       	adc	r20, r25
    8b48:	56 1f       	adc	r21, r22
    8b4a:	c1 1d       	adc	r28, r1
    8b4c:	77 0f       	add	r23, r23
    8b4e:	88 1f       	adc	r24, r24
    8b50:	99 1f       	adc	r25, r25
    8b52:	66 1f       	adc	r22, r22
    8b54:	06 94       	lsr	r0
    8b56:	a1 f7       	brne	.-24     	; 0x8b40 <__ftoa_engine+0x90>
    8b58:	05 90       	lpm	r0, Z+
    8b5a:	07 94       	ror	r0
    8b5c:	28 f4       	brcc	.+10     	; 0x8b68 <__ftoa_engine+0xb8>
    8b5e:	f8 0e       	add	r15, r24
    8b60:	49 1f       	adc	r20, r25
    8b62:	56 1f       	adc	r21, r22
    8b64:	c7 1f       	adc	r28, r23
    8b66:	d1 1d       	adc	r29, r1
    8b68:	88 0f       	add	r24, r24
    8b6a:	99 1f       	adc	r25, r25
    8b6c:	66 1f       	adc	r22, r22
    8b6e:	77 1f       	adc	r23, r23
    8b70:	06 94       	lsr	r0
    8b72:	a1 f7       	brne	.-24     	; 0x8b5c <__ftoa_engine+0xac>
    8b74:	05 90       	lpm	r0, Z+
    8b76:	07 94       	ror	r0
    8b78:	20 f4       	brcc	.+8      	; 0x8b82 <__ftoa_engine+0xd2>
    8b7a:	49 0f       	add	r20, r25
    8b7c:	56 1f       	adc	r21, r22
    8b7e:	c7 1f       	adc	r28, r23
    8b80:	d8 1f       	adc	r29, r24
    8b82:	99 0f       	add	r25, r25
    8b84:	66 1f       	adc	r22, r22
    8b86:	77 1f       	adc	r23, r23
    8b88:	88 1f       	adc	r24, r24
    8b8a:	06 94       	lsr	r0
    8b8c:	a9 f7       	brne	.-22     	; 0x8b78 <__ftoa_engine+0xc8>
    8b8e:	84 91       	lpm	r24, Z
    8b90:	10 95       	com	r17
    8b92:	17 70       	andi	r17, 0x07	; 7
    8b94:	41 f0       	breq	.+16     	; 0x8ba6 <__ftoa_engine+0xf6>
    8b96:	d6 95       	lsr	r29
    8b98:	c7 95       	ror	r28
    8b9a:	57 95       	ror	r21
    8b9c:	47 95       	ror	r20
    8b9e:	f7 94       	ror	r15
    8ba0:	e7 94       	ror	r14
    8ba2:	1a 95       	dec	r17
    8ba4:	c1 f7       	brne	.-16     	; 0x8b96 <__ftoa_engine+0xe6>
    8ba6:	e4 e3       	ldi	r30, 0x34	; 52
    8ba8:	f7 e0       	ldi	r31, 0x07	; 7
    8baa:	68 94       	set
    8bac:	15 90       	lpm	r1, Z+
    8bae:	15 91       	lpm	r17, Z+
    8bb0:	35 91       	lpm	r19, Z+
    8bb2:	65 91       	lpm	r22, Z+
    8bb4:	95 91       	lpm	r25, Z+
    8bb6:	05 90       	lpm	r0, Z+
    8bb8:	7f e2       	ldi	r23, 0x2F	; 47
    8bba:	73 95       	inc	r23
    8bbc:	e1 18       	sub	r14, r1
    8bbe:	f1 0a       	sbc	r15, r17
    8bc0:	43 0b       	sbc	r20, r19
    8bc2:	56 0b       	sbc	r21, r22
    8bc4:	c9 0b       	sbc	r28, r25
    8bc6:	d0 09       	sbc	r29, r0
    8bc8:	c0 f7       	brcc	.-16     	; 0x8bba <__ftoa_engine+0x10a>
    8bca:	e1 0c       	add	r14, r1
    8bcc:	f1 1e       	adc	r15, r17
    8bce:	43 1f       	adc	r20, r19
    8bd0:	56 1f       	adc	r21, r22
    8bd2:	c9 1f       	adc	r28, r25
    8bd4:	d0 1d       	adc	r29, r0
    8bd6:	7e f4       	brtc	.+30     	; 0x8bf6 <__ftoa_engine+0x146>
    8bd8:	70 33       	cpi	r23, 0x30	; 48
    8bda:	11 f4       	brne	.+4      	; 0x8be0 <__ftoa_engine+0x130>
    8bdc:	8a 95       	dec	r24
    8bde:	e6 cf       	rjmp	.-52     	; 0x8bac <__ftoa_engine+0xfc>
    8be0:	e8 94       	clt
    8be2:	01 50       	subi	r16, 0x01	; 1
    8be4:	30 f0       	brcs	.+12     	; 0x8bf2 <__ftoa_engine+0x142>
    8be6:	08 0f       	add	r16, r24
    8be8:	0a f4       	brpl	.+2      	; 0x8bec <__ftoa_engine+0x13c>
    8bea:	00 27       	eor	r16, r16
    8bec:	02 17       	cp	r16, r18
    8bee:	08 f4       	brcc	.+2      	; 0x8bf2 <__ftoa_engine+0x142>
    8bf0:	20 2f       	mov	r18, r16
    8bf2:	23 95       	inc	r18
    8bf4:	02 2f       	mov	r16, r18
    8bf6:	7a 33       	cpi	r23, 0x3A	; 58
    8bf8:	28 f0       	brcs	.+10     	; 0x8c04 <__ftoa_engine+0x154>
    8bfa:	79 e3       	ldi	r23, 0x39	; 57
    8bfc:	7d 93       	st	X+, r23
    8bfe:	2a 95       	dec	r18
    8c00:	e9 f7       	brne	.-6      	; 0x8bfc <__ftoa_engine+0x14c>
    8c02:	10 c0       	rjmp	.+32     	; 0x8c24 <__ftoa_engine+0x174>
    8c04:	7d 93       	st	X+, r23
    8c06:	2a 95       	dec	r18
    8c08:	89 f6       	brne	.-94     	; 0x8bac <__ftoa_engine+0xfc>
    8c0a:	06 94       	lsr	r0
    8c0c:	97 95       	ror	r25
    8c0e:	67 95       	ror	r22
    8c10:	37 95       	ror	r19
    8c12:	17 95       	ror	r17
    8c14:	17 94       	ror	r1
    8c16:	e1 18       	sub	r14, r1
    8c18:	f1 0a       	sbc	r15, r17
    8c1a:	43 0b       	sbc	r20, r19
    8c1c:	56 0b       	sbc	r21, r22
    8c1e:	c9 0b       	sbc	r28, r25
    8c20:	d0 09       	sbc	r29, r0
    8c22:	98 f0       	brcs	.+38     	; 0x8c4a <__ftoa_engine+0x19a>
    8c24:	23 95       	inc	r18
    8c26:	7e 91       	ld	r23, -X
    8c28:	73 95       	inc	r23
    8c2a:	7a 33       	cpi	r23, 0x3A	; 58
    8c2c:	08 f0       	brcs	.+2      	; 0x8c30 <__ftoa_engine+0x180>
    8c2e:	70 e3       	ldi	r23, 0x30	; 48
    8c30:	7c 93       	st	X, r23
    8c32:	20 13       	cpse	r18, r16
    8c34:	b8 f7       	brcc	.-18     	; 0x8c24 <__ftoa_engine+0x174>
    8c36:	7e 91       	ld	r23, -X
    8c38:	70 61       	ori	r23, 0x10	; 16
    8c3a:	7d 93       	st	X+, r23
    8c3c:	30 f0       	brcs	.+12     	; 0x8c4a <__ftoa_engine+0x19a>
    8c3e:	83 95       	inc	r24
    8c40:	71 e3       	ldi	r23, 0x31	; 49
    8c42:	7d 93       	st	X+, r23
    8c44:	70 e3       	ldi	r23, 0x30	; 48
    8c46:	2a 95       	dec	r18
    8c48:	e1 f7       	brne	.-8      	; 0x8c42 <__ftoa_engine+0x192>
    8c4a:	11 24       	eor	r1, r1
    8c4c:	ef 90       	pop	r14
    8c4e:	ff 90       	pop	r15
    8c50:	0f 91       	pop	r16
    8c52:	1f 91       	pop	r17
    8c54:	cf 91       	pop	r28
    8c56:	df 91       	pop	r29
    8c58:	99 27       	eor	r25, r25
    8c5a:	87 fd       	sbrc	r24, 7
    8c5c:	90 95       	com	r25
    8c5e:	08 95       	ret

00008c60 <strnlen_P>:
    8c60:	fc 01       	movw	r30, r24
    8c62:	05 90       	lpm	r0, Z+
    8c64:	61 50       	subi	r22, 0x01	; 1
    8c66:	70 40       	sbci	r23, 0x00	; 0
    8c68:	01 10       	cpse	r0, r1
    8c6a:	d8 f7       	brcc	.-10     	; 0x8c62 <strnlen_P+0x2>
    8c6c:	80 95       	com	r24
    8c6e:	90 95       	com	r25
    8c70:	8e 0f       	add	r24, r30
    8c72:	9f 1f       	adc	r25, r31
    8c74:	08 95       	ret

00008c76 <strnlen>:
    8c76:	fc 01       	movw	r30, r24
    8c78:	61 50       	subi	r22, 0x01	; 1
    8c7a:	70 40       	sbci	r23, 0x00	; 0
    8c7c:	01 90       	ld	r0, Z+
    8c7e:	01 10       	cpse	r0, r1
    8c80:	d8 f7       	brcc	.-10     	; 0x8c78 <strnlen+0x2>
    8c82:	80 95       	com	r24
    8c84:	90 95       	com	r25
    8c86:	8e 0f       	add	r24, r30
    8c88:	9f 1f       	adc	r25, r31
    8c8a:	08 95       	ret

00008c8c <fdevopen>:
    8c8c:	0f 93       	push	r16
    8c8e:	1f 93       	push	r17
    8c90:	cf 93       	push	r28
    8c92:	df 93       	push	r29
    8c94:	00 97       	sbiw	r24, 0x00	; 0
    8c96:	31 f4       	brne	.+12     	; 0x8ca4 <fdevopen+0x18>
    8c98:	61 15       	cp	r22, r1
    8c9a:	71 05       	cpc	r23, r1
    8c9c:	19 f4       	brne	.+6      	; 0x8ca4 <fdevopen+0x18>
    8c9e:	80 e0       	ldi	r24, 0x00	; 0
    8ca0:	90 e0       	ldi	r25, 0x00	; 0
    8ca2:	3a c0       	rjmp	.+116    	; 0x8d18 <fdevopen+0x8c>
    8ca4:	8b 01       	movw	r16, r22
    8ca6:	ec 01       	movw	r28, r24
    8ca8:	6e e0       	ldi	r22, 0x0E	; 14
    8caa:	70 e0       	ldi	r23, 0x00	; 0
    8cac:	81 e0       	ldi	r24, 0x01	; 1
    8cae:	90 e0       	ldi	r25, 0x00	; 0
    8cb0:	0e 94 6f 47 	call	0x8ede	; 0x8ede <calloc>
    8cb4:	fc 01       	movw	r30, r24
    8cb6:	89 2b       	or	r24, r25
    8cb8:	91 f3       	breq	.-28     	; 0x8c9e <fdevopen+0x12>
    8cba:	80 e8       	ldi	r24, 0x80	; 128
    8cbc:	83 83       	std	Z+3, r24	; 0x03
    8cbe:	01 15       	cp	r16, r1
    8cc0:	11 05       	cpc	r17, r1
    8cc2:	71 f0       	breq	.+28     	; 0x8ce0 <fdevopen+0x54>
    8cc4:	02 87       	std	Z+10, r16	; 0x0a
    8cc6:	13 87       	std	Z+11, r17	; 0x0b
    8cc8:	81 e8       	ldi	r24, 0x81	; 129
    8cca:	83 83       	std	Z+3, r24	; 0x03
    8ccc:	80 91 16 44 	lds	r24, 0x4416	; 0x804416 <__iob>
    8cd0:	90 91 17 44 	lds	r25, 0x4417	; 0x804417 <__iob+0x1>
    8cd4:	89 2b       	or	r24, r25
    8cd6:	21 f4       	brne	.+8      	; 0x8ce0 <fdevopen+0x54>
    8cd8:	e0 93 16 44 	sts	0x4416, r30	; 0x804416 <__iob>
    8cdc:	f0 93 17 44 	sts	0x4417, r31	; 0x804417 <__iob+0x1>
    8ce0:	20 97       	sbiw	r28, 0x00	; 0
    8ce2:	c9 f0       	breq	.+50     	; 0x8d16 <fdevopen+0x8a>
    8ce4:	c0 87       	std	Z+8, r28	; 0x08
    8ce6:	d1 87       	std	Z+9, r29	; 0x09
    8ce8:	83 81       	ldd	r24, Z+3	; 0x03
    8cea:	82 60       	ori	r24, 0x02	; 2
    8cec:	83 83       	std	Z+3, r24	; 0x03
    8cee:	80 91 18 44 	lds	r24, 0x4418	; 0x804418 <__iob+0x2>
    8cf2:	90 91 19 44 	lds	r25, 0x4419	; 0x804419 <__iob+0x3>
    8cf6:	89 2b       	or	r24, r25
    8cf8:	71 f4       	brne	.+28     	; 0x8d16 <fdevopen+0x8a>
    8cfa:	e0 93 18 44 	sts	0x4418, r30	; 0x804418 <__iob+0x2>
    8cfe:	f0 93 19 44 	sts	0x4419, r31	; 0x804419 <__iob+0x3>
    8d02:	80 91 1a 44 	lds	r24, 0x441A	; 0x80441a <__iob+0x4>
    8d06:	90 91 1b 44 	lds	r25, 0x441B	; 0x80441b <__iob+0x5>
    8d0a:	89 2b       	or	r24, r25
    8d0c:	21 f4       	brne	.+8      	; 0x8d16 <fdevopen+0x8a>
    8d0e:	e0 93 1a 44 	sts	0x441A, r30	; 0x80441a <__iob+0x4>
    8d12:	f0 93 1b 44 	sts	0x441B, r31	; 0x80441b <__iob+0x5>
    8d16:	cf 01       	movw	r24, r30
    8d18:	df 91       	pop	r29
    8d1a:	cf 91       	pop	r28
    8d1c:	1f 91       	pop	r17
    8d1e:	0f 91       	pop	r16
    8d20:	08 95       	ret

00008d22 <fputc>:
    8d22:	0f 93       	push	r16
    8d24:	1f 93       	push	r17
    8d26:	cf 93       	push	r28
    8d28:	df 93       	push	r29
    8d2a:	fb 01       	movw	r30, r22
    8d2c:	23 81       	ldd	r18, Z+3	; 0x03
    8d2e:	21 fd       	sbrc	r18, 1
    8d30:	03 c0       	rjmp	.+6      	; 0x8d38 <fputc+0x16>
    8d32:	8f ef       	ldi	r24, 0xFF	; 255
    8d34:	9f ef       	ldi	r25, 0xFF	; 255
    8d36:	2c c0       	rjmp	.+88     	; 0x8d90 <fputc+0x6e>
    8d38:	22 ff       	sbrs	r18, 2
    8d3a:	16 c0       	rjmp	.+44     	; 0x8d68 <fputc+0x46>
    8d3c:	46 81       	ldd	r20, Z+6	; 0x06
    8d3e:	57 81       	ldd	r21, Z+7	; 0x07
    8d40:	24 81       	ldd	r18, Z+4	; 0x04
    8d42:	35 81       	ldd	r19, Z+5	; 0x05
    8d44:	42 17       	cp	r20, r18
    8d46:	53 07       	cpc	r21, r19
    8d48:	44 f4       	brge	.+16     	; 0x8d5a <fputc+0x38>
    8d4a:	a0 81       	ld	r26, Z
    8d4c:	b1 81       	ldd	r27, Z+1	; 0x01
    8d4e:	9d 01       	movw	r18, r26
    8d50:	2f 5f       	subi	r18, 0xFF	; 255
    8d52:	3f 4f       	sbci	r19, 0xFF	; 255
    8d54:	20 83       	st	Z, r18
    8d56:	31 83       	std	Z+1, r19	; 0x01
    8d58:	8c 93       	st	X, r24
    8d5a:	26 81       	ldd	r18, Z+6	; 0x06
    8d5c:	37 81       	ldd	r19, Z+7	; 0x07
    8d5e:	2f 5f       	subi	r18, 0xFF	; 255
    8d60:	3f 4f       	sbci	r19, 0xFF	; 255
    8d62:	26 83       	std	Z+6, r18	; 0x06
    8d64:	37 83       	std	Z+7, r19	; 0x07
    8d66:	14 c0       	rjmp	.+40     	; 0x8d90 <fputc+0x6e>
    8d68:	8b 01       	movw	r16, r22
    8d6a:	ec 01       	movw	r28, r24
    8d6c:	fb 01       	movw	r30, r22
    8d6e:	00 84       	ldd	r0, Z+8	; 0x08
    8d70:	f1 85       	ldd	r31, Z+9	; 0x09
    8d72:	e0 2d       	mov	r30, r0
    8d74:	09 95       	icall
    8d76:	89 2b       	or	r24, r25
    8d78:	e1 f6       	brne	.-72     	; 0x8d32 <fputc+0x10>
    8d7a:	d8 01       	movw	r26, r16
    8d7c:	16 96       	adiw	r26, 0x06	; 6
    8d7e:	8d 91       	ld	r24, X+
    8d80:	9c 91       	ld	r25, X
    8d82:	17 97       	sbiw	r26, 0x07	; 7
    8d84:	01 96       	adiw	r24, 0x01	; 1
    8d86:	16 96       	adiw	r26, 0x06	; 6
    8d88:	8d 93       	st	X+, r24
    8d8a:	9c 93       	st	X, r25
    8d8c:	17 97       	sbiw	r26, 0x07	; 7
    8d8e:	ce 01       	movw	r24, r28
    8d90:	df 91       	pop	r29
    8d92:	cf 91       	pop	r28
    8d94:	1f 91       	pop	r17
    8d96:	0f 91       	pop	r16
    8d98:	08 95       	ret

00008d9a <printf>:
    8d9a:	cf 93       	push	r28
    8d9c:	df 93       	push	r29
    8d9e:	cd b7       	in	r28, 0x3d	; 61
    8da0:	de b7       	in	r29, 0x3e	; 62
    8da2:	ae 01       	movw	r20, r28
    8da4:	4b 5f       	subi	r20, 0xFB	; 251
    8da6:	5f 4f       	sbci	r21, 0xFF	; 255
    8da8:	fa 01       	movw	r30, r20
    8daa:	61 91       	ld	r22, Z+
    8dac:	71 91       	ld	r23, Z+
    8dae:	af 01       	movw	r20, r30
    8db0:	80 91 18 44 	lds	r24, 0x4418	; 0x804418 <__iob+0x2>
    8db4:	90 91 19 44 	lds	r25, 0x4419	; 0x804419 <__iob+0x3>
    8db8:	0e 94 59 40 	call	0x80b2	; 0x80b2 <vfprintf>
    8dbc:	df 91       	pop	r29
    8dbe:	cf 91       	pop	r28
    8dc0:	08 95       	ret

00008dc2 <puts>:
    8dc2:	0f 93       	push	r16
    8dc4:	1f 93       	push	r17
    8dc6:	cf 93       	push	r28
    8dc8:	df 93       	push	r29
    8dca:	e0 91 18 44 	lds	r30, 0x4418	; 0x804418 <__iob+0x2>
    8dce:	f0 91 19 44 	lds	r31, 0x4419	; 0x804419 <__iob+0x3>
    8dd2:	23 81       	ldd	r18, Z+3	; 0x03
    8dd4:	21 ff       	sbrs	r18, 1
    8dd6:	1b c0       	rjmp	.+54     	; 0x8e0e <puts+0x4c>
    8dd8:	8c 01       	movw	r16, r24
    8dda:	d0 e0       	ldi	r29, 0x00	; 0
    8ddc:	c0 e0       	ldi	r28, 0x00	; 0
    8dde:	f8 01       	movw	r30, r16
    8de0:	81 91       	ld	r24, Z+
    8de2:	8f 01       	movw	r16, r30
    8de4:	60 91 18 44 	lds	r22, 0x4418	; 0x804418 <__iob+0x2>
    8de8:	70 91 19 44 	lds	r23, 0x4419	; 0x804419 <__iob+0x3>
    8dec:	db 01       	movw	r26, r22
    8dee:	18 96       	adiw	r26, 0x08	; 8
    8df0:	ed 91       	ld	r30, X+
    8df2:	fc 91       	ld	r31, X
    8df4:	19 97       	sbiw	r26, 0x09	; 9
    8df6:	88 23       	and	r24, r24
    8df8:	31 f0       	breq	.+12     	; 0x8e06 <puts+0x44>
    8dfa:	09 95       	icall
    8dfc:	89 2b       	or	r24, r25
    8dfe:	79 f3       	breq	.-34     	; 0x8dde <puts+0x1c>
    8e00:	df ef       	ldi	r29, 0xFF	; 255
    8e02:	cf ef       	ldi	r28, 0xFF	; 255
    8e04:	ec cf       	rjmp	.-40     	; 0x8dde <puts+0x1c>
    8e06:	8a e0       	ldi	r24, 0x0A	; 10
    8e08:	09 95       	icall
    8e0a:	89 2b       	or	r24, r25
    8e0c:	19 f0       	breq	.+6      	; 0x8e14 <puts+0x52>
    8e0e:	8f ef       	ldi	r24, 0xFF	; 255
    8e10:	9f ef       	ldi	r25, 0xFF	; 255
    8e12:	02 c0       	rjmp	.+4      	; 0x8e18 <puts+0x56>
    8e14:	8d 2f       	mov	r24, r29
    8e16:	9c 2f       	mov	r25, r28
    8e18:	df 91       	pop	r29
    8e1a:	cf 91       	pop	r28
    8e1c:	1f 91       	pop	r17
    8e1e:	0f 91       	pop	r16
    8e20:	08 95       	ret

00008e22 <__ultoa_invert>:
    8e22:	fa 01       	movw	r30, r20
    8e24:	aa 27       	eor	r26, r26
    8e26:	28 30       	cpi	r18, 0x08	; 8
    8e28:	51 f1       	breq	.+84     	; 0x8e7e <__ultoa_invert+0x5c>
    8e2a:	20 31       	cpi	r18, 0x10	; 16
    8e2c:	81 f1       	breq	.+96     	; 0x8e8e <__ultoa_invert+0x6c>
    8e2e:	e8 94       	clt
    8e30:	6f 93       	push	r22
    8e32:	6e 7f       	andi	r22, 0xFE	; 254
    8e34:	6e 5f       	subi	r22, 0xFE	; 254
    8e36:	7f 4f       	sbci	r23, 0xFF	; 255
    8e38:	8f 4f       	sbci	r24, 0xFF	; 255
    8e3a:	9f 4f       	sbci	r25, 0xFF	; 255
    8e3c:	af 4f       	sbci	r26, 0xFF	; 255
    8e3e:	b1 e0       	ldi	r27, 0x01	; 1
    8e40:	3e d0       	rcall	.+124    	; 0x8ebe <__ultoa_invert+0x9c>
    8e42:	b4 e0       	ldi	r27, 0x04	; 4
    8e44:	3c d0       	rcall	.+120    	; 0x8ebe <__ultoa_invert+0x9c>
    8e46:	67 0f       	add	r22, r23
    8e48:	78 1f       	adc	r23, r24
    8e4a:	89 1f       	adc	r24, r25
    8e4c:	9a 1f       	adc	r25, r26
    8e4e:	a1 1d       	adc	r26, r1
    8e50:	68 0f       	add	r22, r24
    8e52:	79 1f       	adc	r23, r25
    8e54:	8a 1f       	adc	r24, r26
    8e56:	91 1d       	adc	r25, r1
    8e58:	a1 1d       	adc	r26, r1
    8e5a:	6a 0f       	add	r22, r26
    8e5c:	71 1d       	adc	r23, r1
    8e5e:	81 1d       	adc	r24, r1
    8e60:	91 1d       	adc	r25, r1
    8e62:	a1 1d       	adc	r26, r1
    8e64:	20 d0       	rcall	.+64     	; 0x8ea6 <__ultoa_invert+0x84>
    8e66:	09 f4       	brne	.+2      	; 0x8e6a <__ultoa_invert+0x48>
    8e68:	68 94       	set
    8e6a:	3f 91       	pop	r19
    8e6c:	2a e0       	ldi	r18, 0x0A	; 10
    8e6e:	26 9f       	mul	r18, r22
    8e70:	11 24       	eor	r1, r1
    8e72:	30 19       	sub	r19, r0
    8e74:	30 5d       	subi	r19, 0xD0	; 208
    8e76:	31 93       	st	Z+, r19
    8e78:	de f6       	brtc	.-74     	; 0x8e30 <__ultoa_invert+0xe>
    8e7a:	cf 01       	movw	r24, r30
    8e7c:	08 95       	ret
    8e7e:	46 2f       	mov	r20, r22
    8e80:	47 70       	andi	r20, 0x07	; 7
    8e82:	40 5d       	subi	r20, 0xD0	; 208
    8e84:	41 93       	st	Z+, r20
    8e86:	b3 e0       	ldi	r27, 0x03	; 3
    8e88:	0f d0       	rcall	.+30     	; 0x8ea8 <__ultoa_invert+0x86>
    8e8a:	c9 f7       	brne	.-14     	; 0x8e7e <__ultoa_invert+0x5c>
    8e8c:	f6 cf       	rjmp	.-20     	; 0x8e7a <__ultoa_invert+0x58>
    8e8e:	46 2f       	mov	r20, r22
    8e90:	4f 70       	andi	r20, 0x0F	; 15
    8e92:	40 5d       	subi	r20, 0xD0	; 208
    8e94:	4a 33       	cpi	r20, 0x3A	; 58
    8e96:	18 f0       	brcs	.+6      	; 0x8e9e <__ultoa_invert+0x7c>
    8e98:	49 5d       	subi	r20, 0xD9	; 217
    8e9a:	31 fd       	sbrc	r19, 1
    8e9c:	40 52       	subi	r20, 0x20	; 32
    8e9e:	41 93       	st	Z+, r20
    8ea0:	02 d0       	rcall	.+4      	; 0x8ea6 <__ultoa_invert+0x84>
    8ea2:	a9 f7       	brne	.-22     	; 0x8e8e <__ultoa_invert+0x6c>
    8ea4:	ea cf       	rjmp	.-44     	; 0x8e7a <__ultoa_invert+0x58>
    8ea6:	b4 e0       	ldi	r27, 0x04	; 4
    8ea8:	a6 95       	lsr	r26
    8eaa:	97 95       	ror	r25
    8eac:	87 95       	ror	r24
    8eae:	77 95       	ror	r23
    8eb0:	67 95       	ror	r22
    8eb2:	ba 95       	dec	r27
    8eb4:	c9 f7       	brne	.-14     	; 0x8ea8 <__ultoa_invert+0x86>
    8eb6:	00 97       	sbiw	r24, 0x00	; 0
    8eb8:	61 05       	cpc	r22, r1
    8eba:	71 05       	cpc	r23, r1
    8ebc:	08 95       	ret
    8ebe:	9b 01       	movw	r18, r22
    8ec0:	ac 01       	movw	r20, r24
    8ec2:	0a 2e       	mov	r0, r26
    8ec4:	06 94       	lsr	r0
    8ec6:	57 95       	ror	r21
    8ec8:	47 95       	ror	r20
    8eca:	37 95       	ror	r19
    8ecc:	27 95       	ror	r18
    8ece:	ba 95       	dec	r27
    8ed0:	c9 f7       	brne	.-14     	; 0x8ec4 <__ultoa_invert+0xa2>
    8ed2:	62 0f       	add	r22, r18
    8ed4:	73 1f       	adc	r23, r19
    8ed6:	84 1f       	adc	r24, r20
    8ed8:	95 1f       	adc	r25, r21
    8eda:	a0 1d       	adc	r26, r0
    8edc:	08 95       	ret

00008ede <calloc>:
    8ede:	0f 93       	push	r16
    8ee0:	1f 93       	push	r17
    8ee2:	cf 93       	push	r28
    8ee4:	df 93       	push	r29
    8ee6:	86 9f       	mul	r24, r22
    8ee8:	80 01       	movw	r16, r0
    8eea:	87 9f       	mul	r24, r23
    8eec:	10 0d       	add	r17, r0
    8eee:	96 9f       	mul	r25, r22
    8ef0:	10 0d       	add	r17, r0
    8ef2:	11 24       	eor	r1, r1
    8ef4:	c8 01       	movw	r24, r16
    8ef6:	0e 94 8b 47 	call	0x8f16	; 0x8f16 <malloc>
    8efa:	ec 01       	movw	r28, r24
    8efc:	00 97       	sbiw	r24, 0x00	; 0
    8efe:	29 f0       	breq	.+10     	; 0x8f0a <calloc+0x2c>
    8f00:	a8 01       	movw	r20, r16
    8f02:	60 e0       	ldi	r22, 0x00	; 0
    8f04:	70 e0       	ldi	r23, 0x00	; 0
    8f06:	0e 94 ac 48 	call	0x9158	; 0x9158 <memset>
    8f0a:	ce 01       	movw	r24, r28
    8f0c:	df 91       	pop	r29
    8f0e:	cf 91       	pop	r28
    8f10:	1f 91       	pop	r17
    8f12:	0f 91       	pop	r16
    8f14:	08 95       	ret

00008f16 <malloc>:
    8f16:	0f 93       	push	r16
    8f18:	1f 93       	push	r17
    8f1a:	cf 93       	push	r28
    8f1c:	df 93       	push	r29
    8f1e:	82 30       	cpi	r24, 0x02	; 2
    8f20:	91 05       	cpc	r25, r1
    8f22:	10 f4       	brcc	.+4      	; 0x8f28 <malloc+0x12>
    8f24:	82 e0       	ldi	r24, 0x02	; 2
    8f26:	90 e0       	ldi	r25, 0x00	; 0
    8f28:	e0 91 1e 44 	lds	r30, 0x441E	; 0x80441e <__flp>
    8f2c:	f0 91 1f 44 	lds	r31, 0x441F	; 0x80441f <__flp+0x1>
    8f30:	20 e0       	ldi	r18, 0x00	; 0
    8f32:	30 e0       	ldi	r19, 0x00	; 0
    8f34:	a0 e0       	ldi	r26, 0x00	; 0
    8f36:	b0 e0       	ldi	r27, 0x00	; 0
    8f38:	30 97       	sbiw	r30, 0x00	; 0
    8f3a:	19 f1       	breq	.+70     	; 0x8f82 <malloc+0x6c>
    8f3c:	40 81       	ld	r20, Z
    8f3e:	51 81       	ldd	r21, Z+1	; 0x01
    8f40:	02 81       	ldd	r16, Z+2	; 0x02
    8f42:	13 81       	ldd	r17, Z+3	; 0x03
    8f44:	48 17       	cp	r20, r24
    8f46:	59 07       	cpc	r21, r25
    8f48:	c8 f0       	brcs	.+50     	; 0x8f7c <malloc+0x66>
    8f4a:	84 17       	cp	r24, r20
    8f4c:	95 07       	cpc	r25, r21
    8f4e:	69 f4       	brne	.+26     	; 0x8f6a <malloc+0x54>
    8f50:	10 97       	sbiw	r26, 0x00	; 0
    8f52:	31 f0       	breq	.+12     	; 0x8f60 <malloc+0x4a>
    8f54:	12 96       	adiw	r26, 0x02	; 2
    8f56:	0c 93       	st	X, r16
    8f58:	12 97       	sbiw	r26, 0x02	; 2
    8f5a:	13 96       	adiw	r26, 0x03	; 3
    8f5c:	1c 93       	st	X, r17
    8f5e:	27 c0       	rjmp	.+78     	; 0x8fae <malloc+0x98>
    8f60:	00 93 1e 44 	sts	0x441E, r16	; 0x80441e <__flp>
    8f64:	10 93 1f 44 	sts	0x441F, r17	; 0x80441f <__flp+0x1>
    8f68:	22 c0       	rjmp	.+68     	; 0x8fae <malloc+0x98>
    8f6a:	21 15       	cp	r18, r1
    8f6c:	31 05       	cpc	r19, r1
    8f6e:	19 f0       	breq	.+6      	; 0x8f76 <malloc+0x60>
    8f70:	42 17       	cp	r20, r18
    8f72:	53 07       	cpc	r21, r19
    8f74:	18 f4       	brcc	.+6      	; 0x8f7c <malloc+0x66>
    8f76:	9a 01       	movw	r18, r20
    8f78:	bd 01       	movw	r22, r26
    8f7a:	ef 01       	movw	r28, r30
    8f7c:	df 01       	movw	r26, r30
    8f7e:	f8 01       	movw	r30, r16
    8f80:	db cf       	rjmp	.-74     	; 0x8f38 <malloc+0x22>
    8f82:	21 15       	cp	r18, r1
    8f84:	31 05       	cpc	r19, r1
    8f86:	f9 f0       	breq	.+62     	; 0x8fc6 <malloc+0xb0>
    8f88:	28 1b       	sub	r18, r24
    8f8a:	39 0b       	sbc	r19, r25
    8f8c:	24 30       	cpi	r18, 0x04	; 4
    8f8e:	31 05       	cpc	r19, r1
    8f90:	80 f4       	brcc	.+32     	; 0x8fb2 <malloc+0x9c>
    8f92:	8a 81       	ldd	r24, Y+2	; 0x02
    8f94:	9b 81       	ldd	r25, Y+3	; 0x03
    8f96:	61 15       	cp	r22, r1
    8f98:	71 05       	cpc	r23, r1
    8f9a:	21 f0       	breq	.+8      	; 0x8fa4 <malloc+0x8e>
    8f9c:	fb 01       	movw	r30, r22
    8f9e:	82 83       	std	Z+2, r24	; 0x02
    8fa0:	93 83       	std	Z+3, r25	; 0x03
    8fa2:	04 c0       	rjmp	.+8      	; 0x8fac <malloc+0x96>
    8fa4:	80 93 1e 44 	sts	0x441E, r24	; 0x80441e <__flp>
    8fa8:	90 93 1f 44 	sts	0x441F, r25	; 0x80441f <__flp+0x1>
    8fac:	fe 01       	movw	r30, r28
    8fae:	32 96       	adiw	r30, 0x02	; 2
    8fb0:	44 c0       	rjmp	.+136    	; 0x903a <malloc+0x124>
    8fb2:	fe 01       	movw	r30, r28
    8fb4:	e2 0f       	add	r30, r18
    8fb6:	f3 1f       	adc	r31, r19
    8fb8:	81 93       	st	Z+, r24
    8fba:	91 93       	st	Z+, r25
    8fbc:	22 50       	subi	r18, 0x02	; 2
    8fbe:	31 09       	sbc	r19, r1
    8fc0:	28 83       	st	Y, r18
    8fc2:	39 83       	std	Y+1, r19	; 0x01
    8fc4:	3a c0       	rjmp	.+116    	; 0x903a <malloc+0x124>
    8fc6:	20 91 1c 44 	lds	r18, 0x441C	; 0x80441c <__brkval>
    8fca:	30 91 1d 44 	lds	r19, 0x441D	; 0x80441d <__brkval+0x1>
    8fce:	23 2b       	or	r18, r19
    8fd0:	41 f4       	brne	.+16     	; 0x8fe2 <malloc+0xcc>
    8fd2:	20 91 02 40 	lds	r18, 0x4002	; 0x804002 <__malloc_heap_start>
    8fd6:	30 91 03 40 	lds	r19, 0x4003	; 0x804003 <__malloc_heap_start+0x1>
    8fda:	20 93 1c 44 	sts	0x441C, r18	; 0x80441c <__brkval>
    8fde:	30 93 1d 44 	sts	0x441D, r19	; 0x80441d <__brkval+0x1>
    8fe2:	20 91 00 40 	lds	r18, 0x4000	; 0x804000 <__DATA_REGION_ORIGIN__>
    8fe6:	30 91 01 40 	lds	r19, 0x4001	; 0x804001 <__DATA_REGION_ORIGIN__+0x1>
    8fea:	21 15       	cp	r18, r1
    8fec:	31 05       	cpc	r19, r1
    8fee:	41 f4       	brne	.+16     	; 0x9000 <malloc+0xea>
    8ff0:	2d b7       	in	r18, 0x3d	; 61
    8ff2:	3e b7       	in	r19, 0x3e	; 62
    8ff4:	40 91 04 40 	lds	r20, 0x4004	; 0x804004 <__malloc_margin>
    8ff8:	50 91 05 40 	lds	r21, 0x4005	; 0x804005 <__malloc_margin+0x1>
    8ffc:	24 1b       	sub	r18, r20
    8ffe:	35 0b       	sbc	r19, r21
    9000:	e0 91 1c 44 	lds	r30, 0x441C	; 0x80441c <__brkval>
    9004:	f0 91 1d 44 	lds	r31, 0x441D	; 0x80441d <__brkval+0x1>
    9008:	e2 17       	cp	r30, r18
    900a:	f3 07       	cpc	r31, r19
    900c:	a0 f4       	brcc	.+40     	; 0x9036 <malloc+0x120>
    900e:	2e 1b       	sub	r18, r30
    9010:	3f 0b       	sbc	r19, r31
    9012:	28 17       	cp	r18, r24
    9014:	39 07       	cpc	r19, r25
    9016:	78 f0       	brcs	.+30     	; 0x9036 <malloc+0x120>
    9018:	ac 01       	movw	r20, r24
    901a:	4e 5f       	subi	r20, 0xFE	; 254
    901c:	5f 4f       	sbci	r21, 0xFF	; 255
    901e:	24 17       	cp	r18, r20
    9020:	35 07       	cpc	r19, r21
    9022:	48 f0       	brcs	.+18     	; 0x9036 <malloc+0x120>
    9024:	4e 0f       	add	r20, r30
    9026:	5f 1f       	adc	r21, r31
    9028:	40 93 1c 44 	sts	0x441C, r20	; 0x80441c <__brkval>
    902c:	50 93 1d 44 	sts	0x441D, r21	; 0x80441d <__brkval+0x1>
    9030:	81 93       	st	Z+, r24
    9032:	91 93       	st	Z+, r25
    9034:	02 c0       	rjmp	.+4      	; 0x903a <malloc+0x124>
    9036:	e0 e0       	ldi	r30, 0x00	; 0
    9038:	f0 e0       	ldi	r31, 0x00	; 0
    903a:	cf 01       	movw	r24, r30
    903c:	df 91       	pop	r29
    903e:	cf 91       	pop	r28
    9040:	1f 91       	pop	r17
    9042:	0f 91       	pop	r16
    9044:	08 95       	ret

00009046 <free>:
    9046:	cf 93       	push	r28
    9048:	df 93       	push	r29
    904a:	00 97       	sbiw	r24, 0x00	; 0
    904c:	09 f4       	brne	.+2      	; 0x9050 <free+0xa>
    904e:	81 c0       	rjmp	.+258    	; 0x9152 <free+0x10c>
    9050:	fc 01       	movw	r30, r24
    9052:	32 97       	sbiw	r30, 0x02	; 2
    9054:	12 82       	std	Z+2, r1	; 0x02
    9056:	13 82       	std	Z+3, r1	; 0x03
    9058:	a0 91 1e 44 	lds	r26, 0x441E	; 0x80441e <__flp>
    905c:	b0 91 1f 44 	lds	r27, 0x441F	; 0x80441f <__flp+0x1>
    9060:	10 97       	sbiw	r26, 0x00	; 0
    9062:	81 f4       	brne	.+32     	; 0x9084 <free+0x3e>
    9064:	20 81       	ld	r18, Z
    9066:	31 81       	ldd	r19, Z+1	; 0x01
    9068:	82 0f       	add	r24, r18
    906a:	93 1f       	adc	r25, r19
    906c:	20 91 1c 44 	lds	r18, 0x441C	; 0x80441c <__brkval>
    9070:	30 91 1d 44 	lds	r19, 0x441D	; 0x80441d <__brkval+0x1>
    9074:	28 17       	cp	r18, r24
    9076:	39 07       	cpc	r19, r25
    9078:	51 f5       	brne	.+84     	; 0x90ce <free+0x88>
    907a:	e0 93 1c 44 	sts	0x441C, r30	; 0x80441c <__brkval>
    907e:	f0 93 1d 44 	sts	0x441D, r31	; 0x80441d <__brkval+0x1>
    9082:	67 c0       	rjmp	.+206    	; 0x9152 <free+0x10c>
    9084:	ed 01       	movw	r28, r26
    9086:	20 e0       	ldi	r18, 0x00	; 0
    9088:	30 e0       	ldi	r19, 0x00	; 0
    908a:	ce 17       	cp	r28, r30
    908c:	df 07       	cpc	r29, r31
    908e:	40 f4       	brcc	.+16     	; 0x90a0 <free+0x5a>
    9090:	4a 81       	ldd	r20, Y+2	; 0x02
    9092:	5b 81       	ldd	r21, Y+3	; 0x03
    9094:	9e 01       	movw	r18, r28
    9096:	41 15       	cp	r20, r1
    9098:	51 05       	cpc	r21, r1
    909a:	f1 f0       	breq	.+60     	; 0x90d8 <free+0x92>
    909c:	ea 01       	movw	r28, r20
    909e:	f5 cf       	rjmp	.-22     	; 0x908a <free+0x44>
    90a0:	c2 83       	std	Z+2, r28	; 0x02
    90a2:	d3 83       	std	Z+3, r29	; 0x03
    90a4:	40 81       	ld	r20, Z
    90a6:	51 81       	ldd	r21, Z+1	; 0x01
    90a8:	84 0f       	add	r24, r20
    90aa:	95 1f       	adc	r25, r21
    90ac:	c8 17       	cp	r28, r24
    90ae:	d9 07       	cpc	r29, r25
    90b0:	59 f4       	brne	.+22     	; 0x90c8 <free+0x82>
    90b2:	88 81       	ld	r24, Y
    90b4:	99 81       	ldd	r25, Y+1	; 0x01
    90b6:	84 0f       	add	r24, r20
    90b8:	95 1f       	adc	r25, r21
    90ba:	02 96       	adiw	r24, 0x02	; 2
    90bc:	80 83       	st	Z, r24
    90be:	91 83       	std	Z+1, r25	; 0x01
    90c0:	8a 81       	ldd	r24, Y+2	; 0x02
    90c2:	9b 81       	ldd	r25, Y+3	; 0x03
    90c4:	82 83       	std	Z+2, r24	; 0x02
    90c6:	93 83       	std	Z+3, r25	; 0x03
    90c8:	21 15       	cp	r18, r1
    90ca:	31 05       	cpc	r19, r1
    90cc:	29 f4       	brne	.+10     	; 0x90d8 <free+0x92>
    90ce:	e0 93 1e 44 	sts	0x441E, r30	; 0x80441e <__flp>
    90d2:	f0 93 1f 44 	sts	0x441F, r31	; 0x80441f <__flp+0x1>
    90d6:	3d c0       	rjmp	.+122    	; 0x9152 <free+0x10c>
    90d8:	e9 01       	movw	r28, r18
    90da:	ea 83       	std	Y+2, r30	; 0x02
    90dc:	fb 83       	std	Y+3, r31	; 0x03
    90de:	49 91       	ld	r20, Y+
    90e0:	59 91       	ld	r21, Y+
    90e2:	c4 0f       	add	r28, r20
    90e4:	d5 1f       	adc	r29, r21
    90e6:	ec 17       	cp	r30, r28
    90e8:	fd 07       	cpc	r31, r29
    90ea:	61 f4       	brne	.+24     	; 0x9104 <free+0xbe>
    90ec:	80 81       	ld	r24, Z
    90ee:	91 81       	ldd	r25, Z+1	; 0x01
    90f0:	84 0f       	add	r24, r20
    90f2:	95 1f       	adc	r25, r21
    90f4:	02 96       	adiw	r24, 0x02	; 2
    90f6:	e9 01       	movw	r28, r18
    90f8:	88 83       	st	Y, r24
    90fa:	99 83       	std	Y+1, r25	; 0x01
    90fc:	82 81       	ldd	r24, Z+2	; 0x02
    90fe:	93 81       	ldd	r25, Z+3	; 0x03
    9100:	8a 83       	std	Y+2, r24	; 0x02
    9102:	9b 83       	std	Y+3, r25	; 0x03
    9104:	e0 e0       	ldi	r30, 0x00	; 0
    9106:	f0 e0       	ldi	r31, 0x00	; 0
    9108:	12 96       	adiw	r26, 0x02	; 2
    910a:	8d 91       	ld	r24, X+
    910c:	9c 91       	ld	r25, X
    910e:	13 97       	sbiw	r26, 0x03	; 3
    9110:	00 97       	sbiw	r24, 0x00	; 0
    9112:	19 f0       	breq	.+6      	; 0x911a <free+0xd4>
    9114:	fd 01       	movw	r30, r26
    9116:	dc 01       	movw	r26, r24
    9118:	f7 cf       	rjmp	.-18     	; 0x9108 <free+0xc2>
    911a:	8d 91       	ld	r24, X+
    911c:	9c 91       	ld	r25, X
    911e:	11 97       	sbiw	r26, 0x01	; 1
    9120:	9d 01       	movw	r18, r26
    9122:	2e 5f       	subi	r18, 0xFE	; 254
    9124:	3f 4f       	sbci	r19, 0xFF	; 255
    9126:	82 0f       	add	r24, r18
    9128:	93 1f       	adc	r25, r19
    912a:	20 91 1c 44 	lds	r18, 0x441C	; 0x80441c <__brkval>
    912e:	30 91 1d 44 	lds	r19, 0x441D	; 0x80441d <__brkval+0x1>
    9132:	28 17       	cp	r18, r24
    9134:	39 07       	cpc	r19, r25
    9136:	69 f4       	brne	.+26     	; 0x9152 <free+0x10c>
    9138:	30 97       	sbiw	r30, 0x00	; 0
    913a:	29 f4       	brne	.+10     	; 0x9146 <free+0x100>
    913c:	10 92 1e 44 	sts	0x441E, r1	; 0x80441e <__flp>
    9140:	10 92 1f 44 	sts	0x441F, r1	; 0x80441f <__flp+0x1>
    9144:	02 c0       	rjmp	.+4      	; 0x914a <free+0x104>
    9146:	12 82       	std	Z+2, r1	; 0x02
    9148:	13 82       	std	Z+3, r1	; 0x03
    914a:	a0 93 1c 44 	sts	0x441C, r26	; 0x80441c <__brkval>
    914e:	b0 93 1d 44 	sts	0x441D, r27	; 0x80441d <__brkval+0x1>
    9152:	df 91       	pop	r29
    9154:	cf 91       	pop	r28
    9156:	08 95       	ret

00009158 <memset>:
    9158:	dc 01       	movw	r26, r24
    915a:	01 c0       	rjmp	.+2      	; 0x915e <memset+0x6>
    915c:	6d 93       	st	X+, r22
    915e:	41 50       	subi	r20, 0x01	; 1
    9160:	50 40       	sbci	r21, 0x00	; 0
    9162:	e0 f7       	brcc	.-8      	; 0x915c <memset+0x4>
    9164:	08 95       	ret

00009166 <_exit>:
    9166:	f8 94       	cli

00009168 <__stop_program>:
    9168:	ff cf       	rjmp	.-2      	; 0x9168 <__stop_program>
