
Pig_Scales-2.elf:     file format elf32-avr

Sections:
Idx Name          Size      VMA       LMA       File off  Algn
  0 .data         00000176  00804000  000080c0  00007b74  2**0
                  CONTENTS, ALLOC, LOAD, DATA
  1 .text         00007ac0  00000600  00000600  000000b4  2**1
                  CONTENTS, ALLOC, LOAD, READONLY, CODE
  2 .bss          00001121  00804176  00804176  00007cea  2**0
                  ALLOC
  3 .fuse         00000009  00820000  00820000  00007cea  2**0
                  CONTENTS, ALLOC, LOAD, DATA
  4 .comment      0000005c  00000000  00000000  00007cf3  2**0
                  CONTENTS, READONLY
  5 .note.gnu.avr.deviceinfo 00000040  00000000  00000000  00007d50  2**2
                  CONTENTS, READONLY
  6 .debug_aranges 00000608  00000000  00000000  00007d90  2**3
                  CONTENTS, READONLY, DEBUGGING
  7 .debug_info   0000f648  00000000  00000000  00008398  2**0
                  CONTENTS, READONLY, DEBUGGING
  8 .debug_abbrev 00004dc8  00000000  00000000  000179e0  2**0
                  CONTENTS, READONLY, DEBUGGING
  9 .debug_line   00005ccf  00000000  00000000  0001c7a8  2**0
                  CONTENTS, READONLY, DEBUGGING
 10 .debug_frame  00001038  00000000  00000000  00022478  2**2
                  CONTENTS, READONLY, DEBUGGING
 11 .debug_str    000039b9  00000000  00000000  000234b0  2**0
                  CONTENTS, READONLY, DEBUGGING
 12 .debug_loc    00003f4a  00000000  00000000  00026e69  2**0
                  CONTENTS, READONLY, DEBUGGING
 13 .debug_ranges 00000528  00000000  00000000  0002adb3  2**0
                  CONTENTS, READONLY, DEBUGGING

Disassembly of section .text:

00000600 <__vectors>:
     600:	0c 94 1e 04 	jmp	0x83c	; 0x83c <__ctors_end>
     604:	0c 94 3d 04 	jmp	0x87a	; 0x87a <__bad_interrupt>
     608:	0c 94 3d 04 	jmp	0x87a	; 0x87a <__bad_interrupt>
     60c:	0c 94 3d 04 	jmp	0x87a	; 0x87a <__bad_interrupt>
     610:	0c 94 3d 04 	jmp	0x87a	; 0x87a <__bad_interrupt>
     614:	0c 94 3d 04 	jmp	0x87a	; 0x87a <__bad_interrupt>
     618:	0c 94 3d 04 	jmp	0x87a	; 0x87a <__bad_interrupt>
     61c:	0c 94 3d 04 	jmp	0x87a	; 0x87a <__bad_interrupt>
     620:	0c 94 3d 04 	jmp	0x87a	; 0x87a <__bad_interrupt>
     624:	0c 94 3d 04 	jmp	0x87a	; 0x87a <__bad_interrupt>
     628:	0c 94 3d 04 	jmp	0x87a	; 0x87a <__bad_interrupt>
     62c:	0c 94 3d 04 	jmp	0x87a	; 0x87a <__bad_interrupt>
     630:	0c 94 3d 04 	jmp	0x87a	; 0x87a <__bad_interrupt>
     634:	0c 94 3d 04 	jmp	0x87a	; 0x87a <__bad_interrupt>
     638:	0c 94 3d 04 	jmp	0x87a	; 0x87a <__bad_interrupt>
     63c:	0c 94 3d 04 	jmp	0x87a	; 0x87a <__bad_interrupt>
     640:	0c 94 3d 04 	jmp	0x87a	; 0x87a <__bad_interrupt>
     644:	0c 94 3d 04 	jmp	0x87a	; 0x87a <__bad_interrupt>
     648:	0c 94 3d 04 	jmp	0x87a	; 0x87a <__bad_interrupt>
     64c:	0c 94 3d 04 	jmp	0x87a	; 0x87a <__bad_interrupt>
     650:	0c 94 3d 04 	jmp	0x87a	; 0x87a <__bad_interrupt>
     654:	0c 94 3d 04 	jmp	0x87a	; 0x87a <__bad_interrupt>
     658:	0c 94 3d 04 	jmp	0x87a	; 0x87a <__bad_interrupt>
     65c:	0c 94 3d 04 	jmp	0x87a	; 0x87a <__bad_interrupt>
     660:	0c 94 3d 04 	jmp	0x87a	; 0x87a <__bad_interrupt>
     664:	0c 94 3d 04 	jmp	0x87a	; 0x87a <__bad_interrupt>
     668:	0c 94 3d 04 	jmp	0x87a	; 0x87a <__bad_interrupt>
     66c:	0c 94 3d 04 	jmp	0x87a	; 0x87a <__bad_interrupt>
     670:	0c 94 3d 04 	jmp	0x87a	; 0x87a <__bad_interrupt>
     674:	0c 94 3d 04 	jmp	0x87a	; 0x87a <__bad_interrupt>
     678:	0c 94 3d 04 	jmp	0x87a	; 0x87a <__bad_interrupt>
     67c:	0c 94 4a 04 	jmp	0x894	; 0x894 <__vector_31>
     680:	0c 94 3d 04 	jmp	0x87a	; 0x87a <__bad_interrupt>
     684:	0c 94 3d 04 	jmp	0x87a	; 0x87a <__bad_interrupt>
     688:	0c 94 3d 04 	jmp	0x87a	; 0x87a <__bad_interrupt>
     68c:	0c 94 3d 04 	jmp	0x87a	; 0x87a <__bad_interrupt>
     690:	0c 94 3d 04 	jmp	0x87a	; 0x87a <__bad_interrupt>
     694:	0c 94 3d 04 	jmp	0x87a	; 0x87a <__bad_interrupt>
     698:	0c 94 3d 04 	jmp	0x87a	; 0x87a <__bad_interrupt>
     69c:	0c 94 3d 04 	jmp	0x87a	; 0x87a <__bad_interrupt>
     6a0:	0c 94 3d 04 	jmp	0x87a	; 0x87a <__bad_interrupt>
     6a4:	0c 94 3d 04 	jmp	0x87a	; 0x87a <__bad_interrupt>
     6a8:	0c 94 3d 04 	jmp	0x87a	; 0x87a <__bad_interrupt>
     6ac:	0c 94 50 17 	jmp	0x2ea0	; 0x2ea0 <__vector_43>
     6b0:	0c 94 3d 04 	jmp	0x87a	; 0x87a <__bad_interrupt>
     6b4:	0c 94 3d 04 	jmp	0x87a	; 0x87a <__bad_interrupt>
     6b8:	0c 94 a2 04 	jmp	0x944	; 0x944 <__vector_46>
     6bc:	0c 94 3d 04 	jmp	0x87a	; 0x87a <__bad_interrupt>
     6c0:	0c 94 3d 04 	jmp	0x87a	; 0x87a <__bad_interrupt>
     6c4:	0c 94 3d 04 	jmp	0x87a	; 0x87a <__bad_interrupt>
     6c8:	0c 94 3d 04 	jmp	0x87a	; 0x87a <__bad_interrupt>
     6cc:	0c 94 3d 04 	jmp	0x87a	; 0x87a <__bad_interrupt>
     6d0:	0c 94 76 04 	jmp	0x8ec	; 0x8ec <__vector_52>
     6d4:	0c 94 3d 04 	jmp	0x87a	; 0x87a <__bad_interrupt>
     6d8:	0c 94 3d 04 	jmp	0x87a	; 0x87a <__bad_interrupt>
     6dc:	0c 94 3d 04 	jmp	0x87a	; 0x87a <__bad_interrupt>
     6e0:	0c 94 3d 04 	jmp	0x87a	; 0x87a <__bad_interrupt>
     6e4:	0c 94 3d 04 	jmp	0x87a	; 0x87a <__bad_interrupt>
     6e8:	0c 94 3d 04 	jmp	0x87a	; 0x87a <__bad_interrupt>
     6ec:	0c 94 3d 04 	jmp	0x87a	; 0x87a <__bad_interrupt>
     6f0:	0c 94 3d 04 	jmp	0x87a	; 0x87a <__bad_interrupt>
     6f4:	0c 94 3d 04 	jmp	0x87a	; 0x87a <__bad_interrupt>
     6f8:	0c 94 3d 04 	jmp	0x87a	; 0x87a <__bad_interrupt>
     6fc:	0c 94 3d 04 	jmp	0x87a	; 0x87a <__bad_interrupt>
     700:	76 0f       	add	r23, r22
     702:	03 0f       	add	r16, r19
     704:	1b 0f       	add	r17, r27
     706:	32 0f       	add	r19, r18
     708:	48 0f       	add	r20, r24
     70a:	5e 0f       	add	r21, r30
     70c:	74 0f       	add	r23, r20
     70e:	72 29       	or	r23, r2
     710:	3a 28       	or	r3, r10
     712:	69 28       	or	r6, r9
     714:	99 28       	or	r9, r9
     716:	c7 28       	or	r12, r7
     718:	00 29       	or	r16, r0
     71a:	36 29       	or	r19, r6
     71c:	70 29       	or	r23, r0
     71e:	e6 29       	or	r30, r6
     720:	ea 29       	or	r30, r10
     722:	ee 29       	or	r30, r14
     724:	f2 29       	or	r31, r2
     726:	f8 29       	or	r31, r8
     728:	fc 29       	or	r31, r12
     72a:	00 2a       	or	r0, r16
     72c:	c2 2a       	or	r12, r18
     72e:	2c 2b       	or	r18, r28
     730:	95 2b       	or	r25, r21
     732:	fd 2b       	or	r31, r29
     734:	67 2c       	mov	r6, r7
     736:	d1 2c       	mov	r13, r1
     738:	38 2d       	mov	r19, r8

0000073a <__trampolines_end>:
     73a:	6e 61       	ori	r22, 0x1E	; 30
     73c:	6e 00       	.word	0x006e	; ????

0000073e <__c.2332>:
     73e:	69 6e 66 00 00 40 7a 10 f3 5a 00 a0 72 4e 18 09     inf..@z..Z..rN..
     74e:	00 10 a5 d4 e8 00 00 e8 76 48 17 00 00 e4 0b 54     ........vH.....T
     75e:	02 00 00 ca 9a 3b 00 00 00 e1 f5 05 00 00 80 96     .....;..........
     76e:	98 00 00 00 40 42 0f 00 00 00 a0 86 01 00 00 00     ....@B..........
     77e:	10 27 00 00 00 00 e8 03 00 00 00 00 64 00 00 00     .'..........d...
     78e:	00 00 0a 00 00 00 00 00 01 00 00 00 00 00 2c 76     ..............,v
     79e:	d8 88 dc 67 4f 08 23 df c1 df ae 59 e1 b1 b7 96     ...gO.#....Y....
     7ae:	e5 e3 e4 53 c6 3a e6 51 99 76 96 e8 e6 c2 84 26     ...S.:.Q.v.....&
     7be:	eb 89 8c 9b 62 ed 40 7c 6f fc ef bc 9c 9f 40 f2     ....b.@|o.....@.
     7ce:	ba a5 6f a5 f4 90 05 5a 2a f7 5c 93 6b 6c f9 67     ..o....Z*.\.kl.g
     7de:	6d c1 1b fc e0 e4 0d 47 fe f5 20 e6 b5 00 d0 ed     m......G.. .....
     7ee:	90 2e 03 00 94 35 77 05 00 80 84 1e 08 00 00 20     .....5w........ 
     7fe:	4e 0a 00 00 00 c8 0c 33 33 33 33 0f 98 6e 12 83     N......3333..n..
     80e:	11 41 ef 8d 21 14 89 3b e6 55 16 cf fe e6 db 18     .A..!..;.U......
     81e:	d1 84 4b 38 1b f7 7c 1d 90 1d a4 bb e4 24 20 32     ..K8..|......$ 2
     82e:	84 72 5e 22 81 00 c9 f1 24 ec a1 e5 3d 27           .r^"....$...='

0000083c <__ctors_end>:
     83c:	11 24       	eor	r1, r1
     83e:	1f be       	out	0x3f, r1	; 63
     840:	cf ef       	ldi	r28, 0xFF	; 255
     842:	cd bf       	out	0x3d, r28	; 61
     844:	df e7       	ldi	r29, 0x7F	; 127
     846:	de bf       	out	0x3e, r29	; 62

00000848 <__do_copy_data>:
     848:	11 e4       	ldi	r17, 0x41	; 65
     84a:	a0 e0       	ldi	r26, 0x00	; 0
     84c:	b0 e4       	ldi	r27, 0x40	; 64
     84e:	e0 ec       	ldi	r30, 0xC0	; 192
     850:	f0 e8       	ldi	r31, 0x80	; 128
     852:	00 e0       	ldi	r16, 0x00	; 0
     854:	0b bf       	out	0x3b, r16	; 59
     856:	02 c0       	rjmp	.+4      	; 0x85c <__do_copy_data+0x14>
     858:	07 90       	elpm	r0, Z+
     85a:	0d 92       	st	X+, r0
     85c:	a6 37       	cpi	r26, 0x76	; 118
     85e:	b1 07       	cpc	r27, r17
     860:	d9 f7       	brne	.-10     	; 0x858 <__do_copy_data+0x10>

00000862 <__do_clear_bss>:
     862:	22 e5       	ldi	r18, 0x52	; 82
     864:	a6 e7       	ldi	r26, 0x76	; 118
     866:	b1 e4       	ldi	r27, 0x41	; 65
     868:	01 c0       	rjmp	.+2      	; 0x86c <.do_clear_bss_start>

0000086a <.do_clear_bss_loop>:
     86a:	1d 92       	st	X+, r1

0000086c <.do_clear_bss_start>:
     86c:	a7 39       	cpi	r26, 0x97	; 151
     86e:	b2 07       	cpc	r27, r18
     870:	e1 f7       	brne	.-8      	; 0x86a <.do_clear_bss_loop>
     872:	0e 94 e7 10 	call	0x21ce	; 0x21ce <main>
     876:	0c 94 5e 40 	jmp	0x80bc	; 0x80bc <_exit>

0000087a <__bad_interrupt>:
     87a:	0c 94 00 03 	jmp	0x600	; 0x600 <__vectors>

0000087e <atmel_start_init>:
     87e:	0e 94 e6 12 	call	0x25cc	; 0x25cc <system_init>
     882:	08 95       	ret

00000884 <Beep>:
     884:	e4 e0       	ldi	r30, 0x04	; 4
     886:	f4 e0       	ldi	r31, 0x04	; 4
     888:	90 81       	ld	r25, Z
     88a:	92 60       	ori	r25, 0x02	; 2
     88c:	90 83       	st	Z, r25
     88e:	80 93 69 51 	sts	0x5169, r24	; 0x805169 <Beep_Timer>
     892:	08 95       	ret

00000894 <__vector_31>:
     894:	1f 92       	push	r1
     896:	0f 92       	push	r0
     898:	0f b6       	in	r0, 0x3f	; 63
     89a:	0f 92       	push	r0
     89c:	11 24       	eor	r1, r1
     89e:	0b b6       	in	r0, 0x3b	; 59
     8a0:	0f 92       	push	r0
     8a2:	8f 93       	push	r24
     8a4:	9f 93       	push	r25
     8a6:	ef 93       	push	r30
     8a8:	ff 93       	push	r31
     8aa:	80 91 24 08 	lds	r24, 0x0824	; 0x800824 <__TEXT_REGION_LENGTH__+0x7e0824>
     8ae:	88 23       	and	r24, r24
     8b0:	e4 f7       	brge	.-8      	; 0x8aa <__vector_31+0x16>
     8b2:	80 91 eb 50 	lds	r24, 0x50EB	; 0x8050eb <Rx1_Cnt>
     8b6:	e8 2f       	mov	r30, r24
     8b8:	f0 e0       	ldi	r31, 0x00	; 0
     8ba:	90 91 20 08 	lds	r25, 0x0820	; 0x800820 <__TEXT_REGION_LENGTH__+0x7e0820>
     8be:	e0 51       	subi	r30, 0x10	; 16
     8c0:	ff 4a       	sbci	r31, 0xAF	; 175
     8c2:	90 83       	st	Z, r25
     8c4:	89 31       	cpi	r24, 0x19	; 25
     8c6:	10 f0       	brcs	.+4      	; 0x8cc <__vector_31+0x38>
     8c8:	10 92 eb 50 	sts	0x50EB, r1	; 0x8050eb <Rx1_Cnt>
     8cc:	80 91 eb 50 	lds	r24, 0x50EB	; 0x8050eb <Rx1_Cnt>
     8d0:	8f 5f       	subi	r24, 0xFF	; 255
     8d2:	80 93 eb 50 	sts	0x50EB, r24	; 0x8050eb <Rx1_Cnt>
     8d6:	ff 91       	pop	r31
     8d8:	ef 91       	pop	r30
     8da:	9f 91       	pop	r25
     8dc:	8f 91       	pop	r24
     8de:	0f 90       	pop	r0
     8e0:	0b be       	out	0x3b, r0	; 59
     8e2:	0f 90       	pop	r0
     8e4:	0f be       	out	0x3f, r0	; 63
     8e6:	0f 90       	pop	r0
     8e8:	1f 90       	pop	r1
     8ea:	18 95       	reti

000008ec <__vector_52>:
     8ec:	1f 92       	push	r1
     8ee:	0f 92       	push	r0
     8f0:	0f b6       	in	r0, 0x3f	; 63
     8f2:	0f 92       	push	r0
     8f4:	11 24       	eor	r1, r1
     8f6:	0b b6       	in	r0, 0x3b	; 59
     8f8:	0f 92       	push	r0
     8fa:	8f 93       	push	r24
     8fc:	9f 93       	push	r25
     8fe:	ef 93       	push	r30
     900:	ff 93       	push	r31
     902:	80 91 64 08 	lds	r24, 0x0864	; 0x800864 <__TEXT_REGION_LENGTH__+0x7e0864>
     906:	88 23       	and	r24, r24
     908:	e4 f7       	brge	.-8      	; 0x902 <__vector_52+0x16>
     90a:	80 91 72 51 	lds	r24, 0x5172	; 0x805172 <Rx3_Cnt>
     90e:	e8 2f       	mov	r30, r24
     910:	f0 e0       	ldi	r31, 0x00	; 0
     912:	90 91 60 08 	lds	r25, 0x0860	; 0x800860 <__TEXT_REGION_LENGTH__+0x7e0860>
     916:	e6 57       	subi	r30, 0x76	; 118
     918:	fe 4a       	sbci	r31, 0xAE	; 174
     91a:	90 83       	st	Z, r25
     91c:	8a 3f       	cpi	r24, 0xFA	; 250
     91e:	10 f0       	brcs	.+4      	; 0x924 <__vector_52+0x38>
     920:	10 92 72 51 	sts	0x5172, r1	; 0x805172 <Rx3_Cnt>
     924:	80 91 72 51 	lds	r24, 0x5172	; 0x805172 <Rx3_Cnt>
     928:	8f 5f       	subi	r24, 0xFF	; 255
     92a:	80 93 72 51 	sts	0x5172, r24	; 0x805172 <Rx3_Cnt>
     92e:	ff 91       	pop	r31
     930:	ef 91       	pop	r30
     932:	9f 91       	pop	r25
     934:	8f 91       	pop	r24
     936:	0f 90       	pop	r0
     938:	0b be       	out	0x3b, r0	; 59
     93a:	0f 90       	pop	r0
     93c:	0f be       	out	0x3f, r0	; 63
     93e:	0f 90       	pop	r0
     940:	1f 90       	pop	r1
     942:	18 95       	reti

00000944 <__vector_46>:
     944:	1f 92       	push	r1
     946:	0f 92       	push	r0
     948:	0f b6       	in	r0, 0x3f	; 63
     94a:	0f 92       	push	r0
     94c:	11 24       	eor	r1, r1
     94e:	0b b6       	in	r0, 0x3b	; 59
     950:	0f 92       	push	r0
     952:	2f 93       	push	r18
     954:	3f 93       	push	r19
     956:	4f 93       	push	r20
     958:	5f 93       	push	r21
     95a:	6f 93       	push	r22
     95c:	7f 93       	push	r23
     95e:	8f 93       	push	r24
     960:	9f 93       	push	r25
     962:	af 93       	push	r26
     964:	bf 93       	push	r27
     966:	ef 93       	push	r30
     968:	ff 93       	push	r31
     96a:	81 e0       	ldi	r24, 0x01	; 1
     96c:	80 93 4b 0a 	sts	0x0A4B, r24	; 0x800a4b <__TEXT_REGION_LENGTH__+0x7e0a4b>
     970:	0e 94 48 05 	call	0xa90	; 0xa90 <Fnd_Display>
     974:	0e 94 fe 05 	call	0xbfc	; 0xbfc <Key_Scan>
     978:	80 91 35 51 	lds	r24, 0x5135	; 0x805135 <Timer>
     97c:	81 11       	cpse	r24, r1
     97e:	05 c0       	rjmp	.+10     	; 0x98a <__vector_46+0x46>
     980:	ef e4       	ldi	r30, 0x4F	; 79
     982:	f1 e5       	ldi	r31, 0x51	; 81
     984:	11 82       	std	Z+1, r1	; 0x01
     986:	12 82       	std	Z+2, r1	; 0x02
     988:	05 c0       	rjmp	.+10     	; 0x994 <__vector_46+0x50>
     98a:	e5 e3       	ldi	r30, 0x35	; 53
     98c:	f1 e5       	ldi	r31, 0x51	; 81
     98e:	80 81       	ld	r24, Z
     990:	81 50       	subi	r24, 0x01	; 1
     992:	80 83       	st	Z, r24
     994:	80 91 69 51 	lds	r24, 0x5169	; 0x805169 <Beep_Timer>
     998:	81 11       	cpse	r24, r1
     99a:	06 c0       	rjmp	.+12     	; 0x9a8 <__vector_46+0x64>
     99c:	e4 e0       	ldi	r30, 0x04	; 4
     99e:	f4 e0       	ldi	r31, 0x04	; 4
     9a0:	80 81       	ld	r24, Z
     9a2:	8d 7f       	andi	r24, 0xFD	; 253
     9a4:	80 83       	st	Z, r24
     9a6:	03 c0       	rjmp	.+6      	; 0x9ae <__vector_46+0x6a>
     9a8:	81 50       	subi	r24, 0x01	; 1
     9aa:	80 93 69 51 	sts	0x5169, r24	; 0x805169 <Beep_Timer>
     9ae:	e5 e3       	ldi	r30, 0x35	; 53
     9b0:	f1 e5       	ldi	r31, 0x51	; 81
     9b2:	81 81       	ldd	r24, Z+1	; 0x01
     9b4:	92 81       	ldd	r25, Z+2	; 0x02
     9b6:	01 96       	adiw	r24, 0x01	; 1
     9b8:	81 83       	std	Z+1, r24	; 0x01
     9ba:	92 83       	std	Z+2, r25	; 0x02
     9bc:	81 81       	ldd	r24, Z+1	; 0x01
     9be:	92 81       	ldd	r25, Z+2	; 0x02
     9c0:	80 3d       	cpi	r24, 0xD0	; 208
     9c2:	97 40       	sbci	r25, 0x07	; 7
     9c4:	28 f0       	brcs	.+10     	; 0x9d0 <__vector_46+0x8c>
     9c6:	e0 e1       	ldi	r30, 0x10	; 16
     9c8:	f1 e5       	ldi	r31, 0x51	; 81
     9ca:	10 82       	st	Z, r1
     9cc:	11 82       	std	Z+1, r1	; 0x01
     9ce:	12 82       	std	Z+2, r1	; 0x02
     9d0:	e5 e3       	ldi	r30, 0x35	; 53
     9d2:	f1 e5       	ldi	r31, 0x51	; 81
     9d4:	83 81       	ldd	r24, Z+3	; 0x03
     9d6:	94 81       	ldd	r25, Z+4	; 0x04
     9d8:	01 96       	adiw	r24, 0x01	; 1
     9da:	83 83       	std	Z+3, r24	; 0x03
     9dc:	94 83       	std	Z+4, r25	; 0x04
     9de:	80 91 1d 51 	lds	r24, 0x511D	; 0x80511d <Blink_Timer>
     9e2:	8f 5f       	subi	r24, 0xFF	; 255
     9e4:	80 93 1d 51 	sts	0x511D, r24	; 0x80511d <Blink_Timer>
     9e8:	83 33       	cpi	r24, 0x33	; 51
     9ea:	48 f0       	brcs	.+18     	; 0x9fe <__vector_46+0xba>
     9ec:	81 e0       	ldi	r24, 0x01	; 1
     9ee:	90 91 7b 51 	lds	r25, 0x517B	; 0x80517b <Blink>
     9f2:	91 11       	cpse	r25, r1
     9f4:	80 e0       	ldi	r24, 0x00	; 0
     9f6:	80 93 7b 51 	sts	0x517B, r24	; 0x80517b <Blink>
     9fa:	10 92 1d 51 	sts	0x511D, r1	; 0x80511d <Blink_Timer>
     9fe:	ff 91       	pop	r31
     a00:	ef 91       	pop	r30
     a02:	bf 91       	pop	r27
     a04:	af 91       	pop	r26
     a06:	9f 91       	pop	r25
     a08:	8f 91       	pop	r24
     a0a:	7f 91       	pop	r23
     a0c:	6f 91       	pop	r22
     a0e:	5f 91       	pop	r21
     a10:	4f 91       	pop	r20
     a12:	3f 91       	pop	r19
     a14:	2f 91       	pop	r18
     a16:	0f 90       	pop	r0
     a18:	0b be       	out	0x3b, r0	; 59
     a1a:	0f 90       	pop	r0
     a1c:	0f be       	out	0x3f, r0	; 63
     a1e:	0f 90       	pop	r0
     a20:	1f 90       	pop	r1
     a22:	18 95       	reti

00000a24 <std_putchar>:
	SAVE.Month  [Data_Number] = ee_read_byte(MEASURE_MONTH  + (MEASURE_LENGTH * cnt));
	SAVE.Date   [Data_Number] = ee_read_byte(MEASURE_DATE   + (MEASURE_LENGTH * cnt));
	SAVE.Hour   [Data_Number] = ee_read_byte(MEASURE_HOUR   + (MEASURE_LENGTH * cnt));
	SAVE.Min    [Data_Number] = ee_read_byte(MEASURE_MIN    + (MEASURE_LENGTH * cnt));
	SAVE.Sec    [Data_Number] = ee_read_byte(MEASURE_MIN    + (MEASURE_LENGTH * cnt));
}
     a24:	cf 93       	push	r28
     a26:	c8 2f       	mov	r28, r24
     a28:	80 91 4e 51 	lds	r24, 0x514E	; 0x80514e <printf_port>
     a2c:	81 30       	cpi	r24, 0x01	; 1
     a2e:	19 f4       	brne	.+6      	; 0xa36 <std_putchar+0x12>
     a30:	8c 2f       	mov	r24, r28
     a32:	0e 94 77 2d 	call	0x5aee	; 0x5aee <USART1_Write>
     a36:	80 91 4e 51 	lds	r24, 0x514E	; 0x80514e <printf_port>
     a3a:	83 30       	cpi	r24, 0x03	; 3
     a3c:	19 f4       	brne	.+6      	; 0xa44 <std_putchar+0x20>
     a3e:	8c 2f       	mov	r24, r28
     a40:	0e 94 8c 2d 	call	0x5b18	; 0x5b18 <USART3_Write>
     a44:	80 e0       	ldi	r24, 0x00	; 0
     a46:	90 e0       	ldi	r25, 0x00	; 0
     a48:	cf 91       	pop	r28
     a4a:	08 95       	ret

00000a4c <MCU_Init>:
     a4c:	8e e0       	ldi	r24, 0x0E	; 14
     a4e:	80 93 00 04 	sts	0x0400, r24	; 0x800400 <__TEXT_REGION_LENGTH__+0x7e0400>
     a52:	8d e0       	ldi	r24, 0x0D	; 13
     a54:	80 93 20 04 	sts	0x0420, r24	; 0x800420 <__TEXT_REGION_LENGTH__+0x7e0420>
     a58:	85 e5       	ldi	r24, 0x55	; 85
     a5a:	80 93 40 04 	sts	0x0440, r24	; 0x800440 <__TEXT_REGION_LENGTH__+0x7e0440>
     a5e:	10 92 60 04 	sts	0x0460, r1	; 0x800460 <__TEXT_REGION_LENGTH__+0x7e0460>
     a62:	10 92 80 04 	sts	0x0480, r1	; 0x800480 <__TEXT_REGION_LENGTH__+0x7e0480>
     a66:	8c e0       	ldi	r24, 0x0C	; 12
     a68:	80 93 a0 04 	sts	0x04A0, r24	; 0x8004a0 <__TEXT_REGION_LENGTH__+0x7e04a0>
     a6c:	87 ef       	ldi	r24, 0xF7	; 247
     a6e:	80 93 c0 04 	sts	0x04C0, r24	; 0x8004c0 <__TEXT_REGION_LENGTH__+0x7e04c0>
     a72:	10 92 04 04 	sts	0x0404, r1	; 0x800404 <__TEXT_REGION_LENGTH__+0x7e0404>
     a76:	10 92 24 04 	sts	0x0424, r1	; 0x800424 <__TEXT_REGION_LENGTH__+0x7e0424>
     a7a:	10 92 44 04 	sts	0x0444, r1	; 0x800444 <__TEXT_REGION_LENGTH__+0x7e0444>
     a7e:	10 92 64 04 	sts	0x0464, r1	; 0x800464 <__TEXT_REGION_LENGTH__+0x7e0464>
     a82:	10 92 84 04 	sts	0x0484, r1	; 0x800484 <__TEXT_REGION_LENGTH__+0x7e0484>
     a86:	10 92 a4 04 	sts	0x04A4, r1	; 0x8004a4 <__TEXT_REGION_LENGTH__+0x7e04a4>
     a8a:	10 92 c4 04 	sts	0x04C4, r1	; 0x8004c4 <__TEXT_REGION_LENGTH__+0x7e04c4>
     a8e:	08 95       	ret

00000a90 <Fnd_Display>:
     a90:	32 e0       	ldi	r19, 0x02	; 2
     a92:	2f c0       	rjmp	.+94     	; 0xaf2 <Fnd_Display+0x62>
     a94:	e4 ec       	ldi	r30, 0xC4	; 196
     a96:	f4 e0       	ldi	r31, 0x04	; 4
     a98:	80 81       	ld	r24, Z
     a9a:	8d 7f       	andi	r24, 0xFD	; 253
     a9c:	80 83       	st	Z, r24
     a9e:	80 91 78 41 	lds	r24, 0x4178	; 0x804178 <cnt.6421>
     aa2:	94 e0       	ldi	r25, 0x04	; 4
     aa4:	39 02       	muls	r19, r25
     aa6:	f0 01       	movw	r30, r0
     aa8:	11 24       	eor	r1, r1
     aaa:	e7 58       	subi	r30, 0x87	; 135
     aac:	fe 4b       	sbci	r31, 0xBE	; 190
     aae:	e8 0f       	add	r30, r24
     ab0:	f1 1d       	adc	r31, r1
     ab2:	80 81       	ld	r24, Z
     ab4:	90 e0       	ldi	r25, 0x00	; 0
     ab6:	02 2e       	mov	r0, r18
     ab8:	02 c0       	rjmp	.+4      	; 0xabe <Fnd_Display+0x2e>
     aba:	95 95       	asr	r25
     abc:	87 95       	ror	r24
     abe:	0a 94       	dec	r0
     ac0:	e2 f7       	brpl	.-8      	; 0xaba <Fnd_Display+0x2a>
     ac2:	80 ff       	sbrs	r24, 0
     ac4:	06 c0       	rjmp	.+12     	; 0xad2 <Fnd_Display+0x42>
     ac6:	e4 ec       	ldi	r30, 0xC4	; 196
     ac8:	f4 e0       	ldi	r31, 0x04	; 4
     aca:	80 81       	ld	r24, Z
     acc:	84 60       	ori	r24, 0x04	; 4
     ace:	80 83       	st	Z, r24
     ad0:	05 c0       	rjmp	.+10     	; 0xadc <Fnd_Display+0x4c>
     ad2:	e4 ec       	ldi	r30, 0xC4	; 196
     ad4:	f4 e0       	ldi	r31, 0x04	; 4
     ad6:	80 81       	ld	r24, Z
     ad8:	8b 7f       	andi	r24, 0xFB	; 251
     ada:	80 83       	st	Z, r24
     adc:	e4 ec       	ldi	r30, 0xC4	; 196
     ade:	f4 e0       	ldi	r31, 0x04	; 4
     ae0:	80 81       	ld	r24, Z
     ae2:	82 60       	ori	r24, 0x02	; 2
     ae4:	80 83       	st	Z, r24
     ae6:	2f 5f       	subi	r18, 0xFF	; 255
     ae8:	01 c0       	rjmp	.+2      	; 0xaec <Fnd_Display+0x5c>
     aea:	20 e0       	ldi	r18, 0x00	; 0
     aec:	28 30       	cpi	r18, 0x08	; 8
     aee:	90 f2       	brcs	.-92     	; 0xa94 <Fnd_Display+0x4>
     af0:	31 50       	subi	r19, 0x01	; 1
     af2:	33 23       	and	r19, r19
     af4:	d4 f7       	brge	.-12     	; 0xaea <Fnd_Display+0x5a>
     af6:	e4 ec       	ldi	r30, 0xC4	; 196
     af8:	f4 e0       	ldi	r31, 0x04	; 4
     afa:	80 81       	ld	r24, Z
     afc:	81 60       	ori	r24, 0x01	; 1
     afe:	80 83       	st	Z, r24
     b00:	80 81       	ld	r24, Z
     b02:	8e 7f       	andi	r24, 0xFE	; 254
     b04:	80 83       	st	Z, r24
     b06:	80 91 78 41 	lds	r24, 0x4178	; 0x804178 <cnt.6421>
     b0a:	81 30       	cpi	r24, 0x01	; 1
     b0c:	a9 f0       	breq	.+42     	; 0xb38 <Fnd_Display+0xa8>
     b0e:	28 f0       	brcs	.+10     	; 0xb1a <Fnd_Display+0x8a>
     b10:	82 30       	cpi	r24, 0x02	; 2
     b12:	09 f1       	breq	.+66     	; 0xb56 <Fnd_Display+0xc6>
     b14:	83 30       	cpi	r24, 0x03	; 3
     b16:	71 f1       	breq	.+92     	; 0xb74 <Fnd_Display+0xe4>
     b18:	3b c0       	rjmp	.+118    	; 0xb90 <Fnd_Display+0x100>
     b1a:	e4 ec       	ldi	r30, 0xC4	; 196
     b1c:	f4 e0       	ldi	r31, 0x04	; 4
     b1e:	80 81       	ld	r24, Z
     b20:	8f 7e       	andi	r24, 0xEF	; 239
     b22:	80 83       	st	Z, r24
     b24:	80 81       	ld	r24, Z
     b26:	8f 7d       	andi	r24, 0xDF	; 223
     b28:	80 83       	st	Z, r24
     b2a:	80 81       	ld	r24, Z
     b2c:	8f 7b       	andi	r24, 0xBF	; 191
     b2e:	80 83       	st	Z, r24
     b30:	80 81       	ld	r24, Z
     b32:	80 68       	ori	r24, 0x80	; 128
     b34:	80 83       	st	Z, r24
     b36:	2c c0       	rjmp	.+88     	; 0xb90 <Fnd_Display+0x100>
     b38:	e4 ec       	ldi	r30, 0xC4	; 196
     b3a:	f4 e0       	ldi	r31, 0x04	; 4
     b3c:	80 81       	ld	r24, Z
     b3e:	8f 7e       	andi	r24, 0xEF	; 239
     b40:	80 83       	st	Z, r24
     b42:	80 81       	ld	r24, Z
     b44:	8f 7d       	andi	r24, 0xDF	; 223
     b46:	80 83       	st	Z, r24
     b48:	80 81       	ld	r24, Z
     b4a:	80 64       	ori	r24, 0x40	; 64
     b4c:	80 83       	st	Z, r24
     b4e:	80 81       	ld	r24, Z
     b50:	8f 77       	andi	r24, 0x7F	; 127
     b52:	80 83       	st	Z, r24
     b54:	1d c0       	rjmp	.+58     	; 0xb90 <Fnd_Display+0x100>
     b56:	e4 ec       	ldi	r30, 0xC4	; 196
     b58:	f4 e0       	ldi	r31, 0x04	; 4
     b5a:	80 81       	ld	r24, Z
     b5c:	8f 7e       	andi	r24, 0xEF	; 239
     b5e:	80 83       	st	Z, r24
     b60:	80 81       	ld	r24, Z
     b62:	80 62       	ori	r24, 0x20	; 32
     b64:	80 83       	st	Z, r24
     b66:	80 81       	ld	r24, Z
     b68:	8f 7b       	andi	r24, 0xBF	; 191
     b6a:	80 83       	st	Z, r24
     b6c:	80 81       	ld	r24, Z
     b6e:	8f 77       	andi	r24, 0x7F	; 127
     b70:	80 83       	st	Z, r24
     b72:	0e c0       	rjmp	.+28     	; 0xb90 <Fnd_Display+0x100>
     b74:	e4 ec       	ldi	r30, 0xC4	; 196
     b76:	f4 e0       	ldi	r31, 0x04	; 4
     b78:	80 81       	ld	r24, Z
     b7a:	80 61       	ori	r24, 0x10	; 16
     b7c:	80 83       	st	Z, r24
     b7e:	80 81       	ld	r24, Z
     b80:	8f 7d       	andi	r24, 0xDF	; 223
     b82:	80 83       	st	Z, r24
     b84:	80 81       	ld	r24, Z
     b86:	8f 7b       	andi	r24, 0xBF	; 191
     b88:	80 83       	st	Z, r24
     b8a:	80 81       	ld	r24, Z
     b8c:	8f 77       	andi	r24, 0x7F	; 127
     b8e:	80 83       	st	Z, r24
     b90:	80 91 78 41 	lds	r24, 0x4178	; 0x804178 <cnt.6421>
     b94:	8f 5f       	subi	r24, 0xFF	; 255
     b96:	80 93 78 41 	sts	0x4178, r24	; 0x804178 <cnt.6421>
     b9a:	84 30       	cpi	r24, 0x04	; 4
     b9c:	10 f0       	brcs	.+4      	; 0xba2 <Fnd_Display+0x112>
     b9e:	10 92 78 41 	sts	0x4178, r1	; 0x804178 <cnt.6421>
     ba2:	08 95       	ret

00000ba4 <FND_Value_Data>:
     ba4:	16 c0       	rjmp	.+44     	; 0xbd2 <FND_Value_Data+0x2e>
     ba6:	e8 2f       	mov	r30, r24
     ba8:	f0 e0       	ldi	r31, 0x00	; 0
     baa:	a4 2f       	mov	r26, r20
     bac:	b0 e0       	ldi	r27, 0x00	; 0
     bae:	ad 5b       	subi	r26, 0xBD	; 189
     bb0:	be 4b       	sbci	r27, 0xBE	; 190
     bb2:	2c 91       	ld	r18, X
     bb4:	ee 0f       	add	r30, r30
     bb6:	ff 1f       	adc	r31, r31
     bb8:	ee 0f       	add	r30, r30
     bba:	ff 1f       	adc	r31, r31
     bbc:	e7 58       	subi	r30, 0x87	; 135
     bbe:	fe 4b       	sbci	r31, 0xBE	; 190
     bc0:	e9 0f       	add	r30, r25
     bc2:	f1 1d       	adc	r31, r1
     bc4:	20 83       	st	Z, r18
     bc6:	9f 5f       	subi	r25, 0xFF	; 255
     bc8:	01 c0       	rjmp	.+2      	; 0xbcc <FND_Value_Data+0x28>
     bca:	90 e0       	ldi	r25, 0x00	; 0
     bcc:	94 30       	cpi	r25, 0x04	; 4
     bce:	58 f3       	brcs	.-42     	; 0xba6 <FND_Value_Data+0x2>
     bd0:	8f 5f       	subi	r24, 0xFF	; 255
     bd2:	68 17       	cp	r22, r24
     bd4:	d0 f7       	brcc	.-12     	; 0xbca <FND_Value_Data+0x26>
     bd6:	08 95       	ret

00000bd8 <FND_ALL_OFF>:
     bd8:	80 e0       	ldi	r24, 0x00	; 0
     bda:	0d c0       	rjmp	.+26     	; 0xbf6 <FND_ALL_OFF+0x1e>
     bdc:	e8 2f       	mov	r30, r24
     bde:	f0 e0       	ldi	r31, 0x00	; 0
     be0:	ee 0f       	add	r30, r30
     be2:	ff 1f       	adc	r31, r31
     be4:	ee 0f       	add	r30, r30
     be6:	ff 1f       	adc	r31, r31
     be8:	e7 58       	subi	r30, 0x87	; 135
     bea:	fe 4b       	sbci	r31, 0xBE	; 190
     bec:	13 82       	std	Z+3, r1	; 0x03
     bee:	12 82       	std	Z+2, r1	; 0x02
     bf0:	11 82       	std	Z+1, r1	; 0x01
     bf2:	10 82       	st	Z, r1
     bf4:	8f 5f       	subi	r24, 0xFF	; 255
     bf6:	83 30       	cpi	r24, 0x03	; 3
     bf8:	88 f3       	brcs	.-30     	; 0xbdc <FND_ALL_OFF+0x4>
     bfa:	08 95       	ret

00000bfc <Key_Scan>:
     bfc:	80 91 50 51 	lds	r24, 0x5150	; 0x805150 <KEY+0x1>
     c00:	81 11       	cpse	r24, r1
     c02:	cd c0       	rjmp	.+410    	; 0xd9e <Key_Scan+0x1a2>
     c04:	80 91 08 04 	lds	r24, 0x0408	; 0x800408 <__TEXT_REGION_LENGTH__+0x7e0408>
     c08:	84 fd       	sbrc	r24, 4
     c0a:	0f c0       	rjmp	.+30     	; 0xc2a <Key_Scan+0x2e>
     c0c:	8a e0       	ldi	r24, 0x0A	; 10
     c0e:	90 e0       	ldi	r25, 0x00	; 0
     c10:	0e 94 42 04 	call	0x884	; 0x884 <Beep>
     c14:	ef e4       	ldi	r30, 0x4F	; 79
     c16:	f1 e5       	ldi	r31, 0x51	; 81
     c18:	81 e0       	ldi	r24, 0x01	; 1
     c1a:	82 83       	std	Z+2, r24	; 0x02
     c1c:	81 83       	std	Z+1, r24	; 0x01
     c1e:	10 92 36 51 	sts	0x5136, r1	; 0x805136 <Timer+0x1>
     c22:	10 92 37 51 	sts	0x5137, r1	; 0x805137 <Timer+0x2>
     c26:	10 92 0c 51 	sts	0x510C, r1	; 0x80510c <Sec_Count>
     c2a:	80 91 08 04 	lds	r24, 0x0408	; 0x800408 <__TEXT_REGION_LENGTH__+0x7e0408>
     c2e:	85 fd       	sbrc	r24, 5
     c30:	10 c0       	rjmp	.+32     	; 0xc52 <Key_Scan+0x56>
     c32:	8a e0       	ldi	r24, 0x0A	; 10
     c34:	90 e0       	ldi	r25, 0x00	; 0
     c36:	0e 94 42 04 	call	0x884	; 0x884 <Beep>
     c3a:	ef e4       	ldi	r30, 0x4F	; 79
     c3c:	f1 e5       	ldi	r31, 0x51	; 81
     c3e:	82 e0       	ldi	r24, 0x02	; 2
     c40:	82 83       	std	Z+2, r24	; 0x02
     c42:	81 e0       	ldi	r24, 0x01	; 1
     c44:	81 83       	std	Z+1, r24	; 0x01
     c46:	10 92 36 51 	sts	0x5136, r1	; 0x805136 <Timer+0x1>
     c4a:	10 92 37 51 	sts	0x5137, r1	; 0x805137 <Timer+0x2>
     c4e:	10 92 0c 51 	sts	0x510C, r1	; 0x80510c <Sec_Count>
     c52:	80 91 08 04 	lds	r24, 0x0408	; 0x800408 <__TEXT_REGION_LENGTH__+0x7e0408>
     c56:	86 fd       	sbrc	r24, 6
     c58:	10 c0       	rjmp	.+32     	; 0xc7a <Key_Scan+0x7e>
     c5a:	8a e0       	ldi	r24, 0x0A	; 10
     c5c:	90 e0       	ldi	r25, 0x00	; 0
     c5e:	0e 94 42 04 	call	0x884	; 0x884 <Beep>
     c62:	ef e4       	ldi	r30, 0x4F	; 79
     c64:	f1 e5       	ldi	r31, 0x51	; 81
     c66:	83 e0       	ldi	r24, 0x03	; 3
     c68:	82 83       	std	Z+2, r24	; 0x02
     c6a:	81 e0       	ldi	r24, 0x01	; 1
     c6c:	81 83       	std	Z+1, r24	; 0x01
     c6e:	10 92 36 51 	sts	0x5136, r1	; 0x805136 <Timer+0x1>
     c72:	10 92 37 51 	sts	0x5137, r1	; 0x805137 <Timer+0x2>
     c76:	10 92 0c 51 	sts	0x510C, r1	; 0x80510c <Sec_Count>
     c7a:	80 91 08 04 	lds	r24, 0x0408	; 0x800408 <__TEXT_REGION_LENGTH__+0x7e0408>
     c7e:	88 23       	and	r24, r24
     c80:	84 f0       	brlt	.+32     	; 0xca2 <Key_Scan+0xa6>
     c82:	8a e0       	ldi	r24, 0x0A	; 10
     c84:	90 e0       	ldi	r25, 0x00	; 0
     c86:	0e 94 42 04 	call	0x884	; 0x884 <Beep>
     c8a:	ef e4       	ldi	r30, 0x4F	; 79
     c8c:	f1 e5       	ldi	r31, 0x51	; 81
     c8e:	84 e0       	ldi	r24, 0x04	; 4
     c90:	82 83       	std	Z+2, r24	; 0x02
     c92:	81 e0       	ldi	r24, 0x01	; 1
     c94:	81 83       	std	Z+1, r24	; 0x01
     c96:	10 92 36 51 	sts	0x5136, r1	; 0x805136 <Timer+0x1>
     c9a:	10 92 37 51 	sts	0x5137, r1	; 0x805137 <Timer+0x2>
     c9e:	10 92 0c 51 	sts	0x510C, r1	; 0x80510c <Sec_Count>
     ca2:	80 91 51 51 	lds	r24, 0x5151	; 0x805151 <KEY+0x2>
     ca6:	84 30       	cpi	r24, 0x04	; 4
     ca8:	51 f4       	brne	.+20     	; 0xcbe <Key_Scan+0xc2>
     caa:	80 91 10 51 	lds	r24, 0x5110	; 0x805110 <SET>
     cae:	88 23       	and	r24, r24
     cb0:	19 f0       	breq	.+6      	; 0xcb8 <Key_Scan+0xbc>
     cb2:	10 92 10 51 	sts	0x5110, r1	; 0x805110 <SET>
     cb6:	03 c0       	rjmp	.+6      	; 0xcbe <Key_Scan+0xc2>
     cb8:	81 e0       	ldi	r24, 0x01	; 1
     cba:	80 93 10 51 	sts	0x5110, r24	; 0x805110 <SET>
     cbe:	80 91 10 51 	lds	r24, 0x5110	; 0x805110 <SET>
     cc2:	88 23       	and	r24, r24
     cc4:	91 f0       	breq	.+36     	; 0xcea <Key_Scan+0xee>
     cc6:	80 91 51 51 	lds	r24, 0x5151	; 0x805151 <KEY+0x2>
     cca:	82 30       	cpi	r24, 0x02	; 2
     ccc:	71 f4       	brne	.+28     	; 0xcea <Key_Scan+0xee>
     cce:	80 91 13 51 	lds	r24, 0x5113	; 0x805113 <SET+0x3>
     cd2:	81 11       	cpse	r24, r1
     cd4:	0a c0       	rjmp	.+20     	; 0xcea <Key_Scan+0xee>
     cd6:	80 91 11 51 	lds	r24, 0x5111	; 0x805111 <SET+0x1>
     cda:	88 23       	and	r24, r24
     cdc:	19 f0       	breq	.+6      	; 0xce4 <Key_Scan+0xe8>
     cde:	10 92 11 51 	sts	0x5111, r1	; 0x805111 <SET+0x1>
     ce2:	03 c0       	rjmp	.+6      	; 0xcea <Key_Scan+0xee>
     ce4:	81 e0       	ldi	r24, 0x01	; 1
     ce6:	80 93 11 51 	sts	0x5111, r24	; 0x805111 <SET+0x1>
     cea:	80 91 10 51 	lds	r24, 0x5110	; 0x805110 <SET>
     cee:	81 11       	cpse	r24, r1
     cf0:	17 c0       	rjmp	.+46     	; 0xd20 <Key_Scan+0x124>
     cf2:	80 91 12 51 	lds	r24, 0x5112	; 0x805112 <SET+0x2>
     cf6:	81 11       	cpse	r24, r1
     cf8:	13 c0       	rjmp	.+38     	; 0xd20 <Key_Scan+0x124>
     cfa:	80 91 51 51 	lds	r24, 0x5151	; 0x805151 <KEY+0x2>
     cfe:	82 30       	cpi	r24, 0x02	; 2
     d00:	79 f4       	brne	.+30     	; 0xd20 <Key_Scan+0x124>
     d02:	80 91 14 51 	lds	r24, 0x5114	; 0x805114 <SET+0x4>
     d06:	88 23       	and	r24, r24
     d08:	19 f0       	breq	.+6      	; 0xd10 <Key_Scan+0x114>
     d0a:	10 92 14 51 	sts	0x5114, r1	; 0x805114 <SET+0x4>
     d0e:	08 c0       	rjmp	.+16     	; 0xd20 <Key_Scan+0x124>
     d10:	81 e0       	ldi	r24, 0x01	; 1
     d12:	80 93 14 51 	sts	0x5114, r24	; 0x805114 <SET+0x4>
     d16:	4a e0       	ldi	r20, 0x0A	; 10
     d18:	62 e0       	ldi	r22, 0x02	; 2
     d1a:	82 e0       	ldi	r24, 0x02	; 2
     d1c:	0e 94 d2 05 	call	0xba4	; 0xba4 <FND_Value_Data>
     d20:	80 91 10 51 	lds	r24, 0x5110	; 0x805110 <SET>
     d24:	88 23       	and	r24, r24
     d26:	69 f0       	breq	.+26     	; 0xd42 <Key_Scan+0x146>
     d28:	80 91 51 51 	lds	r24, 0x5151	; 0x805151 <KEY+0x2>
     d2c:	82 30       	cpi	r24, 0x02	; 2
     d2e:	49 f4       	brne	.+18     	; 0xd42 <Key_Scan+0x146>
     d30:	80 91 13 51 	lds	r24, 0x5113	; 0x805113 <SET+0x3>
     d34:	88 23       	and	r24, r24
     d36:	29 f0       	breq	.+10     	; 0xd42 <Key_Scan+0x146>
     d38:	ef e4       	ldi	r30, 0x4F	; 79
     d3a:	f1 e5       	ldi	r31, 0x51	; 81
     d3c:	80 81       	ld	r24, Z
     d3e:	8f 5f       	subi	r24, 0xFF	; 255
     d40:	80 83       	st	Z, r24
     d42:	80 91 10 51 	lds	r24, 0x5110	; 0x805110 <SET>
     d46:	81 11       	cpse	r24, r1
     d48:	0b c0       	rjmp	.+22     	; 0xd60 <Key_Scan+0x164>
     d4a:	80 91 51 51 	lds	r24, 0x5151	; 0x805151 <KEY+0x2>
     d4e:	81 30       	cpi	r24, 0x01	; 1
     d50:	39 f4       	brne	.+14     	; 0xd60 <Key_Scan+0x164>
     d52:	80 91 12 51 	lds	r24, 0x5112	; 0x805112 <SET+0x2>
     d56:	81 11       	cpse	r24, r1
     d58:	03 c0       	rjmp	.+6      	; 0xd60 <Key_Scan+0x164>
     d5a:	81 e0       	ldi	r24, 0x01	; 1
     d5c:	80 93 12 51 	sts	0x5112, r24	; 0x805112 <SET+0x2>
     d60:	ef e4       	ldi	r30, 0x4F	; 79
     d62:	f1 e5       	ldi	r31, 0x51	; 81
     d64:	93 81       	ldd	r25, Z+3	; 0x03
     d66:	82 81       	ldd	r24, Z+2	; 0x02
     d68:	98 13       	cpse	r25, r24
     d6a:	11 c0       	rjmp	.+34     	; 0xd8e <Key_Scan+0x192>
     d6c:	80 91 53 51 	lds	r24, 0x5153	; 0x805153 <KEY+0x4>
     d70:	82 30       	cpi	r24, 0x02	; 2
     d72:	20 f0       	brcs	.+8      	; 0xd7c <Key_Scan+0x180>
     d74:	84 e1       	ldi	r24, 0x14	; 20
     d76:	80 93 35 51 	sts	0x5135, r24	; 0x805135 <Timer>
     d7a:	08 95       	ret
     d7c:	82 e3       	ldi	r24, 0x32	; 50
     d7e:	80 93 35 51 	sts	0x5135, r24	; 0x805135 <Timer>
     d82:	ef e4       	ldi	r30, 0x4F	; 79
     d84:	f1 e5       	ldi	r31, 0x51	; 81
     d86:	84 81       	ldd	r24, Z+4	; 0x04
     d88:	8f 5f       	subi	r24, 0xFF	; 255
     d8a:	84 83       	std	Z+4, r24	; 0x04
     d8c:	08 95       	ret
     d8e:	82 e3       	ldi	r24, 0x32	; 50
     d90:	80 93 35 51 	sts	0x5135, r24	; 0x805135 <Timer>
     d94:	ef e4       	ldi	r30, 0x4F	; 79
     d96:	f1 e5       	ldi	r31, 0x51	; 81
     d98:	82 81       	ldd	r24, Z+2	; 0x02
     d9a:	83 83       	std	Z+3, r24	; 0x03
     d9c:	14 82       	std	Z+4, r1	; 0x04
     d9e:	08 95       	ret

00000da0 <Read_eeprom>:
     da0:	cf 92       	push	r12
     da2:	df 92       	push	r13
     da4:	ef 92       	push	r14
     da6:	ff 92       	push	r15
     da8:	80 e0       	ldi	r24, 0x00	; 0
     daa:	90 e0       	ldi	r25, 0x00	; 0
     dac:	0e 94 f9 12 	call	0x25f2	; 0x25f2 <ee_read_byte>
     db0:	80 93 4b 51 	sts	0x514B, r24	; 0x80514b <Gukbun>
     db4:	81 50       	subi	r24, 0x01	; 1
     db6:	8c 33       	cpi	r24, 0x3C	; 60
     db8:	40 f0       	brcs	.+16     	; 0xdca <Read_eeprom+0x2a>
     dba:	81 e0       	ldi	r24, 0x01	; 1
     dbc:	80 93 4b 51 	sts	0x514B, r24	; 0x80514b <Gukbun>
     dc0:	61 e0       	ldi	r22, 0x01	; 1
     dc2:	80 e0       	ldi	r24, 0x00	; 0
     dc4:	90 e0       	ldi	r25, 0x00	; 0
     dc6:	0e 94 1b 13 	call	0x2636	; 0x2636 <ee_write_byte>
     dca:	81 e0       	ldi	r24, 0x01	; 1
     dcc:	90 e0       	ldi	r25, 0x00	; 0
     dce:	0e 94 f9 12 	call	0x25f2	; 0x25f2 <ee_read_byte>
     dd2:	80 93 54 51 	sts	0x5154, r24	; 0x805154 <Gwid>
     dd6:	81 50       	subi	r24, 0x01	; 1
     dd8:	8c 33       	cpi	r24, 0x3C	; 60
     dda:	40 f0       	brcs	.+16     	; 0xdec <Read_eeprom+0x4c>
     ddc:	81 e0       	ldi	r24, 0x01	; 1
     dde:	80 93 54 51 	sts	0x5154, r24	; 0x805154 <Gwid>
     de2:	61 e0       	ldi	r22, 0x01	; 1
     de4:	81 e0       	ldi	r24, 0x01	; 1
     de6:	90 e0       	ldi	r25, 0x00	; 0
     de8:	0e 94 1b 13 	call	0x2636	; 0x2636 <ee_write_byte>
     dec:	82 e0       	ldi	r24, 0x02	; 2
     dee:	90 e0       	ldi	r25, 0x00	; 0
     df0:	0e 94 f9 12 	call	0x25f2	; 0x25f2 <ee_read_byte>
     df4:	80 93 41 51 	sts	0x5141, r24	; 0x805141 <RTC_T+0x7>
     df8:	80 32       	cpi	r24, 0x20	; 32
     dfa:	40 f0       	brcs	.+16     	; 0xe0c <Read_eeprom+0x6c>
     dfc:	81 e0       	ldi	r24, 0x01	; 1
     dfe:	80 93 41 51 	sts	0x5141, r24	; 0x805141 <RTC_T+0x7>
     e02:	61 e0       	ldi	r22, 0x01	; 1
     e04:	82 e0       	ldi	r24, 0x02	; 2
     e06:	90 e0       	ldi	r25, 0x00	; 0
     e08:	0e 94 1b 13 	call	0x2636	; 0x2636 <ee_write_byte>
     e0c:	83 e0       	ldi	r24, 0x03	; 3
     e0e:	90 e0       	ldi	r25, 0x00	; 0
     e10:	0e 94 f9 12 	call	0x25f2	; 0x25f2 <ee_read_byte>
     e14:	80 93 ea 50 	sts	0x50EA, r24	; 0x8050ea <Cell_ID>
     e18:	8d 33       	cpi	r24, 0x3D	; 61
     e1a:	40 f0       	brcs	.+16     	; 0xe2c <Read_eeprom+0x8c>
     e1c:	81 e0       	ldi	r24, 0x01	; 1
     e1e:	80 93 ea 50 	sts	0x50EA, r24	; 0x8050ea <Cell_ID>
     e22:	61 e0       	ldi	r22, 0x01	; 1
     e24:	83 e0       	ldi	r24, 0x03	; 3
     e26:	90 e0       	ldi	r25, 0x00	; 0
     e28:	0e 94 1b 13 	call	0x2636	; 0x2636 <ee_write_byte>
     e2c:	84 e0       	ldi	r24, 0x04	; 4
     e2e:	90 e0       	ldi	r25, 0x00	; 0
     e30:	0e 94 f9 12 	call	0x25f2	; 0x25f2 <ee_read_byte>
     e34:	80 93 7e 51 	sts	0x517E, r24	; 0x80517e <Cell_CNT>
     e38:	81 50       	subi	r24, 0x01	; 1
     e3a:	84 30       	cpi	r24, 0x04	; 4
     e3c:	40 f0       	brcs	.+16     	; 0xe4e <Read_eeprom+0xae>
     e3e:	82 e0       	ldi	r24, 0x02	; 2
     e40:	80 93 7e 51 	sts	0x517E, r24	; 0x80517e <Cell_CNT>
     e44:	62 e0       	ldi	r22, 0x02	; 2
     e46:	84 e0       	ldi	r24, 0x04	; 4
     e48:	90 e0       	ldi	r25, 0x00	; 0
     e4a:	0e 94 1b 13 	call	0x2636	; 0x2636 <ee_write_byte>
     e4e:	88 e0       	ldi	r24, 0x08	; 8
     e50:	90 e0       	ldi	r25, 0x00	; 0
     e52:	0e 94 03 13 	call	0x2606	; 0x2606 <ee_read_word>
     e56:	a0 e0       	ldi	r26, 0x00	; 0
     e58:	b0 e0       	ldi	r27, 0x00	; 0
     e5a:	80 93 6b 51 	sts	0x516B, r24	; 0x80516b <Cell_Capa>
     e5e:	90 93 6c 51 	sts	0x516C, r25	; 0x80516c <Cell_Capa+0x1>
     e62:	a0 93 6d 51 	sts	0x516D, r26	; 0x80516d <Cell_Capa+0x2>
     e66:	b0 93 6e 51 	sts	0x516E, r27	; 0x80516e <Cell_Capa+0x3>
     e6a:	84 56       	subi	r24, 0x64	; 100
     e6c:	91 09       	sbc	r25, r1
     e6e:	a1 09       	sbc	r26, r1
     e70:	b1 09       	sbc	r27, r1
     e72:	85 38       	cpi	r24, 0x85	; 133
     e74:	93 40       	sbci	r25, 0x03	; 3
     e76:	a1 05       	cpc	r26, r1
     e78:	b1 05       	cpc	r27, r1
     e7a:	90 f0       	brcs	.+36     	; 0xea0 <Read_eeprom+0x100>
     e7c:	84 e6       	ldi	r24, 0x64	; 100
     e7e:	90 e0       	ldi	r25, 0x00	; 0
     e80:	a0 e0       	ldi	r26, 0x00	; 0
     e82:	b0 e0       	ldi	r27, 0x00	; 0
     e84:	80 93 6b 51 	sts	0x516B, r24	; 0x80516b <Cell_Capa>
     e88:	90 93 6c 51 	sts	0x516C, r25	; 0x80516c <Cell_Capa+0x1>
     e8c:	a0 93 6d 51 	sts	0x516D, r26	; 0x80516d <Cell_Capa+0x2>
     e90:	b0 93 6e 51 	sts	0x516E, r27	; 0x80516e <Cell_Capa+0x3>
     e94:	64 e6       	ldi	r22, 0x64	; 100
     e96:	70 e0       	ldi	r23, 0x00	; 0
     e98:	88 e0       	ldi	r24, 0x08	; 8
     e9a:	90 e0       	ldi	r25, 0x00	; 0
     e9c:	0e 94 3e 13 	call	0x267c	; 0x267c <ee_write_word>
     ea0:	8c e0       	ldi	r24, 0x0C	; 12
     ea2:	90 e0       	ldi	r25, 0x00	; 0
     ea4:	0e 94 0e 13 	call	0x261c	; 0x261c <ee_read_dword>
     ea8:	0e 94 7a 36 	call	0x6cf4	; 0x6cf4 <__floatunsisf>
     eac:	6b 01       	movw	r12, r22
     eae:	7c 01       	movw	r14, r24
     eb0:	60 93 57 51 	sts	0x5157, r22	; 0x805157 <Cell_RO>
     eb4:	70 93 58 51 	sts	0x5158, r23	; 0x805158 <Cell_RO+0x1>
     eb8:	80 93 59 51 	sts	0x5159, r24	; 0x805159 <Cell_RO+0x2>
     ebc:	90 93 5a 51 	sts	0x515A, r25	; 0x80515a <Cell_RO+0x3>
     ec0:	20 e0       	ldi	r18, 0x00	; 0
     ec2:	38 ec       	ldi	r19, 0xC8	; 200
     ec4:	4f ea       	ldi	r20, 0xAF	; 175
     ec6:	57 e4       	ldi	r21, 0x47	; 71
     ec8:	0e 94 6a 37 	call	0x6ed4	; 0x6ed4 <__gesf2>
     ecc:	18 16       	cp	r1, r24
     ece:	54 f0       	brlt	.+20     	; 0xee4 <Read_eeprom+0x144>
     ed0:	20 e0       	ldi	r18, 0x00	; 0
     ed2:	30 e4       	ldi	r19, 0x40	; 64
     ed4:	4c e1       	ldi	r20, 0x1C	; 28
     ed6:	56 e4       	ldi	r21, 0x46	; 70
     ed8:	c7 01       	movw	r24, r14
     eda:	b6 01       	movw	r22, r12
     edc:	0e 94 cd 35 	call	0x6b9a	; 0x6b9a <__cmpsf2>
     ee0:	88 23       	and	r24, r24
     ee2:	a4 f4       	brge	.+40     	; 0xf0c <Read_eeprom+0x16c>
     ee4:	80 e0       	ldi	r24, 0x00	; 0
     ee6:	90 e4       	ldi	r25, 0x40	; 64
     ee8:	ac e1       	ldi	r26, 0x1C	; 28
     eea:	b7 e4       	ldi	r27, 0x47	; 71
     eec:	80 93 57 51 	sts	0x5157, r24	; 0x805157 <Cell_RO>
     ef0:	90 93 58 51 	sts	0x5158, r25	; 0x805158 <Cell_RO+0x1>
     ef4:	a0 93 59 51 	sts	0x5159, r26	; 0x805159 <Cell_RO+0x2>
     ef8:	b0 93 5a 51 	sts	0x515A, r27	; 0x80515a <Cell_RO+0x3>
     efc:	40 e4       	ldi	r20, 0x40	; 64
     efe:	5c e9       	ldi	r21, 0x9C	; 156
     f00:	60 e0       	ldi	r22, 0x00	; 0
     f02:	70 e0       	ldi	r23, 0x00	; 0
     f04:	8c e0       	ldi	r24, 0x0C	; 12
     f06:	90 e0       	ldi	r25, 0x00	; 0
     f08:	0e 94 5b 13 	call	0x26b6	; 0x26b6 <ee_write_dword>
     f0c:	8a e0       	ldi	r24, 0x0A	; 10
     f0e:	90 e0       	ldi	r25, 0x00	; 0
     f10:	0e 94 03 13 	call	0x2606	; 0x2606 <ee_read_word>
     f14:	80 93 09 51 	sts	0x5109, r24	; 0x805109 <IN_Scales>
     f18:	90 93 0a 51 	sts	0x510A, r25	; 0x80510a <IN_Scales+0x1>
     f1c:	0a 97       	sbiw	r24, 0x0a	; 10
     f1e:	87 30       	cpi	r24, 0x07	; 7
     f20:	97 42       	sbci	r25, 0x27	; 39
     f22:	60 f0       	brcs	.+24     	; 0xf3c <Read_eeprom+0x19c>
     f24:	84 ef       	ldi	r24, 0xF4	; 244
     f26:	91 e0       	ldi	r25, 0x01	; 1
     f28:	80 93 09 51 	sts	0x5109, r24	; 0x805109 <IN_Scales>
     f2c:	90 93 0a 51 	sts	0x510A, r25	; 0x80510a <IN_Scales+0x1>
     f30:	64 ef       	ldi	r22, 0xF4	; 244
     f32:	71 e0       	ldi	r23, 0x01	; 1
     f34:	8a e0       	ldi	r24, 0x0A	; 10
     f36:	90 e0       	ldi	r25, 0x00	; 0
     f38:	0e 94 3e 13 	call	0x267c	; 0x267c <ee_write_word>
     f3c:	85 e0       	ldi	r24, 0x05	; 5
     f3e:	90 e0       	ldi	r25, 0x00	; 0
     f40:	0e 94 f9 12 	call	0x25f2	; 0x25f2 <ee_read_byte>
     f44:	80 93 7c 51 	sts	0x517C, r24	; 0x80517c <Room_Number>
     f48:	81 50       	subi	r24, 0x01	; 1
     f4a:	84 36       	cpi	r24, 0x64	; 100
     f4c:	40 f0       	brcs	.+16     	; 0xf5e <Read_eeprom+0x1be>
     f4e:	81 e0       	ldi	r24, 0x01	; 1
     f50:	80 93 7c 51 	sts	0x517C, r24	; 0x80517c <Room_Number>
     f54:	61 e0       	ldi	r22, 0x01	; 1
     f56:	85 e0       	ldi	r24, 0x05	; 5
     f58:	90 e0       	ldi	r25, 0x00	; 0
     f5a:	0e 94 1b 13 	call	0x2636	; 0x2636 <ee_write_byte>
     f5e:	86 e0       	ldi	r24, 0x06	; 6
     f60:	90 e0       	ldi	r25, 0x00	; 0
     f62:	0e 94 f9 12 	call	0x25f2	; 0x25f2 <ee_read_byte>
     f66:	80 93 55 51 	sts	0x5155, r24	; 0x805155 <Stal_Number>
     f6a:	81 50       	subi	r24, 0x01	; 1
     f6c:	84 36       	cpi	r24, 0x64	; 100
     f6e:	40 f0       	brcs	.+16     	; 0xf80 <Read_eeprom+0x1e0>
     f70:	81 e0       	ldi	r24, 0x01	; 1
     f72:	80 93 55 51 	sts	0x5155, r24	; 0x805155 <Stal_Number>
     f76:	61 e0       	ldi	r22, 0x01	; 1
     f78:	86 e0       	ldi	r24, 0x06	; 6
     f7a:	90 e0       	ldi	r25, 0x00	; 0
     f7c:	0e 94 1b 13 	call	0x2636	; 0x2636 <ee_write_byte>
     f80:	87 e0       	ldi	r24, 0x07	; 7
     f82:	90 e0       	ldi	r25, 0x00	; 0
     f84:	0e 94 f9 12 	call	0x25f2	; 0x25f2 <ee_read_byte>
     f88:	80 93 89 51 	sts	0x5189, r24	; 0x805189 <Auto_Mode>
     f8c:	83 30       	cpi	r24, 0x03	; 3
     f8e:	38 f0       	brcs	.+14     	; 0xf9e <Read_eeprom+0x1fe>
     f90:	10 92 89 51 	sts	0x5189, r1	; 0x805189 <Auto_Mode>
     f94:	60 e0       	ldi	r22, 0x00	; 0
     f96:	87 e0       	ldi	r24, 0x07	; 7
     f98:	90 e0       	ldi	r25, 0x00	; 0
     f9a:	0e 94 1b 13 	call	0x2636	; 0x2636 <ee_write_byte>
     f9e:	0e 94 a0 29 	call	0x5340	; 0x5340 <RTC_Time_Read>
     fa2:	80 91 3a 51 	lds	r24, 0x513A	; 0x80513a <RTC_T>
     fa6:	8c 33       	cpi	r24, 0x3C	; 60
     fa8:	28 f0       	brcs	.+10     	; 0xfb4 <Read_eeprom+0x214>
     faa:	60 e0       	ldi	r22, 0x00	; 0
     fac:	80 e0       	ldi	r24, 0x00	; 0
     fae:	0e 94 db 29 	call	0x53b6	; 0x53b6 <RTC_Time_Write>
     fb2:	ff cf       	rjmp	.-2      	; 0xfb2 <Read_eeprom+0x212>
     fb4:	80 91 40 51 	lds	r24, 0x5140	; 0x805140 <RTC_T+0x6>
     fb8:	81 11       	cpse	r24, r1
     fba:	1c c0       	rjmp	.+56     	; 0xff4 <Read_eeprom+0x254>
     fbc:	66 e1       	ldi	r22, 0x16	; 22
     fbe:	86 e0       	ldi	r24, 0x06	; 6
     fc0:	0e 94 db 29 	call	0x53b6	; 0x53b6 <RTC_Time_Write>
     fc4:	69 e0       	ldi	r22, 0x09	; 9
     fc6:	85 e0       	ldi	r24, 0x05	; 5
     fc8:	0e 94 db 29 	call	0x53b6	; 0x53b6 <RTC_Time_Write>
     fcc:	64 e1       	ldi	r22, 0x14	; 20
     fce:	84 e0       	ldi	r24, 0x04	; 4
     fd0:	0e 94 db 29 	call	0x53b6	; 0x53b6 <RTC_Time_Write>
     fd4:	63 e0       	ldi	r22, 0x03	; 3
     fd6:	83 e0       	ldi	r24, 0x03	; 3
     fd8:	0e 94 db 29 	call	0x53b6	; 0x53b6 <RTC_Time_Write>
     fdc:	6c e0       	ldi	r22, 0x0C	; 12
     fde:	82 e0       	ldi	r24, 0x02	; 2
     fe0:	0e 94 db 29 	call	0x53b6	; 0x53b6 <RTC_Time_Write>
     fe4:	60 e0       	ldi	r22, 0x00	; 0
     fe6:	81 e0       	ldi	r24, 0x01	; 1
     fe8:	0e 94 db 29 	call	0x53b6	; 0x53b6 <RTC_Time_Write>
     fec:	60 e0       	ldi	r22, 0x00	; 0
     fee:	80 e0       	ldi	r24, 0x00	; 0
     ff0:	0e 94 db 29 	call	0x53b6	; 0x53b6 <RTC_Time_Write>
     ff4:	ff 90       	pop	r15
     ff6:	ef 90       	pop	r14
     ff8:	df 90       	pop	r13
     ffa:	cf 90       	pop	r12
     ffc:	08 95       	ret

00000ffe <Alarm>:

//=================================================================================================
void Alarm(void)								// 알람(비프 3번) 
{
	Beep(15);								// 1mSec X 15 = 15mSec
     ffe:	8f e0       	ldi	r24, 0x0F	; 15
    1000:	90 e0       	ldi	r25, 0x00	; 0
    1002:	0e 94 42 04 	call	0x884	; 0x884 <Beep>
	#else
		//round up by default
		__ticks_dc = (uint32_t)(ceil(fabs(__tmp)));
	#endif

	__builtin_avr_delay_cycles(__ticks_dc);
    1006:	26 e6       	ldi	r18, 0x66	; 102
    1008:	86 e6       	ldi	r24, 0x66	; 102
    100a:	95 e0       	ldi	r25, 0x05	; 5
    100c:	21 50       	subi	r18, 0x01	; 1
    100e:	80 40       	sbci	r24, 0x00	; 0
    1010:	90 40       	sbci	r25, 0x00	; 0
    1012:	e1 f7       	brne	.-8      	; 0x100c <Alarm+0xe>
	_delay_ms(120);								// Time Delay  120mSec
	Beep(15);								// 1mSec X 15 = 15mSec
    1014:	8f e0       	ldi	r24, 0x0F	; 15
    1016:	90 e0       	ldi	r25, 0x00	; 0
    1018:	0e 94 42 04 	call	0x884	; 0x884 <Beep>
    101c:	26 e6       	ldi	r18, 0x66	; 102
    101e:	86 e6       	ldi	r24, 0x66	; 102
    1020:	95 e0       	ldi	r25, 0x05	; 5
    1022:	21 50       	subi	r18, 0x01	; 1
    1024:	80 40       	sbci	r24, 0x00	; 0
    1026:	90 40       	sbci	r25, 0x00	; 0
    1028:	e1 f7       	brne	.-8      	; 0x1022 <Alarm+0x24>
	_delay_ms(120);								// Time Delay  120mSec
	Beep(15);								// 1mSec X 15 = 15mSec
    102a:	8f e0       	ldi	r24, 0x0F	; 15
    102c:	90 e0       	ldi	r25, 0x00	; 0
    102e:	0e 94 42 04 	call	0x884	; 0x884 <Beep>
    1032:	08 95       	ret

00001034 <Room_Desplay>:
	Alarm();
}

//=================================================================================================
void Room_Desplay(void)								// 방 번호 표시
{
    1034:	cf 93       	push	r28
    1036:	df 93       	push	r29
	DIGIT[1][3] = FND_OFF;							// FND 1 에 방 번호 표시
    1038:	c9 e7       	ldi	r28, 0x79	; 121
    103a:	d1 e4       	ldi	r29, 0x41	; 65
    103c:	1f 82       	std	Y+7, r1	; 0x07
	DIGIT[1][2] = fnd_tbl[Room_Number / 100];
    103e:	e0 91 7c 51 	lds	r30, 0x517C	; 0x80517c <Room_Number>
    1042:	89 e2       	ldi	r24, 0x29	; 41
    1044:	e8 9f       	mul	r30, r24
    1046:	81 2d       	mov	r24, r1
    1048:	11 24       	eor	r1, r1
    104a:	82 95       	swap	r24
    104c:	8f 70       	andi	r24, 0x0F	; 15
    104e:	a8 2f       	mov	r26, r24
    1050:	b0 e0       	ldi	r27, 0x00	; 0
    1052:	ad 5b       	subi	r26, 0xBD	; 189
    1054:	be 4b       	sbci	r27, 0xBE	; 190
    1056:	9c 91       	ld	r25, X
    1058:	9e 83       	std	Y+6, r25	; 0x06
	DIGIT[1][1] = fnd_tbl[Room_Number % 100 / 10];
    105a:	ae 2f       	mov	r26, r30
    105c:	94 e6       	ldi	r25, 0x64	; 100
    105e:	89 9f       	mul	r24, r25
    1060:	a0 19       	sub	r26, r0
    1062:	11 24       	eor	r1, r1
    1064:	8d ec       	ldi	r24, 0xCD	; 205
    1066:	a8 9f       	mul	r26, r24
    1068:	a1 2d       	mov	r26, r1
    106a:	11 24       	eor	r1, r1
    106c:	a6 95       	lsr	r26
    106e:	a6 95       	lsr	r26
    1070:	a6 95       	lsr	r26
    1072:	b0 e0       	ldi	r27, 0x00	; 0
    1074:	ad 5b       	subi	r26, 0xBD	; 189
    1076:	be 4b       	sbci	r27, 0xBE	; 190
    1078:	9c 91       	ld	r25, X
    107a:	9d 83       	std	Y+5, r25	; 0x05
	DIGIT[1][0] = fnd_tbl[Room_Number % 10];
    107c:	e8 9f       	mul	r30, r24
    107e:	81 2d       	mov	r24, r1
    1080:	11 24       	eor	r1, r1
    1082:	86 95       	lsr	r24
    1084:	86 95       	lsr	r24
    1086:	86 95       	lsr	r24
    1088:	88 0f       	add	r24, r24
    108a:	98 2f       	mov	r25, r24
    108c:	99 0f       	add	r25, r25
    108e:	99 0f       	add	r25, r25
    1090:	89 0f       	add	r24, r25
    1092:	e8 1b       	sub	r30, r24
    1094:	f0 e0       	ldi	r31, 0x00	; 0
    1096:	ed 5b       	subi	r30, 0xBD	; 189
    1098:	fe 4b       	sbci	r31, 0xBE	; 190
    109a:	80 81       	ld	r24, Z
    109c:	8c 83       	std	Y+4, r24	; 0x04
}
    109e:	df 91       	pop	r29
    10a0:	cf 91       	pop	r28
    10a2:	08 95       	ret

000010a4 <Stal_Desplay>:

//=================================================================================================
void Stal_Desplay(void)								// 스톨 번호 표시
{
    10a4:	cf 93       	push	r28
    10a6:	df 93       	push	r29
	DIGIT[2][3] = FND_OFF;							// FND 2 에 스톨 번호 표시
    10a8:	c9 e7       	ldi	r28, 0x79	; 121
    10aa:	d1 e4       	ldi	r29, 0x41	; 65
    10ac:	1b 86       	std	Y+11, r1	; 0x0b
	DIGIT[2][2] = fnd_tbl[Stal_Number / 100];
    10ae:	e0 91 55 51 	lds	r30, 0x5155	; 0x805155 <Stal_Number>
    10b2:	89 e2       	ldi	r24, 0x29	; 41
    10b4:	e8 9f       	mul	r30, r24
    10b6:	81 2d       	mov	r24, r1
    10b8:	11 24       	eor	r1, r1
    10ba:	82 95       	swap	r24
    10bc:	8f 70       	andi	r24, 0x0F	; 15
    10be:	a8 2f       	mov	r26, r24
    10c0:	b0 e0       	ldi	r27, 0x00	; 0
    10c2:	ad 5b       	subi	r26, 0xBD	; 189
    10c4:	be 4b       	sbci	r27, 0xBE	; 190
    10c6:	9c 91       	ld	r25, X
    10c8:	9a 87       	std	Y+10, r25	; 0x0a
	DIGIT[2][1] = fnd_tbl[Stal_Number % 100 / 10];
    10ca:	ae 2f       	mov	r26, r30
    10cc:	94 e6       	ldi	r25, 0x64	; 100
    10ce:	89 9f       	mul	r24, r25
    10d0:	a0 19       	sub	r26, r0
    10d2:	11 24       	eor	r1, r1
    10d4:	8d ec       	ldi	r24, 0xCD	; 205
    10d6:	a8 9f       	mul	r26, r24
    10d8:	a1 2d       	mov	r26, r1
    10da:	11 24       	eor	r1, r1
    10dc:	a6 95       	lsr	r26
    10de:	a6 95       	lsr	r26
    10e0:	a6 95       	lsr	r26
    10e2:	b0 e0       	ldi	r27, 0x00	; 0
    10e4:	ad 5b       	subi	r26, 0xBD	; 189
    10e6:	be 4b       	sbci	r27, 0xBE	; 190
    10e8:	9c 91       	ld	r25, X
    10ea:	99 87       	std	Y+9, r25	; 0x09
	DIGIT[2][0] = fnd_tbl[Stal_Number % 10];
    10ec:	e8 9f       	mul	r30, r24
    10ee:	81 2d       	mov	r24, r1
    10f0:	11 24       	eor	r1, r1
    10f2:	86 95       	lsr	r24
    10f4:	86 95       	lsr	r24
    10f6:	86 95       	lsr	r24
    10f8:	88 0f       	add	r24, r24
    10fa:	98 2f       	mov	r25, r24
    10fc:	99 0f       	add	r25, r25
    10fe:	99 0f       	add	r25, r25
    1100:	89 0f       	add	r24, r25
    1102:	e8 1b       	sub	r30, r24
    1104:	f0 e0       	ldi	r31, 0x00	; 0
    1106:	ed 5b       	subi	r30, 0xBD	; 189
    1108:	fe 4b       	sbci	r31, 0xBE	; 190
    110a:	80 81       	ld	r24, Z
    110c:	88 87       	std	Y+8, r24	; 0x08
}
    110e:	df 91       	pop	r29
    1110:	cf 91       	pop	r28
    1112:	08 95       	ret

00001114 <Check_Value>:

//=================================================================================================
void Check_Value(void)								// 로드셀 체중측정
{
    1114:	8f 92       	push	r8
    1116:	9f 92       	push	r9
    1118:	af 92       	push	r10
    111a:	bf 92       	push	r11
    111c:	cf 92       	push	r12
    111e:	df 92       	push	r13
    1120:	ef 92       	push	r14
    1122:	ff 92       	push	r15
    1124:	0f 93       	push	r16
    1126:	1f 93       	push	r17
    1128:	cf 93       	push	r28
    112a:	df 93       	push	r29
	uint32_t Value = Read_Load_Cell();					// 로드셀 측정값 읽기
    112c:	0e 94 e0 19 	call	0x33c0	; 0x33c0 <Read_Load_Cell>
    1130:	ac 01       	movw	r20, r24
    1132:	60 e0       	ldi	r22, 0x00	; 0
    1134:	70 e0       	ldi	r23, 0x00	; 0
	uint32_t Old_Value = CELL.Old_Value;					// 로드셀 Old_Value 값
    1136:	c0 90 27 51 	lds	r12, 0x5127	; 0x805127 <CELL+0x9>
    113a:	d0 90 28 51 	lds	r13, 0x5128	; 0x805128 <CELL+0xa>
    113e:	e0 90 29 51 	lds	r14, 0x5129	; 0x805129 <CELL+0xb>
    1142:	f0 90 2a 51 	lds	r15, 0x512A	; 0x80512a <CELL+0xc>
    1146:	97 01       	movw	r18, r14
    1148:	86 01       	movw	r16, r12
	uint8_t cnt_1 = 3;							// OK_Count 갯수
	uint8_t cnt_2 = 10;							// OK_Count 갯수
//-------------------------------------------------------------------------------------------------
	if(Value)								// 측정체중이 있으면
    114a:	41 15       	cp	r20, r1
    114c:	51 05       	cpc	r21, r1
    114e:	61 05       	cpc	r22, r1
    1150:	71 05       	cpc	r23, r1
    1152:	09 f4       	brne	.+2      	; 0x1156 <Check_Value+0x42>
    1154:	31 c2       	rjmp	.+1122   	; 0x15b8 <Check_Value+0x4a4>
	{
		if((OK_Count_1 >= cnt_1) || (OK_Count_2 >= cnt_2))		// 측정체중 OK Count 보다 크면
    1156:	e0 91 56 51 	lds	r30, 0x5156	; 0x805156 <OK_Count_1>
    115a:	e3 30       	cpi	r30, 0x03	; 3
    115c:	28 f4       	brcc	.+10     	; 0x1168 <Check_Value+0x54>
    115e:	f0 91 80 51 	lds	r31, 0x5180	; 0x805180 <OK_Count_2>
    1162:	fa 30       	cpi	r31, 0x0A	; 10
    1164:	08 f4       	brcc	.+2      	; 0x1168 <Check_Value+0x54>
    1166:	74 c1       	rjmp	.+744    	; 0x1450 <Check_Value+0x33c>
		{
			FND_Value_Data(1, 1, 10);				// FND 1 FND_MINUS 표시
    1168:	4a e0       	ldi	r20, 0x0A	; 10
    116a:	61 e0       	ldi	r22, 0x01	; 1
    116c:	81 e0       	ldi	r24, 0x01	; 1
    116e:	0e 94 d2 05 	call	0xba4	; 0xba4 <FND_Value_Data>
			if((SET.Save || Auto_Mode) && !CELL.Zero_Buff)		// 저장 Key 가 눌렸거나 자동모드 이면서 CELL.Zero_Buff 가 0이면
    1172:	80 91 14 51 	lds	r24, 0x5114	; 0x805114 <SET+0x4>
    1176:	81 11       	cpse	r24, r1
    1178:	05 c0       	rjmp	.+10     	; 0x1184 <Check_Value+0x70>
    117a:	80 91 89 51 	lds	r24, 0x5189	; 0x805189 <Auto_Mode>
    117e:	88 23       	and	r24, r24
    1180:	09 f4       	brne	.+2      	; 0x1184 <Check_Value+0x70>
    1182:	63 c1       	rjmp	.+710    	; 0x144a <Check_Value+0x336>
    1184:	80 91 1e 51 	lds	r24, 0x511E	; 0x80511e <CELL>
    1188:	81 11       	cpse	r24, r1
    118a:	5f c1       	rjmp	.+702    	; 0x144a <Check_Value+0x336>
			{
				if(EepCnt < 35) {EepCnt++;}			// EEPROM 저장횟수 가 0 ~ 34(35개)보다 작으면 저장횟수 증가
    118c:	80 91 ad 41 	lds	r24, 0x41AD	; 0x8041ad <EepCnt>
    1190:	83 32       	cpi	r24, 0x23	; 35
    1192:	20 f4       	brcc	.+8      	; 0x119c <Check_Value+0x88>
    1194:	8f 5f       	subi	r24, 0xFF	; 255
    1196:	80 93 ad 41 	sts	0x41AD, r24	; 0x8041ad <EepCnt>
    119a:	02 c0       	rjmp	.+4      	; 0x11a0 <Check_Value+0x8c>
				else		{EepCnt=0;}			// 아니면 EEPROM 저장횟수 초기화
    119c:	10 92 ad 41 	sts	0x41AD, r1	; 0x8041ad <EepCnt>

				if(Data_Number < 299) {Data_Number++;}				// 저장횟수 가 0 ~ 299(300개)보다 작으면 저장횟수 증가
    11a0:	80 91 63 51 	lds	r24, 0x5163	; 0x805163 <Data_Number>
    11a4:	8f 5f       	subi	r24, 0xFF	; 255
    11a6:	80 93 63 51 	sts	0x5163, r24	; 0x805163 <Data_Number>
				else		      {Data_Number=0; EepCnt=0;}		// 아니면 저장횟수 초기화
//-------------------------------------------------------------------------------------------------
				SAVE.AutoSet[Data_Number] = Auto_Mode;
    11aa:	90 e0       	ldi	r25, 0x00	; 0
    11ac:	ec 01       	movw	r28, r24
    11ae:	c2 55       	subi	r28, 0x52	; 82
    11b0:	de 4b       	sbci	r29, 0xBE	; 190
    11b2:	20 91 89 51 	lds	r18, 0x5189	; 0x805189 <Auto_Mode>
    11b6:	28 83       	st	Y, r18
				SAVE.Count  [Data_Number] = Data_Number;
    11b8:	fc 01       	movw	r30, r24
    11ba:	ea 56       	subi	r30, 0x6A	; 106
    11bc:	ff 4f       	sbci	r31, 0xFF	; 255
    11be:	ee 0f       	add	r30, r30
    11c0:	ff 1f       	adc	r31, r31
    11c2:	e2 55       	subi	r30, 0x52	; 82
    11c4:	fe 4b       	sbci	r31, 0xBE	; 190
    11c6:	80 83       	st	Z, r24
    11c8:	91 83       	std	Z+1, r25	; 0x01
				SAVE.Data   [Data_Number] = CELL.Value = Old_Value;
    11ca:	0e e1       	ldi	r16, 0x1E	; 30
    11cc:	11 e5       	ldi	r17, 0x51	; 81
    11ce:	f8 01       	movw	r30, r16
    11d0:	c1 82       	std	Z+1, r12	; 0x01
    11d2:	d2 82       	std	Z+2, r13	; 0x02
    11d4:	e3 82       	std	Z+3, r14	; 0x03
    11d6:	f4 82       	std	Z+4, r15	; 0x04
    11d8:	fc 01       	movw	r30, r24
    11da:	ee 53       	subi	r30, 0x3E	; 62
    11dc:	fe 4f       	sbci	r31, 0xFE	; 254
    11de:	ee 0f       	add	r30, r30
    11e0:	ff 1f       	adc	r31, r31
    11e2:	e2 55       	subi	r30, 0x52	; 82
    11e4:	fe 4b       	sbci	r31, 0xBE	; 190
    11e6:	c0 82       	st	Z, r12
    11e8:	d1 82       	std	Z+1, r13	; 0x01
				SAVE.RoomNum[Data_Number] = Room_Number;
    11ea:	fe 01       	movw	r30, r28
    11ec:	e4 52       	subi	r30, 0x24	; 36
    11ee:	fa 4f       	sbci	r31, 0xFA	; 250
    11f0:	80 91 7c 51 	lds	r24, 0x517C	; 0x80517c <Room_Number>
    11f4:	80 83       	st	Z, r24
				SAVE.StalNum[Data_Number] = Stal_Number;
    11f6:	e4 5d       	subi	r30, 0xD4	; 212
    11f8:	fe 4f       	sbci	r31, 0xFE	; 254
    11fa:	80 91 55 51 	lds	r24, 0x5155	; 0x805155 <Stal_Number>
    11fe:	80 83       	st	Z, r24
				SAVE.Year   [Data_Number] = RTC_Single_Read(RTC_YEAR);		// YEAR
    1200:	86 e0       	ldi	r24, 0x06	; 6
    1202:	0e 94 91 29 	call	0x5322	; 0x5322 <RTC_Single_Read>
    1206:	cc 5c       	subi	r28, 0xCC	; 204
    1208:	d7 4f       	sbci	r29, 0xF7	; 247
    120a:	88 83       	st	Y, r24
				SAVE.Month  [Data_Number] = RTC_Single_Read(RTC_MONTH);		// MONTH
    120c:	c0 91 63 51 	lds	r28, 0x5163	; 0x805163 <Data_Number>
    1210:	d0 e0       	ldi	r29, 0x00	; 0
    1212:	85 e0       	ldi	r24, 0x05	; 5
    1214:	0e 94 91 29 	call	0x5322	; 0x5322 <RTC_Single_Read>
    1218:	c2 5f       	subi	r28, 0xF2	; 242
    121a:	d4 4b       	sbci	r29, 0xB4	; 180
    121c:	88 83       	st	Y, r24
				SAVE.Date   [Data_Number] = RTC_Single_Read(RTC_DATE);		// DATE
    121e:	c0 91 63 51 	lds	r28, 0x5163	; 0x805163 <Data_Number>
    1222:	d0 e0       	ldi	r29, 0x00	; 0
    1224:	84 e0       	ldi	r24, 0x04	; 4
    1226:	0e 94 91 29 	call	0x5322	; 0x5322 <RTC_Single_Read>
    122a:	c6 5c       	subi	r28, 0xC6	; 198
    122c:	d3 4b       	sbci	r29, 0xB3	; 179
    122e:	88 83       	st	Y, r24
				SAVE.Hour   [Data_Number] = RTC_Single_Read(RTC_HOUR);		// HOUR
    1230:	c0 91 63 51 	lds	r28, 0x5163	; 0x805163 <Data_Number>
    1234:	d0 e0       	ldi	r29, 0x00	; 0
    1236:	82 e0       	ldi	r24, 0x02	; 2
    1238:	0e 94 91 29 	call	0x5322	; 0x5322 <RTC_Single_Read>
    123c:	ca 59       	subi	r28, 0x9A	; 154
    123e:	d2 4b       	sbci	r29, 0xB2	; 178
    1240:	88 83       	st	Y, r24
				SAVE.Min    [Data_Number] = RTC_Single_Read(RTC_MINUTE);	// MINUTE
    1242:	c0 91 63 51 	lds	r28, 0x5163	; 0x805163 <Data_Number>
    1246:	d0 e0       	ldi	r29, 0x00	; 0
    1248:	81 e0       	ldi	r24, 0x01	; 1
    124a:	0e 94 91 29 	call	0x5322	; 0x5322 <RTC_Single_Read>
    124e:	ce 56       	subi	r28, 0x6E	; 110
    1250:	d1 4b       	sbci	r29, 0xB1	; 177
    1252:	88 83       	st	Y, r24
				SAVE.Sec    [Data_Number] = RTC_Single_Read(RTC_SECOND);	// SECOND
    1254:	c0 91 63 51 	lds	r28, 0x5163	; 0x805163 <Data_Number>
    1258:	d0 e0       	ldi	r29, 0x00	; 0
    125a:	80 e0       	ldi	r24, 0x00	; 0
    125c:	0e 94 91 29 	call	0x5322	; 0x5322 <RTC_Single_Read>
    1260:	c2 54       	subi	r28, 0x42	; 66
    1262:	d0 4b       	sbci	r29, 0xB0	; 176
    1264:	88 83       	st	Y, r24
//-------------------------------------------------------------------------------------------------
				ee_write_byte(MEASURE_AUTO   + (MEASURE_LENGTH * EepCnt), Auto_Mode);
    1266:	80 91 ad 41 	lds	r24, 0x41AD	; 0x8041ad <EepCnt>
    126a:	90 e0       	ldi	r25, 0x00	; 0
    126c:	9c 01       	movw	r18, r24
    126e:	22 0f       	add	r18, r18
    1270:	33 1f       	adc	r19, r19
    1272:	82 0f       	add	r24, r18
    1274:	93 1f       	adc	r25, r19
    1276:	88 0f       	add	r24, r24
    1278:	99 1f       	adc	r25, r25
    127a:	88 0f       	add	r24, r24
    127c:	99 1f       	adc	r25, r25
    127e:	60 91 89 51 	lds	r22, 0x5189	; 0x805189 <Auto_Mode>
    1282:	80 96       	adiw	r24, 0x20	; 32
    1284:	0e 94 1b 13 	call	0x2636	; 0x2636 <ee_write_byte>
				ee_write_word(MEASURE_COUNT  + (MEASURE_LENGTH * EepCnt), Data_Number);
    1288:	80 91 ad 41 	lds	r24, 0x41AD	; 0x8041ad <EepCnt>
    128c:	90 e0       	ldi	r25, 0x00	; 0
    128e:	9c 01       	movw	r18, r24
    1290:	22 0f       	add	r18, r18
    1292:	33 1f       	adc	r19, r19
    1294:	82 0f       	add	r24, r18
    1296:	93 1f       	adc	r25, r19
    1298:	88 0f       	add	r24, r24
    129a:	99 1f       	adc	r25, r25
    129c:	88 0f       	add	r24, r24
    129e:	99 1f       	adc	r25, r25
    12a0:	60 91 63 51 	lds	r22, 0x5163	; 0x805163 <Data_Number>
    12a4:	70 e0       	ldi	r23, 0x00	; 0
    12a6:	44 96       	adiw	r24, 0x14	; 20
    12a8:	0e 94 3e 13 	call	0x267c	; 0x267c <ee_write_word>
				ee_write_word(MEASURE_WEIGHT + (MEASURE_LENGTH * EepCnt), CELL.Value = Old_Value);
    12ac:	f8 01       	movw	r30, r16
    12ae:	c1 82       	std	Z+1, r12	; 0x01
    12b0:	d2 82       	std	Z+2, r13	; 0x02
    12b2:	e3 82       	std	Z+3, r14	; 0x03
    12b4:	f4 82       	std	Z+4, r15	; 0x04
    12b6:	80 91 ad 41 	lds	r24, 0x41AD	; 0x8041ad <EepCnt>
    12ba:	90 e0       	ldi	r25, 0x00	; 0
    12bc:	9c 01       	movw	r18, r24
    12be:	22 0f       	add	r18, r18
    12c0:	33 1f       	adc	r19, r19
    12c2:	82 0f       	add	r24, r18
    12c4:	93 1f       	adc	r25, r19
    12c6:	88 0f       	add	r24, r24
    12c8:	99 1f       	adc	r25, r25
    12ca:	88 0f       	add	r24, r24
    12cc:	99 1f       	adc	r25, r25
    12ce:	b6 01       	movw	r22, r12
    12d0:	48 96       	adiw	r24, 0x18	; 24
    12d2:	0e 94 3e 13 	call	0x267c	; 0x267c <ee_write_word>
				ee_write_byte(ROOM_NUMBER    + (MEASURE_LENGTH * EepCnt), Room_Number);
    12d6:	80 91 ad 41 	lds	r24, 0x41AD	; 0x8041ad <EepCnt>
    12da:	90 e0       	ldi	r25, 0x00	; 0
    12dc:	9c 01       	movw	r18, r24
    12de:	22 0f       	add	r18, r18
    12e0:	33 1f       	adc	r19, r19
    12e2:	82 0f       	add	r24, r18
    12e4:	93 1f       	adc	r25, r19
    12e6:	88 0f       	add	r24, r24
    12e8:	99 1f       	adc	r25, r25
    12ea:	88 0f       	add	r24, r24
    12ec:	99 1f       	adc	r25, r25
    12ee:	60 91 7c 51 	lds	r22, 0x517C	; 0x80517c <Room_Number>
    12f2:	46 96       	adiw	r24, 0x16	; 22
    12f4:	0e 94 1b 13 	call	0x2636	; 0x2636 <ee_write_byte>
				ee_write_byte(STALL_NUMBER   + (MEASURE_LENGTH * EepCnt), Stal_Number);
    12f8:	80 91 ad 41 	lds	r24, 0x41AD	; 0x8041ad <EepCnt>
    12fc:	90 e0       	ldi	r25, 0x00	; 0
    12fe:	9c 01       	movw	r18, r24
    1300:	22 0f       	add	r18, r18
    1302:	33 1f       	adc	r19, r19
    1304:	82 0f       	add	r24, r18
    1306:	93 1f       	adc	r25, r19
    1308:	88 0f       	add	r24, r24
    130a:	99 1f       	adc	r25, r25
    130c:	88 0f       	add	r24, r24
    130e:	99 1f       	adc	r25, r25
    1310:	60 91 55 51 	lds	r22, 0x5155	; 0x805155 <Stal_Number>
    1314:	47 96       	adiw	r24, 0x17	; 23
    1316:	0e 94 1b 13 	call	0x2636	; 0x2636 <ee_write_byte>
				ee_write_byte(MEASURE_YEAR   + (MEASURE_LENGTH * EepCnt), RTC_Single_Read(RTC_YEAR));
    131a:	86 e0       	ldi	r24, 0x06	; 6
    131c:	0e 94 91 29 	call	0x5322	; 0x5322 <RTC_Single_Read>
    1320:	68 2f       	mov	r22, r24
    1322:	20 91 ad 41 	lds	r18, 0x41AD	; 0x8041ad <EepCnt>
    1326:	30 e0       	ldi	r19, 0x00	; 0
    1328:	c9 01       	movw	r24, r18
    132a:	88 0f       	add	r24, r24
    132c:	99 1f       	adc	r25, r25
    132e:	28 0f       	add	r18, r24
    1330:	39 1f       	adc	r19, r25
    1332:	c9 01       	movw	r24, r18
    1334:	88 0f       	add	r24, r24
    1336:	99 1f       	adc	r25, r25
    1338:	88 0f       	add	r24, r24
    133a:	99 1f       	adc	r25, r25
    133c:	4a 96       	adiw	r24, 0x1a	; 26
    133e:	0e 94 1b 13 	call	0x2636	; 0x2636 <ee_write_byte>
				ee_write_byte(MEASURE_MONTH  + (MEASURE_LENGTH * EepCnt), RTC_Single_Read(RTC_MONTH));
    1342:	85 e0       	ldi	r24, 0x05	; 5
    1344:	0e 94 91 29 	call	0x5322	; 0x5322 <RTC_Single_Read>
    1348:	68 2f       	mov	r22, r24
    134a:	20 91 ad 41 	lds	r18, 0x41AD	; 0x8041ad <EepCnt>
    134e:	30 e0       	ldi	r19, 0x00	; 0
    1350:	c9 01       	movw	r24, r18
    1352:	88 0f       	add	r24, r24
    1354:	99 1f       	adc	r25, r25
    1356:	28 0f       	add	r18, r24
    1358:	39 1f       	adc	r19, r25
    135a:	c9 01       	movw	r24, r18
    135c:	88 0f       	add	r24, r24
    135e:	99 1f       	adc	r25, r25
    1360:	88 0f       	add	r24, r24
    1362:	99 1f       	adc	r25, r25
    1364:	4b 96       	adiw	r24, 0x1b	; 27
    1366:	0e 94 1b 13 	call	0x2636	; 0x2636 <ee_write_byte>
				ee_write_byte(MEASURE_DATE   + (MEASURE_LENGTH * EepCnt), RTC_Single_Read(RTC_DATE));
    136a:	84 e0       	ldi	r24, 0x04	; 4
    136c:	0e 94 91 29 	call	0x5322	; 0x5322 <RTC_Single_Read>
    1370:	68 2f       	mov	r22, r24
    1372:	20 91 ad 41 	lds	r18, 0x41AD	; 0x8041ad <EepCnt>
    1376:	30 e0       	ldi	r19, 0x00	; 0
    1378:	c9 01       	movw	r24, r18
    137a:	88 0f       	add	r24, r24
    137c:	99 1f       	adc	r25, r25
    137e:	28 0f       	add	r18, r24
    1380:	39 1f       	adc	r19, r25
    1382:	c9 01       	movw	r24, r18
    1384:	88 0f       	add	r24, r24
    1386:	99 1f       	adc	r25, r25
    1388:	88 0f       	add	r24, r24
    138a:	99 1f       	adc	r25, r25
    138c:	4c 96       	adiw	r24, 0x1c	; 28
    138e:	0e 94 1b 13 	call	0x2636	; 0x2636 <ee_write_byte>
				ee_write_byte(MEASURE_HOUR   + (MEASURE_LENGTH * EepCnt), RTC_Single_Read(RTC_HOUR));
    1392:	82 e0       	ldi	r24, 0x02	; 2
    1394:	0e 94 91 29 	call	0x5322	; 0x5322 <RTC_Single_Read>
    1398:	68 2f       	mov	r22, r24
    139a:	20 91 ad 41 	lds	r18, 0x41AD	; 0x8041ad <EepCnt>
    139e:	30 e0       	ldi	r19, 0x00	; 0
    13a0:	c9 01       	movw	r24, r18
    13a2:	88 0f       	add	r24, r24
    13a4:	99 1f       	adc	r25, r25
    13a6:	28 0f       	add	r18, r24
    13a8:	39 1f       	adc	r19, r25
    13aa:	c9 01       	movw	r24, r18
    13ac:	88 0f       	add	r24, r24
    13ae:	99 1f       	adc	r25, r25
    13b0:	88 0f       	add	r24, r24
    13b2:	99 1f       	adc	r25, r25
    13b4:	4d 96       	adiw	r24, 0x1d	; 29
    13b6:	0e 94 1b 13 	call	0x2636	; 0x2636 <ee_write_byte>
				ee_write_byte(MEASURE_MIN    + (MEASURE_LENGTH * EepCnt), RTC_Single_Read(RTC_MINUTE));
    13ba:	81 e0       	ldi	r24, 0x01	; 1
    13bc:	0e 94 91 29 	call	0x5322	; 0x5322 <RTC_Single_Read>
    13c0:	68 2f       	mov	r22, r24
    13c2:	20 91 ad 41 	lds	r18, 0x41AD	; 0x8041ad <EepCnt>
    13c6:	30 e0       	ldi	r19, 0x00	; 0
    13c8:	c9 01       	movw	r24, r18
    13ca:	88 0f       	add	r24, r24
    13cc:	99 1f       	adc	r25, r25
    13ce:	28 0f       	add	r18, r24
    13d0:	39 1f       	adc	r19, r25
    13d2:	c9 01       	movw	r24, r18
    13d4:	88 0f       	add	r24, r24
    13d6:	99 1f       	adc	r25, r25
    13d8:	88 0f       	add	r24, r24
    13da:	99 1f       	adc	r25, r25
    13dc:	4e 96       	adiw	r24, 0x1e	; 30
    13de:	0e 94 1b 13 	call	0x2636	; 0x2636 <ee_write_byte>
				ee_write_byte(MEASURE_SEC    + (MEASURE_LENGTH * EepCnt), RTC_Single_Read(RTC_SECOND));
    13e2:	80 e0       	ldi	r24, 0x00	; 0
    13e4:	0e 94 91 29 	call	0x5322	; 0x5322 <RTC_Single_Read>
    13e8:	68 2f       	mov	r22, r24
    13ea:	20 91 ad 41 	lds	r18, 0x41AD	; 0x8041ad <EepCnt>
    13ee:	30 e0       	ldi	r19, 0x00	; 0
    13f0:	c9 01       	movw	r24, r18
    13f2:	88 0f       	add	r24, r24
    13f4:	99 1f       	adc	r25, r25
    13f6:	28 0f       	add	r18, r24
    13f8:	39 1f       	adc	r19, r25
    13fa:	c9 01       	movw	r24, r18
    13fc:	88 0f       	add	r24, r24
    13fe:	99 1f       	adc	r25, r25
    1400:	88 0f       	add	r24, r24
    1402:	99 1f       	adc	r25, r25
    1404:	4f 96       	adiw	r24, 0x1f	; 31
    1406:	0e 94 1b 13 	call	0x2636	; 0x2636 <ee_write_byte>
//-------------------------------------------------------------------------------------------------
				CELL.Zero_Buff = 1;
    140a:	81 e0       	ldi	r24, 0x01	; 1
    140c:	f8 01       	movw	r30, r16
    140e:	80 83       	st	Z, r24
				SET.Save = 0;
    1410:	10 92 14 51 	sts	0x5114, r1	; 0x805114 <SET+0x4>
				Alarm();
    1414:	0e 94 ff 07 	call	0xffe	; 0xffe <Alarm>
				printf("Value %ld, %d, %d \r\n", Old_Value, OK_Count_1, OK_Count_2);
    1418:	80 91 80 51 	lds	r24, 0x5180	; 0x805180 <OK_Count_2>
    141c:	1f 92       	push	r1
    141e:	8f 93       	push	r24
    1420:	80 91 56 51 	lds	r24, 0x5156	; 0x805156 <OK_Count_1>
    1424:	1f 92       	push	r1
    1426:	8f 93       	push	r24
    1428:	ff 92       	push	r15
    142a:	ef 92       	push	r14
    142c:	df 92       	push	r13
    142e:	cf 92       	push	r12
    1430:	88 e4       	ldi	r24, 0x48	; 72
    1432:	90 e4       	ldi	r25, 0x40	; 64
    1434:	9f 93       	push	r25
    1436:	8f 93       	push	r24
    1438:	0e 94 78 3e 	call	0x7cf0	; 0x7cf0 <printf>
				Cell_Desplay();					// 로드셀 무게 표시
    143c:	0e 94 16 18 	call	0x302c	; 0x302c <Cell_Desplay>
    1440:	8d b7       	in	r24, 0x3d	; 61
    1442:	9e b7       	in	r25, 0x3e	; 62
    1444:	0a 96       	adiw	r24, 0x0a	; 10
    1446:	8d bf       	out	0x3d, r24	; 61
    1448:	9e bf       	out	0x3e, r25	; 62
			}
			Stal_Desplay();						// 스톨 번호 표시
    144a:	0e 94 52 08 	call	0x10a4	; 0x10a4 <Stal_Desplay>
    144e:	a9 c0       	rjmp	.+338    	; 0x15a2 <Check_Value+0x48e>
		}
//-------------------------------------------------------------------------------------------------
		else if((Old_Value <= Value + Admit_Weight) & (Old_Value >= Value - Admit_Weight))
    1450:	4a 01       	movw	r8, r20
    1452:	5b 01       	movw	r10, r22
    1454:	a5 e0       	ldi	r26, 0x05	; 5
    1456:	8a 1a       	sub	r8, r26
    1458:	91 08       	sbc	r9, r1
    145a:	a1 08       	sbc	r10, r1
    145c:	b1 08       	sbc	r11, r1
    145e:	b1 e0       	ldi	r27, 0x01	; 1
    1460:	6a 01       	movw	r12, r20
    1462:	7b 01       	movw	r14, r22
    1464:	a5 e0       	ldi	r26, 0x05	; 5
    1466:	ca 0e       	add	r12, r26
    1468:	d1 1c       	adc	r13, r1
    146a:	e1 1c       	adc	r14, r1
    146c:	f1 1c       	adc	r15, r1
    146e:	c0 16       	cp	r12, r16
    1470:	d1 06       	cpc	r13, r17
    1472:	e2 06       	cpc	r14, r18
    1474:	f3 06       	cpc	r15, r19
    1476:	08 f4       	brcc	.+2      	; 0x147a <Check_Value+0x366>
    1478:	b0 e0       	ldi	r27, 0x00	; 0
    147a:	a1 e0       	ldi	r26, 0x01	; 1
    147c:	08 15       	cp	r16, r8
    147e:	19 05       	cpc	r17, r9
    1480:	2a 05       	cpc	r18, r10
    1482:	3b 05       	cpc	r19, r11
    1484:	08 f4       	brcc	.+2      	; 0x1488 <Check_Value+0x374>
    1486:	a0 e0       	ldi	r26, 0x00	; 0
    1488:	ab 23       	and	r26, r27
    148a:	41 f1       	breq	.+80     	; 0x14dc <Check_Value+0x3c8>
		{								// 이전체중이 측정체중과 인증체중(5x10g)을 더한값과 같거나 작고 인증체중(5x10g)을 뺀값과 같거나 크면서 이전체중과 같으면
			CELL.Old_Value = (CELL.Over_Value + Value)/2;		// 이전체중에 측정체중 저장
    148c:	ae e1       	ldi	r26, 0x1E	; 30
    148e:	b1 e5       	ldi	r27, 0x51	; 81
    1490:	1d 96       	adiw	r26, 0x0d	; 13
    1492:	0d 91       	ld	r16, X+
    1494:	1d 91       	ld	r17, X+
    1496:	2d 91       	ld	r18, X+
    1498:	3c 91       	ld	r19, X
    149a:	50 97       	sbiw	r26, 0x10	; 16
    149c:	40 0f       	add	r20, r16
    149e:	51 1f       	adc	r21, r17
    14a0:	62 1f       	adc	r22, r18
    14a2:	73 1f       	adc	r23, r19
    14a4:	76 95       	lsr	r23
    14a6:	67 95       	ror	r22
    14a8:	57 95       	ror	r21
    14aa:	47 95       	ror	r20
    14ac:	19 96       	adiw	r26, 0x09	; 9
    14ae:	4d 93       	st	X+, r20
    14b0:	5d 93       	st	X+, r21
    14b2:	6d 93       	st	X+, r22
    14b4:	7c 93       	st	X, r23
    14b6:	1c 97       	sbiw	r26, 0x0c	; 12
			Sec_Count = 0;
    14b8:	10 92 0c 51 	sts	0x510C, r1	; 0x80510c <Sec_Count>

			if(SET.Save || Auto_Mode)				// 자동 모드일때 측정체중 변화가 작으면 OK Count 1, OK Count 2 증가
    14bc:	80 91 14 51 	lds	r24, 0x5114	; 0x805114 <SET+0x4>
    14c0:	81 11       	cpse	r24, r1
    14c2:	05 c0       	rjmp	.+10     	; 0x14ce <Check_Value+0x3ba>
    14c4:	80 91 89 51 	lds	r24, 0x5189	; 0x805189 <Auto_Mode>
    14c8:	88 23       	and	r24, r24
    14ca:	09 f4       	brne	.+2      	; 0x14ce <Check_Value+0x3ba>
    14cc:	6a c0       	rjmp	.+212    	; 0x15a2 <Check_Value+0x48e>
			{
				OK_Count_1++;
    14ce:	ef 5f       	subi	r30, 0xFF	; 255
    14d0:	e0 93 56 51 	sts	0x5156, r30	; 0x805156 <OK_Count_1>
				OK_Count_2++;
    14d4:	ff 5f       	subi	r31, 0xFF	; 255
    14d6:	f0 93 80 51 	sts	0x5180, r31	; 0x805180 <OK_Count_2>
    14da:	63 c0       	rjmp	.+198    	; 0x15a2 <Check_Value+0x48e>
			}

		}
		else if((CELL.Over_Value <= Value + (Admit_Weight * 5)) && (CELL.Over_Value >= Value - (Admit_Weight * 5)))
    14dc:	c0 90 2b 51 	lds	r12, 0x512B	; 0x80512b <CELL+0xd>
    14e0:	d0 90 2c 51 	lds	r13, 0x512C	; 0x80512c <CELL+0xe>
    14e4:	e0 90 2d 51 	lds	r14, 0x512D	; 0x80512d <CELL+0xf>
    14e8:	f0 90 2e 51 	lds	r15, 0x512E	; 0x80512e <CELL+0x10>
    14ec:	8a 01       	movw	r16, r20
    14ee:	9b 01       	movw	r18, r22
    14f0:	07 5e       	subi	r16, 0xE7	; 231
    14f2:	1f 4f       	sbci	r17, 0xFF	; 255
    14f4:	2f 4f       	sbci	r18, 0xFF	; 255
    14f6:	3f 4f       	sbci	r19, 0xFF	; 255
    14f8:	0c 15       	cp	r16, r12
    14fa:	1d 05       	cpc	r17, r13
    14fc:	2e 05       	cpc	r18, r14
    14fe:	3f 05       	cpc	r19, r15
    1500:	08 f4       	brcc	.+2      	; 0x1504 <Check_Value+0x3f0>
    1502:	41 c0       	rjmp	.+130    	; 0x1586 <Check_Value+0x472>
    1504:	c0 90 2b 51 	lds	r12, 0x512B	; 0x80512b <CELL+0xd>
    1508:	d0 90 2c 51 	lds	r13, 0x512C	; 0x80512c <CELL+0xe>
    150c:	e0 90 2d 51 	lds	r14, 0x512D	; 0x80512d <CELL+0xf>
    1510:	f0 90 2e 51 	lds	r15, 0x512E	; 0x80512e <CELL+0x10>
    1514:	8a 01       	movw	r16, r20
    1516:	9b 01       	movw	r18, r22
    1518:	09 51       	subi	r16, 0x19	; 25
    151a:	11 09       	sbc	r17, r1
    151c:	21 09       	sbc	r18, r1
    151e:	31 09       	sbc	r19, r1
    1520:	c0 16       	cp	r12, r16
    1522:	d1 06       	cpc	r13, r17
    1524:	e2 06       	cpc	r14, r18
    1526:	f3 06       	cpc	r15, r19
    1528:	70 f1       	brcs	.+92     	; 0x1586 <Check_Value+0x472>
		{								// 이전체중이 측정체중과 인증체중((5x5)x10g)을 더한값과 같거나 작고 인증체중((5x5)x10g)을 뺀값과 같거나 크면서 이전체중과 같으면
			if(SET.Save || Auto_Mode) {OK_Count_2++;}		// 자동 모드일때 측정체중 OK Count 2 증가
    152a:	80 91 14 51 	lds	r24, 0x5114	; 0x805114 <SET+0x4>
    152e:	81 11       	cpse	r24, r1
    1530:	04 c0       	rjmp	.+8      	; 0x153a <Check_Value+0x426>
    1532:	80 91 89 51 	lds	r24, 0x5189	; 0x805189 <Auto_Mode>
    1536:	88 23       	and	r24, r24
    1538:	19 f0       	breq	.+6      	; 0x1540 <Check_Value+0x42c>
    153a:	ff 5f       	subi	r31, 0xFF	; 255
    153c:	f0 93 80 51 	sts	0x5180, r31	; 0x805180 <OK_Count_2>
			CELL.Old_Value = (CELL.Over_Value + Value)/2;		// 이전체중에 측정체중 저장
    1540:	ee e1       	ldi	r30, 0x1E	; 30
    1542:	f1 e5       	ldi	r31, 0x51	; 81
    1544:	85 85       	ldd	r24, Z+13	; 0x0d
    1546:	96 85       	ldd	r25, Z+14	; 0x0e
    1548:	a7 85       	ldd	r26, Z+15	; 0x0f
    154a:	b0 89       	ldd	r27, Z+16	; 0x10
    154c:	48 0f       	add	r20, r24
    154e:	59 1f       	adc	r21, r25
    1550:	6a 1f       	adc	r22, r26
    1552:	7b 1f       	adc	r23, r27
    1554:	76 95       	lsr	r23
    1556:	67 95       	ror	r22
    1558:	57 95       	ror	r21
    155a:	47 95       	ror	r20
    155c:	41 87       	std	Z+9, r20	; 0x09
    155e:	52 87       	std	Z+10, r21	; 0x0a
    1560:	63 87       	std	Z+11, r22	; 0x0b
    1562:	74 87       	std	Z+12, r23	; 0x0c
			CELL.Value = CELL.Old_Value;				// 이전체중을 무게표시 체중 에 저장
    1564:	81 85       	ldd	r24, Z+9	; 0x09
    1566:	92 85       	ldd	r25, Z+10	; 0x0a
    1568:	a3 85       	ldd	r26, Z+11	; 0x0b
    156a:	b4 85       	ldd	r27, Z+12	; 0x0c
    156c:	81 83       	std	Z+1, r24	; 0x01
    156e:	92 83       	std	Z+2, r25	; 0x02
    1570:	a3 83       	std	Z+3, r26	; 0x03
    1572:	b4 83       	std	Z+4, r27	; 0x04
			CELL.Over_Value = CELL.Old_Value;			// 측정체중을 다음 비교 체중값에 저장
    1574:	81 85       	ldd	r24, Z+9	; 0x09
    1576:	92 85       	ldd	r25, Z+10	; 0x0a
    1578:	a3 85       	ldd	r26, Z+11	; 0x0b
    157a:	b4 85       	ldd	r27, Z+12	; 0x0c
    157c:	85 87       	std	Z+13, r24	; 0x0d
    157e:	96 87       	std	Z+14, r25	; 0x0e
    1580:	a7 87       	std	Z+15, r26	; 0x0f
    1582:	b0 8b       	std	Z+16, r27	; 0x10
    1584:	0e c0       	rjmp	.+28     	; 0x15a2 <Check_Value+0x48e>
		}
		else
		{
			CELL.Value = CELL.Over_Value = Value;
    1586:	a0 e0       	ldi	r26, 0x00	; 0
    1588:	b0 e0       	ldi	r27, 0x00	; 0
    158a:	ee e1       	ldi	r30, 0x1E	; 30
    158c:	f1 e5       	ldi	r31, 0x51	; 81
    158e:	85 87       	std	Z+13, r24	; 0x0d
    1590:	96 87       	std	Z+14, r25	; 0x0e
    1592:	a7 87       	std	Z+15, r26	; 0x0f
    1594:	b0 8b       	std	Z+16, r27	; 0x10
    1596:	81 83       	std	Z+1, r24	; 0x01
    1598:	92 83       	std	Z+2, r25	; 0x02
    159a:	a3 83       	std	Z+3, r26	; 0x03
    159c:	b4 83       	std	Z+4, r27	; 0x04
//			CELL.Over_Value = Value;				// 측정체중을 다음 비교 체중값에 저장
			OK_Count_1 = 0;						// 체중 변화가 크면 OK_Count 1 초기화
    159e:	10 92 56 51 	sts	0x5156, r1	; 0x805156 <OK_Count_1>
		}
		Room_Desplay();							// 방 번호 표시
    15a2:	0e 94 1a 08 	call	0x1034	; 0x1034 <Room_Desplay>
		Zero_Count = 0;
    15a6:	10 92 70 51 	sts	0x5170, r1	; 0x805170 <Zero_Count>
		if(!CELL.Zero_Buff) {Cell_Desplay();}				// 로드셀 무게 표시
    15aa:	80 91 1e 51 	lds	r24, 0x511E	; 0x80511e <CELL>
    15ae:	81 11       	cpse	r24, r1
    15b0:	2b c0       	rjmp	.+86     	; 0x1608 <Check_Value+0x4f4>
    15b2:	0e 94 16 18 	call	0x302c	; 0x302c <Cell_Desplay>
    15b6:	28 c0       	rjmp	.+80     	; 0x1608 <Check_Value+0x4f4>
	}
	else									// 측정체중이 없면
	{
		Zero_Count++;							// Zero_Count 증가
    15b8:	20 91 70 51 	lds	r18, 0x5170	; 0x805170 <Zero_Count>
    15bc:	2f 5f       	subi	r18, 0xFF	; 255
    15be:	20 93 70 51 	sts	0x5170, r18	; 0x805170 <Zero_Count>
		if(Zero_Count > 5)						// Zero_Count 이 2보다 크면
    15c2:	26 30       	cpi	r18, 0x06	; 6
    15c4:	08 f1       	brcs	.+66     	; 0x1608 <Check_Value+0x4f4>
		{
			CELL.Old_Value = 0;					// 이전측정체중 초기화
    15c6:	ee e1       	ldi	r30, 0x1E	; 30
    15c8:	f1 e5       	ldi	r31, 0x51	; 81
    15ca:	11 86       	std	Z+9, r1	; 0x09
    15cc:	12 86       	std	Z+10, r1	; 0x0a
    15ce:	13 86       	std	Z+11, r1	; 0x0b
    15d0:	14 86       	std	Z+12, r1	; 0x0c
			CELL.Over_Value = 0;					// 이전측정체중 초기화
    15d2:	15 86       	std	Z+13, r1	; 0x0d
    15d4:	16 86       	std	Z+14, r1	; 0x0e
    15d6:	17 86       	std	Z+15, r1	; 0x0f
    15d8:	10 8a       	std	Z+16, r1	; 0x10
			CELL.Value = Value;
    15da:	a0 e0       	ldi	r26, 0x00	; 0
    15dc:	b0 e0       	ldi	r27, 0x00	; 0
    15de:	81 83       	std	Z+1, r24	; 0x01
    15e0:	92 83       	std	Z+2, r25	; 0x02
    15e2:	a3 83       	std	Z+3, r26	; 0x03
    15e4:	b4 83       	std	Z+4, r27	; 0x04
			CELL.Zero_Buff = 0;					// CELL.Zero_Buff 초기화
    15e6:	10 82       	st	Z, r1
			Zero_Count = 0;						// Zero_Count 초기화
    15e8:	10 92 70 51 	sts	0x5170, r1	; 0x805170 <Zero_Count>
			OK_Count_1 = 0;						// OK_Count 1 초기화
    15ec:	10 92 56 51 	sts	0x5156, r1	; 0x805156 <OK_Count_1>
			OK_Count_2 = 0;						// OK_Count 2 초기화
    15f0:	10 92 80 51 	sts	0x5180, r1	; 0x805180 <OK_Count_2>
			if(!SET.Save) {Stal_Desplay();}				// Save 모드가 아니면 스톨 번호 표시
    15f4:	80 91 14 51 	lds	r24, 0x5114	; 0x805114 <SET+0x4>
    15f8:	81 11       	cpse	r24, r1
    15fa:	02 c0       	rjmp	.+4      	; 0x1600 <Check_Value+0x4ec>
    15fc:	0e 94 52 08 	call	0x10a4	; 0x10a4 <Stal_Desplay>
			Room_Desplay();						// 방 번호 표시
    1600:	0e 94 1a 08 	call	0x1034	; 0x1034 <Room_Desplay>
			Cell_Desplay();						// 측정체중 표시
    1604:	0e 94 16 18 	call	0x302c	; 0x302c <Cell_Desplay>
		}
	}
}
    1608:	df 91       	pop	r29
    160a:	cf 91       	pop	r28
    160c:	1f 91       	pop	r17
    160e:	0f 91       	pop	r16
    1610:	ff 90       	pop	r15
    1612:	ef 90       	pop	r14
    1614:	df 90       	pop	r13
    1616:	cf 90       	pop	r12
    1618:	bf 90       	pop	r11
    161a:	af 90       	pop	r10
    161c:	9f 90       	pop	r9
    161e:	8f 90       	pop	r8
    1620:	08 95       	ret

00001622 <Send_To_Server_0>:

//=================================================================================================
//		PC로 데이터 전송 (20개 측정체중 Data)
//=================================================================================================
void Send_To_Server_0(void)							// PC로 데이터 전송 (1회 1개씩 전송 : 측정체중 Data)
{
    1622:	1f 93       	push	r17
    1624:	cf 93       	push	r28
    1626:	df 93       	push	r29
    1628:	cd b7       	in	r28, 0x3d	; 61
    162a:	de b7       	in	r29, 0x3e	; 62
    162c:	6e 97       	sbiw	r28, 0x1e	; 30
    162e:	cd bf       	out	0x3d, r28	; 61
    1630:	de bf       	out	0x3e, r29	; 62
	uint8_t cnt = 0;							// cnt 변수 초기화
	uint8_t ChkSum = 0;							// ChkSum 변수 초기화
	char SerialData[30] = {0};						// SerialData[30] 버퍼 선언
    1632:	8e e1       	ldi	r24, 0x1E	; 30
    1634:	fe 01       	movw	r30, r28
    1636:	31 96       	adiw	r30, 0x01	; 1
    1638:	df 01       	movw	r26, r30
    163a:	98 2f       	mov	r25, r24
    163c:	1d 92       	st	X+, r1
    163e:	9a 95       	dec	r25
    1640:	e9 f7       	brne	.-6      	; 0x163c <Send_To_Server_0+0x1a>
	static uint16_t CommCnt	= 0;

	memset(SerialData, 0x00, sizeof(SerialData));				// 버퍼 초기화
    1642:	df 01       	movw	r26, r30
    1644:	1d 92       	st	X+, r1
    1646:	8a 95       	dec	r24
    1648:	e9 f7       	brne	.-6      	; 0x1644 <Send_To_Server_0+0x22>

	if(CommCnt < Data_Number) {CommCnt++;}
    164a:	80 91 63 51 	lds	r24, 0x5163	; 0x805163 <Data_Number>
    164e:	90 e0       	ldi	r25, 0x00	; 0
    1650:	20 91 76 41 	lds	r18, 0x4176	; 0x804176 <__data_end>
    1654:	30 91 77 41 	lds	r19, 0x4177	; 0x804177 <__data_end+0x1>
    1658:	28 17       	cp	r18, r24
    165a:	39 07       	cpc	r19, r25
    165c:	38 f4       	brcc	.+14     	; 0x166c <Send_To_Server_0+0x4a>
    165e:	2f 5f       	subi	r18, 0xFF	; 255
    1660:	3f 4f       	sbci	r19, 0xFF	; 255
    1662:	20 93 76 41 	sts	0x4176, r18	; 0x804176 <__data_end>
    1666:	30 93 77 41 	sts	0x4177, r19	; 0x804177 <__data_end+0x1>
    166a:	04 c0       	rjmp	.+8      	; 0x1674 <Send_To_Server_0+0x52>
	else			  {CommCnt=0;}
    166c:	10 92 76 41 	sts	0x4176, r1	; 0x804176 <__data_end>
    1670:	10 92 77 41 	sts	0x4177, r1	; 0x804177 <__data_end+0x1>
//-------------------------------------------------------------------------------------------------
//		Serial Protocol Start
//-------------------------------------------------------------------------------------------------
	SerialData[cnt++] = STX_Iontec;						//  0 : STX_Iontec : 0xF0
    1674:	80 ef       	ldi	r24, 0xF0	; 240
    1676:	89 83       	std	Y+1, r24	; 0x01
	SerialData[cnt++] = CTL2PC;						//  1 : 데이터방향
	SerialData[cnt++] = SORTING_MOVE;					//  2 : 21 장비기종 : 이동형 선별기(포유자돈, 비육돈)
    1678:	85 e1       	ldi	r24, 0x15	; 21
    167a:	8b 83       	std	Y+3, r24	; 0x03
	SerialData[cnt++] = Cell_ID;						//  3 : 장비id (Cell_ID)
    167c:	80 91 ea 50 	lds	r24, 0x50EA	; 0x8050ea <Cell_ID>
    1680:	8c 83       	std	Y+4, r24	; 0x04
	SerialData[cnt++] = CD_STATUS;						//  4 : 0 : 구분코드 (실시간상태 정보) 

	SerialData[cnt++] = FW_VER;						//  5 : Protocol Version 41
    1682:	8c e2       	ldi	r24, 0x2C	; 44
    1684:	8e 83       	std	Y+6, r24	; 0x06
	SerialData[cnt++] = Gwid;						//  6 : GWID
    1686:	80 91 54 51 	lds	r24, 0x5154	; 0x805154 <Gwid>
    168a:	8f 83       	std	Y+7, r24	; 0x07
	SerialData[cnt++] = 0x00;						//  7 : 개체순번
	SerialData[cnt++] = SAVE.AutoSet[CommCnt];				//  8 : 자동 1 / 수동 0
    168c:	80 91 76 41 	lds	r24, 0x4176	; 0x804176 <__data_end>
    1690:	90 91 77 41 	lds	r25, 0x4177	; 0x804177 <__data_end+0x1>
    1694:	fc 01       	movw	r30, r24
    1696:	e2 55       	subi	r30, 0x52	; 82
    1698:	fe 4b       	sbci	r31, 0xBE	; 190
    169a:	20 81       	ld	r18, Z
    169c:	29 87       	std	Y+9, r18	; 0x09
	SerialData[cnt++] = 0x02;						//  9 : 무게 소수점 사용:1, 무게 소수점 미사용:0, 10g단위:2
    169e:	22 e0       	ldi	r18, 0x02	; 2
    16a0:	2a 87       	std	Y+10, r18	; 0x0a

	SerialData[cnt++] = SAVE.Count[CommCnt] / 256;				// 10 : 측정횟수 상위
    16a2:	dc 01       	movw	r26, r24
    16a4:	aa 56       	subi	r26, 0x6A	; 106
    16a6:	bf 4f       	sbci	r27, 0xFF	; 255
    16a8:	aa 0f       	add	r26, r26
    16aa:	bb 1f       	adc	r27, r27
    16ac:	a2 55       	subi	r26, 0x52	; 82
    16ae:	be 4b       	sbci	r27, 0xBE	; 190
    16b0:	2c 91       	ld	r18, X
    16b2:	11 96       	adiw	r26, 0x01	; 1
    16b4:	3c 91       	ld	r19, X
    16b6:	3b 87       	std	Y+11, r19	; 0x0b
	SerialData[cnt++] = SAVE.Count[CommCnt] % 256;				// 11 : 측정횟수 하위
    16b8:	2c 87       	std	Y+12, r18	; 0x0c
	SerialData[cnt++] = SAVE.Data[CommCnt] / 256;				// 12 : 측정무게 [CommCnt] 상위
    16ba:	dc 01       	movw	r26, r24
    16bc:	ae 53       	subi	r26, 0x3E	; 62
    16be:	be 4f       	sbci	r27, 0xFE	; 254
    16c0:	aa 0f       	add	r26, r26
    16c2:	bb 1f       	adc	r27, r27
    16c4:	a2 55       	subi	r26, 0x52	; 82
    16c6:	be 4b       	sbci	r27, 0xBE	; 190
    16c8:	2c 91       	ld	r18, X
    16ca:	11 96       	adiw	r26, 0x01	; 1
    16cc:	3c 91       	ld	r19, X
    16ce:	3d 87       	std	Y+13, r19	; 0x0d
	SerialData[cnt++] = SAVE.Data[CommCnt] % 256;				// 13 : 측정무게 [CommCnt] 하위
    16d0:	2e 87       	std	Y+14, r18	; 0x0e

	SerialData[cnt++] = SAVE.RoomNum[CommCnt];				// 14 : 방 번호
    16d2:	df 01       	movw	r26, r30
    16d4:	a4 52       	subi	r26, 0x24	; 36
    16d6:	ba 4f       	sbci	r27, 0xFA	; 250
    16d8:	2c 91       	ld	r18, X
    16da:	2f 87       	std	Y+15, r18	; 0x0f
	SerialData[cnt++] = SAVE.StalNum[CommCnt];				// 15 : 스톨 번호
    16dc:	a4 5d       	subi	r26, 0xD4	; 212
    16de:	be 4f       	sbci	r27, 0xFE	; 254
    16e0:	2c 91       	ld	r18, X
    16e2:	28 8b       	std	Y+16, r18	; 0x10

	SerialData[cnt++] = SAVE.Year[CommCnt];					// 16 : 측정 년 [CommCnt]
    16e4:	a4 5d       	subi	r26, 0xD4	; 212
    16e6:	be 4f       	sbci	r27, 0xFE	; 254
    16e8:	2c 91       	ld	r18, X
    16ea:	29 8b       	std	Y+17, r18	; 0x11
	SerialData[cnt++] = SAVE.Month[CommCnt];				// 17 : 측정 월 [CommCnt]
    16ec:	a4 5d       	subi	r26, 0xD4	; 212
    16ee:	be 4f       	sbci	r27, 0xFE	; 254
    16f0:	2c 91       	ld	r18, X
    16f2:	2a 8b       	std	Y+18, r18	; 0x12
	SerialData[cnt++] = SAVE.Date[CommCnt];					// 18 : 측정 일 [CommCnt]
    16f4:	a4 5d       	subi	r26, 0xD4	; 212
    16f6:	be 4f       	sbci	r27, 0xFE	; 254
    16f8:	2c 91       	ld	r18, X
    16fa:	2b 8b       	std	Y+19, r18	; 0x13
	SerialData[cnt++] = SAVE.Hour[CommCnt];					// 19 : 측정 시 [CommCnt]
    16fc:	a4 5d       	subi	r26, 0xD4	; 212
    16fe:	be 4f       	sbci	r27, 0xFE	; 254
    1700:	2c 91       	ld	r18, X
    1702:	2c 8b       	std	Y+20, r18	; 0x14
	SerialData[cnt++] = SAVE.Min[CommCnt];					// 20 : 측정 분 [CommCnt]
    1704:	a4 5d       	subi	r26, 0xD4	; 212
    1706:	be 4f       	sbci	r27, 0xFE	; 254
    1708:	2c 91       	ld	r18, X
    170a:	2d 8b       	std	Y+21, r18	; 0x15
	SerialData[cnt++] = SAVE.Sec[CommCnt];					// 21 : 측정 초 [CommCnt]
    170c:	e0 5f       	subi	r30, 0xF0	; 240
    170e:	f1 4f       	sbci	r31, 0xF1	; 241
    1710:	20 81       	ld	r18, Z
    1712:	2e 8b       	std	Y+22, r18	; 0x16

	SerialData[cnt++] = CommCnt / 256;					// 22 : Data 순번 상위
    1714:	9f 8b       	std	Y+23, r25	; 0x17
	SerialData[cnt++] = CommCnt % 256;					// 23 : Data 순번 하위
    1716:	88 8f       	std	Y+24, r24	; 0x18
	SerialData[cnt++] = 0x00;						// 24 : 예비
	SerialData[cnt++] = 0x00;						// 25 : 예비
	SerialData[cnt++] = 0x00;						// 26 : 예비
	SerialData[cnt++] = 0x00;						// 27 : 예비

	for(uint8_t icnt2 = 1; icnt2 < cnt; icnt2++) {ChkSum += SerialData[icnt2];}	// 체크썸 계산
    1718:	81 e0       	ldi	r24, 0x01	; 1
//		PC로 데이터 전송 (20개 측정체중 Data)
//=================================================================================================
void Send_To_Server_0(void)							// PC로 데이터 전송 (1회 1개씩 전송 : 측정체중 Data)
{
	uint8_t cnt = 0;							// cnt 변수 초기화
	uint8_t ChkSum = 0;							// ChkSum 변수 초기화
    171a:	90 e0       	ldi	r25, 0x00	; 0
	SerialData[cnt++] = 0x00;						// 24 : 예비
	SerialData[cnt++] = 0x00;						// 25 : 예비
	SerialData[cnt++] = 0x00;						// 26 : 예비
	SerialData[cnt++] = 0x00;						// 27 : 예비

	for(uint8_t icnt2 = 1; icnt2 < cnt; icnt2++) {ChkSum += SerialData[icnt2];}	// 체크썸 계산
    171c:	09 c0       	rjmp	.+18     	; 0x1730 <Send_To_Server_0+0x10e>
    171e:	e1 e0       	ldi	r30, 0x01	; 1
    1720:	f0 e0       	ldi	r31, 0x00	; 0
    1722:	ec 0f       	add	r30, r28
    1724:	fd 1f       	adc	r31, r29
    1726:	e8 0f       	add	r30, r24
    1728:	f1 1d       	adc	r31, r1
    172a:	20 81       	ld	r18, Z
    172c:	92 0f       	add	r25, r18
    172e:	8f 5f       	subi	r24, 0xFF	; 255
    1730:	8c 31       	cpi	r24, 0x1C	; 28
    1732:	a8 f3       	brcs	.-22     	; 0x171e <Send_To_Server_0+0xfc>
	SerialData[cnt++] = ChkSum;						// 28 : 체크썸
    1734:	9d 8f       	std	Y+29, r25	; 0x1d
	SerialData[cnt++] = ETX_Iontec;						// 29 : ETX_Iontec : 0xF1
    1736:	81 ef       	ldi	r24, 0xF1	; 241
    1738:	8e 8f       	std	Y+30, r24	; 0x1e
//-------------------------------------------------------------------------------------------------
//		Serial Protocol End
//-------------------------------------------------------------------------------------------------
	for(uint8_t j = 0; j < cnt; j++) {USART3_Write(SerialData[j]);}		// SerialData 수만큼 송신
    173a:	10 e0       	ldi	r17, 0x00	; 0
    173c:	0a c0       	rjmp	.+20     	; 0x1752 <Send_To_Server_0+0x130>
    173e:	e1 e0       	ldi	r30, 0x01	; 1
    1740:	f0 e0       	ldi	r31, 0x00	; 0
    1742:	ec 0f       	add	r30, r28
    1744:	fd 1f       	adc	r31, r29
    1746:	e1 0f       	add	r30, r17
    1748:	f1 1d       	adc	r31, r1
    174a:	80 81       	ld	r24, Z
    174c:	0e 94 8c 2d 	call	0x5b18	; 0x5b18 <USART3_Write>
    1750:	1f 5f       	subi	r17, 0xFF	; 255
    1752:	1e 31       	cpi	r17, 0x1E	; 30
    1754:	a0 f3       	brcs	.-24     	; 0x173e <Send_To_Server_0+0x11c>
}
    1756:	6e 96       	adiw	r28, 0x1e	; 30
    1758:	cd bf       	out	0x3d, r28	; 61
    175a:	de bf       	out	0x3e, r29	; 62
    175c:	df 91       	pop	r29
    175e:	cf 91       	pop	r28
    1760:	1f 91       	pop	r17
    1762:	08 95       	ret

00001764 <Send_To_Server_1>:

//=================================================================================================
//		PC로 데이터 전송 (설정정보 답변)
//=================================================================================================
void Send_To_Server_1(uint8_t Code)						// PC로 데이터 전송 (설정정보 답변)
{
    1764:	1f 93       	push	r17
    1766:	cf 93       	push	r28
    1768:	df 93       	push	r29
    176a:	cd b7       	in	r28, 0x3d	; 61
    176c:	de b7       	in	r29, 0x3e	; 62
    176e:	2a 97       	sbiw	r28, 0x0a	; 10
    1770:	cd bf       	out	0x3d, r28	; 61
    1772:	de bf       	out	0x3e, r29	; 62
	uint8_t cnt = 0;							// cnt 변수 초기화
	uint8_t ChkSum = 0;							// ChkSum 변수 초기화
	char SerialData[10] = {};						// SerialData[10] 버퍼 선언
    1774:	9a e0       	ldi	r25, 0x0A	; 10
    1776:	fe 01       	movw	r30, r28
    1778:	31 96       	adiw	r30, 0x01	; 1
    177a:	df 01       	movw	r26, r30
    177c:	29 2f       	mov	r18, r25
    177e:	1d 92       	st	X+, r1
    1780:	2a 95       	dec	r18
    1782:	e9 f7       	brne	.-6      	; 0x177e <Send_To_Server_1+0x1a>
	memset(SerialData, 0x00, sizeof(SerialData));				// 버퍼 초기화
    1784:	df 01       	movw	r26, r30
    1786:	1d 92       	st	X+, r1
    1788:	9a 95       	dec	r25
    178a:	e9 f7       	brne	.-6      	; 0x1786 <Send_To_Server_1+0x22>
//-------------------------------------------------------------------------------------------------
//		Serial Protocol Start
//-------------------------------------------------------------------------------------------------
	SerialData[cnt++] = STX_Iontec;						// 0 : STX_Iontec : 0xF0
    178c:	90 ef       	ldi	r25, 0xF0	; 240
    178e:	99 83       	std	Y+1, r25	; 0x01
	SerialData[cnt++] = CTL2PC;						// 1 : 데이터방향
	SerialData[cnt++] = SORTING_MOVE;					// 2 : 21 장비기종 : 이동형 선별기(포유자돈, 비육돈)
    1790:	95 e1       	ldi	r25, 0x15	; 21
    1792:	9b 83       	std	Y+3, r25	; 0x03
	SerialData[cnt++] = Cell_ID;						// 3 : 장비id (Cell_ID)
    1794:	90 91 ea 50 	lds	r25, 0x50EA	; 0x8050ea <Cell_ID>
    1798:	9c 83       	std	Y+4, r25	; 0x04
	SerialData[cnt++] = Code;						// 4 : 구분코드
    179a:	8d 83       	std	Y+5, r24	; 0x05

	SerialData[cnt++] = FW_VER;						// 5 : Protocol Version
    179c:	8c e2       	ldi	r24, 0x2C	; 44
    179e:	8e 83       	std	Y+6, r24	; 0x06
	SerialData[cnt++] = Gwid;						// 6 : GWID
    17a0:	80 91 54 51 	lds	r24, 0x5154	; 0x805154 <Gwid>
    17a4:	8f 83       	std	Y+7, r24	; 0x07
	SerialData[cnt++] = 0x00;						// 7 : 예비
	for(uint8_t icnt2 = 1; icnt2 < cnt; icnt2++) {ChkSum += SerialData[icnt2];}	// 체크썸 계산
    17a6:	81 e0       	ldi	r24, 0x01	; 1
//		PC로 데이터 전송 (설정정보 답변)
//=================================================================================================
void Send_To_Server_1(uint8_t Code)						// PC로 데이터 전송 (설정정보 답변)
{
	uint8_t cnt = 0;							// cnt 변수 초기화
	uint8_t ChkSum = 0;							// ChkSum 변수 초기화
    17a8:	90 e0       	ldi	r25, 0x00	; 0
	SerialData[cnt++] = Code;						// 4 : 구분코드

	SerialData[cnt++] = FW_VER;						// 5 : Protocol Version
	SerialData[cnt++] = Gwid;						// 6 : GWID
	SerialData[cnt++] = 0x00;						// 7 : 예비
	for(uint8_t icnt2 = 1; icnt2 < cnt; icnt2++) {ChkSum += SerialData[icnt2];}	// 체크썸 계산
    17aa:	09 c0       	rjmp	.+18     	; 0x17be <Send_To_Server_1+0x5a>
    17ac:	e1 e0       	ldi	r30, 0x01	; 1
    17ae:	f0 e0       	ldi	r31, 0x00	; 0
    17b0:	ec 0f       	add	r30, r28
    17b2:	fd 1f       	adc	r31, r29
    17b4:	e8 0f       	add	r30, r24
    17b6:	f1 1d       	adc	r31, r1
    17b8:	20 81       	ld	r18, Z
    17ba:	92 0f       	add	r25, r18
    17bc:	8f 5f       	subi	r24, 0xFF	; 255
    17be:	88 30       	cpi	r24, 0x08	; 8
    17c0:	a8 f3       	brcs	.-22     	; 0x17ac <Send_To_Server_1+0x48>
	SerialData[cnt++] = ChkSum;						// 8 : 체크썸
    17c2:	99 87       	std	Y+9, r25	; 0x09
	SerialData[cnt++] = ETX_Iontec;						// 9 : ETX_Iontec : 0xF1
    17c4:	81 ef       	ldi	r24, 0xF1	; 241
    17c6:	8a 87       	std	Y+10, r24	; 0x0a
//-------------------------------------------------------------------------------------------------
//		Serial Protocol End
//-------------------------------------------------------------------------------------------------
	for(uint8_t j = 0; j < cnt; j++) {USART3_Write(SerialData[j]);}		// SerialData 수만큼 송신
    17c8:	10 e0       	ldi	r17, 0x00	; 0
    17ca:	0a c0       	rjmp	.+20     	; 0x17e0 <Send_To_Server_1+0x7c>
    17cc:	e1 e0       	ldi	r30, 0x01	; 1
    17ce:	f0 e0       	ldi	r31, 0x00	; 0
    17d0:	ec 0f       	add	r30, r28
    17d2:	fd 1f       	adc	r31, r29
    17d4:	e1 0f       	add	r30, r17
    17d6:	f1 1d       	adc	r31, r1
    17d8:	80 81       	ld	r24, Z
    17da:	0e 94 8c 2d 	call	0x5b18	; 0x5b18 <USART3_Write>
    17de:	1f 5f       	subi	r17, 0xFF	; 255
    17e0:	1a 30       	cpi	r17, 0x0A	; 10
    17e2:	a0 f3       	brcs	.-24     	; 0x17cc <Send_To_Server_1+0x68>
}
    17e4:	2a 96       	adiw	r28, 0x0a	; 10
    17e6:	cd bf       	out	0x3d, r28	; 61
    17e8:	de bf       	out	0x3e, r29	; 62
    17ea:	df 91       	pop	r29
    17ec:	cf 91       	pop	r28
    17ee:	1f 91       	pop	r17
    17f0:	08 95       	ret

000017f2 <Receiv_PC>:

//=================================================================================================
//		PC로 부터 데이터수신
//=================================================================================================
void Receiv_PC(void)								// PC로 부터 데이터수신
{
    17f2:	ef 92       	push	r14
    17f4:	ff 92       	push	r15
    17f6:	0f 93       	push	r16
    17f8:	1f 93       	push	r17
    17fa:	cf 93       	push	r28
    17fc:	df 93       	push	r29
	uint8_t cnt1;								// cnt1 변수 초기화
	uint8_t ChkSum = 0;							// ChkSum 변수 초기화
	uint16_t IN_S;								// 입구 체중 변수

	for(uint8_t cnt = 0; cnt < RX3_SIZE; cnt++)				// RX3_SIZE 만큼 반복
    17fe:	c0 e0       	ldi	r28, 0x00	; 0
    1800:	63 c1       	rjmp	.+710    	; 0x1ac8 <Receiv_PC+0x2d6>
	{
		if(Rx3_Buff[cnt] == STX_Iontec && Rx3_Buff[cnt + 1] == PC2CTL && Rx3_Buff[cnt + 2] == 0x01 && Rx3_Buff[cnt + 4] == 0 && Rx3_Buff[cnt + 9] == ETX_Iontec)
    1802:	0c 2f       	mov	r16, r28
    1804:	10 e0       	ldi	r17, 0x00	; 0
    1806:	f8 01       	movw	r30, r16
    1808:	e6 57       	subi	r30, 0x76	; 118
    180a:	fe 4a       	sbci	r31, 0xAE	; 174
    180c:	80 81       	ld	r24, Z
    180e:	80 3f       	cpi	r24, 0xF0	; 240
    1810:	09 f0       	breq	.+2      	; 0x1814 <Receiv_PC+0x22>
    1812:	52 c0       	rjmp	.+164    	; 0x18b8 <Receiv_PC+0xc6>
    1814:	f8 01       	movw	r30, r16
    1816:	e5 57       	subi	r30, 0x75	; 117
    1818:	fe 4a       	sbci	r31, 0xAE	; 174
    181a:	90 81       	ld	r25, Z
    181c:	91 30       	cpi	r25, 0x01	; 1
    181e:	09 f0       	breq	.+2      	; 0x1822 <Receiv_PC+0x30>
    1820:	4b c0       	rjmp	.+150    	; 0x18b8 <Receiv_PC+0xc6>
    1822:	f8 01       	movw	r30, r16
    1824:	e4 57       	subi	r30, 0x74	; 116
    1826:	fe 4a       	sbci	r31, 0xAE	; 174
    1828:	90 81       	ld	r25, Z
    182a:	91 30       	cpi	r25, 0x01	; 1
    182c:	09 f0       	breq	.+2      	; 0x1830 <Receiv_PC+0x3e>
    182e:	44 c0       	rjmp	.+136    	; 0x18b8 <Receiv_PC+0xc6>
    1830:	f8 01       	movw	r30, r16
    1832:	e2 57       	subi	r30, 0x72	; 114
    1834:	fe 4a       	sbci	r31, 0xAE	; 174
    1836:	90 81       	ld	r25, Z
    1838:	91 11       	cpse	r25, r1
    183a:	3e c0       	rjmp	.+124    	; 0x18b8 <Receiv_PC+0xc6>
    183c:	f8 01       	movw	r30, r16
    183e:	ed 56       	subi	r30, 0x6D	; 109
    1840:	fe 4a       	sbci	r31, 0xAE	; 174
    1842:	90 81       	ld	r25, Z
    1844:	91 3f       	cpi	r25, 0xF1	; 241
    1846:	c1 f5       	brne	.+112    	; 0x18b8 <Receiv_PC+0xc6>
		{//			STX			       PC2CTL			     선별기			실시간정보			ETX
			Rx_LED_ON;						// RX LED ON
    1848:	e4 e2       	ldi	r30, 0x24	; 36
    184a:	f4 e0       	ldi	r31, 0x04	; 4
    184c:	80 81       	ld	r24, Z
    184e:	88 60       	ori	r24, 0x08	; 8
    1850:	80 83       	st	Z, r24
			ChkSum = 0;						// ChkSum 초기화
    1852:	90 e0       	ldi	r25, 0x00	; 0

			for(cnt1 = 1; cnt1 < 8; cnt1++) {ChkSum += Rx3_Buff[cnt + cnt1];}	// 체크썸 계산
    1854:	81 e0       	ldi	r24, 0x01	; 1
    1856:	08 c0       	rjmp	.+16     	; 0x1868 <Receiv_PC+0x76>
    1858:	f8 01       	movw	r30, r16
    185a:	e8 0f       	add	r30, r24
    185c:	f1 1d       	adc	r31, r1
    185e:	e6 57       	subi	r30, 0x76	; 118
    1860:	fe 4a       	sbci	r31, 0xAE	; 174
    1862:	20 81       	ld	r18, Z
    1864:	92 0f       	add	r25, r18
    1866:	8f 5f       	subi	r24, 0xFF	; 255
    1868:	88 30       	cpi	r24, 0x08	; 8
    186a:	b0 f3       	brcs	.-20     	; 0x1858 <Receiv_PC+0x66>

			if(ChkSum == Rx3_Buff[cnt + 8])				// 체크썸 확인
    186c:	f8 01       	movw	r30, r16
    186e:	ee 56       	subi	r30, 0x6E	; 110
    1870:	fe 4a       	sbci	r31, 0xAE	; 174
    1872:	80 81       	ld	r24, Z
    1874:	98 13       	cpse	r25, r24
    1876:	18 c0       	rjmp	.+48     	; 0x18a8 <Receiv_PC+0xb6>
			{
				if(Rx3_Buff[cnt + 3] == Cell_ID)		// ID 1번 이면
    1878:	f8 01       	movw	r30, r16
    187a:	e3 57       	subi	r30, 0x73	; 115
    187c:	fe 4a       	sbci	r31, 0xAE	; 174
    187e:	90 81       	ld	r25, Z
    1880:	80 91 ea 50 	lds	r24, 0x50EA	; 0x8050ea <Cell_ID>
    1884:	98 13       	cpse	r25, r24
    1886:	10 c0       	rjmp	.+32     	; 0x18a8 <Receiv_PC+0xb6>
				{						// 실시간 정보
					Tx_LED_ON;				// TX LED ON
    1888:	c4 e2       	ldi	r28, 0x24	; 36
    188a:	d4 e0       	ldi	r29, 0x04	; 4
    188c:	88 81       	ld	r24, Y
    188e:	84 60       	ori	r24, 0x04	; 4
    1890:	88 83       	st	Y, r24
					Send_To_Server_0();			// 무게 Data PC로 전송
    1892:	0e 94 11 0b 	call	0x1622	; 0x1622 <Send_To_Server_0>
    1896:	8c ec       	ldi	r24, 0xCC	; 204
    1898:	9c e1       	ldi	r25, 0x1C	; 28
    189a:	01 97       	sbiw	r24, 0x01	; 1
    189c:	f1 f7       	brne	.-4      	; 0x189a <Receiv_PC+0xa8>
    189e:	00 c0       	rjmp	.+0      	; 0x18a0 <Receiv_PC+0xae>
    18a0:	00 00       	nop
					_delay_ms(2);
					Tx_LED_OFF;				// TX LED OFF
    18a2:	88 81       	ld	r24, Y
    18a4:	8b 7f       	andi	r24, 0xFB	; 251
    18a6:	88 83       	st	Y, r24
				}
			}
			Rx3_Buff_Clear();					// Rx3 Buff Clear
    18a8:	0e 94 b3 2d 	call	0x5b66	; 0x5b66 <Rx3_Buff_Clear>
			Rx_LED_OFF;						// RX LED OFF
    18ac:	e4 e2       	ldi	r30, 0x24	; 36
    18ae:	f4 e0       	ldi	r31, 0x04	; 4
    18b0:	80 81       	ld	r24, Z
    18b2:	87 7f       	andi	r24, 0xF7	; 247
    18b4:	80 83       	st	Z, r24
			break;							// for 문 빠져 나가기
    18b6:	0b c1       	rjmp	.+534    	; 0x1ace <Receiv_PC+0x2dc>
		}

		else if(Rx3_Buff[cnt] == STX_Iontec && Rx3_Buff[cnt + 1] == PC2CTL && Rx3_Buff[cnt + 4] == 9 && Rx3_Buff[cnt + 15] == ETX_Iontec)
    18b8:	80 3f       	cpi	r24, 0xF0	; 240
    18ba:	09 f0       	breq	.+2      	; 0x18be <Receiv_PC+0xcc>
    18bc:	a1 c0       	rjmp	.+322    	; 0x1a00 <Receiv_PC+0x20e>
    18be:	f8 01       	movw	r30, r16
    18c0:	e5 57       	subi	r30, 0x75	; 117
    18c2:	fe 4a       	sbci	r31, 0xAE	; 174
    18c4:	90 81       	ld	r25, Z
    18c6:	91 30       	cpi	r25, 0x01	; 1
    18c8:	09 f0       	breq	.+2      	; 0x18cc <Receiv_PC+0xda>
    18ca:	9a c0       	rjmp	.+308    	; 0x1a00 <Receiv_PC+0x20e>
    18cc:	f8 01       	movw	r30, r16
    18ce:	e2 57       	subi	r30, 0x72	; 114
    18d0:	fe 4a       	sbci	r31, 0xAE	; 174
    18d2:	90 81       	ld	r25, Z
    18d4:	99 30       	cpi	r25, 0x09	; 9
    18d6:	09 f0       	breq	.+2      	; 0x18da <Receiv_PC+0xe8>
    18d8:	93 c0       	rjmp	.+294    	; 0x1a00 <Receiv_PC+0x20e>
    18da:	f8 01       	movw	r30, r16
    18dc:	e7 56       	subi	r30, 0x67	; 103
    18de:	fe 4a       	sbci	r31, 0xAE	; 174
    18e0:	90 81       	ld	r25, Z
    18e2:	91 3f       	cpi	r25, 0xF1	; 241
    18e4:	09 f0       	breq	.+2      	; 0x18e8 <Receiv_PC+0xf6>
    18e6:	8c c0       	rjmp	.+280    	; 0x1a00 <Receiv_PC+0x20e>
		{//			    STX				    PC2CTL		    시간정보변경			        ETX
			Rx_LED_ON;						// RX LED ON
    18e8:	e4 e2       	ldi	r30, 0x24	; 36
    18ea:	f4 e0       	ldi	r31, 0x04	; 4
    18ec:	80 81       	ld	r24, Z
    18ee:	88 60       	ori	r24, 0x08	; 8
    18f0:	80 83       	st	Z, r24
			ChkSum = 0;						// ChkSum 초기화
    18f2:	90 e0       	ldi	r25, 0x00	; 0

			for(cnt1 = 1; cnt1 < 14; cnt1++) {ChkSum += Rx3_Buff[cnt + cnt1];}	// 체크썸 계산
    18f4:	81 e0       	ldi	r24, 0x01	; 1
    18f6:	08 c0       	rjmp	.+16     	; 0x1908 <Receiv_PC+0x116>
    18f8:	f8 01       	movw	r30, r16
    18fa:	e8 0f       	add	r30, r24
    18fc:	f1 1d       	adc	r31, r1
    18fe:	e6 57       	subi	r30, 0x76	; 118
    1900:	fe 4a       	sbci	r31, 0xAE	; 174
    1902:	20 81       	ld	r18, Z
    1904:	92 0f       	add	r25, r18
    1906:	8f 5f       	subi	r24, 0xFF	; 255
    1908:	8e 30       	cpi	r24, 0x0E	; 14
    190a:	b0 f3       	brcs	.-20     	; 0x18f8 <Receiv_PC+0x106>

			if(ChkSum == Rx3_Buff[cnt + 14])			// 체크썸 확인
    190c:	f8 01       	movw	r30, r16
    190e:	e8 56       	subi	r30, 0x68	; 104
    1910:	fe 4a       	sbci	r31, 0xAE	; 174
    1912:	80 81       	ld	r24, Z
    1914:	98 13       	cpse	r25, r24
    1916:	6c c0       	rjmp	.+216    	; 0x19f0 <Receiv_PC+0x1fe>
			{
				RTC_Time_Write(RTC_YEAR,  ((Rx3_Buff[cnt+ 8]&0xF0)>>4)*10+(Rx3_Buff[cnt+ 8]&0x0F));	// RTC 에 년 저장
    1918:	f8 01       	movw	r30, r16
    191a:	ee 56       	subi	r30, 0x6E	; 110
    191c:	fe 4a       	sbci	r31, 0xAE	; 174
    191e:	80 81       	ld	r24, Z
    1920:	98 2f       	mov	r25, r24
    1922:	92 95       	swap	r25
    1924:	9f 70       	andi	r25, 0x0F	; 15
    1926:	99 0f       	add	r25, r25
    1928:	69 2f       	mov	r22, r25
    192a:	66 0f       	add	r22, r22
    192c:	66 0f       	add	r22, r22
    192e:	96 0f       	add	r25, r22
    1930:	8f 70       	andi	r24, 0x0F	; 15
    1932:	69 2f       	mov	r22, r25
    1934:	68 0f       	add	r22, r24
    1936:	86 e0       	ldi	r24, 0x06	; 6
    1938:	0e 94 db 29 	call	0x53b6	; 0x53b6 <RTC_Time_Write>
				RTC_Time_Write(RTC_MONTH, ((Rx3_Buff[cnt+ 9]&0xF0)>>4)*10+(Rx3_Buff[cnt+ 9]&0x0F));	// RTC 에 월 저장
    193c:	f8 01       	movw	r30, r16
    193e:	ed 56       	subi	r30, 0x6D	; 109
    1940:	fe 4a       	sbci	r31, 0xAE	; 174
    1942:	80 81       	ld	r24, Z
    1944:	98 2f       	mov	r25, r24
    1946:	92 95       	swap	r25
    1948:	9f 70       	andi	r25, 0x0F	; 15
    194a:	99 0f       	add	r25, r25
    194c:	69 2f       	mov	r22, r25
    194e:	66 0f       	add	r22, r22
    1950:	66 0f       	add	r22, r22
    1952:	96 0f       	add	r25, r22
    1954:	8f 70       	andi	r24, 0x0F	; 15
    1956:	69 2f       	mov	r22, r25
    1958:	68 0f       	add	r22, r24
    195a:	85 e0       	ldi	r24, 0x05	; 5
    195c:	0e 94 db 29 	call	0x53b6	; 0x53b6 <RTC_Time_Write>
				RTC_Time_Write(RTC_DATE,  ((Rx3_Buff[cnt+10]&0xF0)>>4)*10+(Rx3_Buff[cnt+10]&0x0F));	// RTC 에 일 저장
    1960:	f8 01       	movw	r30, r16
    1962:	ec 56       	subi	r30, 0x6C	; 108
    1964:	fe 4a       	sbci	r31, 0xAE	; 174
    1966:	80 81       	ld	r24, Z
    1968:	98 2f       	mov	r25, r24
    196a:	92 95       	swap	r25
    196c:	9f 70       	andi	r25, 0x0F	; 15
    196e:	99 0f       	add	r25, r25
    1970:	69 2f       	mov	r22, r25
    1972:	66 0f       	add	r22, r22
    1974:	66 0f       	add	r22, r22
    1976:	96 0f       	add	r25, r22
    1978:	8f 70       	andi	r24, 0x0F	; 15
    197a:	69 2f       	mov	r22, r25
    197c:	68 0f       	add	r22, r24
    197e:	84 e0       	ldi	r24, 0x04	; 4
    1980:	0e 94 db 29 	call	0x53b6	; 0x53b6 <RTC_Time_Write>
				RTC_Time_Write(RTC_HOUR,  ((Rx3_Buff[cnt+11]&0xF0)>>4)*10+(Rx3_Buff[cnt+11]&0x0F));	// RTC 에 시 저장
    1984:	f8 01       	movw	r30, r16
    1986:	eb 56       	subi	r30, 0x6B	; 107
    1988:	fe 4a       	sbci	r31, 0xAE	; 174
    198a:	80 81       	ld	r24, Z
    198c:	98 2f       	mov	r25, r24
    198e:	92 95       	swap	r25
    1990:	9f 70       	andi	r25, 0x0F	; 15
    1992:	99 0f       	add	r25, r25
    1994:	69 2f       	mov	r22, r25
    1996:	66 0f       	add	r22, r22
    1998:	66 0f       	add	r22, r22
    199a:	96 0f       	add	r25, r22
    199c:	8f 70       	andi	r24, 0x0F	; 15
    199e:	69 2f       	mov	r22, r25
    19a0:	68 0f       	add	r22, r24
    19a2:	82 e0       	ldi	r24, 0x02	; 2
    19a4:	0e 94 db 29 	call	0x53b6	; 0x53b6 <RTC_Time_Write>
				RTC_Time_Write(RTC_MINUTE,((Rx3_Buff[cnt+12]&0xF0)>>4)*10+(Rx3_Buff[cnt+12]&0x0F));	// RTC 에 분 저장
    19a8:	f8 01       	movw	r30, r16
    19aa:	ea 56       	subi	r30, 0x6A	; 106
    19ac:	fe 4a       	sbci	r31, 0xAE	; 174
    19ae:	80 81       	ld	r24, Z
    19b0:	98 2f       	mov	r25, r24
    19b2:	92 95       	swap	r25
    19b4:	9f 70       	andi	r25, 0x0F	; 15
    19b6:	99 0f       	add	r25, r25
    19b8:	69 2f       	mov	r22, r25
    19ba:	66 0f       	add	r22, r22
    19bc:	66 0f       	add	r22, r22
    19be:	96 0f       	add	r25, r22
    19c0:	8f 70       	andi	r24, 0x0F	; 15
    19c2:	69 2f       	mov	r22, r25
    19c4:	68 0f       	add	r22, r24
    19c6:	81 e0       	ldi	r24, 0x01	; 1
    19c8:	0e 94 db 29 	call	0x53b6	; 0x53b6 <RTC_Time_Write>
				RTC_Time_Write(RTC_SECOND,((Rx3_Buff[cnt+13]&0xF0)>>4)*10+(Rx3_Buff[cnt+13]&0x0F));	// RTC 에 초 저장
    19cc:	f8 01       	movw	r30, r16
    19ce:	e9 56       	subi	r30, 0x69	; 105
    19d0:	fe 4a       	sbci	r31, 0xAE	; 174
    19d2:	80 81       	ld	r24, Z
    19d4:	98 2f       	mov	r25, r24
    19d6:	92 95       	swap	r25
    19d8:	9f 70       	andi	r25, 0x0F	; 15
    19da:	99 0f       	add	r25, r25
    19dc:	69 2f       	mov	r22, r25
    19de:	66 0f       	add	r22, r22
    19e0:	66 0f       	add	r22, r22
    19e2:	96 0f       	add	r25, r22
    19e4:	8f 70       	andi	r24, 0x0F	; 15
    19e6:	69 2f       	mov	r22, r25
    19e8:	68 0f       	add	r22, r24
    19ea:	80 e0       	ldi	r24, 0x00	; 0
    19ec:	0e 94 db 29 	call	0x53b6	; 0x53b6 <RTC_Time_Write>
			}
			Rx3_Buff_Clear();					// Rx3 Buff Clear
    19f0:	0e 94 b3 2d 	call	0x5b66	; 0x5b66 <Rx3_Buff_Clear>
			Rx_LED_OFF;						// RX LED OFF
    19f4:	e4 e2       	ldi	r30, 0x24	; 36
    19f6:	f4 e0       	ldi	r31, 0x04	; 4
    19f8:	80 81       	ld	r24, Z
    19fa:	87 7f       	andi	r24, 0xF7	; 247
    19fc:	80 83       	st	Z, r24
			break;							// for 문 빠져 나가기
    19fe:	67 c0       	rjmp	.+206    	; 0x1ace <Receiv_PC+0x2dc>
		}

		else if(Rx3_Buff[cnt] == STX_Iontec && Rx3_Buff[cnt + 1] == PC2CTL && Rx3_Buff[cnt + 2] == 0x01 && Rx3_Buff[cnt + 4] == 7 && Rx3_Buff[cnt + 31] == ETX_Iontec)
    1a00:	80 3f       	cpi	r24, 0xF0	; 240
    1a02:	09 f0       	breq	.+2      	; 0x1a06 <Receiv_PC+0x214>
    1a04:	60 c0       	rjmp	.+192    	; 0x1ac6 <Receiv_PC+0x2d4>
    1a06:	f8 01       	movw	r30, r16
    1a08:	e5 57       	subi	r30, 0x75	; 117
    1a0a:	fe 4a       	sbci	r31, 0xAE	; 174
    1a0c:	80 81       	ld	r24, Z
    1a0e:	81 30       	cpi	r24, 0x01	; 1
    1a10:	09 f0       	breq	.+2      	; 0x1a14 <Receiv_PC+0x222>
    1a12:	59 c0       	rjmp	.+178    	; 0x1ac6 <Receiv_PC+0x2d4>
    1a14:	f8 01       	movw	r30, r16
    1a16:	e4 57       	subi	r30, 0x74	; 116
    1a18:	fe 4a       	sbci	r31, 0xAE	; 174
    1a1a:	80 81       	ld	r24, Z
    1a1c:	81 30       	cpi	r24, 0x01	; 1
    1a1e:	09 f0       	breq	.+2      	; 0x1a22 <Receiv_PC+0x230>
    1a20:	52 c0       	rjmp	.+164    	; 0x1ac6 <Receiv_PC+0x2d4>
    1a22:	78 01       	movw	r14, r16
    1a24:	94 e0       	ldi	r25, 0x04	; 4
    1a26:	e9 0e       	add	r14, r25
    1a28:	f1 1c       	adc	r15, r1
    1a2a:	f7 01       	movw	r30, r14
    1a2c:	e6 57       	subi	r30, 0x76	; 118
    1a2e:	fe 4a       	sbci	r31, 0xAE	; 174
    1a30:	80 81       	ld	r24, Z
    1a32:	87 30       	cpi	r24, 0x07	; 7
    1a34:	09 f0       	breq	.+2      	; 0x1a38 <Receiv_PC+0x246>
    1a36:	47 c0       	rjmp	.+142    	; 0x1ac6 <Receiv_PC+0x2d4>
    1a38:	f8 01       	movw	r30, r16
    1a3a:	e7 55       	subi	r30, 0x57	; 87
    1a3c:	fe 4a       	sbci	r31, 0xAE	; 174
    1a3e:	80 81       	ld	r24, Z
    1a40:	81 3f       	cpi	r24, 0xF1	; 241
    1a42:	09 f0       	breq	.+2      	; 0x1a46 <Receiv_PC+0x254>
    1a44:	40 c0       	rjmp	.+128    	; 0x1ac6 <Receiv_PC+0x2d4>
		{//			     STX			    PC2CTL			  선별기		설정정보(입구체중)		       ETX
			Rx_LED_ON;							// RX LED ON
    1a46:	e4 e2       	ldi	r30, 0x24	; 36
    1a48:	f4 e0       	ldi	r31, 0x04	; 4
    1a4a:	80 81       	ld	r24, Z
    1a4c:	88 60       	ori	r24, 0x08	; 8
    1a4e:	80 83       	st	Z, r24
			ChkSum = 0;							// ChkSum 초기화
    1a50:	90 e0       	ldi	r25, 0x00	; 0

			for(cnt1 = 1; cnt1 < 30; cnt1++) {ChkSum += Rx3_Buff[cnt + cnt1];}	// 체크썸 계산
    1a52:	81 e0       	ldi	r24, 0x01	; 1
    1a54:	08 c0       	rjmp	.+16     	; 0x1a66 <Receiv_PC+0x274>
    1a56:	f8 01       	movw	r30, r16
    1a58:	e8 0f       	add	r30, r24
    1a5a:	f1 1d       	adc	r31, r1
    1a5c:	e6 57       	subi	r30, 0x76	; 118
    1a5e:	fe 4a       	sbci	r31, 0xAE	; 174
    1a60:	20 81       	ld	r18, Z
    1a62:	92 0f       	add	r25, r18
    1a64:	8f 5f       	subi	r24, 0xFF	; 255
    1a66:	8e 31       	cpi	r24, 0x1E	; 30
    1a68:	b0 f3       	brcs	.-20     	; 0x1a56 <Receiv_PC+0x264>

			if(ChkSum == Rx3_Buff[cnt + 30])				// 체크썸 확인
    1a6a:	f8 01       	movw	r30, r16
    1a6c:	e8 55       	subi	r30, 0x58	; 88
    1a6e:	fe 4a       	sbci	r31, 0xAE	; 174
    1a70:	80 81       	ld	r24, Z
    1a72:	98 13       	cpse	r25, r24
    1a74:	28 c0       	rjmp	.+80     	; 0x1ac6 <Receiv_PC+0x2d4>
			{
				IN_S = Rx3_Buff[cnt + 8] << 8 & Rx3_Buff[cnt + 8];	// 입구체중 값 변환
    1a76:	60 e0       	ldi	r22, 0x00	; 0
    1a78:	70 e0       	ldi	r23, 0x00	; 0

				if(Rx3_Buff[cnt + 3] == Cell_ID)			// Cell ID 1번 이면
    1a7a:	f8 01       	movw	r30, r16
    1a7c:	e3 57       	subi	r30, 0x73	; 115
    1a7e:	fe 4a       	sbci	r31, 0xAE	; 174
    1a80:	90 81       	ld	r25, Z
    1a82:	80 91 ea 50 	lds	r24, 0x50EA	; 0x8050ea <Cell_ID>
    1a86:	98 13       	cpse	r25, r24
    1a88:	1e c0       	rjmp	.+60     	; 0x1ac6 <Receiv_PC+0x2d4>
				{
					IN_Scales = IN_S;				// 입구체중 값을 로드셀 1번에 적용
    1a8a:	60 93 09 51 	sts	0x5109, r22	; 0x805109 <IN_Scales>
    1a8e:	70 93 0a 51 	sts	0x510A, r23	; 0x80510a <IN_Scales+0x1>
					ee_write_word(Cell_IN_S_Addr, IN_S);		// 입구체중 값을 EEPROM에 저장
    1a92:	8a e0       	ldi	r24, 0x0A	; 10
    1a94:	90 e0       	ldi	r25, 0x00	; 0
    1a96:	0e 94 3e 13 	call	0x267c	; 0x267c <ee_write_word>
					Tx_LED_ON;					// TX LED ON
    1a9a:	04 e2       	ldi	r16, 0x24	; 36
    1a9c:	14 e0       	ldi	r17, 0x04	; 4
    1a9e:	f8 01       	movw	r30, r16
    1aa0:	80 81       	ld	r24, Z
    1aa2:	84 60       	ori	r24, 0x04	; 4
    1aa4:	80 83       	st	Z, r24
					Send_To_Server_1(Rx3_Buff[cnt + 4]);		// 설정정보 PC로 전송
    1aa6:	f7 01       	movw	r30, r14
    1aa8:	e6 57       	subi	r30, 0x76	; 118
    1aaa:	fe 4a       	sbci	r31, 0xAE	; 174
    1aac:	80 81       	ld	r24, Z
    1aae:	0e 94 b2 0b 	call	0x1764	; 0x1764 <Send_To_Server_1>
    1ab2:	8c ec       	ldi	r24, 0xCC	; 204
    1ab4:	9c e1       	ldi	r25, 0x1C	; 28
    1ab6:	01 97       	sbiw	r24, 0x01	; 1
    1ab8:	f1 f7       	brne	.-4      	; 0x1ab6 <Receiv_PC+0x2c4>
    1aba:	00 c0       	rjmp	.+0      	; 0x1abc <Receiv_PC+0x2ca>
    1abc:	00 00       	nop
					_delay_ms(2);
					Tx_LED_OFF;					// TX LED OFF
    1abe:	f8 01       	movw	r30, r16
    1ac0:	80 81       	ld	r24, Z
    1ac2:	8b 7f       	andi	r24, 0xFB	; 251
    1ac4:	80 83       	st	Z, r24
{
	uint8_t cnt1;								// cnt1 변수 초기화
	uint8_t ChkSum = 0;							// ChkSum 변수 초기화
	uint16_t IN_S;								// 입구 체중 변수

	for(uint8_t cnt = 0; cnt < RX3_SIZE; cnt++)				// RX3_SIZE 만큼 반복
    1ac6:	cf 5f       	subi	r28, 0xFF	; 255
    1ac8:	ca 3f       	cpi	r28, 0xFA	; 250
    1aca:	08 f4       	brcc	.+2      	; 0x1ace <Receiv_PC+0x2dc>
    1acc:	9a ce       	rjmp	.-716    	; 0x1802 <Receiv_PC+0x10>
					Tx_LED_OFF;					// TX LED OFF
				}
			}
		}
	}
}
    1ace:	df 91       	pop	r29
    1ad0:	cf 91       	pop	r28
    1ad2:	1f 91       	pop	r17
    1ad4:	0f 91       	pop	r16
    1ad6:	ff 90       	pop	r15
    1ad8:	ef 90       	pop	r14
    1ada:	08 95       	ret

00001adc <Time_Check>:

//=================================================================================================
void Time_Check(void)								// 시간 체크
{
	if(Timer.RTC_Timer >= 1000)						// 5mSec X 1000 = 5Sec 이상이 되면 진입
    1adc:	80 91 38 51 	lds	r24, 0x5138	; 0x805138 <Timer+0x3>
    1ae0:	90 91 39 51 	lds	r25, 0x5139	; 0x805139 <Timer+0x4>
    1ae4:	88 3e       	cpi	r24, 0xE8	; 232
    1ae6:	93 40       	sbci	r25, 0x03	; 3
    1ae8:	08 f4       	brcc	.+2      	; 0x1aec <Time_Check+0x10>
    1aea:	79 c0       	rjmp	.+242    	; 0x1bde <Time_Check+0x102>
	{
		Timer.RTC_Timer = 0;						// RTC_Timer 초기화 (타이머1 에서 5mSec 마다 증가)
    1aec:	10 92 38 51 	sts	0x5138, r1	; 0x805138 <Timer+0x3>
    1af0:	10 92 39 51 	sts	0x5139, r1	; 0x805139 <Timer+0x4>
		RTC_Time_Read();						// RTC에서 시간 읽어 오기
    1af4:	0e 94 a0 29 	call	0x5340	; 0x5340 <RTC_Time_Read>

		if(RTC_T.OLD_D != RTC_T.Date)					// 날짜 Data 가 다르면
    1af8:	ea e3       	ldi	r30, 0x3A	; 58
    1afa:	f1 e5       	ldi	r31, 0x51	; 81
    1afc:	87 81       	ldd	r24, Z+7	; 0x07
    1afe:	64 81       	ldd	r22, Z+4	; 0x04
    1b00:	86 17       	cp	r24, r22
    1b02:	09 f4       	brne	.+2      	; 0x1b06 <Time_Check+0x2a>
    1b04:	62 c0       	rjmp	.+196    	; 0x1bca <Time_Check+0xee>
		{
			RTC_T.OLD_D = RTC_T.Date;				// 현재 날짜 저장
    1b06:	60 93 41 51 	sts	0x5141, r22	; 0x805141 <RTC_T+0x7>
			ee_write_byte (OLD_Date_Addr, RTC_T.OLD_D);		// 날짜 를 EEPROM 에 저장
    1b0a:	82 e0       	ldi	r24, 0x02	; 2
    1b0c:	90 e0       	ldi	r25, 0x00	; 0
    1b0e:	0e 94 1b 13 	call	0x2636	; 0x2636 <ee_write_byte>

			memset(SAVE.AutoSet, 0, 300);				// 자동설정 버퍼 Clear
    1b12:	8c e2       	ldi	r24, 0x2C	; 44
    1b14:	91 e0       	ldi	r25, 0x01	; 1
    1b16:	ee ea       	ldi	r30, 0xAE	; 174
    1b18:	f1 e4       	ldi	r31, 0x41	; 65
    1b1a:	df 01       	movw	r26, r30
    1b1c:	9c 01       	movw	r18, r24
    1b1e:	1d 92       	st	X+, r1
    1b20:	21 50       	subi	r18, 0x01	; 1
    1b22:	30 40       	sbci	r19, 0x00	; 0
    1b24:	e1 f7       	brne	.-8      	; 0x1b1e <Time_Check+0x42>
			memset(SAVE.Count,   0, 300);				// 측정횟수 버퍼 Clear
    1b26:	ea ed       	ldi	r30, 0xDA	; 218
    1b28:	f2 e4       	ldi	r31, 0x42	; 66
    1b2a:	df 01       	movw	r26, r30
    1b2c:	9c 01       	movw	r18, r24
    1b2e:	1d 92       	st	X+, r1
    1b30:	21 50       	subi	r18, 0x01	; 1
    1b32:	30 40       	sbci	r19, 0x00	; 0
    1b34:	e1 f7       	brne	.-8      	; 0x1b2e <Time_Check+0x52>
			memset(SAVE.Data,    0, 300);				// 측정무게 버퍼 Clear
    1b36:	e2 e3       	ldi	r30, 0x32	; 50
    1b38:	f5 e4       	ldi	r31, 0x45	; 69
    1b3a:	df 01       	movw	r26, r30
    1b3c:	9c 01       	movw	r18, r24
    1b3e:	1d 92       	st	X+, r1
    1b40:	21 50       	subi	r18, 0x01	; 1
    1b42:	30 40       	sbci	r19, 0x00	; 0
    1b44:	e1 f7       	brne	.-8      	; 0x1b3e <Time_Check+0x62>
			memset(SAVE.RoomNum, 0, 300);				// 방번호 버퍼 Clear
    1b46:	ea e8       	ldi	r30, 0x8A	; 138
    1b48:	f7 e4       	ldi	r31, 0x47	; 71
    1b4a:	df 01       	movw	r26, r30
    1b4c:	9c 01       	movw	r18, r24
    1b4e:	1d 92       	st	X+, r1
    1b50:	21 50       	subi	r18, 0x01	; 1
    1b52:	30 40       	sbci	r19, 0x00	; 0
    1b54:	e1 f7       	brne	.-8      	; 0x1b4e <Time_Check+0x72>
			memset(SAVE.StalNum, 0, 300);				// 스톨번호 버퍼 Clear
    1b56:	e6 eb       	ldi	r30, 0xB6	; 182
    1b58:	f8 e4       	ldi	r31, 0x48	; 72
    1b5a:	df 01       	movw	r26, r30
    1b5c:	9c 01       	movw	r18, r24
    1b5e:	1d 92       	st	X+, r1
    1b60:	21 50       	subi	r18, 0x01	; 1
    1b62:	30 40       	sbci	r19, 0x00	; 0
    1b64:	e1 f7       	brne	.-8      	; 0x1b5e <Time_Check+0x82>
			memset(SAVE.Year,    0, 300);				// 년 버퍼 Clear
    1b66:	e2 ee       	ldi	r30, 0xE2	; 226
    1b68:	f9 e4       	ldi	r31, 0x49	; 73
    1b6a:	df 01       	movw	r26, r30
    1b6c:	9c 01       	movw	r18, r24
    1b6e:	1d 92       	st	X+, r1
    1b70:	21 50       	subi	r18, 0x01	; 1
    1b72:	30 40       	sbci	r19, 0x00	; 0
    1b74:	e1 f7       	brne	.-8      	; 0x1b6e <Time_Check+0x92>
			memset(SAVE.Month,   0, 300);				// 월 버퍼 Clear
    1b76:	ee e0       	ldi	r30, 0x0E	; 14
    1b78:	fb e4       	ldi	r31, 0x4B	; 75
    1b7a:	df 01       	movw	r26, r30
    1b7c:	9c 01       	movw	r18, r24
    1b7e:	1d 92       	st	X+, r1
    1b80:	21 50       	subi	r18, 0x01	; 1
    1b82:	30 40       	sbci	r19, 0x00	; 0
    1b84:	e1 f7       	brne	.-8      	; 0x1b7e <Time_Check+0xa2>
			memset(SAVE.Date,    0, 300);				// 일 버퍼 Clear
    1b86:	ea e3       	ldi	r30, 0x3A	; 58
    1b88:	fc e4       	ldi	r31, 0x4C	; 76
    1b8a:	df 01       	movw	r26, r30
    1b8c:	9c 01       	movw	r18, r24
    1b8e:	1d 92       	st	X+, r1
    1b90:	21 50       	subi	r18, 0x01	; 1
    1b92:	30 40       	sbci	r19, 0x00	; 0
    1b94:	e1 f7       	brne	.-8      	; 0x1b8e <Time_Check+0xb2>
			memset(SAVE.Hour,    0, 300);				// 시 버퍼 Clear
    1b96:	e6 e6       	ldi	r30, 0x66	; 102
    1b98:	fd e4       	ldi	r31, 0x4D	; 77
    1b9a:	df 01       	movw	r26, r30
    1b9c:	9c 01       	movw	r18, r24
    1b9e:	1d 92       	st	X+, r1
    1ba0:	21 50       	subi	r18, 0x01	; 1
    1ba2:	30 40       	sbci	r19, 0x00	; 0
    1ba4:	e1 f7       	brne	.-8      	; 0x1b9e <Time_Check+0xc2>
			memset(SAVE.Min,     0, 300);				// 분 버퍼 Clear
    1ba6:	e2 e9       	ldi	r30, 0x92	; 146
    1ba8:	fe e4       	ldi	r31, 0x4E	; 78
    1baa:	df 01       	movw	r26, r30
    1bac:	9c 01       	movw	r18, r24
    1bae:	1d 92       	st	X+, r1
    1bb0:	21 50       	subi	r18, 0x01	; 1
    1bb2:	30 40       	sbci	r19, 0x00	; 0
    1bb4:	e1 f7       	brne	.-8      	; 0x1bae <Time_Check+0xd2>
			memset(SAVE.Sec,     0, 300);				// 초 버퍼 Clear
    1bb6:	ee eb       	ldi	r30, 0xBE	; 190
    1bb8:	ff e4       	ldi	r31, 0x4F	; 79
    1bba:	df 01       	movw	r26, r30
    1bbc:	9c 01       	movw	r18, r24
    1bbe:	1d 92       	st	X+, r1
    1bc0:	21 50       	subi	r18, 0x01	; 1
    1bc2:	30 40       	sbci	r19, 0x00	; 0
    1bc4:	e1 f7       	brne	.-8      	; 0x1bbe <Time_Check+0xe2>

			Data_Number = 0;					// 측정 무게 Count Clear
    1bc6:	10 92 63 51 	sts	0x5163, r1	; 0x805163 <Data_Number>
		}
		Sec_Count++;							// Sec_Count 증가
    1bca:	80 91 0c 51 	lds	r24, 0x510C	; 0x80510c <Sec_Count>
    1bce:	8f 5f       	subi	r24, 0xFF	; 255
    1bd0:	80 93 0c 51 	sts	0x510C, r24	; 0x80510c <Sec_Count>
		if(Sec_Count > 50) {Sec_Count = 50;}				// Sec_Count 가 10 보다 크면 10 으로 유지
    1bd4:	83 33       	cpi	r24, 0x33	; 51
    1bd6:	18 f0       	brcs	.+6      	; 0x1bde <Time_Check+0x102>
    1bd8:	82 e3       	ldi	r24, 0x32	; 50
    1bda:	80 93 0c 51 	sts	0x510C, r24	; 0x80510c <Sec_Count>
    1bde:	08 95       	ret

00001be0 <Proportion_Set>:
	}
}

//=================================================================================================
void Proportion_Set(void)							// 로드셀 비율 설정 및 초기화
{
    1be0:	cf 92       	push	r12
    1be2:	df 92       	push	r13
    1be4:	ef 92       	push	r14
    1be6:	ff 92       	push	r15
	CELL.Proportion = (Cell_RO / 10000000 / 4 * 128 / 0.5 * 8388608 / (Cell_Capa * 1000)) / Cell_CNT;
    1be8:	20 e8       	ldi	r18, 0x80	; 128
    1bea:	36 e9       	ldi	r19, 0x96	; 150
    1bec:	48 e1       	ldi	r20, 0x18	; 24
    1bee:	5b e4       	ldi	r21, 0x4B	; 75
    1bf0:	60 91 57 51 	lds	r22, 0x5157	; 0x805157 <Cell_RO>
    1bf4:	70 91 58 51 	lds	r23, 0x5158	; 0x805158 <Cell_RO+0x1>
    1bf8:	80 91 59 51 	lds	r24, 0x5159	; 0x805159 <Cell_RO+0x2>
    1bfc:	90 91 5a 51 	lds	r25, 0x515A	; 0x80515a <Cell_RO+0x3>
    1c00:	0e 94 d2 35 	call	0x6ba4	; 0x6ba4 <__divsf3>
    1c04:	20 e0       	ldi	r18, 0x00	; 0
    1c06:	30 e0       	ldi	r19, 0x00	; 0
    1c08:	40 e8       	ldi	r20, 0x80	; 128
    1c0a:	5e e3       	ldi	r21, 0x3E	; 62
    1c0c:	0e 94 6f 37 	call	0x6ede	; 0x6ede <__mulsf3>
    1c10:	20 e0       	ldi	r18, 0x00	; 0
    1c12:	30 e0       	ldi	r19, 0x00	; 0
    1c14:	40 e0       	ldi	r20, 0x00	; 0
    1c16:	53 e4       	ldi	r21, 0x43	; 67
    1c18:	0e 94 6f 37 	call	0x6ede	; 0x6ede <__mulsf3>
    1c1c:	9b 01       	movw	r18, r22
    1c1e:	ac 01       	movw	r20, r24
    1c20:	0e 94 61 35 	call	0x6ac2	; 0x6ac2 <__addsf3>
    1c24:	20 e0       	ldi	r18, 0x00	; 0
    1c26:	30 e0       	ldi	r19, 0x00	; 0
    1c28:	40 e0       	ldi	r20, 0x00	; 0
    1c2a:	5b e4       	ldi	r21, 0x4B	; 75
    1c2c:	0e 94 6f 37 	call	0x6ede	; 0x6ede <__mulsf3>
    1c30:	6b 01       	movw	r12, r22
    1c32:	7c 01       	movw	r14, r24
    1c34:	20 91 6b 51 	lds	r18, 0x516B	; 0x80516b <Cell_Capa>
    1c38:	30 91 6c 51 	lds	r19, 0x516C	; 0x80516c <Cell_Capa+0x1>
    1c3c:	40 91 6d 51 	lds	r20, 0x516D	; 0x80516d <Cell_Capa+0x2>
    1c40:	50 91 6e 51 	lds	r21, 0x516E	; 0x80516e <Cell_Capa+0x3>
    1c44:	a8 ee       	ldi	r26, 0xE8	; 232
    1c46:	b3 e0       	ldi	r27, 0x03	; 3
    1c48:	0e 94 e9 3b 	call	0x77d2	; 0x77d2 <__muluhisi3>
    1c4c:	0e 94 7a 36 	call	0x6cf4	; 0x6cf4 <__floatunsisf>
    1c50:	9b 01       	movw	r18, r22
    1c52:	ac 01       	movw	r20, r24
    1c54:	c7 01       	movw	r24, r14
    1c56:	b6 01       	movw	r22, r12
    1c58:	0e 94 d2 35 	call	0x6ba4	; 0x6ba4 <__divsf3>
    1c5c:	6b 01       	movw	r12, r22
    1c5e:	7c 01       	movw	r14, r24
    1c60:	60 91 7e 51 	lds	r22, 0x517E	; 0x80517e <Cell_CNT>
    1c64:	70 e0       	ldi	r23, 0x00	; 0
    1c66:	80 e0       	ldi	r24, 0x00	; 0
    1c68:	90 e0       	ldi	r25, 0x00	; 0
    1c6a:	0e 94 7c 36 	call	0x6cf8	; 0x6cf8 <__floatsisf>
    1c6e:	9b 01       	movw	r18, r22
    1c70:	ac 01       	movw	r20, r24
    1c72:	c7 01       	movw	r24, r14
    1c74:	b6 01       	movw	r22, r12
    1c76:	0e 94 d2 35 	call	0x6ba4	; 0x6ba4 <__divsf3>
    1c7a:	60 93 2f 51 	sts	0x512F, r22	; 0x80512f <CELL+0x11>
    1c7e:	70 93 30 51 	sts	0x5130, r23	; 0x805130 <CELL+0x12>
    1c82:	80 93 31 51 	sts	0x5131, r24	; 0x805131 <CELL+0x13>
    1c86:	90 93 32 51 	sts	0x5132, r25	; 0x805132 <CELL+0x14>
}
    1c8a:	ff 90       	pop	r15
    1c8c:	ef 90       	pop	r14
    1c8e:	df 90       	pop	r13
    1c90:	cf 90       	pop	r12
    1c92:	08 95       	ret

00001c94 <Var_Init>:

//=================================================================================================
void Var_Init(void)								// 변수 및 로드셀 초기화
{
	FND_Value_Data(0, 2, 10);						// FND 0 ~ 2 FND_MINUS
    1c94:	4a e0       	ldi	r20, 0x0A	; 10
    1c96:	62 e0       	ldi	r22, 0x02	; 2
    1c98:	80 e0       	ldi	r24, 0x00	; 0
    1c9a:	0e 94 d2 05 	call	0xba4	; 0xba4 <FND_Value_Data>

	Read_eeprom();								// EEPROM Data 읽기
    1c9e:	0e 94 d0 06 	call	0xda0	; 0xda0 <Read_eeprom>
    1ca2:	86 e6       	ldi	r24, 0x66	; 102
    1ca4:	9e e0       	ldi	r25, 0x0E	; 14
    1ca6:	01 97       	sbiw	r24, 0x01	; 1
    1ca8:	f1 f7       	brne	.-4      	; 0x1ca6 <Var_Init+0x12>
    1caa:	00 00       	nop
	_delay_ms(1);

	Proportion_Set();							// 로드셀 비율 설정 및 초기화
    1cac:	0e 94 f0 0d 	call	0x1be0	; 0x1be0 <Proportion_Set>
    1cb0:	86 e6       	ldi	r24, 0x66	; 102
    1cb2:	9e e0       	ldi	r25, 0x0E	; 14
    1cb4:	01 97       	sbiw	r24, 0x01	; 1
    1cb6:	f1 f7       	brne	.-4      	; 0x1cb4 <Var_Init+0x20>
    1cb8:	00 00       	nop
	_delay_ms(1);

	Cell_Zero_Set();							// 로드셀 0 값 찾기 2회 반복
    1cba:	0e 94 9d 19 	call	0x333a	; 0x333a <Cell_Zero_Set>
    1cbe:	86 e6       	ldi	r24, 0x66	; 102
    1cc0:	9e e0       	ldi	r25, 0x0E	; 14
    1cc2:	01 97       	sbiw	r24, 0x01	; 1
    1cc4:	f1 f7       	brne	.-4      	; 0x1cc2 <Var_Init+0x2e>
    1cc6:	00 00       	nop
	_delay_ms(1);
	Cell_Zero_Set();							
    1cc8:	0e 94 9d 19 	call	0x333a	; 0x333a <Cell_Zero_Set>
	Alarm();								// 알람(비프 3번)
    1ccc:	0e 94 ff 07 	call	0xffe	; 0xffe <Alarm>

	CELL.Zero_Buff = 0;							// 측정 값 Zero Buff 초기화
    1cd0:	10 92 1e 51 	sts	0x511E, r1	; 0x80511e <CELL>
	Sec_Count = 0;								// 일정시간(30초) 버튼 입력 없으면 FND OFF Timer 초기화
    1cd4:	10 92 0c 51 	sts	0x510C, r1	; 0x80510c <Sec_Count>
	SET.Menu = 0;								// Menu   모드 초기화
    1cd8:	e0 e1       	ldi	r30, 0x10	; 16
    1cda:	f1 e5       	ldi	r31, 0x51	; 81
    1cdc:	10 82       	st	Z, r1
	SET.Select = 0;								// Select 모드 초기화
    1cde:	11 82       	std	Z+1, r1	; 0x01
	SET.Blink = 0;								// 자릿수 깜박임 초기화
    1ce0:	13 82       	std	Z+3, r1	; 0x03
	SET.NumSET = 0;
    1ce2:	12 82       	std	Z+2, r1	; 0x02
	KEY.Count = 0;								// Key 가 눌린횟수 초기화
    1ce4:	10 92 4f 51 	sts	0x514F, r1	; 0x80514f <KEY>
	OK_Count_1 = 0;								// OK_Count 초기화
    1ce8:	10 92 56 51 	sts	0x5156, r1	; 0x805156 <OK_Count_1>
	OK_Count_2 = 0;								// OK_Count 초기화
    1cec:	10 92 80 51 	sts	0x5180, r1	; 0x805180 <OK_Count_2>

	FND_Value_Data(0, 2, 12);						// FND 0 ~ 2 FND_MINUS
    1cf0:	4c e0       	ldi	r20, 0x0C	; 12
    1cf2:	62 e0       	ldi	r22, 0x02	; 2
    1cf4:	80 e0       	ldi	r24, 0x00	; 0
    1cf6:	0e 94 d2 05 	call	0xba4	; 0xba4 <FND_Value_Data>
    1cfa:	08 95       	ret

00001cfc <wdt_reset>:
#endif

//=================================================================================================
void wdt_reset(void)								// Reset WDT
{
	asm("WDR");								// Reset WDT
    1cfc:	a8 95       	wdr
    1cfe:	08 95       	ret

00001d00 <Auto_Set>:
}

//=================================================================================================
void Auto_Set(void)								// 자동모드,수동모드 설정
{
	while(SET.Menu && SET.Select)						// 메뉴가 1 이면 반복
    1d00:	3c c0       	rjmp	.+120    	; 0x1d7a <Auto_Set+0x7a>
	{
		if(KEY.Buff)							// Key 입력이 있으면
    1d02:	80 91 50 51 	lds	r24, 0x5150	; 0x805150 <KEY+0x1>
    1d06:	88 23       	and	r24, r24
    1d08:	69 f0       	breq	.+26     	; 0x1d24 <Auto_Set+0x24>
		{
			if     (KEY.Key == 1) {Auto_Mode = 1;}
    1d0a:	80 91 51 51 	lds	r24, 0x5151	; 0x805151 <KEY+0x2>
    1d0e:	81 30       	cpi	r24, 0x01	; 1
    1d10:	19 f4       	brne	.+6      	; 0x1d18 <Auto_Set+0x18>
    1d12:	80 93 89 51 	sts	0x5189, r24	; 0x805189 <Auto_Mode>
    1d16:	06 c0       	rjmp	.+12     	; 0x1d24 <Auto_Set+0x24>
			else if(KEY.Key == 3) {Auto_Mode = 0;}
    1d18:	80 91 51 51 	lds	r24, 0x5151	; 0x805151 <KEY+0x2>
    1d1c:	83 30       	cpi	r24, 0x03	; 3
    1d1e:	11 f4       	brne	.+4      	; 0x1d24 <Auto_Set+0x24>
    1d20:	10 92 89 51 	sts	0x5189, r1	; 0x805189 <Auto_Mode>
		}

		if(Auto_Mode)
    1d24:	80 91 89 51 	lds	r24, 0x5189	; 0x805189 <Auto_Mode>
    1d28:	88 23       	and	r24, r24
    1d2a:	99 f0       	breq	.+38     	; 0x1d52 <Auto_Set+0x52>
		{
			if(Blink) {FND_Value_Data(1,1,12);}			// Blink = 1 이면 FND 1 OFF
    1d2c:	80 91 7b 51 	lds	r24, 0x517B	; 0x80517b <Blink>
    1d30:	88 23       	and	r24, r24
    1d32:	31 f0       	breq	.+12     	; 0x1d40 <Auto_Set+0x40>
    1d34:	4c e0       	ldi	r20, 0x0C	; 12
    1d36:	61 e0       	ldi	r22, 0x01	; 1
    1d38:	81 e0       	ldi	r24, 0x01	; 1
    1d3a:	0e 94 d2 05 	call	0xba4	; 0xba4 <FND_Value_Data>
    1d3e:	1b c0       	rjmp	.+54     	; 0x1d76 <Auto_Set+0x76>
			else
			{
				DIGIT[1][3] = FND_OFF;
    1d40:	e9 e7       	ldi	r30, 0x79	; 121
    1d42:	f1 e4       	ldi	r31, 0x41	; 65
    1d44:	17 82       	std	Z+7, r1	; 0x07
				DIGIT[1][2] = FND_OFF;
    1d46:	16 82       	std	Z+6, r1	; 0x06
				DIGIT[1][1] = FND_O;
    1d48:	8c ef       	ldi	r24, 0xFC	; 252
    1d4a:	85 83       	std	Z+5, r24	; 0x05
				DIGIT[1][0] = FND_N;
    1d4c:	8c ee       	ldi	r24, 0xEC	; 236
    1d4e:	84 83       	std	Z+4, r24	; 0x04
    1d50:	12 c0       	rjmp	.+36     	; 0x1d76 <Auto_Set+0x76>
			}
		}
		else
		{
			if(Blink) {FND_Value_Data(1,1,12);}			// Blink = 1 이면 FND 1 OFF
    1d52:	80 91 7b 51 	lds	r24, 0x517B	; 0x80517b <Blink>
    1d56:	88 23       	and	r24, r24
    1d58:	31 f0       	breq	.+12     	; 0x1d66 <Auto_Set+0x66>
    1d5a:	4c e0       	ldi	r20, 0x0C	; 12
    1d5c:	61 e0       	ldi	r22, 0x01	; 1
    1d5e:	81 e0       	ldi	r24, 0x01	; 1
    1d60:	0e 94 d2 05 	call	0xba4	; 0xba4 <FND_Value_Data>
    1d64:	08 c0       	rjmp	.+16     	; 0x1d76 <Auto_Set+0x76>
			else
			{
				DIGIT[1][3] = FND_OFF;
    1d66:	e9 e7       	ldi	r30, 0x79	; 121
    1d68:	f1 e4       	ldi	r31, 0x41	; 65
    1d6a:	17 82       	std	Z+7, r1	; 0x07
				DIGIT[1][2] = FND_O;
    1d6c:	8c ef       	ldi	r24, 0xFC	; 252
    1d6e:	86 83       	std	Z+6, r24	; 0x06
				DIGIT[1][1] = FND_F;
    1d70:	8e e8       	ldi	r24, 0x8E	; 142
    1d72:	85 83       	std	Z+5, r24	; 0x05
				DIGIT[1][0] = FND_F;
    1d74:	84 83       	std	Z+4, r24	; 0x04
			}
		}
		wdt_reset();							// 워치독 리셋
    1d76:	0e 94 7e 0e 	call	0x1cfc	; 0x1cfc <wdt_reset>
}

//=================================================================================================
void Auto_Set(void)								// 자동모드,수동모드 설정
{
	while(SET.Menu && SET.Select)						// 메뉴가 1 이면 반복
    1d7a:	80 91 10 51 	lds	r24, 0x5110	; 0x805110 <SET>
    1d7e:	88 23       	and	r24, r24
    1d80:	21 f0       	breq	.+8      	; 0x1d8a <Auto_Set+0x8a>
    1d82:	80 91 11 51 	lds	r24, 0x5111	; 0x805111 <SET+0x1>
    1d86:	81 11       	cpse	r24, r1
    1d88:	bc cf       	rjmp	.-136    	; 0x1d02 <Auto_Set+0x2>
				DIGIT[1][0] = FND_F;
			}
		}
		wdt_reset();							// 워치독 리셋
	}
	ee_write_byte(Cell_AUTO_Addr, Auto_Mode);				// 자동모드 설정값을 EEPROM 에 저장
    1d8a:	60 91 89 51 	lds	r22, 0x5189	; 0x805189 <Auto_Mode>
    1d8e:	87 e0       	ldi	r24, 0x07	; 7
    1d90:	90 e0       	ldi	r25, 0x00	; 0
    1d92:	0e 94 1b 13 	call	0x2636	; 0x2636 <ee_write_byte>
    1d96:	08 95       	ret

00001d98 <Seting_Mode_0>:
}

//=================================================================================================
void Seting_Mode_0(void)							// 셋팅모드 0
{
    1d98:	cf 93       	push	r28
	uint8_t Count = 1;							// Count 변수 초기화
	SET.Select = 0;								// Select 버튼 초기화
    1d9a:	10 92 11 51 	sts	0x5111, r1	; 0x805111 <SET+0x1>

	FND_Value_Data(0, 2, 12);						// FND 0 ~ 2 FND_OFF
    1d9e:	4c e0       	ldi	r20, 0x0C	; 12
    1da0:	62 e0       	ldi	r22, 0x02	; 2
    1da2:	80 e0       	ldi	r24, 0x00	; 0
    1da4:	0e 94 d2 05 	call	0xba4	; 0xba4 <FND_Value_Data>
}

//=================================================================================================
void Seting_Mode_0(void)							// 셋팅모드 0
{
	uint8_t Count = 1;							// Count 변수 초기화
    1da8:	c1 e0       	ldi	r28, 0x01	; 1
	SET.Select = 0;								// Select 버튼 초기화

	FND_Value_Data(0, 2, 12);						// FND 0 ~ 2 FND_OFF

	while(SET.Menu)								// Seting_Mode 이면 무한 반복
    1daa:	a3 c0       	rjmp	.+326    	; 0x1ef2 <Seting_Mode_0+0x15a>
	{
		if(KEY.Buff)							// Key 입력이 있으면
    1dac:	80 91 50 51 	lds	r24, 0x5150	; 0x805150 <KEY+0x1>
    1db0:	88 23       	and	r24, r24
    1db2:	99 f0       	breq	.+38     	; 0x1dda <Seting_Mode_0+0x42>
		{
			if     (KEY.Key == 1 && Count < 6) {Count++; KEY.Key = 0;}	// 업  버튼 이면 Count 증가
    1db4:	80 91 51 51 	lds	r24, 0x5151	; 0x805151 <KEY+0x2>
    1db8:	81 30       	cpi	r24, 0x01	; 1
    1dba:	31 f4       	brne	.+12     	; 0x1dc8 <Seting_Mode_0+0x30>
    1dbc:	c6 30       	cpi	r28, 0x06	; 6
    1dbe:	20 f4       	brcc	.+8      	; 0x1dc8 <Seting_Mode_0+0x30>
    1dc0:	cf 5f       	subi	r28, 0xFF	; 255
    1dc2:	10 92 51 51 	sts	0x5151, r1	; 0x805151 <KEY+0x2>
    1dc6:	09 c0       	rjmp	.+18     	; 0x1dda <Seting_Mode_0+0x42>
			else if(KEY.Key == 3 && Count > 0) {Count--; KEY.Key = 0;}	// 다운버튼 이면 Count 감소
    1dc8:	80 91 51 51 	lds	r24, 0x5151	; 0x805151 <KEY+0x2>
    1dcc:	83 30       	cpi	r24, 0x03	; 3
    1dce:	29 f4       	brne	.+10     	; 0x1dda <Seting_Mode_0+0x42>
    1dd0:	cc 23       	and	r28, r28
    1dd2:	19 f0       	breq	.+6      	; 0x1dda <Seting_Mode_0+0x42>
    1dd4:	c1 50       	subi	r28, 0x01	; 1
    1dd6:	10 92 51 51 	sts	0x5151, r1	; 0x805151 <KEY+0x2>
		}
		DIGIT[2][3] = FND_OFF;
    1dda:	e9 e7       	ldi	r30, 0x79	; 121
    1ddc:	f1 e4       	ldi	r31, 0x41	; 65
    1dde:	13 86       	std	Z+11, r1	; 0x0b
		DIGIT[2][2] = FND_OFF;
    1de0:	12 86       	std	Z+10, r1	; 0x0a
		DIGIT[2][1] = FND_OFF;
    1de2:	11 86       	std	Z+9, r1	; 0x09
		DIGIT[2][0] = fnd_tbl[Count];					// FND 2.0 에 Count 표시
    1de4:	ac 2f       	mov	r26, r28
    1de6:	b0 e0       	ldi	r27, 0x00	; 0
    1de8:	ad 5b       	subi	r26, 0xBD	; 189
    1dea:	be 4b       	sbci	r27, 0xBE	; 190
    1dec:	8c 91       	ld	r24, X
    1dee:	80 87       	std	Z+8, r24	; 0x08
//-------------------------------------------------------------------------------------------------
		switch(Count)							// Count
    1df0:	8c 2f       	mov	r24, r28
    1df2:	90 e0       	ldi	r25, 0x00	; 0
    1df4:	87 30       	cpi	r24, 0x07	; 7
    1df6:	91 05       	cpc	r25, r1
    1df8:	08 f0       	brcs	.+2      	; 0x1dfc <Seting_Mode_0+0x64>
    1dfa:	79 c0       	rjmp	.+242    	; 0x1eee <Seting_Mode_0+0x156>
    1dfc:	fc 01       	movw	r30, r24
    1dfe:	e0 58       	subi	r30, 0x80	; 128
    1e00:	fc 4f       	sbci	r31, 0xFC	; 252
    1e02:	0c 94 d1 3b 	jmp	0x77a2	; 0x77a2 <__tablejump2__>
			case 0:							// Count = 0 이면
				Count = 5;					// 반복을 위해 Count 를 최고로 증가 시킴
			break;

			case 1:							// Count = 1 이면
				DIGIT[0][3] = FND_a;				// cell 표시
    1e06:	e9 e7       	ldi	r30, 0x79	; 121
    1e08:	f1 e4       	ldi	r31, 0x41	; 65
    1e0a:	8a ef       	ldi	r24, 0xFA	; 250
    1e0c:	83 83       	std	Z+3, r24	; 0x03
				DIGIT[0][2] = FND_u;
    1e0e:	88 e3       	ldi	r24, 0x38	; 56
    1e10:	82 83       	std	Z+2, r24	; 0x02
				DIGIT[0][1] = FND_t;
    1e12:	8e e1       	ldi	r24, 0x1E	; 30
    1e14:	81 83       	std	Z+1, r24	; 0x01
				DIGIT[0][0] = FND_o;
    1e16:	9a e3       	ldi	r25, 0x3A	; 58
    1e18:	90 83       	st	Z, r25

				DIGIT[1][3] = FND_OFF;				// Set 표시
    1e1a:	17 82       	std	Z+7, r1	; 0x07
				DIGIT[1][2] = FND_S;
    1e1c:	96 eb       	ldi	r25, 0xB6	; 182
    1e1e:	96 83       	std	Z+6, r25	; 0x06
				DIGIT[1][1] = FND_e;
    1e20:	9e ed       	ldi	r25, 0xDE	; 222
    1e22:	95 83       	std	Z+5, r25	; 0x05
				DIGIT[1][0] = FND_t;
    1e24:	84 83       	std	Z+4, r24	; 0x04

				if(SET.Select) {Auto_Set();}			// 자동모드,수동모드 설정
    1e26:	80 91 11 51 	lds	r24, 0x5111	; 0x805111 <SET+0x1>
    1e2a:	88 23       	and	r24, r24
    1e2c:	09 f4       	brne	.+2      	; 0x1e30 <Seting_Mode_0+0x98>
    1e2e:	5f c0       	rjmp	.+190    	; 0x1eee <Seting_Mode_0+0x156>
    1e30:	0e 94 80 0e 	call	0x1d00	; 0x1d00 <Auto_Set>
    1e34:	5c c0       	rjmp	.+184    	; 0x1eee <Seting_Mode_0+0x156>
			break;

			case 2:							// Count = 2 이면
				DIGIT[0][3] = FND_c;				// cell 표시
    1e36:	e9 e7       	ldi	r30, 0x79	; 121
    1e38:	f1 e4       	ldi	r31, 0x41	; 65
    1e3a:	8a e1       	ldi	r24, 0x1A	; 26
    1e3c:	83 83       	std	Z+3, r24	; 0x03
				DIGIT[0][2] = FND_e;
    1e3e:	8e ed       	ldi	r24, 0xDE	; 222
    1e40:	82 83       	std	Z+2, r24	; 0x02
				DIGIT[0][1] = FND_l;
    1e42:	90 e6       	ldi	r25, 0x60	; 96
    1e44:	91 83       	std	Z+1, r25	; 0x01
				DIGIT[0][0] = FND_l;
    1e46:	90 83       	st	Z, r25

				DIGIT[1][3] = FND_OFF;				// Set 표시
    1e48:	17 82       	std	Z+7, r1	; 0x07
				DIGIT[1][2] = FND_S;
    1e4a:	96 eb       	ldi	r25, 0xB6	; 182
    1e4c:	96 83       	std	Z+6, r25	; 0x06
				DIGIT[1][1] = FND_e;
    1e4e:	85 83       	std	Z+5, r24	; 0x05
				DIGIT[1][0] = FND_t;
    1e50:	8e e1       	ldi	r24, 0x1E	; 30
    1e52:	84 83       	std	Z+4, r24	; 0x04

				if(SET.Select) {Loadcell_Set();}		// 로드셀 설정 모드
    1e54:	80 91 11 51 	lds	r24, 0x5111	; 0x805111 <SET+0x1>
    1e58:	88 23       	and	r24, r24
    1e5a:	09 f4       	brne	.+2      	; 0x1e5e <Seting_Mode_0+0xc6>
    1e5c:	48 c0       	rjmp	.+144    	; 0x1eee <Seting_Mode_0+0x156>
    1e5e:	0e 94 a3 26 	call	0x4d46	; 0x4d46 <Loadcell_Set>
    1e62:	45 c0       	rjmp	.+138    	; 0x1eee <Seting_Mode_0+0x156>
			break;

			case 3:							// Count = 3 이면
				DIGIT[0][3] = FND_OFF;				// gat 표시
    1e64:	e9 e7       	ldi	r30, 0x79	; 121
    1e66:	f1 e4       	ldi	r31, 0x41	; 65
    1e68:	13 82       	std	Z+3, r1	; 0x03
				DIGIT[0][2] = FND_g;
    1e6a:	86 ef       	ldi	r24, 0xF6	; 246
    1e6c:	82 83       	std	Z+2, r24	; 0x02
				DIGIT[0][1] = FND_a;
    1e6e:	8a ef       	ldi	r24, 0xFA	; 250
    1e70:	81 83       	std	Z+1, r24	; 0x01
				DIGIT[0][0] = FND_t;
    1e72:	8e e1       	ldi	r24, 0x1E	; 30
    1e74:	80 83       	st	Z, r24

				DIGIT[1][3] = FND_OFF;				// Set 표시
    1e76:	17 82       	std	Z+7, r1	; 0x07
				DIGIT[1][2] = FND_S;
    1e78:	96 eb       	ldi	r25, 0xB6	; 182
    1e7a:	96 83       	std	Z+6, r25	; 0x06
				DIGIT[1][1] = FND_e;
    1e7c:	9e ed       	ldi	r25, 0xDE	; 222
    1e7e:	95 83       	std	Z+5, r25	; 0x05
				DIGIT[1][0] = FND_t;
    1e80:	84 83       	std	Z+4, r24	; 0x04

				if(SET.Select) {Gateway_Set();}			// 게이트 웨이 설정
    1e82:	80 91 11 51 	lds	r24, 0x5111	; 0x805111 <SET+0x1>
    1e86:	88 23       	and	r24, r24
    1e88:	91 f1       	breq	.+100    	; 0x1eee <Seting_Mode_0+0x156>
    1e8a:	0e 94 31 14 	call	0x2862	; 0x2862 <Gateway_Set>
    1e8e:	2f c0       	rjmp	.+94     	; 0x1eee <Seting_Mode_0+0x156>
			break;

			case 4:							// Count = 4 이면
				DIGIT[0][3] = FND_OFF;				// Zbe 표시
    1e90:	e9 e7       	ldi	r30, 0x79	; 121
    1e92:	f1 e4       	ldi	r31, 0x41	; 65
    1e94:	13 82       	std	Z+3, r1	; 0x03
				DIGIT[0][2] = FND_Z;
    1e96:	8a ed       	ldi	r24, 0xDA	; 218
    1e98:	82 83       	std	Z+2, r24	; 0x02
				DIGIT[0][1] = FND_b;
    1e9a:	8e e3       	ldi	r24, 0x3E	; 62
    1e9c:	81 83       	std	Z+1, r24	; 0x01
				DIGIT[0][0] = FND_e;
    1e9e:	8e ed       	ldi	r24, 0xDE	; 222
    1ea0:	80 83       	st	Z, r24

				DIGIT[1][3] = FND_OFF;				// Set 표시
    1ea2:	17 82       	std	Z+7, r1	; 0x07
				DIGIT[1][2] = FND_S;
    1ea4:	96 eb       	ldi	r25, 0xB6	; 182
    1ea6:	96 83       	std	Z+6, r25	; 0x06
				DIGIT[1][1] = FND_e;
    1ea8:	85 83       	std	Z+5, r24	; 0x05
				DIGIT[1][0] = FND_t;
    1eaa:	8e e1       	ldi	r24, 0x1E	; 30
    1eac:	84 83       	std	Z+4, r24	; 0x04

				if(SET.Select) {ZigBee_Set();}			// 지그비 설정 모드
    1eae:	80 91 11 51 	lds	r24, 0x5111	; 0x805111 <SET+0x1>
    1eb2:	88 23       	and	r24, r24
    1eb4:	e1 f0       	breq	.+56     	; 0x1eee <Seting_Mode_0+0x156>
    1eb6:	0e 94 fd 33 	call	0x67fa	; 0x67fa <ZigBee_Set>
    1eba:	19 c0       	rjmp	.+50     	; 0x1eee <Seting_Mode_0+0x156>
			break;

			case 5:							// Count = 5 이면
				DIGIT[0][3] = FND_OFF;				// rtc 표시
    1ebc:	e9 e7       	ldi	r30, 0x79	; 121
    1ebe:	f1 e4       	ldi	r31, 0x41	; 65
    1ec0:	13 82       	std	Z+3, r1	; 0x03
				DIGIT[0][2] = FND_r;
    1ec2:	8a e0       	ldi	r24, 0x0A	; 10
    1ec4:	82 83       	std	Z+2, r24	; 0x02
				DIGIT[0][1] = FND_t;
    1ec6:	8e e1       	ldi	r24, 0x1E	; 30
    1ec8:	81 83       	std	Z+1, r24	; 0x01
				DIGIT[0][0] = FND_c;
    1eca:	9a e1       	ldi	r25, 0x1A	; 26
    1ecc:	90 83       	st	Z, r25

				DIGIT[1][3] = FND_OFF;				// Set 표시
    1ece:	17 82       	std	Z+7, r1	; 0x07
				DIGIT[1][2] = FND_S;
    1ed0:	96 eb       	ldi	r25, 0xB6	; 182
    1ed2:	96 83       	std	Z+6, r25	; 0x06
				DIGIT[1][1] = FND_e;
    1ed4:	9e ed       	ldi	r25, 0xDE	; 222
    1ed6:	95 83       	std	Z+5, r25	; 0x05
				DIGIT[1][0] = FND_t;
    1ed8:	84 83       	std	Z+4, r24	; 0x04

				if(SET.Select) {RTC_Set();}			// RTC 설정 모드
    1eda:	80 91 11 51 	lds	r24, 0x5111	; 0x805111 <SET+0x1>
    1ede:	88 23       	and	r24, r24
    1ee0:	31 f0       	breq	.+12     	; 0x1eee <Seting_Mode_0+0x156>
    1ee2:	0e 94 09 2a 	call	0x5412	; 0x5412 <RTC_Set>
    1ee6:	03 c0       	rjmp	.+6      	; 0x1eee <Seting_Mode_0+0x156>
			break;

			case 6:							// Count = 6 이면
				Count = 1;					// 반복을 위해 Count 를 최저로 감소 시킴
    1ee8:	c1 e0       	ldi	r28, 0x01	; 1
			break;
    1eea:	01 c0       	rjmp	.+2      	; 0x1eee <Seting_Mode_0+0x156>
		DIGIT[2][0] = fnd_tbl[Count];					// FND 2.0 에 Count 표시
//-------------------------------------------------------------------------------------------------
		switch(Count)							// Count
		{
			case 0:							// Count = 0 이면
				Count = 5;					// 반복을 위해 Count 를 최고로 증가 시킴
    1eec:	c5 e0       	ldi	r28, 0x05	; 5

			case 6:							// Count = 6 이면
				Count = 1;					// 반복을 위해 Count 를 최저로 감소 시킴
			break;
		}
		wdt_reset();							// 워치독 리셋
    1eee:	0e 94 7e 0e 	call	0x1cfc	; 0x1cfc <wdt_reset>
	uint8_t Count = 1;							// Count 변수 초기화
	SET.Select = 0;								// Select 버튼 초기화

	FND_Value_Data(0, 2, 12);						// FND 0 ~ 2 FND_OFF

	while(SET.Menu)								// Seting_Mode 이면 무한 반복
    1ef2:	80 91 10 51 	lds	r24, 0x5110	; 0x805110 <SET>
    1ef6:	81 11       	cpse	r24, r1
    1ef8:	59 cf       	rjmp	.-334    	; 0x1dac <Seting_Mode_0+0x14>
				Count = 1;					// 반복을 위해 Count 를 최저로 감소 시킴
			break;
		}
		wdt_reset();							// 워치독 리셋
	}
	Var_Init();								// 변수 초기화
    1efa:	0e 94 4a 0e 	call	0x1c94	; 0x1c94 <Var_Init>
}
    1efe:	cf 91       	pop	r28
    1f00:	08 95       	ret

00001f02 <Seting_Mode_1>:

//=================================================================================================
void Seting_Mode_1(void)							// 셋팅모드 1
{
    1f02:	cf 93       	push	r28
    1f04:	df 93       	push	r29
    1f06:	2f ef       	ldi	r18, 0xFF	; 255
    1f08:	8f e7       	ldi	r24, 0x7F	; 127
    1f0a:	96 e1       	ldi	r25, 0x16	; 22
    1f0c:	21 50       	subi	r18, 0x01	; 1
    1f0e:	80 40       	sbci	r24, 0x00	; 0
    1f10:	90 40       	sbci	r25, 0x00	; 0
    1f12:	e1 f7       	brne	.-8      	; 0x1f0c <Seting_Mode_1+0xa>
    1f14:	00 c0       	rjmp	.+0      	; 0x1f16 <Seting_Mode_1+0x14>
    1f16:	00 00       	nop
    1f18:	43 c1       	rjmp	.+646    	; 0x21a0 <Seting_Mode_1+0x29e>
	_delay_ms(500);								// 모드 진입 시 연속 동작 방지를 위한 딜레이

	while(SET.NumSET)							// 메뉴 와 선택 이 모두 1 이면 반복
	{
		if(SET.NumSET == 1)
    1f1a:	80 91 12 51 	lds	r24, 0x5112	; 0x805112 <SET+0x2>
    1f1e:	81 30       	cpi	r24, 0x01	; 1
    1f20:	09 f0       	breq	.+2      	; 0x1f24 <Seting_Mode_1+0x22>
    1f22:	9d c0       	rjmp	.+314    	; 0x205e <Seting_Mode_1+0x15c>
		{
			if(KEY.Buff)						// Key 입력이 있으면
    1f24:	80 91 50 51 	lds	r24, 0x5150	; 0x805150 <KEY+0x1>
    1f28:	88 23       	and	r24, r24
    1f2a:	41 f1       	breq	.+80     	; 0x1f7c <Seting_Mode_1+0x7a>
			{
				if     (KEY.Key == 1 && Room_Number < 100) {Room_Number++; KEY.Key = 0;}		// 업  버튼 이면 갯수 설정값 증가
    1f2c:	80 91 51 51 	lds	r24, 0x5151	; 0x805151 <KEY+0x2>
    1f30:	81 30       	cpi	r24, 0x01	; 1
    1f32:	51 f4       	brne	.+20     	; 0x1f48 <Seting_Mode_1+0x46>
    1f34:	80 91 7c 51 	lds	r24, 0x517C	; 0x80517c <Room_Number>
    1f38:	84 36       	cpi	r24, 0x64	; 100
    1f3a:	30 f4       	brcc	.+12     	; 0x1f48 <Seting_Mode_1+0x46>
    1f3c:	8f 5f       	subi	r24, 0xFF	; 255
    1f3e:	80 93 7c 51 	sts	0x517C, r24	; 0x80517c <Room_Number>
    1f42:	10 92 51 51 	sts	0x5151, r1	; 0x805151 <KEY+0x2>
    1f46:	1a c0       	rjmp	.+52     	; 0x1f7c <Seting_Mode_1+0x7a>
				else if(KEY.Key == 3 && Room_Number > 1)   {Room_Number--; KEY.Key = 0;}		// 다운버튼 이면 갯수 설정값 감소
    1f48:	80 91 51 51 	lds	r24, 0x5151	; 0x805151 <KEY+0x2>
    1f4c:	83 30       	cpi	r24, 0x03	; 3
    1f4e:	51 f4       	brne	.+20     	; 0x1f64 <Seting_Mode_1+0x62>
    1f50:	80 91 7c 51 	lds	r24, 0x517C	; 0x80517c <Room_Number>
    1f54:	82 30       	cpi	r24, 0x02	; 2
    1f56:	30 f0       	brcs	.+12     	; 0x1f64 <Seting_Mode_1+0x62>
    1f58:	81 50       	subi	r24, 0x01	; 1
    1f5a:	80 93 7c 51 	sts	0x517C, r24	; 0x80517c <Room_Number>
    1f5e:	10 92 51 51 	sts	0x5151, r1	; 0x805151 <KEY+0x2>
    1f62:	0c c0       	rjmp	.+24     	; 0x1f7c <Seting_Mode_1+0x7a>
				else if(KEY.Key == 2)			   {SET.NumSET++; SET.Save = 0; KEY.Key = 0;}	// 선택버튼 이면 SET.Room 초기화
    1f64:	80 91 51 51 	lds	r24, 0x5151	; 0x805151 <KEY+0x2>
    1f68:	82 30       	cpi	r24, 0x02	; 2
    1f6a:	41 f4       	brne	.+16     	; 0x1f7c <Seting_Mode_1+0x7a>
    1f6c:	e0 e1       	ldi	r30, 0x10	; 16
    1f6e:	f1 e5       	ldi	r31, 0x51	; 81
    1f70:	82 81       	ldd	r24, Z+2	; 0x02
    1f72:	8f 5f       	subi	r24, 0xFF	; 255
    1f74:	82 83       	std	Z+2, r24	; 0x02
    1f76:	14 82       	std	Z+4, r1	; 0x04
    1f78:	10 92 51 51 	sts	0x5151, r1	; 0x805151 <KEY+0x2>
			}

			if(Blink) {FND_Value_Data(1,1,12);}			// Blink = 1 이면 FND 1 OFF
    1f7c:	80 91 7b 51 	lds	r24, 0x517B	; 0x80517b <Blink>
    1f80:	88 23       	and	r24, r24
    1f82:	31 f0       	breq	.+12     	; 0x1f90 <Seting_Mode_1+0x8e>
    1f84:	4c e0       	ldi	r20, 0x0C	; 12
    1f86:	61 e0       	ldi	r22, 0x01	; 1
    1f88:	81 e0       	ldi	r24, 0x01	; 1
    1f8a:	0e 94 d2 05 	call	0xba4	; 0xba4 <FND_Value_Data>
    1f8e:	33 c0       	rjmp	.+102    	; 0x1ff6 <Seting_Mode_1+0xf4>
			else							// Blink = 0 이면 FND 1 에 방 번호 표시
			{
				DIGIT[1][3] = FND_OFF;				// FND 1 에 방 번호 표시
    1f90:	c9 e7       	ldi	r28, 0x79	; 121
    1f92:	d1 e4       	ldi	r29, 0x41	; 65
    1f94:	1f 82       	std	Y+7, r1	; 0x07
				DIGIT[1][2] = fnd_tbl[Room_Number / 100];
    1f96:	e0 91 7c 51 	lds	r30, 0x517C	; 0x80517c <Room_Number>
    1f9a:	89 e2       	ldi	r24, 0x29	; 41
    1f9c:	e8 9f       	mul	r30, r24
    1f9e:	81 2d       	mov	r24, r1
    1fa0:	11 24       	eor	r1, r1
    1fa2:	82 95       	swap	r24
    1fa4:	8f 70       	andi	r24, 0x0F	; 15
    1fa6:	a8 2f       	mov	r26, r24
    1fa8:	b0 e0       	ldi	r27, 0x00	; 0
    1faa:	ad 5b       	subi	r26, 0xBD	; 189
    1fac:	be 4b       	sbci	r27, 0xBE	; 190
    1fae:	9c 91       	ld	r25, X
    1fb0:	9e 83       	std	Y+6, r25	; 0x06
				DIGIT[1][1] = fnd_tbl[Room_Number % 100 / 10];
    1fb2:	ae 2f       	mov	r26, r30
    1fb4:	24 e6       	ldi	r18, 0x64	; 100
    1fb6:	82 9f       	mul	r24, r18
    1fb8:	a0 19       	sub	r26, r0
    1fba:	11 24       	eor	r1, r1
    1fbc:	8d ec       	ldi	r24, 0xCD	; 205
    1fbe:	a8 9f       	mul	r26, r24
    1fc0:	a1 2d       	mov	r26, r1
    1fc2:	11 24       	eor	r1, r1
    1fc4:	a6 95       	lsr	r26
    1fc6:	a6 95       	lsr	r26
    1fc8:	a6 95       	lsr	r26
    1fca:	b0 e0       	ldi	r27, 0x00	; 0
    1fcc:	ad 5b       	subi	r26, 0xBD	; 189
    1fce:	be 4b       	sbci	r27, 0xBE	; 190
    1fd0:	9c 91       	ld	r25, X
    1fd2:	9d 83       	std	Y+5, r25	; 0x05
				DIGIT[1][0] = fnd_tbl[Room_Number % 10];
    1fd4:	e8 9f       	mul	r30, r24
    1fd6:	81 2d       	mov	r24, r1
    1fd8:	11 24       	eor	r1, r1
    1fda:	86 95       	lsr	r24
    1fdc:	86 95       	lsr	r24
    1fde:	86 95       	lsr	r24
    1fe0:	88 0f       	add	r24, r24
    1fe2:	98 2f       	mov	r25, r24
    1fe4:	99 0f       	add	r25, r25
    1fe6:	99 0f       	add	r25, r25
    1fe8:	89 0f       	add	r24, r25
    1fea:	e8 1b       	sub	r30, r24
    1fec:	f0 e0       	ldi	r31, 0x00	; 0
    1fee:	ed 5b       	subi	r30, 0xBD	; 189
    1ff0:	fe 4b       	sbci	r31, 0xBE	; 190
    1ff2:	80 81       	ld	r24, Z
    1ff4:	8c 83       	std	Y+4, r24	; 0x04
			}
			DIGIT[2][3] = FND_OFF;					// FND 2 에 스톨 번호 표시
    1ff6:	c9 e7       	ldi	r28, 0x79	; 121
    1ff8:	d1 e4       	ldi	r29, 0x41	; 65
    1ffa:	1b 86       	std	Y+11, r1	; 0x0b
			DIGIT[2][2] = fnd_tbl[Stal_Number / 100];
    1ffc:	e0 91 55 51 	lds	r30, 0x5155	; 0x805155 <Stal_Number>
    2000:	89 e2       	ldi	r24, 0x29	; 41
    2002:	e8 9f       	mul	r30, r24
    2004:	81 2d       	mov	r24, r1
    2006:	11 24       	eor	r1, r1
    2008:	82 95       	swap	r24
    200a:	8f 70       	andi	r24, 0x0F	; 15
    200c:	a8 2f       	mov	r26, r24
    200e:	b0 e0       	ldi	r27, 0x00	; 0
    2010:	ad 5b       	subi	r26, 0xBD	; 189
    2012:	be 4b       	sbci	r27, 0xBE	; 190
    2014:	9c 91       	ld	r25, X
    2016:	9a 87       	std	Y+10, r25	; 0x0a
			DIGIT[2][1] = fnd_tbl[Stal_Number % 100 / 10];
    2018:	ae 2f       	mov	r26, r30
    201a:	94 e6       	ldi	r25, 0x64	; 100
    201c:	89 9f       	mul	r24, r25
    201e:	a0 19       	sub	r26, r0
    2020:	11 24       	eor	r1, r1
    2022:	8d ec       	ldi	r24, 0xCD	; 205
    2024:	a8 9f       	mul	r26, r24
    2026:	a1 2d       	mov	r26, r1
    2028:	11 24       	eor	r1, r1
    202a:	a6 95       	lsr	r26
    202c:	a6 95       	lsr	r26
    202e:	a6 95       	lsr	r26
    2030:	b0 e0       	ldi	r27, 0x00	; 0
    2032:	ad 5b       	subi	r26, 0xBD	; 189
    2034:	be 4b       	sbci	r27, 0xBE	; 190
    2036:	9c 91       	ld	r25, X
    2038:	99 87       	std	Y+9, r25	; 0x09
			DIGIT[2][0] = fnd_tbl[Stal_Number % 10];
    203a:	e8 9f       	mul	r30, r24
    203c:	81 2d       	mov	r24, r1
    203e:	11 24       	eor	r1, r1
    2040:	86 95       	lsr	r24
    2042:	86 95       	lsr	r24
    2044:	86 95       	lsr	r24
    2046:	88 0f       	add	r24, r24
    2048:	98 2f       	mov	r25, r24
    204a:	99 0f       	add	r25, r25
    204c:	99 0f       	add	r25, r25
    204e:	89 0f       	add	r24, r25
    2050:	e8 1b       	sub	r30, r24
    2052:	f0 e0       	ldi	r31, 0x00	; 0
    2054:	ed 5b       	subi	r30, 0xBD	; 189
    2056:	fe 4b       	sbci	r31, 0xBE	; 190
    2058:	80 81       	ld	r24, Z
    205a:	88 87       	std	Y+8, r24	; 0x08
    205c:	9f c0       	rjmp	.+318    	; 0x219c <Seting_Mode_1+0x29a>
		}
		else if(SET.NumSET == 2)
    205e:	80 91 12 51 	lds	r24, 0x5112	; 0x805112 <SET+0x2>
    2062:	82 30       	cpi	r24, 0x02	; 2
    2064:	09 f0       	breq	.+2      	; 0x2068 <Seting_Mode_1+0x166>
    2066:	9a c0       	rjmp	.+308    	; 0x219c <Seting_Mode_1+0x29a>
		{
			if(KEY.Buff)						// Key 입력이 있으면
    2068:	80 91 50 51 	lds	r24, 0x5150	; 0x805150 <KEY+0x1>
    206c:	88 23       	and	r24, r24
    206e:	31 f1       	breq	.+76     	; 0x20bc <Seting_Mode_1+0x1ba>
			{
				if     (KEY.Key == 1 && Stal_Number < 100) {Stal_Number++; KEY.Key = 0;}		// 업  버튼 이면 갯수 설정값 증가
    2070:	80 91 51 51 	lds	r24, 0x5151	; 0x805151 <KEY+0x2>
    2074:	81 30       	cpi	r24, 0x01	; 1
    2076:	51 f4       	brne	.+20     	; 0x208c <Seting_Mode_1+0x18a>
    2078:	80 91 55 51 	lds	r24, 0x5155	; 0x805155 <Stal_Number>
    207c:	84 36       	cpi	r24, 0x64	; 100
    207e:	30 f4       	brcc	.+12     	; 0x208c <Seting_Mode_1+0x18a>
    2080:	8f 5f       	subi	r24, 0xFF	; 255
    2082:	80 93 55 51 	sts	0x5155, r24	; 0x805155 <Stal_Number>
    2086:	10 92 51 51 	sts	0x5151, r1	; 0x805151 <KEY+0x2>
    208a:	18 c0       	rjmp	.+48     	; 0x20bc <Seting_Mode_1+0x1ba>
				else if(KEY.Key == 3 && Stal_Number > 1)   {Stal_Number--; KEY.Key = 0;}		// 다운버튼 이면 갯수 설정값 감소
    208c:	80 91 51 51 	lds	r24, 0x5151	; 0x805151 <KEY+0x2>
    2090:	83 30       	cpi	r24, 0x03	; 3
    2092:	51 f4       	brne	.+20     	; 0x20a8 <Seting_Mode_1+0x1a6>
    2094:	80 91 55 51 	lds	r24, 0x5155	; 0x805155 <Stal_Number>
    2098:	82 30       	cpi	r24, 0x02	; 2
    209a:	30 f0       	brcs	.+12     	; 0x20a8 <Seting_Mode_1+0x1a6>
    209c:	81 50       	subi	r24, 0x01	; 1
    209e:	80 93 55 51 	sts	0x5155, r24	; 0x805155 <Stal_Number>
    20a2:	10 92 51 51 	sts	0x5151, r1	; 0x805151 <KEY+0x2>
    20a6:	0a c0       	rjmp	.+20     	; 0x20bc <Seting_Mode_1+0x1ba>
				else if(KEY.Key == 2)			   {SET.NumSET = 0; SET.Save = 0; KEY.Key = 0;}	// 선택버튼 이면 SET.Room 초기화
    20a8:	80 91 51 51 	lds	r24, 0x5151	; 0x805151 <KEY+0x2>
    20ac:	82 30       	cpi	r24, 0x02	; 2
    20ae:	31 f4       	brne	.+12     	; 0x20bc <Seting_Mode_1+0x1ba>
    20b0:	e0 e1       	ldi	r30, 0x10	; 16
    20b2:	f1 e5       	ldi	r31, 0x51	; 81
    20b4:	12 82       	std	Z+2, r1	; 0x02
    20b6:	14 82       	std	Z+4, r1	; 0x04
    20b8:	10 92 51 51 	sts	0x5151, r1	; 0x805151 <KEY+0x2>
			}

			if(Blink) {FND_Value_Data(2,2,12);}			// Blink = 1 이면 FND 2 OFF
    20bc:	80 91 7b 51 	lds	r24, 0x517B	; 0x80517b <Blink>
    20c0:	88 23       	and	r24, r24
    20c2:	31 f0       	breq	.+12     	; 0x20d0 <Seting_Mode_1+0x1ce>
    20c4:	4c e0       	ldi	r20, 0x0C	; 12
    20c6:	62 e0       	ldi	r22, 0x02	; 2
    20c8:	82 e0       	ldi	r24, 0x02	; 2
    20ca:	0e 94 d2 05 	call	0xba4	; 0xba4 <FND_Value_Data>
    20ce:	33 c0       	rjmp	.+102    	; 0x2136 <Seting_Mode_1+0x234>
			else							// Blink = 0 이면 FND 2에 스톨 번호 표시
			{
				DIGIT[2][3] = FND_OFF;				// FND 2 에 스톨 번호 표시
    20d0:	c9 e7       	ldi	r28, 0x79	; 121
    20d2:	d1 e4       	ldi	r29, 0x41	; 65
    20d4:	1b 86       	std	Y+11, r1	; 0x0b
				DIGIT[2][2] = fnd_tbl[Stal_Number / 100];
    20d6:	e0 91 55 51 	lds	r30, 0x5155	; 0x805155 <Stal_Number>
    20da:	89 e2       	ldi	r24, 0x29	; 41
    20dc:	e8 9f       	mul	r30, r24
    20de:	81 2d       	mov	r24, r1
    20e0:	11 24       	eor	r1, r1
    20e2:	82 95       	swap	r24
    20e4:	8f 70       	andi	r24, 0x0F	; 15
    20e6:	a8 2f       	mov	r26, r24
    20e8:	b0 e0       	ldi	r27, 0x00	; 0
    20ea:	ad 5b       	subi	r26, 0xBD	; 189
    20ec:	be 4b       	sbci	r27, 0xBE	; 190
    20ee:	9c 91       	ld	r25, X
    20f0:	9a 87       	std	Y+10, r25	; 0x0a
				DIGIT[2][1] = fnd_tbl[Stal_Number % 100 / 10];
    20f2:	ae 2f       	mov	r26, r30
    20f4:	24 e6       	ldi	r18, 0x64	; 100
    20f6:	82 9f       	mul	r24, r18
    20f8:	a0 19       	sub	r26, r0
    20fa:	11 24       	eor	r1, r1
    20fc:	8d ec       	ldi	r24, 0xCD	; 205
    20fe:	a8 9f       	mul	r26, r24
    2100:	a1 2d       	mov	r26, r1
    2102:	11 24       	eor	r1, r1
    2104:	a6 95       	lsr	r26
    2106:	a6 95       	lsr	r26
    2108:	a6 95       	lsr	r26
    210a:	b0 e0       	ldi	r27, 0x00	; 0
    210c:	ad 5b       	subi	r26, 0xBD	; 189
    210e:	be 4b       	sbci	r27, 0xBE	; 190
    2110:	9c 91       	ld	r25, X
    2112:	99 87       	std	Y+9, r25	; 0x09
				DIGIT[2][0] = fnd_tbl[Stal_Number % 10];
    2114:	e8 9f       	mul	r30, r24
    2116:	81 2d       	mov	r24, r1
    2118:	11 24       	eor	r1, r1
    211a:	86 95       	lsr	r24
    211c:	86 95       	lsr	r24
    211e:	86 95       	lsr	r24
    2120:	88 0f       	add	r24, r24
    2122:	98 2f       	mov	r25, r24
    2124:	99 0f       	add	r25, r25
    2126:	99 0f       	add	r25, r25
    2128:	89 0f       	add	r24, r25
    212a:	e8 1b       	sub	r30, r24
    212c:	f0 e0       	ldi	r31, 0x00	; 0
    212e:	ed 5b       	subi	r30, 0xBD	; 189
    2130:	fe 4b       	sbci	r31, 0xBE	; 190
    2132:	80 81       	ld	r24, Z
    2134:	88 87       	std	Y+8, r24	; 0x08
			}
			DIGIT[1][3] = FND_OFF;					// FND 1 에 방 번호 표시
    2136:	c9 e7       	ldi	r28, 0x79	; 121
    2138:	d1 e4       	ldi	r29, 0x41	; 65
    213a:	1f 82       	std	Y+7, r1	; 0x07
			DIGIT[1][2] = fnd_tbl[Room_Number / 100];
    213c:	e0 91 7c 51 	lds	r30, 0x517C	; 0x80517c <Room_Number>
    2140:	89 e2       	ldi	r24, 0x29	; 41
    2142:	e8 9f       	mul	r30, r24
    2144:	81 2d       	mov	r24, r1
    2146:	11 24       	eor	r1, r1
    2148:	82 95       	swap	r24
    214a:	8f 70       	andi	r24, 0x0F	; 15
    214c:	a8 2f       	mov	r26, r24
    214e:	b0 e0       	ldi	r27, 0x00	; 0
    2150:	ad 5b       	subi	r26, 0xBD	; 189
    2152:	be 4b       	sbci	r27, 0xBE	; 190
    2154:	9c 91       	ld	r25, X
    2156:	9e 83       	std	Y+6, r25	; 0x06
			DIGIT[1][1] = fnd_tbl[Room_Number % 100 / 10];
    2158:	ae 2f       	mov	r26, r30
    215a:	94 e6       	ldi	r25, 0x64	; 100
    215c:	89 9f       	mul	r24, r25
    215e:	a0 19       	sub	r26, r0
    2160:	11 24       	eor	r1, r1
    2162:	8d ec       	ldi	r24, 0xCD	; 205
    2164:	a8 9f       	mul	r26, r24
    2166:	a1 2d       	mov	r26, r1
    2168:	11 24       	eor	r1, r1
    216a:	a6 95       	lsr	r26
    216c:	a6 95       	lsr	r26
    216e:	a6 95       	lsr	r26
    2170:	b0 e0       	ldi	r27, 0x00	; 0
    2172:	ad 5b       	subi	r26, 0xBD	; 189
    2174:	be 4b       	sbci	r27, 0xBE	; 190
    2176:	9c 91       	ld	r25, X
    2178:	9d 83       	std	Y+5, r25	; 0x05
			DIGIT[1][0] = fnd_tbl[Room_Number % 10];
    217a:	e8 9f       	mul	r30, r24
    217c:	81 2d       	mov	r24, r1
    217e:	11 24       	eor	r1, r1
    2180:	86 95       	lsr	r24
    2182:	86 95       	lsr	r24
    2184:	86 95       	lsr	r24
    2186:	88 0f       	add	r24, r24
    2188:	98 2f       	mov	r25, r24
    218a:	99 0f       	add	r25, r25
    218c:	99 0f       	add	r25, r25
    218e:	89 0f       	add	r24, r25
    2190:	e8 1b       	sub	r30, r24
    2192:	f0 e0       	ldi	r31, 0x00	; 0
    2194:	ed 5b       	subi	r30, 0xBD	; 189
    2196:	fe 4b       	sbci	r31, 0xBE	; 190
    2198:	80 81       	ld	r24, Z
    219a:	8c 83       	std	Y+4, r24	; 0x04
		}
		wdt_reset();							// 워치독 리셋
    219c:	0e 94 7e 0e 	call	0x1cfc	; 0x1cfc <wdt_reset>
//=================================================================================================
void Seting_Mode_1(void)							// 셋팅모드 1
{
	_delay_ms(500);								// 모드 진입 시 연속 동작 방지를 위한 딜레이

	while(SET.NumSET)							// 메뉴 와 선택 이 모두 1 이면 반복
    21a0:	80 91 12 51 	lds	r24, 0x5112	; 0x805112 <SET+0x2>
    21a4:	81 11       	cpse	r24, r1
    21a6:	b9 ce       	rjmp	.-654    	; 0x1f1a <Seting_Mode_1+0x18>
			DIGIT[1][1] = fnd_tbl[Room_Number % 100 / 10];
			DIGIT[1][0] = fnd_tbl[Room_Number % 10];
		}
		wdt_reset();							// 워치독 리셋
	}
	SET.NumSET = 0;
    21a8:	10 92 12 51 	sts	0x5112, r1	; 0x805112 <SET+0x2>
	ee_write_byte(Cell_ROOM_Addr, Room_Number);
    21ac:	60 91 7c 51 	lds	r22, 0x517C	; 0x80517c <Room_Number>
    21b0:	85 e0       	ldi	r24, 0x05	; 5
    21b2:	90 e0       	ldi	r25, 0x00	; 0
    21b4:	0e 94 1b 13 	call	0x2636	; 0x2636 <ee_write_byte>
	ee_write_byte(Cell_STAL_Addr, Stal_Number);
    21b8:	60 91 55 51 	lds	r22, 0x5155	; 0x805155 <Stal_Number>
    21bc:	86 e0       	ldi	r24, 0x06	; 6
    21be:	90 e0       	ldi	r25, 0x00	; 0
    21c0:	0e 94 1b 13 	call	0x2636	; 0x2636 <ee_write_byte>
	Alarm();
    21c4:	0e 94 ff 07 	call	0xffe	; 0xffe <Alarm>
}
    21c8:	df 91       	pop	r29
    21ca:	cf 91       	pop	r28
    21cc:	08 95       	ret

000021ce <main>:
}

//=================================================================================================
int main(void)
{
	atmel_start_init();
    21ce:	0e 94 3f 04 	call	0x87e	; 0x87e <atmel_start_init>
	MCU_Init();								// MCU Port 초기화
    21d2:	0e 94 26 05 	call	0xa4c	; 0xa4c <MCU_Init>
//-------------------------------------------------------------------------------------------------
#ifdef USART_SET								// USART 사용설정
	fdevopen(std_putchar, NULL);						// printf 함수사용 설정
    21d6:	60 e0       	ldi	r22, 0x00	; 0
    21d8:	70 e0       	ldi	r23, 0x00	; 0
    21da:	82 e1       	ldi	r24, 0x12	; 18
    21dc:	95 e0       	ldi	r25, 0x05	; 5
    21de:	0e 94 f1 3d 	call	0x7be2	; 0x7be2 <fdevopen>
	printf_port = 1;							// Usart Port 1 사용
    21e2:	81 e0       	ldi	r24, 0x01	; 1
    21e4:	80 93 4e 51 	sts	0x514E, r24	; 0x80514e <printf_port>
    21e8:	2f ef       	ldi	r18, 0xFF	; 255
    21ea:	8f e3       	ldi	r24, 0x3F	; 63
    21ec:	92 e0       	ldi	r25, 0x02	; 2
    21ee:	21 50       	subi	r18, 0x01	; 1
    21f0:	80 40       	sbci	r24, 0x00	; 0
    21f2:	90 40       	sbci	r25, 0x00	; 0
    21f4:	e1 f7       	brne	.-8      	; 0x21ee <main+0x20>
    21f6:	00 c0       	rjmp	.+0      	; 0x21f8 <main+0x2a>
    21f8:	00 00       	nop
	_delay_ms(50);								// 통신 Port 안정화 Time

	printf("\r\n");
    21fa:	83 e0       	ldi	r24, 0x03	; 3
    21fc:	91 e4       	ldi	r25, 0x41	; 65
    21fe:	0e 94 8c 3e 	call	0x7d18	; 0x7d18 <puts>
	printf("//=================================================//\r\n");
    2202:	8d e5       	ldi	r24, 0x5D	; 93
    2204:	90 e4       	ldi	r25, 0x40	; 64
    2206:	0e 94 8c 3e 	call	0x7d18	; 0x7d18 <puts>
	printf("//===  Product Name : Pig Scales 2 V%d.%d(SC-500) ===//\r\n",FW_VER / 10, FW_VER % 10);	// ProductName
    220a:	1f 92       	push	r1
    220c:	84 e0       	ldi	r24, 0x04	; 4
    220e:	8f 93       	push	r24
    2210:	1f 92       	push	r1
    2212:	8f 93       	push	r24
    2214:	84 e9       	ldi	r24, 0x94	; 148
    2216:	90 e4       	ldi	r25, 0x40	; 64
    2218:	9f 93       	push	r25
    221a:	8f 93       	push	r24
    221c:	0e 94 78 3e 	call	0x7cf0	; 0x7cf0 <printf>
	printf("//===  File Content : Moving Weight Scales      ===//\r\n");				// File 내용 : 이동형 체중 측정기 
    2220:	8e ec       	ldi	r24, 0xCE	; 206
    2222:	90 e4       	ldi	r25, 0x40	; 64
    2224:	0e 94 8c 3e 	call	0x7d18	; 0x7d18 <puts>
	printf("//===  Compiled     : %s, %s     ===//\r\n", __DATE__, __TIME__);			// Compiled : 날짜, 시간 표시
    2228:	85 e0       	ldi	r24, 0x05	; 5
    222a:	91 e4       	ldi	r25, 0x41	; 65
    222c:	9f 93       	push	r25
    222e:	8f 93       	push	r24
    2230:	8e e0       	ldi	r24, 0x0E	; 14
    2232:	91 e4       	ldi	r25, 0x41	; 65
    2234:	9f 93       	push	r25
    2236:	8f 93       	push	r24
    2238:	8a e1       	ldi	r24, 0x1A	; 26
    223a:	91 e4       	ldi	r25, 0x41	; 65
    223c:	9f 93       	push	r25
    223e:	8f 93       	push	r24
    2240:	0e 94 78 3e 	call	0x7cf0	; 0x7cf0 <printf>
	printf("//=================================================//\r\n");
    2244:	8d e5       	ldi	r24, 0x5D	; 93
    2246:	90 e4       	ldi	r25, 0x40	; 64
    2248:	0e 94 8c 3e 	call	0x7d18	; 0x7d18 <puts>
	printf("\r\n");
    224c:	83 e0       	ldi	r24, 0x03	; 3
    224e:	91 e4       	ldi	r25, 0x41	; 65
    2250:	0e 94 8c 3e 	call	0x7d18	; 0x7d18 <puts>
// #ifdef PWM_SET								// PWM 사용설정
// 	PWM_0_enable();								// PWM 0 초기화 및 설정
// 	PWM_0_enable_output_ch0();
// #endif
//-------------------------------------------------------------------------------------------------
	sei();									// 전체 인터럽터 시작
    2254:	78 94       	sei
	Alarm();								// 알람(비프 3번)
    2256:	0e 94 ff 07 	call	0xffe	; 0xffe <Alarm>
	Rx_LED_OFF;								// RX LED OFF
    225a:	e4 e2       	ldi	r30, 0x24	; 36
    225c:	f4 e0       	ldi	r31, 0x04	; 4
    225e:	80 81       	ld	r24, Z
    2260:	87 7f       	andi	r24, 0xF7	; 247
    2262:	80 83       	st	Z, r24
	Tx_LED_OFF;								// TX LED OFF
    2264:	80 81       	ld	r24, Z
    2266:	8b 7f       	andi	r24, 0xFB	; 251
    2268:	80 83       	st	Z, r24
//-------------------------------------------------------------------------------------------------
	DIGIT[0][3] = FND_OFF;							// 펌웨어 버젼 표시
    226a:	e9 e7       	ldi	r30, 0x79	; 121
    226c:	f1 e4       	ldi	r31, 0x41	; 65
    226e:	13 82       	std	Z+3, r1	; 0x03
	DIGIT[0][2] = fnd_tbl[FW_VER / 10] + FND_Point;
    2270:	87 e6       	ldi	r24, 0x67	; 103
    2272:	82 83       	std	Z+2, r24	; 0x02
	DIGIT[0][1] = fnd_tbl[FW_VER % 10];
    2274:	86 e6       	ldi	r24, 0x66	; 102
    2276:	81 83       	std	Z+1, r24	; 0x01
	DIGIT[0][0] = FND_OFF;
    2278:	10 82       	st	Z, r1
    227a:	2f ef       	ldi	r18, 0xFF	; 255
    227c:	8f ef       	ldi	r24, 0xFF	; 255
    227e:	9c e2       	ldi	r25, 0x2C	; 44
    2280:	21 50       	subi	r18, 0x01	; 1
    2282:	80 40       	sbci	r24, 0x00	; 0
    2284:	90 40       	sbci	r25, 0x00	; 0
    2286:	e1 f7       	brne	.-8      	; 0x2280 <main+0xb2>
    2288:	00 c0       	rjmp	.+0      	; 0x228a <main+0xbc>
    228a:	00 00       	nop
	_delay_ms(1000);							// 1초 동안 표시
	wdt_reset();								// Reset WT
    228c:	0e 94 7e 0e 	call	0x1cfc	; 0x1cfc <wdt_reset>

	Time_Count = 5;								// 시간 표시 용 변수 설정
    2290:	85 e0       	ldi	r24, 0x05	; 5
    2292:	80 93 6f 51 	sts	0x516F, r24	; 0x80516f <Time_Count>
	Sec_Count = 0;
    2296:	10 92 0c 51 	sts	0x510C, r1	; 0x80510c <Sec_Count>
	SECOND = 0;								// 이전 시간(초)용 변수 설정
    229a:	10 92 8c 52 	sts	0x528C, r1	; 0x80528c <SECOND>
	Read_eeprom();
    229e:	0e 94 d0 06 	call	0xda0	; 0xda0 <Read_eeprom>
//-------------------------------------------------------------------------------------------------
	while(Time_Count)							// Time_Count 가 0이 아니면 반복(5초동안 시간표시)
    22a2:	8d b7       	in	r24, 0x3d	; 61
    22a4:	9e b7       	in	r25, 0x3e	; 62
    22a6:	0c 96       	adiw	r24, 0x0c	; 12
    22a8:	8d bf       	out	0x3d, r24	; 61
    22aa:	9e bf       	out	0x3e, r25	; 62
    22ac:	ae c0       	rjmp	.+348    	; 0x240a <main+0x23c>
	{
		RTC_Time_Read();						// RTC Data 읽기
    22ae:	0e 94 a0 29 	call	0x5340	; 0x5340 <RTC_Time_Read>

		DIGIT[0][3] = fnd_tbl[RTC_T.Year / 10];				// 년 표시
    22b2:	ca e3       	ldi	r28, 0x3A	; 58
    22b4:	d1 e5       	ldi	r29, 0x51	; 81
    22b6:	9e 81       	ldd	r25, Y+6	; 0x06
    22b8:	8d ec       	ldi	r24, 0xCD	; 205
    22ba:	98 9f       	mul	r25, r24
    22bc:	21 2d       	mov	r18, r1
    22be:	11 24       	eor	r1, r1
    22c0:	26 95       	lsr	r18
    22c2:	26 95       	lsr	r18
    22c4:	26 95       	lsr	r18
    22c6:	e2 2f       	mov	r30, r18
    22c8:	f0 e0       	ldi	r31, 0x00	; 0
    22ca:	ed 5b       	subi	r30, 0xBD	; 189
    22cc:	fe 4b       	sbci	r31, 0xBE	; 190
    22ce:	30 81       	ld	r19, Z
    22d0:	e9 e7       	ldi	r30, 0x79	; 121
    22d2:	f1 e4       	ldi	r31, 0x41	; 65
    22d4:	33 83       	std	Z+3, r19	; 0x03
		DIGIT[0][2] = fnd_tbl[RTC_T.Year % 10];
    22d6:	22 0f       	add	r18, r18
    22d8:	32 2f       	mov	r19, r18
    22da:	33 0f       	add	r19, r19
    22dc:	33 0f       	add	r19, r19
    22de:	23 0f       	add	r18, r19
    22e0:	a9 2f       	mov	r26, r25
    22e2:	a2 1b       	sub	r26, r18
    22e4:	b0 e0       	ldi	r27, 0x00	; 0
    22e6:	ad 5b       	subi	r26, 0xBD	; 189
    22e8:	be 4b       	sbci	r27, 0xBE	; 190
    22ea:	9c 91       	ld	r25, X
    22ec:	92 83       	std	Z+2, r25	; 0x02

		DIGIT[0][1] = fnd_tbl[RTC_T.Month / 10];			// 월 표시
    22ee:	9d 81       	ldd	r25, Y+5	; 0x05
    22f0:	98 9f       	mul	r25, r24
    22f2:	21 2d       	mov	r18, r1
    22f4:	11 24       	eor	r1, r1
    22f6:	26 95       	lsr	r18
    22f8:	26 95       	lsr	r18
    22fa:	26 95       	lsr	r18
    22fc:	a2 2f       	mov	r26, r18
    22fe:	b0 e0       	ldi	r27, 0x00	; 0
    2300:	ad 5b       	subi	r26, 0xBD	; 189
    2302:	be 4b       	sbci	r27, 0xBE	; 190
    2304:	3c 91       	ld	r19, X
    2306:	31 83       	std	Z+1, r19	; 0x01
		DIGIT[0][0] = fnd_tbl[RTC_T.Month % 10];
    2308:	22 0f       	add	r18, r18
    230a:	32 2f       	mov	r19, r18
    230c:	33 0f       	add	r19, r19
    230e:	33 0f       	add	r19, r19
    2310:	23 0f       	add	r18, r19
    2312:	a9 2f       	mov	r26, r25
    2314:	a2 1b       	sub	r26, r18
    2316:	b0 e0       	ldi	r27, 0x00	; 0
    2318:	ad 5b       	subi	r26, 0xBD	; 189
    231a:	be 4b       	sbci	r27, 0xBE	; 190
    231c:	9c 91       	ld	r25, X
    231e:	90 83       	st	Z, r25

		DIGIT[1][3] = fnd_tbl[RTC_T.Date / 10];				// 일 표시
    2320:	9c 81       	ldd	r25, Y+4	; 0x04
    2322:	98 9f       	mul	r25, r24
    2324:	21 2d       	mov	r18, r1
    2326:	11 24       	eor	r1, r1
    2328:	26 95       	lsr	r18
    232a:	26 95       	lsr	r18
    232c:	26 95       	lsr	r18
    232e:	a2 2f       	mov	r26, r18
    2330:	b0 e0       	ldi	r27, 0x00	; 0
    2332:	ad 5b       	subi	r26, 0xBD	; 189
    2334:	be 4b       	sbci	r27, 0xBE	; 190
    2336:	3c 91       	ld	r19, X
    2338:	37 83       	std	Z+7, r19	; 0x07
		DIGIT[1][2] = fnd_tbl[RTC_T.Date % 10];
    233a:	22 0f       	add	r18, r18
    233c:	32 2f       	mov	r19, r18
    233e:	33 0f       	add	r19, r19
    2340:	33 0f       	add	r19, r19
    2342:	23 0f       	add	r18, r19
    2344:	a9 2f       	mov	r26, r25
    2346:	a2 1b       	sub	r26, r18
    2348:	b0 e0       	ldi	r27, 0x00	; 0
    234a:	ad 5b       	subi	r26, 0xBD	; 189
    234c:	be 4b       	sbci	r27, 0xBE	; 190
    234e:	9c 91       	ld	r25, X
    2350:	96 83       	std	Z+6, r25	; 0x06

		DIGIT[1][1] = fnd_tbl[RTC_T.Hour / 10];				// 시 표시
    2352:	9a 81       	ldd	r25, Y+2	; 0x02
    2354:	98 9f       	mul	r25, r24
    2356:	21 2d       	mov	r18, r1
    2358:	11 24       	eor	r1, r1
    235a:	26 95       	lsr	r18
    235c:	26 95       	lsr	r18
    235e:	26 95       	lsr	r18
    2360:	a2 2f       	mov	r26, r18
    2362:	b0 e0       	ldi	r27, 0x00	; 0
    2364:	ad 5b       	subi	r26, 0xBD	; 189
    2366:	be 4b       	sbci	r27, 0xBE	; 190
    2368:	3c 91       	ld	r19, X
    236a:	35 83       	std	Z+5, r19	; 0x05
		DIGIT[1][0] = fnd_tbl[RTC_T.Hour % 10];
    236c:	22 0f       	add	r18, r18
    236e:	32 2f       	mov	r19, r18
    2370:	33 0f       	add	r19, r19
    2372:	33 0f       	add	r19, r19
    2374:	23 0f       	add	r18, r19
    2376:	a9 2f       	mov	r26, r25
    2378:	a2 1b       	sub	r26, r18
    237a:	b0 e0       	ldi	r27, 0x00	; 0
    237c:	ad 5b       	subi	r26, 0xBD	; 189
    237e:	be 4b       	sbci	r27, 0xBE	; 190
    2380:	9c 91       	ld	r25, X
    2382:	94 83       	std	Z+4, r25	; 0x04

		DIGIT[2][3] = fnd_tbl[RTC_T.Min / 10];				// 분 표시
    2384:	99 81       	ldd	r25, Y+1	; 0x01
    2386:	98 9f       	mul	r25, r24
    2388:	21 2d       	mov	r18, r1
    238a:	11 24       	eor	r1, r1
    238c:	26 95       	lsr	r18
    238e:	26 95       	lsr	r18
    2390:	26 95       	lsr	r18
    2392:	a2 2f       	mov	r26, r18
    2394:	b0 e0       	ldi	r27, 0x00	; 0
    2396:	ad 5b       	subi	r26, 0xBD	; 189
    2398:	be 4b       	sbci	r27, 0xBE	; 190
    239a:	3c 91       	ld	r19, X
    239c:	33 87       	std	Z+11, r19	; 0x0b
		DIGIT[2][2] = fnd_tbl[RTC_T.Min % 10];
    239e:	22 0f       	add	r18, r18
    23a0:	32 2f       	mov	r19, r18
    23a2:	33 0f       	add	r19, r19
    23a4:	33 0f       	add	r19, r19
    23a6:	23 0f       	add	r18, r19
    23a8:	a9 2f       	mov	r26, r25
    23aa:	a2 1b       	sub	r26, r18
    23ac:	b0 e0       	ldi	r27, 0x00	; 0
    23ae:	ad 5b       	subi	r26, 0xBD	; 189
    23b0:	be 4b       	sbci	r27, 0xBE	; 190
    23b2:	9c 91       	ld	r25, X
    23b4:	92 87       	std	Z+10, r25	; 0x0a

		DIGIT[2][1] = fnd_tbl[RTC_T.Sec / 10];				// 초 표시
    23b6:	98 81       	ld	r25, Y
    23b8:	98 9f       	mul	r25, r24
    23ba:	81 2d       	mov	r24, r1
    23bc:	11 24       	eor	r1, r1
    23be:	86 95       	lsr	r24
    23c0:	86 95       	lsr	r24
    23c2:	86 95       	lsr	r24
    23c4:	a8 2f       	mov	r26, r24
    23c6:	b0 e0       	ldi	r27, 0x00	; 0
    23c8:	ad 5b       	subi	r26, 0xBD	; 189
    23ca:	be 4b       	sbci	r27, 0xBE	; 190
    23cc:	2c 91       	ld	r18, X
    23ce:	21 87       	std	Z+9, r18	; 0x09
		DIGIT[2][0] = fnd_tbl[RTC_T.Sec % 10];
    23d0:	88 0f       	add	r24, r24
    23d2:	28 2f       	mov	r18, r24
    23d4:	22 0f       	add	r18, r18
    23d6:	22 0f       	add	r18, r18
    23d8:	82 0f       	add	r24, r18
    23da:	a9 2f       	mov	r26, r25
    23dc:	a8 1b       	sub	r26, r24
    23de:	b0 e0       	ldi	r27, 0x00	; 0
    23e0:	ad 5b       	subi	r26, 0xBD	; 189
    23e2:	be 4b       	sbci	r27, 0xBE	; 190
    23e4:	8c 91       	ld	r24, X
    23e6:	80 87       	std	Z+8, r24	; 0x08

		if(SECOND != RTC_T.Sec)						// 이전 시간(초)이 현재시간(초)와 같지 않으면
    23e8:	80 91 8c 52 	lds	r24, 0x528C	; 0x80528c <SECOND>
    23ec:	98 17       	cp	r25, r24
    23ee:	69 f0       	breq	.+26     	; 0x240a <main+0x23c>
		{
			SECOND = RTC_T.Sec;					// 이전 시간(초)에 현재시간(초) 저장	
    23f0:	90 93 8c 52 	sts	0x528C, r25	; 0x80528c <SECOND>
			Beep(10);						// 비프(1초에 1번씩)
    23f4:	8a e0       	ldi	r24, 0x0A	; 10
    23f6:	90 e0       	ldi	r25, 0x00	; 0
    23f8:	0e 94 42 04 	call	0x884	; 0x884 <Beep>
			wdt_reset();						// Reset WDT
    23fc:	0e 94 7e 0e 	call	0x1cfc	; 0x1cfc <wdt_reset>
			Time_Count--;						// Time_Count 감소
    2400:	80 91 6f 51 	lds	r24, 0x516F	; 0x80516f <Time_Count>
    2404:	81 50       	subi	r24, 0x01	; 1
    2406:	80 93 6f 51 	sts	0x516F, r24	; 0x80516f <Time_Count>
	Time_Count = 5;								// 시간 표시 용 변수 설정
	Sec_Count = 0;
	SECOND = 0;								// 이전 시간(초)용 변수 설정
	Read_eeprom();
//-------------------------------------------------------------------------------------------------
	while(Time_Count)							// Time_Count 가 0이 아니면 반복(5초동안 시간표시)
    240a:	80 91 6f 51 	lds	r24, 0x516F	; 0x80516f <Time_Count>
    240e:	81 11       	cpse	r24, r1
    2410:	4e cf       	rjmp	.-356    	; 0x22ae <main+0xe0>
			Beep(10);						// 비프(1초에 1번씩)
			wdt_reset();						// Reset WDT
			Time_Count--;						// Time_Count 감소
		}
	}
	Var_Init();								// 변수 및 로드셀 초기화
    2412:	0e 94 4a 0e 	call	0x1c94	; 0x1c94 <Var_Init>
	wdt_reset();								// Reset WDT
    2416:	0e 94 7e 0e 	call	0x1cfc	; 0x1cfc <wdt_reset>
	}

//-------------------------------------------------------------------------------------------------
	while(1)
	{
		if(Sec_Count < 36) {Check_Value();}				// 5Sec x 36 = 180Sec 보다 크면 FND ALL OFF
    241a:	80 91 0c 51 	lds	r24, 0x510C	; 0x80510c <Sec_Count>
    241e:	84 32       	cpi	r24, 0x24	; 36
    2420:	38 f4       	brcc	.+14     	; 0x2430 <main+0x262>
    2422:	0e 94 8a 08 	call	0x1114	; 0x1114 <Check_Value>
    2426:	0c c0       	rjmp	.+24     	; 0x2440 <main+0x272>
		else
		{
			while(!KEY.Buff)
			{
				FND_ALL_OFF();					// FND 전부
    2428:	0e 94 ec 05 	call	0xbd8	; 0xbd8 <FND_ALL_OFF>
				wdt_reset();					// Reset WDT
    242c:	0e 94 7e 0e 	call	0x1cfc	; 0x1cfc <wdt_reset>
	while(1)
	{
		if(Sec_Count < 36) {Check_Value();}				// 5Sec x 36 = 180Sec 보다 크면 FND ALL OFF
		else
		{
			while(!KEY.Buff)
    2430:	80 91 50 51 	lds	r24, 0x5150	; 0x805150 <KEY+0x1>
    2434:	88 23       	and	r24, r24
    2436:	c1 f3       	breq	.-16     	; 0x2428 <main+0x25a>
			{
				FND_ALL_OFF();					// FND 전부
				wdt_reset();					// Reset WDT
			}
			KEY.Buff = 0;
    2438:	10 92 50 51 	sts	0x5150, r1	; 0x805150 <KEY+0x1>
			Var_Init();						// 변수 및 로드셀 초기화
    243c:	0e 94 4a 0e 	call	0x1c94	; 0x1c94 <Var_Init>
		}
		Check_Value();
    2440:	0e 94 8a 08 	call	0x1114	; 0x1114 <Check_Value>

		if(SET.Menu)   {Seting_Mode_0();}				// SET Menu   가 설정되어 있으면 Seting_Mode_0 진입
    2444:	80 91 10 51 	lds	r24, 0x5110	; 0x805110 <SET>
    2448:	81 11       	cpse	r24, r1
    244a:	0e 94 cc 0e 	call	0x1d98	; 0x1d98 <Seting_Mode_0>
		if(SET.NumSET) {Seting_Mode_1();}				// SET.NumSET 가 설정되어 있으면 Seting_Mode_1 진입
    244e:	80 91 12 51 	lds	r24, 0x5112	; 0x805112 <SET+0x2>
    2452:	81 11       	cpse	r24, r1
    2454:	0e 94 81 0f 	call	0x1f02	; 0x1f02 <Seting_Mode_1>
		Receiv_PC();							// PC로 부터 데이터수신 확인
    2458:	0e 94 f9 0b 	call	0x17f2	; 0x17f2 <Receiv_PC>
		Time_Check();							// 시간 체크(날짜변경 확인)
    245c:	0e 94 6e 0d 	call	0x1adc	; 0x1adc <Time_Check>
    2460:	9f ef       	ldi	r25, 0xFF	; 255
    2462:	2f e3       	ldi	r18, 0x3F	; 63
    2464:	82 e0       	ldi	r24, 0x02	; 2
    2466:	91 50       	subi	r25, 0x01	; 1
    2468:	20 40       	sbci	r18, 0x00	; 0
    246a:	80 40       	sbci	r24, 0x00	; 0
    246c:	e1 f7       	brne	.-8      	; 0x2466 <main+0x298>
    246e:	00 c0       	rjmp	.+0      	; 0x2470 <main+0x2a2>
    2470:	00 00       	nop
		_delay_ms(50);							// 연속 동작을 막기위한 Delay
		wdt_reset();							// Reset WDT
    2472:	0e 94 7e 0e 	call	0x1cfc	; 0x1cfc <wdt_reset>
	}
    2476:	d1 cf       	rjmp	.-94     	; 0x241a <main+0x24c>

00002478 <BOD_init>:
    2478:	10 92 89 00 	sts	0x0089, r1	; 0x800089 <__TEXT_REGION_LENGTH__+0x7e0089>
    247c:	80 e0       	ldi	r24, 0x00	; 0
    247e:	08 95       	ret

00002480 <CLKCTRL_init>:
    2480:	43 e0       	ldi	r20, 0x03	; 3
    2482:	68 ed       	ldi	r22, 0xD8	; 216
    2484:	80 e6       	ldi	r24, 0x60	; 96
    2486:	90 e0       	ldi	r25, 0x00	; 0
    2488:	0e 94 8c 29 	call	0x5318	; 0x5318 <protected_write_io>
    248c:	80 91 63 00 	lds	r24, 0x0063	; 0x800063 <__TEXT_REGION_LENGTH__+0x7e0063>
    2490:	80 fd       	sbrc	r24, 0
    2492:	fc cf       	rjmp	.-8      	; 0x248c <CLKCTRL_init+0xc>
    2494:	80 e0       	ldi	r24, 0x00	; 0
    2496:	08 95       	ret

00002498 <mcu_init>:
    2498:	80 e0       	ldi	r24, 0x00	; 0
    249a:	08 c0       	rjmp	.+16     	; 0x24ac <mcu_init+0x14>
    249c:	e8 2f       	mov	r30, r24
    249e:	f0 e0       	ldi	r31, 0x00	; 0
    24a0:	e0 5f       	subi	r30, 0xF0	; 240
    24a2:	fb 4f       	sbci	r31, 0xFB	; 251
    24a4:	90 81       	ld	r25, Z
    24a6:	98 60       	ori	r25, 0x08	; 8
    24a8:	90 83       	st	Z, r25
    24aa:	8f 5f       	subi	r24, 0xFF	; 255
    24ac:	88 30       	cpi	r24, 0x08	; 8
    24ae:	b0 f3       	brcs	.-20     	; 0x249c <mcu_init+0x4>
    24b0:	80 e0       	ldi	r24, 0x00	; 0
    24b2:	08 c0       	rjmp	.+16     	; 0x24c4 <mcu_init+0x2c>
    24b4:	e8 2f       	mov	r30, r24
    24b6:	f0 e0       	ldi	r31, 0x00	; 0
    24b8:	e0 5d       	subi	r30, 0xD0	; 208
    24ba:	fb 4f       	sbci	r31, 0xFB	; 251
    24bc:	90 81       	ld	r25, Z
    24be:	98 60       	ori	r25, 0x08	; 8
    24c0:	90 83       	st	Z, r25
    24c2:	8f 5f       	subi	r24, 0xFF	; 255
    24c4:	88 30       	cpi	r24, 0x08	; 8
    24c6:	b0 f3       	brcs	.-20     	; 0x24b4 <mcu_init+0x1c>
    24c8:	80 e0       	ldi	r24, 0x00	; 0
    24ca:	08 c0       	rjmp	.+16     	; 0x24dc <mcu_init+0x44>
    24cc:	e8 2f       	mov	r30, r24
    24ce:	f0 e0       	ldi	r31, 0x00	; 0
    24d0:	e0 5b       	subi	r30, 0xB0	; 176
    24d2:	fb 4f       	sbci	r31, 0xFB	; 251
    24d4:	90 81       	ld	r25, Z
    24d6:	98 60       	ori	r25, 0x08	; 8
    24d8:	90 83       	st	Z, r25
    24da:	8f 5f       	subi	r24, 0xFF	; 255
    24dc:	88 30       	cpi	r24, 0x08	; 8
    24de:	b0 f3       	brcs	.-20     	; 0x24cc <mcu_init+0x34>
    24e0:	80 e0       	ldi	r24, 0x00	; 0
    24e2:	08 c0       	rjmp	.+16     	; 0x24f4 <mcu_init+0x5c>
    24e4:	e8 2f       	mov	r30, r24
    24e6:	f0 e0       	ldi	r31, 0x00	; 0
    24e8:	e0 59       	subi	r30, 0x90	; 144
    24ea:	fb 4f       	sbci	r31, 0xFB	; 251
    24ec:	90 81       	ld	r25, Z
    24ee:	98 60       	ori	r25, 0x08	; 8
    24f0:	90 83       	st	Z, r25
    24f2:	8f 5f       	subi	r24, 0xFF	; 255
    24f4:	88 30       	cpi	r24, 0x08	; 8
    24f6:	b0 f3       	brcs	.-20     	; 0x24e4 <mcu_init+0x4c>
    24f8:	80 e0       	ldi	r24, 0x00	; 0
    24fa:	08 c0       	rjmp	.+16     	; 0x250c <mcu_init+0x74>
    24fc:	e8 2f       	mov	r30, r24
    24fe:	f0 e0       	ldi	r31, 0x00	; 0
    2500:	e0 57       	subi	r30, 0x70	; 112
    2502:	fb 4f       	sbci	r31, 0xFB	; 251
    2504:	90 81       	ld	r25, Z
    2506:	98 60       	ori	r25, 0x08	; 8
    2508:	90 83       	st	Z, r25
    250a:	8f 5f       	subi	r24, 0xFF	; 255
    250c:	88 30       	cpi	r24, 0x08	; 8
    250e:	b0 f3       	brcs	.-20     	; 0x24fc <mcu_init+0x64>
    2510:	80 e0       	ldi	r24, 0x00	; 0
    2512:	08 c0       	rjmp	.+16     	; 0x2524 <mcu_init+0x8c>
    2514:	e8 2f       	mov	r30, r24
    2516:	f0 e0       	ldi	r31, 0x00	; 0
    2518:	e0 55       	subi	r30, 0x50	; 80
    251a:	fb 4f       	sbci	r31, 0xFB	; 251
    251c:	90 81       	ld	r25, Z
    251e:	98 60       	ori	r25, 0x08	; 8
    2520:	90 83       	st	Z, r25
    2522:	8f 5f       	subi	r24, 0xFF	; 255
    2524:	88 30       	cpi	r24, 0x08	; 8
    2526:	b0 f3       	brcs	.-20     	; 0x2514 <mcu_init+0x7c>
    2528:	80 e0       	ldi	r24, 0x00	; 0
    252a:	08 c0       	rjmp	.+16     	; 0x253c <mcu_init+0xa4>
    252c:	e8 2f       	mov	r30, r24
    252e:	f0 e0       	ldi	r31, 0x00	; 0
    2530:	e0 53       	subi	r30, 0x30	; 48
    2532:	fb 4f       	sbci	r31, 0xFB	; 251
    2534:	90 81       	ld	r25, Z
    2536:	98 60       	ori	r25, 0x08	; 8
    2538:	90 83       	st	Z, r25
    253a:	8f 5f       	subi	r24, 0xFF	; 255
    253c:	88 30       	cpi	r24, 0x08	; 8
    253e:	b0 f3       	brcs	.-20     	; 0x252c <mcu_init+0x94>
    2540:	08 95       	ret

00002542 <I2C_0_initialization>:
    2542:	85 b3       	in	r24, 0x15	; 21
    2544:	87 7f       	andi	r24, 0xF7	; 247
    2546:	85 bb       	out	0x15, r24	; 21
    2548:	84 b3       	in	r24, 0x14	; 20
    254a:	88 60       	ori	r24, 0x08	; 8
    254c:	84 bb       	out	0x14, r24	; 20
    254e:	e3 eb       	ldi	r30, 0xB3	; 179
    2550:	f4 e0       	ldi	r31, 0x04	; 4
    2552:	80 81       	ld	r24, Z
    2554:	87 7f       	andi	r24, 0xF7	; 247
    2556:	80 83       	st	Z, r24
    2558:	80 81       	ld	r24, Z
    255a:	8f 77       	andi	r24, 0x7F	; 127
    255c:	80 83       	st	Z, r24
    255e:	80 81       	ld	r24, Z
    2560:	88 7f       	andi	r24, 0xF8	; 248
    2562:	80 83       	st	Z, r24
    2564:	85 b3       	in	r24, 0x15	; 21
    2566:	8b 7f       	andi	r24, 0xFB	; 251
    2568:	85 bb       	out	0x15, r24	; 21
    256a:	84 b3       	in	r24, 0x14	; 20
    256c:	84 60       	ori	r24, 0x04	; 4
    256e:	84 bb       	out	0x14, r24	; 20
    2570:	e2 eb       	ldi	r30, 0xB2	; 178
    2572:	f4 e0       	ldi	r31, 0x04	; 4
    2574:	80 81       	ld	r24, Z
    2576:	87 7f       	andi	r24, 0xF7	; 247
    2578:	80 83       	st	Z, r24
    257a:	80 81       	ld	r24, Z
    257c:	8f 77       	andi	r24, 0x7F	; 127
    257e:	80 83       	st	Z, r24
    2580:	80 81       	ld	r24, Z
    2582:	88 7f       	andi	r24, 0xF8	; 248
    2584:	80 83       	st	Z, r24
    2586:	0e 94 ba 16 	call	0x2d74	; 0x2d74 <I2C_0_init>
    258a:	08 95       	ret

0000258c <USART_1_initialization>:
    258c:	e0 ee       	ldi	r30, 0xE0	; 224
    258e:	f5 e0       	ldi	r31, 0x05	; 5
    2590:	82 81       	ldd	r24, Z+2	; 0x02
    2592:	8b 7f       	andi	r24, 0xFB	; 251
    2594:	82 83       	std	Z+2, r24	; 0x02
    2596:	e0 e4       	ldi	r30, 0x40	; 64
    2598:	f4 e0       	ldi	r31, 0x04	; 4
    259a:	80 81       	ld	r24, Z
    259c:	81 60       	ori	r24, 0x01	; 1
    259e:	80 83       	st	Z, r24
    25a0:	80 81       	ld	r24, Z
    25a2:	8d 7f       	andi	r24, 0xFD	; 253
    25a4:	80 83       	st	Z, r24
    25a6:	0e 94 6b 2d 	call	0x5ad6	; 0x5ad6 <USART_1_init>
    25aa:	08 95       	ret

000025ac <USART_3_initialization>:
    25ac:	e0 ee       	ldi	r30, 0xE0	; 224
    25ae:	f5 e0       	ldi	r31, 0x05	; 5
    25b0:	82 81       	ldd	r24, Z+2	; 0x02
    25b2:	8f 7b       	andi	r24, 0xBF	; 191
    25b4:	82 83       	std	Z+2, r24	; 0x02
    25b6:	e0 e2       	ldi	r30, 0x20	; 32
    25b8:	f4 e0       	ldi	r31, 0x04	; 4
    25ba:	80 81       	ld	r24, Z
    25bc:	81 60       	ori	r24, 0x01	; 1
    25be:	80 83       	st	Z, r24
    25c0:	80 81       	ld	r24, Z
    25c2:	8d 7f       	andi	r24, 0xFD	; 253
    25c4:	80 83       	st	Z, r24
    25c6:	0e 94 80 2d 	call	0x5b00	; 0x5b00 <USART_3_init>
    25ca:	08 95       	ret

000025cc <system_init>:
    25cc:	0e 94 4c 12 	call	0x2498	; 0x2498 <mcu_init>
    25d0:	0e 94 40 12 	call	0x2480	; 0x2480 <CLKCTRL_init>
    25d4:	0e 94 c6 12 	call	0x258c	; 0x258c <USART_1_initialization>
    25d8:	0e 94 d6 12 	call	0x25ac	; 0x25ac <USART_3_initialization>
    25dc:	0e 94 5d 2d 	call	0x5aba	; 0x5aba <SLPCTRL_init>
    25e0:	0e 94 5f 2d 	call	0x5abe	; 0x5abe <TIMER_1_init>
    25e4:	0e 94 3c 12 	call	0x2478	; 0x2478 <BOD_init>
    25e8:	0e 94 bd 2d 	call	0x5b7a	; 0x5b7a <WDT_init>
    25ec:	0e 94 a1 12 	call	0x2542	; 0x2542 <I2C_0_initialization>
    25f0:	08 95       	ret

000025f2 <ee_read_byte>:
    25f2:	81 15       	cp	r24, r1
    25f4:	22 e0       	ldi	r18, 0x02	; 2
    25f6:	92 07       	cpc	r25, r18
    25f8:	10 f0       	brcs	.+4      	; 0x25fe <ee_read_byte+0xc>
    25fa:	8f ef       	ldi	r24, 0xFF	; 255
    25fc:	91 e0       	ldi	r25, 0x01	; 1
    25fe:	fc 01       	movw	r30, r24
    2600:	fc 5e       	subi	r31, 0xEC	; 236
    2602:	80 81       	ld	r24, Z
    2604:	08 95       	ret

00002606 <ee_read_word>:
    2606:	8f 3f       	cpi	r24, 0xFF	; 255
    2608:	21 e0       	ldi	r18, 0x01	; 1
    260a:	92 07       	cpc	r25, r18
    260c:	10 f0       	brcs	.+4      	; 0x2612 <ee_read_word+0xc>
    260e:	8e ef       	ldi	r24, 0xFE	; 254
    2610:	91 e0       	ldi	r25, 0x01	; 1
    2612:	fc 01       	movw	r30, r24
    2614:	fc 5e       	subi	r31, 0xEC	; 236
    2616:	80 81       	ld	r24, Z
    2618:	91 81       	ldd	r25, Z+1	; 0x01
    261a:	08 95       	ret

0000261c <ee_read_dword>:
    261c:	8d 3f       	cpi	r24, 0xFD	; 253
    261e:	21 e0       	ldi	r18, 0x01	; 1
    2620:	92 07       	cpc	r25, r18
    2622:	10 f0       	brcs	.+4      	; 0x2628 <ee_read_dword+0xc>
    2624:	8c ef       	ldi	r24, 0xFC	; 252
    2626:	91 e0       	ldi	r25, 0x01	; 1
    2628:	fc 01       	movw	r30, r24
    262a:	fc 5e       	subi	r31, 0xEC	; 236
    262c:	60 81       	ld	r22, Z
    262e:	71 81       	ldd	r23, Z+1	; 0x01
    2630:	82 81       	ldd	r24, Z+2	; 0x02
    2632:	93 81       	ldd	r25, Z+3	; 0x03
    2634:	08 95       	ret

00002636 <ee_write_byte>:
    2636:	1f 93       	push	r17
    2638:	cf 93       	push	r28
    263a:	df 93       	push	r29
    263c:	9c 01       	movw	r18, r24
    263e:	21 15       	cp	r18, r1
    2640:	82 e0       	ldi	r24, 0x02	; 2
    2642:	38 07       	cpc	r19, r24
    2644:	b0 f4       	brcc	.+44     	; 0x2672 <ee_write_byte+0x3c>
    2646:	90 91 02 10 	lds	r25, 0x1002	; 0x801002 <__TEXT_REGION_LENGTH__+0x7e1002>
    264a:	93 70       	andi	r25, 0x03	; 3
    264c:	e1 f7       	brne	.-8      	; 0x2646 <ee_write_byte+0x10>
    264e:	16 2f       	mov	r17, r22
    2650:	e9 01       	movw	r28, r18
    2652:	43 e1       	ldi	r20, 0x13	; 19
    2654:	6d e9       	ldi	r22, 0x9D	; 157
    2656:	80 e0       	ldi	r24, 0x00	; 0
    2658:	90 e1       	ldi	r25, 0x10	; 16
    265a:	0e 94 8c 29 	call	0x5318	; 0x5318 <protected_write_io>
    265e:	dc 5e       	subi	r29, 0xEC	; 236
    2660:	18 83       	st	Y, r17
    2662:	40 e0       	ldi	r20, 0x00	; 0
    2664:	6d e9       	ldi	r22, 0x9D	; 157
    2666:	80 e0       	ldi	r24, 0x00	; 0
    2668:	90 e1       	ldi	r25, 0x10	; 16
    266a:	0e 94 8c 29 	call	0x5318	; 0x5318 <protected_write_io>
    266e:	81 e0       	ldi	r24, 0x01	; 1
    2670:	01 c0       	rjmp	.+2      	; 0x2674 <ee_write_byte+0x3e>
    2672:	80 e0       	ldi	r24, 0x00	; 0
    2674:	df 91       	pop	r29
    2676:	cf 91       	pop	r28
    2678:	1f 91       	pop	r17
    267a:	08 95       	ret

0000267c <ee_write_word>:
    267c:	cf 92       	push	r12
    267e:	df 92       	push	r13
    2680:	ef 92       	push	r14
    2682:	ff 92       	push	r15
    2684:	cf 93       	push	r28
    2686:	df 93       	push	r29
    2688:	8f 3f       	cpi	r24, 0xFF	; 255
    268a:	21 e0       	ldi	r18, 0x01	; 1
    268c:	92 07       	cpc	r25, r18
    268e:	58 f4       	brcc	.+22     	; 0x26a6 <ee_write_word+0x2a>
    2690:	ec 01       	movw	r28, r24
    2692:	6b 01       	movw	r12, r22
    2694:	0e 94 1b 13 	call	0x2636	; 0x2636 <ee_write_byte>
    2698:	6d 2d       	mov	r22, r13
    269a:	ce 01       	movw	r24, r28
    269c:	01 96       	adiw	r24, 0x01	; 1
    269e:	0e 94 1b 13 	call	0x2636	; 0x2636 <ee_write_byte>
    26a2:	81 e0       	ldi	r24, 0x01	; 1
    26a4:	01 c0       	rjmp	.+2      	; 0x26a8 <ee_write_word+0x2c>
    26a6:	80 e0       	ldi	r24, 0x00	; 0
    26a8:	df 91       	pop	r29
    26aa:	cf 91       	pop	r28
    26ac:	ff 90       	pop	r15
    26ae:	ef 90       	pop	r14
    26b0:	df 90       	pop	r13
    26b2:	cf 90       	pop	r12
    26b4:	08 95       	ret

000026b6 <ee_write_dword>:
    26b6:	ff 92       	push	r15
    26b8:	0f 93       	push	r16
    26ba:	1f 93       	push	r17
    26bc:	cf 93       	push	r28
    26be:	df 93       	push	r29
    26c0:	8d 3f       	cpi	r24, 0xFD	; 253
    26c2:	21 e0       	ldi	r18, 0x01	; 1
    26c4:	92 07       	cpc	r25, r18
    26c6:	c0 f4       	brcc	.+48     	; 0x26f8 <ee_write_dword+0x42>
    26c8:	17 2f       	mov	r17, r23
    26ca:	06 2f       	mov	r16, r22
    26cc:	f5 2e       	mov	r15, r21
    26ce:	64 2f       	mov	r22, r20
    26d0:	ec 01       	movw	r28, r24
    26d2:	0e 94 1b 13 	call	0x2636	; 0x2636 <ee_write_byte>
    26d6:	6f 2d       	mov	r22, r15
    26d8:	ce 01       	movw	r24, r28
    26da:	01 96       	adiw	r24, 0x01	; 1
    26dc:	0e 94 1b 13 	call	0x2636	; 0x2636 <ee_write_byte>
    26e0:	60 2f       	mov	r22, r16
    26e2:	ce 01       	movw	r24, r28
    26e4:	02 96       	adiw	r24, 0x02	; 2
    26e6:	0e 94 1b 13 	call	0x2636	; 0x2636 <ee_write_byte>
    26ea:	61 2f       	mov	r22, r17
    26ec:	ce 01       	movw	r24, r28
    26ee:	03 96       	adiw	r24, 0x03	; 3
    26f0:	0e 94 1b 13 	call	0x2636	; 0x2636 <ee_write_byte>
    26f4:	81 e0       	ldi	r24, 0x01	; 1
    26f6:	01 c0       	rjmp	.+2      	; 0x26fa <ee_write_dword+0x44>
    26f8:	80 e0       	ldi	r24, 0x00	; 0
    26fa:	df 91       	pop	r29
    26fc:	cf 91       	pop	r28
    26fe:	1f 91       	pop	r17
    2700:	0f 91       	pop	r16
    2702:	ff 90       	pop	r15
    2704:	08 95       	ret

00002706 <Gukbun_Set>:
    2706:	4c e0       	ldi	r20, 0x0C	; 12
    2708:	62 e0       	ldi	r22, 0x02	; 2
    270a:	80 e0       	ldi	r24, 0x00	; 0
    270c:	0e 94 d2 05 	call	0xba4	; 0xba4 <FND_Value_Data>
    2710:	42 c0       	rjmp	.+132    	; 0x2796 <Gukbun_Set+0x90>
    2712:	e9 e7       	ldi	r30, 0x79	; 121
    2714:	f1 e4       	ldi	r31, 0x41	; 65
    2716:	8e eb       	ldi	r24, 0xBE	; 190
    2718:	83 83       	std	Z+3, r24	; 0x03
    271a:	82 e0       	ldi	r24, 0x02	; 2
    271c:	82 83       	std	Z+2, r24	; 0x02
    271e:	8a e2       	ldi	r24, 0x2A	; 42
    2720:	81 83       	std	Z+1, r24	; 0x01
    2722:	8a e3       	ldi	r24, 0x3A	; 58
    2724:	80 83       	st	Z, r24
    2726:	20 91 4b 51 	lds	r18, 0x514B	; 0x80514b <Gukbun>
    272a:	8d ec       	ldi	r24, 0xCD	; 205
    272c:	28 9f       	mul	r18, r24
    272e:	81 2d       	mov	r24, r1
    2730:	11 24       	eor	r1, r1
    2732:	86 95       	lsr	r24
    2734:	86 95       	lsr	r24
    2736:	86 95       	lsr	r24
    2738:	a8 2f       	mov	r26, r24
    273a:	b0 e0       	ldi	r27, 0x00	; 0
    273c:	ad 5b       	subi	r26, 0xBD	; 189
    273e:	be 4b       	sbci	r27, 0xBE	; 190
    2740:	9c 91       	ld	r25, X
    2742:	95 83       	std	Z+5, r25	; 0x05
    2744:	88 0f       	add	r24, r24
    2746:	98 2f       	mov	r25, r24
    2748:	99 0f       	add	r25, r25
    274a:	99 0f       	add	r25, r25
    274c:	89 0f       	add	r24, r25
    274e:	a2 2f       	mov	r26, r18
    2750:	a8 1b       	sub	r26, r24
    2752:	b0 e0       	ldi	r27, 0x00	; 0
    2754:	ad 5b       	subi	r26, 0xBD	; 189
    2756:	be 4b       	sbci	r27, 0xBE	; 190
    2758:	8c 91       	ld	r24, X
    275a:	84 83       	std	Z+4, r24	; 0x04
    275c:	80 91 50 51 	lds	r24, 0x5150	; 0x805150 <KEY+0x1>
    2760:	88 23       	and	r24, r24
    2762:	b9 f0       	breq	.+46     	; 0x2792 <Gukbun_Set+0x8c>
    2764:	80 91 51 51 	lds	r24, 0x5151	; 0x805151 <KEY+0x2>
    2768:	81 30       	cpi	r24, 0x01	; 1
    276a:	41 f4       	brne	.+16     	; 0x277c <Gukbun_Set+0x76>
    276c:	2c 33       	cpi	r18, 0x3C	; 60
    276e:	30 f4       	brcc	.+12     	; 0x277c <Gukbun_Set+0x76>
    2770:	2f 5f       	subi	r18, 0xFF	; 255
    2772:	20 93 4b 51 	sts	0x514B, r18	; 0x80514b <Gukbun>
    2776:	10 92 51 51 	sts	0x5151, r1	; 0x805151 <KEY+0x2>
    277a:	0b c0       	rjmp	.+22     	; 0x2792 <Gukbun_Set+0x8c>
    277c:	80 91 51 51 	lds	r24, 0x5151	; 0x805151 <KEY+0x2>
    2780:	83 30       	cpi	r24, 0x03	; 3
    2782:	39 f4       	brne	.+14     	; 0x2792 <Gukbun_Set+0x8c>
    2784:	22 30       	cpi	r18, 0x02	; 2
    2786:	28 f0       	brcs	.+10     	; 0x2792 <Gukbun_Set+0x8c>
    2788:	21 50       	subi	r18, 0x01	; 1
    278a:	20 93 4b 51 	sts	0x514B, r18	; 0x80514b <Gukbun>
    278e:	10 92 51 51 	sts	0x5151, r1	; 0x805151 <KEY+0x2>
    2792:	0e 94 7e 0e 	call	0x1cfc	; 0x1cfc <wdt_reset>
    2796:	80 91 10 51 	lds	r24, 0x5110	; 0x805110 <SET>
    279a:	88 23       	and	r24, r24
    279c:	21 f0       	breq	.+8      	; 0x27a6 <Gukbun_Set+0xa0>
    279e:	80 91 11 51 	lds	r24, 0x5111	; 0x805111 <SET+0x1>
    27a2:	81 11       	cpse	r24, r1
    27a4:	b6 cf       	rjmp	.-148    	; 0x2712 <Gukbun_Set+0xc>
    27a6:	60 91 4b 51 	lds	r22, 0x514B	; 0x80514b <Gukbun>
    27aa:	80 e0       	ldi	r24, 0x00	; 0
    27ac:	90 e0       	ldi	r25, 0x00	; 0
    27ae:	0e 94 1b 13 	call	0x2636	; 0x2636 <ee_write_byte>
    27b2:	08 95       	ret

000027b4 <Gwid_Set>:
    27b4:	4c e0       	ldi	r20, 0x0C	; 12
    27b6:	62 e0       	ldi	r22, 0x02	; 2
    27b8:	80 e0       	ldi	r24, 0x00	; 0
    27ba:	0e 94 d2 05 	call	0xba4	; 0xba4 <FND_Value_Data>
    27be:	42 c0       	rjmp	.+132    	; 0x2844 <Gwid_Set+0x90>
    27c0:	e9 e7       	ldi	r30, 0x79	; 121
    27c2:	f1 e4       	ldi	r31, 0x41	; 65
    27c4:	8e eb       	ldi	r24, 0xBE	; 190
    27c6:	83 83       	std	Z+3, r24	; 0x03
    27c8:	82 e0       	ldi	r24, 0x02	; 2
    27ca:	82 83       	std	Z+2, r24	; 0x02
    27cc:	80 e6       	ldi	r24, 0x60	; 96
    27ce:	81 83       	std	Z+1, r24	; 0x01
    27d0:	8a e7       	ldi	r24, 0x7A	; 122
    27d2:	80 83       	st	Z, r24
    27d4:	20 91 54 51 	lds	r18, 0x5154	; 0x805154 <Gwid>
    27d8:	8d ec       	ldi	r24, 0xCD	; 205
    27da:	28 9f       	mul	r18, r24
    27dc:	81 2d       	mov	r24, r1
    27de:	11 24       	eor	r1, r1
    27e0:	86 95       	lsr	r24
    27e2:	86 95       	lsr	r24
    27e4:	86 95       	lsr	r24
    27e6:	a8 2f       	mov	r26, r24
    27e8:	b0 e0       	ldi	r27, 0x00	; 0
    27ea:	ad 5b       	subi	r26, 0xBD	; 189
    27ec:	be 4b       	sbci	r27, 0xBE	; 190
    27ee:	9c 91       	ld	r25, X
    27f0:	95 83       	std	Z+5, r25	; 0x05
    27f2:	88 0f       	add	r24, r24
    27f4:	98 2f       	mov	r25, r24
    27f6:	99 0f       	add	r25, r25
    27f8:	99 0f       	add	r25, r25
    27fa:	89 0f       	add	r24, r25
    27fc:	a2 2f       	mov	r26, r18
    27fe:	a8 1b       	sub	r26, r24
    2800:	b0 e0       	ldi	r27, 0x00	; 0
    2802:	ad 5b       	subi	r26, 0xBD	; 189
    2804:	be 4b       	sbci	r27, 0xBE	; 190
    2806:	8c 91       	ld	r24, X
    2808:	84 83       	std	Z+4, r24	; 0x04
    280a:	80 91 50 51 	lds	r24, 0x5150	; 0x805150 <KEY+0x1>
    280e:	88 23       	and	r24, r24
    2810:	b9 f0       	breq	.+46     	; 0x2840 <Gwid_Set+0x8c>
    2812:	80 91 51 51 	lds	r24, 0x5151	; 0x805151 <KEY+0x2>
    2816:	81 30       	cpi	r24, 0x01	; 1
    2818:	41 f4       	brne	.+16     	; 0x282a <Gwid_Set+0x76>
    281a:	2c 33       	cpi	r18, 0x3C	; 60
    281c:	30 f4       	brcc	.+12     	; 0x282a <Gwid_Set+0x76>
    281e:	2f 5f       	subi	r18, 0xFF	; 255
    2820:	20 93 54 51 	sts	0x5154, r18	; 0x805154 <Gwid>
    2824:	10 92 51 51 	sts	0x5151, r1	; 0x805151 <KEY+0x2>
    2828:	0b c0       	rjmp	.+22     	; 0x2840 <Gwid_Set+0x8c>
    282a:	80 91 51 51 	lds	r24, 0x5151	; 0x805151 <KEY+0x2>
    282e:	83 30       	cpi	r24, 0x03	; 3
    2830:	39 f4       	brne	.+14     	; 0x2840 <Gwid_Set+0x8c>
    2832:	22 30       	cpi	r18, 0x02	; 2
    2834:	28 f0       	brcs	.+10     	; 0x2840 <Gwid_Set+0x8c>
    2836:	21 50       	subi	r18, 0x01	; 1
    2838:	20 93 54 51 	sts	0x5154, r18	; 0x805154 <Gwid>
    283c:	10 92 51 51 	sts	0x5151, r1	; 0x805151 <KEY+0x2>
    2840:	0e 94 7e 0e 	call	0x1cfc	; 0x1cfc <wdt_reset>
    2844:	80 91 10 51 	lds	r24, 0x5110	; 0x805110 <SET>
    2848:	88 23       	and	r24, r24
    284a:	21 f0       	breq	.+8      	; 0x2854 <Gwid_Set+0xa0>
    284c:	80 91 11 51 	lds	r24, 0x5111	; 0x805111 <SET+0x1>
    2850:	81 11       	cpse	r24, r1
    2852:	b6 cf       	rjmp	.-148    	; 0x27c0 <Gwid_Set+0xc>
    2854:	60 91 54 51 	lds	r22, 0x5154	; 0x805154 <Gwid>
    2858:	81 e0       	ldi	r24, 0x01	; 1
    285a:	90 e0       	ldi	r25, 0x00	; 0
    285c:	0e 94 1b 13 	call	0x2636	; 0x2636 <ee_write_byte>
    2860:	08 95       	ret

00002862 <Gateway_Set>:
    2862:	cf 93       	push	r28
    2864:	10 92 11 51 	sts	0x5111, r1	; 0x805111 <SET+0x1>
    2868:	4c e0       	ldi	r20, 0x0C	; 12
    286a:	62 e0       	ldi	r22, 0x02	; 2
    286c:	80 e0       	ldi	r24, 0x00	; 0
    286e:	0e 94 d2 05 	call	0xba4	; 0xba4 <FND_Value_Data>
    2872:	c1 e0       	ldi	r28, 0x01	; 1
    2874:	8b c0       	rjmp	.+278    	; 0x298c <Gateway_Set+0x12a>
    2876:	80 91 50 51 	lds	r24, 0x5150	; 0x805150 <KEY+0x1>
    287a:	88 23       	and	r24, r24
    287c:	99 f0       	breq	.+38     	; 0x28a4 <Gateway_Set+0x42>
    287e:	80 91 51 51 	lds	r24, 0x5151	; 0x805151 <KEY+0x2>
    2882:	81 30       	cpi	r24, 0x01	; 1
    2884:	31 f4       	brne	.+12     	; 0x2892 <Gateway_Set+0x30>
    2886:	c3 30       	cpi	r28, 0x03	; 3
    2888:	20 f4       	brcc	.+8      	; 0x2892 <Gateway_Set+0x30>
    288a:	cf 5f       	subi	r28, 0xFF	; 255
    288c:	10 92 51 51 	sts	0x5151, r1	; 0x805151 <KEY+0x2>
    2890:	09 c0       	rjmp	.+18     	; 0x28a4 <Gateway_Set+0x42>
    2892:	80 91 51 51 	lds	r24, 0x5151	; 0x805151 <KEY+0x2>
    2896:	83 30       	cpi	r24, 0x03	; 3
    2898:	29 f4       	brne	.+10     	; 0x28a4 <Gateway_Set+0x42>
    289a:	cc 23       	and	r28, r28
    289c:	19 f0       	breq	.+6      	; 0x28a4 <Gateway_Set+0x42>
    289e:	c1 50       	subi	r28, 0x01	; 1
    28a0:	10 92 51 51 	sts	0x5151, r1	; 0x805151 <KEY+0x2>
    28a4:	ec 2f       	mov	r30, r28
    28a6:	f0 e0       	ldi	r31, 0x00	; 0
    28a8:	ed 5b       	subi	r30, 0xBD	; 189
    28aa:	fe 4b       	sbci	r31, 0xBE	; 190
    28ac:	80 81       	ld	r24, Z
    28ae:	80 93 81 41 	sts	0x4181, r24	; 0x804181 <DIGIT+0x8>
    28b2:	c1 30       	cpi	r28, 0x01	; 1
    28b4:	41 f0       	breq	.+16     	; 0x28c6 <Gateway_Set+0x64>
    28b6:	08 f4       	brcc	.+2      	; 0x28ba <Gateway_Set+0x58>
    28b8:	66 c0       	rjmp	.+204    	; 0x2986 <Gateway_Set+0x124>
    28ba:	c2 30       	cpi	r28, 0x02	; 2
    28bc:	99 f1       	breq	.+102    	; 0x2924 <Gateway_Set+0xc2>
    28be:	c3 30       	cpi	r28, 0x03	; 3
    28c0:	09 f4       	brne	.+2      	; 0x28c4 <Gateway_Set+0x62>
    28c2:	5f c0       	rjmp	.+190    	; 0x2982 <Gateway_Set+0x120>
    28c4:	61 c0       	rjmp	.+194    	; 0x2988 <Gateway_Set+0x126>
    28c6:	e9 e7       	ldi	r30, 0x79	; 121
    28c8:	f1 e4       	ldi	r31, 0x41	; 65
    28ca:	8e eb       	ldi	r24, 0xBE	; 190
    28cc:	83 83       	std	Z+3, r24	; 0x03
    28ce:	82 e0       	ldi	r24, 0x02	; 2
    28d0:	82 83       	std	Z+2, r24	; 0x02
    28d2:	8a e2       	ldi	r24, 0x2A	; 42
    28d4:	81 83       	std	Z+1, r24	; 0x01
    28d6:	8a e3       	ldi	r24, 0x3A	; 58
    28d8:	80 83       	st	Z, r24
    28da:	17 82       	std	Z+7, r1	; 0x07
    28dc:	16 82       	std	Z+6, r1	; 0x06
    28de:	40 91 4b 51 	lds	r20, 0x514B	; 0x80514b <Gukbun>
    28e2:	8d ec       	ldi	r24, 0xCD	; 205
    28e4:	48 9f       	mul	r20, r24
    28e6:	81 2d       	mov	r24, r1
    28e8:	11 24       	eor	r1, r1
    28ea:	86 95       	lsr	r24
    28ec:	86 95       	lsr	r24
    28ee:	86 95       	lsr	r24
    28f0:	28 2f       	mov	r18, r24
    28f2:	30 e0       	ldi	r19, 0x00	; 0
    28f4:	2d 5b       	subi	r18, 0xBD	; 189
    28f6:	3e 4b       	sbci	r19, 0xBE	; 190
    28f8:	d9 01       	movw	r26, r18
    28fa:	9c 91       	ld	r25, X
    28fc:	95 83       	std	Z+5, r25	; 0x05
    28fe:	88 0f       	add	r24, r24
    2900:	98 2f       	mov	r25, r24
    2902:	99 0f       	add	r25, r25
    2904:	99 0f       	add	r25, r25
    2906:	89 0f       	add	r24, r25
    2908:	a4 2f       	mov	r26, r20
    290a:	a8 1b       	sub	r26, r24
    290c:	b0 e0       	ldi	r27, 0x00	; 0
    290e:	ad 5b       	subi	r26, 0xBD	; 189
    2910:	be 4b       	sbci	r27, 0xBE	; 190
    2912:	8c 91       	ld	r24, X
    2914:	84 83       	std	Z+4, r24	; 0x04
    2916:	80 91 11 51 	lds	r24, 0x5111	; 0x805111 <SET+0x1>
    291a:	88 23       	and	r24, r24
    291c:	a9 f1       	breq	.+106    	; 0x2988 <Gateway_Set+0x126>
    291e:	0e 94 83 13 	call	0x2706	; 0x2706 <Gukbun_Set>
    2922:	32 c0       	rjmp	.+100    	; 0x2988 <Gateway_Set+0x126>
    2924:	e9 e7       	ldi	r30, 0x79	; 121
    2926:	f1 e4       	ldi	r31, 0x41	; 65
    2928:	8e eb       	ldi	r24, 0xBE	; 190
    292a:	83 83       	std	Z+3, r24	; 0x03
    292c:	82 e0       	ldi	r24, 0x02	; 2
    292e:	82 83       	std	Z+2, r24	; 0x02
    2930:	80 e6       	ldi	r24, 0x60	; 96
    2932:	81 83       	std	Z+1, r24	; 0x01
    2934:	8a e7       	ldi	r24, 0x7A	; 122
    2936:	80 83       	st	Z, r24
    2938:	17 82       	std	Z+7, r1	; 0x07
    293a:	16 82       	std	Z+6, r1	; 0x06
    293c:	40 91 54 51 	lds	r20, 0x5154	; 0x805154 <Gwid>
    2940:	8d ec       	ldi	r24, 0xCD	; 205
    2942:	48 9f       	mul	r20, r24
    2944:	81 2d       	mov	r24, r1
    2946:	11 24       	eor	r1, r1
    2948:	86 95       	lsr	r24
    294a:	86 95       	lsr	r24
    294c:	86 95       	lsr	r24
    294e:	28 2f       	mov	r18, r24
    2950:	30 e0       	ldi	r19, 0x00	; 0
    2952:	2d 5b       	subi	r18, 0xBD	; 189
    2954:	3e 4b       	sbci	r19, 0xBE	; 190
    2956:	d9 01       	movw	r26, r18
    2958:	9c 91       	ld	r25, X
    295a:	95 83       	std	Z+5, r25	; 0x05
    295c:	88 0f       	add	r24, r24
    295e:	98 2f       	mov	r25, r24
    2960:	99 0f       	add	r25, r25
    2962:	99 0f       	add	r25, r25
    2964:	89 0f       	add	r24, r25
    2966:	a4 2f       	mov	r26, r20
    2968:	a8 1b       	sub	r26, r24
    296a:	b0 e0       	ldi	r27, 0x00	; 0
    296c:	ad 5b       	subi	r26, 0xBD	; 189
    296e:	be 4b       	sbci	r27, 0xBE	; 190
    2970:	8c 91       	ld	r24, X
    2972:	84 83       	std	Z+4, r24	; 0x04
    2974:	80 91 11 51 	lds	r24, 0x5111	; 0x805111 <SET+0x1>
    2978:	88 23       	and	r24, r24
    297a:	31 f0       	breq	.+12     	; 0x2988 <Gateway_Set+0x126>
    297c:	0e 94 da 13 	call	0x27b4	; 0x27b4 <Gwid_Set>
    2980:	03 c0       	rjmp	.+6      	; 0x2988 <Gateway_Set+0x126>
    2982:	c1 e0       	ldi	r28, 0x01	; 1
    2984:	01 c0       	rjmp	.+2      	; 0x2988 <Gateway_Set+0x126>
    2986:	c2 e0       	ldi	r28, 0x02	; 2
    2988:	0e 94 7e 0e 	call	0x1cfc	; 0x1cfc <wdt_reset>
    298c:	80 91 10 51 	lds	r24, 0x5110	; 0x805110 <SET>
    2990:	81 11       	cpse	r24, r1
    2992:	71 cf       	rjmp	.-286    	; 0x2876 <Gateway_Set+0x14>
    2994:	cf 91       	pop	r28
    2996:	08 95       	ret

00002998 <I2C_0_do_I2C_RESET>:
    2998:	e0 e2       	ldi	r30, 0x20	; 32
    299a:	f9 e0       	ldi	r31, 0x09	; 9
    299c:	84 81       	ldd	r24, Z+4	; 0x04
    299e:	88 60       	ori	r24, 0x08	; 8
    29a0:	84 83       	std	Z+4, r24	; 0x04
    29a2:	85 81       	ldd	r24, Z+5	; 0x05
    29a4:	81 60       	ori	r24, 0x01	; 1
    29a6:	85 83       	std	Z+5, r24	; 0x05
    29a8:	e5 e8       	ldi	r30, 0x85	; 133
    29aa:	f1 e4       	ldi	r31, 0x41	; 65
    29ac:	80 81       	ld	r24, Z
    29ae:	8e 7f       	andi	r24, 0xFE	; 254
    29b0:	80 83       	st	Z, r24
    29b2:	13 86       	std	Z+11, r1	; 0x0b
    29b4:	8e e0       	ldi	r24, 0x0E	; 14
    29b6:	08 95       	ret

000029b8 <I2C_0_do_I2C_IDLE>:
    29b8:	e5 e8       	ldi	r30, 0x85	; 133
    29ba:	f1 e4       	ldi	r31, 0x41	; 65
    29bc:	80 81       	ld	r24, Z
    29be:	8e 7f       	andi	r24, 0xFE	; 254
    29c0:	80 83       	st	Z, r24
    29c2:	13 86       	std	Z+11, r1	; 0x0b
    29c4:	80 e0       	ldi	r24, 0x00	; 0
    29c6:	08 95       	ret

000029c8 <I2C_0_do_I2C_SEND_STOP>:
    29c8:	e0 e2       	ldi	r30, 0x20	; 32
    29ca:	f9 e0       	ldi	r31, 0x09	; 9
    29cc:	84 81       	ldd	r24, Z+4	; 0x04
    29ce:	83 60       	ori	r24, 0x03	; 3
    29d0:	84 83       	std	Z+4, r24	; 0x04
    29d2:	0e 94 dc 14 	call	0x29b8	; 0x29b8 <I2C_0_do_I2C_IDLE>
    29d6:	08 95       	ret

000029d8 <I2C_0_do_I2C_SEND_ADR_READ>:
    29d8:	e5 e8       	ldi	r30, 0x85	; 133
    29da:	f1 e4       	ldi	r31, 0x41	; 65
    29dc:	80 81       	ld	r24, Z
    29de:	88 60       	ori	r24, 0x08	; 8
    29e0:	80 83       	st	Z, r24
    29e2:	81 81       	ldd	r24, Z+1	; 0x01
    29e4:	90 e0       	ldi	r25, 0x00	; 0
    29e6:	88 0f       	add	r24, r24
    29e8:	99 1f       	adc	r25, r25
    29ea:	81 60       	ori	r24, 0x01	; 1
    29ec:	80 93 27 09 	sts	0x0927, r24	; 0x800927 <__TEXT_REGION_LENGTH__+0x7e0927>
    29f0:	84 e0       	ldi	r24, 0x04	; 4
    29f2:	08 95       	ret

000029f4 <I2C_0_do_I2C_SEND_RESTART>:
    29f4:	0e 94 ec 14 	call	0x29d8	; 0x29d8 <I2C_0_do_I2C_SEND_ADR_READ>
    29f8:	08 95       	ret

000029fa <I2C_0_do_I2C_SEND_RESTART_READ>:
    29fa:	0e 94 ec 14 	call	0x29d8	; 0x29d8 <I2C_0_do_I2C_SEND_ADR_READ>
    29fe:	08 95       	ret

00002a00 <I2C_0_do_I2C_SEND_ADR_WRITE>:
    2a00:	e5 e8       	ldi	r30, 0x85	; 133
    2a02:	f1 e4       	ldi	r31, 0x41	; 65
    2a04:	80 81       	ld	r24, Z
    2a06:	88 60       	ori	r24, 0x08	; 8
    2a08:	80 83       	st	Z, r24
    2a0a:	81 81       	ldd	r24, Z+1	; 0x01
    2a0c:	88 0f       	add	r24, r24
    2a0e:	80 93 27 09 	sts	0x0927, r24	; 0x800927 <__TEXT_REGION_LENGTH__+0x7e0927>
    2a12:	83 e0       	ldi	r24, 0x03	; 3
    2a14:	08 95       	ret

00002a16 <I2C_0_do_I2C_SEND_RESTART_WRITE>:
    2a16:	0e 94 00 15 	call	0x2a00	; 0x2a00 <I2C_0_do_I2C_SEND_ADR_WRITE>
    2a1a:	08 95       	ret

00002a1c <I2C_0_do_I2C_DO_ADDRESS_NACK>:
    2a1c:	a5 e8       	ldi	r26, 0x85	; 133
    2a1e:	b1 e4       	ldi	r27, 0x41	; 65
    2a20:	8c 91       	ld	r24, X
    2a22:	87 7f       	andi	r24, 0xF7	; 247
    2a24:	8c 93       	st	X, r24
    2a26:	82 e0       	ldi	r24, 0x02	; 2
    2a28:	1b 96       	adiw	r26, 0x0b	; 11
    2a2a:	8c 93       	st	X, r24
    2a2c:	1b 97       	sbiw	r26, 0x0b	; 11
    2a2e:	50 96       	adiw	r26, 0x10	; 16
    2a30:	ed 91       	ld	r30, X+
    2a32:	fc 91       	ld	r31, X
    2a34:	51 97       	sbiw	r26, 0x11	; 17
    2a36:	5c 96       	adiw	r26, 0x1c	; 28
    2a38:	8d 91       	ld	r24, X+
    2a3a:	9c 91       	ld	r25, X
    2a3c:	5d 97       	sbiw	r26, 0x1d	; 29
    2a3e:	09 95       	icall
    2a40:	82 30       	cpi	r24, 0x02	; 2
    2a42:	19 f0       	breq	.+6      	; 0x2a4a <I2C_0_do_I2C_DO_ADDRESS_NACK+0x2e>
    2a44:	83 30       	cpi	r24, 0x03	; 3
    2a46:	21 f0       	breq	.+8      	; 0x2a50 <I2C_0_do_I2C_DO_ADDRESS_NACK+0x34>
    2a48:	06 c0       	rjmp	.+12     	; 0x2a56 <I2C_0_do_I2C_DO_ADDRESS_NACK+0x3a>
    2a4a:	0e 94 fd 14 	call	0x29fa	; 0x29fa <I2C_0_do_I2C_SEND_RESTART_READ>
    2a4e:	08 95       	ret
    2a50:	0e 94 0b 15 	call	0x2a16	; 0x2a16 <I2C_0_do_I2C_SEND_RESTART_WRITE>
    2a54:	08 95       	ret
    2a56:	0e 94 e4 14 	call	0x29c8	; 0x29c8 <I2C_0_do_I2C_SEND_STOP>
    2a5a:	08 95       	ret

00002a5c <I2C_0_do_I2C_RX_DO_ACK>:
    2a5c:	e0 e2       	ldi	r30, 0x20	; 32
    2a5e:	f9 e0       	ldi	r31, 0x09	; 9
    2a60:	84 81       	ldd	r24, Z+4	; 0x04
    2a62:	8b 7f       	andi	r24, 0xFB	; 251
    2a64:	84 83       	std	Z+4, r24	; 0x04
    2a66:	84 e0       	ldi	r24, 0x04	; 4
    2a68:	08 95       	ret

00002a6a <I2C_0_do_I2C_TX_DO_ACK>:
    2a6a:	e0 e2       	ldi	r30, 0x20	; 32
    2a6c:	f9 e0       	ldi	r31, 0x09	; 9
    2a6e:	84 81       	ldd	r24, Z+4	; 0x04
    2a70:	8b 7f       	andi	r24, 0xFB	; 251
    2a72:	84 83       	std	Z+4, r24	; 0x04
    2a74:	83 e0       	ldi	r24, 0x03	; 3
    2a76:	08 95       	ret

00002a78 <I2C_0_do_I2C_DO_NACK_STOP>:
    2a78:	e0 e2       	ldi	r30, 0x20	; 32
    2a7a:	f9 e0       	ldi	r31, 0x09	; 9
    2a7c:	84 81       	ldd	r24, Z+4	; 0x04
    2a7e:	84 60       	ori	r24, 0x04	; 4
    2a80:	84 83       	std	Z+4, r24	; 0x04
    2a82:	84 81       	ldd	r24, Z+4	; 0x04
    2a84:	83 60       	ori	r24, 0x03	; 3
    2a86:	84 83       	std	Z+4, r24	; 0x04
    2a88:	0e 94 dc 14 	call	0x29b8	; 0x29b8 <I2C_0_do_I2C_IDLE>
    2a8c:	08 95       	ret

00002a8e <I2C_0_do_I2C_DO_NACK_RESTART>:
    2a8e:	e0 e2       	ldi	r30, 0x20	; 32
    2a90:	f9 e0       	ldi	r31, 0x09	; 9
    2a92:	84 81       	ldd	r24, Z+4	; 0x04
    2a94:	84 60       	ori	r24, 0x04	; 4
    2a96:	84 83       	std	Z+4, r24	; 0x04
    2a98:	88 e0       	ldi	r24, 0x08	; 8
    2a9a:	08 95       	ret

00002a9c <I2C_0_do_I2C_TX>:
    2a9c:	80 91 25 09 	lds	r24, 0x0925	; 0x800925 <__TEXT_REGION_LENGTH__+0x7e0925>
    2aa0:	84 ff       	sbrs	r24, 4
    2aa2:	19 c0       	rjmp	.+50     	; 0x2ad6 <I2C_0_do_I2C_TX+0x3a>
    2aa4:	a5 e8       	ldi	r26, 0x85	; 133
    2aa6:	b1 e4       	ldi	r27, 0x41	; 65
    2aa8:	52 96       	adiw	r26, 0x12	; 18
    2aaa:	ed 91       	ld	r30, X+
    2aac:	fc 91       	ld	r31, X
    2aae:	53 97       	sbiw	r26, 0x13	; 19
    2ab0:	5e 96       	adiw	r26, 0x1e	; 30
    2ab2:	8d 91       	ld	r24, X+
    2ab4:	9c 91       	ld	r25, X
    2ab6:	5f 97       	sbiw	r26, 0x1f	; 31
    2ab8:	09 95       	icall
    2aba:	82 30       	cpi	r24, 0x02	; 2
    2abc:	19 f0       	breq	.+6      	; 0x2ac4 <I2C_0_do_I2C_TX+0x28>
    2abe:	83 30       	cpi	r24, 0x03	; 3
    2ac0:	21 f0       	breq	.+8      	; 0x2aca <I2C_0_do_I2C_TX+0x2e>
    2ac2:	06 c0       	rjmp	.+12     	; 0x2ad0 <I2C_0_do_I2C_TX+0x34>
    2ac4:	0e 94 fd 14 	call	0x29fa	; 0x29fa <I2C_0_do_I2C_SEND_RESTART_READ>
    2ac8:	08 95       	ret
    2aca:	0e 94 0b 15 	call	0x2a16	; 0x2a16 <I2C_0_do_I2C_SEND_RESTART_WRITE>
    2ace:	08 95       	ret
    2ad0:	0e 94 e4 14 	call	0x29c8	; 0x29c8 <I2C_0_do_I2C_SEND_STOP>
    2ad4:	08 95       	ret
    2ad6:	e5 e8       	ldi	r30, 0x85	; 133
    2ad8:	f1 e4       	ldi	r31, 0x41	; 65
    2ada:	80 81       	ld	r24, Z
    2adc:	87 7f       	andi	r24, 0xF7	; 247
    2ade:	80 83       	st	Z, r24
    2ae0:	a2 81       	ldd	r26, Z+2	; 0x02
    2ae2:	b3 81       	ldd	r27, Z+3	; 0x03
    2ae4:	cd 01       	movw	r24, r26
    2ae6:	01 96       	adiw	r24, 0x01	; 1
    2ae8:	82 83       	std	Z+2, r24	; 0x02
    2aea:	93 83       	std	Z+3, r25	; 0x03
    2aec:	8c 91       	ld	r24, X
    2aee:	80 93 28 09 	sts	0x0928, r24	; 0x800928 <__TEXT_REGION_LENGTH__+0x7e0928>
    2af2:	84 81       	ldd	r24, Z+4	; 0x04
    2af4:	95 81       	ldd	r25, Z+5	; 0x05
    2af6:	01 97       	sbiw	r24, 0x01	; 1
    2af8:	84 83       	std	Z+4, r24	; 0x04
    2afa:	95 83       	std	Z+5, r25	; 0x05
    2afc:	89 2b       	or	r24, r25
    2afe:	11 f0       	breq	.+4      	; 0x2b04 <I2C_0_do_I2C_TX+0x68>
    2b00:	83 e0       	ldi	r24, 0x03	; 3
    2b02:	08 95       	ret
    2b04:	85 e0       	ldi	r24, 0x05	; 5
    2b06:	08 95       	ret

00002b08 <I2C_0_do_I2C_RX>:
    2b08:	cf 93       	push	r28
    2b0a:	df 93       	push	r29
    2b0c:	e5 e8       	ldi	r30, 0x85	; 133
    2b0e:	f1 e4       	ldi	r31, 0x41	; 65
    2b10:	80 81       	ld	r24, Z
    2b12:	87 7f       	andi	r24, 0xF7	; 247
    2b14:	80 83       	st	Z, r24
    2b16:	84 81       	ldd	r24, Z+4	; 0x04
    2b18:	95 81       	ldd	r25, Z+5	; 0x05
    2b1a:	01 97       	sbiw	r24, 0x01	; 1
    2b1c:	31 f4       	brne	.+12     	; 0x2b2a <I2C_0_do_I2C_RX+0x22>
    2b1e:	e0 e2       	ldi	r30, 0x20	; 32
    2b20:	f9 e0       	ldi	r31, 0x09	; 9
    2b22:	84 81       	ldd	r24, Z+4	; 0x04
    2b24:	84 60       	ori	r24, 0x04	; 4
    2b26:	84 83       	std	Z+4, r24	; 0x04
    2b28:	05 c0       	rjmp	.+10     	; 0x2b34 <I2C_0_do_I2C_RX+0x2c>
    2b2a:	e0 e2       	ldi	r30, 0x20	; 32
    2b2c:	f9 e0       	ldi	r31, 0x09	; 9
    2b2e:	84 81       	ldd	r24, Z+4	; 0x04
    2b30:	8b 7f       	andi	r24, 0xFB	; 251
    2b32:	84 83       	std	Z+4, r24	; 0x04
    2b34:	e5 e8       	ldi	r30, 0x85	; 133
    2b36:	f1 e4       	ldi	r31, 0x41	; 65
    2b38:	84 81       	ldd	r24, Z+4	; 0x04
    2b3a:	95 81       	ldd	r25, Z+5	; 0x05
    2b3c:	01 97       	sbiw	r24, 0x01	; 1
    2b3e:	84 83       	std	Z+4, r24	; 0x04
    2b40:	95 83       	std	Z+5, r25	; 0x05
    2b42:	89 2b       	or	r24, r25
    2b44:	a9 f0       	breq	.+42     	; 0x2b70 <I2C_0_do_I2C_RX+0x68>
    2b46:	df 01       	movw	r26, r30
    2b48:	c2 81       	ldd	r28, Z+2	; 0x02
    2b4a:	d3 81       	ldd	r29, Z+3	; 0x03
    2b4c:	e0 e2       	ldi	r30, 0x20	; 32
    2b4e:	f9 e0       	ldi	r31, 0x09	; 9
    2b50:	80 85       	ldd	r24, Z+8	; 0x08
    2b52:	88 83       	st	Y, r24
    2b54:	12 96       	adiw	r26, 0x02	; 2
    2b56:	8d 91       	ld	r24, X+
    2b58:	9c 91       	ld	r25, X
    2b5a:	13 97       	sbiw	r26, 0x03	; 3
    2b5c:	01 96       	adiw	r24, 0x01	; 1
    2b5e:	12 96       	adiw	r26, 0x02	; 2
    2b60:	8d 93       	st	X+, r24
    2b62:	9c 93       	st	X, r25
    2b64:	13 97       	sbiw	r26, 0x03	; 3
    2b66:	84 81       	ldd	r24, Z+4	; 0x04
    2b68:	82 60       	ori	r24, 0x02	; 2
    2b6a:	84 83       	std	Z+4, r24	; 0x04
    2b6c:	84 e0       	ldi	r24, 0x04	; 4
    2b6e:	26 c0       	rjmp	.+76     	; 0x2bbc <I2C_0_do_I2C_RX+0xb4>
    2b70:	a5 e8       	ldi	r26, 0x85	; 133
    2b72:	b1 e4       	ldi	r27, 0x41	; 65
    2b74:	12 96       	adiw	r26, 0x02	; 2
    2b76:	ed 91       	ld	r30, X+
    2b78:	fc 91       	ld	r31, X
    2b7a:	13 97       	sbiw	r26, 0x03	; 3
    2b7c:	80 91 28 09 	lds	r24, 0x0928	; 0x800928 <__TEXT_REGION_LENGTH__+0x7e0928>
    2b80:	80 83       	st	Z, r24
    2b82:	12 96       	adiw	r26, 0x02	; 2
    2b84:	8d 91       	ld	r24, X+
    2b86:	9c 91       	ld	r25, X
    2b88:	13 97       	sbiw	r26, 0x03	; 3
    2b8a:	01 96       	adiw	r24, 0x01	; 1
    2b8c:	12 96       	adiw	r26, 0x02	; 2
    2b8e:	8d 93       	st	X+, r24
    2b90:	9c 93       	st	X, r25
    2b92:	13 97       	sbiw	r26, 0x03	; 3
    2b94:	8c 91       	ld	r24, X
    2b96:	84 60       	ori	r24, 0x04	; 4
    2b98:	8c 93       	st	X, r24
    2b9a:	1c 96       	adiw	r26, 0x0c	; 12
    2b9c:	ed 91       	ld	r30, X+
    2b9e:	fc 91       	ld	r31, X
    2ba0:	1d 97       	sbiw	r26, 0x0d	; 13
    2ba2:	58 96       	adiw	r26, 0x18	; 24
    2ba4:	8d 91       	ld	r24, X+
    2ba6:	9c 91       	ld	r25, X
    2ba8:	59 97       	sbiw	r26, 0x19	; 25
    2baa:	09 95       	icall
    2bac:	82 50       	subi	r24, 0x02	; 2
    2bae:	82 30       	cpi	r24, 0x02	; 2
    2bb0:	18 f4       	brcc	.+6      	; 0x2bb8 <I2C_0_do_I2C_RX+0xb0>
    2bb2:	0e 94 47 15 	call	0x2a8e	; 0x2a8e <I2C_0_do_I2C_DO_NACK_RESTART>
    2bb6:	02 c0       	rjmp	.+4      	; 0x2bbc <I2C_0_do_I2C_RX+0xb4>
    2bb8:	0e 94 3c 15 	call	0x2a78	; 0x2a78 <I2C_0_do_I2C_DO_NACK_STOP>
    2bbc:	df 91       	pop	r29
    2bbe:	cf 91       	pop	r28
    2bc0:	08 95       	ret

00002bc2 <I2C_0_do_I2C_TX_EMPTY>:
    2bc2:	80 91 25 09 	lds	r24, 0x0925	; 0x800925 <__TEXT_REGION_LENGTH__+0x7e0925>
    2bc6:	84 ff       	sbrs	r24, 4
    2bc8:	19 c0       	rjmp	.+50     	; 0x2bfc <I2C_0_do_I2C_TX_EMPTY+0x3a>
    2bca:	a5 e8       	ldi	r26, 0x85	; 133
    2bcc:	b1 e4       	ldi	r27, 0x41	; 65
    2bce:	52 96       	adiw	r26, 0x12	; 18
    2bd0:	ed 91       	ld	r30, X+
    2bd2:	fc 91       	ld	r31, X
    2bd4:	53 97       	sbiw	r26, 0x13	; 19
    2bd6:	5e 96       	adiw	r26, 0x1e	; 30
    2bd8:	8d 91       	ld	r24, X+
    2bda:	9c 91       	ld	r25, X
    2bdc:	5f 97       	sbiw	r26, 0x1f	; 31
    2bde:	09 95       	icall
    2be0:	82 30       	cpi	r24, 0x02	; 2
    2be2:	19 f0       	breq	.+6      	; 0x2bea <I2C_0_do_I2C_TX_EMPTY+0x28>
    2be4:	83 30       	cpi	r24, 0x03	; 3
    2be6:	21 f0       	breq	.+8      	; 0x2bf0 <I2C_0_do_I2C_TX_EMPTY+0x2e>
    2be8:	06 c0       	rjmp	.+12     	; 0x2bf6 <I2C_0_do_I2C_TX_EMPTY+0x34>
    2bea:	0e 94 fd 14 	call	0x29fa	; 0x29fa <I2C_0_do_I2C_SEND_RESTART_READ>
    2bee:	08 95       	ret
    2bf0:	0e 94 0b 15 	call	0x2a16	; 0x2a16 <I2C_0_do_I2C_SEND_RESTART_WRITE>
    2bf4:	08 95       	ret
    2bf6:	0e 94 e4 14 	call	0x29c8	; 0x29c8 <I2C_0_do_I2C_SEND_STOP>
    2bfa:	08 95       	ret
    2bfc:	a5 e8       	ldi	r26, 0x85	; 133
    2bfe:	b1 e4       	ldi	r27, 0x41	; 65
    2c00:	8c 91       	ld	r24, X
    2c02:	84 60       	ori	r24, 0x04	; 4
    2c04:	8c 93       	st	X, r24
    2c06:	1c 96       	adiw	r26, 0x0c	; 12
    2c08:	ed 91       	ld	r30, X+
    2c0a:	fc 91       	ld	r31, X
    2c0c:	1d 97       	sbiw	r26, 0x0d	; 13
    2c0e:	58 96       	adiw	r26, 0x18	; 24
    2c10:	8d 91       	ld	r24, X+
    2c12:	9c 91       	ld	r25, X
    2c14:	59 97       	sbiw	r26, 0x19	; 25
    2c16:	09 95       	icall
    2c18:	83 30       	cpi	r24, 0x03	; 3
    2c1a:	39 f0       	breq	.+14     	; 0x2c2a <I2C_0_do_I2C_TX_EMPTY+0x68>
    2c1c:	84 30       	cpi	r24, 0x04	; 4
    2c1e:	41 f0       	breq	.+16     	; 0x2c30 <I2C_0_do_I2C_TX_EMPTY+0x6e>
    2c20:	82 30       	cpi	r24, 0x02	; 2
    2c22:	49 f4       	brne	.+18     	; 0x2c36 <I2C_0_do_I2C_TX_EMPTY+0x74>
    2c24:	0e 94 fd 14 	call	0x29fa	; 0x29fa <I2C_0_do_I2C_SEND_RESTART_READ>
    2c28:	08 95       	ret
    2c2a:	0e 94 0b 15 	call	0x2a16	; 0x2a16 <I2C_0_do_I2C_SEND_RESTART_WRITE>
    2c2e:	08 95       	ret
    2c30:	0e 94 4e 15 	call	0x2a9c	; 0x2a9c <I2C_0_do_I2C_TX>
    2c34:	08 95       	ret
    2c36:	0e 94 e4 14 	call	0x29c8	; 0x29c8 <I2C_0_do_I2C_SEND_STOP>
    2c3a:	08 95       	ret

00002c3c <I2C_0_do_I2C_BUS_COLLISION>:
    2c3c:	e0 e2       	ldi	r30, 0x20	; 32
    2c3e:	f9 e0       	ldi	r31, 0x09	; 9
    2c40:	85 81       	ldd	r24, Z+5	; 0x05
    2c42:	88 60       	ori	r24, 0x08	; 8
    2c44:	85 83       	std	Z+5, r24	; 0x05
    2c46:	a5 e8       	ldi	r26, 0x85	; 133
    2c48:	b1 e4       	ldi	r27, 0x41	; 65
    2c4a:	82 e0       	ldi	r24, 0x02	; 2
    2c4c:	1b 96       	adiw	r26, 0x0b	; 11
    2c4e:	8c 93       	st	X, r24
    2c50:	1b 97       	sbiw	r26, 0x0b	; 11
    2c52:	1e 96       	adiw	r26, 0x0e	; 14
    2c54:	ed 91       	ld	r30, X+
    2c56:	fc 91       	ld	r31, X
    2c58:	1f 97       	sbiw	r26, 0x0f	; 15
    2c5a:	5a 96       	adiw	r26, 0x1a	; 26
    2c5c:	8d 91       	ld	r24, X+
    2c5e:	9c 91       	ld	r25, X
    2c60:	5b 97       	sbiw	r26, 0x1b	; 27
    2c62:	09 95       	icall
    2c64:	82 30       	cpi	r24, 0x02	; 2
    2c66:	19 f0       	breq	.+6      	; 0x2c6e <I2C_0_do_I2C_BUS_COLLISION+0x32>
    2c68:	83 30       	cpi	r24, 0x03	; 3
    2c6a:	21 f0       	breq	.+8      	; 0x2c74 <I2C_0_do_I2C_BUS_COLLISION+0x38>
    2c6c:	06 c0       	rjmp	.+12     	; 0x2c7a <I2C_0_do_I2C_BUS_COLLISION+0x3e>
    2c6e:	0e 94 fd 14 	call	0x29fa	; 0x29fa <I2C_0_do_I2C_SEND_RESTART_READ>
    2c72:	08 95       	ret
    2c74:	0e 94 0b 15 	call	0x2a16	; 0x2a16 <I2C_0_do_I2C_SEND_RESTART_WRITE>
    2c78:	08 95       	ret
    2c7a:	0e 94 cc 14 	call	0x2998	; 0x2998 <I2C_0_do_I2C_RESET>
    2c7e:	08 95       	ret

00002c80 <I2C_0_do_I2C_BUS_ERROR>:
    2c80:	e0 e2       	ldi	r30, 0x20	; 32
    2c82:	f9 e0       	ldi	r31, 0x09	; 9
    2c84:	84 81       	ldd	r24, Z+4	; 0x04
    2c86:	88 60       	ori	r24, 0x08	; 8
    2c88:	84 83       	std	Z+4, r24	; 0x04
    2c8a:	85 81       	ldd	r24, Z+5	; 0x05
    2c8c:	81 60       	ori	r24, 0x01	; 1
    2c8e:	85 83       	std	Z+5, r24	; 0x05
    2c90:	e5 e8       	ldi	r30, 0x85	; 133
    2c92:	f1 e4       	ldi	r31, 0x41	; 65
    2c94:	80 81       	ld	r24, Z
    2c96:	8e 7f       	andi	r24, 0xFE	; 254
    2c98:	80 83       	st	Z, r24
    2c9a:	82 e0       	ldi	r24, 0x02	; 2
    2c9c:	83 87       	std	Z+11, r24	; 0x0b
    2c9e:	8e e0       	ldi	r24, 0x0E	; 14
    2ca0:	08 95       	ret

00002ca2 <I2C_0_master_isr>:
    2ca2:	cf 93       	push	r28
    2ca4:	df 93       	push	r29
    2ca6:	e0 e2       	ldi	r30, 0x20	; 32
    2ca8:	f9 e0       	ldi	r31, 0x09	; 9
    2caa:	85 81       	ldd	r24, Z+5	; 0x05
    2cac:	80 6c       	ori	r24, 0xC0	; 192
    2cae:	85 83       	std	Z+5, r24	; 0x05
    2cb0:	80 91 85 41 	lds	r24, 0x4185	; 0x804185 <I2C_0_status>
    2cb4:	83 ff       	sbrs	r24, 3
    2cb6:	07 c0       	rjmp	.+14     	; 0x2cc6 <I2C_0_master_isr+0x24>
    2cb8:	80 91 25 09 	lds	r24, 0x0925	; 0x800925 <__TEXT_REGION_LENGTH__+0x7e0925>
    2cbc:	84 ff       	sbrs	r24, 4
    2cbe:	03 c0       	rjmp	.+6      	; 0x2cc6 <I2C_0_master_isr+0x24>
    2cc0:	8f e0       	ldi	r24, 0x0F	; 15
    2cc2:	80 93 8f 41 	sts	0x418F, r24	; 0x80418f <I2C_0_status+0xa>
    2cc6:	80 91 25 09 	lds	r24, 0x0925	; 0x800925 <__TEXT_REGION_LENGTH__+0x7e0925>
    2cca:	83 ff       	sbrs	r24, 3
    2ccc:	03 c0       	rjmp	.+6      	; 0x2cd4 <I2C_0_master_isr+0x32>
    2cce:	80 e1       	ldi	r24, 0x10	; 16
    2cd0:	80 93 8f 41 	sts	0x418F, r24	; 0x80418f <I2C_0_status+0xa>
    2cd4:	80 91 25 09 	lds	r24, 0x0925	; 0x800925 <__TEXT_REGION_LENGTH__+0x7e0925>
    2cd8:	82 ff       	sbrs	r24, 2
    2cda:	03 c0       	rjmp	.+6      	; 0x2ce2 <I2C_0_master_isr+0x40>
    2cdc:	81 e1       	ldi	r24, 0x11	; 17
    2cde:	80 93 8f 41 	sts	0x418F, r24	; 0x80418f <I2C_0_status+0xa>
    2ce2:	c5 e8       	ldi	r28, 0x85	; 133
    2ce4:	d1 e4       	ldi	r29, 0x41	; 65
    2ce6:	ea 85       	ldd	r30, Y+10	; 0x0a
    2ce8:	f0 e0       	ldi	r31, 0x00	; 0
    2cea:	ee 0f       	add	r30, r30
    2cec:	ff 1f       	adc	r31, r31
    2cee:	ea 5f       	subi	r30, 0xFA	; 250
    2cf0:	ff 4b       	sbci	r31, 0xBF	; 191
    2cf2:	01 90       	ld	r0, Z+
    2cf4:	f0 81       	ld	r31, Z
    2cf6:	e0 2d       	mov	r30, r0
    2cf8:	09 95       	icall
    2cfa:	8a 87       	std	Y+10, r24	; 0x0a
    2cfc:	df 91       	pop	r29
    2cfe:	cf 91       	pop	r28
    2d00:	08 95       	ret

00002d02 <I2C_0_return_stop>:
    2d02:	81 e0       	ldi	r24, 0x01	; 1
    2d04:	08 95       	ret

00002d06 <I2C_0_return_reset>:
    2d06:	85 e0       	ldi	r24, 0x05	; 5
    2d08:	08 95       	ret

00002d0a <I2C_0_set_callback>:
    2d0a:	61 15       	cp	r22, r1
    2d0c:	71 05       	cpc	r23, r1
    2d0e:	91 f0       	breq	.+36     	; 0x2d34 <I2C_0_set_callback+0x2a>
    2d10:	90 e0       	ldi	r25, 0x00	; 0
    2d12:	fc 01       	movw	r30, r24
    2d14:	36 96       	adiw	r30, 0x06	; 6
    2d16:	ee 0f       	add	r30, r30
    2d18:	ff 1f       	adc	r31, r31
    2d1a:	eb 57       	subi	r30, 0x7B	; 123
    2d1c:	fe 4b       	sbci	r31, 0xBE	; 190
    2d1e:	60 83       	st	Z, r22
    2d20:	71 83       	std	Z+1, r23	; 0x01
    2d22:	fc 01       	movw	r30, r24
    2d24:	3c 96       	adiw	r30, 0x0c	; 12
    2d26:	ee 0f       	add	r30, r30
    2d28:	ff 1f       	adc	r31, r31
    2d2a:	eb 57       	subi	r30, 0x7B	; 123
    2d2c:	fe 4b       	sbci	r31, 0xBE	; 190
    2d2e:	40 83       	st	Z, r20
    2d30:	51 83       	std	Z+1, r21	; 0x01
    2d32:	08 95       	ret
    2d34:	90 e0       	ldi	r25, 0x00	; 0
    2d36:	fc 01       	movw	r30, r24
    2d38:	36 96       	adiw	r30, 0x06	; 6
    2d3a:	ee 0f       	add	r30, r30
    2d3c:	ff 1f       	adc	r31, r31
    2d3e:	eb 57       	subi	r30, 0x7B	; 123
    2d40:	fe 4b       	sbci	r31, 0xBE	; 190
    2d42:	21 e8       	ldi	r18, 0x81	; 129
    2d44:	36 e1       	ldi	r19, 0x16	; 22
    2d46:	20 83       	st	Z, r18
    2d48:	31 83       	std	Z+1, r19	; 0x01
    2d4a:	fc 01       	movw	r30, r24
    2d4c:	3c 96       	adiw	r30, 0x0c	; 12
    2d4e:	ee 0f       	add	r30, r30
    2d50:	ff 1f       	adc	r31, r31
    2d52:	eb 57       	subi	r30, 0x7B	; 123
    2d54:	fe 4b       	sbci	r31, 0xBE	; 190
    2d56:	10 82       	st	Z, r1
    2d58:	11 82       	std	Z+1, r1	; 0x01
    2d5a:	08 95       	ret

00002d5c <I2C_0_set_data_complete_callback>:
    2d5c:	ab 01       	movw	r20, r22
    2d5e:	bc 01       	movw	r22, r24
    2d60:	80 e0       	ldi	r24, 0x00	; 0
    2d62:	0e 94 85 16 	call	0x2d0a	; 0x2d0a <I2C_0_set_callback>
    2d66:	08 95       	ret

00002d68 <I2C_0_set_address_nack_callback>:
    2d68:	ab 01       	movw	r20, r22
    2d6a:	bc 01       	movw	r22, r24
    2d6c:	82 e0       	ldi	r24, 0x02	; 2
    2d6e:	0e 94 85 16 	call	0x2d0a	; 0x2d0a <I2C_0_set_callback>
    2d72:	08 95       	ret

00002d74 <I2C_0_init>:
    2d74:	e0 e2       	ldi	r30, 0x20	; 32
    2d76:	f9 e0       	ldi	r31, 0x09	; 9
    2d78:	84 e4       	ldi	r24, 0x44	; 68
    2d7a:	86 83       	std	Z+6, r24	; 0x06
    2d7c:	81 ec       	ldi	r24, 0xC1	; 193
    2d7e:	83 83       	std	Z+3, r24	; 0x03
    2d80:	08 95       	ret

00002d82 <I2C_0_open>:
    2d82:	90 91 85 41 	lds	r25, 0x4185	; 0x804185 <I2C_0_status>
    2d86:	91 fd       	sbrc	r25, 1
    2d88:	37 c0       	rjmp	.+110    	; 0x2df8 <I2C_0_open+0x76>
    2d8a:	e5 e8       	ldi	r30, 0x85	; 133
    2d8c:	f1 e4       	ldi	r31, 0x41	; 65
    2d8e:	81 83       	std	Z+1, r24	; 0x01
    2d90:	89 2f       	mov	r24, r25
    2d92:	8e 7f       	andi	r24, 0xFE	; 254
    2d94:	82 60       	ori	r24, 0x02	; 2
    2d96:	9e e0       	ldi	r25, 0x0E	; 14
    2d98:	92 87       	std	Z+10, r25	; 0x0a
    2d9a:	24 ef       	ldi	r18, 0xF4	; 244
    2d9c:	31 e0       	ldi	r19, 0x01	; 1
    2d9e:	20 87       	std	Z+8, r18	; 0x08
    2da0:	31 87       	std	Z+9, r19	; 0x09
    2da2:	87 7f       	andi	r24, 0xF7	; 247
    2da4:	84 60       	ori	r24, 0x04	; 4
    2da6:	80 83       	st	Z, r24
    2da8:	81 e8       	ldi	r24, 0x81	; 129
    2daa:	96 e1       	ldi	r25, 0x16	; 22
    2dac:	84 87       	std	Z+12, r24	; 0x0c
    2dae:	95 87       	std	Z+13, r25	; 0x0d
    2db0:	10 8e       	std	Z+24, r1	; 0x18
    2db2:	11 8e       	std	Z+25, r1	; 0x19
    2db4:	86 87       	std	Z+14, r24	; 0x0e
    2db6:	97 87       	std	Z+15, r25	; 0x0f
    2db8:	12 8e       	std	Z+26, r1	; 0x1a
    2dba:	13 8e       	std	Z+27, r1	; 0x1b
    2dbc:	80 8b       	std	Z+16, r24	; 0x10
    2dbe:	91 8b       	std	Z+17, r25	; 0x11
    2dc0:	14 8e       	std	Z+28, r1	; 0x1c
    2dc2:	15 8e       	std	Z+29, r1	; 0x1d
    2dc4:	82 8b       	std	Z+18, r24	; 0x12
    2dc6:	93 8b       	std	Z+19, r25	; 0x13
    2dc8:	16 8e       	std	Z+30, r1	; 0x1e
    2dca:	17 8e       	std	Z+31, r1	; 0x1f
    2dcc:	83 e8       	ldi	r24, 0x83	; 131
    2dce:	96 e1       	ldi	r25, 0x16	; 22
    2dd0:	84 8b       	std	Z+20, r24	; 0x14
    2dd2:	95 8b       	std	Z+21, r25	; 0x15
    2dd4:	10 a2       	std	Z+32, r1	; 0x20
    2dd6:	11 a2       	std	Z+33, r1	; 0x21
    2dd8:	e0 e2       	ldi	r30, 0x20	; 32
    2dda:	f9 e0       	ldi	r31, 0x09	; 9
    2ddc:	84 81       	ldd	r24, Z+4	; 0x04
    2dde:	88 60       	ori	r24, 0x08	; 8
    2de0:	84 83       	std	Z+4, r24	; 0x04
    2de2:	85 81       	ldd	r24, Z+5	; 0x05
    2de4:	81 60       	ori	r24, 0x01	; 1
    2de6:	85 83       	std	Z+5, r24	; 0x05
    2de8:	85 81       	ldd	r24, Z+5	; 0x05
    2dea:	80 6c       	ori	r24, 0xC0	; 192
    2dec:	85 83       	std	Z+5, r24	; 0x05
    2dee:	83 81       	ldd	r24, Z+3	; 0x03
    2df0:	80 6c       	ori	r24, 0xC0	; 192
    2df2:	83 83       	std	Z+3, r24	; 0x03
    2df4:	80 e0       	ldi	r24, 0x00	; 0
    2df6:	08 95       	ret
    2df8:	81 e0       	ldi	r24, 0x01	; 1
    2dfa:	08 95       	ret

00002dfc <I2C_0_close>:
    2dfc:	80 91 25 09 	lds	r24, 0x0925	; 0x800925 <__TEXT_REGION_LENGTH__+0x7e0925>
    2e00:	82 ff       	sbrs	r24, 2
    2e02:	07 c0       	rjmp	.+14     	; 0x2e12 <I2C_0_close+0x16>
    2e04:	e5 e8       	ldi	r30, 0x85	; 133
    2e06:	f1 e4       	ldi	r31, 0x41	; 65
    2e08:	80 81       	ld	r24, Z
    2e0a:	8e 7f       	andi	r24, 0xFE	; 254
    2e0c:	80 83       	st	Z, r24
    2e0e:	82 e0       	ldi	r24, 0x02	; 2
    2e10:	83 87       	std	Z+11, r24	; 0x0b
    2e12:	80 91 85 41 	lds	r24, 0x4185	; 0x804185 <I2C_0_status>
    2e16:	80 fd       	sbrc	r24, 0
    2e18:	17 c0       	rjmp	.+46     	; 0x2e48 <I2C_0_close+0x4c>
    2e1a:	e5 e8       	ldi	r30, 0x85	; 133
    2e1c:	f1 e4       	ldi	r31, 0x41	; 65
    2e1e:	8d 7f       	andi	r24, 0xFD	; 253
    2e20:	80 83       	st	Z, r24
    2e22:	8f ef       	ldi	r24, 0xFF	; 255
    2e24:	81 83       	std	Z+1, r24	; 0x01
    2e26:	a0 e2       	ldi	r26, 0x20	; 32
    2e28:	b9 e0       	ldi	r27, 0x09	; 9
    2e2a:	15 96       	adiw	r26, 0x05	; 5
    2e2c:	8c 91       	ld	r24, X
    2e2e:	15 97       	sbiw	r26, 0x05	; 5
    2e30:	80 6c       	ori	r24, 0xC0	; 192
    2e32:	15 96       	adiw	r26, 0x05	; 5
    2e34:	8c 93       	st	X, r24
    2e36:	15 97       	sbiw	r26, 0x05	; 5
    2e38:	13 96       	adiw	r26, 0x03	; 3
    2e3a:	8c 91       	ld	r24, X
    2e3c:	13 97       	sbiw	r26, 0x03	; 3
    2e3e:	8f 73       	andi	r24, 0x3F	; 63
    2e40:	13 96       	adiw	r26, 0x03	; 3
    2e42:	8c 93       	st	X, r24
    2e44:	83 85       	ldd	r24, Z+11	; 0x0b
    2e46:	08 95       	ret
    2e48:	81 e0       	ldi	r24, 0x01	; 1
    2e4a:	08 95       	ret

00002e4c <I2C_0_set_buffer>:
    2e4c:	9c 01       	movw	r18, r24
    2e4e:	90 91 85 41 	lds	r25, 0x4185	; 0x804185 <I2C_0_status>
    2e52:	92 ff       	sbrs	r25, 2
    2e54:	09 c0       	rjmp	.+18     	; 0x2e68 <I2C_0_set_buffer+0x1c>
    2e56:	e5 e8       	ldi	r30, 0x85	; 133
    2e58:	f1 e4       	ldi	r31, 0x41	; 65
    2e5a:	22 83       	std	Z+2, r18	; 0x02
    2e5c:	33 83       	std	Z+3, r19	; 0x03
    2e5e:	64 83       	std	Z+4, r22	; 0x04
    2e60:	75 83       	std	Z+5, r23	; 0x05
    2e62:	89 2f       	mov	r24, r25
    2e64:	8b 7f       	andi	r24, 0xFB	; 251
    2e66:	80 83       	st	Z, r24
    2e68:	08 95       	ret

00002e6a <I2C_0_master_operation>:
    2e6a:	90 91 85 41 	lds	r25, 0x4185	; 0x804185 <I2C_0_status>
    2e6e:	90 fd       	sbrc	r25, 0
    2e70:	11 c0       	rjmp	.+34     	; 0x2e94 <I2C_0_master_operation+0x2a>
    2e72:	e5 e8       	ldi	r30, 0x85	; 133
    2e74:	f1 e4       	ldi	r31, 0x41	; 65
    2e76:	91 60       	ori	r25, 0x01	; 1
    2e78:	90 83       	st	Z, r25
    2e7a:	88 23       	and	r24, r24
    2e7c:	21 f0       	breq	.+8      	; 0x2e86 <I2C_0_master_operation+0x1c>
    2e7e:	81 e0       	ldi	r24, 0x01	; 1
    2e80:	80 93 8f 41 	sts	0x418F, r24	; 0x80418f <I2C_0_status+0xa>
    2e84:	03 c0       	rjmp	.+6      	; 0x2e8c <I2C_0_master_operation+0x22>
    2e86:	82 e0       	ldi	r24, 0x02	; 2
    2e88:	80 93 8f 41 	sts	0x418F, r24	; 0x80418f <I2C_0_status+0xa>
    2e8c:	0e 94 51 16 	call	0x2ca2	; 0x2ca2 <I2C_0_master_isr>
    2e90:	80 e0       	ldi	r24, 0x00	; 0
    2e92:	08 95       	ret
    2e94:	81 e0       	ldi	r24, 0x01	; 1
    2e96:	08 95       	ret

00002e98 <I2C_0_master_write>:
    2e98:	80 e0       	ldi	r24, 0x00	; 0
    2e9a:	0e 94 35 17 	call	0x2e6a	; 0x2e6a <I2C_0_master_operation>
    2e9e:	08 95       	ret

00002ea0 <__vector_43>:
    2ea0:	1f 92       	push	r1
    2ea2:	0f 92       	push	r0
    2ea4:	0f b6       	in	r0, 0x3f	; 63
    2ea6:	0f 92       	push	r0
    2ea8:	11 24       	eor	r1, r1
    2eaa:	0b b6       	in	r0, 0x3b	; 59
    2eac:	0f 92       	push	r0
    2eae:	2f 93       	push	r18
    2eb0:	3f 93       	push	r19
    2eb2:	4f 93       	push	r20
    2eb4:	5f 93       	push	r21
    2eb6:	6f 93       	push	r22
    2eb8:	7f 93       	push	r23
    2eba:	8f 93       	push	r24
    2ebc:	9f 93       	push	r25
    2ebe:	af 93       	push	r26
    2ec0:	bf 93       	push	r27
    2ec2:	ef 93       	push	r30
    2ec4:	ff 93       	push	r31
    2ec6:	0e 94 51 16 	call	0x2ca2	; 0x2ca2 <I2C_0_master_isr>
    2eca:	ff 91       	pop	r31
    2ecc:	ef 91       	pop	r30
    2ece:	bf 91       	pop	r27
    2ed0:	af 91       	pop	r26
    2ed2:	9f 91       	pop	r25
    2ed4:	8f 91       	pop	r24
    2ed6:	7f 91       	pop	r23
    2ed8:	6f 91       	pop	r22
    2eda:	5f 91       	pop	r21
    2edc:	4f 91       	pop	r20
    2ede:	3f 91       	pop	r19
    2ee0:	2f 91       	pop	r18
    2ee2:	0f 90       	pop	r0
    2ee4:	0b be       	out	0x3b, r0	; 59
    2ee6:	0f 90       	pop	r0
    2ee8:	0f be       	out	0x3f, r0	; 63
    2eea:	0f 90       	pop	r0
    2eec:	1f 90       	pop	r1
    2eee:	18 95       	reti

00002ef0 <I2C_0_wr1RegCompleteHandler>:
    2ef0:	61 e0       	ldi	r22, 0x01	; 1
    2ef2:	70 e0       	ldi	r23, 0x00	; 0
    2ef4:	0e 94 26 17 	call	0x2e4c	; 0x2e4c <I2C_0_set_buffer>
    2ef8:	60 e0       	ldi	r22, 0x00	; 0
    2efa:	70 e0       	ldi	r23, 0x00	; 0
    2efc:	80 e0       	ldi	r24, 0x00	; 0
    2efe:	90 e0       	ldi	r25, 0x00	; 0
    2f00:	0e 94 ae 16 	call	0x2d5c	; 0x2d5c <I2C_0_set_data_complete_callback>
    2f04:	84 e0       	ldi	r24, 0x04	; 4
    2f06:	08 95       	ret

00002f08 <I2C_0_rd1RegCompleteHandler>:
    2f08:	61 e0       	ldi	r22, 0x01	; 1
    2f0a:	70 e0       	ldi	r23, 0x00	; 0
    2f0c:	0e 94 26 17 	call	0x2e4c	; 0x2e4c <I2C_0_set_buffer>
    2f10:	60 e0       	ldi	r22, 0x00	; 0
    2f12:	70 e0       	ldi	r23, 0x00	; 0
    2f14:	80 e0       	ldi	r24, 0x00	; 0
    2f16:	90 e0       	ldi	r25, 0x00	; 0
    2f18:	0e 94 ae 16 	call	0x2d5c	; 0x2d5c <I2C_0_set_data_complete_callback>
    2f1c:	82 e0       	ldi	r24, 0x02	; 2
    2f1e:	08 95       	ret

00002f20 <I2C_0_write1ByteRegister>:
    2f20:	ff 92       	push	r15
    2f22:	0f 93       	push	r16
    2f24:	1f 93       	push	r17
    2f26:	cf 93       	push	r28
    2f28:	df 93       	push	r29
    2f2a:	00 d0       	rcall	.+0      	; 0x2f2c <I2C_0_write1ByteRegister+0xc>
    2f2c:	cd b7       	in	r28, 0x3d	; 61
    2f2e:	de b7       	in	r29, 0x3e	; 62
    2f30:	f8 2e       	mov	r15, r24
    2f32:	69 83       	std	Y+1, r22	; 0x01
    2f34:	4a 83       	std	Y+2, r20	; 0x02
    2f36:	00 e1       	ldi	r16, 0x10	; 16
    2f38:	17 e2       	ldi	r17, 0x27	; 39
    2f3a:	8f 2d       	mov	r24, r15
    2f3c:	0e 94 c1 16 	call	0x2d82	; 0x2d82 <I2C_0_open>
    2f40:	81 30       	cpi	r24, 0x01	; 1
    2f42:	19 f4       	brne	.+6      	; 0x2f4a <I2C_0_write1ByteRegister+0x2a>
    2f44:	01 50       	subi	r16, 0x01	; 1
    2f46:	11 09       	sbc	r17, r1
    2f48:	c1 f7       	brne	.-16     	; 0x2f3a <I2C_0_write1ByteRegister+0x1a>
    2f4a:	01 2b       	or	r16, r17
    2f4c:	11 f1       	breq	.+68     	; 0x2f92 <I2C_0_write1ByteRegister+0x72>
    2f4e:	be 01       	movw	r22, r28
    2f50:	6e 5f       	subi	r22, 0xFE	; 254
    2f52:	7f 4f       	sbci	r23, 0xFF	; 255
    2f54:	88 e7       	ldi	r24, 0x78	; 120
    2f56:	97 e1       	ldi	r25, 0x17	; 23
    2f58:	0e 94 ae 16 	call	0x2d5c	; 0x2d5c <I2C_0_set_data_complete_callback>
    2f5c:	61 e0       	ldi	r22, 0x01	; 1
    2f5e:	70 e0       	ldi	r23, 0x00	; 0
    2f60:	ce 01       	movw	r24, r28
    2f62:	01 96       	adiw	r24, 0x01	; 1
    2f64:	0e 94 26 17 	call	0x2e4c	; 0x2e4c <I2C_0_set_buffer>
    2f68:	60 e0       	ldi	r22, 0x00	; 0
    2f6a:	70 e0       	ldi	r23, 0x00	; 0
    2f6c:	84 e1       	ldi	r24, 0x14	; 20
    2f6e:	98 e1       	ldi	r25, 0x18	; 24
    2f70:	0e 94 b4 16 	call	0x2d68	; 0x2d68 <I2C_0_set_address_nack_callback>
    2f74:	0e 94 4c 17 	call	0x2e98	; 0x2e98 <I2C_0_master_write>
    2f78:	00 e1       	ldi	r16, 0x10	; 16
    2f7a:	17 e2       	ldi	r17, 0x27	; 39
    2f7c:	0e 94 fe 16 	call	0x2dfc	; 0x2dfc <I2C_0_close>
    2f80:	81 30       	cpi	r24, 0x01	; 1
    2f82:	19 f4       	brne	.+6      	; 0x2f8a <I2C_0_write1ByteRegister+0x6a>
    2f84:	01 50       	subi	r16, 0x01	; 1
    2f86:	11 09       	sbc	r17, r1
    2f88:	c9 f7       	brne	.-14     	; 0x2f7c <I2C_0_write1ByteRegister+0x5c>
    2f8a:	01 2b       	or	r16, r17
    2f8c:	21 f4       	brne	.+8      	; 0x2f96 <I2C_0_write1ByteRegister+0x76>
    2f8e:	82 e0       	ldi	r24, 0x02	; 2
    2f90:	03 c0       	rjmp	.+6      	; 0x2f98 <I2C_0_write1ByteRegister+0x78>
    2f92:	81 e0       	ldi	r24, 0x01	; 1
    2f94:	01 c0       	rjmp	.+2      	; 0x2f98 <I2C_0_write1ByteRegister+0x78>
    2f96:	80 e0       	ldi	r24, 0x00	; 0
    2f98:	0f 90       	pop	r0
    2f9a:	0f 90       	pop	r0
    2f9c:	df 91       	pop	r29
    2f9e:	cf 91       	pop	r28
    2fa0:	1f 91       	pop	r17
    2fa2:	0f 91       	pop	r16
    2fa4:	ff 90       	pop	r15
    2fa6:	08 95       	ret

00002fa8 <I2C_0_read1ByteRegister>:
    2fa8:	ef 92       	push	r14
    2faa:	ff 92       	push	r15
    2fac:	1f 93       	push	r17
    2fae:	cf 93       	push	r28
    2fb0:	df 93       	push	r29
    2fb2:	00 d0       	rcall	.+0      	; 0x2fb4 <I2C_0_read1ByteRegister+0xc>
    2fb4:	cd b7       	in	r28, 0x3d	; 61
    2fb6:	de b7       	in	r29, 0x3e	; 62
    2fb8:	18 2f       	mov	r17, r24
    2fba:	6a 83       	std	Y+2, r22	; 0x02
    2fbc:	8a e2       	ldi	r24, 0x2A	; 42
    2fbe:	89 83       	std	Y+1, r24	; 0x01
    2fc0:	68 94       	set
    2fc2:	ee 24       	eor	r14, r14
    2fc4:	e1 f8       	bld	r14, 1
    2fc6:	f1 2c       	mov	r15, r1
    2fc8:	23 c0       	rjmp	.+70     	; 0x3010 <I2C_0_read1ByteRegister+0x68>
    2fca:	81 2f       	mov	r24, r17
    2fcc:	0e 94 c1 16 	call	0x2d82	; 0x2d82 <I2C_0_open>
    2fd0:	88 23       	and	r24, r24
    2fd2:	d9 f3       	breq	.-10     	; 0x2fca <I2C_0_read1ByteRegister+0x22>
    2fd4:	be 01       	movw	r22, r28
    2fd6:	6f 5f       	subi	r22, 0xFF	; 255
    2fd8:	7f 4f       	sbci	r23, 0xFF	; 255
    2fda:	84 e8       	ldi	r24, 0x84	; 132
    2fdc:	97 e1       	ldi	r25, 0x17	; 23
    2fde:	0e 94 ae 16 	call	0x2d5c	; 0x2d5c <I2C_0_set_data_complete_callback>
    2fe2:	61 e0       	ldi	r22, 0x01	; 1
    2fe4:	70 e0       	ldi	r23, 0x00	; 0
    2fe6:	ce 01       	movw	r24, r28
    2fe8:	02 96       	adiw	r24, 0x02	; 2
    2fea:	0e 94 26 17 	call	0x2e4c	; 0x2e4c <I2C_0_set_buffer>
    2fee:	60 e0       	ldi	r22, 0x00	; 0
    2ff0:	70 e0       	ldi	r23, 0x00	; 0
    2ff2:	84 e1       	ldi	r24, 0x14	; 20
    2ff4:	98 e1       	ldi	r25, 0x18	; 24
    2ff6:	0e 94 b4 16 	call	0x2d68	; 0x2d68 <I2C_0_set_address_nack_callback>
    2ffa:	0e 94 4c 17 	call	0x2e98	; 0x2e98 <I2C_0_master_write>
    2ffe:	0e 94 fe 16 	call	0x2dfc	; 0x2dfc <I2C_0_close>
    3002:	81 30       	cpi	r24, 0x01	; 1
    3004:	e1 f3       	breq	.-8      	; 0x2ffe <I2C_0_read1ByteRegister+0x56>
    3006:	88 23       	and	r24, r24
    3008:	31 f0       	breq	.+12     	; 0x3016 <I2C_0_read1ByteRegister+0x6e>
    300a:	81 e0       	ldi	r24, 0x01	; 1
    300c:	e8 1a       	sub	r14, r24
    300e:	f1 08       	sbc	r15, r1
    3010:	e1 14       	cp	r14, r1
    3012:	f1 04       	cpc	r15, r1
    3014:	d1 f6       	brne	.-76     	; 0x2fca <I2C_0_read1ByteRegister+0x22>
    3016:	89 81       	ldd	r24, Y+1	; 0x01
    3018:	0f 90       	pop	r0
    301a:	0f 90       	pop	r0
    301c:	df 91       	pop	r29
    301e:	cf 91       	pop	r28
    3020:	1f 91       	pop	r17
    3022:	ff 90       	pop	r15
    3024:	ef 90       	pop	r14
    3026:	08 95       	ret

00003028 <i2c_cb_restart_write>:
    3028:	83 e0       	ldi	r24, 0x03	; 3
    302a:	08 95       	ret

0000302c <Cell_Desplay>:
    302c:	8f 92       	push	r8
    302e:	9f 92       	push	r9
    3030:	af 92       	push	r10
    3032:	bf 92       	push	r11
    3034:	ef 92       	push	r14
    3036:	ff 92       	push	r15
    3038:	0f 93       	push	r16
    303a:	1f 93       	push	r17
    303c:	cf 93       	push	r28
    303e:	df 93       	push	r29
    3040:	ce e1       	ldi	r28, 0x1E	; 30
    3042:	d1 e5       	ldi	r29, 0x51	; 81
    3044:	69 81       	ldd	r22, Y+1	; 0x01
    3046:	7a 81       	ldd	r23, Y+2	; 0x02
    3048:	8b 81       	ldd	r24, Y+3	; 0x03
    304a:	9c 81       	ldd	r25, Y+4	; 0x04
    304c:	0f 2e       	mov	r0, r31
    304e:	f0 e1       	ldi	r31, 0x10	; 16
    3050:	8f 2e       	mov	r8, r31
    3052:	f7 e2       	ldi	r31, 0x27	; 39
    3054:	9f 2e       	mov	r9, r31
    3056:	a1 2c       	mov	r10, r1
    3058:	b1 2c       	mov	r11, r1
    305a:	f0 2d       	mov	r31, r0
    305c:	a5 01       	movw	r20, r10
    305e:	94 01       	movw	r18, r8
    3060:	0e 94 b2 3b 	call	0x7764	; 0x7764 <__divmodsi4>
    3064:	e2 2e       	mov	r14, r18
    3066:	20 93 aa 41 	sts	0x41AA, r18	; 0x8041aa <Weight_10000>
    306a:	69 81       	ldd	r22, Y+1	; 0x01
    306c:	7a 81       	ldd	r23, Y+2	; 0x02
    306e:	8b 81       	ldd	r24, Y+3	; 0x03
    3070:	9c 81       	ldd	r25, Y+4	; 0x04
    3072:	a5 01       	movw	r20, r10
    3074:	94 01       	movw	r18, r8
    3076:	0e 94 b2 3b 	call	0x7764	; 0x7764 <__divmodsi4>
    307a:	0f 2e       	mov	r0, r31
    307c:	f8 ee       	ldi	r31, 0xE8	; 232
    307e:	8f 2e       	mov	r8, r31
    3080:	f3 e0       	ldi	r31, 0x03	; 3
    3082:	9f 2e       	mov	r9, r31
    3084:	a1 2c       	mov	r10, r1
    3086:	b1 2c       	mov	r11, r1
    3088:	f0 2d       	mov	r31, r0
    308a:	a5 01       	movw	r20, r10
    308c:	94 01       	movw	r18, r8
    308e:	0e 94 b2 3b 	call	0x7764	; 0x7764 <__divmodsi4>
    3092:	f2 2e       	mov	r15, r18
    3094:	20 93 7f 51 	sts	0x517F, r18	; 0x80517f <Weight_1000>
    3098:	69 81       	ldd	r22, Y+1	; 0x01
    309a:	7a 81       	ldd	r23, Y+2	; 0x02
    309c:	8b 81       	ldd	r24, Y+3	; 0x03
    309e:	9c 81       	ldd	r25, Y+4	; 0x04
    30a0:	a5 01       	movw	r20, r10
    30a2:	94 01       	movw	r18, r8
    30a4:	0e 94 b2 3b 	call	0x7764	; 0x7764 <__divmodsi4>
    30a8:	0f 2e       	mov	r0, r31
    30aa:	f4 e6       	ldi	r31, 0x64	; 100
    30ac:	8f 2e       	mov	r8, r31
    30ae:	91 2c       	mov	r9, r1
    30b0:	a1 2c       	mov	r10, r1
    30b2:	b1 2c       	mov	r11, r1
    30b4:	f0 2d       	mov	r31, r0
    30b6:	a5 01       	movw	r20, r10
    30b8:	94 01       	movw	r18, r8
    30ba:	0e 94 b2 3b 	call	0x7764	; 0x7764 <__divmodsi4>
    30be:	02 2f       	mov	r16, r18
    30c0:	20 93 71 51 	sts	0x5171, r18	; 0x805171 <Weight_100>
    30c4:	69 81       	ldd	r22, Y+1	; 0x01
    30c6:	7a 81       	ldd	r23, Y+2	; 0x02
    30c8:	8b 81       	ldd	r24, Y+3	; 0x03
    30ca:	9c 81       	ldd	r25, Y+4	; 0x04
    30cc:	a5 01       	movw	r20, r10
    30ce:	94 01       	movw	r18, r8
    30d0:	0e 94 b2 3b 	call	0x7764	; 0x7764 <__divmodsi4>
    30d4:	0f 2e       	mov	r0, r31
    30d6:	fa e0       	ldi	r31, 0x0A	; 10
    30d8:	8f 2e       	mov	r8, r31
    30da:	91 2c       	mov	r9, r1
    30dc:	a1 2c       	mov	r10, r1
    30de:	b1 2c       	mov	r11, r1
    30e0:	f0 2d       	mov	r31, r0
    30e2:	a5 01       	movw	r20, r10
    30e4:	94 01       	movw	r18, r8
    30e6:	0e 94 b2 3b 	call	0x7764	; 0x7764 <__divmodsi4>
    30ea:	12 2f       	mov	r17, r18
    30ec:	20 93 4a 51 	sts	0x514A, r18	; 0x80514a <Weight_10>
    30f0:	69 81       	ldd	r22, Y+1	; 0x01
    30f2:	7a 81       	ldd	r23, Y+2	; 0x02
    30f4:	8b 81       	ldd	r24, Y+3	; 0x03
    30f6:	9c 81       	ldd	r25, Y+4	; 0x04
    30f8:	a5 01       	movw	r20, r10
    30fa:	94 01       	movw	r18, r8
    30fc:	0e 94 b2 3b 	call	0x7764	; 0x7764 <__divmodsi4>
    3100:	60 93 67 51 	sts	0x5167, r22	; 0x805167 <Weight_1>
    3104:	89 81       	ldd	r24, Y+1	; 0x01
    3106:	9a 81       	ldd	r25, Y+2	; 0x02
    3108:	ab 81       	ldd	r26, Y+3	; 0x03
    310a:	bc 81       	ldd	r27, Y+4	; 0x04
    310c:	81 31       	cpi	r24, 0x11	; 17
    310e:	97 42       	sbci	r25, 0x27	; 39
    3110:	a1 05       	cpc	r26, r1
    3112:	b1 05       	cpc	r27, r1
    3114:	14 f1       	brlt	.+68     	; 0x315a <Cell_Desplay+0x12e>
    3116:	ee 2d       	mov	r30, r14
    3118:	f0 e0       	ldi	r31, 0x00	; 0
    311a:	ed 5b       	subi	r30, 0xBD	; 189
    311c:	fe 4b       	sbci	r31, 0xBE	; 190
    311e:	80 81       	ld	r24, Z
    3120:	a9 e7       	ldi	r26, 0x79	; 121
    3122:	b1 e4       	ldi	r27, 0x41	; 65
    3124:	13 96       	adiw	r26, 0x03	; 3
    3126:	8c 93       	st	X, r24
    3128:	13 97       	sbiw	r26, 0x03	; 3
    312a:	ef 2d       	mov	r30, r15
    312c:	f0 e0       	ldi	r31, 0x00	; 0
    312e:	ed 5b       	subi	r30, 0xBD	; 189
    3130:	fe 4b       	sbci	r31, 0xBE	; 190
    3132:	80 81       	ld	r24, Z
    3134:	12 96       	adiw	r26, 0x02	; 2
    3136:	8c 93       	st	X, r24
    3138:	12 97       	sbiw	r26, 0x02	; 2
    313a:	e0 2f       	mov	r30, r16
    313c:	f0 e0       	ldi	r31, 0x00	; 0
    313e:	ed 5b       	subi	r30, 0xBD	; 189
    3140:	fe 4b       	sbci	r31, 0xBE	; 190
    3142:	80 81       	ld	r24, Z
    3144:	8f 5f       	subi	r24, 0xFF	; 255
    3146:	11 96       	adiw	r26, 0x01	; 1
    3148:	8c 93       	st	X, r24
    314a:	11 97       	sbiw	r26, 0x01	; 1
    314c:	e1 2f       	mov	r30, r17
    314e:	f0 e0       	ldi	r31, 0x00	; 0
    3150:	ed 5b       	subi	r30, 0xBD	; 189
    3152:	fe 4b       	sbci	r31, 0xBE	; 190
    3154:	80 81       	ld	r24, Z
    3156:	8c 93       	st	X, r24
    3158:	58 c0       	rjmp	.+176    	; 0x320a <Cell_Desplay+0x1de>
    315a:	80 91 1f 51 	lds	r24, 0x511F	; 0x80511f <CELL+0x1>
    315e:	90 91 20 51 	lds	r25, 0x5120	; 0x805120 <CELL+0x2>
    3162:	a0 91 21 51 	lds	r26, 0x5121	; 0x805121 <CELL+0x3>
    3166:	b0 91 22 51 	lds	r27, 0x5122	; 0x805122 <CELL+0x4>
    316a:	89 3e       	cpi	r24, 0xE9	; 233
    316c:	93 40       	sbci	r25, 0x03	; 3
    316e:	a1 05       	cpc	r26, r1
    3170:	b1 05       	cpc	r27, r1
    3172:	14 f1       	brlt	.+68     	; 0x31b8 <Cell_Desplay+0x18c>
    3174:	ef 2d       	mov	r30, r15
    3176:	f0 e0       	ldi	r31, 0x00	; 0
    3178:	ed 5b       	subi	r30, 0xBD	; 189
    317a:	fe 4b       	sbci	r31, 0xBE	; 190
    317c:	80 81       	ld	r24, Z
    317e:	a9 e7       	ldi	r26, 0x79	; 121
    3180:	b1 e4       	ldi	r27, 0x41	; 65
    3182:	13 96       	adiw	r26, 0x03	; 3
    3184:	8c 93       	st	X, r24
    3186:	13 97       	sbiw	r26, 0x03	; 3
    3188:	e0 2f       	mov	r30, r16
    318a:	f0 e0       	ldi	r31, 0x00	; 0
    318c:	ed 5b       	subi	r30, 0xBD	; 189
    318e:	fe 4b       	sbci	r31, 0xBE	; 190
    3190:	80 81       	ld	r24, Z
    3192:	8f 5f       	subi	r24, 0xFF	; 255
    3194:	12 96       	adiw	r26, 0x02	; 2
    3196:	8c 93       	st	X, r24
    3198:	12 97       	sbiw	r26, 0x02	; 2
    319a:	e1 2f       	mov	r30, r17
    319c:	f0 e0       	ldi	r31, 0x00	; 0
    319e:	ed 5b       	subi	r30, 0xBD	; 189
    31a0:	fe 4b       	sbci	r31, 0xBE	; 190
    31a2:	80 81       	ld	r24, Z
    31a4:	11 96       	adiw	r26, 0x01	; 1
    31a6:	8c 93       	st	X, r24
    31a8:	11 97       	sbiw	r26, 0x01	; 1
    31aa:	e6 2f       	mov	r30, r22
    31ac:	f0 e0       	ldi	r31, 0x00	; 0
    31ae:	ed 5b       	subi	r30, 0xBD	; 189
    31b0:	fe 4b       	sbci	r31, 0xBE	; 190
    31b2:	80 81       	ld	r24, Z
    31b4:	8c 93       	st	X, r24
    31b6:	29 c0       	rjmp	.+82     	; 0x320a <Cell_Desplay+0x1de>
    31b8:	80 91 1f 51 	lds	r24, 0x511F	; 0x80511f <CELL+0x1>
    31bc:	90 91 20 51 	lds	r25, 0x5120	; 0x805120 <CELL+0x2>
    31c0:	a0 91 21 51 	lds	r26, 0x5121	; 0x805121 <CELL+0x3>
    31c4:	b0 91 22 51 	lds	r27, 0x5122	; 0x805122 <CELL+0x4>
    31c8:	88 3e       	cpi	r24, 0xE8	; 232
    31ca:	93 40       	sbci	r25, 0x03	; 3
    31cc:	a1 05       	cpc	r26, r1
    31ce:	b1 05       	cpc	r27, r1
    31d0:	e4 f4       	brge	.+56     	; 0x320a <Cell_Desplay+0x1de>
    31d2:	a9 e7       	ldi	r26, 0x79	; 121
    31d4:	b1 e4       	ldi	r27, 0x41	; 65
    31d6:	13 96       	adiw	r26, 0x03	; 3
    31d8:	1c 92       	st	X, r1
    31da:	13 97       	sbiw	r26, 0x03	; 3
    31dc:	e0 2f       	mov	r30, r16
    31de:	f0 e0       	ldi	r31, 0x00	; 0
    31e0:	ed 5b       	subi	r30, 0xBD	; 189
    31e2:	fe 4b       	sbci	r31, 0xBE	; 190
    31e4:	80 81       	ld	r24, Z
    31e6:	8f 5f       	subi	r24, 0xFF	; 255
    31e8:	12 96       	adiw	r26, 0x02	; 2
    31ea:	8c 93       	st	X, r24
    31ec:	12 97       	sbiw	r26, 0x02	; 2
    31ee:	e1 2f       	mov	r30, r17
    31f0:	f0 e0       	ldi	r31, 0x00	; 0
    31f2:	ed 5b       	subi	r30, 0xBD	; 189
    31f4:	fe 4b       	sbci	r31, 0xBE	; 190
    31f6:	80 81       	ld	r24, Z
    31f8:	11 96       	adiw	r26, 0x01	; 1
    31fa:	8c 93       	st	X, r24
    31fc:	11 97       	sbiw	r26, 0x01	; 1
    31fe:	e6 2f       	mov	r30, r22
    3200:	f0 e0       	ldi	r31, 0x00	; 0
    3202:	ed 5b       	subi	r30, 0xBD	; 189
    3204:	fe 4b       	sbci	r31, 0xBE	; 190
    3206:	80 81       	ld	r24, Z
    3208:	8c 93       	st	X, r24
    320a:	df 91       	pop	r29
    320c:	cf 91       	pop	r28
    320e:	1f 91       	pop	r17
    3210:	0f 91       	pop	r16
    3212:	ff 90       	pop	r15
    3214:	ef 90       	pop	r14
    3216:	bf 90       	pop	r11
    3218:	af 90       	pop	r10
    321a:	9f 90       	pop	r9
    321c:	8f 90       	pop	r8
    321e:	08 95       	ret

00003220 <Cell_Data_Read>:
    3220:	8f 92       	push	r8
    3222:	9f 92       	push	r9
    3224:	af 92       	push	r10
    3226:	bf 92       	push	r11
    3228:	cf 92       	push	r12
    322a:	df 92       	push	r13
    322c:	ef 92       	push	r14
    322e:	ff 92       	push	r15
    3230:	e4 e4       	ldi	r30, 0x44	; 68
    3232:	f4 e0       	ldi	r31, 0x04	; 4
    3234:	80 81       	ld	r24, Z
    3236:	8b 7f       	andi	r24, 0xFB	; 251
    3238:	80 83       	st	Z, r24
    323a:	80 91 48 04 	lds	r24, 0x0448	; 0x800448 <__TEXT_REGION_LENGTH__+0x7e0448>
    323e:	83 ff       	sbrs	r24, 3
    3240:	fc cf       	rjmp	.-8      	; 0x323a <Cell_Data_Read+0x1a>
    3242:	90 e0       	ldi	r25, 0x00	; 0
    3244:	40 e0       	ldi	r20, 0x00	; 0
    3246:	50 e0       	ldi	r21, 0x00	; 0
    3248:	ba 01       	movw	r22, r20
    324a:	1d c0       	rjmp	.+58     	; 0x3286 <Cell_Data_Read+0x66>
    324c:	e4 e4       	ldi	r30, 0x44	; 68
    324e:	f4 e0       	ldi	r31, 0x04	; 4
    3250:	80 81       	ld	r24, Z
    3252:	84 60       	ori	r24, 0x04	; 4
    3254:	80 83       	st	Z, r24
	#else
		//round up by default
		__ticks_dc = (uint32_t)(ceil(fabs(__tmp)));
	#endif

	__builtin_avr_delay_cycles(__ticks_dc);
    3256:	22 e6       	ldi	r18, 0x62	; 98
    3258:	2a 95       	dec	r18
    325a:	f1 f7       	brne	.-4      	; 0x3258 <Cell_Data_Read+0x38>
    325c:	00 00       	nop
    325e:	44 0f       	add	r20, r20
    3260:	55 1f       	adc	r21, r21
    3262:	66 1f       	adc	r22, r22
    3264:	77 1f       	adc	r23, r23
    3266:	80 81       	ld	r24, Z
    3268:	8b 7f       	andi	r24, 0xFB	; 251
    326a:	80 83       	st	Z, r24
    326c:	82 e6       	ldi	r24, 0x62	; 98
    326e:	8a 95       	dec	r24
    3270:	f1 f7       	brne	.-4      	; 0x326e <Cell_Data_Read+0x4e>
    3272:	00 00       	nop
    3274:	80 91 48 04 	lds	r24, 0x0448	; 0x800448 <__TEXT_REGION_LENGTH__+0x7e0448>
    3278:	83 fd       	sbrc	r24, 3
    327a:	04 c0       	rjmp	.+8      	; 0x3284 <Cell_Data_Read+0x64>
    327c:	4f 5f       	subi	r20, 0xFF	; 255
    327e:	5f 4f       	sbci	r21, 0xFF	; 255
    3280:	6f 4f       	sbci	r22, 0xFF	; 255
    3282:	7f 4f       	sbci	r23, 0xFF	; 255
    3284:	9f 5f       	subi	r25, 0xFF	; 255
    3286:	98 31       	cpi	r25, 0x18	; 24
    3288:	08 f3       	brcs	.-62     	; 0x324c <Cell_Data_Read+0x2c>
    328a:	e4 e4       	ldi	r30, 0x44	; 68
    328c:	f4 e0       	ldi	r31, 0x04	; 4
    328e:	80 81       	ld	r24, Z
    3290:	84 60       	ori	r24, 0x04	; 4
    3292:	80 83       	st	Z, r24
    3294:	92 e6       	ldi	r25, 0x62	; 98
    3296:	9a 95       	dec	r25
    3298:	f1 f7       	brne	.-4      	; 0x3296 <Cell_Data_Read+0x76>
    329a:	00 00       	nop
    329c:	80 81       	ld	r24, Z
    329e:	8b 7f       	andi	r24, 0xFB	; 251
    32a0:	80 83       	st	Z, r24
	#else
		//round up by default
		__ticks_dc = (uint32_t)(ceil(fabs(__tmp)));
	#endif

	__builtin_avr_delay_cycles(__ticks_dc);
    32a2:	2f ef       	ldi	r18, 0xFF	; 255
    32a4:	8f e7       	ldi	r24, 0x7F	; 127
    32a6:	94 e0       	ldi	r25, 0x04	; 4
    32a8:	21 50       	subi	r18, 0x01	; 1
    32aa:	80 40       	sbci	r24, 0x00	; 0
    32ac:	90 40       	sbci	r25, 0x00	; 0
    32ae:	e1 f7       	brne	.-8      	; 0x32a8 <Cell_Data_Read+0x88>
    32b0:	00 c0       	rjmp	.+0      	; 0x32b2 <Cell_Data_Read+0x92>
    32b2:	00 00       	nop
    32b4:	6a 01       	movw	r12, r20
    32b6:	7b 01       	movw	r14, r22
    32b8:	20 e4       	ldi	r18, 0x40	; 64
    32ba:	e2 26       	eor	r14, r18
    32bc:	20 91 6b 51 	lds	r18, 0x516B	; 0x80516b <Cell_Capa>
    32c0:	30 91 6c 51 	lds	r19, 0x516C	; 0x80516c <Cell_Capa+0x1>
    32c4:	40 91 6d 51 	lds	r20, 0x516D	; 0x80516d <Cell_Capa+0x2>
    32c8:	50 91 6e 51 	lds	r21, 0x516E	; 0x80516e <Cell_Capa+0x3>
    32cc:	a0 e1       	ldi	r26, 0x10	; 16
    32ce:	b7 e2       	ldi	r27, 0x27	; 39
    32d0:	0e 94 e9 3b 	call	0x77d2	; 0x77d2 <__muluhisi3>
    32d4:	80 90 23 51 	lds	r8, 0x5123	; 0x805123 <CELL+0x5>
    32d8:	90 90 24 51 	lds	r9, 0x5124	; 0x805124 <CELL+0x6>
    32dc:	a0 90 25 51 	lds	r10, 0x5125	; 0x805125 <CELL+0x7>
    32e0:	b0 90 26 51 	lds	r11, 0x5126	; 0x805126 <CELL+0x8>
    32e4:	dc 01       	movw	r26, r24
    32e6:	cb 01       	movw	r24, r22
    32e8:	88 0d       	add	r24, r8
    32ea:	99 1d       	adc	r25, r9
    32ec:	aa 1d       	adc	r26, r10
    32ee:	bb 1d       	adc	r27, r11
    32f0:	8c 15       	cp	r24, r12
    32f2:	9d 05       	cpc	r25, r13
    32f4:	ae 05       	cpc	r26, r14
    32f6:	bf 05       	cpc	r27, r15
    32f8:	18 f4       	brcc	.+6      	; 0x3300 <Cell_Data_Read+0xe0>
    32fa:	c1 2c       	mov	r12, r1
    32fc:	d1 2c       	mov	r13, r1
    32fe:	76 01       	movw	r14, r12
    3300:	0e 94 f0 0d 	call	0x1be0	; 0x1be0 <Proportion_Set>
    3304:	80 90 2f 51 	lds	r8, 0x512F	; 0x80512f <CELL+0x11>
    3308:	90 90 30 51 	lds	r9, 0x5130	; 0x805130 <CELL+0x12>
    330c:	a0 90 31 51 	lds	r10, 0x5131	; 0x805131 <CELL+0x13>
    3310:	b0 90 32 51 	lds	r11, 0x5132	; 0x805132 <CELL+0x14>
    3314:	c7 01       	movw	r24, r14
    3316:	b6 01       	movw	r22, r12
    3318:	0e 94 7c 36 	call	0x6cf8	; 0x6cf8 <__floatsisf>
    331c:	a5 01       	movw	r20, r10
    331e:	94 01       	movw	r18, r8
    3320:	0e 94 d2 35 	call	0x6ba4	; 0x6ba4 <__divsf3>
    3324:	0e 94 44 36 	call	0x6c88	; 0x6c88 <__fixsfsi>
    3328:	ff 90       	pop	r15
    332a:	ef 90       	pop	r14
    332c:	df 90       	pop	r13
    332e:	cf 90       	pop	r12
    3330:	bf 90       	pop	r11
    3332:	af 90       	pop	r10
    3334:	9f 90       	pop	r9
    3336:	8f 90       	pop	r8
    3338:	08 95       	ret

0000333a <Cell_Zero_Set>:
    333a:	0f 93       	push	r16
    333c:	1f 93       	push	r17
    333e:	0e 94 10 19 	call	0x3220	; 0x3220 <Cell_Data_Read>
    3342:	8b 01       	movw	r16, r22
    3344:	9c 01       	movw	r18, r24
    3346:	80 91 23 51 	lds	r24, 0x5123	; 0x805123 <CELL+0x5>
    334a:	90 91 24 51 	lds	r25, 0x5124	; 0x805124 <CELL+0x6>
    334e:	a0 91 25 51 	lds	r26, 0x5125	; 0x805125 <CELL+0x7>
    3352:	b0 91 26 51 	lds	r27, 0x5126	; 0x805126 <CELL+0x8>
    3356:	80 1b       	sub	r24, r16
    3358:	91 0b       	sbc	r25, r17
    335a:	a2 0b       	sbc	r26, r18
    335c:	b3 0b       	sbc	r27, r19
    335e:	18 16       	cp	r1, r24
    3360:	19 06       	cpc	r1, r25
    3362:	1a 06       	cpc	r1, r26
    3364:	1b 06       	cpc	r1, r27
    3366:	7c f4       	brge	.+30     	; 0x3386 <Cell_Zero_Set+0x4c>
    3368:	ee e1       	ldi	r30, 0x1E	; 30
    336a:	f1 e5       	ldi	r31, 0x51	; 81
    336c:	45 81       	ldd	r20, Z+5	; 0x05
    336e:	56 81       	ldd	r21, Z+6	; 0x06
    3370:	67 81       	ldd	r22, Z+7	; 0x07
    3372:	70 85       	ldd	r23, Z+8	; 0x08
    3374:	48 1b       	sub	r20, r24
    3376:	59 0b       	sbc	r21, r25
    3378:	6a 0b       	sbc	r22, r26
    337a:	7b 0b       	sbc	r23, r27
    337c:	45 83       	std	Z+5, r20	; 0x05
    337e:	56 83       	std	Z+6, r21	; 0x06
    3380:	67 83       	std	Z+7, r22	; 0x07
    3382:	70 87       	std	Z+8, r23	; 0x08
    3384:	10 c0       	rjmp	.+32     	; 0x33a6 <Cell_Zero_Set+0x6c>
    3386:	bb 23       	and	r27, r27
    3388:	74 f4       	brge	.+28     	; 0x33a6 <Cell_Zero_Set+0x6c>
    338a:	ee e1       	ldi	r30, 0x1E	; 30
    338c:	f1 e5       	ldi	r31, 0x51	; 81
    338e:	45 81       	ldd	r20, Z+5	; 0x05
    3390:	56 81       	ldd	r21, Z+6	; 0x06
    3392:	67 81       	ldd	r22, Z+7	; 0x07
    3394:	70 85       	ldd	r23, Z+8	; 0x08
    3396:	48 0f       	add	r20, r24
    3398:	59 1f       	adc	r21, r25
    339a:	6a 1f       	adc	r22, r26
    339c:	7b 1f       	adc	r23, r27
    339e:	45 83       	std	Z+5, r20	; 0x05
    33a0:	56 83       	std	Z+6, r21	; 0x06
    33a2:	67 83       	std	Z+7, r22	; 0x07
    33a4:	70 87       	std	Z+8, r23	; 0x08
    33a6:	89 2b       	or	r24, r25
    33a8:	8a 2b       	or	r24, r26
    33aa:	8b 2b       	or	r24, r27
    33ac:	61 f6       	brne	.-104    	; 0x3346 <Cell_Zero_Set+0xc>
    33ae:	8a e0       	ldi	r24, 0x0A	; 10
    33b0:	90 e0       	ldi	r25, 0x00	; 0
    33b2:	0e 94 42 04 	call	0x884	; 0x884 <Beep>
    33b6:	0e 94 7e 0e 	call	0x1cfc	; 0x1cfc <wdt_reset>
    33ba:	1f 91       	pop	r17
    33bc:	0f 91       	pop	r16
    33be:	08 95       	ret

000033c0 <Read_Load_Cell>:
    33c0:	4f 92       	push	r4
    33c2:	5f 92       	push	r5
    33c4:	6f 92       	push	r6
    33c6:	7f 92       	push	r7
    33c8:	8f 92       	push	r8
    33ca:	9f 92       	push	r9
    33cc:	af 92       	push	r10
    33ce:	bf 92       	push	r11
    33d0:	cf 92       	push	r12
    33d2:	df 92       	push	r13
    33d4:	ef 92       	push	r14
    33d6:	ff 92       	push	r15
    33d8:	0f 93       	push	r16
    33da:	1f 93       	push	r17
    33dc:	c0 90 23 51 	lds	r12, 0x5123	; 0x805123 <CELL+0x5>
    33e0:	d0 90 24 51 	lds	r13, 0x5124	; 0x805124 <CELL+0x6>
    33e4:	e0 90 25 51 	lds	r14, 0x5125	; 0x805125 <CELL+0x7>
    33e8:	f0 90 26 51 	lds	r15, 0x5126	; 0x805126 <CELL+0x8>
    33ec:	0e 94 10 19 	call	0x3220	; 0x3220 <Cell_Data_Read>
    33f0:	2b 01       	movw	r4, r22
    33f2:	3c 01       	movw	r6, r24
    33f4:	20 91 6b 51 	lds	r18, 0x516B	; 0x80516b <Cell_Capa>
    33f8:	30 91 6c 51 	lds	r19, 0x516C	; 0x80516c <Cell_Capa+0x1>
    33fc:	40 91 6d 51 	lds	r20, 0x516D	; 0x80516d <Cell_Capa+0x2>
    3400:	50 91 6e 51 	lds	r21, 0x516E	; 0x80516e <Cell_Capa+0x3>
    3404:	a8 ee       	ldi	r26, 0xE8	; 232
    3406:	b3 e0       	ldi	r27, 0x03	; 3
    3408:	0e 94 e9 3b 	call	0x77d2	; 0x77d2 <__muluhisi3>
    340c:	4b 01       	movw	r8, r22
    340e:	5c 01       	movw	r10, r24
    3410:	14 14       	cp	r1, r4
    3412:	15 04       	cpc	r1, r5
    3414:	16 04       	cpc	r1, r6
    3416:	17 04       	cpc	r1, r7
    3418:	0c f0       	brlt	.+2      	; 0x341c <Read_Load_Cell+0x5c>
    341a:	81 c0       	rjmp	.+258    	; 0x351e <Read_Load_Cell+0x15e>
    341c:	80 91 23 51 	lds	r24, 0x5123	; 0x805123 <CELL+0x5>
    3420:	90 91 24 51 	lds	r25, 0x5124	; 0x805124 <CELL+0x6>
    3424:	a0 91 25 51 	lds	r26, 0x5125	; 0x805125 <CELL+0x7>
    3428:	b0 91 26 51 	lds	r27, 0x5126	; 0x805126 <CELL+0x8>
    342c:	93 01       	movw	r18, r6
    342e:	82 01       	movw	r16, r4
    3430:	08 1b       	sub	r16, r24
    3432:	19 0b       	sbc	r17, r25
    3434:	2a 0b       	sbc	r18, r26
    3436:	3b 0b       	sbc	r19, r27
    3438:	c9 01       	movw	r24, r18
    343a:	b8 01       	movw	r22, r16
    343c:	2a e0       	ldi	r18, 0x0A	; 10
    343e:	30 e0       	ldi	r19, 0x00	; 0
    3440:	40 e0       	ldi	r20, 0x00	; 0
    3442:	50 e0       	ldi	r21, 0x00	; 0
    3444:	0e 94 b2 3b 	call	0x7764	; 0x7764 <__divmodsi4>
    3448:	ba 01       	movw	r22, r20
    344a:	a9 01       	movw	r20, r18
    344c:	44 0f       	add	r20, r20
    344e:	55 1f       	adc	r21, r21
    3450:	66 1f       	adc	r22, r22
    3452:	77 1f       	adc	r23, r23
    3454:	db 01       	movw	r26, r22
    3456:	ca 01       	movw	r24, r20
    3458:	88 0f       	add	r24, r24
    345a:	99 1f       	adc	r25, r25
    345c:	aa 1f       	adc	r26, r26
    345e:	bb 1f       	adc	r27, r27
    3460:	88 0f       	add	r24, r24
    3462:	99 1f       	adc	r25, r25
    3464:	aa 1f       	adc	r26, r26
    3466:	bb 1f       	adc	r27, r27
    3468:	8a 01       	movw	r16, r20
    346a:	9b 01       	movw	r18, r22
    346c:	08 0f       	add	r16, r24
    346e:	19 1f       	adc	r17, r25
    3470:	2a 1f       	adc	r18, r26
    3472:	3b 1f       	adc	r19, r27
    3474:	c9 01       	movw	r24, r18
    3476:	b8 01       	movw	r22, r16
    3478:	33 23       	and	r19, r19
    347a:	14 f0       	brlt	.+4      	; 0x3480 <Read_Load_Cell+0xc0>
    347c:	10 92 34 51 	sts	0x5134, r1	; 0x805134 <Value_Count>
    3480:	99 23       	and	r25, r25
    3482:	2c f0       	brlt	.+10     	; 0x348e <Read_Load_Cell+0xce>
    3484:	86 16       	cp	r8, r22
    3486:	97 06       	cpc	r9, r23
    3488:	a8 06       	cpc	r10, r24
    348a:	b9 06       	cpc	r11, r25
    348c:	00 f5       	brcc	.+64     	; 0x34ce <Read_Load_Cell+0x10e>
    348e:	80 91 34 51 	lds	r24, 0x5134	; 0x805134 <Value_Count>
    3492:	8f 5f       	subi	r24, 0xFF	; 255
    3494:	80 93 34 51 	sts	0x5134, r24	; 0x805134 <Value_Count>
    3498:	86 30       	cpi	r24, 0x06	; 6
    349a:	40 f0       	brcs	.+16     	; 0x34ac <Read_Load_Cell+0xec>
    349c:	0e 94 9d 19 	call	0x333a	; 0x333a <Cell_Zero_Set>
    34a0:	10 92 34 51 	sts	0x5134, r1	; 0x805134 <Value_Count>
    34a4:	60 e0       	ldi	r22, 0x00	; 0
    34a6:	70 e0       	ldi	r23, 0x00	; 0
    34a8:	cb 01       	movw	r24, r22
    34aa:	33 c0       	rjmp	.+102    	; 0x3512 <Read_Load_Cell+0x152>
    34ac:	15 e0       	ldi	r17, 0x05	; 5
    34ae:	c1 1a       	sub	r12, r17
    34b0:	d1 08       	sbc	r13, r1
    34b2:	e1 08       	sbc	r14, r1
    34b4:	f1 08       	sbc	r15, r1
    34b6:	c0 92 23 51 	sts	0x5123, r12	; 0x805123 <CELL+0x5>
    34ba:	d0 92 24 51 	sts	0x5124, r13	; 0x805124 <CELL+0x6>
    34be:	e0 92 25 51 	sts	0x5125, r14	; 0x805125 <CELL+0x7>
    34c2:	f0 92 26 51 	sts	0x5126, r15	; 0x805126 <CELL+0x8>
    34c6:	60 e0       	ldi	r22, 0x00	; 0
    34c8:	70 e0       	ldi	r23, 0x00	; 0
    34ca:	cb 01       	movw	r24, r22
    34cc:	22 c0       	rjmp	.+68     	; 0x3512 <Read_Load_Cell+0x152>
    34ce:	16 16       	cp	r1, r22
    34d0:	17 06       	cpc	r1, r23
    34d2:	18 06       	cpc	r1, r24
    34d4:	19 06       	cpc	r1, r25
    34d6:	ec f4       	brge	.+58     	; 0x3512 <Read_Load_Cell+0x152>
    34d8:	40 90 09 51 	lds	r4, 0x5109	; 0x805109 <IN_Scales>
    34dc:	50 90 0a 51 	lds	r5, 0x510A	; 0x80510a <IN_Scales+0x1>
    34e0:	05 2c       	mov	r0, r5
    34e2:	00 0c       	add	r0, r0
    34e4:	66 08       	sbc	r6, r6
    34e6:	77 08       	sbc	r7, r7
    34e8:	64 15       	cp	r22, r4
    34ea:	75 05       	cpc	r23, r5
    34ec:	86 05       	cpc	r24, r6
    34ee:	97 05       	cpc	r25, r7
    34f0:	84 f4       	brge	.+32     	; 0x3512 <Read_Load_Cell+0x152>
    34f2:	25 e0       	ldi	r18, 0x05	; 5
    34f4:	c2 0e       	add	r12, r18
    34f6:	d1 1c       	adc	r13, r1
    34f8:	e1 1c       	adc	r14, r1
    34fa:	f1 1c       	adc	r15, r1
    34fc:	c0 92 23 51 	sts	0x5123, r12	; 0x805123 <CELL+0x5>
    3500:	d0 92 24 51 	sts	0x5124, r13	; 0x805124 <CELL+0x6>
    3504:	e0 92 25 51 	sts	0x5125, r14	; 0x805125 <CELL+0x7>
    3508:	f0 92 26 51 	sts	0x5126, r15	; 0x805126 <CELL+0x8>
    350c:	60 e0       	ldi	r22, 0x00	; 0
    350e:	70 e0       	ldi	r23, 0x00	; 0
    3510:	cb 01       	movw	r24, r22
    3512:	86 16       	cp	r8, r22
    3514:	97 06       	cpc	r9, r23
    3516:	a8 06       	cpc	r10, r24
    3518:	b9 06       	cpc	r11, r25
    351a:	28 f0       	brcs	.+10     	; 0x3526 <Read_Load_Cell+0x166>
    351c:	07 c0       	rjmp	.+14     	; 0x352c <Read_Load_Cell+0x16c>
    351e:	60 e0       	ldi	r22, 0x00	; 0
    3520:	70 e0       	ldi	r23, 0x00	; 0
    3522:	cb 01       	movw	r24, r22
    3524:	03 c0       	rjmp	.+6      	; 0x352c <Read_Load_Cell+0x16c>
    3526:	60 e0       	ldi	r22, 0x00	; 0
    3528:	70 e0       	ldi	r23, 0x00	; 0
    352a:	cb 01       	movw	r24, r22
    352c:	2a e0       	ldi	r18, 0x0A	; 10
    352e:	30 e0       	ldi	r19, 0x00	; 0
    3530:	40 e0       	ldi	r20, 0x00	; 0
    3532:	50 e0       	ldi	r21, 0x00	; 0
    3534:	0e 94 b2 3b 	call	0x7764	; 0x7764 <__divmodsi4>
    3538:	c9 01       	movw	r24, r18
    353a:	1f 91       	pop	r17
    353c:	0f 91       	pop	r16
    353e:	ff 90       	pop	r15
    3540:	ef 90       	pop	r14
    3542:	df 90       	pop	r13
    3544:	cf 90       	pop	r12
    3546:	bf 90       	pop	r11
    3548:	af 90       	pop	r10
    354a:	9f 90       	pop	r9
    354c:	8f 90       	pop	r8
    354e:	7f 90       	pop	r7
    3550:	6f 90       	pop	r6
    3552:	5f 90       	pop	r5
    3554:	4f 90       	pop	r4
    3556:	08 95       	ret

00003558 <IN_Scales_Set>:
    3558:	10 92 81 41 	sts	0x4181, r1	; 0x804181 <DIGIT+0x8>
    355c:	8a e0       	ldi	r24, 0x0A	; 10
    355e:	90 e0       	ldi	r25, 0x00	; 0
    3560:	0e 94 03 13 	call	0x2606	; 0x2606 <ee_read_word>
    3564:	9c 01       	movw	r18, r24
    3566:	80 93 09 51 	sts	0x5109, r24	; 0x805109 <IN_Scales>
    356a:	90 93 0a 51 	sts	0x510A, r25	; 0x80510a <IN_Scales+0x1>
    356e:	60 e1       	ldi	r22, 0x10	; 16
    3570:	77 e2       	ldi	r23, 0x27	; 39
    3572:	0e 94 7c 3b 	call	0x76f8	; 0x76f8 <__divmodhi4>
    3576:	60 93 0b 51 	sts	0x510B, r22	; 0x80510b <IN_S_10000>
    357a:	e8 ee       	ldi	r30, 0xE8	; 232
    357c:	f3 e0       	ldi	r31, 0x03	; 3
    357e:	bf 01       	movw	r22, r30
    3580:	0e 94 7c 3b 	call	0x76f8	; 0x76f8 <__divmodhi4>
    3584:	60 93 7d 51 	sts	0x517D, r22	; 0x80517d <IN_S_1000>
    3588:	c9 01       	movw	r24, r18
    358a:	bf 01       	movw	r22, r30
    358c:	0e 94 7c 3b 	call	0x76f8	; 0x76f8 <__divmodhi4>
    3590:	e4 e6       	ldi	r30, 0x64	; 100
    3592:	f0 e0       	ldi	r31, 0x00	; 0
    3594:	bf 01       	movw	r22, r30
    3596:	0e 94 7c 3b 	call	0x76f8	; 0x76f8 <__divmodhi4>
    359a:	60 93 0d 51 	sts	0x510D, r22	; 0x80510d <IN_S_100>
    359e:	c9 01       	movw	r24, r18
    35a0:	bf 01       	movw	r22, r30
    35a2:	0e 94 7c 3b 	call	0x76f8	; 0x76f8 <__divmodhi4>
    35a6:	ea e0       	ldi	r30, 0x0A	; 10
    35a8:	f0 e0       	ldi	r31, 0x00	; 0
    35aa:	bf 01       	movw	r22, r30
    35ac:	0e 94 7c 3b 	call	0x76f8	; 0x76f8 <__divmodhi4>
    35b0:	60 93 ef 50 	sts	0x50EF, r22	; 0x8050ef <IN_S_10>
    35b4:	c9 01       	movw	r24, r18
    35b6:	bf 01       	movw	r22, r30
    35b8:	0e 94 7c 3b 	call	0x76f8	; 0x76f8 <__divmodhi4>
    35bc:	80 93 68 51 	sts	0x5168, r24	; 0x805168 <IN_S_1>
    35c0:	3d c1       	rjmp	.+634    	; 0x383c <IN_Scales_Set+0x2e4>
    35c2:	81 e0       	ldi	r24, 0x01	; 1
    35c4:	80 93 13 51 	sts	0x5113, r24	; 0x805113 <SET+0x3>
    35c8:	80 91 4f 51 	lds	r24, 0x514F	; 0x80514f <KEY>
    35cc:	82 30       	cpi	r24, 0x02	; 2
    35ce:	09 f4       	brne	.+2      	; 0x35d2 <IN_Scales_Set+0x7a>
    35d0:	85 c0       	rjmp	.+266    	; 0x36dc <IN_Scales_Set+0x184>
    35d2:	30 f4       	brcc	.+12     	; 0x35e0 <IN_Scales_Set+0x88>
    35d4:	88 23       	and	r24, r24
    35d6:	69 f0       	breq	.+26     	; 0x35f2 <IN_Scales_Set+0x9a>
    35d8:	81 30       	cpi	r24, 0x01	; 1
    35da:	09 f4       	brne	.+2      	; 0x35de <IN_Scales_Set+0x86>
    35dc:	44 c0       	rjmp	.+136    	; 0x3666 <IN_Scales_Set+0x10e>
    35de:	2c c1       	rjmp	.+600    	; 0x3838 <IN_Scales_Set+0x2e0>
    35e0:	84 30       	cpi	r24, 0x04	; 4
    35e2:	09 f4       	brne	.+2      	; 0x35e6 <IN_Scales_Set+0x8e>
    35e4:	f0 c0       	rjmp	.+480    	; 0x37c6 <IN_Scales_Set+0x26e>
    35e6:	08 f4       	brcc	.+2      	; 0x35ea <IN_Scales_Set+0x92>
    35e8:	b4 c0       	rjmp	.+360    	; 0x3752 <IN_Scales_Set+0x1fa>
    35ea:	85 30       	cpi	r24, 0x05	; 5
    35ec:	09 f4       	brne	.+2      	; 0x35f0 <IN_Scales_Set+0x98>
    35ee:	22 c1       	rjmp	.+580    	; 0x3834 <IN_Scales_Set+0x2dc>
    35f0:	23 c1       	rjmp	.+582    	; 0x3838 <IN_Scales_Set+0x2e0>
    35f2:	e0 91 68 51 	lds	r30, 0x5168	; 0x805168 <IN_S_1>
    35f6:	f0 e0       	ldi	r31, 0x00	; 0
    35f8:	ed 5b       	subi	r30, 0xBD	; 189
    35fa:	fe 4b       	sbci	r31, 0xBE	; 190
    35fc:	80 81       	ld	r24, Z
    35fe:	80 93 84 41 	sts	0x4184, r24	; 0x804184 <DIGIT+0xb>
    3602:	80 91 7b 51 	lds	r24, 0x517B	; 0x80517b <Blink>
    3606:	88 23       	and	r24, r24
    3608:	19 f0       	breq	.+6      	; 0x3610 <IN_Scales_Set+0xb8>
    360a:	10 92 80 41 	sts	0x4180, r1	; 0x804180 <DIGIT+0x7>
    360e:	08 c0       	rjmp	.+16     	; 0x3620 <IN_Scales_Set+0xc8>
    3610:	e0 91 0b 51 	lds	r30, 0x510B	; 0x80510b <IN_S_10000>
    3614:	f0 e0       	ldi	r31, 0x00	; 0
    3616:	ed 5b       	subi	r30, 0xBD	; 189
    3618:	fe 4b       	sbci	r31, 0xBE	; 190
    361a:	80 81       	ld	r24, Z
    361c:	80 93 80 41 	sts	0x4180, r24	; 0x804180 <DIGIT+0x7>
    3620:	80 91 50 51 	lds	r24, 0x5150	; 0x805150 <KEY+0x1>
    3624:	88 23       	and	r24, r24
    3626:	09 f4       	brne	.+2      	; 0x362a <IN_Scales_Set+0xd2>
    3628:	07 c1       	rjmp	.+526    	; 0x3838 <IN_Scales_Set+0x2e0>
    362a:	80 91 51 51 	lds	r24, 0x5151	; 0x805151 <KEY+0x2>
    362e:	81 30       	cpi	r24, 0x01	; 1
    3630:	51 f4       	brne	.+20     	; 0x3646 <IN_Scales_Set+0xee>
    3632:	80 91 0b 51 	lds	r24, 0x510B	; 0x80510b <IN_S_10000>
    3636:	81 11       	cpse	r24, r1
    3638:	06 c0       	rjmp	.+12     	; 0x3646 <IN_Scales_Set+0xee>
    363a:	8f 5f       	subi	r24, 0xFF	; 255
    363c:	80 93 0b 51 	sts	0x510B, r24	; 0x80510b <IN_S_10000>
    3640:	10 92 51 51 	sts	0x5151, r1	; 0x805151 <KEY+0x2>
    3644:	f9 c0       	rjmp	.+498    	; 0x3838 <IN_Scales_Set+0x2e0>
    3646:	80 91 51 51 	lds	r24, 0x5151	; 0x805151 <KEY+0x2>
    364a:	83 30       	cpi	r24, 0x03	; 3
    364c:	09 f0       	breq	.+2      	; 0x3650 <IN_Scales_Set+0xf8>
    364e:	f4 c0       	rjmp	.+488    	; 0x3838 <IN_Scales_Set+0x2e0>
    3650:	80 91 0b 51 	lds	r24, 0x510B	; 0x80510b <IN_S_10000>
    3654:	88 23       	and	r24, r24
    3656:	09 f4       	brne	.+2      	; 0x365a <IN_Scales_Set+0x102>
    3658:	ef c0       	rjmp	.+478    	; 0x3838 <IN_Scales_Set+0x2e0>
    365a:	81 50       	subi	r24, 0x01	; 1
    365c:	80 93 0b 51 	sts	0x510B, r24	; 0x80510b <IN_S_10000>
    3660:	10 92 51 51 	sts	0x5151, r1	; 0x805151 <KEY+0x2>
    3664:	e9 c0       	rjmp	.+466    	; 0x3838 <IN_Scales_Set+0x2e0>
    3666:	e0 91 0b 51 	lds	r30, 0x510B	; 0x80510b <IN_S_10000>
    366a:	f0 e0       	ldi	r31, 0x00	; 0
    366c:	ed 5b       	subi	r30, 0xBD	; 189
    366e:	fe 4b       	sbci	r31, 0xBE	; 190
    3670:	80 81       	ld	r24, Z
    3672:	80 93 80 41 	sts	0x4180, r24	; 0x804180 <DIGIT+0x7>
    3676:	80 91 7b 51 	lds	r24, 0x517B	; 0x80517b <Blink>
    367a:	88 23       	and	r24, r24
    367c:	19 f0       	breq	.+6      	; 0x3684 <IN_Scales_Set+0x12c>
    367e:	10 92 7f 41 	sts	0x417F, r1	; 0x80417f <DIGIT+0x6>
    3682:	09 c0       	rjmp	.+18     	; 0x3696 <IN_Scales_Set+0x13e>
    3684:	e0 91 7d 51 	lds	r30, 0x517D	; 0x80517d <IN_S_1000>
    3688:	f0 e0       	ldi	r31, 0x00	; 0
    368a:	ed 5b       	subi	r30, 0xBD	; 189
    368c:	fe 4b       	sbci	r31, 0xBE	; 190
    368e:	80 81       	ld	r24, Z
    3690:	8f 5f       	subi	r24, 0xFF	; 255
    3692:	80 93 7f 41 	sts	0x417F, r24	; 0x80417f <DIGIT+0x6>
    3696:	80 91 50 51 	lds	r24, 0x5150	; 0x805150 <KEY+0x1>
    369a:	88 23       	and	r24, r24
    369c:	09 f4       	brne	.+2      	; 0x36a0 <IN_Scales_Set+0x148>
    369e:	cc c0       	rjmp	.+408    	; 0x3838 <IN_Scales_Set+0x2e0>
    36a0:	80 91 51 51 	lds	r24, 0x5151	; 0x805151 <KEY+0x2>
    36a4:	81 30       	cpi	r24, 0x01	; 1
    36a6:	51 f4       	brne	.+20     	; 0x36bc <IN_Scales_Set+0x164>
    36a8:	80 91 7d 51 	lds	r24, 0x517D	; 0x80517d <IN_S_1000>
    36ac:	89 30       	cpi	r24, 0x09	; 9
    36ae:	30 f4       	brcc	.+12     	; 0x36bc <IN_Scales_Set+0x164>
    36b0:	8f 5f       	subi	r24, 0xFF	; 255
    36b2:	80 93 7d 51 	sts	0x517D, r24	; 0x80517d <IN_S_1000>
    36b6:	10 92 51 51 	sts	0x5151, r1	; 0x805151 <KEY+0x2>
    36ba:	be c0       	rjmp	.+380    	; 0x3838 <IN_Scales_Set+0x2e0>
    36bc:	80 91 51 51 	lds	r24, 0x5151	; 0x805151 <KEY+0x2>
    36c0:	83 30       	cpi	r24, 0x03	; 3
    36c2:	09 f0       	breq	.+2      	; 0x36c6 <IN_Scales_Set+0x16e>
    36c4:	b9 c0       	rjmp	.+370    	; 0x3838 <IN_Scales_Set+0x2e0>
    36c6:	80 91 7d 51 	lds	r24, 0x517D	; 0x80517d <IN_S_1000>
    36ca:	88 23       	and	r24, r24
    36cc:	09 f4       	brne	.+2      	; 0x36d0 <IN_Scales_Set+0x178>
    36ce:	b4 c0       	rjmp	.+360    	; 0x3838 <IN_Scales_Set+0x2e0>
    36d0:	81 50       	subi	r24, 0x01	; 1
    36d2:	80 93 7d 51 	sts	0x517D, r24	; 0x80517d <IN_S_1000>
    36d6:	10 92 51 51 	sts	0x5151, r1	; 0x805151 <KEY+0x2>
    36da:	ae c0       	rjmp	.+348    	; 0x3838 <IN_Scales_Set+0x2e0>
    36dc:	e0 91 7d 51 	lds	r30, 0x517D	; 0x80517d <IN_S_1000>
    36e0:	f0 e0       	ldi	r31, 0x00	; 0
    36e2:	ed 5b       	subi	r30, 0xBD	; 189
    36e4:	fe 4b       	sbci	r31, 0xBE	; 190
    36e6:	80 81       	ld	r24, Z
    36e8:	8f 5f       	subi	r24, 0xFF	; 255
    36ea:	80 93 7f 41 	sts	0x417F, r24	; 0x80417f <DIGIT+0x6>
    36ee:	80 91 7b 51 	lds	r24, 0x517B	; 0x80517b <Blink>
    36f2:	88 23       	and	r24, r24
    36f4:	19 f0       	breq	.+6      	; 0x36fc <IN_Scales_Set+0x1a4>
    36f6:	10 92 7e 41 	sts	0x417E, r1	; 0x80417e <DIGIT+0x5>
    36fa:	08 c0       	rjmp	.+16     	; 0x370c <IN_Scales_Set+0x1b4>
    36fc:	e0 91 0d 51 	lds	r30, 0x510D	; 0x80510d <IN_S_100>
    3700:	f0 e0       	ldi	r31, 0x00	; 0
    3702:	ed 5b       	subi	r30, 0xBD	; 189
    3704:	fe 4b       	sbci	r31, 0xBE	; 190
    3706:	80 81       	ld	r24, Z
    3708:	80 93 7e 41 	sts	0x417E, r24	; 0x80417e <DIGIT+0x5>
    370c:	80 91 50 51 	lds	r24, 0x5150	; 0x805150 <KEY+0x1>
    3710:	88 23       	and	r24, r24
    3712:	09 f4       	brne	.+2      	; 0x3716 <IN_Scales_Set+0x1be>
    3714:	91 c0       	rjmp	.+290    	; 0x3838 <IN_Scales_Set+0x2e0>
    3716:	80 91 51 51 	lds	r24, 0x5151	; 0x805151 <KEY+0x2>
    371a:	81 30       	cpi	r24, 0x01	; 1
    371c:	51 f4       	brne	.+20     	; 0x3732 <IN_Scales_Set+0x1da>
    371e:	80 91 0d 51 	lds	r24, 0x510D	; 0x80510d <IN_S_100>
    3722:	89 30       	cpi	r24, 0x09	; 9
    3724:	30 f4       	brcc	.+12     	; 0x3732 <IN_Scales_Set+0x1da>
    3726:	8f 5f       	subi	r24, 0xFF	; 255
    3728:	80 93 0d 51 	sts	0x510D, r24	; 0x80510d <IN_S_100>
    372c:	10 92 51 51 	sts	0x5151, r1	; 0x805151 <KEY+0x2>
    3730:	83 c0       	rjmp	.+262    	; 0x3838 <IN_Scales_Set+0x2e0>
    3732:	80 91 51 51 	lds	r24, 0x5151	; 0x805151 <KEY+0x2>
    3736:	83 30       	cpi	r24, 0x03	; 3
    3738:	09 f0       	breq	.+2      	; 0x373c <IN_Scales_Set+0x1e4>
    373a:	7e c0       	rjmp	.+252    	; 0x3838 <IN_Scales_Set+0x2e0>
    373c:	80 91 0d 51 	lds	r24, 0x510D	; 0x80510d <IN_S_100>
    3740:	88 23       	and	r24, r24
    3742:	09 f4       	brne	.+2      	; 0x3746 <IN_Scales_Set+0x1ee>
    3744:	79 c0       	rjmp	.+242    	; 0x3838 <IN_Scales_Set+0x2e0>
    3746:	81 50       	subi	r24, 0x01	; 1
    3748:	80 93 0d 51 	sts	0x510D, r24	; 0x80510d <IN_S_100>
    374c:	10 92 51 51 	sts	0x5151, r1	; 0x805151 <KEY+0x2>
    3750:	73 c0       	rjmp	.+230    	; 0x3838 <IN_Scales_Set+0x2e0>
    3752:	e0 91 0d 51 	lds	r30, 0x510D	; 0x80510d <IN_S_100>
    3756:	f0 e0       	ldi	r31, 0x00	; 0
    3758:	ed 5b       	subi	r30, 0xBD	; 189
    375a:	fe 4b       	sbci	r31, 0xBE	; 190
    375c:	80 81       	ld	r24, Z
    375e:	80 93 7e 41 	sts	0x417E, r24	; 0x80417e <DIGIT+0x5>
    3762:	80 91 7b 51 	lds	r24, 0x517B	; 0x80517b <Blink>
    3766:	88 23       	and	r24, r24
    3768:	19 f0       	breq	.+6      	; 0x3770 <IN_Scales_Set+0x218>
    376a:	10 92 7d 41 	sts	0x417D, r1	; 0x80417d <DIGIT+0x4>
    376e:	08 c0       	rjmp	.+16     	; 0x3780 <IN_Scales_Set+0x228>
    3770:	e0 91 ef 50 	lds	r30, 0x50EF	; 0x8050ef <IN_S_10>
    3774:	f0 e0       	ldi	r31, 0x00	; 0
    3776:	ed 5b       	subi	r30, 0xBD	; 189
    3778:	fe 4b       	sbci	r31, 0xBE	; 190
    377a:	80 81       	ld	r24, Z
    377c:	80 93 7d 41 	sts	0x417D, r24	; 0x80417d <DIGIT+0x4>
    3780:	80 91 50 51 	lds	r24, 0x5150	; 0x805150 <KEY+0x1>
    3784:	88 23       	and	r24, r24
    3786:	09 f4       	brne	.+2      	; 0x378a <IN_Scales_Set+0x232>
    3788:	57 c0       	rjmp	.+174    	; 0x3838 <IN_Scales_Set+0x2e0>
    378a:	80 91 51 51 	lds	r24, 0x5151	; 0x805151 <KEY+0x2>
    378e:	81 30       	cpi	r24, 0x01	; 1
    3790:	51 f4       	brne	.+20     	; 0x37a6 <IN_Scales_Set+0x24e>
    3792:	80 91 ef 50 	lds	r24, 0x50EF	; 0x8050ef <IN_S_10>
    3796:	89 30       	cpi	r24, 0x09	; 9
    3798:	30 f4       	brcc	.+12     	; 0x37a6 <IN_Scales_Set+0x24e>
    379a:	8f 5f       	subi	r24, 0xFF	; 255
    379c:	80 93 ef 50 	sts	0x50EF, r24	; 0x8050ef <IN_S_10>
    37a0:	10 92 51 51 	sts	0x5151, r1	; 0x805151 <KEY+0x2>
    37a4:	49 c0       	rjmp	.+146    	; 0x3838 <IN_Scales_Set+0x2e0>
    37a6:	80 91 51 51 	lds	r24, 0x5151	; 0x805151 <KEY+0x2>
    37aa:	83 30       	cpi	r24, 0x03	; 3
    37ac:	09 f0       	breq	.+2      	; 0x37b0 <IN_Scales_Set+0x258>
    37ae:	44 c0       	rjmp	.+136    	; 0x3838 <IN_Scales_Set+0x2e0>
    37b0:	80 91 ef 50 	lds	r24, 0x50EF	; 0x8050ef <IN_S_10>
    37b4:	88 23       	and	r24, r24
    37b6:	09 f4       	brne	.+2      	; 0x37ba <IN_Scales_Set+0x262>
    37b8:	3f c0       	rjmp	.+126    	; 0x3838 <IN_Scales_Set+0x2e0>
    37ba:	81 50       	subi	r24, 0x01	; 1
    37bc:	80 93 ef 50 	sts	0x50EF, r24	; 0x8050ef <IN_S_10>
    37c0:	10 92 51 51 	sts	0x5151, r1	; 0x805151 <KEY+0x2>
    37c4:	39 c0       	rjmp	.+114    	; 0x3838 <IN_Scales_Set+0x2e0>
    37c6:	e0 91 ef 50 	lds	r30, 0x50EF	; 0x8050ef <IN_S_10>
    37ca:	f0 e0       	ldi	r31, 0x00	; 0
    37cc:	ed 5b       	subi	r30, 0xBD	; 189
    37ce:	fe 4b       	sbci	r31, 0xBE	; 190
    37d0:	80 81       	ld	r24, Z
    37d2:	80 93 7d 41 	sts	0x417D, r24	; 0x80417d <DIGIT+0x4>
    37d6:	80 91 7b 51 	lds	r24, 0x517B	; 0x80517b <Blink>
    37da:	88 23       	and	r24, r24
    37dc:	19 f0       	breq	.+6      	; 0x37e4 <IN_Scales_Set+0x28c>
    37de:	10 92 84 41 	sts	0x4184, r1	; 0x804184 <DIGIT+0xb>
    37e2:	08 c0       	rjmp	.+16     	; 0x37f4 <IN_Scales_Set+0x29c>
    37e4:	e0 91 68 51 	lds	r30, 0x5168	; 0x805168 <IN_S_1>
    37e8:	f0 e0       	ldi	r31, 0x00	; 0
    37ea:	ed 5b       	subi	r30, 0xBD	; 189
    37ec:	fe 4b       	sbci	r31, 0xBE	; 190
    37ee:	80 81       	ld	r24, Z
    37f0:	80 93 84 41 	sts	0x4184, r24	; 0x804184 <DIGIT+0xb>
    37f4:	80 91 50 51 	lds	r24, 0x5150	; 0x805150 <KEY+0x1>
    37f8:	88 23       	and	r24, r24
    37fa:	f1 f0       	breq	.+60     	; 0x3838 <IN_Scales_Set+0x2e0>
    37fc:	80 91 51 51 	lds	r24, 0x5151	; 0x805151 <KEY+0x2>
    3800:	81 30       	cpi	r24, 0x01	; 1
    3802:	51 f4       	brne	.+20     	; 0x3818 <IN_Scales_Set+0x2c0>
    3804:	80 91 68 51 	lds	r24, 0x5168	; 0x805168 <IN_S_1>
    3808:	89 30       	cpi	r24, 0x09	; 9
    380a:	30 f4       	brcc	.+12     	; 0x3818 <IN_Scales_Set+0x2c0>
    380c:	8f 5f       	subi	r24, 0xFF	; 255
    380e:	80 93 68 51 	sts	0x5168, r24	; 0x805168 <IN_S_1>
    3812:	10 92 51 51 	sts	0x5151, r1	; 0x805151 <KEY+0x2>
    3816:	10 c0       	rjmp	.+32     	; 0x3838 <IN_Scales_Set+0x2e0>
    3818:	80 91 51 51 	lds	r24, 0x5151	; 0x805151 <KEY+0x2>
    381c:	83 30       	cpi	r24, 0x03	; 3
    381e:	61 f4       	brne	.+24     	; 0x3838 <IN_Scales_Set+0x2e0>
    3820:	80 91 68 51 	lds	r24, 0x5168	; 0x805168 <IN_S_1>
    3824:	88 23       	and	r24, r24
    3826:	41 f0       	breq	.+16     	; 0x3838 <IN_Scales_Set+0x2e0>
    3828:	81 50       	subi	r24, 0x01	; 1
    382a:	80 93 68 51 	sts	0x5168, r24	; 0x805168 <IN_S_1>
    382e:	10 92 51 51 	sts	0x5151, r1	; 0x805151 <KEY+0x2>
    3832:	02 c0       	rjmp	.+4      	; 0x3838 <IN_Scales_Set+0x2e0>
    3834:	10 92 4f 51 	sts	0x514F, r1	; 0x80514f <KEY>
    3838:	0e 94 7e 0e 	call	0x1cfc	; 0x1cfc <wdt_reset>
    383c:	80 91 10 51 	lds	r24, 0x5110	; 0x805110 <SET>
    3840:	81 11       	cpse	r24, r1
    3842:	bf ce       	rjmp	.-642    	; 0x35c2 <IN_Scales_Set+0x6a>
    3844:	20 91 0b 51 	lds	r18, 0x510B	; 0x80510b <IN_S_10000>
    3848:	80 e1       	ldi	r24, 0x10	; 16
    384a:	97 e2       	ldi	r25, 0x27	; 39
    384c:	28 9f       	mul	r18, r24
    384e:	b0 01       	movw	r22, r0
    3850:	29 9f       	mul	r18, r25
    3852:	70 0d       	add	r23, r0
    3854:	11 24       	eor	r1, r1
    3856:	40 91 7d 51 	lds	r20, 0x517D	; 0x80517d <IN_S_1000>
    385a:	28 ee       	ldi	r18, 0xE8	; 232
    385c:	33 e0       	ldi	r19, 0x03	; 3
    385e:	42 9f       	mul	r20, r18
    3860:	c0 01       	movw	r24, r0
    3862:	43 9f       	mul	r20, r19
    3864:	90 0d       	add	r25, r0
    3866:	11 24       	eor	r1, r1
    3868:	68 0f       	add	r22, r24
    386a:	79 1f       	adc	r23, r25
    386c:	80 91 0d 51 	lds	r24, 0x510D	; 0x80510d <IN_S_100>
    3870:	94 e6       	ldi	r25, 0x64	; 100
    3872:	89 9f       	mul	r24, r25
    3874:	60 0d       	add	r22, r0
    3876:	71 1d       	adc	r23, r1
    3878:	11 24       	eor	r1, r1
    387a:	80 91 ef 50 	lds	r24, 0x50EF	; 0x8050ef <IN_S_10>
    387e:	90 e0       	ldi	r25, 0x00	; 0
    3880:	9c 01       	movw	r18, r24
    3882:	22 0f       	add	r18, r18
    3884:	33 1f       	adc	r19, r19
    3886:	88 0f       	add	r24, r24
    3888:	99 1f       	adc	r25, r25
    388a:	88 0f       	add	r24, r24
    388c:	99 1f       	adc	r25, r25
    388e:	88 0f       	add	r24, r24
    3890:	99 1f       	adc	r25, r25
    3892:	82 0f       	add	r24, r18
    3894:	93 1f       	adc	r25, r19
    3896:	68 0f       	add	r22, r24
    3898:	79 1f       	adc	r23, r25
    389a:	80 91 68 51 	lds	r24, 0x5168	; 0x805168 <IN_S_1>
    389e:	68 0f       	add	r22, r24
    38a0:	71 1d       	adc	r23, r1
    38a2:	60 93 09 51 	sts	0x5109, r22	; 0x805109 <IN_Scales>
    38a6:	70 93 0a 51 	sts	0x510A, r23	; 0x80510a <IN_Scales+0x1>
    38aa:	8a e0       	ldi	r24, 0x0A	; 10
    38ac:	90 e0       	ldi	r25, 0x00	; 0
    38ae:	0e 94 3e 13 	call	0x267c	; 0x267c <ee_write_word>
    38b2:	e0 e1       	ldi	r30, 0x10	; 16
    38b4:	f1 e5       	ldi	r31, 0x51	; 81
    38b6:	81 e0       	ldi	r24, 0x01	; 1
    38b8:	80 83       	st	Z, r24
    38ba:	11 82       	std	Z+1, r1	; 0x01
    38bc:	13 82       	std	Z+3, r1	; 0x03
    38be:	10 92 4f 51 	sts	0x514F, r1	; 0x80514f <KEY>
    38c2:	08 95       	ret

000038c4 <RO_Set>:
    38c4:	2f 92       	push	r2
    38c6:	3f 92       	push	r3
    38c8:	4f 92       	push	r4
    38ca:	5f 92       	push	r5
    38cc:	6f 92       	push	r6
    38ce:	7f 92       	push	r7
    38d0:	8f 92       	push	r8
    38d2:	9f 92       	push	r9
    38d4:	af 92       	push	r10
    38d6:	bf 92       	push	r11
    38d8:	cf 92       	push	r12
    38da:	df 92       	push	r13
    38dc:	ef 92       	push	r14
    38de:	ff 92       	push	r15
    38e0:	0f 93       	push	r16
    38e2:	1f 93       	push	r17
    38e4:	cf 93       	push	r28
    38e6:	df 93       	push	r29
    38e8:	cd b7       	in	r28, 0x3d	; 61
    38ea:	de b7       	in	r29, 0x3e	; 62
    38ec:	25 97       	sbiw	r28, 0x05	; 5
    38ee:	cd bf       	out	0x3d, r28	; 61
    38f0:	de bf       	out	0x3e, r29	; 62
    38f2:	10 92 81 41 	sts	0x4181, r1	; 0x804181 <DIGIT+0x8>
    38f6:	8c e0       	ldi	r24, 0x0C	; 12
    38f8:	90 e0       	ldi	r25, 0x00	; 0
    38fa:	0e 94 0e 13 	call	0x261c	; 0x261c <ee_read_dword>
    38fe:	1b 01       	movw	r2, r22
    3900:	2c 01       	movw	r4, r24
    3902:	60 93 15 51 	sts	0x5115, r22	; 0x805115 <RO>
    3906:	30 92 16 51 	sts	0x5116, r3	; 0x805116 <RO+0x1>
    390a:	40 92 17 51 	sts	0x5117, r4	; 0x805117 <RO+0x2>
    390e:	50 92 18 51 	sts	0x5118, r5	; 0x805118 <RO+0x3>
    3912:	10 92 19 51 	sts	0x5119, r1	; 0x805119 <RO+0x4>
    3916:	10 92 1a 51 	sts	0x511A, r1	; 0x80511a <RO+0x5>
    391a:	10 92 1b 51 	sts	0x511B, r1	; 0x80511b <RO+0x6>
    391e:	10 92 1c 51 	sts	0x511C, r1	; 0x80511c <RO+0x7>
    3922:	68 94       	set
    3924:	aa 24       	eor	r10, r10
    3926:	a4 f8       	bld	r10, 4
    3928:	0f 2e       	mov	r0, r31
    392a:	f7 e2       	ldi	r31, 0x27	; 39
    392c:	bf 2e       	mov	r11, r31
    392e:	f0 2d       	mov	r31, r0
    3930:	c1 2c       	mov	r12, r1
    3932:	d1 2c       	mov	r13, r1
    3934:	e1 2c       	mov	r14, r1
    3936:	f1 2c       	mov	r15, r1
    3938:	00 e0       	ldi	r16, 0x00	; 0
    393a:	10 e0       	ldi	r17, 0x00	; 0
    393c:	26 2f       	mov	r18, r22
    393e:	33 2d       	mov	r19, r3
    3940:	44 2d       	mov	r20, r4
    3942:	55 2d       	mov	r21, r5
    3944:	60 e0       	ldi	r22, 0x00	; 0
    3946:	70 e0       	ldi	r23, 0x00	; 0
    3948:	80 e0       	ldi	r24, 0x00	; 0
    394a:	90 e0       	ldi	r25, 0x00	; 0
    394c:	0e 94 4f 3c 	call	0x789e	; 0x789e <__udivdi3>
    3950:	20 93 5b 51 	sts	0x515B, r18	; 0x80515b <RO_10000>
    3954:	30 93 5c 51 	sts	0x515C, r19	; 0x80515c <RO_10000+0x1>
    3958:	40 93 5d 51 	sts	0x515D, r20	; 0x80515d <RO_10000+0x2>
    395c:	50 93 5e 51 	sts	0x515E, r21	; 0x80515e <RO_10000+0x3>
    3960:	60 93 5f 51 	sts	0x515F, r22	; 0x80515f <RO_10000+0x4>
    3964:	70 93 60 51 	sts	0x5160, r23	; 0x805160 <RO_10000+0x5>
    3968:	80 93 61 51 	sts	0x5161, r24	; 0x805161 <RO_10000+0x6>
    396c:	90 93 62 51 	sts	0x5162, r25	; 0x805162 <RO_10000+0x7>
    3970:	22 2d       	mov	r18, r2
    3972:	33 2d       	mov	r19, r3
    3974:	44 2d       	mov	r20, r4
    3976:	55 2d       	mov	r21, r5
    3978:	60 e0       	ldi	r22, 0x00	; 0
    397a:	70 e0       	ldi	r23, 0x00	; 0
    397c:	80 e0       	ldi	r24, 0x00	; 0
    397e:	90 e0       	ldi	r25, 0x00	; 0
    3980:	0e 94 4d 3c 	call	0x789a	; 0x789a <__umoddi3>
    3984:	0f 2e       	mov	r0, r31
    3986:	f8 ee       	ldi	r31, 0xE8	; 232
    3988:	af 2e       	mov	r10, r31
    398a:	f0 2d       	mov	r31, r0
    398c:	0f 2e       	mov	r0, r31
    398e:	f3 e0       	ldi	r31, 0x03	; 3
    3990:	bf 2e       	mov	r11, r31
    3992:	f0 2d       	mov	r31, r0
    3994:	0e 94 4f 3c 	call	0x789e	; 0x789e <__udivdi3>
    3998:	20 93 84 52 	sts	0x5284, r18	; 0x805284 <RO_1000>
    399c:	30 93 85 52 	sts	0x5285, r19	; 0x805285 <RO_1000+0x1>
    39a0:	40 93 86 52 	sts	0x5286, r20	; 0x805286 <RO_1000+0x2>
    39a4:	50 93 87 52 	sts	0x5287, r21	; 0x805287 <RO_1000+0x3>
    39a8:	60 93 88 52 	sts	0x5288, r22	; 0x805288 <RO_1000+0x4>
    39ac:	70 93 89 52 	sts	0x5289, r23	; 0x805289 <RO_1000+0x5>
    39b0:	80 93 8a 52 	sts	0x528A, r24	; 0x80528a <RO_1000+0x6>
    39b4:	90 93 8b 52 	sts	0x528B, r25	; 0x80528b <RO_1000+0x7>
    39b8:	22 2d       	mov	r18, r2
    39ba:	33 2d       	mov	r19, r3
    39bc:	44 2d       	mov	r20, r4
    39be:	55 2d       	mov	r21, r5
    39c0:	60 e0       	ldi	r22, 0x00	; 0
    39c2:	70 e0       	ldi	r23, 0x00	; 0
    39c4:	80 e0       	ldi	r24, 0x00	; 0
    39c6:	90 e0       	ldi	r25, 0x00	; 0
    39c8:	0e 94 4d 3c 	call	0x789a	; 0x789a <__umoddi3>
    39cc:	0f 2e       	mov	r0, r31
    39ce:	f4 e6       	ldi	r31, 0x64	; 100
    39d0:	af 2e       	mov	r10, r31
    39d2:	f0 2d       	mov	r31, r0
    39d4:	b1 2c       	mov	r11, r1
    39d6:	0e 94 4f 3c 	call	0x789e	; 0x789e <__udivdi3>
    39da:	20 93 73 51 	sts	0x5173, r18	; 0x805173 <RO_100>
    39de:	30 93 74 51 	sts	0x5174, r19	; 0x805174 <RO_100+0x1>
    39e2:	40 93 75 51 	sts	0x5175, r20	; 0x805175 <RO_100+0x2>
    39e6:	50 93 76 51 	sts	0x5176, r21	; 0x805176 <RO_100+0x3>
    39ea:	60 93 77 51 	sts	0x5177, r22	; 0x805177 <RO_100+0x4>
    39ee:	70 93 78 51 	sts	0x5178, r23	; 0x805178 <RO_100+0x5>
    39f2:	80 93 79 51 	sts	0x5179, r24	; 0x805179 <RO_100+0x6>
    39f6:	90 93 7a 51 	sts	0x517A, r25	; 0x80517a <RO_100+0x7>
    39fa:	22 2d       	mov	r18, r2
    39fc:	33 2d       	mov	r19, r3
    39fe:	44 2d       	mov	r20, r4
    3a00:	55 2d       	mov	r21, r5
    3a02:	60 e0       	ldi	r22, 0x00	; 0
    3a04:	70 e0       	ldi	r23, 0x00	; 0
    3a06:	80 e0       	ldi	r24, 0x00	; 0
    3a08:	90 e0       	ldi	r25, 0x00	; 0
    3a0a:	0e 94 4d 3c 	call	0x789a	; 0x789a <__umoddi3>
    3a0e:	0f 2e       	mov	r0, r31
    3a10:	fa e0       	ldi	r31, 0x0A	; 10
    3a12:	af 2e       	mov	r10, r31
    3a14:	f0 2d       	mov	r31, r0
    3a16:	0e 94 4f 3c 	call	0x789e	; 0x789e <__udivdi3>
    3a1a:	20 93 42 51 	sts	0x5142, r18	; 0x805142 <RO_10>
    3a1e:	30 93 43 51 	sts	0x5143, r19	; 0x805143 <RO_10+0x1>
    3a22:	40 93 44 51 	sts	0x5144, r20	; 0x805144 <RO_10+0x2>
    3a26:	50 93 45 51 	sts	0x5145, r21	; 0x805145 <RO_10+0x3>
    3a2a:	60 93 46 51 	sts	0x5146, r22	; 0x805146 <RO_10+0x4>
    3a2e:	70 93 47 51 	sts	0x5147, r23	; 0x805147 <RO_10+0x5>
    3a32:	80 93 48 51 	sts	0x5148, r24	; 0x805148 <RO_10+0x6>
    3a36:	90 93 49 51 	sts	0x5149, r25	; 0x805149 <RO_10+0x7>
    3a3a:	22 2d       	mov	r18, r2
    3a3c:	33 2d       	mov	r19, r3
    3a3e:	44 2d       	mov	r20, r4
    3a40:	55 2d       	mov	r21, r5
    3a42:	60 e0       	ldi	r22, 0x00	; 0
    3a44:	70 e0       	ldi	r23, 0x00	; 0
    3a46:	80 e0       	ldi	r24, 0x00	; 0
    3a48:	90 e0       	ldi	r25, 0x00	; 0
    3a4a:	0e 94 4d 3c 	call	0x789a	; 0x789a <__umoddi3>
    3a4e:	20 93 81 51 	sts	0x5181, r18	; 0x805181 <RO_1>
    3a52:	30 93 82 51 	sts	0x5182, r19	; 0x805182 <RO_1+0x1>
    3a56:	40 93 83 51 	sts	0x5183, r20	; 0x805183 <RO_1+0x2>
    3a5a:	50 93 84 51 	sts	0x5184, r21	; 0x805184 <RO_1+0x3>
    3a5e:	60 93 85 51 	sts	0x5185, r22	; 0x805185 <RO_1+0x4>
    3a62:	70 93 86 51 	sts	0x5186, r23	; 0x805186 <RO_1+0x5>
    3a66:	80 93 87 51 	sts	0x5187, r24	; 0x805187 <RO_1+0x6>
    3a6a:	90 93 88 51 	sts	0x5188, r25	; 0x805188 <RO_1+0x7>
    3a6e:	f2 c2       	rjmp	.+1508   	; 0x4054 <__DATA_REGION_LENGTH__+0x54>
    3a70:	81 e0       	ldi	r24, 0x01	; 1
    3a72:	80 93 13 51 	sts	0x5113, r24	; 0x805113 <SET+0x3>
    3a76:	80 91 4f 51 	lds	r24, 0x514F	; 0x80514f <KEY>
    3a7a:	82 30       	cpi	r24, 0x02	; 2
    3a7c:	09 f4       	brne	.+2      	; 0x3a80 <RO_Set+0x1bc>
    3a7e:	35 c1       	rjmp	.+618    	; 0x3cea <RO_Set+0x426>
    3a80:	30 f4       	brcc	.+12     	; 0x3a8e <RO_Set+0x1ca>
    3a82:	88 23       	and	r24, r24
    3a84:	69 f0       	breq	.+26     	; 0x3aa0 <RO_Set+0x1dc>
    3a86:	81 30       	cpi	r24, 0x01	; 1
    3a88:	09 f4       	brne	.+2      	; 0x3a8c <RO_Set+0x1c8>
    3a8a:	9d c0       	rjmp	.+314    	; 0x3bc6 <RO_Set+0x302>
    3a8c:	e1 c2       	rjmp	.+1474   	; 0x4050 <__DATA_REGION_LENGTH__+0x50>
    3a8e:	84 30       	cpi	r24, 0x04	; 4
    3a90:	09 f4       	brne	.+2      	; 0x3a94 <RO_Set+0x1d0>
    3a92:	4d c2       	rjmp	.+1178   	; 0x3f2e <RO_Set+0x66a>
    3a94:	08 f4       	brcc	.+2      	; 0x3a98 <RO_Set+0x1d4>
    3a96:	ba c1       	rjmp	.+884    	; 0x3e0c <RO_Set+0x548>
    3a98:	85 30       	cpi	r24, 0x05	; 5
    3a9a:	09 f4       	brne	.+2      	; 0x3a9e <RO_Set+0x1da>
    3a9c:	d7 c2       	rjmp	.+1454   	; 0x404c <__DATA_REGION_LENGTH__+0x4c>
    3a9e:	d8 c2       	rjmp	.+1456   	; 0x4050 <__DATA_REGION_LENGTH__+0x50>
    3aa0:	e0 91 81 51 	lds	r30, 0x5181	; 0x805181 <RO_1>
    3aa4:	f0 91 82 51 	lds	r31, 0x5182	; 0x805182 <RO_1+0x1>
    3aa8:	ed 5b       	subi	r30, 0xBD	; 189
    3aaa:	fe 4b       	sbci	r31, 0xBE	; 190
    3aac:	80 81       	ld	r24, Z
    3aae:	80 93 84 41 	sts	0x4184, r24	; 0x804184 <DIGIT+0xb>
    3ab2:	80 91 7b 51 	lds	r24, 0x517B	; 0x80517b <Blink>
    3ab6:	88 23       	and	r24, r24
    3ab8:	19 f0       	breq	.+6      	; 0x3ac0 <RO_Set+0x1fc>
    3aba:	10 92 80 41 	sts	0x4180, r1	; 0x804180 <DIGIT+0x7>
    3abe:	0a c0       	rjmp	.+20     	; 0x3ad4 <RO_Set+0x210>
    3ac0:	e0 91 5b 51 	lds	r30, 0x515B	; 0x80515b <RO_10000>
    3ac4:	f0 91 5c 51 	lds	r31, 0x515C	; 0x80515c <RO_10000+0x1>
    3ac8:	ed 5b       	subi	r30, 0xBD	; 189
    3aca:	fe 4b       	sbci	r31, 0xBE	; 190
    3acc:	80 81       	ld	r24, Z
    3ace:	8f 5f       	subi	r24, 0xFF	; 255
    3ad0:	80 93 80 41 	sts	0x4180, r24	; 0x804180 <DIGIT+0x7>
    3ad4:	80 91 50 51 	lds	r24, 0x5150	; 0x805150 <KEY+0x1>
    3ad8:	88 23       	and	r24, r24
    3ada:	09 f4       	brne	.+2      	; 0x3ade <RO_Set+0x21a>
    3adc:	b9 c2       	rjmp	.+1394   	; 0x4050 <__DATA_REGION_LENGTH__+0x50>
    3ade:	80 91 51 51 	lds	r24, 0x5151	; 0x805151 <KEY+0x2>
    3ae2:	81 30       	cpi	r24, 0x01	; 1
    3ae4:	a9 f5       	brne	.+106    	; 0x3b50 <RO_Set+0x28c>
    3ae6:	f0 90 5b 51 	lds	r15, 0x515B	; 0x80515b <RO_10000>
    3aea:	00 91 5c 51 	lds	r16, 0x515C	; 0x80515c <RO_10000+0x1>
    3aee:	10 91 5d 51 	lds	r17, 0x515D	; 0x80515d <RO_10000+0x2>
    3af2:	80 91 5e 51 	lds	r24, 0x515E	; 0x80515e <RO_10000+0x3>
    3af6:	8a 83       	std	Y+2, r24	; 0x02
    3af8:	80 91 5f 51 	lds	r24, 0x515F	; 0x80515f <RO_10000+0x4>
    3afc:	89 83       	std	Y+1, r24	; 0x01
    3afe:	b0 91 60 51 	lds	r27, 0x5160	; 0x805160 <RO_10000+0x5>
    3b02:	f0 91 61 51 	lds	r31, 0x5161	; 0x805161 <RO_10000+0x6>
    3b06:	e0 91 62 51 	lds	r30, 0x5162	; 0x805162 <RO_10000+0x7>
    3b0a:	2f 2d       	mov	r18, r15
    3b0c:	30 2f       	mov	r19, r16
    3b0e:	41 2f       	mov	r20, r17
    3b10:	5a 81       	ldd	r21, Y+2	; 0x02
    3b12:	68 2f       	mov	r22, r24
    3b14:	7b 2f       	mov	r23, r27
    3b16:	8f 2f       	mov	r24, r31
    3b18:	9e 2f       	mov	r25, r30
    3b1a:	a7 e0       	ldi	r26, 0x07	; 7
    3b1c:	0e 94 e3 3c 	call	0x79c6	; 0x79c6 <__cmpdi2_s8>
    3b20:	09 f0       	breq	.+2      	; 0x3b24 <RO_Set+0x260>
    3b22:	b0 f4       	brcc	.+44     	; 0x3b50 <RO_Set+0x28c>
    3b24:	a1 e0       	ldi	r26, 0x01	; 1
    3b26:	0e 94 ce 3c 	call	0x799c	; 0x799c <__adddi3_s8>
    3b2a:	20 93 5b 51 	sts	0x515B, r18	; 0x80515b <RO_10000>
    3b2e:	30 93 5c 51 	sts	0x515C, r19	; 0x80515c <RO_10000+0x1>
    3b32:	40 93 5d 51 	sts	0x515D, r20	; 0x80515d <RO_10000+0x2>
    3b36:	50 93 5e 51 	sts	0x515E, r21	; 0x80515e <RO_10000+0x3>
    3b3a:	60 93 5f 51 	sts	0x515F, r22	; 0x80515f <RO_10000+0x4>
    3b3e:	70 93 60 51 	sts	0x5160, r23	; 0x805160 <RO_10000+0x5>
    3b42:	80 93 61 51 	sts	0x5161, r24	; 0x805161 <RO_10000+0x6>
    3b46:	90 93 62 51 	sts	0x5162, r25	; 0x805162 <RO_10000+0x7>
    3b4a:	10 92 51 51 	sts	0x5151, r1	; 0x805151 <KEY+0x2>
    3b4e:	80 c2       	rjmp	.+1280   	; 0x4050 <__DATA_REGION_LENGTH__+0x50>
    3b50:	80 91 51 51 	lds	r24, 0x5151	; 0x805151 <KEY+0x2>
    3b54:	83 30       	cpi	r24, 0x03	; 3
    3b56:	09 f0       	breq	.+2      	; 0x3b5a <RO_Set+0x296>
    3b58:	7b c2       	rjmp	.+1270   	; 0x4050 <__DATA_REGION_LENGTH__+0x50>
    3b5a:	f0 90 5b 51 	lds	r15, 0x515B	; 0x80515b <RO_10000>
    3b5e:	00 91 5c 51 	lds	r16, 0x515C	; 0x80515c <RO_10000+0x1>
    3b62:	10 91 5d 51 	lds	r17, 0x515D	; 0x80515d <RO_10000+0x2>
    3b66:	80 91 5e 51 	lds	r24, 0x515E	; 0x80515e <RO_10000+0x3>
    3b6a:	8a 83       	std	Y+2, r24	; 0x02
    3b6c:	80 91 5f 51 	lds	r24, 0x515F	; 0x80515f <RO_10000+0x4>
    3b70:	89 83       	std	Y+1, r24	; 0x01
    3b72:	b0 91 60 51 	lds	r27, 0x5160	; 0x805160 <RO_10000+0x5>
    3b76:	f0 91 61 51 	lds	r31, 0x5161	; 0x805161 <RO_10000+0x6>
    3b7a:	e0 91 62 51 	lds	r30, 0x5162	; 0x805162 <RO_10000+0x7>
    3b7e:	2f 2d       	mov	r18, r15
    3b80:	30 2f       	mov	r19, r16
    3b82:	41 2f       	mov	r20, r17
    3b84:	5a 81       	ldd	r21, Y+2	; 0x02
    3b86:	68 2f       	mov	r22, r24
    3b88:	7b 2f       	mov	r23, r27
    3b8a:	8f 2f       	mov	r24, r31
    3b8c:	9e 2f       	mov	r25, r30
    3b8e:	a1 e0       	ldi	r26, 0x01	; 1
    3b90:	0e 94 e3 3c 	call	0x79c6	; 0x79c6 <__cmpdi2_s8>
    3b94:	09 f0       	breq	.+2      	; 0x3b98 <RO_Set+0x2d4>
    3b96:	08 f4       	brcc	.+2      	; 0x3b9a <RO_Set+0x2d6>
    3b98:	5b c2       	rjmp	.+1206   	; 0x4050 <__DATA_REGION_LENGTH__+0x50>
    3b9a:	af ef       	ldi	r26, 0xFF	; 255
    3b9c:	0e 94 ce 3c 	call	0x799c	; 0x799c <__adddi3_s8>
    3ba0:	20 93 5b 51 	sts	0x515B, r18	; 0x80515b <RO_10000>
    3ba4:	30 93 5c 51 	sts	0x515C, r19	; 0x80515c <RO_10000+0x1>
    3ba8:	40 93 5d 51 	sts	0x515D, r20	; 0x80515d <RO_10000+0x2>
    3bac:	50 93 5e 51 	sts	0x515E, r21	; 0x80515e <RO_10000+0x3>
    3bb0:	60 93 5f 51 	sts	0x515F, r22	; 0x80515f <RO_10000+0x4>
    3bb4:	70 93 60 51 	sts	0x5160, r23	; 0x805160 <RO_10000+0x5>
    3bb8:	80 93 61 51 	sts	0x5161, r24	; 0x805161 <RO_10000+0x6>
    3bbc:	90 93 62 51 	sts	0x5162, r25	; 0x805162 <RO_10000+0x7>
    3bc0:	10 92 51 51 	sts	0x5151, r1	; 0x805151 <KEY+0x2>
    3bc4:	45 c2       	rjmp	.+1162   	; 0x4050 <__DATA_REGION_LENGTH__+0x50>
    3bc6:	e0 91 5b 51 	lds	r30, 0x515B	; 0x80515b <RO_10000>
    3bca:	f0 91 5c 51 	lds	r31, 0x515C	; 0x80515c <RO_10000+0x1>
    3bce:	ed 5b       	subi	r30, 0xBD	; 189
    3bd0:	fe 4b       	sbci	r31, 0xBE	; 190
    3bd2:	80 81       	ld	r24, Z
    3bd4:	8f 5f       	subi	r24, 0xFF	; 255
    3bd6:	80 93 80 41 	sts	0x4180, r24	; 0x804180 <DIGIT+0x7>
    3bda:	80 91 7b 51 	lds	r24, 0x517B	; 0x80517b <Blink>
    3bde:	88 23       	and	r24, r24
    3be0:	19 f0       	breq	.+6      	; 0x3be8 <RO_Set+0x324>
    3be2:	10 92 7f 41 	sts	0x417F, r1	; 0x80417f <DIGIT+0x6>
    3be6:	09 c0       	rjmp	.+18     	; 0x3bfa <RO_Set+0x336>
    3be8:	e0 91 84 52 	lds	r30, 0x5284	; 0x805284 <RO_1000>
    3bec:	f0 91 85 52 	lds	r31, 0x5285	; 0x805285 <RO_1000+0x1>
    3bf0:	ed 5b       	subi	r30, 0xBD	; 189
    3bf2:	fe 4b       	sbci	r31, 0xBE	; 190
    3bf4:	80 81       	ld	r24, Z
    3bf6:	80 93 7f 41 	sts	0x417F, r24	; 0x80417f <DIGIT+0x6>
    3bfa:	80 91 50 51 	lds	r24, 0x5150	; 0x805150 <KEY+0x1>
    3bfe:	88 23       	and	r24, r24
    3c00:	09 f4       	brne	.+2      	; 0x3c04 <RO_Set+0x340>
    3c02:	26 c2       	rjmp	.+1100   	; 0x4050 <__DATA_REGION_LENGTH__+0x50>
    3c04:	80 91 51 51 	lds	r24, 0x5151	; 0x805151 <KEY+0x2>
    3c08:	81 30       	cpi	r24, 0x01	; 1
    3c0a:	a9 f5       	brne	.+106    	; 0x3c76 <RO_Set+0x3b2>
    3c0c:	f0 90 84 52 	lds	r15, 0x5284	; 0x805284 <RO_1000>
    3c10:	00 91 85 52 	lds	r16, 0x5285	; 0x805285 <RO_1000+0x1>
    3c14:	10 91 86 52 	lds	r17, 0x5286	; 0x805286 <RO_1000+0x2>
    3c18:	80 91 87 52 	lds	r24, 0x5287	; 0x805287 <RO_1000+0x3>
    3c1c:	8a 83       	std	Y+2, r24	; 0x02
    3c1e:	80 91 88 52 	lds	r24, 0x5288	; 0x805288 <RO_1000+0x4>
    3c22:	89 83       	std	Y+1, r24	; 0x01
    3c24:	b0 91 89 52 	lds	r27, 0x5289	; 0x805289 <RO_1000+0x5>
    3c28:	f0 91 8a 52 	lds	r31, 0x528A	; 0x80528a <RO_1000+0x6>
    3c2c:	e0 91 8b 52 	lds	r30, 0x528B	; 0x80528b <RO_1000+0x7>
    3c30:	2f 2d       	mov	r18, r15
    3c32:	30 2f       	mov	r19, r16
    3c34:	41 2f       	mov	r20, r17
    3c36:	5a 81       	ldd	r21, Y+2	; 0x02
    3c38:	68 2f       	mov	r22, r24
    3c3a:	7b 2f       	mov	r23, r27
    3c3c:	8f 2f       	mov	r24, r31
    3c3e:	9e 2f       	mov	r25, r30
    3c40:	a8 e0       	ldi	r26, 0x08	; 8
    3c42:	0e 94 e3 3c 	call	0x79c6	; 0x79c6 <__cmpdi2_s8>
    3c46:	09 f0       	breq	.+2      	; 0x3c4a <RO_Set+0x386>
    3c48:	b0 f4       	brcc	.+44     	; 0x3c76 <RO_Set+0x3b2>
    3c4a:	a1 e0       	ldi	r26, 0x01	; 1
    3c4c:	0e 94 ce 3c 	call	0x799c	; 0x799c <__adddi3_s8>
    3c50:	20 93 84 52 	sts	0x5284, r18	; 0x805284 <RO_1000>
    3c54:	30 93 85 52 	sts	0x5285, r19	; 0x805285 <RO_1000+0x1>
    3c58:	40 93 86 52 	sts	0x5286, r20	; 0x805286 <RO_1000+0x2>
    3c5c:	50 93 87 52 	sts	0x5287, r21	; 0x805287 <RO_1000+0x3>
    3c60:	60 93 88 52 	sts	0x5288, r22	; 0x805288 <RO_1000+0x4>
    3c64:	70 93 89 52 	sts	0x5289, r23	; 0x805289 <RO_1000+0x5>
    3c68:	80 93 8a 52 	sts	0x528A, r24	; 0x80528a <RO_1000+0x6>
    3c6c:	90 93 8b 52 	sts	0x528B, r25	; 0x80528b <RO_1000+0x7>
    3c70:	10 92 51 51 	sts	0x5151, r1	; 0x805151 <KEY+0x2>
    3c74:	ed c1       	rjmp	.+986    	; 0x4050 <__DATA_REGION_LENGTH__+0x50>
    3c76:	80 91 51 51 	lds	r24, 0x5151	; 0x805151 <KEY+0x2>
    3c7a:	83 30       	cpi	r24, 0x03	; 3
    3c7c:	09 f0       	breq	.+2      	; 0x3c80 <RO_Set+0x3bc>
    3c7e:	e8 c1       	rjmp	.+976    	; 0x4050 <__DATA_REGION_LENGTH__+0x50>
    3c80:	f0 90 84 52 	lds	r15, 0x5284	; 0x805284 <RO_1000>
    3c84:	00 91 85 52 	lds	r16, 0x5285	; 0x805285 <RO_1000+0x1>
    3c88:	10 91 86 52 	lds	r17, 0x5286	; 0x805286 <RO_1000+0x2>
    3c8c:	80 91 87 52 	lds	r24, 0x5287	; 0x805287 <RO_1000+0x3>
    3c90:	8a 83       	std	Y+2, r24	; 0x02
    3c92:	80 91 88 52 	lds	r24, 0x5288	; 0x805288 <RO_1000+0x4>
    3c96:	89 83       	std	Y+1, r24	; 0x01
    3c98:	b0 91 89 52 	lds	r27, 0x5289	; 0x805289 <RO_1000+0x5>
    3c9c:	f0 91 8a 52 	lds	r31, 0x528A	; 0x80528a <RO_1000+0x6>
    3ca0:	e0 91 8b 52 	lds	r30, 0x528B	; 0x80528b <RO_1000+0x7>
    3ca4:	2f 2d       	mov	r18, r15
    3ca6:	30 2f       	mov	r19, r16
    3ca8:	41 2f       	mov	r20, r17
    3caa:	5a 81       	ldd	r21, Y+2	; 0x02
    3cac:	68 2f       	mov	r22, r24
    3cae:	7b 2f       	mov	r23, r27
    3cb0:	8f 2f       	mov	r24, r31
    3cb2:	9e 2f       	mov	r25, r30
    3cb4:	a0 e0       	ldi	r26, 0x00	; 0
    3cb6:	0e 94 e3 3c 	call	0x79c6	; 0x79c6 <__cmpdi2_s8>
    3cba:	09 f4       	brne	.+2      	; 0x3cbe <RO_Set+0x3fa>
    3cbc:	c9 c1       	rjmp	.+914    	; 0x4050 <__DATA_REGION_LENGTH__+0x50>
    3cbe:	af ef       	ldi	r26, 0xFF	; 255
    3cc0:	0e 94 ce 3c 	call	0x799c	; 0x799c <__adddi3_s8>
    3cc4:	20 93 84 52 	sts	0x5284, r18	; 0x805284 <RO_1000>
    3cc8:	30 93 85 52 	sts	0x5285, r19	; 0x805285 <RO_1000+0x1>
    3ccc:	40 93 86 52 	sts	0x5286, r20	; 0x805286 <RO_1000+0x2>
    3cd0:	50 93 87 52 	sts	0x5287, r21	; 0x805287 <RO_1000+0x3>
    3cd4:	60 93 88 52 	sts	0x5288, r22	; 0x805288 <RO_1000+0x4>
    3cd8:	70 93 89 52 	sts	0x5289, r23	; 0x805289 <RO_1000+0x5>
    3cdc:	80 93 8a 52 	sts	0x528A, r24	; 0x80528a <RO_1000+0x6>
    3ce0:	90 93 8b 52 	sts	0x528B, r25	; 0x80528b <RO_1000+0x7>
    3ce4:	10 92 51 51 	sts	0x5151, r1	; 0x805151 <KEY+0x2>
    3ce8:	b3 c1       	rjmp	.+870    	; 0x4050 <__DATA_REGION_LENGTH__+0x50>
    3cea:	e0 91 84 52 	lds	r30, 0x5284	; 0x805284 <RO_1000>
    3cee:	f0 91 85 52 	lds	r31, 0x5285	; 0x805285 <RO_1000+0x1>
    3cf2:	ed 5b       	subi	r30, 0xBD	; 189
    3cf4:	fe 4b       	sbci	r31, 0xBE	; 190
    3cf6:	80 81       	ld	r24, Z
    3cf8:	80 93 7f 41 	sts	0x417F, r24	; 0x80417f <DIGIT+0x6>
    3cfc:	80 91 7b 51 	lds	r24, 0x517B	; 0x80517b <Blink>
    3d00:	88 23       	and	r24, r24
    3d02:	19 f0       	breq	.+6      	; 0x3d0a <RO_Set+0x446>
    3d04:	10 92 7e 41 	sts	0x417E, r1	; 0x80417e <DIGIT+0x5>
    3d08:	09 c0       	rjmp	.+18     	; 0x3d1c <RO_Set+0x458>
    3d0a:	e0 91 73 51 	lds	r30, 0x5173	; 0x805173 <RO_100>
    3d0e:	f0 91 74 51 	lds	r31, 0x5174	; 0x805174 <RO_100+0x1>
    3d12:	ed 5b       	subi	r30, 0xBD	; 189
    3d14:	fe 4b       	sbci	r31, 0xBE	; 190
    3d16:	80 81       	ld	r24, Z
    3d18:	80 93 7e 41 	sts	0x417E, r24	; 0x80417e <DIGIT+0x5>
    3d1c:	80 91 50 51 	lds	r24, 0x5150	; 0x805150 <KEY+0x1>
    3d20:	88 23       	and	r24, r24
    3d22:	09 f4       	brne	.+2      	; 0x3d26 <RO_Set+0x462>
    3d24:	95 c1       	rjmp	.+810    	; 0x4050 <__DATA_REGION_LENGTH__+0x50>
    3d26:	80 91 51 51 	lds	r24, 0x5151	; 0x805151 <KEY+0x2>
    3d2a:	81 30       	cpi	r24, 0x01	; 1
    3d2c:	a9 f5       	brne	.+106    	; 0x3d98 <RO_Set+0x4d4>
    3d2e:	f0 90 73 51 	lds	r15, 0x5173	; 0x805173 <RO_100>
    3d32:	00 91 74 51 	lds	r16, 0x5174	; 0x805174 <RO_100+0x1>
    3d36:	10 91 75 51 	lds	r17, 0x5175	; 0x805175 <RO_100+0x2>
    3d3a:	80 91 76 51 	lds	r24, 0x5176	; 0x805176 <RO_100+0x3>
    3d3e:	8a 83       	std	Y+2, r24	; 0x02
    3d40:	80 91 77 51 	lds	r24, 0x5177	; 0x805177 <RO_100+0x4>
    3d44:	89 83       	std	Y+1, r24	; 0x01
    3d46:	b0 91 78 51 	lds	r27, 0x5178	; 0x805178 <RO_100+0x5>
    3d4a:	f0 91 79 51 	lds	r31, 0x5179	; 0x805179 <RO_100+0x6>
    3d4e:	e0 91 7a 51 	lds	r30, 0x517A	; 0x80517a <RO_100+0x7>
    3d52:	2f 2d       	mov	r18, r15
    3d54:	30 2f       	mov	r19, r16
    3d56:	41 2f       	mov	r20, r17
    3d58:	5a 81       	ldd	r21, Y+2	; 0x02
    3d5a:	68 2f       	mov	r22, r24
    3d5c:	7b 2f       	mov	r23, r27
    3d5e:	8f 2f       	mov	r24, r31
    3d60:	9e 2f       	mov	r25, r30
    3d62:	a8 e0       	ldi	r26, 0x08	; 8
    3d64:	0e 94 e3 3c 	call	0x79c6	; 0x79c6 <__cmpdi2_s8>
    3d68:	09 f0       	breq	.+2      	; 0x3d6c <RO_Set+0x4a8>
    3d6a:	b0 f4       	brcc	.+44     	; 0x3d98 <RO_Set+0x4d4>
    3d6c:	a1 e0       	ldi	r26, 0x01	; 1
    3d6e:	0e 94 ce 3c 	call	0x799c	; 0x799c <__adddi3_s8>
    3d72:	20 93 73 51 	sts	0x5173, r18	; 0x805173 <RO_100>
    3d76:	30 93 74 51 	sts	0x5174, r19	; 0x805174 <RO_100+0x1>
    3d7a:	40 93 75 51 	sts	0x5175, r20	; 0x805175 <RO_100+0x2>
    3d7e:	50 93 76 51 	sts	0x5176, r21	; 0x805176 <RO_100+0x3>
    3d82:	60 93 77 51 	sts	0x5177, r22	; 0x805177 <RO_100+0x4>
    3d86:	70 93 78 51 	sts	0x5178, r23	; 0x805178 <RO_100+0x5>
    3d8a:	80 93 79 51 	sts	0x5179, r24	; 0x805179 <RO_100+0x6>
    3d8e:	90 93 7a 51 	sts	0x517A, r25	; 0x80517a <RO_100+0x7>
    3d92:	10 92 51 51 	sts	0x5151, r1	; 0x805151 <KEY+0x2>
    3d96:	5c c1       	rjmp	.+696    	; 0x4050 <__DATA_REGION_LENGTH__+0x50>
    3d98:	80 91 51 51 	lds	r24, 0x5151	; 0x805151 <KEY+0x2>
    3d9c:	83 30       	cpi	r24, 0x03	; 3
    3d9e:	09 f0       	breq	.+2      	; 0x3da2 <RO_Set+0x4de>
    3da0:	57 c1       	rjmp	.+686    	; 0x4050 <__DATA_REGION_LENGTH__+0x50>
    3da2:	f0 90 73 51 	lds	r15, 0x5173	; 0x805173 <RO_100>
    3da6:	00 91 74 51 	lds	r16, 0x5174	; 0x805174 <RO_100+0x1>
    3daa:	10 91 75 51 	lds	r17, 0x5175	; 0x805175 <RO_100+0x2>
    3dae:	80 91 76 51 	lds	r24, 0x5176	; 0x805176 <RO_100+0x3>
    3db2:	8a 83       	std	Y+2, r24	; 0x02
    3db4:	80 91 77 51 	lds	r24, 0x5177	; 0x805177 <RO_100+0x4>
    3db8:	89 83       	std	Y+1, r24	; 0x01
    3dba:	b0 91 78 51 	lds	r27, 0x5178	; 0x805178 <RO_100+0x5>
    3dbe:	f0 91 79 51 	lds	r31, 0x5179	; 0x805179 <RO_100+0x6>
    3dc2:	e0 91 7a 51 	lds	r30, 0x517A	; 0x80517a <RO_100+0x7>
    3dc6:	2f 2d       	mov	r18, r15
    3dc8:	30 2f       	mov	r19, r16
    3dca:	41 2f       	mov	r20, r17
    3dcc:	5a 81       	ldd	r21, Y+2	; 0x02
    3dce:	68 2f       	mov	r22, r24
    3dd0:	7b 2f       	mov	r23, r27
    3dd2:	8f 2f       	mov	r24, r31
    3dd4:	9e 2f       	mov	r25, r30
    3dd6:	a0 e0       	ldi	r26, 0x00	; 0
    3dd8:	0e 94 e3 3c 	call	0x79c6	; 0x79c6 <__cmpdi2_s8>
    3ddc:	09 f4       	brne	.+2      	; 0x3de0 <RO_Set+0x51c>
    3dde:	38 c1       	rjmp	.+624    	; 0x4050 <__DATA_REGION_LENGTH__+0x50>
    3de0:	af ef       	ldi	r26, 0xFF	; 255
    3de2:	0e 94 ce 3c 	call	0x799c	; 0x799c <__adddi3_s8>
    3de6:	20 93 73 51 	sts	0x5173, r18	; 0x805173 <RO_100>
    3dea:	30 93 74 51 	sts	0x5174, r19	; 0x805174 <RO_100+0x1>
    3dee:	40 93 75 51 	sts	0x5175, r20	; 0x805175 <RO_100+0x2>
    3df2:	50 93 76 51 	sts	0x5176, r21	; 0x805176 <RO_100+0x3>
    3df6:	60 93 77 51 	sts	0x5177, r22	; 0x805177 <RO_100+0x4>
    3dfa:	70 93 78 51 	sts	0x5178, r23	; 0x805178 <RO_100+0x5>
    3dfe:	80 93 79 51 	sts	0x5179, r24	; 0x805179 <RO_100+0x6>
    3e02:	90 93 7a 51 	sts	0x517A, r25	; 0x80517a <RO_100+0x7>
    3e06:	10 92 51 51 	sts	0x5151, r1	; 0x805151 <KEY+0x2>
    3e0a:	22 c1       	rjmp	.+580    	; 0x4050 <__DATA_REGION_LENGTH__+0x50>
    3e0c:	e0 91 73 51 	lds	r30, 0x5173	; 0x805173 <RO_100>
    3e10:	f0 91 74 51 	lds	r31, 0x5174	; 0x805174 <RO_100+0x1>
    3e14:	ed 5b       	subi	r30, 0xBD	; 189
    3e16:	fe 4b       	sbci	r31, 0xBE	; 190
    3e18:	80 81       	ld	r24, Z
    3e1a:	80 93 7e 41 	sts	0x417E, r24	; 0x80417e <DIGIT+0x5>
    3e1e:	80 91 7b 51 	lds	r24, 0x517B	; 0x80517b <Blink>
    3e22:	88 23       	and	r24, r24
    3e24:	19 f0       	breq	.+6      	; 0x3e2c <RO_Set+0x568>
    3e26:	10 92 7d 41 	sts	0x417D, r1	; 0x80417d <DIGIT+0x4>
    3e2a:	09 c0       	rjmp	.+18     	; 0x3e3e <RO_Set+0x57a>
    3e2c:	e0 91 42 51 	lds	r30, 0x5142	; 0x805142 <RO_10>
    3e30:	f0 91 43 51 	lds	r31, 0x5143	; 0x805143 <RO_10+0x1>
    3e34:	ed 5b       	subi	r30, 0xBD	; 189
    3e36:	fe 4b       	sbci	r31, 0xBE	; 190
    3e38:	80 81       	ld	r24, Z
    3e3a:	80 93 7d 41 	sts	0x417D, r24	; 0x80417d <DIGIT+0x4>
    3e3e:	80 91 50 51 	lds	r24, 0x5150	; 0x805150 <KEY+0x1>
    3e42:	88 23       	and	r24, r24
    3e44:	09 f4       	brne	.+2      	; 0x3e48 <RO_Set+0x584>
    3e46:	04 c1       	rjmp	.+520    	; 0x4050 <__DATA_REGION_LENGTH__+0x50>
    3e48:	80 91 51 51 	lds	r24, 0x5151	; 0x805151 <KEY+0x2>
    3e4c:	81 30       	cpi	r24, 0x01	; 1
    3e4e:	a9 f5       	brne	.+106    	; 0x3eba <RO_Set+0x5f6>
    3e50:	f0 90 42 51 	lds	r15, 0x5142	; 0x805142 <RO_10>
    3e54:	00 91 43 51 	lds	r16, 0x5143	; 0x805143 <RO_10+0x1>
    3e58:	10 91 44 51 	lds	r17, 0x5144	; 0x805144 <RO_10+0x2>
    3e5c:	80 91 45 51 	lds	r24, 0x5145	; 0x805145 <RO_10+0x3>
    3e60:	8a 83       	std	Y+2, r24	; 0x02
    3e62:	80 91 46 51 	lds	r24, 0x5146	; 0x805146 <RO_10+0x4>
    3e66:	89 83       	std	Y+1, r24	; 0x01
    3e68:	b0 91 47 51 	lds	r27, 0x5147	; 0x805147 <RO_10+0x5>
    3e6c:	f0 91 48 51 	lds	r31, 0x5148	; 0x805148 <RO_10+0x6>
    3e70:	e0 91 49 51 	lds	r30, 0x5149	; 0x805149 <RO_10+0x7>
    3e74:	2f 2d       	mov	r18, r15
    3e76:	30 2f       	mov	r19, r16
    3e78:	41 2f       	mov	r20, r17
    3e7a:	5a 81       	ldd	r21, Y+2	; 0x02
    3e7c:	68 2f       	mov	r22, r24
    3e7e:	7b 2f       	mov	r23, r27
    3e80:	8f 2f       	mov	r24, r31
    3e82:	9e 2f       	mov	r25, r30
    3e84:	a8 e0       	ldi	r26, 0x08	; 8
    3e86:	0e 94 e3 3c 	call	0x79c6	; 0x79c6 <__cmpdi2_s8>
    3e8a:	09 f0       	breq	.+2      	; 0x3e8e <RO_Set+0x5ca>
    3e8c:	b0 f4       	brcc	.+44     	; 0x3eba <RO_Set+0x5f6>
    3e8e:	a1 e0       	ldi	r26, 0x01	; 1
    3e90:	0e 94 ce 3c 	call	0x799c	; 0x799c <__adddi3_s8>
    3e94:	20 93 42 51 	sts	0x5142, r18	; 0x805142 <RO_10>
    3e98:	30 93 43 51 	sts	0x5143, r19	; 0x805143 <RO_10+0x1>
    3e9c:	40 93 44 51 	sts	0x5144, r20	; 0x805144 <RO_10+0x2>
    3ea0:	50 93 45 51 	sts	0x5145, r21	; 0x805145 <RO_10+0x3>
    3ea4:	60 93 46 51 	sts	0x5146, r22	; 0x805146 <RO_10+0x4>
    3ea8:	70 93 47 51 	sts	0x5147, r23	; 0x805147 <RO_10+0x5>
    3eac:	80 93 48 51 	sts	0x5148, r24	; 0x805148 <RO_10+0x6>
    3eb0:	90 93 49 51 	sts	0x5149, r25	; 0x805149 <RO_10+0x7>
    3eb4:	10 92 51 51 	sts	0x5151, r1	; 0x805151 <KEY+0x2>
    3eb8:	cb c0       	rjmp	.+406    	; 0x4050 <__DATA_REGION_LENGTH__+0x50>
    3eba:	80 91 51 51 	lds	r24, 0x5151	; 0x805151 <KEY+0x2>
    3ebe:	83 30       	cpi	r24, 0x03	; 3
    3ec0:	09 f0       	breq	.+2      	; 0x3ec4 <RO_Set+0x600>
    3ec2:	c6 c0       	rjmp	.+396    	; 0x4050 <__DATA_REGION_LENGTH__+0x50>
    3ec4:	f0 90 42 51 	lds	r15, 0x5142	; 0x805142 <RO_10>
    3ec8:	00 91 43 51 	lds	r16, 0x5143	; 0x805143 <RO_10+0x1>
    3ecc:	10 91 44 51 	lds	r17, 0x5144	; 0x805144 <RO_10+0x2>
    3ed0:	80 91 45 51 	lds	r24, 0x5145	; 0x805145 <RO_10+0x3>
    3ed4:	8a 83       	std	Y+2, r24	; 0x02
    3ed6:	80 91 46 51 	lds	r24, 0x5146	; 0x805146 <RO_10+0x4>
    3eda:	89 83       	std	Y+1, r24	; 0x01
    3edc:	b0 91 47 51 	lds	r27, 0x5147	; 0x805147 <RO_10+0x5>
    3ee0:	f0 91 48 51 	lds	r31, 0x5148	; 0x805148 <RO_10+0x6>
    3ee4:	e0 91 49 51 	lds	r30, 0x5149	; 0x805149 <RO_10+0x7>
    3ee8:	2f 2d       	mov	r18, r15
    3eea:	30 2f       	mov	r19, r16
    3eec:	41 2f       	mov	r20, r17
    3eee:	5a 81       	ldd	r21, Y+2	; 0x02
    3ef0:	68 2f       	mov	r22, r24
    3ef2:	7b 2f       	mov	r23, r27
    3ef4:	8f 2f       	mov	r24, r31
    3ef6:	9e 2f       	mov	r25, r30
    3ef8:	a0 e0       	ldi	r26, 0x00	; 0
    3efa:	0e 94 e3 3c 	call	0x79c6	; 0x79c6 <__cmpdi2_s8>
    3efe:	09 f4       	brne	.+2      	; 0x3f02 <RO_Set+0x63e>
    3f00:	a7 c0       	rjmp	.+334    	; 0x4050 <__DATA_REGION_LENGTH__+0x50>
    3f02:	af ef       	ldi	r26, 0xFF	; 255
    3f04:	0e 94 ce 3c 	call	0x799c	; 0x799c <__adddi3_s8>
    3f08:	20 93 42 51 	sts	0x5142, r18	; 0x805142 <RO_10>
    3f0c:	30 93 43 51 	sts	0x5143, r19	; 0x805143 <RO_10+0x1>
    3f10:	40 93 44 51 	sts	0x5144, r20	; 0x805144 <RO_10+0x2>
    3f14:	50 93 45 51 	sts	0x5145, r21	; 0x805145 <RO_10+0x3>
    3f18:	60 93 46 51 	sts	0x5146, r22	; 0x805146 <RO_10+0x4>
    3f1c:	70 93 47 51 	sts	0x5147, r23	; 0x805147 <RO_10+0x5>
    3f20:	80 93 48 51 	sts	0x5148, r24	; 0x805148 <RO_10+0x6>
    3f24:	90 93 49 51 	sts	0x5149, r25	; 0x805149 <RO_10+0x7>
    3f28:	10 92 51 51 	sts	0x5151, r1	; 0x805151 <KEY+0x2>
    3f2c:	91 c0       	rjmp	.+290    	; 0x4050 <__DATA_REGION_LENGTH__+0x50>
    3f2e:	e0 91 42 51 	lds	r30, 0x5142	; 0x805142 <RO_10>
    3f32:	f0 91 43 51 	lds	r31, 0x5143	; 0x805143 <RO_10+0x1>
    3f36:	ed 5b       	subi	r30, 0xBD	; 189
    3f38:	fe 4b       	sbci	r31, 0xBE	; 190
    3f3a:	80 81       	ld	r24, Z
    3f3c:	80 93 7d 41 	sts	0x417D, r24	; 0x80417d <DIGIT+0x4>
    3f40:	80 91 7b 51 	lds	r24, 0x517B	; 0x80517b <Blink>
    3f44:	88 23       	and	r24, r24
    3f46:	19 f0       	breq	.+6      	; 0x3f4e <RO_Set+0x68a>
    3f48:	10 92 84 41 	sts	0x4184, r1	; 0x804184 <DIGIT+0xb>
    3f4c:	09 c0       	rjmp	.+18     	; 0x3f60 <RO_Set+0x69c>
    3f4e:	e0 91 81 51 	lds	r30, 0x5181	; 0x805181 <RO_1>
    3f52:	f0 91 82 51 	lds	r31, 0x5182	; 0x805182 <RO_1+0x1>
    3f56:	ed 5b       	subi	r30, 0xBD	; 189
    3f58:	fe 4b       	sbci	r31, 0xBE	; 190
    3f5a:	80 81       	ld	r24, Z
    3f5c:	80 93 84 41 	sts	0x4184, r24	; 0x804184 <DIGIT+0xb>
    3f60:	80 91 50 51 	lds	r24, 0x5150	; 0x805150 <KEY+0x1>
    3f64:	88 23       	and	r24, r24
    3f66:	09 f4       	brne	.+2      	; 0x3f6a <RO_Set+0x6a6>
    3f68:	73 c0       	rjmp	.+230    	; 0x4050 <__DATA_REGION_LENGTH__+0x50>
    3f6a:	80 91 51 51 	lds	r24, 0x5151	; 0x805151 <KEY+0x2>
    3f6e:	81 30       	cpi	r24, 0x01	; 1
    3f70:	a9 f5       	brne	.+106    	; 0x3fdc <RO_Set+0x718>
    3f72:	f0 90 81 51 	lds	r15, 0x5181	; 0x805181 <RO_1>
    3f76:	00 91 82 51 	lds	r16, 0x5182	; 0x805182 <RO_1+0x1>
    3f7a:	10 91 83 51 	lds	r17, 0x5183	; 0x805183 <RO_1+0x2>
    3f7e:	80 91 84 51 	lds	r24, 0x5184	; 0x805184 <RO_1+0x3>
    3f82:	8a 83       	std	Y+2, r24	; 0x02
    3f84:	80 91 85 51 	lds	r24, 0x5185	; 0x805185 <RO_1+0x4>
    3f88:	89 83       	std	Y+1, r24	; 0x01
    3f8a:	b0 91 86 51 	lds	r27, 0x5186	; 0x805186 <RO_1+0x5>
    3f8e:	f0 91 87 51 	lds	r31, 0x5187	; 0x805187 <RO_1+0x6>
    3f92:	e0 91 88 51 	lds	r30, 0x5188	; 0x805188 <RO_1+0x7>
    3f96:	2f 2d       	mov	r18, r15
    3f98:	30 2f       	mov	r19, r16
    3f9a:	41 2f       	mov	r20, r17
    3f9c:	5a 81       	ldd	r21, Y+2	; 0x02
    3f9e:	68 2f       	mov	r22, r24
    3fa0:	7b 2f       	mov	r23, r27
    3fa2:	8f 2f       	mov	r24, r31
    3fa4:	9e 2f       	mov	r25, r30
    3fa6:	a8 e0       	ldi	r26, 0x08	; 8
    3fa8:	0e 94 e3 3c 	call	0x79c6	; 0x79c6 <__cmpdi2_s8>
    3fac:	09 f0       	breq	.+2      	; 0x3fb0 <RO_Set+0x6ec>
    3fae:	b0 f4       	brcc	.+44     	; 0x3fdc <RO_Set+0x718>
    3fb0:	a1 e0       	ldi	r26, 0x01	; 1
    3fb2:	0e 94 ce 3c 	call	0x799c	; 0x799c <__adddi3_s8>
    3fb6:	20 93 81 51 	sts	0x5181, r18	; 0x805181 <RO_1>
    3fba:	30 93 82 51 	sts	0x5182, r19	; 0x805182 <RO_1+0x1>
    3fbe:	40 93 83 51 	sts	0x5183, r20	; 0x805183 <RO_1+0x2>
    3fc2:	50 93 84 51 	sts	0x5184, r21	; 0x805184 <RO_1+0x3>
    3fc6:	60 93 85 51 	sts	0x5185, r22	; 0x805185 <RO_1+0x4>
    3fca:	70 93 86 51 	sts	0x5186, r23	; 0x805186 <RO_1+0x5>
    3fce:	80 93 87 51 	sts	0x5187, r24	; 0x805187 <RO_1+0x6>
    3fd2:	90 93 88 51 	sts	0x5188, r25	; 0x805188 <RO_1+0x7>
    3fd6:	10 92 51 51 	sts	0x5151, r1	; 0x805151 <KEY+0x2>
    3fda:	3a c0       	rjmp	.+116    	; 0x4050 <__DATA_REGION_LENGTH__+0x50>
    3fdc:	80 91 51 51 	lds	r24, 0x5151	; 0x805151 <KEY+0x2>
    3fe0:	83 30       	cpi	r24, 0x03	; 3
    3fe2:	b1 f5       	brne	.+108    	; 0x4050 <__DATA_REGION_LENGTH__+0x50>
    3fe4:	f0 90 81 51 	lds	r15, 0x5181	; 0x805181 <RO_1>
    3fe8:	00 91 82 51 	lds	r16, 0x5182	; 0x805182 <RO_1+0x1>
    3fec:	10 91 83 51 	lds	r17, 0x5183	; 0x805183 <RO_1+0x2>
    3ff0:	80 91 84 51 	lds	r24, 0x5184	; 0x805184 <RO_1+0x3>
    3ff4:	8a 83       	std	Y+2, r24	; 0x02
    3ff6:	80 91 85 51 	lds	r24, 0x5185	; 0x805185 <RO_1+0x4>
    3ffa:	89 83       	std	Y+1, r24	; 0x01
    3ffc:	b0 91 86 51 	lds	r27, 0x5186	; 0x805186 <RO_1+0x5>
    4000:	f0 91 87 51 	lds	r31, 0x5187	; 0x805187 <RO_1+0x6>
    4004:	e0 91 88 51 	lds	r30, 0x5188	; 0x805188 <RO_1+0x7>
    4008:	2f 2d       	mov	r18, r15
    400a:	30 2f       	mov	r19, r16
    400c:	41 2f       	mov	r20, r17
    400e:	5a 81       	ldd	r21, Y+2	; 0x02
    4010:	68 2f       	mov	r22, r24
    4012:	7b 2f       	mov	r23, r27
    4014:	8f 2f       	mov	r24, r31
    4016:	9e 2f       	mov	r25, r30
    4018:	a0 e0       	ldi	r26, 0x00	; 0
    401a:	0e 94 e3 3c 	call	0x79c6	; 0x79c6 <__cmpdi2_s8>
    401e:	c1 f0       	breq	.+48     	; 0x4050 <__DATA_REGION_LENGTH__+0x50>
    4020:	af ef       	ldi	r26, 0xFF	; 255
    4022:	0e 94 ce 3c 	call	0x799c	; 0x799c <__adddi3_s8>
    4026:	20 93 81 51 	sts	0x5181, r18	; 0x805181 <RO_1>
    402a:	30 93 82 51 	sts	0x5182, r19	; 0x805182 <RO_1+0x1>
    402e:	40 93 83 51 	sts	0x5183, r20	; 0x805183 <RO_1+0x2>
    4032:	50 93 84 51 	sts	0x5184, r21	; 0x805184 <RO_1+0x3>
    4036:	60 93 85 51 	sts	0x5185, r22	; 0x805185 <RO_1+0x4>
    403a:	70 93 86 51 	sts	0x5186, r23	; 0x805186 <RO_1+0x5>
    403e:	80 93 87 51 	sts	0x5187, r24	; 0x805187 <RO_1+0x6>
    4042:	90 93 88 51 	sts	0x5188, r25	; 0x805188 <RO_1+0x7>
    4046:	10 92 51 51 	sts	0x5151, r1	; 0x805151 <KEY+0x2>
    404a:	02 c0       	rjmp	.+4      	; 0x4050 <__DATA_REGION_LENGTH__+0x50>
    404c:	10 92 4f 51 	sts	0x514F, r1	; 0x80514f <KEY>
    4050:	0e 94 7e 0e 	call	0x1cfc	; 0x1cfc <wdt_reset>
    4054:	80 91 10 51 	lds	r24, 0x5110	; 0x805110 <SET>
    4058:	81 11       	cpse	r24, r1
    405a:	0a cd       	rjmp	.-1516   	; 0x3a70 <RO_Set+0x1ac>
    405c:	68 94       	set
    405e:	aa 24       	eor	r10, r10
    4060:	a4 f8       	bld	r10, 4
    4062:	0f 2e       	mov	r0, r31
    4064:	f7 e2       	ldi	r31, 0x27	; 39
    4066:	bf 2e       	mov	r11, r31
    4068:	f0 2d       	mov	r31, r0
    406a:	c1 2c       	mov	r12, r1
    406c:	d1 2c       	mov	r13, r1
    406e:	e1 2c       	mov	r14, r1
    4070:	f1 2c       	mov	r15, r1
    4072:	00 e0       	ldi	r16, 0x00	; 0
    4074:	10 e0       	ldi	r17, 0x00	; 0
    4076:	20 91 5b 51 	lds	r18, 0x515B	; 0x80515b <RO_10000>
    407a:	30 91 5c 51 	lds	r19, 0x515C	; 0x80515c <RO_10000+0x1>
    407e:	40 91 5d 51 	lds	r20, 0x515D	; 0x80515d <RO_10000+0x2>
    4082:	50 91 5e 51 	lds	r21, 0x515E	; 0x80515e <RO_10000+0x3>
    4086:	60 91 5f 51 	lds	r22, 0x515F	; 0x80515f <RO_10000+0x4>
    408a:	70 91 60 51 	lds	r23, 0x5160	; 0x805160 <RO_10000+0x5>
    408e:	80 91 61 51 	lds	r24, 0x5161	; 0x805161 <RO_10000+0x6>
    4092:	90 91 62 51 	lds	r25, 0x5162	; 0x805162 <RO_10000+0x7>
    4096:	0e 94 f4 3b 	call	0x77e8	; 0x77e8 <__muldi3>
    409a:	62 2e       	mov	r6, r18
    409c:	73 2e       	mov	r7, r19
    409e:	84 2e       	mov	r8, r20
    40a0:	95 2e       	mov	r9, r21
    40a2:	6d 83       	std	Y+5, r22	; 0x05
    40a4:	79 83       	std	Y+1, r23	; 0x01
    40a6:	8a 83       	std	Y+2, r24	; 0x02
    40a8:	9b 83       	std	Y+3, r25	; 0x03
    40aa:	e0 91 84 52 	lds	r30, 0x5284	; 0x805284 <RO_1000>
    40ae:	50 90 85 52 	lds	r5, 0x5285	; 0x805285 <RO_1000+0x1>
    40b2:	40 90 86 52 	lds	r4, 0x5286	; 0x805286 <RO_1000+0x2>
    40b6:	30 90 87 52 	lds	r3, 0x5287	; 0x805287 <RO_1000+0x3>
    40ba:	20 90 88 52 	lds	r2, 0x5288	; 0x805288 <RO_1000+0x4>
    40be:	80 91 89 52 	lds	r24, 0x5289	; 0x805289 <RO_1000+0x5>
    40c2:	8c 83       	std	Y+4, r24	; 0x04
    40c4:	b0 91 8a 52 	lds	r27, 0x528A	; 0x80528a <RO_1000+0x6>
    40c8:	a0 91 8b 52 	lds	r26, 0x528B	; 0x80528b <RO_1000+0x7>
    40cc:	2e 2f       	mov	r18, r30
    40ce:	35 2d       	mov	r19, r5
    40d0:	44 2d       	mov	r20, r4
    40d2:	53 2d       	mov	r21, r3
    40d4:	62 2d       	mov	r22, r2
    40d6:	78 2f       	mov	r23, r24
    40d8:	8b 2f       	mov	r24, r27
    40da:	9a 2f       	mov	r25, r26
    40dc:	02 e0       	ldi	r16, 0x02	; 2
    40de:	0e 94 ac 3c 	call	0x7958	; 0x7958 <__ashldi3>
    40e2:	a2 2e       	mov	r10, r18
    40e4:	b3 2e       	mov	r11, r19
    40e6:	c4 2e       	mov	r12, r20
    40e8:	d5 2e       	mov	r13, r21
    40ea:	e6 2e       	mov	r14, r22
    40ec:	f7 2e       	mov	r15, r23
    40ee:	f8 2f       	mov	r31, r24
    40f0:	19 2f       	mov	r17, r25
    40f2:	05 e0       	ldi	r16, 0x05	; 5
    40f4:	0e 94 ac 3c 	call	0x7958	; 0x7958 <__ashldi3>
    40f8:	0f 2f       	mov	r16, r31
    40fa:	0e 94 da 3c 	call	0x79b4	; 0x79b4 <__subdi3>
    40fe:	ae 2e       	mov	r10, r30
    4100:	b5 2c       	mov	r11, r5
    4102:	c4 2c       	mov	r12, r4
    4104:	d3 2c       	mov	r13, r3
    4106:	e2 2c       	mov	r14, r2
    4108:	fc 80       	ldd	r15, Y+4	; 0x04
    410a:	0b 2f       	mov	r16, r27
    410c:	1a 2f       	mov	r17, r26
    410e:	0e 94 c5 3c 	call	0x798a	; 0x798a <__adddi3>
    4112:	03 e0       	ldi	r16, 0x03	; 3
    4114:	0e 94 ac 3c 	call	0x7958	; 0x7958 <__ashldi3>
    4118:	a2 2e       	mov	r10, r18
    411a:	b3 2e       	mov	r11, r19
    411c:	c4 2e       	mov	r12, r20
    411e:	d5 2e       	mov	r13, r21
    4120:	e6 2e       	mov	r14, r22
    4122:	f7 2e       	mov	r15, r23
    4124:	08 2f       	mov	r16, r24
    4126:	19 2f       	mov	r17, r25
    4128:	26 2d       	mov	r18, r6
    412a:	37 2d       	mov	r19, r7
    412c:	48 2d       	mov	r20, r8
    412e:	59 2d       	mov	r21, r9
    4130:	6d 81       	ldd	r22, Y+5	; 0x05
    4132:	79 81       	ldd	r23, Y+1	; 0x01
    4134:	8a 81       	ldd	r24, Y+2	; 0x02
    4136:	9b 81       	ldd	r25, Y+3	; 0x03
    4138:	0e 94 c5 3c 	call	0x798a	; 0x798a <__adddi3>
    413c:	22 2e       	mov	r2, r18
    413e:	33 2e       	mov	r3, r19
    4140:	44 2e       	mov	r4, r20
    4142:	55 2e       	mov	r5, r21
    4144:	66 2e       	mov	r6, r22
    4146:	77 2e       	mov	r7, r23
    4148:	89 83       	std	Y+1, r24	; 0x01
    414a:	9a 83       	std	Y+2, r25	; 0x02
    414c:	20 91 73 51 	lds	r18, 0x5173	; 0x805173 <RO_100>
    4150:	30 91 74 51 	lds	r19, 0x5174	; 0x805174 <RO_100+0x1>
    4154:	40 91 75 51 	lds	r20, 0x5175	; 0x805175 <RO_100+0x2>
    4158:	50 91 76 51 	lds	r21, 0x5176	; 0x805176 <RO_100+0x3>
    415c:	60 91 77 51 	lds	r22, 0x5177	; 0x805177 <RO_100+0x4>
    4160:	70 91 78 51 	lds	r23, 0x5178	; 0x805178 <RO_100+0x5>
    4164:	80 91 79 51 	lds	r24, 0x5179	; 0x805179 <RO_100+0x6>
    4168:	90 91 7a 51 	lds	r25, 0x517A	; 0x80517a <RO_100+0x7>
    416c:	02 e0       	ldi	r16, 0x02	; 2
    416e:	0e 94 ac 3c 	call	0x7958	; 0x7958 <__ashldi3>
    4172:	82 2e       	mov	r8, r18
    4174:	93 2e       	mov	r9, r19
    4176:	4c 83       	std	Y+4, r20	; 0x04
    4178:	5b 83       	std	Y+3, r21	; 0x03
    417a:	b6 2f       	mov	r27, r22
    417c:	a7 2f       	mov	r26, r23
    417e:	f8 2f       	mov	r31, r24
    4180:	e9 2f       	mov	r30, r25
    4182:	0e 94 ac 3c 	call	0x7958	; 0x7958 <__ashldi3>
    4186:	a2 2e       	mov	r10, r18
    4188:	b3 2e       	mov	r11, r19
    418a:	c4 2e       	mov	r12, r20
    418c:	d5 2e       	mov	r13, r21
    418e:	e6 2e       	mov	r14, r22
    4190:	f7 2e       	mov	r15, r23
    4192:	08 2f       	mov	r16, r24
    4194:	19 2f       	mov	r17, r25
    4196:	28 2d       	mov	r18, r8
    4198:	39 2d       	mov	r19, r9
    419a:	4c 81       	ldd	r20, Y+4	; 0x04
    419c:	5b 81       	ldd	r21, Y+3	; 0x03
    419e:	6b 2f       	mov	r22, r27
    41a0:	7a 2f       	mov	r23, r26
    41a2:	8f 2f       	mov	r24, r31
    41a4:	9e 2f       	mov	r25, r30
    41a6:	0e 94 c5 3c 	call	0x798a	; 0x798a <__adddi3>
    41aa:	82 2e       	mov	r8, r18
    41ac:	93 2e       	mov	r9, r19
    41ae:	4c 83       	std	Y+4, r20	; 0x04
    41b0:	5b 83       	std	Y+3, r21	; 0x03
    41b2:	b6 2f       	mov	r27, r22
    41b4:	a7 2f       	mov	r26, r23
    41b6:	f8 2f       	mov	r31, r24
    41b8:	e9 2f       	mov	r30, r25
    41ba:	02 e0       	ldi	r16, 0x02	; 2
    41bc:	0e 94 ac 3c 	call	0x7958	; 0x7958 <__ashldi3>
    41c0:	a2 2e       	mov	r10, r18
    41c2:	b3 2e       	mov	r11, r19
    41c4:	c4 2e       	mov	r12, r20
    41c6:	d5 2e       	mov	r13, r21
    41c8:	e6 2e       	mov	r14, r22
    41ca:	f7 2e       	mov	r15, r23
    41cc:	08 2f       	mov	r16, r24
    41ce:	19 2f       	mov	r17, r25
    41d0:	28 2d       	mov	r18, r8
    41d2:	39 2d       	mov	r19, r9
    41d4:	4c 81       	ldd	r20, Y+4	; 0x04
    41d6:	5b 81       	ldd	r21, Y+3	; 0x03
    41d8:	6b 2f       	mov	r22, r27
    41da:	7a 2f       	mov	r23, r26
    41dc:	8f 2f       	mov	r24, r31
    41de:	9e 2f       	mov	r25, r30
    41e0:	0e 94 c5 3c 	call	0x798a	; 0x798a <__adddi3>
    41e4:	a2 2e       	mov	r10, r18
    41e6:	b3 2e       	mov	r11, r19
    41e8:	c4 2e       	mov	r12, r20
    41ea:	d5 2e       	mov	r13, r21
    41ec:	e6 2e       	mov	r14, r22
    41ee:	f7 2e       	mov	r15, r23
    41f0:	08 2f       	mov	r16, r24
    41f2:	19 2f       	mov	r17, r25
    41f4:	22 2d       	mov	r18, r2
    41f6:	33 2d       	mov	r19, r3
    41f8:	44 2d       	mov	r20, r4
    41fa:	55 2d       	mov	r21, r5
    41fc:	66 2d       	mov	r22, r6
    41fe:	77 2d       	mov	r23, r7
    4200:	89 81       	ldd	r24, Y+1	; 0x01
    4202:	9a 81       	ldd	r25, Y+2	; 0x02
    4204:	0e 94 c5 3c 	call	0x798a	; 0x798a <__adddi3>
    4208:	22 2e       	mov	r2, r18
    420a:	33 2e       	mov	r3, r19
    420c:	44 2e       	mov	r4, r20
    420e:	55 2e       	mov	r5, r21
    4210:	66 2e       	mov	r6, r22
    4212:	77 2e       	mov	r7, r23
    4214:	89 83       	std	Y+1, r24	; 0x01
    4216:	9a 83       	std	Y+2, r25	; 0x02
    4218:	20 91 42 51 	lds	r18, 0x5142	; 0x805142 <RO_10>
    421c:	30 91 43 51 	lds	r19, 0x5143	; 0x805143 <RO_10+0x1>
    4220:	40 91 44 51 	lds	r20, 0x5144	; 0x805144 <RO_10+0x2>
    4224:	50 91 45 51 	lds	r21, 0x5145	; 0x805145 <RO_10+0x3>
    4228:	60 91 46 51 	lds	r22, 0x5146	; 0x805146 <RO_10+0x4>
    422c:	70 91 47 51 	lds	r23, 0x5147	; 0x805147 <RO_10+0x5>
    4230:	80 91 48 51 	lds	r24, 0x5148	; 0x805148 <RO_10+0x6>
    4234:	90 91 49 51 	lds	r25, 0x5149	; 0x805149 <RO_10+0x7>
    4238:	01 e0       	ldi	r16, 0x01	; 1
    423a:	0e 94 ac 3c 	call	0x7958	; 0x7958 <__ashldi3>
    423e:	82 2e       	mov	r8, r18
    4240:	93 2e       	mov	r9, r19
    4242:	4c 83       	std	Y+4, r20	; 0x04
    4244:	5b 83       	std	Y+3, r21	; 0x03
    4246:	b6 2f       	mov	r27, r22
    4248:	a7 2f       	mov	r26, r23
    424a:	f8 2f       	mov	r31, r24
    424c:	e9 2f       	mov	r30, r25
    424e:	02 e0       	ldi	r16, 0x02	; 2
    4250:	0e 94 ac 3c 	call	0x7958	; 0x7958 <__ashldi3>
    4254:	a2 2e       	mov	r10, r18
    4256:	b3 2e       	mov	r11, r19
    4258:	c4 2e       	mov	r12, r20
    425a:	d5 2e       	mov	r13, r21
    425c:	e6 2e       	mov	r14, r22
    425e:	f7 2e       	mov	r15, r23
    4260:	08 2f       	mov	r16, r24
    4262:	19 2f       	mov	r17, r25
    4264:	28 2d       	mov	r18, r8
    4266:	39 2d       	mov	r19, r9
    4268:	4c 81       	ldd	r20, Y+4	; 0x04
    426a:	5b 81       	ldd	r21, Y+3	; 0x03
    426c:	6b 2f       	mov	r22, r27
    426e:	7a 2f       	mov	r23, r26
    4270:	8f 2f       	mov	r24, r31
    4272:	9e 2f       	mov	r25, r30
    4274:	0e 94 c5 3c 	call	0x798a	; 0x798a <__adddi3>
    4278:	a2 2e       	mov	r10, r18
    427a:	b3 2e       	mov	r11, r19
    427c:	c4 2e       	mov	r12, r20
    427e:	d5 2e       	mov	r13, r21
    4280:	e6 2e       	mov	r14, r22
    4282:	f7 2e       	mov	r15, r23
    4284:	08 2f       	mov	r16, r24
    4286:	19 2f       	mov	r17, r25
    4288:	22 2d       	mov	r18, r2
    428a:	33 2d       	mov	r19, r3
    428c:	44 2d       	mov	r20, r4
    428e:	55 2d       	mov	r21, r5
    4290:	66 2d       	mov	r22, r6
    4292:	77 2d       	mov	r23, r7
    4294:	89 81       	ldd	r24, Y+1	; 0x01
    4296:	9a 81       	ldd	r25, Y+2	; 0x02
    4298:	0e 94 c5 3c 	call	0x798a	; 0x798a <__adddi3>
    429c:	a0 90 81 51 	lds	r10, 0x5181	; 0x805181 <RO_1>
    42a0:	b0 90 82 51 	lds	r11, 0x5182	; 0x805182 <RO_1+0x1>
    42a4:	c0 90 83 51 	lds	r12, 0x5183	; 0x805183 <RO_1+0x2>
    42a8:	d0 90 84 51 	lds	r13, 0x5184	; 0x805184 <RO_1+0x3>
    42ac:	e0 90 85 51 	lds	r14, 0x5185	; 0x805185 <RO_1+0x4>
    42b0:	f0 90 86 51 	lds	r15, 0x5186	; 0x805186 <RO_1+0x5>
    42b4:	00 91 87 51 	lds	r16, 0x5187	; 0x805187 <RO_1+0x6>
    42b8:	10 91 88 51 	lds	r17, 0x5188	; 0x805188 <RO_1+0x7>
    42bc:	0e 94 c5 3c 	call	0x798a	; 0x798a <__adddi3>
    42c0:	20 93 15 51 	sts	0x5115, r18	; 0x805115 <RO>
    42c4:	30 93 16 51 	sts	0x5116, r19	; 0x805116 <RO+0x1>
    42c8:	40 93 17 51 	sts	0x5117, r20	; 0x805117 <RO+0x2>
    42cc:	50 93 18 51 	sts	0x5118, r21	; 0x805118 <RO+0x3>
    42d0:	60 93 19 51 	sts	0x5119, r22	; 0x805119 <RO+0x4>
    42d4:	70 93 1a 51 	sts	0x511A, r23	; 0x80511a <RO+0x5>
    42d8:	80 93 1b 51 	sts	0x511B, r24	; 0x80511b <RO+0x6>
    42dc:	90 93 1c 51 	sts	0x511C, r25	; 0x80511c <RO+0x7>
    42e0:	64 2f       	mov	r22, r20
    42e2:	75 2f       	mov	r23, r21
    42e4:	42 2f       	mov	r20, r18
    42e6:	53 2f       	mov	r21, r19
    42e8:	8c e0       	ldi	r24, 0x0C	; 12
    42ea:	90 e0       	ldi	r25, 0x00	; 0
    42ec:	0e 94 5b 13 	call	0x26b6	; 0x26b6 <ee_write_dword>
    42f0:	e0 e1       	ldi	r30, 0x10	; 16
    42f2:	f1 e5       	ldi	r31, 0x51	; 81
    42f4:	81 e0       	ldi	r24, 0x01	; 1
    42f6:	80 83       	st	Z, r24
    42f8:	11 82       	std	Z+1, r1	; 0x01
    42fa:	13 82       	std	Z+3, r1	; 0x03
    42fc:	10 92 4f 51 	sts	0x514F, r1	; 0x80514f <KEY>
    4300:	25 96       	adiw	r28, 0x05	; 5
    4302:	cd bf       	out	0x3d, r28	; 61
    4304:	de bf       	out	0x3e, r29	; 62
    4306:	df 91       	pop	r29
    4308:	cf 91       	pop	r28
    430a:	1f 91       	pop	r17
    430c:	0f 91       	pop	r16
    430e:	ff 90       	pop	r15
    4310:	ef 90       	pop	r14
    4312:	df 90       	pop	r13
    4314:	cf 90       	pop	r12
    4316:	bf 90       	pop	r11
    4318:	af 90       	pop	r10
    431a:	9f 90       	pop	r9
    431c:	8f 90       	pop	r8
    431e:	7f 90       	pop	r7
    4320:	6f 90       	pop	r6
    4322:	5f 90       	pop	r5
    4324:	4f 90       	pop	r4
    4326:	3f 90       	pop	r3
    4328:	2f 90       	pop	r2
    432a:	08 95       	ret

0000432c <Interval_Set>:
    432c:	2f 92       	push	r2
    432e:	3f 92       	push	r3
    4330:	4f 92       	push	r4
    4332:	5f 92       	push	r5
    4334:	6f 92       	push	r6
    4336:	7f 92       	push	r7
    4338:	8f 92       	push	r8
    433a:	9f 92       	push	r9
    433c:	af 92       	push	r10
    433e:	bf 92       	push	r11
    4340:	cf 92       	push	r12
    4342:	df 92       	push	r13
    4344:	ef 92       	push	r14
    4346:	ff 92       	push	r15
    4348:	0f 93       	push	r16
    434a:	1f 93       	push	r17
    434c:	cf 93       	push	r28
    434e:	df 93       	push	r29
    4350:	cd b7       	in	r28, 0x3d	; 61
    4352:	de b7       	in	r29, 0x3e	; 62
    4354:	60 97       	sbiw	r28, 0x10	; 16
    4356:	cd bf       	out	0x3d, r28	; 61
    4358:	de bf       	out	0x3e, r29	; 62
    435a:	8c e0       	ldi	r24, 0x0C	; 12
    435c:	90 e0       	ldi	r25, 0x00	; 0
    435e:	0e 94 0e 13 	call	0x261c	; 0x261c <ee_read_dword>
    4362:	1b 01       	movw	r2, r22
    4364:	2c 01       	movw	r4, r24
    4366:	60 93 15 51 	sts	0x5115, r22	; 0x805115 <RO>
    436a:	30 92 16 51 	sts	0x5116, r3	; 0x805116 <RO+0x1>
    436e:	40 92 17 51 	sts	0x5117, r4	; 0x805117 <RO+0x2>
    4372:	50 92 18 51 	sts	0x5118, r5	; 0x805118 <RO+0x3>
    4376:	10 92 19 51 	sts	0x5119, r1	; 0x805119 <RO+0x4>
    437a:	10 92 1a 51 	sts	0x511A, r1	; 0x80511a <RO+0x5>
    437e:	10 92 1b 51 	sts	0x511B, r1	; 0x80511b <RO+0x6>
    4382:	10 92 1c 51 	sts	0x511C, r1	; 0x80511c <RO+0x7>
    4386:	68 94       	set
    4388:	aa 24       	eor	r10, r10
    438a:	a4 f8       	bld	r10, 4
    438c:	0f 2e       	mov	r0, r31
    438e:	f7 e2       	ldi	r31, 0x27	; 39
    4390:	bf 2e       	mov	r11, r31
    4392:	f0 2d       	mov	r31, r0
    4394:	c1 2c       	mov	r12, r1
    4396:	d1 2c       	mov	r13, r1
    4398:	e1 2c       	mov	r14, r1
    439a:	f1 2c       	mov	r15, r1
    439c:	00 e0       	ldi	r16, 0x00	; 0
    439e:	10 e0       	ldi	r17, 0x00	; 0
    43a0:	26 2f       	mov	r18, r22
    43a2:	33 2d       	mov	r19, r3
    43a4:	44 2d       	mov	r20, r4
    43a6:	55 2d       	mov	r21, r5
    43a8:	60 e0       	ldi	r22, 0x00	; 0
    43aa:	70 e0       	ldi	r23, 0x00	; 0
    43ac:	80 e0       	ldi	r24, 0x00	; 0
    43ae:	90 e0       	ldi	r25, 0x00	; 0
    43b0:	0e 94 4f 3c 	call	0x789e	; 0x789e <__udivdi3>
    43b4:	20 93 5b 51 	sts	0x515B, r18	; 0x80515b <RO_10000>
    43b8:	30 93 5c 51 	sts	0x515C, r19	; 0x80515c <RO_10000+0x1>
    43bc:	40 93 5d 51 	sts	0x515D, r20	; 0x80515d <RO_10000+0x2>
    43c0:	50 93 5e 51 	sts	0x515E, r21	; 0x80515e <RO_10000+0x3>
    43c4:	60 93 5f 51 	sts	0x515F, r22	; 0x80515f <RO_10000+0x4>
    43c8:	70 93 60 51 	sts	0x5160, r23	; 0x805160 <RO_10000+0x5>
    43cc:	80 93 61 51 	sts	0x5161, r24	; 0x805161 <RO_10000+0x6>
    43d0:	90 93 62 51 	sts	0x5162, r25	; 0x805162 <RO_10000+0x7>
    43d4:	22 2d       	mov	r18, r2
    43d6:	33 2d       	mov	r19, r3
    43d8:	44 2d       	mov	r20, r4
    43da:	55 2d       	mov	r21, r5
    43dc:	60 e0       	ldi	r22, 0x00	; 0
    43de:	70 e0       	ldi	r23, 0x00	; 0
    43e0:	80 e0       	ldi	r24, 0x00	; 0
    43e2:	90 e0       	ldi	r25, 0x00	; 0
    43e4:	0e 94 4d 3c 	call	0x789a	; 0x789a <__umoddi3>
    43e8:	0f 2e       	mov	r0, r31
    43ea:	f8 ee       	ldi	r31, 0xE8	; 232
    43ec:	af 2e       	mov	r10, r31
    43ee:	f0 2d       	mov	r31, r0
    43f0:	0f 2e       	mov	r0, r31
    43f2:	f3 e0       	ldi	r31, 0x03	; 3
    43f4:	bf 2e       	mov	r11, r31
    43f6:	f0 2d       	mov	r31, r0
    43f8:	0e 94 4f 3c 	call	0x789e	; 0x789e <__udivdi3>
    43fc:	20 93 84 52 	sts	0x5284, r18	; 0x805284 <RO_1000>
    4400:	30 93 85 52 	sts	0x5285, r19	; 0x805285 <RO_1000+0x1>
    4404:	40 93 86 52 	sts	0x5286, r20	; 0x805286 <RO_1000+0x2>
    4408:	50 93 87 52 	sts	0x5287, r21	; 0x805287 <RO_1000+0x3>
    440c:	60 93 88 52 	sts	0x5288, r22	; 0x805288 <RO_1000+0x4>
    4410:	70 93 89 52 	sts	0x5289, r23	; 0x805289 <RO_1000+0x5>
    4414:	80 93 8a 52 	sts	0x528A, r24	; 0x80528a <RO_1000+0x6>
    4418:	90 93 8b 52 	sts	0x528B, r25	; 0x80528b <RO_1000+0x7>
    441c:	22 2d       	mov	r18, r2
    441e:	33 2d       	mov	r19, r3
    4420:	44 2d       	mov	r20, r4
    4422:	55 2d       	mov	r21, r5
    4424:	60 e0       	ldi	r22, 0x00	; 0
    4426:	70 e0       	ldi	r23, 0x00	; 0
    4428:	80 e0       	ldi	r24, 0x00	; 0
    442a:	90 e0       	ldi	r25, 0x00	; 0
    442c:	0e 94 4d 3c 	call	0x789a	; 0x789a <__umoddi3>
    4430:	0f 2e       	mov	r0, r31
    4432:	f4 e6       	ldi	r31, 0x64	; 100
    4434:	af 2e       	mov	r10, r31
    4436:	f0 2d       	mov	r31, r0
    4438:	b1 2c       	mov	r11, r1
    443a:	0e 94 4f 3c 	call	0x789e	; 0x789e <__udivdi3>
    443e:	20 93 73 51 	sts	0x5173, r18	; 0x805173 <RO_100>
    4442:	30 93 74 51 	sts	0x5174, r19	; 0x805174 <RO_100+0x1>
    4446:	40 93 75 51 	sts	0x5175, r20	; 0x805175 <RO_100+0x2>
    444a:	50 93 76 51 	sts	0x5176, r21	; 0x805176 <RO_100+0x3>
    444e:	60 93 77 51 	sts	0x5177, r22	; 0x805177 <RO_100+0x4>
    4452:	70 93 78 51 	sts	0x5178, r23	; 0x805178 <RO_100+0x5>
    4456:	80 93 79 51 	sts	0x5179, r24	; 0x805179 <RO_100+0x6>
    445a:	90 93 7a 51 	sts	0x517A, r25	; 0x80517a <RO_100+0x7>
    445e:	22 2d       	mov	r18, r2
    4460:	33 2d       	mov	r19, r3
    4462:	44 2d       	mov	r20, r4
    4464:	55 2d       	mov	r21, r5
    4466:	60 e0       	ldi	r22, 0x00	; 0
    4468:	70 e0       	ldi	r23, 0x00	; 0
    446a:	80 e0       	ldi	r24, 0x00	; 0
    446c:	90 e0       	ldi	r25, 0x00	; 0
    446e:	0e 94 4d 3c 	call	0x789a	; 0x789a <__umoddi3>
    4472:	0f 2e       	mov	r0, r31
    4474:	fa e0       	ldi	r31, 0x0A	; 10
    4476:	af 2e       	mov	r10, r31
    4478:	f0 2d       	mov	r31, r0
    447a:	0e 94 4f 3c 	call	0x789e	; 0x789e <__udivdi3>
    447e:	20 93 42 51 	sts	0x5142, r18	; 0x805142 <RO_10>
    4482:	30 93 43 51 	sts	0x5143, r19	; 0x805143 <RO_10+0x1>
    4486:	40 93 44 51 	sts	0x5144, r20	; 0x805144 <RO_10+0x2>
    448a:	50 93 45 51 	sts	0x5145, r21	; 0x805145 <RO_10+0x3>
    448e:	60 93 46 51 	sts	0x5146, r22	; 0x805146 <RO_10+0x4>
    4492:	70 93 47 51 	sts	0x5147, r23	; 0x805147 <RO_10+0x5>
    4496:	80 93 48 51 	sts	0x5148, r24	; 0x805148 <RO_10+0x6>
    449a:	90 93 49 51 	sts	0x5149, r25	; 0x805149 <RO_10+0x7>
    449e:	22 2d       	mov	r18, r2
    44a0:	33 2d       	mov	r19, r3
    44a2:	44 2d       	mov	r20, r4
    44a4:	55 2d       	mov	r21, r5
    44a6:	60 e0       	ldi	r22, 0x00	; 0
    44a8:	70 e0       	ldi	r23, 0x00	; 0
    44aa:	80 e0       	ldi	r24, 0x00	; 0
    44ac:	90 e0       	ldi	r25, 0x00	; 0
    44ae:	0e 94 4d 3c 	call	0x789a	; 0x789a <__umoddi3>
    44b2:	20 93 81 51 	sts	0x5181, r18	; 0x805181 <RO_1>
    44b6:	30 93 82 51 	sts	0x5182, r19	; 0x805182 <RO_1+0x1>
    44ba:	40 93 83 51 	sts	0x5183, r20	; 0x805183 <RO_1+0x2>
    44be:	50 93 84 51 	sts	0x5184, r21	; 0x805184 <RO_1+0x3>
    44c2:	60 93 85 51 	sts	0x5185, r22	; 0x805185 <RO_1+0x4>
    44c6:	70 93 86 51 	sts	0x5186, r23	; 0x805186 <RO_1+0x5>
    44ca:	80 93 87 51 	sts	0x5187, r24	; 0x805187 <RO_1+0x6>
    44ce:	90 93 88 51 	sts	0x5188, r25	; 0x805188 <RO_1+0x7>
    44d2:	ba c1       	rjmp	.+884    	; 0x4848 <Interval_Set+0x51c>
    44d4:	10 92 36 51 	sts	0x5136, r1	; 0x805136 <Timer+0x1>
    44d8:	10 92 37 51 	sts	0x5137, r1	; 0x805137 <Timer+0x2>
    44dc:	10 92 34 51 	sts	0x5134, r1	; 0x805134 <Value_Count>
    44e0:	c0 90 27 51 	lds	r12, 0x5127	; 0x805127 <CELL+0x9>
    44e4:	d0 90 28 51 	lds	r13, 0x5128	; 0x805128 <CELL+0xa>
    44e8:	e0 90 29 51 	lds	r14, 0x5129	; 0x805129 <CELL+0xb>
    44ec:	f0 90 2a 51 	lds	r15, 0x512A	; 0x80512a <CELL+0xc>
    44f0:	cd 82       	std	Y+5, r12	; 0x05
    44f2:	de 82       	std	Y+6, r13	; 0x06
    44f4:	ef 82       	std	Y+7, r14	; 0x07
    44f6:	f8 86       	std	Y+8, r15	; 0x08
    44f8:	cb 86       	std	Y+11, r12	; 0x0b
    44fa:	dc 86       	std	Y+12, r13	; 0x0c
    44fc:	ed 86       	std	Y+13, r14	; 0x0d
    44fe:	fe 86       	std	Y+14, r15	; 0x0e
    4500:	20 91 15 51 	lds	r18, 0x5115	; 0x805115 <RO>
    4504:	30 91 16 51 	lds	r19, 0x5116	; 0x805116 <RO+0x1>
    4508:	40 91 17 51 	lds	r20, 0x5117	; 0x805117 <RO+0x2>
    450c:	50 91 18 51 	lds	r21, 0x5118	; 0x805118 <RO+0x3>
    4510:	60 91 19 51 	lds	r22, 0x5119	; 0x805119 <RO+0x4>
    4514:	70 91 1a 51 	lds	r23, 0x511A	; 0x80511a <RO+0x5>
    4518:	80 91 1b 51 	lds	r24, 0x511B	; 0x80511b <RO+0x6>
    451c:	90 91 1c 51 	lds	r25, 0x511C	; 0x80511c <RO+0x7>
    4520:	0e 94 b7 36 	call	0x6d6e	; 0x6d6e <__floatundisf>
    4524:	60 93 57 51 	sts	0x5157, r22	; 0x805157 <Cell_RO>
    4528:	70 93 58 51 	sts	0x5158, r23	; 0x805158 <Cell_RO+0x1>
    452c:	80 93 59 51 	sts	0x5159, r24	; 0x805159 <Cell_RO+0x2>
    4530:	90 93 5a 51 	sts	0x515A, r25	; 0x80515a <Cell_RO+0x3>
	#else
		//round up by default
		__ticks_dc = (uint32_t)(ceil(fabs(__tmp)));
	#endif

	__builtin_avr_delay_cycles(__ticks_dc);
    4534:	21 e3       	ldi	r18, 0x31	; 49
    4536:	2a 95       	dec	r18
    4538:	f1 f7       	brne	.-4      	; 0x4536 <Interval_Set+0x20a>
    453a:	00 00       	nop
    453c:	0e 94 f0 0d 	call	0x1be0	; 0x1be0 <Proportion_Set>
    4540:	31 e3       	ldi	r19, 0x31	; 49
    4542:	3a 95       	dec	r19
    4544:	f1 f7       	brne	.-4      	; 0x4542 <Interval_Set+0x216>
    4546:	00 00       	nop
    4548:	0e 94 e0 19 	call	0x33c0	; 0x33c0 <Read_Load_Cell>
    454c:	89 87       	std	Y+9, r24	; 0x09
    454e:	9a 87       	std	Y+10, r25	; 0x0a
    4550:	2c 01       	movw	r4, r24
    4552:	61 2c       	mov	r6, r1
    4554:	71 2c       	mov	r7, r1
    4556:	80 91 50 51 	lds	r24, 0x5150	; 0x805150 <KEY+0x1>
    455a:	88 23       	and	r24, r24
    455c:	09 f4       	brne	.+2      	; 0x4560 <Interval_Set+0x234>
    455e:	00 c1       	rjmp	.+512    	; 0x4760 <Interval_Set+0x434>
    4560:	80 91 51 51 	lds	r24, 0x5151	; 0x805151 <KEY+0x2>
    4564:	81 30       	cpi	r24, 0x01	; 1
    4566:	31 f5       	brne	.+76     	; 0x45b4 <Interval_Set+0x288>
    4568:	20 91 15 51 	lds	r18, 0x5115	; 0x805115 <RO>
    456c:	30 91 16 51 	lds	r19, 0x5116	; 0x805116 <RO+0x1>
    4570:	40 91 17 51 	lds	r20, 0x5117	; 0x805117 <RO+0x2>
    4574:	50 91 18 51 	lds	r21, 0x5118	; 0x805118 <RO+0x3>
    4578:	60 91 19 51 	lds	r22, 0x5119	; 0x805119 <RO+0x4>
    457c:	70 91 1a 51 	lds	r23, 0x511A	; 0x80511a <RO+0x5>
    4580:	80 91 1b 51 	lds	r24, 0x511B	; 0x80511b <RO+0x6>
    4584:	90 91 1c 51 	lds	r25, 0x511C	; 0x80511c <RO+0x7>
    4588:	a5 e0       	ldi	r26, 0x05	; 5
    458a:	0e 94 ce 3c 	call	0x799c	; 0x799c <__adddi3_s8>
    458e:	20 93 15 51 	sts	0x5115, r18	; 0x805115 <RO>
    4592:	30 93 16 51 	sts	0x5116, r19	; 0x805116 <RO+0x1>
    4596:	40 93 17 51 	sts	0x5117, r20	; 0x805117 <RO+0x2>
    459a:	50 93 18 51 	sts	0x5118, r21	; 0x805118 <RO+0x3>
    459e:	60 93 19 51 	sts	0x5119, r22	; 0x805119 <RO+0x4>
    45a2:	70 93 1a 51 	sts	0x511A, r23	; 0x80511a <RO+0x5>
    45a6:	80 93 1b 51 	sts	0x511B, r24	; 0x80511b <RO+0x6>
    45aa:	90 93 1c 51 	sts	0x511C, r25	; 0x80511c <RO+0x7>
    45ae:	10 92 51 51 	sts	0x5151, r1	; 0x805151 <KEY+0x2>
    45b2:	29 c0       	rjmp	.+82     	; 0x4606 <Interval_Set+0x2da>
    45b4:	80 91 51 51 	lds	r24, 0x5151	; 0x805151 <KEY+0x2>
    45b8:	83 30       	cpi	r24, 0x03	; 3
    45ba:	29 f5       	brne	.+74     	; 0x4606 <Interval_Set+0x2da>
    45bc:	20 91 15 51 	lds	r18, 0x5115	; 0x805115 <RO>
    45c0:	30 91 16 51 	lds	r19, 0x5116	; 0x805116 <RO+0x1>
    45c4:	40 91 17 51 	lds	r20, 0x5117	; 0x805117 <RO+0x2>
    45c8:	50 91 18 51 	lds	r21, 0x5118	; 0x805118 <RO+0x3>
    45cc:	60 91 19 51 	lds	r22, 0x5119	; 0x805119 <RO+0x4>
    45d0:	70 91 1a 51 	lds	r23, 0x511A	; 0x80511a <RO+0x5>
    45d4:	80 91 1b 51 	lds	r24, 0x511B	; 0x80511b <RO+0x6>
    45d8:	90 91 1c 51 	lds	r25, 0x511C	; 0x80511c <RO+0x7>
    45dc:	ab ef       	ldi	r26, 0xFB	; 251
    45de:	0e 94 ce 3c 	call	0x799c	; 0x799c <__adddi3_s8>
    45e2:	20 93 15 51 	sts	0x5115, r18	; 0x805115 <RO>
    45e6:	30 93 16 51 	sts	0x5116, r19	; 0x805116 <RO+0x1>
    45ea:	40 93 17 51 	sts	0x5117, r20	; 0x805117 <RO+0x2>
    45ee:	50 93 18 51 	sts	0x5118, r21	; 0x805118 <RO+0x3>
    45f2:	60 93 19 51 	sts	0x5119, r22	; 0x805119 <RO+0x4>
    45f6:	70 93 1a 51 	sts	0x511A, r23	; 0x80511a <RO+0x5>
    45fa:	80 93 1b 51 	sts	0x511B, r24	; 0x80511b <RO+0x6>
    45fe:	90 93 1c 51 	sts	0x511C, r25	; 0x80511c <RO+0x7>
    4602:	10 92 51 51 	sts	0x5151, r1	; 0x805151 <KEY+0x2>
    4606:	40 91 15 51 	lds	r20, 0x5115	; 0x805115 <RO>
    460a:	49 83       	std	Y+1, r20	; 0x01
    460c:	50 91 16 51 	lds	r21, 0x5116	; 0x805116 <RO+0x1>
    4610:	5a 83       	std	Y+2, r21	; 0x02
    4612:	60 91 17 51 	lds	r22, 0x5117	; 0x805117 <RO+0x2>
    4616:	6b 83       	std	Y+3, r22	; 0x03
    4618:	70 91 18 51 	lds	r23, 0x5118	; 0x805118 <RO+0x3>
    461c:	7c 83       	std	Y+4, r23	; 0x04
    461e:	80 90 19 51 	lds	r8, 0x5119	; 0x805119 <RO+0x4>
    4622:	90 90 1a 51 	lds	r9, 0x511A	; 0x80511a <RO+0x5>
    4626:	80 91 1b 51 	lds	r24, 0x511B	; 0x80511b <RO+0x6>
    462a:	88 8b       	std	Y+16, r24	; 0x10
    462c:	90 91 1c 51 	lds	r25, 0x511C	; 0x80511c <RO+0x7>
    4630:	9f 87       	std	Y+15, r25	; 0x0f
    4632:	68 94       	set
    4634:	aa 24       	eor	r10, r10
    4636:	a4 f8       	bld	r10, 4
    4638:	0f 2e       	mov	r0, r31
    463a:	f7 e2       	ldi	r31, 0x27	; 39
    463c:	bf 2e       	mov	r11, r31
    463e:	f0 2d       	mov	r31, r0
    4640:	c1 2c       	mov	r12, r1
    4642:	d1 2c       	mov	r13, r1
    4644:	e1 2c       	mov	r14, r1
    4646:	f1 2c       	mov	r15, r1
    4648:	00 e0       	ldi	r16, 0x00	; 0
    464a:	10 e0       	ldi	r17, 0x00	; 0
    464c:	24 2f       	mov	r18, r20
    464e:	35 2f       	mov	r19, r21
    4650:	46 2f       	mov	r20, r22
    4652:	57 2f       	mov	r21, r23
    4654:	68 2d       	mov	r22, r8
    4656:	79 2d       	mov	r23, r9
    4658:	0e 94 4f 3c 	call	0x789e	; 0x789e <__udivdi3>
    465c:	02 2f       	mov	r16, r18
    465e:	13 2f       	mov	r17, r19
    4660:	f8 01       	movw	r30, r16
    4662:	ed 5b       	subi	r30, 0xBD	; 189
    4664:	fe 4b       	sbci	r31, 0xBE	; 190
    4666:	80 81       	ld	r24, Z
    4668:	0f 2e       	mov	r0, r31
    466a:	f9 e7       	ldi	r31, 0x79	; 121
    466c:	2f 2e       	mov	r2, r31
    466e:	f1 e4       	ldi	r31, 0x41	; 65
    4670:	3f 2e       	mov	r3, r31
    4672:	f0 2d       	mov	r31, r0
    4674:	d1 01       	movw	r26, r2
    4676:	17 96       	adiw	r26, 0x07	; 7
    4678:	8c 93       	st	X, r24
    467a:	e1 2c       	mov	r14, r1
    467c:	f1 2c       	mov	r15, r1
    467e:	00 e0       	ldi	r16, 0x00	; 0
    4680:	10 e0       	ldi	r17, 0x00	; 0
    4682:	29 81       	ldd	r18, Y+1	; 0x01
    4684:	3a 81       	ldd	r19, Y+2	; 0x02
    4686:	4b 81       	ldd	r20, Y+3	; 0x03
    4688:	5c 81       	ldd	r21, Y+4	; 0x04
    468a:	68 2d       	mov	r22, r8
    468c:	79 2d       	mov	r23, r9
    468e:	88 89       	ldd	r24, Y+16	; 0x10
    4690:	9f 85       	ldd	r25, Y+15	; 0x0f
    4692:	0e 94 4d 3c 	call	0x789a	; 0x789a <__umoddi3>
    4696:	0f 2e       	mov	r0, r31
    4698:	f8 ee       	ldi	r31, 0xE8	; 232
    469a:	af 2e       	mov	r10, r31
    469c:	f0 2d       	mov	r31, r0
    469e:	0f 2e       	mov	r0, r31
    46a0:	f3 e0       	ldi	r31, 0x03	; 3
    46a2:	bf 2e       	mov	r11, r31
    46a4:	f0 2d       	mov	r31, r0
    46a6:	0e 94 4f 3c 	call	0x789e	; 0x789e <__udivdi3>
    46aa:	02 2f       	mov	r16, r18
    46ac:	13 2f       	mov	r17, r19
    46ae:	f8 01       	movw	r30, r16
    46b0:	ed 5b       	subi	r30, 0xBD	; 189
    46b2:	fe 4b       	sbci	r31, 0xBE	; 190
    46b4:	80 81       	ld	r24, Z
    46b6:	f1 01       	movw	r30, r2
    46b8:	86 83       	std	Z+6, r24	; 0x06
    46ba:	e1 2c       	mov	r14, r1
    46bc:	f1 2c       	mov	r15, r1
    46be:	00 e0       	ldi	r16, 0x00	; 0
    46c0:	10 e0       	ldi	r17, 0x00	; 0
    46c2:	29 81       	ldd	r18, Y+1	; 0x01
    46c4:	3a 81       	ldd	r19, Y+2	; 0x02
    46c6:	4b 81       	ldd	r20, Y+3	; 0x03
    46c8:	5c 81       	ldd	r21, Y+4	; 0x04
    46ca:	68 2d       	mov	r22, r8
    46cc:	79 2d       	mov	r23, r9
    46ce:	88 89       	ldd	r24, Y+16	; 0x10
    46d0:	9f 85       	ldd	r25, Y+15	; 0x0f
    46d2:	0e 94 4d 3c 	call	0x789a	; 0x789a <__umoddi3>
    46d6:	0f 2e       	mov	r0, r31
    46d8:	f4 e6       	ldi	r31, 0x64	; 100
    46da:	af 2e       	mov	r10, r31
    46dc:	f0 2d       	mov	r31, r0
    46de:	b1 2c       	mov	r11, r1
    46e0:	0e 94 4f 3c 	call	0x789e	; 0x789e <__udivdi3>
    46e4:	02 2f       	mov	r16, r18
    46e6:	13 2f       	mov	r17, r19
    46e8:	f8 01       	movw	r30, r16
    46ea:	ed 5b       	subi	r30, 0xBD	; 189
    46ec:	fe 4b       	sbci	r31, 0xBE	; 190
    46ee:	80 81       	ld	r24, Z
    46f0:	d1 01       	movw	r26, r2
    46f2:	15 96       	adiw	r26, 0x05	; 5
    46f4:	8c 93       	st	X, r24
    46f6:	e1 2c       	mov	r14, r1
    46f8:	f1 2c       	mov	r15, r1
    46fa:	00 e0       	ldi	r16, 0x00	; 0
    46fc:	10 e0       	ldi	r17, 0x00	; 0
    46fe:	29 81       	ldd	r18, Y+1	; 0x01
    4700:	3a 81       	ldd	r19, Y+2	; 0x02
    4702:	4b 81       	ldd	r20, Y+3	; 0x03
    4704:	5c 81       	ldd	r21, Y+4	; 0x04
    4706:	68 2d       	mov	r22, r8
    4708:	79 2d       	mov	r23, r9
    470a:	88 89       	ldd	r24, Y+16	; 0x10
    470c:	9f 85       	ldd	r25, Y+15	; 0x0f
    470e:	0e 94 4d 3c 	call	0x789a	; 0x789a <__umoddi3>
    4712:	0f 2e       	mov	r0, r31
    4714:	fa e0       	ldi	r31, 0x0A	; 10
    4716:	af 2e       	mov	r10, r31
    4718:	f0 2d       	mov	r31, r0
    471a:	0e 94 4f 3c 	call	0x789e	; 0x789e <__udivdi3>
    471e:	02 2f       	mov	r16, r18
    4720:	13 2f       	mov	r17, r19
    4722:	f8 01       	movw	r30, r16
    4724:	ed 5b       	subi	r30, 0xBD	; 189
    4726:	fe 4b       	sbci	r31, 0xBE	; 190
    4728:	80 81       	ld	r24, Z
    472a:	f1 01       	movw	r30, r2
    472c:	84 83       	std	Z+4, r24	; 0x04
    472e:	e1 2c       	mov	r14, r1
    4730:	f1 2c       	mov	r15, r1
    4732:	00 e0       	ldi	r16, 0x00	; 0
    4734:	10 e0       	ldi	r17, 0x00	; 0
    4736:	29 81       	ldd	r18, Y+1	; 0x01
    4738:	3a 81       	ldd	r19, Y+2	; 0x02
    473a:	4b 81       	ldd	r20, Y+3	; 0x03
    473c:	5c 81       	ldd	r21, Y+4	; 0x04
    473e:	68 2d       	mov	r22, r8
    4740:	79 2d       	mov	r23, r9
    4742:	88 89       	ldd	r24, Y+16	; 0x10
    4744:	9f 85       	ldd	r25, Y+15	; 0x0f
    4746:	0e 94 4d 3c 	call	0x789a	; 0x789a <__umoddi3>
    474a:	49 83       	std	Y+1, r20	; 0x01
    474c:	5a 83       	std	Y+2, r21	; 0x02
    474e:	02 2f       	mov	r16, r18
    4750:	13 2f       	mov	r17, r19
    4752:	f8 01       	movw	r30, r16
    4754:	ed 5b       	subi	r30, 0xBD	; 189
    4756:	fe 4b       	sbci	r31, 0xBE	; 190
    4758:	80 81       	ld	r24, Z
    475a:	d1 01       	movw	r26, r2
    475c:	1b 96       	adiw	r26, 0x0b	; 11
    475e:	8c 93       	st	X, r24
    4760:	41 14       	cp	r4, r1
    4762:	51 04       	cpc	r5, r1
    4764:	61 04       	cpc	r6, r1
    4766:	71 04       	cpc	r7, r1
    4768:	09 f4       	brne	.+2      	; 0x476c <Interval_Set+0x440>
    476a:	49 c0       	rjmp	.+146    	; 0x47fe <Interval_Set+0x4d2>
    476c:	93 01       	movw	r18, r6
    476e:	82 01       	movw	r16, r4
    4770:	05 50       	subi	r16, 0x05	; 5
    4772:	11 09       	sbc	r17, r1
    4774:	21 09       	sbc	r18, r1
    4776:	31 09       	sbc	r19, r1
    4778:	91 e0       	ldi	r25, 0x01	; 1
    477a:	b3 01       	movw	r22, r6
    477c:	a2 01       	movw	r20, r4
    477e:	4b 5f       	subi	r20, 0xFB	; 251
    4780:	5f 4f       	sbci	r21, 0xFF	; 255
    4782:	6f 4f       	sbci	r22, 0xFF	; 255
    4784:	7f 4f       	sbci	r23, 0xFF	; 255
    4786:	cb 84       	ldd	r12, Y+11	; 0x0b
    4788:	dc 84       	ldd	r13, Y+12	; 0x0c
    478a:	ed 84       	ldd	r14, Y+13	; 0x0d
    478c:	fe 84       	ldd	r15, Y+14	; 0x0e
    478e:	4c 15       	cp	r20, r12
    4790:	5d 05       	cpc	r21, r13
    4792:	6e 05       	cpc	r22, r14
    4794:	7f 05       	cpc	r23, r15
    4796:	08 f4       	brcc	.+2      	; 0x479a <Interval_Set+0x46e>
    4798:	90 e0       	ldi	r25, 0x00	; 0
    479a:	81 e0       	ldi	r24, 0x01	; 1
    479c:	4b 85       	ldd	r20, Y+11	; 0x0b
    479e:	5c 85       	ldd	r21, Y+12	; 0x0c
    47a0:	6d 85       	ldd	r22, Y+13	; 0x0d
    47a2:	7e 85       	ldd	r23, Y+14	; 0x0e
    47a4:	40 17       	cp	r20, r16
    47a6:	51 07       	cpc	r21, r17
    47a8:	62 07       	cpc	r22, r18
    47aa:	73 07       	cpc	r23, r19
    47ac:	08 f4       	brcc	.+2      	; 0x47b0 <Interval_Set+0x484>
    47ae:	80 e0       	ldi	r24, 0x00	; 0
    47b0:	89 23       	and	r24, r25
    47b2:	71 f0       	breq	.+28     	; 0x47d0 <Interval_Set+0x4a4>
    47b4:	6d 81       	ldd	r22, Y+5	; 0x05
    47b6:	7e 81       	ldd	r23, Y+6	; 0x06
    47b8:	8f 81       	ldd	r24, Y+7	; 0x07
    47ba:	98 85       	ldd	r25, Y+8	; 0x08
    47bc:	60 93 1f 51 	sts	0x511F, r22	; 0x80511f <CELL+0x1>
    47c0:	70 93 20 51 	sts	0x5120, r23	; 0x805120 <CELL+0x2>
    47c4:	80 93 21 51 	sts	0x5121, r24	; 0x805121 <CELL+0x3>
    47c8:	90 93 22 51 	sts	0x5122, r25	; 0x805122 <CELL+0x4>
    47cc:	10 92 70 51 	sts	0x5170, r1	; 0x805170 <Zero_Count>
    47d0:	8d 81       	ldd	r24, Y+5	; 0x05
    47d2:	9e 81       	ldd	r25, Y+6	; 0x06
    47d4:	af 81       	ldd	r26, Y+7	; 0x07
    47d6:	b8 85       	ldd	r27, Y+8	; 0x08
    47d8:	84 0d       	add	r24, r4
    47da:	95 1d       	adc	r25, r5
    47dc:	a6 1d       	adc	r26, r6
    47de:	b7 1d       	adc	r27, r7
    47e0:	b6 95       	lsr	r27
    47e2:	a7 95       	ror	r26
    47e4:	97 95       	ror	r25
    47e6:	87 95       	ror	r24
    47e8:	80 93 27 51 	sts	0x5127, r24	; 0x805127 <CELL+0x9>
    47ec:	90 93 28 51 	sts	0x5128, r25	; 0x805128 <CELL+0xa>
    47f0:	a0 93 29 51 	sts	0x5129, r26	; 0x805129 <CELL+0xb>
    47f4:	b0 93 2a 51 	sts	0x512A, r27	; 0x80512a <CELL+0xc>
    47f8:	0e 94 16 18 	call	0x302c	; 0x302c <Cell_Desplay>
    47fc:	1a c0       	rjmp	.+52     	; 0x4832 <Interval_Set+0x506>
    47fe:	80 91 70 51 	lds	r24, 0x5170	; 0x805170 <Zero_Count>
    4802:	8f 5f       	subi	r24, 0xFF	; 255
    4804:	80 93 70 51 	sts	0x5170, r24	; 0x805170 <Zero_Count>
    4808:	86 30       	cpi	r24, 0x06	; 6
    480a:	98 f0       	brcs	.+38     	; 0x4832 <Interval_Set+0x506>
    480c:	ee e1       	ldi	r30, 0x1E	; 30
    480e:	f1 e5       	ldi	r31, 0x51	; 81
    4810:	11 86       	std	Z+9, r1	; 0x09
    4812:	12 86       	std	Z+10, r1	; 0x0a
    4814:	13 86       	std	Z+11, r1	; 0x0b
    4816:	14 86       	std	Z+12, r1	; 0x0c
    4818:	c9 84       	ldd	r12, Y+9	; 0x09
    481a:	da 84       	ldd	r13, Y+10	; 0x0a
    481c:	c6 01       	movw	r24, r12
    481e:	a0 e0       	ldi	r26, 0x00	; 0
    4820:	b0 e0       	ldi	r27, 0x00	; 0
    4822:	81 83       	std	Z+1, r24	; 0x01
    4824:	92 83       	std	Z+2, r25	; 0x02
    4826:	a3 83       	std	Z+3, r26	; 0x03
    4828:	b4 83       	std	Z+4, r27	; 0x04
    482a:	10 92 70 51 	sts	0x5170, r1	; 0x805170 <Zero_Count>
    482e:	0e 94 16 18 	call	0x302c	; 0x302c <Cell_Desplay>
	#else
		//round up by default
		__ticks_dc = (uint32_t)(ceil(fabs(__tmp)));
	#endif

	__builtin_avr_delay_cycles(__ticks_dc);
    4832:	2f ef       	ldi	r18, 0xFF	; 255
    4834:	3f e3       	ldi	r19, 0x3F	; 63
    4836:	42 e0       	ldi	r20, 0x02	; 2
    4838:	21 50       	subi	r18, 0x01	; 1
    483a:	30 40       	sbci	r19, 0x00	; 0
    483c:	40 40       	sbci	r20, 0x00	; 0
    483e:	e1 f7       	brne	.-8      	; 0x4838 <Interval_Set+0x50c>
    4840:	00 c0       	rjmp	.+0      	; 0x4842 <Interval_Set+0x516>
    4842:	00 00       	nop
    4844:	0e 94 7e 0e 	call	0x1cfc	; 0x1cfc <wdt_reset>
    4848:	80 91 10 51 	lds	r24, 0x5110	; 0x805110 <SET>
    484c:	88 23       	and	r24, r24
    484e:	21 f0       	breq	.+8      	; 0x4858 <Interval_Set+0x52c>
    4850:	80 91 11 51 	lds	r24, 0x5111	; 0x805111 <SET+0x1>
    4854:	81 11       	cpse	r24, r1
    4856:	3e ce       	rjmp	.-900    	; 0x44d4 <Interval_Set+0x1a8>
    4858:	40 91 15 51 	lds	r20, 0x5115	; 0x805115 <RO>
    485c:	50 91 16 51 	lds	r21, 0x5116	; 0x805116 <RO+0x1>
    4860:	60 91 17 51 	lds	r22, 0x5117	; 0x805117 <RO+0x2>
    4864:	70 91 18 51 	lds	r23, 0x5118	; 0x805118 <RO+0x3>
    4868:	8c e0       	ldi	r24, 0x0C	; 12
    486a:	90 e0       	ldi	r25, 0x00	; 0
    486c:	0e 94 5b 13 	call	0x26b6	; 0x26b6 <ee_write_dword>
    4870:	60 96       	adiw	r28, 0x10	; 16
    4872:	cd bf       	out	0x3d, r28	; 61
    4874:	de bf       	out	0x3e, r29	; 62
    4876:	df 91       	pop	r29
    4878:	cf 91       	pop	r28
    487a:	1f 91       	pop	r17
    487c:	0f 91       	pop	r16
    487e:	ff 90       	pop	r15
    4880:	ef 90       	pop	r14
    4882:	df 90       	pop	r13
    4884:	cf 90       	pop	r12
    4886:	bf 90       	pop	r11
    4888:	af 90       	pop	r10
    488a:	9f 90       	pop	r9
    488c:	8f 90       	pop	r8
    488e:	7f 90       	pop	r7
    4890:	6f 90       	pop	r6
    4892:	5f 90       	pop	r5
    4894:	4f 90       	pop	r4
    4896:	3f 90       	pop	r3
    4898:	2f 90       	pop	r2
    489a:	08 95       	ret

0000489c <CAPA_Set>:
    489c:	8f 92       	push	r8
    489e:	9f 92       	push	r9
    48a0:	af 92       	push	r10
    48a2:	bf 92       	push	r11
    48a4:	cf 92       	push	r12
    48a6:	df 92       	push	r13
    48a8:	ef 92       	push	r14
    48aa:	ff 92       	push	r15
    48ac:	10 92 81 41 	sts	0x4181, r1	; 0x804181 <DIGIT+0x8>
    48b0:	88 e0       	ldi	r24, 0x08	; 8
    48b2:	90 e0       	ldi	r25, 0x00	; 0
    48b4:	0e 94 03 13 	call	0x2606	; 0x2606 <ee_read_word>
    48b8:	6c 01       	movw	r12, r24
    48ba:	e1 2c       	mov	r14, r1
    48bc:	f1 2c       	mov	r15, r1
    48be:	c0 92 6b 51 	sts	0x516B, r12	; 0x80516b <Cell_Capa>
    48c2:	d0 92 6c 51 	sts	0x516C, r13	; 0x80516c <Cell_Capa+0x1>
    48c6:	e0 92 6d 51 	sts	0x516D, r14	; 0x80516d <Cell_Capa+0x2>
    48ca:	f0 92 6e 51 	sts	0x516E, r15	; 0x80516e <Cell_Capa+0x3>
    48ce:	c7 01       	movw	r24, r14
    48d0:	b6 01       	movw	r22, r12
    48d2:	28 ee       	ldi	r18, 0xE8	; 232
    48d4:	33 e0       	ldi	r19, 0x03	; 3
    48d6:	40 e0       	ldi	r20, 0x00	; 0
    48d8:	50 e0       	ldi	r21, 0x00	; 0
    48da:	0e 94 90 3b 	call	0x7720	; 0x7720 <__udivmodsi4>
    48de:	20 93 a9 41 	sts	0x41A9, r18	; 0x8041a9 <CAPA_1000>
    48e2:	0f 2e       	mov	r0, r31
    48e4:	f4 e6       	ldi	r31, 0x64	; 100
    48e6:	8f 2e       	mov	r8, r31
    48e8:	91 2c       	mov	r9, r1
    48ea:	a1 2c       	mov	r10, r1
    48ec:	b1 2c       	mov	r11, r1
    48ee:	f0 2d       	mov	r31, r0
    48f0:	a5 01       	movw	r20, r10
    48f2:	94 01       	movw	r18, r8
    48f4:	0e 94 90 3b 	call	0x7720	; 0x7720 <__udivmodsi4>
    48f8:	20 93 64 51 	sts	0x5164, r18	; 0x805164 <CAPA_100>
    48fc:	c7 01       	movw	r24, r14
    48fe:	b6 01       	movw	r22, r12
    4900:	a5 01       	movw	r20, r10
    4902:	94 01       	movw	r18, r8
    4904:	0e 94 90 3b 	call	0x7720	; 0x7720 <__udivmodsi4>
    4908:	0f 2e       	mov	r0, r31
    490a:	fa e0       	ldi	r31, 0x0A	; 10
    490c:	8f 2e       	mov	r8, r31
    490e:	91 2c       	mov	r9, r1
    4910:	a1 2c       	mov	r10, r1
    4912:	b1 2c       	mov	r11, r1
    4914:	f0 2d       	mov	r31, r0
    4916:	a5 01       	movw	r20, r10
    4918:	94 01       	movw	r18, r8
    491a:	0e 94 90 3b 	call	0x7720	; 0x7720 <__udivmodsi4>
    491e:	20 93 6a 51 	sts	0x516A, r18	; 0x80516a <CAPA_10>
    4922:	c7 01       	movw	r24, r14
    4924:	b6 01       	movw	r22, r12
    4926:	a5 01       	movw	r20, r10
    4928:	94 01       	movw	r18, r8
    492a:	0e 94 90 3b 	call	0x7720	; 0x7720 <__udivmodsi4>
    492e:	60 93 33 51 	sts	0x5133, r22	; 0x805133 <CAPA_1>
    4932:	ff c0       	rjmp	.+510    	; 0x4b32 <CAPA_Set+0x296>
    4934:	81 e0       	ldi	r24, 0x01	; 1
    4936:	80 93 13 51 	sts	0x5113, r24	; 0x805113 <SET+0x3>
    493a:	80 91 4f 51 	lds	r24, 0x514F	; 0x80514f <KEY>
    493e:	82 30       	cpi	r24, 0x02	; 2
    4940:	09 f4       	brne	.+2      	; 0x4944 <CAPA_Set+0xa8>
    4942:	82 c0       	rjmp	.+260    	; 0x4a48 <CAPA_Set+0x1ac>
    4944:	30 f4       	brcc	.+12     	; 0x4952 <CAPA_Set+0xb6>
    4946:	88 23       	and	r24, r24
    4948:	59 f0       	breq	.+22     	; 0x4960 <CAPA_Set+0xc4>
    494a:	81 30       	cpi	r24, 0x01	; 1
    494c:	09 f4       	brne	.+2      	; 0x4950 <CAPA_Set+0xb4>
    494e:	42 c0       	rjmp	.+132    	; 0x49d4 <CAPA_Set+0x138>
    4950:	ee c0       	rjmp	.+476    	; 0x4b2e <CAPA_Set+0x292>
    4952:	83 30       	cpi	r24, 0x03	; 3
    4954:	09 f4       	brne	.+2      	; 0x4958 <CAPA_Set+0xbc>
    4956:	b2 c0       	rjmp	.+356    	; 0x4abc <CAPA_Set+0x220>
    4958:	84 30       	cpi	r24, 0x04	; 4
    495a:	09 f4       	brne	.+2      	; 0x495e <CAPA_Set+0xc2>
    495c:	e6 c0       	rjmp	.+460    	; 0x4b2a <CAPA_Set+0x28e>
    495e:	e7 c0       	rjmp	.+462    	; 0x4b2e <CAPA_Set+0x292>
    4960:	e0 91 33 51 	lds	r30, 0x5133	; 0x805133 <CAPA_1>
    4964:	f0 e0       	ldi	r31, 0x00	; 0
    4966:	ed 5b       	subi	r30, 0xBD	; 189
    4968:	fe 4b       	sbci	r31, 0xBE	; 190
    496a:	80 81       	ld	r24, Z
    496c:	80 93 7d 41 	sts	0x417D, r24	; 0x80417d <DIGIT+0x4>
    4970:	80 91 7b 51 	lds	r24, 0x517B	; 0x80517b <Blink>
    4974:	88 23       	and	r24, r24
    4976:	19 f0       	breq	.+6      	; 0x497e <CAPA_Set+0xe2>
    4978:	10 92 80 41 	sts	0x4180, r1	; 0x804180 <DIGIT+0x7>
    497c:	08 c0       	rjmp	.+16     	; 0x498e <CAPA_Set+0xf2>
    497e:	e0 91 a9 41 	lds	r30, 0x41A9	; 0x8041a9 <CAPA_1000>
    4982:	f0 e0       	ldi	r31, 0x00	; 0
    4984:	ed 5b       	subi	r30, 0xBD	; 189
    4986:	fe 4b       	sbci	r31, 0xBE	; 190
    4988:	80 81       	ld	r24, Z
    498a:	80 93 80 41 	sts	0x4180, r24	; 0x804180 <DIGIT+0x7>
    498e:	80 91 50 51 	lds	r24, 0x5150	; 0x805150 <KEY+0x1>
    4992:	88 23       	and	r24, r24
    4994:	09 f4       	brne	.+2      	; 0x4998 <CAPA_Set+0xfc>
    4996:	cb c0       	rjmp	.+406    	; 0x4b2e <CAPA_Set+0x292>
    4998:	80 91 51 51 	lds	r24, 0x5151	; 0x805151 <KEY+0x2>
    499c:	81 30       	cpi	r24, 0x01	; 1
    499e:	51 f4       	brne	.+20     	; 0x49b4 <CAPA_Set+0x118>
    49a0:	80 91 a9 41 	lds	r24, 0x41A9	; 0x8041a9 <CAPA_1000>
    49a4:	81 11       	cpse	r24, r1
    49a6:	06 c0       	rjmp	.+12     	; 0x49b4 <CAPA_Set+0x118>
    49a8:	8f 5f       	subi	r24, 0xFF	; 255
    49aa:	80 93 a9 41 	sts	0x41A9, r24	; 0x8041a9 <CAPA_1000>
    49ae:	10 92 51 51 	sts	0x5151, r1	; 0x805151 <KEY+0x2>
    49b2:	bd c0       	rjmp	.+378    	; 0x4b2e <CAPA_Set+0x292>
    49b4:	80 91 51 51 	lds	r24, 0x5151	; 0x805151 <KEY+0x2>
    49b8:	83 30       	cpi	r24, 0x03	; 3
    49ba:	09 f0       	breq	.+2      	; 0x49be <CAPA_Set+0x122>
    49bc:	b8 c0       	rjmp	.+368    	; 0x4b2e <CAPA_Set+0x292>
    49be:	80 91 a9 41 	lds	r24, 0x41A9	; 0x8041a9 <CAPA_1000>
    49c2:	88 23       	and	r24, r24
    49c4:	09 f4       	brne	.+2      	; 0x49c8 <CAPA_Set+0x12c>
    49c6:	b3 c0       	rjmp	.+358    	; 0x4b2e <CAPA_Set+0x292>
    49c8:	81 50       	subi	r24, 0x01	; 1
    49ca:	80 93 a9 41 	sts	0x41A9, r24	; 0x8041a9 <CAPA_1000>
    49ce:	10 92 51 51 	sts	0x5151, r1	; 0x805151 <KEY+0x2>
    49d2:	ad c0       	rjmp	.+346    	; 0x4b2e <CAPA_Set+0x292>
    49d4:	e0 91 a9 41 	lds	r30, 0x41A9	; 0x8041a9 <CAPA_1000>
    49d8:	f0 e0       	ldi	r31, 0x00	; 0
    49da:	ed 5b       	subi	r30, 0xBD	; 189
    49dc:	fe 4b       	sbci	r31, 0xBE	; 190
    49de:	80 81       	ld	r24, Z
    49e0:	80 93 80 41 	sts	0x4180, r24	; 0x804180 <DIGIT+0x7>
    49e4:	80 91 7b 51 	lds	r24, 0x517B	; 0x80517b <Blink>
    49e8:	88 23       	and	r24, r24
    49ea:	19 f0       	breq	.+6      	; 0x49f2 <CAPA_Set+0x156>
    49ec:	10 92 7f 41 	sts	0x417F, r1	; 0x80417f <DIGIT+0x6>
    49f0:	08 c0       	rjmp	.+16     	; 0x4a02 <CAPA_Set+0x166>
    49f2:	e0 91 64 51 	lds	r30, 0x5164	; 0x805164 <CAPA_100>
    49f6:	f0 e0       	ldi	r31, 0x00	; 0
    49f8:	ed 5b       	subi	r30, 0xBD	; 189
    49fa:	fe 4b       	sbci	r31, 0xBE	; 190
    49fc:	80 81       	ld	r24, Z
    49fe:	80 93 7f 41 	sts	0x417F, r24	; 0x80417f <DIGIT+0x6>
    4a02:	80 91 50 51 	lds	r24, 0x5150	; 0x805150 <KEY+0x1>
    4a06:	88 23       	and	r24, r24
    4a08:	09 f4       	brne	.+2      	; 0x4a0c <CAPA_Set+0x170>
    4a0a:	91 c0       	rjmp	.+290    	; 0x4b2e <CAPA_Set+0x292>
    4a0c:	80 91 51 51 	lds	r24, 0x5151	; 0x805151 <KEY+0x2>
    4a10:	81 30       	cpi	r24, 0x01	; 1
    4a12:	51 f4       	brne	.+20     	; 0x4a28 <CAPA_Set+0x18c>
    4a14:	80 91 64 51 	lds	r24, 0x5164	; 0x805164 <CAPA_100>
    4a18:	89 30       	cpi	r24, 0x09	; 9
    4a1a:	30 f4       	brcc	.+12     	; 0x4a28 <CAPA_Set+0x18c>
    4a1c:	8f 5f       	subi	r24, 0xFF	; 255
    4a1e:	80 93 64 51 	sts	0x5164, r24	; 0x805164 <CAPA_100>
    4a22:	10 92 51 51 	sts	0x5151, r1	; 0x805151 <KEY+0x2>
    4a26:	83 c0       	rjmp	.+262    	; 0x4b2e <CAPA_Set+0x292>
    4a28:	80 91 51 51 	lds	r24, 0x5151	; 0x805151 <KEY+0x2>
    4a2c:	83 30       	cpi	r24, 0x03	; 3
    4a2e:	09 f0       	breq	.+2      	; 0x4a32 <CAPA_Set+0x196>
    4a30:	7e c0       	rjmp	.+252    	; 0x4b2e <CAPA_Set+0x292>
    4a32:	80 91 64 51 	lds	r24, 0x5164	; 0x805164 <CAPA_100>
    4a36:	88 23       	and	r24, r24
    4a38:	09 f4       	brne	.+2      	; 0x4a3c <CAPA_Set+0x1a0>
    4a3a:	79 c0       	rjmp	.+242    	; 0x4b2e <CAPA_Set+0x292>
    4a3c:	81 50       	subi	r24, 0x01	; 1
    4a3e:	80 93 64 51 	sts	0x5164, r24	; 0x805164 <CAPA_100>
    4a42:	10 92 51 51 	sts	0x5151, r1	; 0x805151 <KEY+0x2>
    4a46:	73 c0       	rjmp	.+230    	; 0x4b2e <CAPA_Set+0x292>
    4a48:	e0 91 64 51 	lds	r30, 0x5164	; 0x805164 <CAPA_100>
    4a4c:	f0 e0       	ldi	r31, 0x00	; 0
    4a4e:	ed 5b       	subi	r30, 0xBD	; 189
    4a50:	fe 4b       	sbci	r31, 0xBE	; 190
    4a52:	80 81       	ld	r24, Z
    4a54:	80 93 7f 41 	sts	0x417F, r24	; 0x80417f <DIGIT+0x6>
    4a58:	80 91 7b 51 	lds	r24, 0x517B	; 0x80517b <Blink>
    4a5c:	88 23       	and	r24, r24
    4a5e:	19 f0       	breq	.+6      	; 0x4a66 <CAPA_Set+0x1ca>
    4a60:	10 92 7e 41 	sts	0x417E, r1	; 0x80417e <DIGIT+0x5>
    4a64:	08 c0       	rjmp	.+16     	; 0x4a76 <CAPA_Set+0x1da>
    4a66:	e0 91 6a 51 	lds	r30, 0x516A	; 0x80516a <CAPA_10>
    4a6a:	f0 e0       	ldi	r31, 0x00	; 0
    4a6c:	ed 5b       	subi	r30, 0xBD	; 189
    4a6e:	fe 4b       	sbci	r31, 0xBE	; 190
    4a70:	80 81       	ld	r24, Z
    4a72:	80 93 7e 41 	sts	0x417E, r24	; 0x80417e <DIGIT+0x5>
    4a76:	80 91 50 51 	lds	r24, 0x5150	; 0x805150 <KEY+0x1>
    4a7a:	88 23       	and	r24, r24
    4a7c:	09 f4       	brne	.+2      	; 0x4a80 <CAPA_Set+0x1e4>
    4a7e:	57 c0       	rjmp	.+174    	; 0x4b2e <CAPA_Set+0x292>
    4a80:	80 91 51 51 	lds	r24, 0x5151	; 0x805151 <KEY+0x2>
    4a84:	81 30       	cpi	r24, 0x01	; 1
    4a86:	51 f4       	brne	.+20     	; 0x4a9c <CAPA_Set+0x200>
    4a88:	80 91 6a 51 	lds	r24, 0x516A	; 0x80516a <CAPA_10>
    4a8c:	89 30       	cpi	r24, 0x09	; 9
    4a8e:	30 f4       	brcc	.+12     	; 0x4a9c <CAPA_Set+0x200>
    4a90:	8f 5f       	subi	r24, 0xFF	; 255
    4a92:	80 93 6a 51 	sts	0x516A, r24	; 0x80516a <CAPA_10>
    4a96:	10 92 51 51 	sts	0x5151, r1	; 0x805151 <KEY+0x2>
    4a9a:	49 c0       	rjmp	.+146    	; 0x4b2e <CAPA_Set+0x292>
    4a9c:	80 91 51 51 	lds	r24, 0x5151	; 0x805151 <KEY+0x2>
    4aa0:	83 30       	cpi	r24, 0x03	; 3
    4aa2:	09 f0       	breq	.+2      	; 0x4aa6 <CAPA_Set+0x20a>
    4aa4:	44 c0       	rjmp	.+136    	; 0x4b2e <CAPA_Set+0x292>
    4aa6:	80 91 6a 51 	lds	r24, 0x516A	; 0x80516a <CAPA_10>
    4aaa:	88 23       	and	r24, r24
    4aac:	09 f4       	brne	.+2      	; 0x4ab0 <CAPA_Set+0x214>
    4aae:	3f c0       	rjmp	.+126    	; 0x4b2e <CAPA_Set+0x292>
    4ab0:	81 50       	subi	r24, 0x01	; 1
    4ab2:	80 93 6a 51 	sts	0x516A, r24	; 0x80516a <CAPA_10>
    4ab6:	10 92 51 51 	sts	0x5151, r1	; 0x805151 <KEY+0x2>
    4aba:	39 c0       	rjmp	.+114    	; 0x4b2e <CAPA_Set+0x292>
    4abc:	e0 91 6a 51 	lds	r30, 0x516A	; 0x80516a <CAPA_10>
    4ac0:	f0 e0       	ldi	r31, 0x00	; 0
    4ac2:	ed 5b       	subi	r30, 0xBD	; 189
    4ac4:	fe 4b       	sbci	r31, 0xBE	; 190
    4ac6:	80 81       	ld	r24, Z
    4ac8:	80 93 7e 41 	sts	0x417E, r24	; 0x80417e <DIGIT+0x5>
    4acc:	80 91 7b 51 	lds	r24, 0x517B	; 0x80517b <Blink>
    4ad0:	88 23       	and	r24, r24
    4ad2:	19 f0       	breq	.+6      	; 0x4ada <CAPA_Set+0x23e>
    4ad4:	10 92 7d 41 	sts	0x417D, r1	; 0x80417d <DIGIT+0x4>
    4ad8:	08 c0       	rjmp	.+16     	; 0x4aea <CAPA_Set+0x24e>
    4ada:	e0 91 33 51 	lds	r30, 0x5133	; 0x805133 <CAPA_1>
    4ade:	f0 e0       	ldi	r31, 0x00	; 0
    4ae0:	ed 5b       	subi	r30, 0xBD	; 189
    4ae2:	fe 4b       	sbci	r31, 0xBE	; 190
    4ae4:	80 81       	ld	r24, Z
    4ae6:	80 93 7d 41 	sts	0x417D, r24	; 0x80417d <DIGIT+0x4>
    4aea:	80 91 50 51 	lds	r24, 0x5150	; 0x805150 <KEY+0x1>
    4aee:	88 23       	and	r24, r24
    4af0:	f1 f0       	breq	.+60     	; 0x4b2e <CAPA_Set+0x292>
    4af2:	80 91 51 51 	lds	r24, 0x5151	; 0x805151 <KEY+0x2>
    4af6:	81 30       	cpi	r24, 0x01	; 1
    4af8:	51 f4       	brne	.+20     	; 0x4b0e <CAPA_Set+0x272>
    4afa:	80 91 33 51 	lds	r24, 0x5133	; 0x805133 <CAPA_1>
    4afe:	89 30       	cpi	r24, 0x09	; 9
    4b00:	30 f4       	brcc	.+12     	; 0x4b0e <CAPA_Set+0x272>
    4b02:	8f 5f       	subi	r24, 0xFF	; 255
    4b04:	80 93 33 51 	sts	0x5133, r24	; 0x805133 <CAPA_1>
    4b08:	10 92 51 51 	sts	0x5151, r1	; 0x805151 <KEY+0x2>
    4b0c:	10 c0       	rjmp	.+32     	; 0x4b2e <CAPA_Set+0x292>
    4b0e:	80 91 51 51 	lds	r24, 0x5151	; 0x805151 <KEY+0x2>
    4b12:	83 30       	cpi	r24, 0x03	; 3
    4b14:	61 f4       	brne	.+24     	; 0x4b2e <CAPA_Set+0x292>
    4b16:	80 91 33 51 	lds	r24, 0x5133	; 0x805133 <CAPA_1>
    4b1a:	88 23       	and	r24, r24
    4b1c:	41 f0       	breq	.+16     	; 0x4b2e <CAPA_Set+0x292>
    4b1e:	81 50       	subi	r24, 0x01	; 1
    4b20:	80 93 33 51 	sts	0x5133, r24	; 0x805133 <CAPA_1>
    4b24:	10 92 51 51 	sts	0x5151, r1	; 0x805151 <KEY+0x2>
    4b28:	02 c0       	rjmp	.+4      	; 0x4b2e <CAPA_Set+0x292>
    4b2a:	10 92 4f 51 	sts	0x514F, r1	; 0x80514f <KEY>
    4b2e:	0e 94 7e 0e 	call	0x1cfc	; 0x1cfc <wdt_reset>
    4b32:	80 91 10 51 	lds	r24, 0x5110	; 0x805110 <SET>
    4b36:	81 11       	cpse	r24, r1
    4b38:	fd ce       	rjmp	.-518    	; 0x4934 <CAPA_Set+0x98>
    4b3a:	40 91 a9 41 	lds	r20, 0x41A9	; 0x8041a9 <CAPA_1000>
    4b3e:	28 ee       	ldi	r18, 0xE8	; 232
    4b40:	33 e0       	ldi	r19, 0x03	; 3
    4b42:	42 9f       	mul	r20, r18
    4b44:	c0 01       	movw	r24, r0
    4b46:	43 9f       	mul	r20, r19
    4b48:	90 0d       	add	r25, r0
    4b4a:	11 24       	eor	r1, r1
    4b4c:	ac 01       	movw	r20, r24
    4b4e:	99 0f       	add	r25, r25
    4b50:	66 0b       	sbc	r22, r22
    4b52:	77 0b       	sbc	r23, r23
    4b54:	80 91 64 51 	lds	r24, 0x5164	; 0x805164 <CAPA_100>
    4b58:	24 e6       	ldi	r18, 0x64	; 100
    4b5a:	82 9f       	mul	r24, r18
    4b5c:	c0 01       	movw	r24, r0
    4b5e:	11 24       	eor	r1, r1
    4b60:	09 2e       	mov	r0, r25
    4b62:	00 0c       	add	r0, r0
    4b64:	aa 0b       	sbc	r26, r26
    4b66:	bb 0b       	sbc	r27, r27
    4b68:	84 0f       	add	r24, r20
    4b6a:	95 1f       	adc	r25, r21
    4b6c:	a6 1f       	adc	r26, r22
    4b6e:	b7 1f       	adc	r27, r23
    4b70:	20 91 6a 51 	lds	r18, 0x516A	; 0x80516a <CAPA_10>
    4b74:	30 e0       	ldi	r19, 0x00	; 0
    4b76:	b9 01       	movw	r22, r18
    4b78:	66 0f       	add	r22, r22
    4b7a:	77 1f       	adc	r23, r23
    4b7c:	22 0f       	add	r18, r18
    4b7e:	33 1f       	adc	r19, r19
    4b80:	22 0f       	add	r18, r18
    4b82:	33 1f       	adc	r19, r19
    4b84:	22 0f       	add	r18, r18
    4b86:	33 1f       	adc	r19, r19
    4b88:	62 0f       	add	r22, r18
    4b8a:	73 1f       	adc	r23, r19
    4b8c:	ab 01       	movw	r20, r22
    4b8e:	77 0f       	add	r23, r23
    4b90:	66 0b       	sbc	r22, r22
    4b92:	77 0b       	sbc	r23, r23
    4b94:	84 0f       	add	r24, r20
    4b96:	95 1f       	adc	r25, r21
    4b98:	a6 1f       	adc	r26, r22
    4b9a:	b7 1f       	adc	r27, r23
    4b9c:	20 91 33 51 	lds	r18, 0x5133	; 0x805133 <CAPA_1>
    4ba0:	bc 01       	movw	r22, r24
    4ba2:	cd 01       	movw	r24, r26
    4ba4:	62 0f       	add	r22, r18
    4ba6:	71 1d       	adc	r23, r1
    4ba8:	81 1d       	adc	r24, r1
    4baa:	91 1d       	adc	r25, r1
    4bac:	60 93 6b 51 	sts	0x516B, r22	; 0x80516b <Cell_Capa>
    4bb0:	70 93 6c 51 	sts	0x516C, r23	; 0x80516c <Cell_Capa+0x1>
    4bb4:	80 93 6d 51 	sts	0x516D, r24	; 0x80516d <Cell_Capa+0x2>
    4bb8:	90 93 6e 51 	sts	0x516E, r25	; 0x80516e <Cell_Capa+0x3>
    4bbc:	88 e0       	ldi	r24, 0x08	; 8
    4bbe:	90 e0       	ldi	r25, 0x00	; 0
    4bc0:	0e 94 3e 13 	call	0x267c	; 0x267c <ee_write_word>
    4bc4:	e0 e1       	ldi	r30, 0x10	; 16
    4bc6:	f1 e5       	ldi	r31, 0x51	; 81
    4bc8:	81 e0       	ldi	r24, 0x01	; 1
    4bca:	80 83       	st	Z, r24
    4bcc:	11 82       	std	Z+1, r1	; 0x01
    4bce:	13 82       	std	Z+3, r1	; 0x03
    4bd0:	10 92 4f 51 	sts	0x514F, r1	; 0x80514f <KEY>
    4bd4:	ff 90       	pop	r15
    4bd6:	ef 90       	pop	r14
    4bd8:	df 90       	pop	r13
    4bda:	cf 90       	pop	r12
    4bdc:	bf 90       	pop	r11
    4bde:	af 90       	pop	r10
    4be0:	9f 90       	pop	r9
    4be2:	8f 90       	pop	r8
    4be4:	08 95       	ret

00004be6 <CNT_Set>:
    4be6:	4c e0       	ldi	r20, 0x0C	; 12
    4be8:	62 e0       	ldi	r22, 0x02	; 2
    4bea:	80 e0       	ldi	r24, 0x00	; 0
    4bec:	0e 94 d2 05 	call	0xba4	; 0xba4 <FND_Value_Data>
    4bf0:	43 c0       	rjmp	.+134    	; 0x4c78 <CNT_Set+0x92>
    4bf2:	e9 e7       	ldi	r30, 0x79	; 121
    4bf4:	f1 e4       	ldi	r31, 0x41	; 65
    4bf6:	17 82       	std	Z+7, r1	; 0x07
    4bf8:	8a e1       	ldi	r24, 0x1A	; 26
    4bfa:	82 83       	std	Z+2, r24	; 0x02
    4bfc:	8a e2       	ldi	r24, 0x2A	; 42
    4bfe:	81 83       	std	Z+1, r24	; 0x01
    4c00:	8e e1       	ldi	r24, 0x1E	; 30
    4c02:	80 83       	st	Z, r24
    4c04:	16 82       	std	Z+6, r1	; 0x06
    4c06:	20 91 7e 51 	lds	r18, 0x517E	; 0x80517e <Cell_CNT>
    4c0a:	8d ec       	ldi	r24, 0xCD	; 205
    4c0c:	28 9f       	mul	r18, r24
    4c0e:	81 2d       	mov	r24, r1
    4c10:	11 24       	eor	r1, r1
    4c12:	86 95       	lsr	r24
    4c14:	86 95       	lsr	r24
    4c16:	86 95       	lsr	r24
    4c18:	a8 2f       	mov	r26, r24
    4c1a:	b0 e0       	ldi	r27, 0x00	; 0
    4c1c:	ad 5b       	subi	r26, 0xBD	; 189
    4c1e:	be 4b       	sbci	r27, 0xBE	; 190
    4c20:	9c 91       	ld	r25, X
    4c22:	95 83       	std	Z+5, r25	; 0x05
    4c24:	88 0f       	add	r24, r24
    4c26:	98 2f       	mov	r25, r24
    4c28:	99 0f       	add	r25, r25
    4c2a:	99 0f       	add	r25, r25
    4c2c:	89 0f       	add	r24, r25
    4c2e:	a2 2f       	mov	r26, r18
    4c30:	a8 1b       	sub	r26, r24
    4c32:	b0 e0       	ldi	r27, 0x00	; 0
    4c34:	ad 5b       	subi	r26, 0xBD	; 189
    4c36:	be 4b       	sbci	r27, 0xBE	; 190
    4c38:	8c 91       	ld	r24, X
    4c3a:	84 83       	std	Z+4, r24	; 0x04
    4c3c:	10 86       	std	Z+8, r1	; 0x08
    4c3e:	80 91 50 51 	lds	r24, 0x5150	; 0x805150 <KEY+0x1>
    4c42:	88 23       	and	r24, r24
    4c44:	b9 f0       	breq	.+46     	; 0x4c74 <CNT_Set+0x8e>
    4c46:	80 91 51 51 	lds	r24, 0x5151	; 0x805151 <KEY+0x2>
    4c4a:	81 30       	cpi	r24, 0x01	; 1
    4c4c:	41 f4       	brne	.+16     	; 0x4c5e <CNT_Set+0x78>
    4c4e:	24 30       	cpi	r18, 0x04	; 4
    4c50:	30 f4       	brcc	.+12     	; 0x4c5e <CNT_Set+0x78>
    4c52:	22 0f       	add	r18, r18
    4c54:	20 93 7e 51 	sts	0x517E, r18	; 0x80517e <Cell_CNT>
    4c58:	10 92 51 51 	sts	0x5151, r1	; 0x805151 <KEY+0x2>
    4c5c:	0b c0       	rjmp	.+22     	; 0x4c74 <CNT_Set+0x8e>
    4c5e:	80 91 51 51 	lds	r24, 0x5151	; 0x805151 <KEY+0x2>
    4c62:	83 30       	cpi	r24, 0x03	; 3
    4c64:	39 f4       	brne	.+14     	; 0x4c74 <CNT_Set+0x8e>
    4c66:	22 30       	cpi	r18, 0x02	; 2
    4c68:	28 f0       	brcs	.+10     	; 0x4c74 <CNT_Set+0x8e>
    4c6a:	26 95       	lsr	r18
    4c6c:	20 93 7e 51 	sts	0x517E, r18	; 0x80517e <Cell_CNT>
    4c70:	10 92 51 51 	sts	0x5151, r1	; 0x805151 <KEY+0x2>
    4c74:	0e 94 7e 0e 	call	0x1cfc	; 0x1cfc <wdt_reset>
    4c78:	80 91 10 51 	lds	r24, 0x5110	; 0x805110 <SET>
    4c7c:	88 23       	and	r24, r24
    4c7e:	21 f0       	breq	.+8      	; 0x4c88 <CNT_Set+0xa2>
    4c80:	80 91 11 51 	lds	r24, 0x5111	; 0x805111 <SET+0x1>
    4c84:	81 11       	cpse	r24, r1
    4c86:	b5 cf       	rjmp	.-150    	; 0x4bf2 <CNT_Set+0xc>
    4c88:	60 91 7e 51 	lds	r22, 0x517E	; 0x80517e <Cell_CNT>
    4c8c:	84 e0       	ldi	r24, 0x04	; 4
    4c8e:	90 e0       	ldi	r25, 0x00	; 0
    4c90:	0e 94 1b 13 	call	0x2636	; 0x2636 <ee_write_byte>
    4c94:	08 95       	ret

00004c96 <ID_Set>:
    4c96:	4c e0       	ldi	r20, 0x0C	; 12
    4c98:	62 e0       	ldi	r22, 0x02	; 2
    4c9a:	80 e0       	ldi	r24, 0x00	; 0
    4c9c:	0e 94 d2 05 	call	0xba4	; 0xba4 <FND_Value_Data>
    4ca0:	43 c0       	rjmp	.+134    	; 0x4d28 <ID_Set+0x92>
    4ca2:	e9 e7       	ldi	r30, 0x79	; 121
    4ca4:	f1 e4       	ldi	r31, 0x41	; 65
    4ca6:	13 82       	std	Z+3, r1	; 0x03
    4ca8:	80 e6       	ldi	r24, 0x60	; 96
    4caa:	82 83       	std	Z+2, r24	; 0x02
    4cac:	8a e7       	ldi	r24, 0x7A	; 122
    4cae:	81 83       	std	Z+1, r24	; 0x01
    4cb0:	10 82       	st	Z, r1
    4cb2:	17 82       	std	Z+7, r1	; 0x07
    4cb4:	16 82       	std	Z+6, r1	; 0x06
    4cb6:	20 91 ea 50 	lds	r18, 0x50EA	; 0x8050ea <Cell_ID>
    4cba:	8d ec       	ldi	r24, 0xCD	; 205
    4cbc:	28 9f       	mul	r18, r24
    4cbe:	81 2d       	mov	r24, r1
    4cc0:	11 24       	eor	r1, r1
    4cc2:	86 95       	lsr	r24
    4cc4:	86 95       	lsr	r24
    4cc6:	86 95       	lsr	r24
    4cc8:	a8 2f       	mov	r26, r24
    4cca:	b0 e0       	ldi	r27, 0x00	; 0
    4ccc:	ad 5b       	subi	r26, 0xBD	; 189
    4cce:	be 4b       	sbci	r27, 0xBE	; 190
    4cd0:	9c 91       	ld	r25, X
    4cd2:	95 83       	std	Z+5, r25	; 0x05
    4cd4:	88 0f       	add	r24, r24
    4cd6:	98 2f       	mov	r25, r24
    4cd8:	99 0f       	add	r25, r25
    4cda:	99 0f       	add	r25, r25
    4cdc:	89 0f       	add	r24, r25
    4cde:	a2 2f       	mov	r26, r18
    4ce0:	a8 1b       	sub	r26, r24
    4ce2:	b0 e0       	ldi	r27, 0x00	; 0
    4ce4:	ad 5b       	subi	r26, 0xBD	; 189
    4ce6:	be 4b       	sbci	r27, 0xBE	; 190
    4ce8:	8c 91       	ld	r24, X
    4cea:	84 83       	std	Z+4, r24	; 0x04
    4cec:	10 86       	std	Z+8, r1	; 0x08
    4cee:	80 91 50 51 	lds	r24, 0x5150	; 0x805150 <KEY+0x1>
    4cf2:	88 23       	and	r24, r24
    4cf4:	b9 f0       	breq	.+46     	; 0x4d24 <ID_Set+0x8e>
    4cf6:	80 91 51 51 	lds	r24, 0x5151	; 0x805151 <KEY+0x2>
    4cfa:	81 30       	cpi	r24, 0x01	; 1
    4cfc:	41 f4       	brne	.+16     	; 0x4d0e <ID_Set+0x78>
    4cfe:	2c 33       	cpi	r18, 0x3C	; 60
    4d00:	30 f4       	brcc	.+12     	; 0x4d0e <ID_Set+0x78>
    4d02:	2f 5f       	subi	r18, 0xFF	; 255
    4d04:	20 93 ea 50 	sts	0x50EA, r18	; 0x8050ea <Cell_ID>
    4d08:	10 92 51 51 	sts	0x5151, r1	; 0x805151 <KEY+0x2>
    4d0c:	0b c0       	rjmp	.+22     	; 0x4d24 <ID_Set+0x8e>
    4d0e:	80 91 51 51 	lds	r24, 0x5151	; 0x805151 <KEY+0x2>
    4d12:	83 30       	cpi	r24, 0x03	; 3
    4d14:	39 f4       	brne	.+14     	; 0x4d24 <ID_Set+0x8e>
    4d16:	22 23       	and	r18, r18
    4d18:	29 f0       	breq	.+10     	; 0x4d24 <ID_Set+0x8e>
    4d1a:	21 50       	subi	r18, 0x01	; 1
    4d1c:	20 93 ea 50 	sts	0x50EA, r18	; 0x8050ea <Cell_ID>
    4d20:	10 92 51 51 	sts	0x5151, r1	; 0x805151 <KEY+0x2>
    4d24:	0e 94 7e 0e 	call	0x1cfc	; 0x1cfc <wdt_reset>
    4d28:	80 91 10 51 	lds	r24, 0x5110	; 0x805110 <SET>
    4d2c:	88 23       	and	r24, r24
    4d2e:	21 f0       	breq	.+8      	; 0x4d38 <ID_Set+0xa2>
    4d30:	80 91 11 51 	lds	r24, 0x5111	; 0x805111 <SET+0x1>
    4d34:	81 11       	cpse	r24, r1
    4d36:	b5 cf       	rjmp	.-150    	; 0x4ca2 <ID_Set+0xc>
    4d38:	60 91 ea 50 	lds	r22, 0x50EA	; 0x8050ea <Cell_ID>
    4d3c:	83 e0       	ldi	r24, 0x03	; 3
    4d3e:	90 e0       	ldi	r25, 0x00	; 0
    4d40:	0e 94 1b 13 	call	0x2636	; 0x2636 <ee_write_byte>
    4d44:	08 95       	ret

00004d46 <Loadcell_Set>:
    4d46:	2f 92       	push	r2
    4d48:	3f 92       	push	r3
    4d4a:	4f 92       	push	r4
    4d4c:	5f 92       	push	r5
    4d4e:	6f 92       	push	r6
    4d50:	7f 92       	push	r7
    4d52:	8f 92       	push	r8
    4d54:	9f 92       	push	r9
    4d56:	af 92       	push	r10
    4d58:	bf 92       	push	r11
    4d5a:	cf 92       	push	r12
    4d5c:	df 92       	push	r13
    4d5e:	ef 92       	push	r14
    4d60:	ff 92       	push	r15
    4d62:	0f 93       	push	r16
    4d64:	1f 93       	push	r17
    4d66:	cf 93       	push	r28
    4d68:	df 93       	push	r29
    4d6a:	10 92 11 51 	sts	0x5111, r1	; 0x805111 <SET+0x1>
    4d6e:	4c e0       	ldi	r20, 0x0C	; 12
    4d70:	62 e0       	ldi	r22, 0x02	; 2
    4d72:	80 e0       	ldi	r24, 0x00	; 0
    4d74:	0e 94 d2 05 	call	0xba4	; 0xba4 <FND_Value_Data>
    4d78:	83 e0       	ldi	r24, 0x03	; 3
    4d7a:	90 e0       	ldi	r25, 0x00	; 0
    4d7c:	0e 94 f9 12 	call	0x25f2	; 0x25f2 <ee_read_byte>
    4d80:	80 93 ea 50 	sts	0x50EA, r24	; 0x8050ea <Cell_ID>
    4d84:	84 e0       	ldi	r24, 0x04	; 4
    4d86:	90 e0       	ldi	r25, 0x00	; 0
    4d88:	0e 94 f9 12 	call	0x25f2	; 0x25f2 <ee_read_byte>
    4d8c:	80 93 7e 51 	sts	0x517E, r24	; 0x80517e <Cell_CNT>
    4d90:	88 e0       	ldi	r24, 0x08	; 8
    4d92:	90 e0       	ldi	r25, 0x00	; 0
    4d94:	0e 94 03 13 	call	0x2606	; 0x2606 <ee_read_word>
    4d98:	a0 e0       	ldi	r26, 0x00	; 0
    4d9a:	b0 e0       	ldi	r27, 0x00	; 0
    4d9c:	80 93 6b 51 	sts	0x516B, r24	; 0x80516b <Cell_Capa>
    4da0:	90 93 6c 51 	sts	0x516C, r25	; 0x80516c <Cell_Capa+0x1>
    4da4:	a0 93 6d 51 	sts	0x516D, r26	; 0x80516d <Cell_Capa+0x2>
    4da8:	b0 93 6e 51 	sts	0x516E, r27	; 0x80516e <Cell_Capa+0x3>
    4dac:	8c e0       	ldi	r24, 0x0C	; 12
    4dae:	90 e0       	ldi	r25, 0x00	; 0
    4db0:	0e 94 0e 13 	call	0x261c	; 0x261c <ee_read_dword>
    4db4:	dc 01       	movw	r26, r24
    4db6:	cb 01       	movw	r24, r22
    4db8:	80 93 15 51 	sts	0x5115, r24	; 0x805115 <RO>
    4dbc:	90 93 16 51 	sts	0x5116, r25	; 0x805116 <RO+0x1>
    4dc0:	a0 93 17 51 	sts	0x5117, r26	; 0x805117 <RO+0x2>
    4dc4:	b0 93 18 51 	sts	0x5118, r27	; 0x805118 <RO+0x3>
    4dc8:	10 92 19 51 	sts	0x5119, r1	; 0x805119 <RO+0x4>
    4dcc:	10 92 1a 51 	sts	0x511A, r1	; 0x80511a <RO+0x5>
    4dd0:	10 92 1b 51 	sts	0x511B, r1	; 0x80511b <RO+0x6>
    4dd4:	10 92 1c 51 	sts	0x511C, r1	; 0x80511c <RO+0x7>
    4dd8:	8a e0       	ldi	r24, 0x0A	; 10
    4dda:	90 e0       	ldi	r25, 0x00	; 0
    4ddc:	0e 94 03 13 	call	0x2606	; 0x2606 <ee_read_word>
    4de0:	ec 01       	movw	r28, r24
    4de2:	80 93 09 51 	sts	0x5109, r24	; 0x805109 <IN_Scales>
    4de6:	90 93 0a 51 	sts	0x510A, r25	; 0x80510a <IN_Scales+0x1>
    4dea:	40 90 6b 51 	lds	r4, 0x516B	; 0x80516b <Cell_Capa>
    4dee:	50 90 6c 51 	lds	r5, 0x516C	; 0x80516c <Cell_Capa+0x1>
    4df2:	60 90 6d 51 	lds	r6, 0x516D	; 0x80516d <Cell_Capa+0x2>
    4df6:	70 90 6e 51 	lds	r7, 0x516E	; 0x80516e <Cell_Capa+0x3>
    4dfa:	c3 01       	movw	r24, r6
    4dfc:	b2 01       	movw	r22, r4
    4dfe:	28 ee       	ldi	r18, 0xE8	; 232
    4e00:	33 e0       	ldi	r19, 0x03	; 3
    4e02:	40 e0       	ldi	r20, 0x00	; 0
    4e04:	50 e0       	ldi	r21, 0x00	; 0
    4e06:	0e 94 90 3b 	call	0x7720	; 0x7720 <__udivmodsi4>
    4e0a:	20 93 a9 41 	sts	0x41A9, r18	; 0x8041a9 <CAPA_1000>
    4e0e:	0f 2e       	mov	r0, r31
    4e10:	f4 e6       	ldi	r31, 0x64	; 100
    4e12:	8f 2e       	mov	r8, r31
    4e14:	91 2c       	mov	r9, r1
    4e16:	a1 2c       	mov	r10, r1
    4e18:	b1 2c       	mov	r11, r1
    4e1a:	f0 2d       	mov	r31, r0
    4e1c:	a5 01       	movw	r20, r10
    4e1e:	94 01       	movw	r18, r8
    4e20:	0e 94 90 3b 	call	0x7720	; 0x7720 <__udivmodsi4>
    4e24:	20 93 64 51 	sts	0x5164, r18	; 0x805164 <CAPA_100>
    4e28:	c3 01       	movw	r24, r6
    4e2a:	b2 01       	movw	r22, r4
    4e2c:	a5 01       	movw	r20, r10
    4e2e:	94 01       	movw	r18, r8
    4e30:	0e 94 90 3b 	call	0x7720	; 0x7720 <__udivmodsi4>
    4e34:	0f 2e       	mov	r0, r31
    4e36:	fa e0       	ldi	r31, 0x0A	; 10
    4e38:	8f 2e       	mov	r8, r31
    4e3a:	91 2c       	mov	r9, r1
    4e3c:	a1 2c       	mov	r10, r1
    4e3e:	b1 2c       	mov	r11, r1
    4e40:	f0 2d       	mov	r31, r0
    4e42:	a5 01       	movw	r20, r10
    4e44:	94 01       	movw	r18, r8
    4e46:	0e 94 90 3b 	call	0x7720	; 0x7720 <__udivmodsi4>
    4e4a:	20 93 6a 51 	sts	0x516A, r18	; 0x80516a <CAPA_10>
    4e4e:	c3 01       	movw	r24, r6
    4e50:	b2 01       	movw	r22, r4
    4e52:	a5 01       	movw	r20, r10
    4e54:	94 01       	movw	r18, r8
    4e56:	0e 94 90 3b 	call	0x7720	; 0x7720 <__udivmodsi4>
    4e5a:	60 93 33 51 	sts	0x5133, r22	; 0x805133 <CAPA_1>
    4e5e:	20 90 15 51 	lds	r2, 0x5115	; 0x805115 <RO>
    4e62:	30 90 16 51 	lds	r3, 0x5116	; 0x805116 <RO+0x1>
    4e66:	40 90 17 51 	lds	r4, 0x5117	; 0x805117 <RO+0x2>
    4e6a:	50 90 18 51 	lds	r5, 0x5118	; 0x805118 <RO+0x3>
    4e6e:	60 90 19 51 	lds	r6, 0x5119	; 0x805119 <RO+0x4>
    4e72:	70 90 1a 51 	lds	r7, 0x511A	; 0x80511a <RO+0x5>
    4e76:	80 90 1b 51 	lds	r8, 0x511B	; 0x80511b <RO+0x6>
    4e7a:	90 90 1c 51 	lds	r9, 0x511C	; 0x80511c <RO+0x7>
    4e7e:	68 94       	set
    4e80:	aa 24       	eor	r10, r10
    4e82:	a4 f8       	bld	r10, 4
    4e84:	0f 2e       	mov	r0, r31
    4e86:	f7 e2       	ldi	r31, 0x27	; 39
    4e88:	bf 2e       	mov	r11, r31
    4e8a:	f0 2d       	mov	r31, r0
    4e8c:	c1 2c       	mov	r12, r1
    4e8e:	d1 2c       	mov	r13, r1
    4e90:	e1 2c       	mov	r14, r1
    4e92:	f1 2c       	mov	r15, r1
    4e94:	00 e0       	ldi	r16, 0x00	; 0
    4e96:	10 e0       	ldi	r17, 0x00	; 0
    4e98:	22 2d       	mov	r18, r2
    4e9a:	33 2d       	mov	r19, r3
    4e9c:	44 2d       	mov	r20, r4
    4e9e:	55 2d       	mov	r21, r5
    4ea0:	66 2d       	mov	r22, r6
    4ea2:	77 2d       	mov	r23, r7
    4ea4:	88 2d       	mov	r24, r8
    4ea6:	99 2d       	mov	r25, r9
    4ea8:	0e 94 4f 3c 	call	0x789e	; 0x789e <__udivdi3>
    4eac:	20 93 5b 51 	sts	0x515B, r18	; 0x80515b <RO_10000>
    4eb0:	30 93 5c 51 	sts	0x515C, r19	; 0x80515c <RO_10000+0x1>
    4eb4:	40 93 5d 51 	sts	0x515D, r20	; 0x80515d <RO_10000+0x2>
    4eb8:	50 93 5e 51 	sts	0x515E, r21	; 0x80515e <RO_10000+0x3>
    4ebc:	60 93 5f 51 	sts	0x515F, r22	; 0x80515f <RO_10000+0x4>
    4ec0:	70 93 60 51 	sts	0x5160, r23	; 0x805160 <RO_10000+0x5>
    4ec4:	80 93 61 51 	sts	0x5161, r24	; 0x805161 <RO_10000+0x6>
    4ec8:	90 93 62 51 	sts	0x5162, r25	; 0x805162 <RO_10000+0x7>
    4ecc:	22 2d       	mov	r18, r2
    4ece:	33 2d       	mov	r19, r3
    4ed0:	44 2d       	mov	r20, r4
    4ed2:	55 2d       	mov	r21, r5
    4ed4:	66 2d       	mov	r22, r6
    4ed6:	77 2d       	mov	r23, r7
    4ed8:	88 2d       	mov	r24, r8
    4eda:	99 2d       	mov	r25, r9
    4edc:	0e 94 4d 3c 	call	0x789a	; 0x789a <__umoddi3>
    4ee0:	0f 2e       	mov	r0, r31
    4ee2:	f8 ee       	ldi	r31, 0xE8	; 232
    4ee4:	af 2e       	mov	r10, r31
    4ee6:	f0 2d       	mov	r31, r0
    4ee8:	0f 2e       	mov	r0, r31
    4eea:	f3 e0       	ldi	r31, 0x03	; 3
    4eec:	bf 2e       	mov	r11, r31
    4eee:	f0 2d       	mov	r31, r0
    4ef0:	0e 94 4f 3c 	call	0x789e	; 0x789e <__udivdi3>
    4ef4:	20 93 84 52 	sts	0x5284, r18	; 0x805284 <RO_1000>
    4ef8:	30 93 85 52 	sts	0x5285, r19	; 0x805285 <RO_1000+0x1>
    4efc:	40 93 86 52 	sts	0x5286, r20	; 0x805286 <RO_1000+0x2>
    4f00:	50 93 87 52 	sts	0x5287, r21	; 0x805287 <RO_1000+0x3>
    4f04:	60 93 88 52 	sts	0x5288, r22	; 0x805288 <RO_1000+0x4>
    4f08:	70 93 89 52 	sts	0x5289, r23	; 0x805289 <RO_1000+0x5>
    4f0c:	80 93 8a 52 	sts	0x528A, r24	; 0x80528a <RO_1000+0x6>
    4f10:	90 93 8b 52 	sts	0x528B, r25	; 0x80528b <RO_1000+0x7>
    4f14:	22 2d       	mov	r18, r2
    4f16:	33 2d       	mov	r19, r3
    4f18:	44 2d       	mov	r20, r4
    4f1a:	55 2d       	mov	r21, r5
    4f1c:	66 2d       	mov	r22, r6
    4f1e:	77 2d       	mov	r23, r7
    4f20:	88 2d       	mov	r24, r8
    4f22:	99 2d       	mov	r25, r9
    4f24:	0e 94 4d 3c 	call	0x789a	; 0x789a <__umoddi3>
    4f28:	0f 2e       	mov	r0, r31
    4f2a:	f4 e6       	ldi	r31, 0x64	; 100
    4f2c:	af 2e       	mov	r10, r31
    4f2e:	f0 2d       	mov	r31, r0
    4f30:	b1 2c       	mov	r11, r1
    4f32:	0e 94 4f 3c 	call	0x789e	; 0x789e <__udivdi3>
    4f36:	20 93 73 51 	sts	0x5173, r18	; 0x805173 <RO_100>
    4f3a:	30 93 74 51 	sts	0x5174, r19	; 0x805174 <RO_100+0x1>
    4f3e:	40 93 75 51 	sts	0x5175, r20	; 0x805175 <RO_100+0x2>
    4f42:	50 93 76 51 	sts	0x5176, r21	; 0x805176 <RO_100+0x3>
    4f46:	60 93 77 51 	sts	0x5177, r22	; 0x805177 <RO_100+0x4>
    4f4a:	70 93 78 51 	sts	0x5178, r23	; 0x805178 <RO_100+0x5>
    4f4e:	80 93 79 51 	sts	0x5179, r24	; 0x805179 <RO_100+0x6>
    4f52:	90 93 7a 51 	sts	0x517A, r25	; 0x80517a <RO_100+0x7>
    4f56:	22 2d       	mov	r18, r2
    4f58:	33 2d       	mov	r19, r3
    4f5a:	44 2d       	mov	r20, r4
    4f5c:	55 2d       	mov	r21, r5
    4f5e:	66 2d       	mov	r22, r6
    4f60:	77 2d       	mov	r23, r7
    4f62:	88 2d       	mov	r24, r8
    4f64:	99 2d       	mov	r25, r9
    4f66:	0e 94 4d 3c 	call	0x789a	; 0x789a <__umoddi3>
    4f6a:	0f 2e       	mov	r0, r31
    4f6c:	fa e0       	ldi	r31, 0x0A	; 10
    4f6e:	af 2e       	mov	r10, r31
    4f70:	f0 2d       	mov	r31, r0
    4f72:	0e 94 4f 3c 	call	0x789e	; 0x789e <__udivdi3>
    4f76:	20 93 42 51 	sts	0x5142, r18	; 0x805142 <RO_10>
    4f7a:	30 93 43 51 	sts	0x5143, r19	; 0x805143 <RO_10+0x1>
    4f7e:	40 93 44 51 	sts	0x5144, r20	; 0x805144 <RO_10+0x2>
    4f82:	50 93 45 51 	sts	0x5145, r21	; 0x805145 <RO_10+0x3>
    4f86:	60 93 46 51 	sts	0x5146, r22	; 0x805146 <RO_10+0x4>
    4f8a:	70 93 47 51 	sts	0x5147, r23	; 0x805147 <RO_10+0x5>
    4f8e:	80 93 48 51 	sts	0x5148, r24	; 0x805148 <RO_10+0x6>
    4f92:	90 93 49 51 	sts	0x5149, r25	; 0x805149 <RO_10+0x7>
    4f96:	22 2d       	mov	r18, r2
    4f98:	33 2d       	mov	r19, r3
    4f9a:	44 2d       	mov	r20, r4
    4f9c:	55 2d       	mov	r21, r5
    4f9e:	66 2d       	mov	r22, r6
    4fa0:	77 2d       	mov	r23, r7
    4fa2:	88 2d       	mov	r24, r8
    4fa4:	99 2d       	mov	r25, r9
    4fa6:	0e 94 4d 3c 	call	0x789a	; 0x789a <__umoddi3>
    4faa:	20 93 81 51 	sts	0x5181, r18	; 0x805181 <RO_1>
    4fae:	30 93 82 51 	sts	0x5182, r19	; 0x805182 <RO_1+0x1>
    4fb2:	40 93 83 51 	sts	0x5183, r20	; 0x805183 <RO_1+0x2>
    4fb6:	50 93 84 51 	sts	0x5184, r21	; 0x805184 <RO_1+0x3>
    4fba:	60 93 85 51 	sts	0x5185, r22	; 0x805185 <RO_1+0x4>
    4fbe:	70 93 86 51 	sts	0x5186, r23	; 0x805186 <RO_1+0x5>
    4fc2:	80 93 87 51 	sts	0x5187, r24	; 0x805187 <RO_1+0x6>
    4fc6:	90 93 88 51 	sts	0x5188, r25	; 0x805188 <RO_1+0x7>
    4fca:	ce 01       	movw	r24, r28
    4fcc:	60 e1       	ldi	r22, 0x10	; 16
    4fce:	77 e2       	ldi	r23, 0x27	; 39
    4fd0:	0e 94 7c 3b 	call	0x76f8	; 0x76f8 <__divmodhi4>
    4fd4:	60 93 0b 51 	sts	0x510B, r22	; 0x80510b <IN_S_10000>
    4fd8:	28 ee       	ldi	r18, 0xE8	; 232
    4fda:	33 e0       	ldi	r19, 0x03	; 3
    4fdc:	b9 01       	movw	r22, r18
    4fde:	0e 94 7c 3b 	call	0x76f8	; 0x76f8 <__divmodhi4>
    4fe2:	60 93 7d 51 	sts	0x517D, r22	; 0x80517d <IN_S_1000>
    4fe6:	ce 01       	movw	r24, r28
    4fe8:	b9 01       	movw	r22, r18
    4fea:	0e 94 7c 3b 	call	0x76f8	; 0x76f8 <__divmodhi4>
    4fee:	24 e6       	ldi	r18, 0x64	; 100
    4ff0:	30 e0       	ldi	r19, 0x00	; 0
    4ff2:	b9 01       	movw	r22, r18
    4ff4:	0e 94 7c 3b 	call	0x76f8	; 0x76f8 <__divmodhi4>
    4ff8:	60 93 0d 51 	sts	0x510D, r22	; 0x80510d <IN_S_100>
    4ffc:	ce 01       	movw	r24, r28
    4ffe:	b9 01       	movw	r22, r18
    5000:	0e 94 7c 3b 	call	0x76f8	; 0x76f8 <__divmodhi4>
    5004:	2a e0       	ldi	r18, 0x0A	; 10
    5006:	30 e0       	ldi	r19, 0x00	; 0
    5008:	b9 01       	movw	r22, r18
    500a:	0e 94 7c 3b 	call	0x76f8	; 0x76f8 <__divmodhi4>
    500e:	60 93 ef 50 	sts	0x50EF, r22	; 0x8050ef <IN_S_10>
    5012:	ce 01       	movw	r24, r28
    5014:	b9 01       	movw	r22, r18
    5016:	0e 94 7c 3b 	call	0x76f8	; 0x76f8 <__divmodhi4>
    501a:	80 93 68 51 	sts	0x5168, r24	; 0x805168 <IN_S_1>
    501e:	c1 e0       	ldi	r28, 0x01	; 1
    5020:	64 c1       	rjmp	.+712    	; 0x52ea <Loadcell_Set+0x5a4>
    5022:	80 91 50 51 	lds	r24, 0x5150	; 0x805150 <KEY+0x1>
    5026:	88 23       	and	r24, r24
    5028:	99 f0       	breq	.+38     	; 0x5050 <Loadcell_Set+0x30a>
    502a:	80 91 51 51 	lds	r24, 0x5151	; 0x805151 <KEY+0x2>
    502e:	81 30       	cpi	r24, 0x01	; 1
    5030:	31 f4       	brne	.+12     	; 0x503e <Loadcell_Set+0x2f8>
    5032:	c7 30       	cpi	r28, 0x07	; 7
    5034:	20 f4       	brcc	.+8      	; 0x503e <Loadcell_Set+0x2f8>
    5036:	cf 5f       	subi	r28, 0xFF	; 255
    5038:	10 92 51 51 	sts	0x5151, r1	; 0x805151 <KEY+0x2>
    503c:	09 c0       	rjmp	.+18     	; 0x5050 <Loadcell_Set+0x30a>
    503e:	80 91 51 51 	lds	r24, 0x5151	; 0x805151 <KEY+0x2>
    5042:	83 30       	cpi	r24, 0x03	; 3
    5044:	29 f4       	brne	.+10     	; 0x5050 <Loadcell_Set+0x30a>
    5046:	cc 23       	and	r28, r28
    5048:	19 f0       	breq	.+6      	; 0x5050 <Loadcell_Set+0x30a>
    504a:	c1 50       	subi	r28, 0x01	; 1
    504c:	10 92 51 51 	sts	0x5151, r1	; 0x805151 <KEY+0x2>
    5050:	ec 2f       	mov	r30, r28
    5052:	f0 e0       	ldi	r31, 0x00	; 0
    5054:	ed 5b       	subi	r30, 0xBD	; 189
    5056:	fe 4b       	sbci	r31, 0xBE	; 190
    5058:	80 81       	ld	r24, Z
    505a:	80 93 81 41 	sts	0x4181, r24	; 0x804181 <DIGIT+0x8>
    505e:	8c 2f       	mov	r24, r28
    5060:	90 e0       	ldi	r25, 0x00	; 0
    5062:	88 30       	cpi	r24, 0x08	; 8
    5064:	91 05       	cpc	r25, r1
    5066:	08 f0       	brcs	.+2      	; 0x506a <Loadcell_Set+0x324>
    5068:	3e c1       	rjmp	.+636    	; 0x52e6 <Loadcell_Set+0x5a0>
    506a:	fc 01       	movw	r30, r24
    506c:	e9 57       	subi	r30, 0x79	; 121
    506e:	fc 4f       	sbci	r31, 0xFC	; 252
    5070:	0c 94 d1 3b 	jmp	0x77a2	; 0x77a2 <__tablejump2__>
    5074:	e9 e7       	ldi	r30, 0x79	; 121
    5076:	f1 e4       	ldi	r31, 0x41	; 65
    5078:	13 82       	std	Z+3, r1	; 0x03
    507a:	12 82       	std	Z+2, r1	; 0x02
    507c:	80 e6       	ldi	r24, 0x60	; 96
    507e:	81 83       	std	Z+1, r24	; 0x01
    5080:	8a e7       	ldi	r24, 0x7A	; 122
    5082:	80 83       	st	Z, r24
    5084:	17 82       	std	Z+7, r1	; 0x07
    5086:	16 82       	std	Z+6, r1	; 0x06
    5088:	40 91 ea 50 	lds	r20, 0x50EA	; 0x8050ea <Cell_ID>
    508c:	8d ec       	ldi	r24, 0xCD	; 205
    508e:	48 9f       	mul	r20, r24
    5090:	81 2d       	mov	r24, r1
    5092:	11 24       	eor	r1, r1
    5094:	86 95       	lsr	r24
    5096:	86 95       	lsr	r24
    5098:	86 95       	lsr	r24
    509a:	28 2f       	mov	r18, r24
    509c:	30 e0       	ldi	r19, 0x00	; 0
    509e:	2d 5b       	subi	r18, 0xBD	; 189
    50a0:	3e 4b       	sbci	r19, 0xBE	; 190
    50a2:	d9 01       	movw	r26, r18
    50a4:	9c 91       	ld	r25, X
    50a6:	95 83       	std	Z+5, r25	; 0x05
    50a8:	88 0f       	add	r24, r24
    50aa:	98 2f       	mov	r25, r24
    50ac:	99 0f       	add	r25, r25
    50ae:	99 0f       	add	r25, r25
    50b0:	89 0f       	add	r24, r25
    50b2:	a4 2f       	mov	r26, r20
    50b4:	a8 1b       	sub	r26, r24
    50b6:	b0 e0       	ldi	r27, 0x00	; 0
    50b8:	ad 5b       	subi	r26, 0xBD	; 189
    50ba:	be 4b       	sbci	r27, 0xBE	; 190
    50bc:	8c 91       	ld	r24, X
    50be:	84 83       	std	Z+4, r24	; 0x04
    50c0:	13 86       	std	Z+11, r1	; 0x0b
    50c2:	80 91 11 51 	lds	r24, 0x5111	; 0x805111 <SET+0x1>
    50c6:	88 23       	and	r24, r24
    50c8:	09 f4       	brne	.+2      	; 0x50cc <Loadcell_Set+0x386>
    50ca:	0d c1       	rjmp	.+538    	; 0x52e6 <Loadcell_Set+0x5a0>
    50cc:	0e 94 4b 26 	call	0x4c96	; 0x4c96 <ID_Set>
    50d0:	0a c1       	rjmp	.+532    	; 0x52e6 <Loadcell_Set+0x5a0>
    50d2:	e9 e7       	ldi	r30, 0x79	; 121
    50d4:	f1 e4       	ldi	r31, 0x41	; 65
    50d6:	13 82       	std	Z+3, r1	; 0x03
    50d8:	8a e1       	ldi	r24, 0x1A	; 26
    50da:	82 83       	std	Z+2, r24	; 0x02
    50dc:	8a e2       	ldi	r24, 0x2A	; 42
    50de:	81 83       	std	Z+1, r24	; 0x01
    50e0:	8e e1       	ldi	r24, 0x1E	; 30
    50e2:	80 83       	st	Z, r24
    50e4:	17 82       	std	Z+7, r1	; 0x07
    50e6:	16 82       	std	Z+6, r1	; 0x06
    50e8:	40 91 7e 51 	lds	r20, 0x517E	; 0x80517e <Cell_CNT>
    50ec:	8d ec       	ldi	r24, 0xCD	; 205
    50ee:	48 9f       	mul	r20, r24
    50f0:	81 2d       	mov	r24, r1
    50f2:	11 24       	eor	r1, r1
    50f4:	86 95       	lsr	r24
    50f6:	86 95       	lsr	r24
    50f8:	86 95       	lsr	r24
    50fa:	28 2f       	mov	r18, r24
    50fc:	30 e0       	ldi	r19, 0x00	; 0
    50fe:	2d 5b       	subi	r18, 0xBD	; 189
    5100:	3e 4b       	sbci	r19, 0xBE	; 190
    5102:	d9 01       	movw	r26, r18
    5104:	9c 91       	ld	r25, X
    5106:	95 83       	std	Z+5, r25	; 0x05
    5108:	88 0f       	add	r24, r24
    510a:	98 2f       	mov	r25, r24
    510c:	99 0f       	add	r25, r25
    510e:	99 0f       	add	r25, r25
    5110:	89 0f       	add	r24, r25
    5112:	a4 2f       	mov	r26, r20
    5114:	a8 1b       	sub	r26, r24
    5116:	b0 e0       	ldi	r27, 0x00	; 0
    5118:	ad 5b       	subi	r26, 0xBD	; 189
    511a:	be 4b       	sbci	r27, 0xBE	; 190
    511c:	8c 91       	ld	r24, X
    511e:	84 83       	std	Z+4, r24	; 0x04
    5120:	13 86       	std	Z+11, r1	; 0x0b
    5122:	80 91 11 51 	lds	r24, 0x5111	; 0x805111 <SET+0x1>
    5126:	88 23       	and	r24, r24
    5128:	09 f4       	brne	.+2      	; 0x512c <Loadcell_Set+0x3e6>
    512a:	dd c0       	rjmp	.+442    	; 0x52e6 <Loadcell_Set+0x5a0>
    512c:	0e 94 f3 25 	call	0x4be6	; 0x4be6 <CNT_Set>
    5130:	da c0       	rjmp	.+436    	; 0x52e6 <Loadcell_Set+0x5a0>
    5132:	e9 e7       	ldi	r30, 0x79	; 121
    5134:	f1 e4       	ldi	r31, 0x41	; 65
    5136:	8c e9       	ldi	r24, 0x9C	; 156
    5138:	83 83       	std	Z+3, r24	; 0x03
    513a:	8a ef       	ldi	r24, 0xFA	; 250
    513c:	82 83       	std	Z+2, r24	; 0x02
    513e:	9e ec       	ldi	r25, 0xCE	; 206
    5140:	91 83       	std	Z+1, r25	; 0x01
    5142:	80 83       	st	Z, r24
    5144:	a0 91 a9 41 	lds	r26, 0x41A9	; 0x8041a9 <CAPA_1000>
    5148:	b0 e0       	ldi	r27, 0x00	; 0
    514a:	ad 5b       	subi	r26, 0xBD	; 189
    514c:	be 4b       	sbci	r27, 0xBE	; 190
    514e:	8c 91       	ld	r24, X
    5150:	87 83       	std	Z+7, r24	; 0x07
    5152:	a0 91 64 51 	lds	r26, 0x5164	; 0x805164 <CAPA_100>
    5156:	b0 e0       	ldi	r27, 0x00	; 0
    5158:	ad 5b       	subi	r26, 0xBD	; 189
    515a:	be 4b       	sbci	r27, 0xBE	; 190
    515c:	8c 91       	ld	r24, X
    515e:	86 83       	std	Z+6, r24	; 0x06
    5160:	a0 91 6a 51 	lds	r26, 0x516A	; 0x80516a <CAPA_10>
    5164:	b0 e0       	ldi	r27, 0x00	; 0
    5166:	ad 5b       	subi	r26, 0xBD	; 189
    5168:	be 4b       	sbci	r27, 0xBE	; 190
    516a:	8c 91       	ld	r24, X
    516c:	85 83       	std	Z+5, r24	; 0x05
    516e:	a0 91 33 51 	lds	r26, 0x5133	; 0x805133 <CAPA_1>
    5172:	b0 e0       	ldi	r27, 0x00	; 0
    5174:	ad 5b       	subi	r26, 0xBD	; 189
    5176:	be 4b       	sbci	r27, 0xBE	; 190
    5178:	8c 91       	ld	r24, X
    517a:	84 83       	std	Z+4, r24	; 0x04
    517c:	13 86       	std	Z+11, r1	; 0x0b
    517e:	80 91 11 51 	lds	r24, 0x5111	; 0x805111 <SET+0x1>
    5182:	88 23       	and	r24, r24
    5184:	09 f4       	brne	.+2      	; 0x5188 <Loadcell_Set+0x442>
    5186:	af c0       	rjmp	.+350    	; 0x52e6 <Loadcell_Set+0x5a0>
    5188:	0e 94 4e 24 	call	0x489c	; 0x489c <CAPA_Set>
    518c:	ac c0       	rjmp	.+344    	; 0x52e6 <Loadcell_Set+0x5a0>
    518e:	e9 e7       	ldi	r30, 0x79	; 121
    5190:	f1 e4       	ldi	r31, 0x41	; 65
    5192:	13 82       	std	Z+3, r1	; 0x03
    5194:	12 82       	std	Z+2, r1	; 0x02
    5196:	8a e0       	ldi	r24, 0x0A	; 10
    5198:	81 83       	std	Z+1, r24	; 0x01
    519a:	8a e3       	ldi	r24, 0x3A	; 58
    519c:	80 83       	st	Z, r24
    519e:	a0 91 5b 51 	lds	r26, 0x515B	; 0x80515b <RO_10000>
    51a2:	b0 91 5c 51 	lds	r27, 0x515C	; 0x80515c <RO_10000+0x1>
    51a6:	ad 5b       	subi	r26, 0xBD	; 189
    51a8:	be 4b       	sbci	r27, 0xBE	; 190
    51aa:	8c 91       	ld	r24, X
    51ac:	8f 5f       	subi	r24, 0xFF	; 255
    51ae:	87 83       	std	Z+7, r24	; 0x07
    51b0:	a0 91 84 52 	lds	r26, 0x5284	; 0x805284 <RO_1000>
    51b4:	b0 91 85 52 	lds	r27, 0x5285	; 0x805285 <RO_1000+0x1>
    51b8:	ad 5b       	subi	r26, 0xBD	; 189
    51ba:	be 4b       	sbci	r27, 0xBE	; 190
    51bc:	8c 91       	ld	r24, X
    51be:	86 83       	std	Z+6, r24	; 0x06
    51c0:	a0 91 73 51 	lds	r26, 0x5173	; 0x805173 <RO_100>
    51c4:	b0 91 74 51 	lds	r27, 0x5174	; 0x805174 <RO_100+0x1>
    51c8:	ad 5b       	subi	r26, 0xBD	; 189
    51ca:	be 4b       	sbci	r27, 0xBE	; 190
    51cc:	8c 91       	ld	r24, X
    51ce:	85 83       	std	Z+5, r24	; 0x05
    51d0:	a0 91 42 51 	lds	r26, 0x5142	; 0x805142 <RO_10>
    51d4:	b0 91 43 51 	lds	r27, 0x5143	; 0x805143 <RO_10+0x1>
    51d8:	ad 5b       	subi	r26, 0xBD	; 189
    51da:	be 4b       	sbci	r27, 0xBE	; 190
    51dc:	8c 91       	ld	r24, X
    51de:	84 83       	std	Z+4, r24	; 0x04
    51e0:	a0 91 81 51 	lds	r26, 0x5181	; 0x805181 <RO_1>
    51e4:	b0 91 82 51 	lds	r27, 0x5182	; 0x805182 <RO_1+0x1>
    51e8:	ad 5b       	subi	r26, 0xBD	; 189
    51ea:	be 4b       	sbci	r27, 0xBE	; 190
    51ec:	8c 91       	ld	r24, X
    51ee:	83 87       	std	Z+11, r24	; 0x0b
    51f0:	80 91 11 51 	lds	r24, 0x5111	; 0x805111 <SET+0x1>
    51f4:	88 23       	and	r24, r24
    51f6:	09 f4       	brne	.+2      	; 0x51fa <Loadcell_Set+0x4b4>
    51f8:	76 c0       	rjmp	.+236    	; 0x52e6 <Loadcell_Set+0x5a0>
    51fa:	0e 94 62 1c 	call	0x38c4	; 0x38c4 <RO_Set>
    51fe:	73 c0       	rjmp	.+230    	; 0x52e6 <Loadcell_Set+0x5a0>
    5200:	e9 e7       	ldi	r30, 0x79	; 121
    5202:	f1 e4       	ldi	r31, 0x41	; 65
    5204:	80 e6       	ldi	r24, 0x60	; 96
    5206:	83 83       	std	Z+3, r24	; 0x03
    5208:	8c ee       	ldi	r24, 0xEC	; 236
    520a:	82 83       	std	Z+2, r24	; 0x02
    520c:	82 e0       	ldi	r24, 0x02	; 2
    520e:	81 83       	std	Z+1, r24	; 0x01
    5210:	86 eb       	ldi	r24, 0xB6	; 182
    5212:	80 83       	st	Z, r24
    5214:	a0 91 0b 51 	lds	r26, 0x510B	; 0x80510b <IN_S_10000>
    5218:	b0 e0       	ldi	r27, 0x00	; 0
    521a:	ad 5b       	subi	r26, 0xBD	; 189
    521c:	be 4b       	sbci	r27, 0xBE	; 190
    521e:	8c 91       	ld	r24, X
    5220:	87 83       	std	Z+7, r24	; 0x07
    5222:	a0 91 7d 51 	lds	r26, 0x517D	; 0x80517d <IN_S_1000>
    5226:	b0 e0       	ldi	r27, 0x00	; 0
    5228:	ad 5b       	subi	r26, 0xBD	; 189
    522a:	be 4b       	sbci	r27, 0xBE	; 190
    522c:	8c 91       	ld	r24, X
    522e:	8f 5f       	subi	r24, 0xFF	; 255
    5230:	86 83       	std	Z+6, r24	; 0x06
    5232:	a0 91 0d 51 	lds	r26, 0x510D	; 0x80510d <IN_S_100>
    5236:	b0 e0       	ldi	r27, 0x00	; 0
    5238:	ad 5b       	subi	r26, 0xBD	; 189
    523a:	be 4b       	sbci	r27, 0xBE	; 190
    523c:	8c 91       	ld	r24, X
    523e:	85 83       	std	Z+5, r24	; 0x05
    5240:	a0 91 ef 50 	lds	r26, 0x50EF	; 0x8050ef <IN_S_10>
    5244:	b0 e0       	ldi	r27, 0x00	; 0
    5246:	ad 5b       	subi	r26, 0xBD	; 189
    5248:	be 4b       	sbci	r27, 0xBE	; 190
    524a:	8c 91       	ld	r24, X
    524c:	84 83       	std	Z+4, r24	; 0x04
    524e:	a0 91 68 51 	lds	r26, 0x5168	; 0x805168 <IN_S_1>
    5252:	b0 e0       	ldi	r27, 0x00	; 0
    5254:	ad 5b       	subi	r26, 0xBD	; 189
    5256:	be 4b       	sbci	r27, 0xBE	; 190
    5258:	8c 91       	ld	r24, X
    525a:	83 87       	std	Z+11, r24	; 0x0b
    525c:	80 91 11 51 	lds	r24, 0x5111	; 0x805111 <SET+0x1>
    5260:	88 23       	and	r24, r24
    5262:	09 f4       	brne	.+2      	; 0x5266 <Loadcell_Set+0x520>
    5264:	40 c0       	rjmp	.+128    	; 0x52e6 <Loadcell_Set+0x5a0>
    5266:	0e 94 ac 1a 	call	0x3558	; 0x3558 <IN_Scales_Set>
    526a:	3d c0       	rjmp	.+122    	; 0x52e6 <Loadcell_Set+0x5a0>
    526c:	e9 e7       	ldi	r30, 0x79	; 121
    526e:	f1 e4       	ldi	r31, 0x41	; 65
    5270:	86 eb       	ldi	r24, 0xB6	; 182
    5272:	83 83       	std	Z+3, r24	; 0x03
    5274:	8a e1       	ldi	r24, 0x1A	; 26
    5276:	82 83       	std	Z+2, r24	; 0x02
    5278:	8a ef       	ldi	r24, 0xFA	; 250
    527a:	81 83       	std	Z+1, r24	; 0x01
    527c:	80 e6       	ldi	r24, 0x60	; 96
    527e:	80 83       	st	Z, r24
    5280:	a0 91 5b 51 	lds	r26, 0x515B	; 0x80515b <RO_10000>
    5284:	b0 91 5c 51 	lds	r27, 0x515C	; 0x80515c <RO_10000+0x1>
    5288:	ad 5b       	subi	r26, 0xBD	; 189
    528a:	be 4b       	sbci	r27, 0xBE	; 190
    528c:	8c 91       	ld	r24, X
    528e:	8f 5f       	subi	r24, 0xFF	; 255
    5290:	87 83       	std	Z+7, r24	; 0x07
    5292:	a0 91 84 52 	lds	r26, 0x5284	; 0x805284 <RO_1000>
    5296:	b0 91 85 52 	lds	r27, 0x5285	; 0x805285 <RO_1000+0x1>
    529a:	ad 5b       	subi	r26, 0xBD	; 189
    529c:	be 4b       	sbci	r27, 0xBE	; 190
    529e:	8c 91       	ld	r24, X
    52a0:	86 83       	std	Z+6, r24	; 0x06
    52a2:	a0 91 73 51 	lds	r26, 0x5173	; 0x805173 <RO_100>
    52a6:	b0 91 74 51 	lds	r27, 0x5174	; 0x805174 <RO_100+0x1>
    52aa:	ad 5b       	subi	r26, 0xBD	; 189
    52ac:	be 4b       	sbci	r27, 0xBE	; 190
    52ae:	8c 91       	ld	r24, X
    52b0:	85 83       	std	Z+5, r24	; 0x05
    52b2:	a0 91 42 51 	lds	r26, 0x5142	; 0x805142 <RO_10>
    52b6:	b0 91 43 51 	lds	r27, 0x5143	; 0x805143 <RO_10+0x1>
    52ba:	ad 5b       	subi	r26, 0xBD	; 189
    52bc:	be 4b       	sbci	r27, 0xBE	; 190
    52be:	8c 91       	ld	r24, X
    52c0:	84 83       	std	Z+4, r24	; 0x04
    52c2:	a0 91 81 51 	lds	r26, 0x5181	; 0x805181 <RO_1>
    52c6:	b0 91 82 51 	lds	r27, 0x5182	; 0x805182 <RO_1+0x1>
    52ca:	ad 5b       	subi	r26, 0xBD	; 189
    52cc:	be 4b       	sbci	r27, 0xBE	; 190
    52ce:	8c 91       	ld	r24, X
    52d0:	83 87       	std	Z+11, r24	; 0x0b
    52d2:	80 91 11 51 	lds	r24, 0x5111	; 0x805111 <SET+0x1>
    52d6:	88 23       	and	r24, r24
    52d8:	31 f0       	breq	.+12     	; 0x52e6 <Loadcell_Set+0x5a0>
    52da:	0e 94 96 21 	call	0x432c	; 0x432c <Interval_Set>
    52de:	03 c0       	rjmp	.+6      	; 0x52e6 <Loadcell_Set+0x5a0>
    52e0:	c1 e0       	ldi	r28, 0x01	; 1
    52e2:	01 c0       	rjmp	.+2      	; 0x52e6 <Loadcell_Set+0x5a0>
    52e4:	c6 e0       	ldi	r28, 0x06	; 6
    52e6:	0e 94 7e 0e 	call	0x1cfc	; 0x1cfc <wdt_reset>
    52ea:	80 91 10 51 	lds	r24, 0x5110	; 0x805110 <SET>
    52ee:	81 11       	cpse	r24, r1
    52f0:	98 ce       	rjmp	.-720    	; 0x5022 <Loadcell_Set+0x2dc>
    52f2:	df 91       	pop	r29
    52f4:	cf 91       	pop	r28
    52f6:	1f 91       	pop	r17
    52f8:	0f 91       	pop	r16
    52fa:	ff 90       	pop	r15
    52fc:	ef 90       	pop	r14
    52fe:	df 90       	pop	r13
    5300:	cf 90       	pop	r12
    5302:	bf 90       	pop	r11
    5304:	af 90       	pop	r10
    5306:	9f 90       	pop	r9
    5308:	8f 90       	pop	r8
    530a:	7f 90       	pop	r7
    530c:	6f 90       	pop	r6
    530e:	5f 90       	pop	r5
    5310:	4f 90       	pop	r4
    5312:	3f 90       	pop	r3
    5314:	2f 90       	pop	r2
    5316:	08 95       	ret

00005318 <protected_write_io>:
    5318:	1b be       	out	0x3b, r1	; 59
    531a:	fc 01       	movw	r30, r24
    531c:	64 bf       	out	0x34, r22	; 52
    531e:	40 83       	st	Z, r20
    5320:	08 95       	ret

00005322 <RTC_Single_Read>:
    5322:	68 2f       	mov	r22, r24
    5324:	88 e6       	ldi	r24, 0x68	; 104
    5326:	0e 94 d4 17 	call	0x2fa8	; 0x2fa8 <I2C_0_read1ByteRegister>
    532a:	98 2f       	mov	r25, r24
    532c:	92 95       	swap	r25
    532e:	9f 70       	andi	r25, 0x0F	; 15
    5330:	99 0f       	add	r25, r25
    5332:	29 2f       	mov	r18, r25
    5334:	22 0f       	add	r18, r18
    5336:	22 0f       	add	r18, r18
    5338:	92 0f       	add	r25, r18
    533a:	8f 70       	andi	r24, 0x0F	; 15
    533c:	89 0f       	add	r24, r25
    533e:	08 95       	ret

00005340 <RTC_Time_Read>:
    5340:	cf 93       	push	r28
    5342:	df 93       	push	r29
    5344:	86 e0       	ldi	r24, 0x06	; 6
    5346:	0e 94 91 29 	call	0x5322	; 0x5322 <RTC_Single_Read>
    534a:	ca e3       	ldi	r28, 0x3A	; 58
    534c:	d1 e5       	ldi	r29, 0x51	; 81
    534e:	8e 83       	std	Y+6, r24	; 0x06
    5350:	85 e0       	ldi	r24, 0x05	; 5
    5352:	0e 94 91 29 	call	0x5322	; 0x5322 <RTC_Single_Read>
    5356:	8d 83       	std	Y+5, r24	; 0x05
    5358:	84 e0       	ldi	r24, 0x04	; 4
    535a:	0e 94 91 29 	call	0x5322	; 0x5322 <RTC_Single_Read>
    535e:	8c 83       	std	Y+4, r24	; 0x04
    5360:	83 e0       	ldi	r24, 0x03	; 3
    5362:	0e 94 91 29 	call	0x5322	; 0x5322 <RTC_Single_Read>
    5366:	8b 83       	std	Y+3, r24	; 0x03
    5368:	82 e0       	ldi	r24, 0x02	; 2
    536a:	0e 94 91 29 	call	0x5322	; 0x5322 <RTC_Single_Read>
    536e:	8a 83       	std	Y+2, r24	; 0x02
    5370:	81 e0       	ldi	r24, 0x01	; 1
    5372:	0e 94 91 29 	call	0x5322	; 0x5322 <RTC_Single_Read>
    5376:	89 83       	std	Y+1, r24	; 0x01
    5378:	80 e0       	ldi	r24, 0x00	; 0
    537a:	0e 94 91 29 	call	0x5322	; 0x5322 <RTC_Single_Read>
    537e:	88 83       	st	Y, r24
    5380:	df 91       	pop	r29
    5382:	cf 91       	pop	r28
    5384:	08 95       	ret

00005386 <RTC_Single_Write>:
    5386:	9d ec       	ldi	r25, 0xCD	; 205
    5388:	69 9f       	mul	r22, r25
    538a:	91 2d       	mov	r25, r1
    538c:	11 24       	eor	r1, r1
    538e:	96 95       	lsr	r25
    5390:	96 95       	lsr	r25
    5392:	96 95       	lsr	r25
    5394:	20 e1       	ldi	r18, 0x10	; 16
    5396:	92 9f       	mul	r25, r18
    5398:	a0 01       	movw	r20, r0
    539a:	11 24       	eor	r1, r1
    539c:	99 0f       	add	r25, r25
    539e:	29 2f       	mov	r18, r25
    53a0:	22 0f       	add	r18, r18
    53a2:	22 0f       	add	r18, r18
    53a4:	92 0f       	add	r25, r18
    53a6:	69 1b       	sub	r22, r25
    53a8:	6f 70       	andi	r22, 0x0F	; 15
    53aa:	46 2b       	or	r20, r22
    53ac:	68 2f       	mov	r22, r24
    53ae:	88 e6       	ldi	r24, 0x68	; 104
    53b0:	0e 94 90 17 	call	0x2f20	; 0x2f20 <I2C_0_write1ByteRegister>
    53b4:	08 95       	ret

000053b6 <RTC_Time_Write>:
    53b6:	96 2f       	mov	r25, r22
    53b8:	48 2f       	mov	r20, r24
    53ba:	50 e0       	ldi	r21, 0x00	; 0
    53bc:	47 30       	cpi	r20, 0x07	; 7
    53be:	51 05       	cpc	r21, r1
    53c0:	18 f5       	brcc	.+70     	; 0x5408 <RTC_Time_Write+0x52>
    53c2:	fa 01       	movw	r30, r20
    53c4:	e1 57       	subi	r30, 0x71	; 113
    53c6:	fc 4f       	sbci	r31, 0xFC	; 252
    53c8:	0c 94 d1 3b 	jmp	0x77a2	; 0x77a2 <__tablejump2__>
    53cc:	9c 33       	cpi	r25, 0x3C	; 60
    53ce:	e8 f0       	brcs	.+58     	; 0x540a <RTC_Time_Write+0x54>
    53d0:	90 e0       	ldi	r25, 0x00	; 0
    53d2:	1b c0       	rjmp	.+54     	; 0x540a <RTC_Time_Write+0x54>
    53d4:	9c 33       	cpi	r25, 0x3C	; 60
    53d6:	c8 f0       	brcs	.+50     	; 0x540a <RTC_Time_Write+0x54>
    53d8:	90 e0       	ldi	r25, 0x00	; 0
    53da:	17 c0       	rjmp	.+46     	; 0x540a <RTC_Time_Write+0x54>
    53dc:	98 31       	cpi	r25, 0x18	; 24
    53de:	a8 f0       	brcs	.+42     	; 0x540a <RTC_Time_Write+0x54>
    53e0:	90 e0       	ldi	r25, 0x00	; 0
    53e2:	13 c0       	rjmp	.+38     	; 0x540a <RTC_Time_Write+0x54>
    53e4:	2f ef       	ldi	r18, 0xFF	; 255
    53e6:	29 0f       	add	r18, r25
    53e8:	27 30       	cpi	r18, 0x07	; 7
    53ea:	78 f0       	brcs	.+30     	; 0x540a <RTC_Time_Write+0x54>
    53ec:	91 e0       	ldi	r25, 0x01	; 1
    53ee:	0d c0       	rjmp	.+26     	; 0x540a <RTC_Time_Write+0x54>
    53f0:	90 32       	cpi	r25, 0x20	; 32
    53f2:	58 f0       	brcs	.+22     	; 0x540a <RTC_Time_Write+0x54>
    53f4:	91 e0       	ldi	r25, 0x01	; 1
    53f6:	09 c0       	rjmp	.+18     	; 0x540a <RTC_Time_Write+0x54>
    53f8:	9d 30       	cpi	r25, 0x0D	; 13
    53fa:	38 f0       	brcs	.+14     	; 0x540a <RTC_Time_Write+0x54>
    53fc:	91 e0       	ldi	r25, 0x01	; 1
    53fe:	05 c0       	rjmp	.+10     	; 0x540a <RTC_Time_Write+0x54>
    5400:	91 11       	cpse	r25, r1
    5402:	03 c0       	rjmp	.+6      	; 0x540a <RTC_Time_Write+0x54>
    5404:	95 e1       	ldi	r25, 0x15	; 21
    5406:	01 c0       	rjmp	.+2      	; 0x540a <RTC_Time_Write+0x54>
    5408:	90 e0       	ldi	r25, 0x00	; 0
    540a:	69 2f       	mov	r22, r25
    540c:	0e 94 c3 29 	call	0x5386	; 0x5386 <RTC_Single_Write>
    5410:	08 95       	ret

00005412 <RTC_Set>:
    5412:	cf 93       	push	r28
    5414:	df 93       	push	r29
    5416:	10 92 11 51 	sts	0x5111, r1	; 0x805111 <SET+0x1>
    541a:	4c e0       	ldi	r20, 0x0C	; 12
    541c:	62 e0       	ldi	r22, 0x02	; 2
    541e:	80 e0       	ldi	r24, 0x00	; 0
    5420:	0e 94 d2 05 	call	0xba4	; 0xba4 <FND_Value_Data>
    5424:	0e 94 a0 29 	call	0x5340	; 0x5340 <RTC_Time_Read>
    5428:	ca e3       	ldi	r28, 0x3A	; 58
    542a:	d1 e5       	ldi	r29, 0x51	; 81
    542c:	ae 81       	ldd	r26, Y+6	; 0x06
    542e:	8d ec       	ldi	r24, 0xCD	; 205
    5430:	a8 9f       	mul	r26, r24
    5432:	91 2d       	mov	r25, r1
    5434:	11 24       	eor	r1, r1
    5436:	96 95       	lsr	r25
    5438:	96 95       	lsr	r25
    543a:	96 95       	lsr	r25
    543c:	e9 2f       	mov	r30, r25
    543e:	f0 e0       	ldi	r31, 0x00	; 0
    5440:	ed 5b       	subi	r30, 0xBD	; 189
    5442:	fe 4b       	sbci	r31, 0xBE	; 190
    5444:	20 81       	ld	r18, Z
    5446:	e9 e7       	ldi	r30, 0x79	; 121
    5448:	f1 e4       	ldi	r31, 0x41	; 65
    544a:	23 83       	std	Z+3, r18	; 0x03
    544c:	99 0f       	add	r25, r25
    544e:	29 2f       	mov	r18, r25
    5450:	22 0f       	add	r18, r18
    5452:	22 0f       	add	r18, r18
    5454:	92 0f       	add	r25, r18
    5456:	a9 1b       	sub	r26, r25
    5458:	b0 e0       	ldi	r27, 0x00	; 0
    545a:	ad 5b       	subi	r26, 0xBD	; 189
    545c:	be 4b       	sbci	r27, 0xBE	; 190
    545e:	9c 91       	ld	r25, X
    5460:	92 83       	std	Z+2, r25	; 0x02
    5462:	4d 81       	ldd	r20, Y+5	; 0x05
    5464:	48 9f       	mul	r20, r24
    5466:	91 2d       	mov	r25, r1
    5468:	11 24       	eor	r1, r1
    546a:	96 95       	lsr	r25
    546c:	96 95       	lsr	r25
    546e:	96 95       	lsr	r25
    5470:	29 2f       	mov	r18, r25
    5472:	30 e0       	ldi	r19, 0x00	; 0
    5474:	2d 5b       	subi	r18, 0xBD	; 189
    5476:	3e 4b       	sbci	r19, 0xBE	; 190
    5478:	d9 01       	movw	r26, r18
    547a:	2c 91       	ld	r18, X
    547c:	21 83       	std	Z+1, r18	; 0x01
    547e:	99 0f       	add	r25, r25
    5480:	29 2f       	mov	r18, r25
    5482:	22 0f       	add	r18, r18
    5484:	22 0f       	add	r18, r18
    5486:	92 0f       	add	r25, r18
    5488:	a4 2f       	mov	r26, r20
    548a:	a9 1b       	sub	r26, r25
    548c:	b0 e0       	ldi	r27, 0x00	; 0
    548e:	ad 5b       	subi	r26, 0xBD	; 189
    5490:	be 4b       	sbci	r27, 0xBE	; 190
    5492:	9c 91       	ld	r25, X
    5494:	90 83       	st	Z, r25
    5496:	4c 81       	ldd	r20, Y+4	; 0x04
    5498:	48 9f       	mul	r20, r24
    549a:	91 2d       	mov	r25, r1
    549c:	11 24       	eor	r1, r1
    549e:	96 95       	lsr	r25
    54a0:	96 95       	lsr	r25
    54a2:	96 95       	lsr	r25
    54a4:	29 2f       	mov	r18, r25
    54a6:	30 e0       	ldi	r19, 0x00	; 0
    54a8:	2d 5b       	subi	r18, 0xBD	; 189
    54aa:	3e 4b       	sbci	r19, 0xBE	; 190
    54ac:	d9 01       	movw	r26, r18
    54ae:	2c 91       	ld	r18, X
    54b0:	27 83       	std	Z+7, r18	; 0x07
    54b2:	99 0f       	add	r25, r25
    54b4:	29 2f       	mov	r18, r25
    54b6:	22 0f       	add	r18, r18
    54b8:	22 0f       	add	r18, r18
    54ba:	92 0f       	add	r25, r18
    54bc:	a4 2f       	mov	r26, r20
    54be:	a9 1b       	sub	r26, r25
    54c0:	b0 e0       	ldi	r27, 0x00	; 0
    54c2:	ad 5b       	subi	r26, 0xBD	; 189
    54c4:	be 4b       	sbci	r27, 0xBE	; 190
    54c6:	9c 91       	ld	r25, X
    54c8:	96 83       	std	Z+6, r25	; 0x06
    54ca:	4a 81       	ldd	r20, Y+2	; 0x02
    54cc:	48 9f       	mul	r20, r24
    54ce:	91 2d       	mov	r25, r1
    54d0:	11 24       	eor	r1, r1
    54d2:	96 95       	lsr	r25
    54d4:	96 95       	lsr	r25
    54d6:	96 95       	lsr	r25
    54d8:	29 2f       	mov	r18, r25
    54da:	30 e0       	ldi	r19, 0x00	; 0
    54dc:	2d 5b       	subi	r18, 0xBD	; 189
    54de:	3e 4b       	sbci	r19, 0xBE	; 190
    54e0:	d9 01       	movw	r26, r18
    54e2:	2c 91       	ld	r18, X
    54e4:	25 83       	std	Z+5, r18	; 0x05
    54e6:	99 0f       	add	r25, r25
    54e8:	29 2f       	mov	r18, r25
    54ea:	22 0f       	add	r18, r18
    54ec:	22 0f       	add	r18, r18
    54ee:	92 0f       	add	r25, r18
    54f0:	a4 2f       	mov	r26, r20
    54f2:	a9 1b       	sub	r26, r25
    54f4:	b0 e0       	ldi	r27, 0x00	; 0
    54f6:	ad 5b       	subi	r26, 0xBD	; 189
    54f8:	be 4b       	sbci	r27, 0xBE	; 190
    54fa:	9c 91       	ld	r25, X
    54fc:	94 83       	std	Z+4, r25	; 0x04
    54fe:	49 81       	ldd	r20, Y+1	; 0x01
    5500:	48 9f       	mul	r20, r24
    5502:	91 2d       	mov	r25, r1
    5504:	11 24       	eor	r1, r1
    5506:	96 95       	lsr	r25
    5508:	96 95       	lsr	r25
    550a:	96 95       	lsr	r25
    550c:	29 2f       	mov	r18, r25
    550e:	30 e0       	ldi	r19, 0x00	; 0
    5510:	2d 5b       	subi	r18, 0xBD	; 189
    5512:	3e 4b       	sbci	r19, 0xBE	; 190
    5514:	d9 01       	movw	r26, r18
    5516:	2c 91       	ld	r18, X
    5518:	23 87       	std	Z+11, r18	; 0x0b
    551a:	99 0f       	add	r25, r25
    551c:	29 2f       	mov	r18, r25
    551e:	22 0f       	add	r18, r18
    5520:	22 0f       	add	r18, r18
    5522:	92 0f       	add	r25, r18
    5524:	a4 2f       	mov	r26, r20
    5526:	a9 1b       	sub	r26, r25
    5528:	b0 e0       	ldi	r27, 0x00	; 0
    552a:	ad 5b       	subi	r26, 0xBD	; 189
    552c:	be 4b       	sbci	r27, 0xBE	; 190
    552e:	9c 91       	ld	r25, X
    5530:	92 87       	std	Z+10, r25	; 0x0a
    5532:	a8 81       	ld	r26, Y
    5534:	a8 9f       	mul	r26, r24
    5536:	81 2d       	mov	r24, r1
    5538:	11 24       	eor	r1, r1
    553a:	86 95       	lsr	r24
    553c:	86 95       	lsr	r24
    553e:	86 95       	lsr	r24
    5540:	c8 2f       	mov	r28, r24
    5542:	d0 e0       	ldi	r29, 0x00	; 0
    5544:	cd 5b       	subi	r28, 0xBD	; 189
    5546:	de 4b       	sbci	r29, 0xBE	; 190
    5548:	98 81       	ld	r25, Y
    554a:	91 87       	std	Z+9, r25	; 0x09
    554c:	88 0f       	add	r24, r24
    554e:	98 2f       	mov	r25, r24
    5550:	99 0f       	add	r25, r25
    5552:	99 0f       	add	r25, r25
    5554:	89 0f       	add	r24, r25
    5556:	a8 1b       	sub	r26, r24
    5558:	b0 e0       	ldi	r27, 0x00	; 0
    555a:	ad 5b       	subi	r26, 0xBD	; 189
    555c:	be 4b       	sbci	r27, 0xBE	; 190
    555e:	8c 91       	ld	r24, X
    5560:	80 87       	std	Z+8, r24	; 0x08
    5562:	8a c2       	rjmp	.+1300   	; 0x5a78 <RTC_Set+0x666>
    5564:	81 e0       	ldi	r24, 0x01	; 1
    5566:	80 93 13 51 	sts	0x5113, r24	; 0x805113 <SET+0x3>
    556a:	e0 91 4f 51 	lds	r30, 0x514F	; 0x80514f <KEY>
    556e:	8e 2f       	mov	r24, r30
    5570:	90 e0       	ldi	r25, 0x00	; 0
    5572:	87 30       	cpi	r24, 0x07	; 7
    5574:	91 05       	cpc	r25, r1
    5576:	08 f0       	brcs	.+2      	; 0x557a <RTC_Set+0x168>
    5578:	7d c2       	rjmp	.+1274   	; 0x5a74 <RTC_Set+0x662>
    557a:	fc 01       	movw	r30, r24
    557c:	ea 56       	subi	r30, 0x6A	; 106
    557e:	fc 4f       	sbci	r31, 0xFC	; 252
    5580:	0c 94 d1 3b 	jmp	0x77a2	; 0x77a2 <__tablejump2__>
    5584:	e0 91 3a 51 	lds	r30, 0x513A	; 0x80513a <RTC_T>
    5588:	8d ec       	ldi	r24, 0xCD	; 205
    558a:	e8 9f       	mul	r30, r24
    558c:	81 2d       	mov	r24, r1
    558e:	11 24       	eor	r1, r1
    5590:	86 95       	lsr	r24
    5592:	86 95       	lsr	r24
    5594:	86 95       	lsr	r24
    5596:	a8 2f       	mov	r26, r24
    5598:	b0 e0       	ldi	r27, 0x00	; 0
    559a:	ad 5b       	subi	r26, 0xBD	; 189
    559c:	be 4b       	sbci	r27, 0xBE	; 190
    559e:	9c 91       	ld	r25, X
    55a0:	a9 e7       	ldi	r26, 0x79	; 121
    55a2:	b1 e4       	ldi	r27, 0x41	; 65
    55a4:	19 96       	adiw	r26, 0x09	; 9
    55a6:	9c 93       	st	X, r25
    55a8:	19 97       	sbiw	r26, 0x09	; 9
    55aa:	88 0f       	add	r24, r24
    55ac:	98 2f       	mov	r25, r24
    55ae:	99 0f       	add	r25, r25
    55b0:	99 0f       	add	r25, r25
    55b2:	89 0f       	add	r24, r25
    55b4:	e8 1b       	sub	r30, r24
    55b6:	f0 e0       	ldi	r31, 0x00	; 0
    55b8:	ed 5b       	subi	r30, 0xBD	; 189
    55ba:	fe 4b       	sbci	r31, 0xBE	; 190
    55bc:	80 81       	ld	r24, Z
    55be:	18 96       	adiw	r26, 0x08	; 8
    55c0:	8c 93       	st	X, r24
    55c2:	18 97       	sbiw	r26, 0x08	; 8
    55c4:	80 91 7b 51 	lds	r24, 0x517B	; 0x80517b <Blink>
    55c8:	88 23       	and	r24, r24
    55ca:	21 f0       	breq	.+8      	; 0x55d4 <RTC_Set+0x1c2>
    55cc:	fd 01       	movw	r30, r26
    55ce:	13 82       	std	Z+3, r1	; 0x03
    55d0:	12 82       	std	Z+2, r1	; 0x02
    55d2:	1f c0       	rjmp	.+62     	; 0x5612 <RTC_Set+0x200>
    55d4:	e0 91 40 51 	lds	r30, 0x5140	; 0x805140 <RTC_T+0x6>
    55d8:	8d ec       	ldi	r24, 0xCD	; 205
    55da:	e8 9f       	mul	r30, r24
    55dc:	81 2d       	mov	r24, r1
    55de:	11 24       	eor	r1, r1
    55e0:	86 95       	lsr	r24
    55e2:	86 95       	lsr	r24
    55e4:	86 95       	lsr	r24
    55e6:	a8 2f       	mov	r26, r24
    55e8:	b0 e0       	ldi	r27, 0x00	; 0
    55ea:	ad 5b       	subi	r26, 0xBD	; 189
    55ec:	be 4b       	sbci	r27, 0xBE	; 190
    55ee:	9c 91       	ld	r25, X
    55f0:	a9 e7       	ldi	r26, 0x79	; 121
    55f2:	b1 e4       	ldi	r27, 0x41	; 65
    55f4:	13 96       	adiw	r26, 0x03	; 3
    55f6:	9c 93       	st	X, r25
    55f8:	13 97       	sbiw	r26, 0x03	; 3
    55fa:	88 0f       	add	r24, r24
    55fc:	98 2f       	mov	r25, r24
    55fe:	99 0f       	add	r25, r25
    5600:	99 0f       	add	r25, r25
    5602:	89 0f       	add	r24, r25
    5604:	e8 1b       	sub	r30, r24
    5606:	f0 e0       	ldi	r31, 0x00	; 0
    5608:	ed 5b       	subi	r30, 0xBD	; 189
    560a:	fe 4b       	sbci	r31, 0xBE	; 190
    560c:	80 81       	ld	r24, Z
    560e:	12 96       	adiw	r26, 0x02	; 2
    5610:	8c 93       	st	X, r24
    5612:	80 91 50 51 	lds	r24, 0x5150	; 0x805150 <KEY+0x1>
    5616:	88 23       	and	r24, r24
    5618:	09 f4       	brne	.+2      	; 0x561c <RTC_Set+0x20a>
    561a:	2c c2       	rjmp	.+1112   	; 0x5a74 <RTC_Set+0x662>
    561c:	80 91 51 51 	lds	r24, 0x5151	; 0x805151 <KEY+0x2>
    5620:	81 30       	cpi	r24, 0x01	; 1
    5622:	51 f4       	brne	.+20     	; 0x5638 <RTC_Set+0x226>
    5624:	80 91 40 51 	lds	r24, 0x5140	; 0x805140 <RTC_T+0x6>
    5628:	83 36       	cpi	r24, 0x63	; 99
    562a:	30 f4       	brcc	.+12     	; 0x5638 <RTC_Set+0x226>
    562c:	8f 5f       	subi	r24, 0xFF	; 255
    562e:	80 93 40 51 	sts	0x5140, r24	; 0x805140 <RTC_T+0x6>
    5632:	10 92 51 51 	sts	0x5151, r1	; 0x805151 <KEY+0x2>
    5636:	1e c2       	rjmp	.+1084   	; 0x5a74 <RTC_Set+0x662>
    5638:	80 91 51 51 	lds	r24, 0x5151	; 0x805151 <KEY+0x2>
    563c:	83 30       	cpi	r24, 0x03	; 3
    563e:	09 f0       	breq	.+2      	; 0x5642 <RTC_Set+0x230>
    5640:	19 c2       	rjmp	.+1074   	; 0x5a74 <RTC_Set+0x662>
    5642:	80 91 40 51 	lds	r24, 0x5140	; 0x805140 <RTC_T+0x6>
    5646:	88 23       	and	r24, r24
    5648:	09 f4       	brne	.+2      	; 0x564c <RTC_Set+0x23a>
    564a:	14 c2       	rjmp	.+1064   	; 0x5a74 <RTC_Set+0x662>
    564c:	81 50       	subi	r24, 0x01	; 1
    564e:	80 93 40 51 	sts	0x5140, r24	; 0x805140 <RTC_T+0x6>
    5652:	10 92 51 51 	sts	0x5151, r1	; 0x805151 <KEY+0x2>
    5656:	0e c2       	rjmp	.+1052   	; 0x5a74 <RTC_Set+0x662>
    5658:	e0 91 40 51 	lds	r30, 0x5140	; 0x805140 <RTC_T+0x6>
    565c:	8d ec       	ldi	r24, 0xCD	; 205
    565e:	e8 9f       	mul	r30, r24
    5660:	81 2d       	mov	r24, r1
    5662:	11 24       	eor	r1, r1
    5664:	86 95       	lsr	r24
    5666:	86 95       	lsr	r24
    5668:	86 95       	lsr	r24
    566a:	a8 2f       	mov	r26, r24
    566c:	b0 e0       	ldi	r27, 0x00	; 0
    566e:	ad 5b       	subi	r26, 0xBD	; 189
    5670:	be 4b       	sbci	r27, 0xBE	; 190
    5672:	9c 91       	ld	r25, X
    5674:	a9 e7       	ldi	r26, 0x79	; 121
    5676:	b1 e4       	ldi	r27, 0x41	; 65
    5678:	13 96       	adiw	r26, 0x03	; 3
    567a:	9c 93       	st	X, r25
    567c:	13 97       	sbiw	r26, 0x03	; 3
    567e:	88 0f       	add	r24, r24
    5680:	98 2f       	mov	r25, r24
    5682:	99 0f       	add	r25, r25
    5684:	99 0f       	add	r25, r25
    5686:	89 0f       	add	r24, r25
    5688:	e8 1b       	sub	r30, r24
    568a:	f0 e0       	ldi	r31, 0x00	; 0
    568c:	ed 5b       	subi	r30, 0xBD	; 189
    568e:	fe 4b       	sbci	r31, 0xBE	; 190
    5690:	80 81       	ld	r24, Z
    5692:	12 96       	adiw	r26, 0x02	; 2
    5694:	8c 93       	st	X, r24
    5696:	12 97       	sbiw	r26, 0x02	; 2
    5698:	80 91 7b 51 	lds	r24, 0x517B	; 0x80517b <Blink>
    569c:	88 23       	and	r24, r24
    569e:	21 f0       	breq	.+8      	; 0x56a8 <RTC_Set+0x296>
    56a0:	fd 01       	movw	r30, r26
    56a2:	11 82       	std	Z+1, r1	; 0x01
    56a4:	10 82       	st	Z, r1
    56a6:	1e c0       	rjmp	.+60     	; 0x56e4 <RTC_Set+0x2d2>
    56a8:	e0 91 3f 51 	lds	r30, 0x513F	; 0x80513f <RTC_T+0x5>
    56ac:	8d ec       	ldi	r24, 0xCD	; 205
    56ae:	e8 9f       	mul	r30, r24
    56b0:	81 2d       	mov	r24, r1
    56b2:	11 24       	eor	r1, r1
    56b4:	86 95       	lsr	r24
    56b6:	86 95       	lsr	r24
    56b8:	86 95       	lsr	r24
    56ba:	a8 2f       	mov	r26, r24
    56bc:	b0 e0       	ldi	r27, 0x00	; 0
    56be:	ad 5b       	subi	r26, 0xBD	; 189
    56c0:	be 4b       	sbci	r27, 0xBE	; 190
    56c2:	9c 91       	ld	r25, X
    56c4:	a9 e7       	ldi	r26, 0x79	; 121
    56c6:	b1 e4       	ldi	r27, 0x41	; 65
    56c8:	11 96       	adiw	r26, 0x01	; 1
    56ca:	9c 93       	st	X, r25
    56cc:	11 97       	sbiw	r26, 0x01	; 1
    56ce:	88 0f       	add	r24, r24
    56d0:	98 2f       	mov	r25, r24
    56d2:	99 0f       	add	r25, r25
    56d4:	99 0f       	add	r25, r25
    56d6:	89 0f       	add	r24, r25
    56d8:	e8 1b       	sub	r30, r24
    56da:	f0 e0       	ldi	r31, 0x00	; 0
    56dc:	ed 5b       	subi	r30, 0xBD	; 189
    56de:	fe 4b       	sbci	r31, 0xBE	; 190
    56e0:	80 81       	ld	r24, Z
    56e2:	8c 93       	st	X, r24
    56e4:	80 91 50 51 	lds	r24, 0x5150	; 0x805150 <KEY+0x1>
    56e8:	88 23       	and	r24, r24
    56ea:	09 f4       	brne	.+2      	; 0x56ee <RTC_Set+0x2dc>
    56ec:	c3 c1       	rjmp	.+902    	; 0x5a74 <RTC_Set+0x662>
    56ee:	80 91 51 51 	lds	r24, 0x5151	; 0x805151 <KEY+0x2>
    56f2:	81 30       	cpi	r24, 0x01	; 1
    56f4:	51 f4       	brne	.+20     	; 0x570a <RTC_Set+0x2f8>
    56f6:	80 91 3f 51 	lds	r24, 0x513F	; 0x80513f <RTC_T+0x5>
    56fa:	8c 30       	cpi	r24, 0x0C	; 12
    56fc:	30 f4       	brcc	.+12     	; 0x570a <RTC_Set+0x2f8>
    56fe:	8f 5f       	subi	r24, 0xFF	; 255
    5700:	80 93 3f 51 	sts	0x513F, r24	; 0x80513f <RTC_T+0x5>
    5704:	10 92 51 51 	sts	0x5151, r1	; 0x805151 <KEY+0x2>
    5708:	b5 c1       	rjmp	.+874    	; 0x5a74 <RTC_Set+0x662>
    570a:	80 91 51 51 	lds	r24, 0x5151	; 0x805151 <KEY+0x2>
    570e:	83 30       	cpi	r24, 0x03	; 3
    5710:	09 f0       	breq	.+2      	; 0x5714 <RTC_Set+0x302>
    5712:	b0 c1       	rjmp	.+864    	; 0x5a74 <RTC_Set+0x662>
    5714:	80 91 3f 51 	lds	r24, 0x513F	; 0x80513f <RTC_T+0x5>
    5718:	82 30       	cpi	r24, 0x02	; 2
    571a:	08 f4       	brcc	.+2      	; 0x571e <RTC_Set+0x30c>
    571c:	ab c1       	rjmp	.+854    	; 0x5a74 <RTC_Set+0x662>
    571e:	81 50       	subi	r24, 0x01	; 1
    5720:	80 93 3f 51 	sts	0x513F, r24	; 0x80513f <RTC_T+0x5>
    5724:	10 92 51 51 	sts	0x5151, r1	; 0x805151 <KEY+0x2>
    5728:	a5 c1       	rjmp	.+842    	; 0x5a74 <RTC_Set+0x662>
    572a:	e0 91 3f 51 	lds	r30, 0x513F	; 0x80513f <RTC_T+0x5>
    572e:	8d ec       	ldi	r24, 0xCD	; 205
    5730:	e8 9f       	mul	r30, r24
    5732:	81 2d       	mov	r24, r1
    5734:	11 24       	eor	r1, r1
    5736:	86 95       	lsr	r24
    5738:	86 95       	lsr	r24
    573a:	86 95       	lsr	r24
    573c:	a8 2f       	mov	r26, r24
    573e:	b0 e0       	ldi	r27, 0x00	; 0
    5740:	ad 5b       	subi	r26, 0xBD	; 189
    5742:	be 4b       	sbci	r27, 0xBE	; 190
    5744:	9c 91       	ld	r25, X
    5746:	a9 e7       	ldi	r26, 0x79	; 121
    5748:	b1 e4       	ldi	r27, 0x41	; 65
    574a:	11 96       	adiw	r26, 0x01	; 1
    574c:	9c 93       	st	X, r25
    574e:	11 97       	sbiw	r26, 0x01	; 1
    5750:	88 0f       	add	r24, r24
    5752:	98 2f       	mov	r25, r24
    5754:	99 0f       	add	r25, r25
    5756:	99 0f       	add	r25, r25
    5758:	89 0f       	add	r24, r25
    575a:	e8 1b       	sub	r30, r24
    575c:	f0 e0       	ldi	r31, 0x00	; 0
    575e:	ed 5b       	subi	r30, 0xBD	; 189
    5760:	fe 4b       	sbci	r31, 0xBE	; 190
    5762:	80 81       	ld	r24, Z
    5764:	8c 93       	st	X, r24
    5766:	80 91 7b 51 	lds	r24, 0x517B	; 0x80517b <Blink>
    576a:	88 23       	and	r24, r24
    576c:	21 f0       	breq	.+8      	; 0x5776 <RTC_Set+0x364>
    576e:	fd 01       	movw	r30, r26
    5770:	17 82       	std	Z+7, r1	; 0x07
    5772:	16 82       	std	Z+6, r1	; 0x06
    5774:	1f c0       	rjmp	.+62     	; 0x57b4 <RTC_Set+0x3a2>
    5776:	e0 91 3e 51 	lds	r30, 0x513E	; 0x80513e <RTC_T+0x4>
    577a:	8d ec       	ldi	r24, 0xCD	; 205
    577c:	e8 9f       	mul	r30, r24
    577e:	81 2d       	mov	r24, r1
    5780:	11 24       	eor	r1, r1
    5782:	86 95       	lsr	r24
    5784:	86 95       	lsr	r24
    5786:	86 95       	lsr	r24
    5788:	a8 2f       	mov	r26, r24
    578a:	b0 e0       	ldi	r27, 0x00	; 0
    578c:	ad 5b       	subi	r26, 0xBD	; 189
    578e:	be 4b       	sbci	r27, 0xBE	; 190
    5790:	9c 91       	ld	r25, X
    5792:	a9 e7       	ldi	r26, 0x79	; 121
    5794:	b1 e4       	ldi	r27, 0x41	; 65
    5796:	17 96       	adiw	r26, 0x07	; 7
    5798:	9c 93       	st	X, r25
    579a:	17 97       	sbiw	r26, 0x07	; 7
    579c:	88 0f       	add	r24, r24
    579e:	98 2f       	mov	r25, r24
    57a0:	99 0f       	add	r25, r25
    57a2:	99 0f       	add	r25, r25
    57a4:	89 0f       	add	r24, r25
    57a6:	e8 1b       	sub	r30, r24
    57a8:	f0 e0       	ldi	r31, 0x00	; 0
    57aa:	ed 5b       	subi	r30, 0xBD	; 189
    57ac:	fe 4b       	sbci	r31, 0xBE	; 190
    57ae:	80 81       	ld	r24, Z
    57b0:	16 96       	adiw	r26, 0x06	; 6
    57b2:	8c 93       	st	X, r24
    57b4:	80 91 50 51 	lds	r24, 0x5150	; 0x805150 <KEY+0x1>
    57b8:	88 23       	and	r24, r24
    57ba:	09 f4       	brne	.+2      	; 0x57be <RTC_Set+0x3ac>
    57bc:	5b c1       	rjmp	.+694    	; 0x5a74 <RTC_Set+0x662>
    57be:	80 91 51 51 	lds	r24, 0x5151	; 0x805151 <KEY+0x2>
    57c2:	81 30       	cpi	r24, 0x01	; 1
    57c4:	51 f4       	brne	.+20     	; 0x57da <RTC_Set+0x3c8>
    57c6:	80 91 3e 51 	lds	r24, 0x513E	; 0x80513e <RTC_T+0x4>
    57ca:	8f 31       	cpi	r24, 0x1F	; 31
    57cc:	30 f4       	brcc	.+12     	; 0x57da <RTC_Set+0x3c8>
    57ce:	8f 5f       	subi	r24, 0xFF	; 255
    57d0:	80 93 3e 51 	sts	0x513E, r24	; 0x80513e <RTC_T+0x4>
    57d4:	10 92 51 51 	sts	0x5151, r1	; 0x805151 <KEY+0x2>
    57d8:	4d c1       	rjmp	.+666    	; 0x5a74 <RTC_Set+0x662>
    57da:	80 91 51 51 	lds	r24, 0x5151	; 0x805151 <KEY+0x2>
    57de:	83 30       	cpi	r24, 0x03	; 3
    57e0:	09 f0       	breq	.+2      	; 0x57e4 <RTC_Set+0x3d2>
    57e2:	48 c1       	rjmp	.+656    	; 0x5a74 <RTC_Set+0x662>
    57e4:	80 91 3e 51 	lds	r24, 0x513E	; 0x80513e <RTC_T+0x4>
    57e8:	82 30       	cpi	r24, 0x02	; 2
    57ea:	08 f4       	brcc	.+2      	; 0x57ee <RTC_Set+0x3dc>
    57ec:	43 c1       	rjmp	.+646    	; 0x5a74 <RTC_Set+0x662>
    57ee:	81 50       	subi	r24, 0x01	; 1
    57f0:	80 93 3e 51 	sts	0x513E, r24	; 0x80513e <RTC_T+0x4>
    57f4:	10 92 51 51 	sts	0x5151, r1	; 0x805151 <KEY+0x2>
    57f8:	3d c1       	rjmp	.+634    	; 0x5a74 <RTC_Set+0x662>
    57fa:	e0 91 3e 51 	lds	r30, 0x513E	; 0x80513e <RTC_T+0x4>
    57fe:	8d ec       	ldi	r24, 0xCD	; 205
    5800:	e8 9f       	mul	r30, r24
    5802:	81 2d       	mov	r24, r1
    5804:	11 24       	eor	r1, r1
    5806:	86 95       	lsr	r24
    5808:	86 95       	lsr	r24
    580a:	86 95       	lsr	r24
    580c:	a8 2f       	mov	r26, r24
    580e:	b0 e0       	ldi	r27, 0x00	; 0
    5810:	ad 5b       	subi	r26, 0xBD	; 189
    5812:	be 4b       	sbci	r27, 0xBE	; 190
    5814:	9c 91       	ld	r25, X
    5816:	a9 e7       	ldi	r26, 0x79	; 121
    5818:	b1 e4       	ldi	r27, 0x41	; 65
    581a:	17 96       	adiw	r26, 0x07	; 7
    581c:	9c 93       	st	X, r25
    581e:	17 97       	sbiw	r26, 0x07	; 7
    5820:	88 0f       	add	r24, r24
    5822:	98 2f       	mov	r25, r24
    5824:	99 0f       	add	r25, r25
    5826:	99 0f       	add	r25, r25
    5828:	89 0f       	add	r24, r25
    582a:	e8 1b       	sub	r30, r24
    582c:	f0 e0       	ldi	r31, 0x00	; 0
    582e:	ed 5b       	subi	r30, 0xBD	; 189
    5830:	fe 4b       	sbci	r31, 0xBE	; 190
    5832:	80 81       	ld	r24, Z
    5834:	16 96       	adiw	r26, 0x06	; 6
    5836:	8c 93       	st	X, r24
    5838:	16 97       	sbiw	r26, 0x06	; 6
    583a:	80 91 7b 51 	lds	r24, 0x517B	; 0x80517b <Blink>
    583e:	88 23       	and	r24, r24
    5840:	21 f0       	breq	.+8      	; 0x584a <RTC_Set+0x438>
    5842:	fd 01       	movw	r30, r26
    5844:	15 82       	std	Z+5, r1	; 0x05
    5846:	14 82       	std	Z+4, r1	; 0x04
    5848:	1f c0       	rjmp	.+62     	; 0x5888 <RTC_Set+0x476>
    584a:	e0 91 3c 51 	lds	r30, 0x513C	; 0x80513c <RTC_T+0x2>
    584e:	8d ec       	ldi	r24, 0xCD	; 205
    5850:	e8 9f       	mul	r30, r24
    5852:	81 2d       	mov	r24, r1
    5854:	11 24       	eor	r1, r1
    5856:	86 95       	lsr	r24
    5858:	86 95       	lsr	r24
    585a:	86 95       	lsr	r24
    585c:	a8 2f       	mov	r26, r24
    585e:	b0 e0       	ldi	r27, 0x00	; 0
    5860:	ad 5b       	subi	r26, 0xBD	; 189
    5862:	be 4b       	sbci	r27, 0xBE	; 190
    5864:	9c 91       	ld	r25, X
    5866:	a9 e7       	ldi	r26, 0x79	; 121
    5868:	b1 e4       	ldi	r27, 0x41	; 65
    586a:	15 96       	adiw	r26, 0x05	; 5
    586c:	9c 93       	st	X, r25
    586e:	15 97       	sbiw	r26, 0x05	; 5
    5870:	88 0f       	add	r24, r24
    5872:	98 2f       	mov	r25, r24
    5874:	99 0f       	add	r25, r25
    5876:	99 0f       	add	r25, r25
    5878:	89 0f       	add	r24, r25
    587a:	e8 1b       	sub	r30, r24
    587c:	f0 e0       	ldi	r31, 0x00	; 0
    587e:	ed 5b       	subi	r30, 0xBD	; 189
    5880:	fe 4b       	sbci	r31, 0xBE	; 190
    5882:	80 81       	ld	r24, Z
    5884:	14 96       	adiw	r26, 0x04	; 4
    5886:	8c 93       	st	X, r24
    5888:	80 91 50 51 	lds	r24, 0x5150	; 0x805150 <KEY+0x1>
    588c:	88 23       	and	r24, r24
    588e:	09 f4       	brne	.+2      	; 0x5892 <RTC_Set+0x480>
    5890:	f1 c0       	rjmp	.+482    	; 0x5a74 <RTC_Set+0x662>
    5892:	80 91 51 51 	lds	r24, 0x5151	; 0x805151 <KEY+0x2>
    5896:	81 30       	cpi	r24, 0x01	; 1
    5898:	51 f4       	brne	.+20     	; 0x58ae <RTC_Set+0x49c>
    589a:	80 91 3c 51 	lds	r24, 0x513C	; 0x80513c <RTC_T+0x2>
    589e:	87 31       	cpi	r24, 0x17	; 23
    58a0:	30 f4       	brcc	.+12     	; 0x58ae <RTC_Set+0x49c>
    58a2:	8f 5f       	subi	r24, 0xFF	; 255
    58a4:	80 93 3c 51 	sts	0x513C, r24	; 0x80513c <RTC_T+0x2>
    58a8:	10 92 51 51 	sts	0x5151, r1	; 0x805151 <KEY+0x2>
    58ac:	e3 c0       	rjmp	.+454    	; 0x5a74 <RTC_Set+0x662>
    58ae:	80 91 51 51 	lds	r24, 0x5151	; 0x805151 <KEY+0x2>
    58b2:	83 30       	cpi	r24, 0x03	; 3
    58b4:	09 f0       	breq	.+2      	; 0x58b8 <RTC_Set+0x4a6>
    58b6:	de c0       	rjmp	.+444    	; 0x5a74 <RTC_Set+0x662>
    58b8:	80 91 3c 51 	lds	r24, 0x513C	; 0x80513c <RTC_T+0x2>
    58bc:	88 23       	and	r24, r24
    58be:	09 f4       	brne	.+2      	; 0x58c2 <RTC_Set+0x4b0>
    58c0:	d9 c0       	rjmp	.+434    	; 0x5a74 <RTC_Set+0x662>
    58c2:	81 50       	subi	r24, 0x01	; 1
    58c4:	80 93 3c 51 	sts	0x513C, r24	; 0x80513c <RTC_T+0x2>
    58c8:	10 92 51 51 	sts	0x5151, r1	; 0x805151 <KEY+0x2>
    58cc:	d3 c0       	rjmp	.+422    	; 0x5a74 <RTC_Set+0x662>
    58ce:	e0 91 3c 51 	lds	r30, 0x513C	; 0x80513c <RTC_T+0x2>
    58d2:	8d ec       	ldi	r24, 0xCD	; 205
    58d4:	e8 9f       	mul	r30, r24
    58d6:	81 2d       	mov	r24, r1
    58d8:	11 24       	eor	r1, r1
    58da:	86 95       	lsr	r24
    58dc:	86 95       	lsr	r24
    58de:	86 95       	lsr	r24
    58e0:	a8 2f       	mov	r26, r24
    58e2:	b0 e0       	ldi	r27, 0x00	; 0
    58e4:	ad 5b       	subi	r26, 0xBD	; 189
    58e6:	be 4b       	sbci	r27, 0xBE	; 190
    58e8:	9c 91       	ld	r25, X
    58ea:	a9 e7       	ldi	r26, 0x79	; 121
    58ec:	b1 e4       	ldi	r27, 0x41	; 65
    58ee:	15 96       	adiw	r26, 0x05	; 5
    58f0:	9c 93       	st	X, r25
    58f2:	15 97       	sbiw	r26, 0x05	; 5
    58f4:	88 0f       	add	r24, r24
    58f6:	98 2f       	mov	r25, r24
    58f8:	99 0f       	add	r25, r25
    58fa:	99 0f       	add	r25, r25
    58fc:	89 0f       	add	r24, r25
    58fe:	e8 1b       	sub	r30, r24
    5900:	f0 e0       	ldi	r31, 0x00	; 0
    5902:	ed 5b       	subi	r30, 0xBD	; 189
    5904:	fe 4b       	sbci	r31, 0xBE	; 190
    5906:	80 81       	ld	r24, Z
    5908:	14 96       	adiw	r26, 0x04	; 4
    590a:	8c 93       	st	X, r24
    590c:	14 97       	sbiw	r26, 0x04	; 4
    590e:	80 91 7b 51 	lds	r24, 0x517B	; 0x80517b <Blink>
    5912:	88 23       	and	r24, r24
    5914:	21 f0       	breq	.+8      	; 0x591e <RTC_Set+0x50c>
    5916:	fd 01       	movw	r30, r26
    5918:	13 86       	std	Z+11, r1	; 0x0b
    591a:	12 86       	std	Z+10, r1	; 0x0a
    591c:	1f c0       	rjmp	.+62     	; 0x595c <RTC_Set+0x54a>
    591e:	e0 91 3b 51 	lds	r30, 0x513B	; 0x80513b <RTC_T+0x1>
    5922:	8d ec       	ldi	r24, 0xCD	; 205
    5924:	e8 9f       	mul	r30, r24
    5926:	81 2d       	mov	r24, r1
    5928:	11 24       	eor	r1, r1
    592a:	86 95       	lsr	r24
    592c:	86 95       	lsr	r24
    592e:	86 95       	lsr	r24
    5930:	a8 2f       	mov	r26, r24
    5932:	b0 e0       	ldi	r27, 0x00	; 0
    5934:	ad 5b       	subi	r26, 0xBD	; 189
    5936:	be 4b       	sbci	r27, 0xBE	; 190
    5938:	9c 91       	ld	r25, X
    593a:	a9 e7       	ldi	r26, 0x79	; 121
    593c:	b1 e4       	ldi	r27, 0x41	; 65
    593e:	1b 96       	adiw	r26, 0x0b	; 11
    5940:	9c 93       	st	X, r25
    5942:	1b 97       	sbiw	r26, 0x0b	; 11
    5944:	88 0f       	add	r24, r24
    5946:	98 2f       	mov	r25, r24
    5948:	99 0f       	add	r25, r25
    594a:	99 0f       	add	r25, r25
    594c:	89 0f       	add	r24, r25
    594e:	e8 1b       	sub	r30, r24
    5950:	f0 e0       	ldi	r31, 0x00	; 0
    5952:	ed 5b       	subi	r30, 0xBD	; 189
    5954:	fe 4b       	sbci	r31, 0xBE	; 190
    5956:	80 81       	ld	r24, Z
    5958:	1a 96       	adiw	r26, 0x0a	; 10
    595a:	8c 93       	st	X, r24
    595c:	80 91 50 51 	lds	r24, 0x5150	; 0x805150 <KEY+0x1>
    5960:	88 23       	and	r24, r24
    5962:	09 f4       	brne	.+2      	; 0x5966 <RTC_Set+0x554>
    5964:	87 c0       	rjmp	.+270    	; 0x5a74 <RTC_Set+0x662>
    5966:	80 91 51 51 	lds	r24, 0x5151	; 0x805151 <KEY+0x2>
    596a:	81 30       	cpi	r24, 0x01	; 1
    596c:	51 f4       	brne	.+20     	; 0x5982 <RTC_Set+0x570>
    596e:	80 91 3b 51 	lds	r24, 0x513B	; 0x80513b <RTC_T+0x1>
    5972:	8b 33       	cpi	r24, 0x3B	; 59
    5974:	30 f4       	brcc	.+12     	; 0x5982 <RTC_Set+0x570>
    5976:	8f 5f       	subi	r24, 0xFF	; 255
    5978:	80 93 3b 51 	sts	0x513B, r24	; 0x80513b <RTC_T+0x1>
    597c:	10 92 51 51 	sts	0x5151, r1	; 0x805151 <KEY+0x2>
    5980:	79 c0       	rjmp	.+242    	; 0x5a74 <RTC_Set+0x662>
    5982:	80 91 51 51 	lds	r24, 0x5151	; 0x805151 <KEY+0x2>
    5986:	83 30       	cpi	r24, 0x03	; 3
    5988:	09 f0       	breq	.+2      	; 0x598c <RTC_Set+0x57a>
    598a:	74 c0       	rjmp	.+232    	; 0x5a74 <RTC_Set+0x662>
    598c:	80 91 3b 51 	lds	r24, 0x513B	; 0x80513b <RTC_T+0x1>
    5990:	88 23       	and	r24, r24
    5992:	09 f4       	brne	.+2      	; 0x5996 <RTC_Set+0x584>
    5994:	6f c0       	rjmp	.+222    	; 0x5a74 <RTC_Set+0x662>
    5996:	81 50       	subi	r24, 0x01	; 1
    5998:	80 93 3b 51 	sts	0x513B, r24	; 0x80513b <RTC_T+0x1>
    599c:	10 92 51 51 	sts	0x5151, r1	; 0x805151 <KEY+0x2>
    59a0:	69 c0       	rjmp	.+210    	; 0x5a74 <RTC_Set+0x662>
    59a2:	e0 91 3b 51 	lds	r30, 0x513B	; 0x80513b <RTC_T+0x1>
    59a6:	8d ec       	ldi	r24, 0xCD	; 205
    59a8:	e8 9f       	mul	r30, r24
    59aa:	81 2d       	mov	r24, r1
    59ac:	11 24       	eor	r1, r1
    59ae:	86 95       	lsr	r24
    59b0:	86 95       	lsr	r24
    59b2:	86 95       	lsr	r24
    59b4:	a8 2f       	mov	r26, r24
    59b6:	b0 e0       	ldi	r27, 0x00	; 0
    59b8:	ad 5b       	subi	r26, 0xBD	; 189
    59ba:	be 4b       	sbci	r27, 0xBE	; 190
    59bc:	9c 91       	ld	r25, X
    59be:	a9 e7       	ldi	r26, 0x79	; 121
    59c0:	b1 e4       	ldi	r27, 0x41	; 65
    59c2:	1b 96       	adiw	r26, 0x0b	; 11
    59c4:	9c 93       	st	X, r25
    59c6:	1b 97       	sbiw	r26, 0x0b	; 11
    59c8:	88 0f       	add	r24, r24
    59ca:	98 2f       	mov	r25, r24
    59cc:	99 0f       	add	r25, r25
    59ce:	99 0f       	add	r25, r25
    59d0:	89 0f       	add	r24, r25
    59d2:	e8 1b       	sub	r30, r24
    59d4:	f0 e0       	ldi	r31, 0x00	; 0
    59d6:	ed 5b       	subi	r30, 0xBD	; 189
    59d8:	fe 4b       	sbci	r31, 0xBE	; 190
    59da:	80 81       	ld	r24, Z
    59dc:	1a 96       	adiw	r26, 0x0a	; 10
    59de:	8c 93       	st	X, r24
    59e0:	1a 97       	sbiw	r26, 0x0a	; 10
    59e2:	80 91 7b 51 	lds	r24, 0x517B	; 0x80517b <Blink>
    59e6:	88 23       	and	r24, r24
    59e8:	21 f0       	breq	.+8      	; 0x59f2 <RTC_Set+0x5e0>
    59ea:	fd 01       	movw	r30, r26
    59ec:	11 86       	std	Z+9, r1	; 0x09
    59ee:	10 86       	std	Z+8, r1	; 0x08
    59f0:	1f c0       	rjmp	.+62     	; 0x5a30 <RTC_Set+0x61e>
    59f2:	e0 91 3a 51 	lds	r30, 0x513A	; 0x80513a <RTC_T>
    59f6:	8d ec       	ldi	r24, 0xCD	; 205
    59f8:	e8 9f       	mul	r30, r24
    59fa:	81 2d       	mov	r24, r1
    59fc:	11 24       	eor	r1, r1
    59fe:	86 95       	lsr	r24
    5a00:	86 95       	lsr	r24
    5a02:	86 95       	lsr	r24
    5a04:	a8 2f       	mov	r26, r24
    5a06:	b0 e0       	ldi	r27, 0x00	; 0
    5a08:	ad 5b       	subi	r26, 0xBD	; 189
    5a0a:	be 4b       	sbci	r27, 0xBE	; 190
    5a0c:	9c 91       	ld	r25, X
    5a0e:	a9 e7       	ldi	r26, 0x79	; 121
    5a10:	b1 e4       	ldi	r27, 0x41	; 65
    5a12:	19 96       	adiw	r26, 0x09	; 9
    5a14:	9c 93       	st	X, r25
    5a16:	19 97       	sbiw	r26, 0x09	; 9
    5a18:	88 0f       	add	r24, r24
    5a1a:	98 2f       	mov	r25, r24
    5a1c:	99 0f       	add	r25, r25
    5a1e:	99 0f       	add	r25, r25
    5a20:	89 0f       	add	r24, r25
    5a22:	e8 1b       	sub	r30, r24
    5a24:	f0 e0       	ldi	r31, 0x00	; 0
    5a26:	ed 5b       	subi	r30, 0xBD	; 189
    5a28:	fe 4b       	sbci	r31, 0xBE	; 190
    5a2a:	80 81       	ld	r24, Z
    5a2c:	18 96       	adiw	r26, 0x08	; 8
    5a2e:	8c 93       	st	X, r24
    5a30:	80 91 50 51 	lds	r24, 0x5150	; 0x805150 <KEY+0x1>
    5a34:	88 23       	and	r24, r24
    5a36:	f1 f0       	breq	.+60     	; 0x5a74 <RTC_Set+0x662>
    5a38:	80 91 51 51 	lds	r24, 0x5151	; 0x805151 <KEY+0x2>
    5a3c:	81 30       	cpi	r24, 0x01	; 1
    5a3e:	51 f4       	brne	.+20     	; 0x5a54 <RTC_Set+0x642>
    5a40:	80 91 3a 51 	lds	r24, 0x513A	; 0x80513a <RTC_T>
    5a44:	8b 33       	cpi	r24, 0x3B	; 59
    5a46:	30 f4       	brcc	.+12     	; 0x5a54 <RTC_Set+0x642>
    5a48:	8f 5f       	subi	r24, 0xFF	; 255
    5a4a:	80 93 3a 51 	sts	0x513A, r24	; 0x80513a <RTC_T>
    5a4e:	10 92 51 51 	sts	0x5151, r1	; 0x805151 <KEY+0x2>
    5a52:	10 c0       	rjmp	.+32     	; 0x5a74 <RTC_Set+0x662>
    5a54:	80 91 51 51 	lds	r24, 0x5151	; 0x805151 <KEY+0x2>
    5a58:	83 30       	cpi	r24, 0x03	; 3
    5a5a:	61 f4       	brne	.+24     	; 0x5a74 <RTC_Set+0x662>
    5a5c:	80 91 3a 51 	lds	r24, 0x513A	; 0x80513a <RTC_T>
    5a60:	88 23       	and	r24, r24
    5a62:	41 f0       	breq	.+16     	; 0x5a74 <RTC_Set+0x662>
    5a64:	81 50       	subi	r24, 0x01	; 1
    5a66:	80 93 3a 51 	sts	0x513A, r24	; 0x80513a <RTC_T>
    5a6a:	10 92 51 51 	sts	0x5151, r1	; 0x805151 <KEY+0x2>
    5a6e:	02 c0       	rjmp	.+4      	; 0x5a74 <RTC_Set+0x662>
    5a70:	10 92 4f 51 	sts	0x514F, r1	; 0x80514f <KEY>
    5a74:	0e 94 7e 0e 	call	0x1cfc	; 0x1cfc <wdt_reset>
    5a78:	80 91 10 51 	lds	r24, 0x5110	; 0x805110 <SET>
    5a7c:	81 11       	cpse	r24, r1
    5a7e:	72 cd       	rjmp	.-1308   	; 0x5564 <RTC_Set+0x152>
    5a80:	ca e3       	ldi	r28, 0x3A	; 58
    5a82:	d1 e5       	ldi	r29, 0x51	; 81
    5a84:	6e 81       	ldd	r22, Y+6	; 0x06
    5a86:	86 e0       	ldi	r24, 0x06	; 6
    5a88:	0e 94 db 29 	call	0x53b6	; 0x53b6 <RTC_Time_Write>
    5a8c:	6d 81       	ldd	r22, Y+5	; 0x05
    5a8e:	85 e0       	ldi	r24, 0x05	; 5
    5a90:	0e 94 db 29 	call	0x53b6	; 0x53b6 <RTC_Time_Write>
    5a94:	6c 81       	ldd	r22, Y+4	; 0x04
    5a96:	84 e0       	ldi	r24, 0x04	; 4
    5a98:	0e 94 db 29 	call	0x53b6	; 0x53b6 <RTC_Time_Write>
    5a9c:	6a 81       	ldd	r22, Y+2	; 0x02
    5a9e:	82 e0       	ldi	r24, 0x02	; 2
    5aa0:	0e 94 db 29 	call	0x53b6	; 0x53b6 <RTC_Time_Write>
    5aa4:	69 81       	ldd	r22, Y+1	; 0x01
    5aa6:	81 e0       	ldi	r24, 0x01	; 1
    5aa8:	0e 94 db 29 	call	0x53b6	; 0x53b6 <RTC_Time_Write>
    5aac:	68 81       	ld	r22, Y
    5aae:	80 e0       	ldi	r24, 0x00	; 0
    5ab0:	0e 94 db 29 	call	0x53b6	; 0x53b6 <RTC_Time_Write>
    5ab4:	df 91       	pop	r29
    5ab6:	cf 91       	pop	r28
    5ab8:	08 95       	ret

00005aba <SLPCTRL_init>:
    5aba:	80 e0       	ldi	r24, 0x00	; 0
    5abc:	08 95       	ret

00005abe <TIMER_1_init>:
    5abe:	e0 e4       	ldi	r30, 0x40	; 64
    5ac0:	fa e0       	ldi	r31, 0x0A	; 10
    5ac2:	81 e0       	ldi	r24, 0x01	; 1
    5ac4:	82 87       	std	Z+10, r24	; 0x0a
    5ac6:	87 e4       	ldi	r24, 0x47	; 71
    5ac8:	90 e0       	ldi	r25, 0x00	; 0
    5aca:	86 a3       	std	Z+38, r24	; 0x26
    5acc:	97 a3       	std	Z+39, r25	; 0x27
    5ace:	8f e0       	ldi	r24, 0x0F	; 15
    5ad0:	80 83       	st	Z, r24
    5ad2:	80 e0       	ldi	r24, 0x00	; 0
    5ad4:	08 95       	ret

00005ad6 <USART_1_init>:
    5ad6:	e0 e2       	ldi	r30, 0x20	; 32
    5ad8:	f8 e0       	ldi	r31, 0x08	; 8
    5ada:	80 e0       	ldi	r24, 0x00	; 0
    5adc:	98 e1       	ldi	r25, 0x18	; 24
    5ade:	80 87       	std	Z+8, r24	; 0x08
    5ae0:	91 87       	std	Z+9, r25	; 0x09
    5ae2:	84 e9       	ldi	r24, 0x94	; 148
    5ae4:	85 83       	std	Z+5, r24	; 0x05
    5ae6:	80 ec       	ldi	r24, 0xC0	; 192
    5ae8:	86 83       	std	Z+6, r24	; 0x06
    5aea:	80 e0       	ldi	r24, 0x00	; 0
    5aec:	08 95       	ret

00005aee <USART1_Write>:
    5aee:	90 91 24 08 	lds	r25, 0x0824	; 0x800824 <__TEXT_REGION_LENGTH__+0x7e0824>
    5af2:	95 ff       	sbrs	r25, 5
    5af4:	fc cf       	rjmp	.-8      	; 0x5aee <USART1_Write>
    5af6:	80 93 22 08 	sts	0x0822, r24	; 0x800822 <__TEXT_REGION_LENGTH__+0x7e0822>
    5afa:	81 e0       	ldi	r24, 0x01	; 1
    5afc:	90 e0       	ldi	r25, 0x00	; 0
    5afe:	08 95       	ret

00005b00 <USART_3_init>:
    5b00:	e0 e6       	ldi	r30, 0x60	; 96
    5b02:	f8 e0       	ldi	r31, 0x08	; 8
    5b04:	80 e0       	ldi	r24, 0x00	; 0
    5b06:	98 e1       	ldi	r25, 0x18	; 24
    5b08:	80 87       	std	Z+8, r24	; 0x08
    5b0a:	91 87       	std	Z+9, r25	; 0x09
    5b0c:	84 e9       	ldi	r24, 0x94	; 148
    5b0e:	85 83       	std	Z+5, r24	; 0x05
    5b10:	80 ec       	ldi	r24, 0xC0	; 192
    5b12:	86 83       	std	Z+6, r24	; 0x06
    5b14:	80 e0       	ldi	r24, 0x00	; 0
    5b16:	08 95       	ret

00005b18 <USART3_Write>:
    5b18:	90 91 64 08 	lds	r25, 0x0864	; 0x800864 <__TEXT_REGION_LENGTH__+0x7e0864>
    5b1c:	95 ff       	sbrs	r25, 5
    5b1e:	fc cf       	rjmp	.-8      	; 0x5b18 <USART3_Write>
    5b20:	80 93 62 08 	sts	0x0862, r24	; 0x800862 <__TEXT_REGION_LENGTH__+0x7e0862>
    5b24:	81 e0       	ldi	r24, 0x01	; 1
    5b26:	90 e0       	ldi	r25, 0x00	; 0
    5b28:	08 95       	ret

00005b2a <USART3_SendString>:
    5b2a:	0f 93       	push	r16
    5b2c:	1f 93       	push	r17
    5b2e:	cf 93       	push	r28
    5b30:	df 93       	push	r29
    5b32:	8c 01       	movw	r16, r24
    5b34:	c0 e0       	ldi	r28, 0x00	; 0
    5b36:	d0 e0       	ldi	r29, 0x00	; 0
    5b38:	07 c0       	rjmp	.+14     	; 0x5b48 <USART3_SendString+0x1e>
    5b3a:	f8 01       	movw	r30, r16
    5b3c:	ec 0f       	add	r30, r28
    5b3e:	fd 1f       	adc	r31, r29
    5b40:	80 81       	ld	r24, Z
    5b42:	0e 94 8c 2d 	call	0x5b18	; 0x5b18 <USART3_Write>
    5b46:	21 96       	adiw	r28, 0x01	; 1
    5b48:	f8 01       	movw	r30, r16
    5b4a:	01 90       	ld	r0, Z+
    5b4c:	00 20       	and	r0, r0
    5b4e:	e9 f7       	brne	.-6      	; 0x5b4a <USART3_SendString+0x20>
    5b50:	31 97       	sbiw	r30, 0x01	; 1
    5b52:	e0 1b       	sub	r30, r16
    5b54:	f1 0b       	sbc	r31, r17
    5b56:	ce 17       	cp	r28, r30
    5b58:	df 07       	cpc	r29, r31
    5b5a:	78 f3       	brcs	.-34     	; 0x5b3a <USART3_SendString+0x10>
    5b5c:	df 91       	pop	r29
    5b5e:	cf 91       	pop	r28
    5b60:	1f 91       	pop	r17
    5b62:	0f 91       	pop	r16
    5b64:	08 95       	ret

00005b66 <Rx3_Buff_Clear>:
    5b66:	8a ef       	ldi	r24, 0xFA	; 250
    5b68:	ea e8       	ldi	r30, 0x8A	; 138
    5b6a:	f1 e5       	ldi	r31, 0x51	; 81
    5b6c:	df 01       	movw	r26, r30
    5b6e:	1d 92       	st	X+, r1
    5b70:	8a 95       	dec	r24
    5b72:	e9 f7       	brne	.-6      	; 0x5b6e <Rx3_Buff_Clear+0x8>
    5b74:	10 92 72 51 	sts	0x5172, r1	; 0x805172 <Rx3_Cnt>
    5b78:	08 95       	ret

00005b7a <WDT_init>:
    5b7a:	4a e0       	ldi	r20, 0x0A	; 10
    5b7c:	68 ed       	ldi	r22, 0xD8	; 216
    5b7e:	80 e0       	ldi	r24, 0x00	; 0
    5b80:	91 e0       	ldi	r25, 0x01	; 1
    5b82:	0e 94 8c 29 	call	0x5318	; 0x5318 <protected_write_io>
    5b86:	80 e0       	ldi	r24, 0x00	; 0
    5b88:	08 95       	ret

00005b8a <ZigBee_Write_id>:
    5b8a:	cf 93       	push	r28
    5b8c:	c0 e0       	ldi	r28, 0x00	; 0
    5b8e:	c1 30       	cpi	r28, 0x01	; 1
    5b90:	a1 f0       	breq	.+40     	; 0x5bba <ZigBee_Write_id+0x30>
    5b92:	28 f0       	brcs	.+10     	; 0x5b9e <ZigBee_Write_id+0x14>
    5b94:	c2 30       	cpi	r28, 0x02	; 2
    5b96:	69 f1       	breq	.+90     	; 0x5bf2 <ZigBee_Write_id+0x68>
    5b98:	c3 30       	cpi	r28, 0x03	; 3
    5b9a:	81 f1       	breq	.+96     	; 0x5bfc <ZigBee_Write_id+0x72>
    5b9c:	33 c0       	rjmp	.+102    	; 0x5c04 <ZigBee_Write_id+0x7a>
    5b9e:	80 e5       	ldi	r24, 0x50	; 80
    5ba0:	91 e4       	ldi	r25, 0x41	; 65
    5ba2:	0e 94 95 2d 	call	0x5b2a	; 0x5b2a <USART3_SendString>
    5ba6:	2f ef       	ldi	r18, 0xFF	; 255
    5ba8:	8f ef       	ldi	r24, 0xFF	; 255
    5baa:	9c e2       	ldi	r25, 0x2C	; 44
    5bac:	21 50       	subi	r18, 0x01	; 1
    5bae:	80 40       	sbci	r24, 0x00	; 0
    5bb0:	90 40       	sbci	r25, 0x00	; 0
    5bb2:	e1 f7       	brne	.-8      	; 0x5bac <ZigBee_Write_id+0x22>
    5bb4:	00 c0       	rjmp	.+0      	; 0x5bb6 <ZigBee_Write_id+0x2c>
    5bb6:	00 00       	nop
    5bb8:	25 c0       	rjmp	.+74     	; 0x5c04 <ZigBee_Write_id+0x7a>
    5bba:	84 e5       	ldi	r24, 0x54	; 84
    5bbc:	91 e4       	ldi	r25, 0x41	; 65
    5bbe:	0e 94 95 2d 	call	0x5b2a	; 0x5b2a <USART3_SendString>
    5bc2:	80 91 4c 51 	lds	r24, 0x514C	; 0x80514c <Pan_id_1000>
    5bc6:	80 5d       	subi	r24, 0xD0	; 208
    5bc8:	0e 94 8c 2d 	call	0x5b18	; 0x5b18 <USART3_Write>
    5bcc:	80 91 ab 41 	lds	r24, 0x41AB	; 0x8041ab <Pan_id_100>
    5bd0:	80 5d       	subi	r24, 0xD0	; 208
    5bd2:	0e 94 8c 2d 	call	0x5b18	; 0x5b18 <USART3_Write>
    5bd6:	80 91 0e 51 	lds	r24, 0x510E	; 0x80510e <Pan_id_10>
    5bda:	80 5d       	subi	r24, 0xD0	; 208
    5bdc:	0e 94 8c 2d 	call	0x5b18	; 0x5b18 <USART3_Write>
    5be0:	80 91 ed 50 	lds	r24, 0x50ED	; 0x8050ed <Pan_id_1>
    5be4:	80 5d       	subi	r24, 0xD0	; 208
    5be6:	0e 94 8c 2d 	call	0x5b18	; 0x5b18 <USART3_Write>
    5bea:	8d e0       	ldi	r24, 0x0D	; 13
    5bec:	0e 94 8c 2d 	call	0x5b18	; 0x5b18 <USART3_Write>
    5bf0:	09 c0       	rjmp	.+18     	; 0x5c04 <ZigBee_Write_id+0x7a>
    5bf2:	89 e5       	ldi	r24, 0x59	; 89
    5bf4:	91 e4       	ldi	r25, 0x41	; 65
    5bf6:	0e 94 95 2d 	call	0x5b2a	; 0x5b2a <USART3_SendString>
    5bfa:	04 c0       	rjmp	.+8      	; 0x5c04 <ZigBee_Write_id+0x7a>
    5bfc:	8f e5       	ldi	r24, 0x5F	; 95
    5bfe:	91 e4       	ldi	r25, 0x41	; 65
    5c00:	0e 94 95 2d 	call	0x5b2a	; 0x5b2a <USART3_SendString>
    5c04:	80 e0       	ldi	r24, 0x00	; 0
    5c06:	9d c0       	rjmp	.+314    	; 0x5d42 <ZigBee_Write_id+0x1b8>
    5c08:	c1 11       	cpse	r28, r1
    5c0a:	25 c0       	rjmp	.+74     	; 0x5c56 <ZigBee_Write_id+0xcc>
    5c0c:	28 2f       	mov	r18, r24
    5c0e:	30 e0       	ldi	r19, 0x00	; 0
    5c10:	f9 01       	movw	r30, r18
    5c12:	e6 57       	subi	r30, 0x76	; 118
    5c14:	fe 4a       	sbci	r31, 0xAE	; 174
    5c16:	90 81       	ld	r25, Z
    5c18:	9f 34       	cpi	r25, 0x4F	; 79
    5c1a:	e9 f4       	brne	.+58     	; 0x5c56 <ZigBee_Write_id+0xcc>
    5c1c:	f9 01       	movw	r30, r18
    5c1e:	e5 57       	subi	r30, 0x75	; 117
    5c20:	fe 4a       	sbci	r31, 0xAE	; 174
    5c22:	90 81       	ld	r25, Z
    5c24:	9b 34       	cpi	r25, 0x4B	; 75
    5c26:	b9 f4       	brne	.+46     	; 0x5c56 <ZigBee_Write_id+0xcc>
    5c28:	f9 01       	movw	r30, r18
    5c2a:	e4 57       	subi	r30, 0x74	; 116
    5c2c:	fe 4a       	sbci	r31, 0xAE	; 174
    5c2e:	90 81       	ld	r25, Z
    5c30:	9d 30       	cpi	r25, 0x0D	; 13
    5c32:	89 f4       	brne	.+34     	; 0x5c56 <ZigBee_Write_id+0xcc>
    5c34:	83 e0       	ldi	r24, 0x03	; 3
    5c36:	90 e0       	ldi	r25, 0x00	; 0
    5c38:	0e 94 42 04 	call	0x884	; 0x884 <Beep>
    5c3c:	2f ef       	ldi	r18, 0xFF	; 255
    5c3e:	8f e3       	ldi	r24, 0x3F	; 63
    5c40:	92 e0       	ldi	r25, 0x02	; 2
    5c42:	21 50       	subi	r18, 0x01	; 1
    5c44:	80 40       	sbci	r24, 0x00	; 0
    5c46:	90 40       	sbci	r25, 0x00	; 0
    5c48:	e1 f7       	brne	.-8      	; 0x5c42 <ZigBee_Write_id+0xb8>
    5c4a:	00 c0       	rjmp	.+0      	; 0x5c4c <ZigBee_Write_id+0xc2>
    5c4c:	00 00       	nop
    5c4e:	0e 94 b3 2d 	call	0x5b66	; 0x5b66 <Rx3_Buff_Clear>
    5c52:	c1 e0       	ldi	r28, 0x01	; 1
    5c54:	79 c0       	rjmp	.+242    	; 0x5d48 <ZigBee_Write_id+0x1be>
    5c56:	c1 30       	cpi	r28, 0x01	; 1
    5c58:	29 f5       	brne	.+74     	; 0x5ca4 <ZigBee_Write_id+0x11a>
    5c5a:	28 2f       	mov	r18, r24
    5c5c:	30 e0       	ldi	r19, 0x00	; 0
    5c5e:	f9 01       	movw	r30, r18
    5c60:	e6 57       	subi	r30, 0x76	; 118
    5c62:	fe 4a       	sbci	r31, 0xAE	; 174
    5c64:	90 81       	ld	r25, Z
    5c66:	9f 34       	cpi	r25, 0x4F	; 79
    5c68:	e9 f4       	brne	.+58     	; 0x5ca4 <ZigBee_Write_id+0x11a>
    5c6a:	f9 01       	movw	r30, r18
    5c6c:	e5 57       	subi	r30, 0x75	; 117
    5c6e:	fe 4a       	sbci	r31, 0xAE	; 174
    5c70:	90 81       	ld	r25, Z
    5c72:	9b 34       	cpi	r25, 0x4B	; 75
    5c74:	b9 f4       	brne	.+46     	; 0x5ca4 <ZigBee_Write_id+0x11a>
    5c76:	f9 01       	movw	r30, r18
    5c78:	e4 57       	subi	r30, 0x74	; 116
    5c7a:	fe 4a       	sbci	r31, 0xAE	; 174
    5c7c:	90 81       	ld	r25, Z
    5c7e:	9d 30       	cpi	r25, 0x0D	; 13
    5c80:	89 f4       	brne	.+34     	; 0x5ca4 <ZigBee_Write_id+0x11a>
    5c82:	83 e0       	ldi	r24, 0x03	; 3
    5c84:	90 e0       	ldi	r25, 0x00	; 0
    5c86:	0e 94 42 04 	call	0x884	; 0x884 <Beep>
    5c8a:	2f ef       	ldi	r18, 0xFF	; 255
    5c8c:	8f e3       	ldi	r24, 0x3F	; 63
    5c8e:	92 e0       	ldi	r25, 0x02	; 2
    5c90:	21 50       	subi	r18, 0x01	; 1
    5c92:	80 40       	sbci	r24, 0x00	; 0
    5c94:	90 40       	sbci	r25, 0x00	; 0
    5c96:	e1 f7       	brne	.-8      	; 0x5c90 <ZigBee_Write_id+0x106>
    5c98:	00 c0       	rjmp	.+0      	; 0x5c9a <ZigBee_Write_id+0x110>
    5c9a:	00 00       	nop
    5c9c:	0e 94 b3 2d 	call	0x5b66	; 0x5b66 <Rx3_Buff_Clear>
    5ca0:	c2 e0       	ldi	r28, 0x02	; 2
    5ca2:	52 c0       	rjmp	.+164    	; 0x5d48 <ZigBee_Write_id+0x1be>
    5ca4:	c2 30       	cpi	r28, 0x02	; 2
    5ca6:	29 f5       	brne	.+74     	; 0x5cf2 <ZigBee_Write_id+0x168>
    5ca8:	28 2f       	mov	r18, r24
    5caa:	30 e0       	ldi	r19, 0x00	; 0
    5cac:	f9 01       	movw	r30, r18
    5cae:	e6 57       	subi	r30, 0x76	; 118
    5cb0:	fe 4a       	sbci	r31, 0xAE	; 174
    5cb2:	90 81       	ld	r25, Z
    5cb4:	9f 34       	cpi	r25, 0x4F	; 79
    5cb6:	e9 f4       	brne	.+58     	; 0x5cf2 <ZigBee_Write_id+0x168>
    5cb8:	f9 01       	movw	r30, r18
    5cba:	e5 57       	subi	r30, 0x75	; 117
    5cbc:	fe 4a       	sbci	r31, 0xAE	; 174
    5cbe:	90 81       	ld	r25, Z
    5cc0:	9b 34       	cpi	r25, 0x4B	; 75
    5cc2:	b9 f4       	brne	.+46     	; 0x5cf2 <ZigBee_Write_id+0x168>
    5cc4:	f9 01       	movw	r30, r18
    5cc6:	e4 57       	subi	r30, 0x74	; 116
    5cc8:	fe 4a       	sbci	r31, 0xAE	; 174
    5cca:	90 81       	ld	r25, Z
    5ccc:	9d 30       	cpi	r25, 0x0D	; 13
    5cce:	89 f4       	brne	.+34     	; 0x5cf2 <ZigBee_Write_id+0x168>
    5cd0:	83 e0       	ldi	r24, 0x03	; 3
    5cd2:	90 e0       	ldi	r25, 0x00	; 0
    5cd4:	0e 94 42 04 	call	0x884	; 0x884 <Beep>
    5cd8:	2f ef       	ldi	r18, 0xFF	; 255
    5cda:	8f e3       	ldi	r24, 0x3F	; 63
    5cdc:	92 e0       	ldi	r25, 0x02	; 2
    5cde:	21 50       	subi	r18, 0x01	; 1
    5ce0:	80 40       	sbci	r24, 0x00	; 0
    5ce2:	90 40       	sbci	r25, 0x00	; 0
    5ce4:	e1 f7       	brne	.-8      	; 0x5cde <ZigBee_Write_id+0x154>
    5ce6:	00 c0       	rjmp	.+0      	; 0x5ce8 <ZigBee_Write_id+0x15e>
    5ce8:	00 00       	nop
    5cea:	0e 94 b3 2d 	call	0x5b66	; 0x5b66 <Rx3_Buff_Clear>
    5cee:	c3 e0       	ldi	r28, 0x03	; 3
    5cf0:	2b c0       	rjmp	.+86     	; 0x5d48 <ZigBee_Write_id+0x1be>
    5cf2:	c3 30       	cpi	r28, 0x03	; 3
    5cf4:	29 f5       	brne	.+74     	; 0x5d40 <ZigBee_Write_id+0x1b6>
    5cf6:	28 2f       	mov	r18, r24
    5cf8:	30 e0       	ldi	r19, 0x00	; 0
    5cfa:	f9 01       	movw	r30, r18
    5cfc:	e6 57       	subi	r30, 0x76	; 118
    5cfe:	fe 4a       	sbci	r31, 0xAE	; 174
    5d00:	90 81       	ld	r25, Z
    5d02:	9f 34       	cpi	r25, 0x4F	; 79
    5d04:	e9 f4       	brne	.+58     	; 0x5d40 <ZigBee_Write_id+0x1b6>
    5d06:	f9 01       	movw	r30, r18
    5d08:	e5 57       	subi	r30, 0x75	; 117
    5d0a:	fe 4a       	sbci	r31, 0xAE	; 174
    5d0c:	90 81       	ld	r25, Z
    5d0e:	9b 34       	cpi	r25, 0x4B	; 75
    5d10:	b9 f4       	brne	.+46     	; 0x5d40 <ZigBee_Write_id+0x1b6>
    5d12:	f9 01       	movw	r30, r18
    5d14:	e4 57       	subi	r30, 0x74	; 116
    5d16:	fe 4a       	sbci	r31, 0xAE	; 174
    5d18:	90 81       	ld	r25, Z
    5d1a:	9d 30       	cpi	r25, 0x0D	; 13
    5d1c:	89 f4       	brne	.+34     	; 0x5d40 <ZigBee_Write_id+0x1b6>
    5d1e:	83 e0       	ldi	r24, 0x03	; 3
    5d20:	90 e0       	ldi	r25, 0x00	; 0
    5d22:	0e 94 42 04 	call	0x884	; 0x884 <Beep>
    5d26:	2f ef       	ldi	r18, 0xFF	; 255
    5d28:	8f e3       	ldi	r24, 0x3F	; 63
    5d2a:	92 e0       	ldi	r25, 0x02	; 2
    5d2c:	21 50       	subi	r18, 0x01	; 1
    5d2e:	80 40       	sbci	r24, 0x00	; 0
    5d30:	90 40       	sbci	r25, 0x00	; 0
    5d32:	e1 f7       	brne	.-8      	; 0x5d2c <ZigBee_Write_id+0x1a2>
    5d34:	00 c0       	rjmp	.+0      	; 0x5d36 <ZigBee_Write_id+0x1ac>
    5d36:	00 00       	nop
    5d38:	0e 94 b3 2d 	call	0x5b66	; 0x5b66 <Rx3_Buff_Clear>
    5d3c:	c5 e0       	ldi	r28, 0x05	; 5
    5d3e:	04 c0       	rjmp	.+8      	; 0x5d48 <ZigBee_Write_id+0x1be>
    5d40:	8f 5f       	subi	r24, 0xFF	; 255
    5d42:	8a 3f       	cpi	r24, 0xFA	; 250
    5d44:	08 f4       	brcc	.+2      	; 0x5d48 <ZigBee_Write_id+0x1be>
    5d46:	60 cf       	rjmp	.-320    	; 0x5c08 <ZigBee_Write_id+0x7e>
    5d48:	0e 94 7e 0e 	call	0x1cfc	; 0x1cfc <wdt_reset>
    5d4c:	c5 30       	cpi	r28, 0x05	; 5
    5d4e:	09 f0       	breq	.+2      	; 0x5d52 <ZigBee_Write_id+0x1c8>
    5d50:	1e cf       	rjmp	.-452    	; 0x5b8e <ZigBee_Write_id+0x4>
    5d52:	cf 91       	pop	r28
    5d54:	08 95       	ret

00005d56 <ZigBee_PanID_Write>:
    5d56:	6f 92       	push	r6
    5d58:	7f 92       	push	r7
    5d5a:	8f 92       	push	r8
    5d5c:	9f 92       	push	r9
    5d5e:	bf 92       	push	r11
    5d60:	cf 92       	push	r12
    5d62:	df 92       	push	r13
    5d64:	ef 92       	push	r14
    5d66:	ff 92       	push	r15
    5d68:	0f 93       	push	r16
    5d6a:	1f 93       	push	r17
    5d6c:	cf 93       	push	r28
    5d6e:	df 93       	push	r29
    5d70:	4c e0       	ldi	r20, 0x0C	; 12
    5d72:	62 e0       	ldi	r22, 0x02	; 2
    5d74:	81 e0       	ldi	r24, 0x01	; 1
    5d76:	0e 94 d2 05 	call	0xba4	; 0xba4 <FND_Value_Data>
    5d7a:	80 90 65 51 	lds	r8, 0x5165	; 0x805165 <ZB_id>
    5d7e:	90 90 66 51 	lds	r9, 0x5166	; 0x805166 <ZB_id+0x1>
    5d82:	94 01       	movw	r18, r8
    5d84:	32 95       	swap	r19
    5d86:	22 95       	swap	r18
    5d88:	2f 70       	andi	r18, 0x0F	; 15
    5d8a:	23 27       	eor	r18, r19
    5d8c:	3f 70       	andi	r19, 0x0F	; 15
    5d8e:	23 27       	eor	r18, r19
    5d90:	a7 e4       	ldi	r26, 0x47	; 71
    5d92:	b3 e0       	ldi	r27, 0x03	; 3
    5d94:	0e 94 da 3b 	call	0x77b4	; 0x77b4 <__umulhisi3>
    5d98:	6c 01       	movw	r12, r24
    5d9a:	d6 94       	lsr	r13
    5d9c:	c7 94       	ror	r12
    5d9e:	d6 94       	lsr	r13
    5da0:	c7 94       	ror	r12
    5da2:	d6 94       	lsr	r13
    5da4:	c7 94       	ror	r12
    5da6:	dc 2d       	mov	r29, r12
    5da8:	20 e1       	ldi	r18, 0x10	; 16
    5daa:	37 e2       	ldi	r19, 0x27	; 39
    5dac:	c2 9e       	mul	r12, r18
    5dae:	c0 01       	movw	r24, r0
    5db0:	c3 9e       	mul	r12, r19
    5db2:	90 0d       	add	r25, r0
    5db4:	d2 9e       	mul	r13, r18
    5db6:	90 0d       	add	r25, r0
    5db8:	11 24       	eor	r1, r1
    5dba:	94 01       	movw	r18, r8
    5dbc:	28 1b       	sub	r18, r24
    5dbe:	39 0b       	sbc	r19, r25
    5dc0:	36 95       	lsr	r19
    5dc2:	27 95       	ror	r18
    5dc4:	36 95       	lsr	r19
    5dc6:	27 95       	ror	r18
    5dc8:	36 95       	lsr	r19
    5dca:	27 95       	ror	r18
    5dcc:	a5 ec       	ldi	r26, 0xC5	; 197
    5dce:	b0 e2       	ldi	r27, 0x20	; 32
    5dd0:	0e 94 da 3b 	call	0x77b4	; 0x77b4 <__umulhisi3>
    5dd4:	7c 01       	movw	r14, r24
    5dd6:	f6 94       	lsr	r15
    5dd8:	e7 94       	ror	r14
    5dda:	f6 94       	lsr	r15
    5ddc:	e7 94       	ror	r14
    5dde:	f6 94       	lsr	r15
    5de0:	e7 94       	ror	r14
    5de2:	f6 94       	lsr	r15
    5de4:	e7 94       	ror	r14
    5de6:	be 2c       	mov	r11, r14
    5de8:	94 01       	movw	r18, r8
    5dea:	36 95       	lsr	r19
    5dec:	27 95       	ror	r18
    5dee:	36 95       	lsr	r19
    5df0:	27 95       	ror	r18
    5df2:	36 95       	lsr	r19
    5df4:	27 95       	ror	r18
    5df6:	0e 94 da 3b 	call	0x77b4	; 0x77b4 <__umulhisi3>
    5dfa:	92 95       	swap	r25
    5dfc:	82 95       	swap	r24
    5dfe:	8f 70       	andi	r24, 0x0F	; 15
    5e00:	89 27       	eor	r24, r25
    5e02:	9f 70       	andi	r25, 0x0F	; 15
    5e04:	89 27       	eor	r24, r25
    5e06:	48 ee       	ldi	r20, 0xE8	; 232
    5e08:	53 e0       	ldi	r21, 0x03	; 3
    5e0a:	84 9f       	mul	r24, r20
    5e0c:	90 01       	movw	r18, r0
    5e0e:	85 9f       	mul	r24, r21
    5e10:	30 0d       	add	r19, r0
    5e12:	94 9f       	mul	r25, r20
    5e14:	30 0d       	add	r19, r0
    5e16:	11 24       	eor	r1, r1
    5e18:	c4 01       	movw	r24, r8
    5e1a:	82 1b       	sub	r24, r18
    5e1c:	93 0b       	sbc	r25, r19
    5e1e:	9c 01       	movw	r18, r24
    5e20:	36 95       	lsr	r19
    5e22:	27 95       	ror	r18
    5e24:	36 95       	lsr	r19
    5e26:	27 95       	ror	r18
    5e28:	ab e7       	ldi	r26, 0x7B	; 123
    5e2a:	b4 e1       	ldi	r27, 0x14	; 20
    5e2c:	0e 94 da 3b 	call	0x77b4	; 0x77b4 <__umulhisi3>
    5e30:	3c 01       	movw	r6, r24
    5e32:	76 94       	lsr	r7
    5e34:	67 94       	ror	r6
    5e36:	06 2d       	mov	r16, r6
    5e38:	94 01       	movw	r18, r8
    5e3a:	36 95       	lsr	r19
    5e3c:	27 95       	ror	r18
    5e3e:	36 95       	lsr	r19
    5e40:	27 95       	ror	r18
    5e42:	0e 94 da 3b 	call	0x77b4	; 0x77b4 <__umulhisi3>
    5e46:	9c 01       	movw	r18, r24
    5e48:	36 95       	lsr	r19
    5e4a:	27 95       	ror	r18
    5e4c:	44 e6       	ldi	r20, 0x64	; 100
    5e4e:	42 9f       	mul	r20, r18
    5e50:	c0 01       	movw	r24, r0
    5e52:	43 9f       	mul	r20, r19
    5e54:	90 0d       	add	r25, r0
    5e56:	11 24       	eor	r1, r1
    5e58:	94 01       	movw	r18, r8
    5e5a:	28 1b       	sub	r18, r24
    5e5c:	39 0b       	sbc	r19, r25
    5e5e:	ad ec       	ldi	r26, 0xCD	; 205
    5e60:	bc ec       	ldi	r27, 0xCC	; 204
    5e62:	0e 94 da 3b 	call	0x77b4	; 0x77b4 <__umulhisi3>
    5e66:	ac 01       	movw	r20, r24
    5e68:	56 95       	lsr	r21
    5e6a:	47 95       	ror	r20
    5e6c:	56 95       	lsr	r21
    5e6e:	47 95       	ror	r20
    5e70:	56 95       	lsr	r21
    5e72:	47 95       	ror	r20
    5e74:	c4 2f       	mov	r28, r20
    5e76:	94 01       	movw	r18, r8
    5e78:	0e 94 da 3b 	call	0x77b4	; 0x77b4 <__umulhisi3>
    5e7c:	96 95       	lsr	r25
    5e7e:	87 95       	ror	r24
    5e80:	96 95       	lsr	r25
    5e82:	87 95       	ror	r24
    5e84:	96 95       	lsr	r25
    5e86:	87 95       	ror	r24
    5e88:	9c 01       	movw	r18, r24
    5e8a:	22 0f       	add	r18, r18
    5e8c:	33 1f       	adc	r19, r19
    5e8e:	88 0f       	add	r24, r24
    5e90:	99 1f       	adc	r25, r25
    5e92:	88 0f       	add	r24, r24
    5e94:	99 1f       	adc	r25, r25
    5e96:	88 0f       	add	r24, r24
    5e98:	99 1f       	adc	r25, r25
    5e9a:	82 0f       	add	r24, r18
    5e9c:	93 1f       	adc	r25, r19
    5e9e:	94 01       	movw	r18, r8
    5ea0:	28 1b       	sub	r18, r24
    5ea2:	39 0b       	sbc	r19, r25
    5ea4:	c9 01       	movw	r24, r18
    5ea6:	12 2f       	mov	r17, r18
    5ea8:	d6 01       	movw	r26, r12
    5eaa:	ad 5b       	subi	r26, 0xBD	; 189
    5eac:	be 4b       	sbci	r27, 0xBE	; 190
    5eae:	2c 91       	ld	r18, X
    5eb0:	a9 e7       	ldi	r26, 0x79	; 121
    5eb2:	b1 e4       	ldi	r27, 0x41	; 65
    5eb4:	17 96       	adiw	r26, 0x07	; 7
    5eb6:	2c 93       	st	X, r18
    5eb8:	17 97       	sbiw	r26, 0x07	; 7
    5eba:	97 01       	movw	r18, r14
    5ebc:	33 27       	eor	r19, r19
    5ebe:	2d 5b       	subi	r18, 0xBD	; 189
    5ec0:	3e 4b       	sbci	r19, 0xBE	; 190
    5ec2:	f9 01       	movw	r30, r18
    5ec4:	20 81       	ld	r18, Z
    5ec6:	16 96       	adiw	r26, 0x06	; 6
    5ec8:	2c 93       	st	X, r18
    5eca:	16 97       	sbiw	r26, 0x06	; 6
    5ecc:	f3 01       	movw	r30, r6
    5ece:	ff 27       	eor	r31, r31
    5ed0:	ed 5b       	subi	r30, 0xBD	; 189
    5ed2:	fe 4b       	sbci	r31, 0xBE	; 190
    5ed4:	20 81       	ld	r18, Z
    5ed6:	15 96       	adiw	r26, 0x05	; 5
    5ed8:	2c 93       	st	X, r18
    5eda:	15 97       	sbiw	r26, 0x05	; 5
    5edc:	55 27       	eor	r21, r21
    5ede:	fa 01       	movw	r30, r20
    5ee0:	ed 5b       	subi	r30, 0xBD	; 189
    5ee2:	fe 4b       	sbci	r31, 0xBE	; 190
    5ee4:	20 81       	ld	r18, Z
    5ee6:	14 96       	adiw	r26, 0x04	; 4
    5ee8:	2c 93       	st	X, r18
    5eea:	14 97       	sbiw	r26, 0x04	; 4
    5eec:	99 27       	eor	r25, r25
    5eee:	fc 01       	movw	r30, r24
    5ef0:	ed 5b       	subi	r30, 0xBD	; 189
    5ef2:	fe 4b       	sbci	r31, 0xBE	; 190
    5ef4:	80 81       	ld	r24, Z
    5ef6:	1b 96       	adiw	r26, 0x0b	; 11
    5ef8:	8c 93       	st	X, r24
    5efa:	77 c1       	rjmp	.+750    	; 0x61ea <ZigBee_PanID_Write+0x494>
    5efc:	81 e0       	ldi	r24, 0x01	; 1
    5efe:	80 93 13 51 	sts	0x5113, r24	; 0x805113 <SET+0x3>
    5f02:	80 91 4f 51 	lds	r24, 0x514F	; 0x80514f <KEY>
    5f06:	82 30       	cpi	r24, 0x02	; 2
    5f08:	09 f4       	brne	.+2      	; 0x5f0c <ZigBee_PanID_Write+0x1b6>
    5f0a:	89 c0       	rjmp	.+274    	; 0x601e <ZigBee_PanID_Write+0x2c8>
    5f0c:	28 f4       	brcc	.+10     	; 0x5f18 <ZigBee_PanID_Write+0x1c2>
    5f0e:	88 23       	and	r24, r24
    5f10:	61 f0       	breq	.+24     	; 0x5f2a <ZigBee_PanID_Write+0x1d4>
    5f12:	81 30       	cpi	r24, 0x01	; 1
    5f14:	d1 f1       	breq	.+116    	; 0x5f8a <ZigBee_PanID_Write+0x234>
    5f16:	67 c1       	rjmp	.+718    	; 0x61e6 <ZigBee_PanID_Write+0x490>
    5f18:	84 30       	cpi	r24, 0x04	; 4
    5f1a:	09 f4       	brne	.+2      	; 0x5f1e <ZigBee_PanID_Write+0x1c8>
    5f1c:	18 c1       	rjmp	.+560    	; 0x614e <ZigBee_PanID_Write+0x3f8>
    5f1e:	08 f4       	brcc	.+2      	; 0x5f22 <ZigBee_PanID_Write+0x1cc>
    5f20:	c9 c0       	rjmp	.+402    	; 0x60b4 <ZigBee_PanID_Write+0x35e>
    5f22:	85 30       	cpi	r24, 0x05	; 5
    5f24:	09 f4       	brne	.+2      	; 0x5f28 <ZigBee_PanID_Write+0x1d2>
    5f26:	5d c1       	rjmp	.+698    	; 0x61e2 <ZigBee_PanID_Write+0x48c>
    5f28:	5e c1       	rjmp	.+700    	; 0x61e6 <ZigBee_PanID_Write+0x490>
    5f2a:	e1 2f       	mov	r30, r17
    5f2c:	f0 e0       	ldi	r31, 0x00	; 0
    5f2e:	ed 5b       	subi	r30, 0xBD	; 189
    5f30:	fe 4b       	sbci	r31, 0xBE	; 190
    5f32:	80 81       	ld	r24, Z
    5f34:	80 93 84 41 	sts	0x4184, r24	; 0x804184 <DIGIT+0xb>
    5f38:	80 91 7b 51 	lds	r24, 0x517B	; 0x80517b <Blink>
    5f3c:	88 23       	and	r24, r24
    5f3e:	19 f0       	breq	.+6      	; 0x5f46 <ZigBee_PanID_Write+0x1f0>
    5f40:	10 92 80 41 	sts	0x4180, r1	; 0x804180 <DIGIT+0x7>
    5f44:	07 c0       	rjmp	.+14     	; 0x5f54 <ZigBee_PanID_Write+0x1fe>
    5f46:	ed 2f       	mov	r30, r29
    5f48:	f0 e0       	ldi	r31, 0x00	; 0
    5f4a:	ed 5b       	subi	r30, 0xBD	; 189
    5f4c:	fe 4b       	sbci	r31, 0xBE	; 190
    5f4e:	80 81       	ld	r24, Z
    5f50:	80 93 80 41 	sts	0x4180, r24	; 0x804180 <DIGIT+0x7>
    5f54:	80 91 50 51 	lds	r24, 0x5150	; 0x805150 <KEY+0x1>
    5f58:	88 23       	and	r24, r24
    5f5a:	09 f4       	brne	.+2      	; 0x5f5e <ZigBee_PanID_Write+0x208>
    5f5c:	44 c1       	rjmp	.+648    	; 0x61e6 <ZigBee_PanID_Write+0x490>
    5f5e:	80 91 51 51 	lds	r24, 0x5151	; 0x805151 <KEY+0x2>
    5f62:	81 30       	cpi	r24, 0x01	; 1
    5f64:	31 f4       	brne	.+12     	; 0x5f72 <ZigBee_PanID_Write+0x21c>
    5f66:	d6 30       	cpi	r29, 0x06	; 6
    5f68:	20 f4       	brcc	.+8      	; 0x5f72 <ZigBee_PanID_Write+0x21c>
    5f6a:	df 5f       	subi	r29, 0xFF	; 255
    5f6c:	10 92 51 51 	sts	0x5151, r1	; 0x805151 <KEY+0x2>
    5f70:	3a c1       	rjmp	.+628    	; 0x61e6 <ZigBee_PanID_Write+0x490>
    5f72:	80 91 51 51 	lds	r24, 0x5151	; 0x805151 <KEY+0x2>
    5f76:	83 30       	cpi	r24, 0x03	; 3
    5f78:	09 f0       	breq	.+2      	; 0x5f7c <ZigBee_PanID_Write+0x226>
    5f7a:	35 c1       	rjmp	.+618    	; 0x61e6 <ZigBee_PanID_Write+0x490>
    5f7c:	dd 23       	and	r29, r29
    5f7e:	09 f4       	brne	.+2      	; 0x5f82 <ZigBee_PanID_Write+0x22c>
    5f80:	32 c1       	rjmp	.+612    	; 0x61e6 <ZigBee_PanID_Write+0x490>
    5f82:	d1 50       	subi	r29, 0x01	; 1
    5f84:	10 92 51 51 	sts	0x5151, r1	; 0x805151 <KEY+0x2>
    5f88:	2e c1       	rjmp	.+604    	; 0x61e6 <ZigBee_PanID_Write+0x490>
    5f8a:	ed 2f       	mov	r30, r29
    5f8c:	f0 e0       	ldi	r31, 0x00	; 0
    5f8e:	ed 5b       	subi	r30, 0xBD	; 189
    5f90:	fe 4b       	sbci	r31, 0xBE	; 190
    5f92:	80 81       	ld	r24, Z
    5f94:	80 93 80 41 	sts	0x4180, r24	; 0x804180 <DIGIT+0x7>
    5f98:	80 91 7b 51 	lds	r24, 0x517B	; 0x80517b <Blink>
    5f9c:	88 23       	and	r24, r24
    5f9e:	19 f0       	breq	.+6      	; 0x5fa6 <ZigBee_PanID_Write+0x250>
    5fa0:	10 92 7f 41 	sts	0x417F, r1	; 0x80417f <DIGIT+0x6>
    5fa4:	07 c0       	rjmp	.+14     	; 0x5fb4 <ZigBee_PanID_Write+0x25e>
    5fa6:	eb 2d       	mov	r30, r11
    5fa8:	f0 e0       	ldi	r31, 0x00	; 0
    5faa:	ed 5b       	subi	r30, 0xBD	; 189
    5fac:	fe 4b       	sbci	r31, 0xBE	; 190
    5fae:	80 81       	ld	r24, Z
    5fb0:	80 93 7f 41 	sts	0x417F, r24	; 0x80417f <DIGIT+0x6>
    5fb4:	80 91 50 51 	lds	r24, 0x5150	; 0x805150 <KEY+0x1>
    5fb8:	88 23       	and	r24, r24
    5fba:	09 f4       	brne	.+2      	; 0x5fbe <ZigBee_PanID_Write+0x268>
    5fbc:	14 c1       	rjmp	.+552    	; 0x61e6 <ZigBee_PanID_Write+0x490>
    5fbe:	d6 30       	cpi	r29, 0x06	; 6
    5fc0:	b8 f0       	brcs	.+46     	; 0x5ff0 <ZigBee_PanID_Write+0x29a>
    5fc2:	80 91 51 51 	lds	r24, 0x5151	; 0x805151 <KEY+0x2>
    5fc6:	81 30       	cpi	r24, 0x01	; 1
    5fc8:	39 f4       	brne	.+14     	; 0x5fd8 <ZigBee_PanID_Write+0x282>
    5fca:	f4 e0       	ldi	r31, 0x04	; 4
    5fcc:	fb 15       	cp	r31, r11
    5fce:	20 f0       	brcs	.+8      	; 0x5fd8 <ZigBee_PanID_Write+0x282>
    5fd0:	b3 94       	inc	r11
    5fd2:	10 92 51 51 	sts	0x5151, r1	; 0x805151 <KEY+0x2>
    5fd6:	07 c1       	rjmp	.+526    	; 0x61e6 <ZigBee_PanID_Write+0x490>
    5fd8:	80 91 51 51 	lds	r24, 0x5151	; 0x805151 <KEY+0x2>
    5fdc:	83 30       	cpi	r24, 0x03	; 3
    5fde:	09 f0       	breq	.+2      	; 0x5fe2 <ZigBee_PanID_Write+0x28c>
    5fe0:	02 c1       	rjmp	.+516    	; 0x61e6 <ZigBee_PanID_Write+0x490>
    5fe2:	bb 20       	and	r11, r11
    5fe4:	09 f4       	brne	.+2      	; 0x5fe8 <ZigBee_PanID_Write+0x292>
    5fe6:	ff c0       	rjmp	.+510    	; 0x61e6 <ZigBee_PanID_Write+0x490>
    5fe8:	ba 94       	dec	r11
    5fea:	10 92 51 51 	sts	0x5151, r1	; 0x805151 <KEY+0x2>
    5fee:	fb c0       	rjmp	.+502    	; 0x61e6 <ZigBee_PanID_Write+0x490>
    5ff0:	80 91 51 51 	lds	r24, 0x5151	; 0x805151 <KEY+0x2>
    5ff4:	81 30       	cpi	r24, 0x01	; 1
    5ff6:	39 f4       	brne	.+14     	; 0x6006 <ZigBee_PanID_Write+0x2b0>
    5ff8:	28 e0       	ldi	r18, 0x08	; 8
    5ffa:	2b 15       	cp	r18, r11
    5ffc:	20 f0       	brcs	.+8      	; 0x6006 <ZigBee_PanID_Write+0x2b0>
    5ffe:	b3 94       	inc	r11
    6000:	10 92 51 51 	sts	0x5151, r1	; 0x805151 <KEY+0x2>
    6004:	f0 c0       	rjmp	.+480    	; 0x61e6 <ZigBee_PanID_Write+0x490>
    6006:	80 91 51 51 	lds	r24, 0x5151	; 0x805151 <KEY+0x2>
    600a:	83 30       	cpi	r24, 0x03	; 3
    600c:	09 f0       	breq	.+2      	; 0x6010 <ZigBee_PanID_Write+0x2ba>
    600e:	eb c0       	rjmp	.+470    	; 0x61e6 <ZigBee_PanID_Write+0x490>
    6010:	bb 20       	and	r11, r11
    6012:	09 f4       	brne	.+2      	; 0x6016 <ZigBee_PanID_Write+0x2c0>
    6014:	e8 c0       	rjmp	.+464    	; 0x61e6 <ZigBee_PanID_Write+0x490>
    6016:	ba 94       	dec	r11
    6018:	10 92 51 51 	sts	0x5151, r1	; 0x805151 <KEY+0x2>
    601c:	e4 c0       	rjmp	.+456    	; 0x61e6 <ZigBee_PanID_Write+0x490>
    601e:	eb 2d       	mov	r30, r11
    6020:	f0 e0       	ldi	r31, 0x00	; 0
    6022:	ed 5b       	subi	r30, 0xBD	; 189
    6024:	fe 4b       	sbci	r31, 0xBE	; 190
    6026:	80 81       	ld	r24, Z
    6028:	80 93 7f 41 	sts	0x417F, r24	; 0x80417f <DIGIT+0x6>
    602c:	80 91 7b 51 	lds	r24, 0x517B	; 0x80517b <Blink>
    6030:	88 23       	and	r24, r24
    6032:	19 f0       	breq	.+6      	; 0x603a <ZigBee_PanID_Write+0x2e4>
    6034:	10 92 7e 41 	sts	0x417E, r1	; 0x80417e <DIGIT+0x5>
    6038:	07 c0       	rjmp	.+14     	; 0x6048 <ZigBee_PanID_Write+0x2f2>
    603a:	e0 2f       	mov	r30, r16
    603c:	f0 e0       	ldi	r31, 0x00	; 0
    603e:	ed 5b       	subi	r30, 0xBD	; 189
    6040:	fe 4b       	sbci	r31, 0xBE	; 190
    6042:	80 81       	ld	r24, Z
    6044:	80 93 7e 41 	sts	0x417E, r24	; 0x80417e <DIGIT+0x5>
    6048:	80 91 50 51 	lds	r24, 0x5150	; 0x805150 <KEY+0x1>
    604c:	88 23       	and	r24, r24
    604e:	09 f4       	brne	.+2      	; 0x6052 <ZigBee_PanID_Write+0x2fc>
    6050:	ca c0       	rjmp	.+404    	; 0x61e6 <ZigBee_PanID_Write+0x490>
    6052:	d6 30       	cpi	r29, 0x06	; 6
    6054:	c8 f0       	brcs	.+50     	; 0x6088 <ZigBee_PanID_Write+0x332>
    6056:	34 e0       	ldi	r19, 0x04	; 4
    6058:	3b 15       	cp	r19, r11
    605a:	b0 f4       	brcc	.+44     	; 0x6088 <ZigBee_PanID_Write+0x332>
    605c:	80 91 51 51 	lds	r24, 0x5151	; 0x805151 <KEY+0x2>
    6060:	81 30       	cpi	r24, 0x01	; 1
    6062:	31 f4       	brne	.+12     	; 0x6070 <ZigBee_PanID_Write+0x31a>
    6064:	05 30       	cpi	r16, 0x05	; 5
    6066:	20 f4       	brcc	.+8      	; 0x6070 <ZigBee_PanID_Write+0x31a>
    6068:	0f 5f       	subi	r16, 0xFF	; 255
    606a:	10 92 51 51 	sts	0x5151, r1	; 0x805151 <KEY+0x2>
    606e:	bb c0       	rjmp	.+374    	; 0x61e6 <ZigBee_PanID_Write+0x490>
    6070:	80 91 51 51 	lds	r24, 0x5151	; 0x805151 <KEY+0x2>
    6074:	83 30       	cpi	r24, 0x03	; 3
    6076:	09 f0       	breq	.+2      	; 0x607a <ZigBee_PanID_Write+0x324>
    6078:	b6 c0       	rjmp	.+364    	; 0x61e6 <ZigBee_PanID_Write+0x490>
    607a:	00 23       	and	r16, r16
    607c:	09 f4       	brne	.+2      	; 0x6080 <ZigBee_PanID_Write+0x32a>
    607e:	b3 c0       	rjmp	.+358    	; 0x61e6 <ZigBee_PanID_Write+0x490>
    6080:	01 50       	subi	r16, 0x01	; 1
    6082:	10 92 51 51 	sts	0x5151, r1	; 0x805151 <KEY+0x2>
    6086:	af c0       	rjmp	.+350    	; 0x61e6 <ZigBee_PanID_Write+0x490>
    6088:	80 91 51 51 	lds	r24, 0x5151	; 0x805151 <KEY+0x2>
    608c:	81 30       	cpi	r24, 0x01	; 1
    608e:	31 f4       	brne	.+12     	; 0x609c <ZigBee_PanID_Write+0x346>
    6090:	09 30       	cpi	r16, 0x09	; 9
    6092:	20 f4       	brcc	.+8      	; 0x609c <ZigBee_PanID_Write+0x346>
    6094:	0f 5f       	subi	r16, 0xFF	; 255
    6096:	10 92 51 51 	sts	0x5151, r1	; 0x805151 <KEY+0x2>
    609a:	a5 c0       	rjmp	.+330    	; 0x61e6 <ZigBee_PanID_Write+0x490>
    609c:	80 91 51 51 	lds	r24, 0x5151	; 0x805151 <KEY+0x2>
    60a0:	83 30       	cpi	r24, 0x03	; 3
    60a2:	09 f0       	breq	.+2      	; 0x60a6 <ZigBee_PanID_Write+0x350>
    60a4:	a0 c0       	rjmp	.+320    	; 0x61e6 <ZigBee_PanID_Write+0x490>
    60a6:	00 23       	and	r16, r16
    60a8:	09 f4       	brne	.+2      	; 0x60ac <ZigBee_PanID_Write+0x356>
    60aa:	9d c0       	rjmp	.+314    	; 0x61e6 <ZigBee_PanID_Write+0x490>
    60ac:	01 50       	subi	r16, 0x01	; 1
    60ae:	10 92 51 51 	sts	0x5151, r1	; 0x805151 <KEY+0x2>
    60b2:	99 c0       	rjmp	.+306    	; 0x61e6 <ZigBee_PanID_Write+0x490>
    60b4:	e0 2f       	mov	r30, r16
    60b6:	f0 e0       	ldi	r31, 0x00	; 0
    60b8:	ed 5b       	subi	r30, 0xBD	; 189
    60ba:	fe 4b       	sbci	r31, 0xBE	; 190
    60bc:	80 81       	ld	r24, Z
    60be:	80 93 7e 41 	sts	0x417E, r24	; 0x80417e <DIGIT+0x5>
    60c2:	80 91 7b 51 	lds	r24, 0x517B	; 0x80517b <Blink>
    60c6:	88 23       	and	r24, r24
    60c8:	19 f0       	breq	.+6      	; 0x60d0 <ZigBee_PanID_Write+0x37a>
    60ca:	10 92 7d 41 	sts	0x417D, r1	; 0x80417d <DIGIT+0x4>
    60ce:	07 c0       	rjmp	.+14     	; 0x60de <ZigBee_PanID_Write+0x388>
    60d0:	ec 2f       	mov	r30, r28
    60d2:	f0 e0       	ldi	r31, 0x00	; 0
    60d4:	ed 5b       	subi	r30, 0xBD	; 189
    60d6:	fe 4b       	sbci	r31, 0xBE	; 190
    60d8:	80 81       	ld	r24, Z
    60da:	80 93 7d 41 	sts	0x417D, r24	; 0x80417d <DIGIT+0x4>
    60de:	80 91 50 51 	lds	r24, 0x5150	; 0x805150 <KEY+0x1>
    60e2:	88 23       	and	r24, r24
    60e4:	09 f4       	brne	.+2      	; 0x60e8 <ZigBee_PanID_Write+0x392>
    60e6:	7f c0       	rjmp	.+254    	; 0x61e6 <ZigBee_PanID_Write+0x490>
    60e8:	d6 30       	cpi	r29, 0x06	; 6
    60ea:	d8 f0       	brcs	.+54     	; 0x6122 <ZigBee_PanID_Write+0x3cc>
    60ec:	44 e0       	ldi	r20, 0x04	; 4
    60ee:	4b 15       	cp	r20, r11
    60f0:	c0 f4       	brcc	.+48     	; 0x6122 <ZigBee_PanID_Write+0x3cc>
    60f2:	05 30       	cpi	r16, 0x05	; 5
    60f4:	b0 f0       	brcs	.+44     	; 0x6122 <ZigBee_PanID_Write+0x3cc>
    60f6:	80 91 51 51 	lds	r24, 0x5151	; 0x805151 <KEY+0x2>
    60fa:	81 30       	cpi	r24, 0x01	; 1
    60fc:	31 f4       	brne	.+12     	; 0x610a <ZigBee_PanID_Write+0x3b4>
    60fe:	c3 30       	cpi	r28, 0x03	; 3
    6100:	20 f4       	brcc	.+8      	; 0x610a <ZigBee_PanID_Write+0x3b4>
    6102:	cf 5f       	subi	r28, 0xFF	; 255
    6104:	10 92 51 51 	sts	0x5151, r1	; 0x805151 <KEY+0x2>
    6108:	6e c0       	rjmp	.+220    	; 0x61e6 <ZigBee_PanID_Write+0x490>
    610a:	80 91 51 51 	lds	r24, 0x5151	; 0x805151 <KEY+0x2>
    610e:	83 30       	cpi	r24, 0x03	; 3
    6110:	09 f0       	breq	.+2      	; 0x6114 <ZigBee_PanID_Write+0x3be>
    6112:	69 c0       	rjmp	.+210    	; 0x61e6 <ZigBee_PanID_Write+0x490>
    6114:	cc 23       	and	r28, r28
    6116:	09 f4       	brne	.+2      	; 0x611a <ZigBee_PanID_Write+0x3c4>
    6118:	66 c0       	rjmp	.+204    	; 0x61e6 <ZigBee_PanID_Write+0x490>
    611a:	c1 50       	subi	r28, 0x01	; 1
    611c:	10 92 51 51 	sts	0x5151, r1	; 0x805151 <KEY+0x2>
    6120:	62 c0       	rjmp	.+196    	; 0x61e6 <ZigBee_PanID_Write+0x490>
    6122:	80 91 51 51 	lds	r24, 0x5151	; 0x805151 <KEY+0x2>
    6126:	81 30       	cpi	r24, 0x01	; 1
    6128:	31 f4       	brne	.+12     	; 0x6136 <ZigBee_PanID_Write+0x3e0>
    612a:	c9 30       	cpi	r28, 0x09	; 9
    612c:	20 f4       	brcc	.+8      	; 0x6136 <ZigBee_PanID_Write+0x3e0>
    612e:	cf 5f       	subi	r28, 0xFF	; 255
    6130:	10 92 51 51 	sts	0x5151, r1	; 0x805151 <KEY+0x2>
    6134:	58 c0       	rjmp	.+176    	; 0x61e6 <ZigBee_PanID_Write+0x490>
    6136:	80 91 51 51 	lds	r24, 0x5151	; 0x805151 <KEY+0x2>
    613a:	83 30       	cpi	r24, 0x03	; 3
    613c:	09 f0       	breq	.+2      	; 0x6140 <ZigBee_PanID_Write+0x3ea>
    613e:	53 c0       	rjmp	.+166    	; 0x61e6 <ZigBee_PanID_Write+0x490>
    6140:	cc 23       	and	r28, r28
    6142:	09 f4       	brne	.+2      	; 0x6146 <ZigBee_PanID_Write+0x3f0>
    6144:	50 c0       	rjmp	.+160    	; 0x61e6 <ZigBee_PanID_Write+0x490>
    6146:	c1 50       	subi	r28, 0x01	; 1
    6148:	10 92 51 51 	sts	0x5151, r1	; 0x805151 <KEY+0x2>
    614c:	4c c0       	rjmp	.+152    	; 0x61e6 <ZigBee_PanID_Write+0x490>
    614e:	ec 2f       	mov	r30, r28
    6150:	f0 e0       	ldi	r31, 0x00	; 0
    6152:	ed 5b       	subi	r30, 0xBD	; 189
    6154:	fe 4b       	sbci	r31, 0xBE	; 190
    6156:	80 81       	ld	r24, Z
    6158:	80 93 7d 41 	sts	0x417D, r24	; 0x80417d <DIGIT+0x4>
    615c:	80 91 7b 51 	lds	r24, 0x517B	; 0x80517b <Blink>
    6160:	88 23       	and	r24, r24
    6162:	19 f0       	breq	.+6      	; 0x616a <ZigBee_PanID_Write+0x414>
    6164:	10 92 84 41 	sts	0x4184, r1	; 0x804184 <DIGIT+0xb>
    6168:	07 c0       	rjmp	.+14     	; 0x6178 <ZigBee_PanID_Write+0x422>
    616a:	e1 2f       	mov	r30, r17
    616c:	f0 e0       	ldi	r31, 0x00	; 0
    616e:	ed 5b       	subi	r30, 0xBD	; 189
    6170:	fe 4b       	sbci	r31, 0xBE	; 190
    6172:	80 81       	ld	r24, Z
    6174:	80 93 84 41 	sts	0x4184, r24	; 0x804184 <DIGIT+0xb>
    6178:	80 91 50 51 	lds	r24, 0x5150	; 0x805150 <KEY+0x1>
    617c:	88 23       	and	r24, r24
    617e:	99 f1       	breq	.+102    	; 0x61e6 <ZigBee_PanID_Write+0x490>
    6180:	d6 30       	cpi	r29, 0x06	; 6
    6182:	d8 f0       	brcs	.+54     	; 0x61ba <ZigBee_PanID_Write+0x464>
    6184:	84 e0       	ldi	r24, 0x04	; 4
    6186:	8b 15       	cp	r24, r11
    6188:	c0 f4       	brcc	.+48     	; 0x61ba <ZigBee_PanID_Write+0x464>
    618a:	05 30       	cpi	r16, 0x05	; 5
    618c:	b0 f0       	brcs	.+44     	; 0x61ba <ZigBee_PanID_Write+0x464>
    618e:	c3 30       	cpi	r28, 0x03	; 3
    6190:	a0 f0       	brcs	.+40     	; 0x61ba <ZigBee_PanID_Write+0x464>
    6192:	80 91 51 51 	lds	r24, 0x5151	; 0x805151 <KEY+0x2>
    6196:	81 30       	cpi	r24, 0x01	; 1
    6198:	31 f4       	brne	.+12     	; 0x61a6 <ZigBee_PanID_Write+0x450>
    619a:	15 30       	cpi	r17, 0x05	; 5
    619c:	20 f4       	brcc	.+8      	; 0x61a6 <ZigBee_PanID_Write+0x450>
    619e:	1f 5f       	subi	r17, 0xFF	; 255
    61a0:	10 92 51 51 	sts	0x5151, r1	; 0x805151 <KEY+0x2>
    61a4:	20 c0       	rjmp	.+64     	; 0x61e6 <ZigBee_PanID_Write+0x490>
    61a6:	80 91 51 51 	lds	r24, 0x5151	; 0x805151 <KEY+0x2>
    61aa:	83 30       	cpi	r24, 0x03	; 3
    61ac:	e1 f4       	brne	.+56     	; 0x61e6 <ZigBee_PanID_Write+0x490>
    61ae:	11 23       	and	r17, r17
    61b0:	d1 f0       	breq	.+52     	; 0x61e6 <ZigBee_PanID_Write+0x490>
    61b2:	11 50       	subi	r17, 0x01	; 1
    61b4:	10 92 51 51 	sts	0x5151, r1	; 0x805151 <KEY+0x2>
    61b8:	16 c0       	rjmp	.+44     	; 0x61e6 <ZigBee_PanID_Write+0x490>
    61ba:	80 91 51 51 	lds	r24, 0x5151	; 0x805151 <KEY+0x2>
    61be:	81 30       	cpi	r24, 0x01	; 1
    61c0:	31 f4       	brne	.+12     	; 0x61ce <ZigBee_PanID_Write+0x478>
    61c2:	19 30       	cpi	r17, 0x09	; 9
    61c4:	20 f4       	brcc	.+8      	; 0x61ce <ZigBee_PanID_Write+0x478>
    61c6:	1f 5f       	subi	r17, 0xFF	; 255
    61c8:	10 92 51 51 	sts	0x5151, r1	; 0x805151 <KEY+0x2>
    61cc:	0c c0       	rjmp	.+24     	; 0x61e6 <ZigBee_PanID_Write+0x490>
    61ce:	80 91 51 51 	lds	r24, 0x5151	; 0x805151 <KEY+0x2>
    61d2:	83 30       	cpi	r24, 0x03	; 3
    61d4:	41 f4       	brne	.+16     	; 0x61e6 <ZigBee_PanID_Write+0x490>
    61d6:	11 23       	and	r17, r17
    61d8:	31 f0       	breq	.+12     	; 0x61e6 <ZigBee_PanID_Write+0x490>
    61da:	11 50       	subi	r17, 0x01	; 1
    61dc:	10 92 51 51 	sts	0x5151, r1	; 0x805151 <KEY+0x2>
    61e0:	02 c0       	rjmp	.+4      	; 0x61e6 <ZigBee_PanID_Write+0x490>
    61e2:	10 92 4f 51 	sts	0x514F, r1	; 0x80514f <KEY>
    61e6:	0e 94 7e 0e 	call	0x1cfc	; 0x1cfc <wdt_reset>
    61ea:	80 91 10 51 	lds	r24, 0x5110	; 0x805110 <SET>
    61ee:	81 11       	cpse	r24, r1
    61f0:	85 ce       	rjmp	.-758    	; 0x5efc <ZigBee_PanID_Write+0x1a6>
    61f2:	20 e1       	ldi	r18, 0x10	; 16
    61f4:	37 e2       	ldi	r19, 0x27	; 39
    61f6:	d2 9f       	mul	r29, r18
    61f8:	c0 01       	movw	r24, r0
    61fa:	d3 9f       	mul	r29, r19
    61fc:	90 0d       	add	r25, r0
    61fe:	11 24       	eor	r1, r1
    6200:	48 ee       	ldi	r20, 0xE8	; 232
    6202:	53 e0       	ldi	r21, 0x03	; 3
    6204:	b4 9e       	mul	r11, r20
    6206:	90 01       	movw	r18, r0
    6208:	b5 9e       	mul	r11, r21
    620a:	30 0d       	add	r19, r0
    620c:	11 24       	eor	r1, r1
    620e:	82 0f       	add	r24, r18
    6210:	93 1f       	adc	r25, r19
    6212:	9c 01       	movw	r18, r24
    6214:	e4 e6       	ldi	r30, 0x64	; 100
    6216:	0e 9f       	mul	r16, r30
    6218:	20 0d       	add	r18, r0
    621a:	31 1d       	adc	r19, r1
    621c:	11 24       	eor	r1, r1
    621e:	d0 e0       	ldi	r29, 0x00	; 0
    6220:	ce 01       	movw	r24, r28
    6222:	88 0f       	add	r24, r24
    6224:	99 1f       	adc	r25, r25
    6226:	cc 0f       	add	r28, r28
    6228:	dd 1f       	adc	r29, r29
    622a:	cc 0f       	add	r28, r28
    622c:	dd 1f       	adc	r29, r29
    622e:	cc 0f       	add	r28, r28
    6230:	dd 1f       	adc	r29, r29
    6232:	8c 0f       	add	r24, r28
    6234:	9d 1f       	adc	r25, r29
    6236:	82 0f       	add	r24, r18
    6238:	93 1f       	adc	r25, r19
    623a:	81 0f       	add	r24, r17
    623c:	91 1d       	adc	r25, r1
    623e:	80 93 65 51 	sts	0x5165, r24	; 0x805165 <ZB_id>
    6242:	90 93 66 51 	sts	0x5166, r25	; 0x805166 <ZB_id+0x1>
    6246:	29 2f       	mov	r18, r25
    6248:	22 95       	swap	r18
    624a:	2f 70       	andi	r18, 0x0F	; 15
    624c:	20 93 4c 51 	sts	0x514C, r18	; 0x80514c <Pan_id_1000>
    6250:	10 92 4d 51 	sts	0x514D, r1	; 0x80514d <Pan_id_1000+0x1>
    6254:	9c 01       	movw	r18, r24
    6256:	3f 70       	andi	r19, 0x0F	; 15
    6258:	30 93 ab 41 	sts	0x41AB, r19	; 0x8041ab <Pan_id_100>
    625c:	10 92 ac 41 	sts	0x41AC, r1	; 0x8041ac <Pan_id_100+0x1>
    6260:	9c 01       	movw	r18, r24
    6262:	33 27       	eor	r19, r19
    6264:	32 95       	swap	r19
    6266:	22 95       	swap	r18
    6268:	2f 70       	andi	r18, 0x0F	; 15
    626a:	23 27       	eor	r18, r19
    626c:	3f 70       	andi	r19, 0x0F	; 15
    626e:	23 27       	eor	r18, r19
    6270:	20 93 0e 51 	sts	0x510E, r18	; 0x80510e <Pan_id_10>
    6274:	30 93 0f 51 	sts	0x510F, r19	; 0x80510f <Pan_id_10+0x1>
    6278:	8f 70       	andi	r24, 0x0F	; 15
    627a:	99 27       	eor	r25, r25
    627c:	80 93 ed 50 	sts	0x50ED, r24	; 0x8050ed <Pan_id_1>
    6280:	90 93 ee 50 	sts	0x50EE, r25	; 0x8050ee <Pan_id_1+0x1>
    6284:	0e 94 c5 2d 	call	0x5b8a	; 0x5b8a <ZigBee_Write_id>
    6288:	e0 e1       	ldi	r30, 0x10	; 16
    628a:	f1 e5       	ldi	r31, 0x51	; 81
    628c:	81 e0       	ldi	r24, 0x01	; 1
    628e:	80 83       	st	Z, r24
    6290:	11 82       	std	Z+1, r1	; 0x01
    6292:	13 82       	std	Z+3, r1	; 0x03
    6294:	10 92 4f 51 	sts	0x514F, r1	; 0x80514f <KEY>
    6298:	df 91       	pop	r29
    629a:	cf 91       	pop	r28
    629c:	1f 91       	pop	r17
    629e:	0f 91       	pop	r16
    62a0:	ff 90       	pop	r15
    62a2:	ef 90       	pop	r14
    62a4:	df 90       	pop	r13
    62a6:	cf 90       	pop	r12
    62a8:	bf 90       	pop	r11
    62aa:	9f 90       	pop	r9
    62ac:	8f 90       	pop	r8
    62ae:	7f 90       	pop	r7
    62b0:	6f 90       	pop	r6
    62b2:	08 95       	ret

000062b4 <ZigBee_Write_ch>:
    62b4:	cf 93       	push	r28
    62b6:	c0 e0       	ldi	r28, 0x00	; 0
    62b8:	c1 30       	cpi	r28, 0x01	; 1
    62ba:	a1 f0       	breq	.+40     	; 0x62e4 <ZigBee_Write_ch+0x30>
    62bc:	28 f0       	brcs	.+10     	; 0x62c8 <ZigBee_Write_ch+0x14>
    62be:	c2 30       	cpi	r28, 0x02	; 2
    62c0:	d1 f1       	breq	.+116    	; 0x6336 <ZigBee_Write_ch+0x82>
    62c2:	c3 30       	cpi	r28, 0x03	; 3
    62c4:	e9 f1       	breq	.+122    	; 0x6340 <ZigBee_Write_ch+0x8c>
    62c6:	40 c0       	rjmp	.+128    	; 0x6348 <ZigBee_Write_ch+0x94>
    62c8:	80 e5       	ldi	r24, 0x50	; 80
    62ca:	91 e4       	ldi	r25, 0x41	; 65
    62cc:	0e 94 95 2d 	call	0x5b2a	; 0x5b2a <USART3_SendString>
    62d0:	2f ef       	ldi	r18, 0xFF	; 255
    62d2:	8f ef       	ldi	r24, 0xFF	; 255
    62d4:	9c e2       	ldi	r25, 0x2C	; 44
    62d6:	21 50       	subi	r18, 0x01	; 1
    62d8:	80 40       	sbci	r24, 0x00	; 0
    62da:	90 40       	sbci	r25, 0x00	; 0
    62dc:	e1 f7       	brne	.-8      	; 0x62d6 <ZigBee_Write_ch+0x22>
    62de:	00 c0       	rjmp	.+0      	; 0x62e0 <ZigBee_Write_ch+0x2c>
    62e0:	00 00       	nop
    62e2:	32 c0       	rjmp	.+100    	; 0x6348 <ZigBee_Write_ch+0x94>
    62e4:	85 e6       	ldi	r24, 0x65	; 101
    62e6:	91 e4       	ldi	r25, 0x41	; 65
    62e8:	0e 94 95 2d 	call	0x5b2a	; 0x5b2a <USART3_SendString>
    62ec:	e0 91 ec 50 	lds	r30, 0x50EC	; 0x8050ec <ZB_ch>
    62f0:	f0 e0       	ldi	r31, 0x00	; 0
    62f2:	ee 0f       	add	r30, r30
    62f4:	ff 1f       	adc	r31, r31
    62f6:	e6 5d       	subi	r30, 0xD6	; 214
    62f8:	ff 4b       	sbci	r31, 0xBF	; 191
    62fa:	80 81       	ld	r24, Z
    62fc:	91 81       	ldd	r25, Z+1	; 0x01
    62fe:	99 23       	and	r25, r25
    6300:	14 f4       	brge	.+4      	; 0x6306 <ZigBee_Write_ch+0x52>
    6302:	81 50       	subi	r24, 0x01	; 1
    6304:	9f 4f       	sbci	r25, 0xFF	; 255
    6306:	89 2f       	mov	r24, r25
    6308:	0e 94 8c 2d 	call	0x5b18	; 0x5b18 <USART3_Write>
    630c:	e0 91 ec 50 	lds	r30, 0x50EC	; 0x8050ec <ZB_ch>
    6310:	f0 e0       	ldi	r31, 0x00	; 0
    6312:	ee 0f       	add	r30, r30
    6314:	ff 1f       	adc	r31, r31
    6316:	e6 5d       	subi	r30, 0xD6	; 214
    6318:	ff 4b       	sbci	r31, 0xBF	; 191
    631a:	80 81       	ld	r24, Z
    631c:	91 81       	ldd	r25, Z+1	; 0x01
    631e:	90 78       	andi	r25, 0x80	; 128
    6320:	99 23       	and	r25, r25
    6322:	1c f4       	brge	.+6      	; 0x632a <ZigBee_Write_ch+0x76>
    6324:	01 97       	sbiw	r24, 0x01	; 1
    6326:	9f 6f       	ori	r25, 0xFF	; 255
    6328:	01 96       	adiw	r24, 0x01	; 1
    632a:	0e 94 8c 2d 	call	0x5b18	; 0x5b18 <USART3_Write>
    632e:	8d e0       	ldi	r24, 0x0D	; 13
    6330:	0e 94 8c 2d 	call	0x5b18	; 0x5b18 <USART3_Write>
    6334:	09 c0       	rjmp	.+18     	; 0x6348 <ZigBee_Write_ch+0x94>
    6336:	89 e5       	ldi	r24, 0x59	; 89
    6338:	91 e4       	ldi	r25, 0x41	; 65
    633a:	0e 94 95 2d 	call	0x5b2a	; 0x5b2a <USART3_SendString>
    633e:	04 c0       	rjmp	.+8      	; 0x6348 <ZigBee_Write_ch+0x94>
    6340:	8f e5       	ldi	r24, 0x5F	; 95
    6342:	91 e4       	ldi	r25, 0x41	; 65
    6344:	0e 94 95 2d 	call	0x5b2a	; 0x5b2a <USART3_SendString>
    6348:	80 e0       	ldi	r24, 0x00	; 0
    634a:	9d c0       	rjmp	.+314    	; 0x6486 <ZigBee_Write_ch+0x1d2>
    634c:	c1 11       	cpse	r28, r1
    634e:	25 c0       	rjmp	.+74     	; 0x639a <ZigBee_Write_ch+0xe6>
    6350:	28 2f       	mov	r18, r24
    6352:	30 e0       	ldi	r19, 0x00	; 0
    6354:	f9 01       	movw	r30, r18
    6356:	e6 57       	subi	r30, 0x76	; 118
    6358:	fe 4a       	sbci	r31, 0xAE	; 174
    635a:	90 81       	ld	r25, Z
    635c:	9f 34       	cpi	r25, 0x4F	; 79
    635e:	e9 f4       	brne	.+58     	; 0x639a <ZigBee_Write_ch+0xe6>
    6360:	f9 01       	movw	r30, r18
    6362:	e5 57       	subi	r30, 0x75	; 117
    6364:	fe 4a       	sbci	r31, 0xAE	; 174
    6366:	90 81       	ld	r25, Z
    6368:	9b 34       	cpi	r25, 0x4B	; 75
    636a:	b9 f4       	brne	.+46     	; 0x639a <ZigBee_Write_ch+0xe6>
    636c:	f9 01       	movw	r30, r18
    636e:	e4 57       	subi	r30, 0x74	; 116
    6370:	fe 4a       	sbci	r31, 0xAE	; 174
    6372:	90 81       	ld	r25, Z
    6374:	9d 30       	cpi	r25, 0x0D	; 13
    6376:	89 f4       	brne	.+34     	; 0x639a <ZigBee_Write_ch+0xe6>
    6378:	83 e0       	ldi	r24, 0x03	; 3
    637a:	90 e0       	ldi	r25, 0x00	; 0
    637c:	0e 94 42 04 	call	0x884	; 0x884 <Beep>
    6380:	2f ef       	ldi	r18, 0xFF	; 255
    6382:	8f e3       	ldi	r24, 0x3F	; 63
    6384:	92 e0       	ldi	r25, 0x02	; 2
    6386:	21 50       	subi	r18, 0x01	; 1
    6388:	80 40       	sbci	r24, 0x00	; 0
    638a:	90 40       	sbci	r25, 0x00	; 0
    638c:	e1 f7       	brne	.-8      	; 0x6386 <ZigBee_Write_ch+0xd2>
    638e:	00 c0       	rjmp	.+0      	; 0x6390 <ZigBee_Write_ch+0xdc>
    6390:	00 00       	nop
    6392:	0e 94 b3 2d 	call	0x5b66	; 0x5b66 <Rx3_Buff_Clear>
    6396:	c1 e0       	ldi	r28, 0x01	; 1
    6398:	79 c0       	rjmp	.+242    	; 0x648c <ZigBee_Write_ch+0x1d8>
    639a:	c1 30       	cpi	r28, 0x01	; 1
    639c:	29 f5       	brne	.+74     	; 0x63e8 <ZigBee_Write_ch+0x134>
    639e:	28 2f       	mov	r18, r24
    63a0:	30 e0       	ldi	r19, 0x00	; 0
    63a2:	f9 01       	movw	r30, r18
    63a4:	e6 57       	subi	r30, 0x76	; 118
    63a6:	fe 4a       	sbci	r31, 0xAE	; 174
    63a8:	90 81       	ld	r25, Z
    63aa:	9f 34       	cpi	r25, 0x4F	; 79
    63ac:	e9 f4       	brne	.+58     	; 0x63e8 <ZigBee_Write_ch+0x134>
    63ae:	f9 01       	movw	r30, r18
    63b0:	e5 57       	subi	r30, 0x75	; 117
    63b2:	fe 4a       	sbci	r31, 0xAE	; 174
    63b4:	90 81       	ld	r25, Z
    63b6:	9b 34       	cpi	r25, 0x4B	; 75
    63b8:	b9 f4       	brne	.+46     	; 0x63e8 <ZigBee_Write_ch+0x134>
    63ba:	f9 01       	movw	r30, r18
    63bc:	e4 57       	subi	r30, 0x74	; 116
    63be:	fe 4a       	sbci	r31, 0xAE	; 174
    63c0:	90 81       	ld	r25, Z
    63c2:	9d 30       	cpi	r25, 0x0D	; 13
    63c4:	89 f4       	brne	.+34     	; 0x63e8 <ZigBee_Write_ch+0x134>
    63c6:	83 e0       	ldi	r24, 0x03	; 3
    63c8:	90 e0       	ldi	r25, 0x00	; 0
    63ca:	0e 94 42 04 	call	0x884	; 0x884 <Beep>
    63ce:	2f ef       	ldi	r18, 0xFF	; 255
    63d0:	8f e3       	ldi	r24, 0x3F	; 63
    63d2:	92 e0       	ldi	r25, 0x02	; 2
    63d4:	21 50       	subi	r18, 0x01	; 1
    63d6:	80 40       	sbci	r24, 0x00	; 0
    63d8:	90 40       	sbci	r25, 0x00	; 0
    63da:	e1 f7       	brne	.-8      	; 0x63d4 <ZigBee_Write_ch+0x120>
    63dc:	00 c0       	rjmp	.+0      	; 0x63de <ZigBee_Write_ch+0x12a>
    63de:	00 00       	nop
    63e0:	0e 94 b3 2d 	call	0x5b66	; 0x5b66 <Rx3_Buff_Clear>
    63e4:	c2 e0       	ldi	r28, 0x02	; 2
    63e6:	52 c0       	rjmp	.+164    	; 0x648c <ZigBee_Write_ch+0x1d8>
    63e8:	c2 30       	cpi	r28, 0x02	; 2
    63ea:	29 f5       	brne	.+74     	; 0x6436 <ZigBee_Write_ch+0x182>
    63ec:	28 2f       	mov	r18, r24
    63ee:	30 e0       	ldi	r19, 0x00	; 0
    63f0:	f9 01       	movw	r30, r18
    63f2:	e6 57       	subi	r30, 0x76	; 118
    63f4:	fe 4a       	sbci	r31, 0xAE	; 174
    63f6:	90 81       	ld	r25, Z
    63f8:	9f 34       	cpi	r25, 0x4F	; 79
    63fa:	e9 f4       	brne	.+58     	; 0x6436 <ZigBee_Write_ch+0x182>
    63fc:	f9 01       	movw	r30, r18
    63fe:	e5 57       	subi	r30, 0x75	; 117
    6400:	fe 4a       	sbci	r31, 0xAE	; 174
    6402:	90 81       	ld	r25, Z
    6404:	9b 34       	cpi	r25, 0x4B	; 75
    6406:	b9 f4       	brne	.+46     	; 0x6436 <ZigBee_Write_ch+0x182>
    6408:	f9 01       	movw	r30, r18
    640a:	e4 57       	subi	r30, 0x74	; 116
    640c:	fe 4a       	sbci	r31, 0xAE	; 174
    640e:	90 81       	ld	r25, Z
    6410:	9d 30       	cpi	r25, 0x0D	; 13
    6412:	89 f4       	brne	.+34     	; 0x6436 <ZigBee_Write_ch+0x182>
    6414:	83 e0       	ldi	r24, 0x03	; 3
    6416:	90 e0       	ldi	r25, 0x00	; 0
    6418:	0e 94 42 04 	call	0x884	; 0x884 <Beep>
    641c:	2f ef       	ldi	r18, 0xFF	; 255
    641e:	8f e3       	ldi	r24, 0x3F	; 63
    6420:	92 e0       	ldi	r25, 0x02	; 2
    6422:	21 50       	subi	r18, 0x01	; 1
    6424:	80 40       	sbci	r24, 0x00	; 0
    6426:	90 40       	sbci	r25, 0x00	; 0
    6428:	e1 f7       	brne	.-8      	; 0x6422 <ZigBee_Write_ch+0x16e>
    642a:	00 c0       	rjmp	.+0      	; 0x642c <ZigBee_Write_ch+0x178>
    642c:	00 00       	nop
    642e:	0e 94 b3 2d 	call	0x5b66	; 0x5b66 <Rx3_Buff_Clear>
    6432:	c3 e0       	ldi	r28, 0x03	; 3
    6434:	2b c0       	rjmp	.+86     	; 0x648c <ZigBee_Write_ch+0x1d8>
    6436:	c3 30       	cpi	r28, 0x03	; 3
    6438:	29 f5       	brne	.+74     	; 0x6484 <ZigBee_Write_ch+0x1d0>
    643a:	28 2f       	mov	r18, r24
    643c:	30 e0       	ldi	r19, 0x00	; 0
    643e:	f9 01       	movw	r30, r18
    6440:	e6 57       	subi	r30, 0x76	; 118
    6442:	fe 4a       	sbci	r31, 0xAE	; 174
    6444:	90 81       	ld	r25, Z
    6446:	9f 34       	cpi	r25, 0x4F	; 79
    6448:	e9 f4       	brne	.+58     	; 0x6484 <ZigBee_Write_ch+0x1d0>
    644a:	f9 01       	movw	r30, r18
    644c:	e5 57       	subi	r30, 0x75	; 117
    644e:	fe 4a       	sbci	r31, 0xAE	; 174
    6450:	90 81       	ld	r25, Z
    6452:	9b 34       	cpi	r25, 0x4B	; 75
    6454:	b9 f4       	brne	.+46     	; 0x6484 <ZigBee_Write_ch+0x1d0>
    6456:	f9 01       	movw	r30, r18
    6458:	e4 57       	subi	r30, 0x74	; 116
    645a:	fe 4a       	sbci	r31, 0xAE	; 174
    645c:	90 81       	ld	r25, Z
    645e:	9d 30       	cpi	r25, 0x0D	; 13
    6460:	89 f4       	brne	.+34     	; 0x6484 <ZigBee_Write_ch+0x1d0>
    6462:	83 e0       	ldi	r24, 0x03	; 3
    6464:	90 e0       	ldi	r25, 0x00	; 0
    6466:	0e 94 42 04 	call	0x884	; 0x884 <Beep>
    646a:	2f ef       	ldi	r18, 0xFF	; 255
    646c:	8f e3       	ldi	r24, 0x3F	; 63
    646e:	92 e0       	ldi	r25, 0x02	; 2
    6470:	21 50       	subi	r18, 0x01	; 1
    6472:	80 40       	sbci	r24, 0x00	; 0
    6474:	90 40       	sbci	r25, 0x00	; 0
    6476:	e1 f7       	brne	.-8      	; 0x6470 <ZigBee_Write_ch+0x1bc>
    6478:	00 c0       	rjmp	.+0      	; 0x647a <ZigBee_Write_ch+0x1c6>
    647a:	00 00       	nop
    647c:	0e 94 b3 2d 	call	0x5b66	; 0x5b66 <Rx3_Buff_Clear>
    6480:	c5 e0       	ldi	r28, 0x05	; 5
    6482:	04 c0       	rjmp	.+8      	; 0x648c <ZigBee_Write_ch+0x1d8>
    6484:	8f 5f       	subi	r24, 0xFF	; 255
    6486:	8a 3f       	cpi	r24, 0xFA	; 250
    6488:	08 f4       	brcc	.+2      	; 0x648c <ZigBee_Write_ch+0x1d8>
    648a:	60 cf       	rjmp	.-320    	; 0x634c <ZigBee_Write_ch+0x98>
    648c:	0e 94 7e 0e 	call	0x1cfc	; 0x1cfc <wdt_reset>
    6490:	c5 30       	cpi	r28, 0x05	; 5
    6492:	09 f0       	breq	.+2      	; 0x6496 <ZigBee_Write_ch+0x1e2>
    6494:	11 cf       	rjmp	.-478    	; 0x62b8 <ZigBee_Write_ch+0x4>
    6496:	cf 91       	pop	r28
    6498:	08 95       	ret

0000649a <ZigBee_Channel_Write>:
    649a:	4c e0       	ldi	r20, 0x0C	; 12
    649c:	62 e0       	ldi	r22, 0x02	; 2
    649e:	82 e0       	ldi	r24, 0x02	; 2
    64a0:	0e 94 d2 05 	call	0xba4	; 0xba4 <FND_Value_Data>
    64a4:	3d c0       	rjmp	.+122    	; 0x6520 <ZigBee_Channel_Write+0x86>
    64a6:	20 91 ec 50 	lds	r18, 0x50EC	; 0x8050ec <ZB_ch>
    64aa:	8d ec       	ldi	r24, 0xCD	; 205
    64ac:	28 9f       	mul	r18, r24
    64ae:	81 2d       	mov	r24, r1
    64b0:	11 24       	eor	r1, r1
    64b2:	86 95       	lsr	r24
    64b4:	86 95       	lsr	r24
    64b6:	86 95       	lsr	r24
    64b8:	e8 2f       	mov	r30, r24
    64ba:	f0 e0       	ldi	r31, 0x00	; 0
    64bc:	ed 5b       	subi	r30, 0xBD	; 189
    64be:	fe 4b       	sbci	r31, 0xBE	; 190
    64c0:	90 81       	ld	r25, Z
    64c2:	a9 e7       	ldi	r26, 0x79	; 121
    64c4:	b1 e4       	ldi	r27, 0x41	; 65
    64c6:	15 96       	adiw	r26, 0x05	; 5
    64c8:	9c 93       	st	X, r25
    64ca:	15 97       	sbiw	r26, 0x05	; 5
    64cc:	88 0f       	add	r24, r24
    64ce:	98 2f       	mov	r25, r24
    64d0:	99 0f       	add	r25, r25
    64d2:	99 0f       	add	r25, r25
    64d4:	89 0f       	add	r24, r25
    64d6:	e2 2f       	mov	r30, r18
    64d8:	e8 1b       	sub	r30, r24
    64da:	f0 e0       	ldi	r31, 0x00	; 0
    64dc:	ed 5b       	subi	r30, 0xBD	; 189
    64de:	fe 4b       	sbci	r31, 0xBE	; 190
    64e0:	80 81       	ld	r24, Z
    64e2:	14 96       	adiw	r26, 0x04	; 4
    64e4:	8c 93       	st	X, r24
    64e6:	80 91 50 51 	lds	r24, 0x5150	; 0x805150 <KEY+0x1>
    64ea:	88 23       	and	r24, r24
    64ec:	b9 f0       	breq	.+46     	; 0x651c <ZigBee_Channel_Write+0x82>
    64ee:	80 91 51 51 	lds	r24, 0x5151	; 0x805151 <KEY+0x2>
    64f2:	81 30       	cpi	r24, 0x01	; 1
    64f4:	41 f4       	brne	.+16     	; 0x6506 <ZigBee_Channel_Write+0x6c>
    64f6:	2e 30       	cpi	r18, 0x0E	; 14
    64f8:	30 f4       	brcc	.+12     	; 0x6506 <ZigBee_Channel_Write+0x6c>
    64fa:	2f 5f       	subi	r18, 0xFF	; 255
    64fc:	20 93 ec 50 	sts	0x50EC, r18	; 0x8050ec <ZB_ch>
    6500:	10 92 51 51 	sts	0x5151, r1	; 0x805151 <KEY+0x2>
    6504:	0b c0       	rjmp	.+22     	; 0x651c <ZigBee_Channel_Write+0x82>
    6506:	80 91 51 51 	lds	r24, 0x5151	; 0x805151 <KEY+0x2>
    650a:	83 30       	cpi	r24, 0x03	; 3
    650c:	39 f4       	brne	.+14     	; 0x651c <ZigBee_Channel_Write+0x82>
    650e:	22 23       	and	r18, r18
    6510:	29 f0       	breq	.+10     	; 0x651c <ZigBee_Channel_Write+0x82>
    6512:	21 50       	subi	r18, 0x01	; 1
    6514:	20 93 ec 50 	sts	0x50EC, r18	; 0x8050ec <ZB_ch>
    6518:	10 92 51 51 	sts	0x5151, r1	; 0x805151 <KEY+0x2>
    651c:	0e 94 7e 0e 	call	0x1cfc	; 0x1cfc <wdt_reset>
    6520:	80 91 11 51 	lds	r24, 0x5111	; 0x805111 <SET+0x1>
    6524:	88 23       	and	r24, r24
    6526:	21 f0       	breq	.+8      	; 0x6530 <ZigBee_Channel_Write+0x96>
    6528:	80 91 10 51 	lds	r24, 0x5110	; 0x805110 <SET>
    652c:	81 11       	cpse	r24, r1
    652e:	bb cf       	rjmp	.-138    	; 0x64a6 <ZigBee_Channel_Write+0xc>
    6530:	0e 94 5a 31 	call	0x62b4	; 0x62b4 <ZigBee_Write_ch>
    6534:	08 95       	ret

00006536 <ZigBee_Read>:
    6536:	cf 93       	push	r28
    6538:	c0 e0       	ldi	r28, 0x00	; 0
    653a:	c1 30       	cpi	r28, 0x01	; 1
    653c:	a1 f0       	breq	.+40     	; 0x6566 <ZigBee_Read+0x30>
    653e:	28 f0       	brcs	.+10     	; 0x654a <ZigBee_Read+0x14>
    6540:	c2 30       	cpi	r28, 0x02	; 2
    6542:	b1 f0       	breq	.+44     	; 0x6570 <ZigBee_Read+0x3a>
    6544:	c3 30       	cpi	r28, 0x03	; 3
    6546:	c9 f0       	breq	.+50     	; 0x657a <ZigBee_Read+0x44>
    6548:	1c c0       	rjmp	.+56     	; 0x6582 <ZigBee_Read+0x4c>
    654a:	80 e5       	ldi	r24, 0x50	; 80
    654c:	91 e4       	ldi	r25, 0x41	; 65
    654e:	0e 94 95 2d 	call	0x5b2a	; 0x5b2a <USART3_SendString>
    6552:	2f ef       	ldi	r18, 0xFF	; 255
    6554:	8f ef       	ldi	r24, 0xFF	; 255
    6556:	9c e2       	ldi	r25, 0x2C	; 44
    6558:	21 50       	subi	r18, 0x01	; 1
    655a:	80 40       	sbci	r24, 0x00	; 0
    655c:	90 40       	sbci	r25, 0x00	; 0
    655e:	e1 f7       	brne	.-8      	; 0x6558 <ZigBee_Read+0x22>
    6560:	00 c0       	rjmp	.+0      	; 0x6562 <ZigBee_Read+0x2c>
    6562:	00 00       	nop
    6564:	0e c0       	rjmp	.+28     	; 0x6582 <ZigBee_Read+0x4c>
    6566:	8a e6       	ldi	r24, 0x6A	; 106
    6568:	91 e4       	ldi	r25, 0x41	; 65
    656a:	0e 94 95 2d 	call	0x5b2a	; 0x5b2a <USART3_SendString>
    656e:	09 c0       	rjmp	.+18     	; 0x6582 <ZigBee_Read+0x4c>
    6570:	80 e7       	ldi	r24, 0x70	; 112
    6572:	91 e4       	ldi	r25, 0x41	; 65
    6574:	0e 94 95 2d 	call	0x5b2a	; 0x5b2a <USART3_SendString>
    6578:	04 c0       	rjmp	.+8      	; 0x6582 <ZigBee_Read+0x4c>
    657a:	8f e5       	ldi	r24, 0x5F	; 95
    657c:	91 e4       	ldi	r25, 0x41	; 65
    657e:	0e 94 95 2d 	call	0x5b2a	; 0x5b2a <USART3_SendString>
    6582:	80 e0       	ldi	r24, 0x00	; 0
    6584:	30 c1       	rjmp	.+608    	; 0x67e6 <ZigBee_Read+0x2b0>
    6586:	c1 11       	cpse	r28, r1
    6588:	25 c0       	rjmp	.+74     	; 0x65d4 <ZigBee_Read+0x9e>
    658a:	28 2f       	mov	r18, r24
    658c:	30 e0       	ldi	r19, 0x00	; 0
    658e:	f9 01       	movw	r30, r18
    6590:	e6 57       	subi	r30, 0x76	; 118
    6592:	fe 4a       	sbci	r31, 0xAE	; 174
    6594:	90 81       	ld	r25, Z
    6596:	9f 34       	cpi	r25, 0x4F	; 79
    6598:	e9 f4       	brne	.+58     	; 0x65d4 <ZigBee_Read+0x9e>
    659a:	f9 01       	movw	r30, r18
    659c:	e5 57       	subi	r30, 0x75	; 117
    659e:	fe 4a       	sbci	r31, 0xAE	; 174
    65a0:	90 81       	ld	r25, Z
    65a2:	9b 34       	cpi	r25, 0x4B	; 75
    65a4:	b9 f4       	brne	.+46     	; 0x65d4 <ZigBee_Read+0x9e>
    65a6:	f9 01       	movw	r30, r18
    65a8:	e4 57       	subi	r30, 0x74	; 116
    65aa:	fe 4a       	sbci	r31, 0xAE	; 174
    65ac:	90 81       	ld	r25, Z
    65ae:	9d 30       	cpi	r25, 0x0D	; 13
    65b0:	89 f4       	brne	.+34     	; 0x65d4 <ZigBee_Read+0x9e>
    65b2:	83 e0       	ldi	r24, 0x03	; 3
    65b4:	90 e0       	ldi	r25, 0x00	; 0
    65b6:	0e 94 42 04 	call	0x884	; 0x884 <Beep>
    65ba:	2f ef       	ldi	r18, 0xFF	; 255
    65bc:	8f e3       	ldi	r24, 0x3F	; 63
    65be:	92 e0       	ldi	r25, 0x02	; 2
    65c0:	21 50       	subi	r18, 0x01	; 1
    65c2:	80 40       	sbci	r24, 0x00	; 0
    65c4:	90 40       	sbci	r25, 0x00	; 0
    65c6:	e1 f7       	brne	.-8      	; 0x65c0 <ZigBee_Read+0x8a>
    65c8:	00 c0       	rjmp	.+0      	; 0x65ca <ZigBee_Read+0x94>
    65ca:	00 00       	nop
    65cc:	0e 94 b3 2d 	call	0x5b66	; 0x5b66 <Rx3_Buff_Clear>
    65d0:	c1 e0       	ldi	r28, 0x01	; 1
    65d2:	0c c1       	rjmp	.+536    	; 0x67ec <ZigBee_Read+0x2b6>
    65d4:	c1 30       	cpi	r28, 0x01	; 1
    65d6:	09 f0       	breq	.+2      	; 0x65da <ZigBee_Read+0xa4>
    65d8:	4e c0       	rjmp	.+156    	; 0x6676 <ZigBee_Read+0x140>
    65da:	28 2f       	mov	r18, r24
    65dc:	30 e0       	ldi	r19, 0x00	; 0
    65de:	f9 01       	movw	r30, r18
    65e0:	e6 57       	subi	r30, 0x76	; 118
    65e2:	fe 4a       	sbci	r31, 0xAE	; 174
    65e4:	90 81       	ld	r25, Z
    65e6:	9d 30       	cpi	r25, 0x0D	; 13
    65e8:	09 f0       	breq	.+2      	; 0x65ec <ZigBee_Read+0xb6>
    65ea:	45 c0       	rjmp	.+138    	; 0x6676 <ZigBee_Read+0x140>
    65ec:	81 30       	cpi	r24, 0x01	; 1
    65ee:	19 f0       	breq	.+6      	; 0x65f6 <ZigBee_Read+0xc0>
    65f0:	82 30       	cpi	r24, 0x02	; 2
    65f2:	49 f0       	breq	.+18     	; 0x6606 <ZigBee_Read+0xd0>
    65f4:	2f c0       	rjmp	.+94     	; 0x6654 <ZigBee_Read+0x11e>
    65f6:	f9 01       	movw	r30, r18
    65f8:	e7 57       	subi	r30, 0x77	; 119
    65fa:	fe 4a       	sbci	r31, 0xAE	; 174
    65fc:	80 81       	ld	r24, Z
    65fe:	83 54       	subi	r24, 0x43	; 67
    6600:	80 93 ec 50 	sts	0x50EC, r24	; 0x8050ec <ZB_ch>
    6604:	27 c0       	rjmp	.+78     	; 0x6654 <ZigBee_Read+0x11e>
    6606:	f9 01       	movw	r30, r18
    6608:	e7 57       	subi	r30, 0x77	; 119
    660a:	fe 4a       	sbci	r31, 0xAE	; 174
    660c:	80 81       	ld	r24, Z
    660e:	8a 33       	cpi	r24, 0x3A	; 58
    6610:	88 f4       	brcc	.+34     	; 0x6634 <ZigBee_Read+0xfe>
    6612:	f9 01       	movw	r30, r18
    6614:	e8 57       	subi	r30, 0x78	; 120
    6616:	fe 4a       	sbci	r31, 0xAE	; 174
    6618:	20 81       	ld	r18, Z
    661a:	30 e0       	ldi	r19, 0x00	; 0
    661c:	20 53       	subi	r18, 0x30	; 48
    661e:	31 09       	sbc	r19, r1
    6620:	22 0f       	add	r18, r18
    6622:	92 2f       	mov	r25, r18
    6624:	99 0f       	add	r25, r25
    6626:	99 0f       	add	r25, r25
    6628:	29 0f       	add	r18, r25
    662a:	82 0f       	add	r24, r18
    662c:	86 53       	subi	r24, 0x36	; 54
    662e:	80 93 ec 50 	sts	0x50EC, r24	; 0x8050ec <ZB_ch>
    6632:	10 c0       	rjmp	.+32     	; 0x6654 <ZigBee_Read+0x11e>
    6634:	f9 01       	movw	r30, r18
    6636:	e8 57       	subi	r30, 0x78	; 120
    6638:	fe 4a       	sbci	r31, 0xAE	; 174
    663a:	20 81       	ld	r18, Z
    663c:	30 e0       	ldi	r19, 0x00	; 0
    663e:	20 53       	subi	r18, 0x30	; 48
    6640:	31 09       	sbc	r19, r1
    6642:	22 0f       	add	r18, r18
    6644:	92 2f       	mov	r25, r18
    6646:	99 0f       	add	r25, r25
    6648:	99 0f       	add	r25, r25
    664a:	29 0f       	add	r18, r25
    664c:	82 0f       	add	r24, r18
    664e:	8d 53       	subi	r24, 0x3D	; 61
    6650:	80 93 ec 50 	sts	0x50EC, r24	; 0x8050ec <ZB_ch>
    6654:	83 e0       	ldi	r24, 0x03	; 3
    6656:	90 e0       	ldi	r25, 0x00	; 0
    6658:	0e 94 42 04 	call	0x884	; 0x884 <Beep>
    665c:	2f ef       	ldi	r18, 0xFF	; 255
    665e:	8f e3       	ldi	r24, 0x3F	; 63
    6660:	92 e0       	ldi	r25, 0x02	; 2
    6662:	21 50       	subi	r18, 0x01	; 1
    6664:	80 40       	sbci	r24, 0x00	; 0
    6666:	90 40       	sbci	r25, 0x00	; 0
    6668:	e1 f7       	brne	.-8      	; 0x6662 <ZigBee_Read+0x12c>
    666a:	00 c0       	rjmp	.+0      	; 0x666c <ZigBee_Read+0x136>
    666c:	00 00       	nop
    666e:	0e 94 b3 2d 	call	0x5b66	; 0x5b66 <Rx3_Buff_Clear>
    6672:	c2 e0       	ldi	r28, 0x02	; 2
    6674:	bb c0       	rjmp	.+374    	; 0x67ec <ZigBee_Read+0x2b6>
    6676:	c2 30       	cpi	r28, 0x02	; 2
    6678:	09 f0       	breq	.+2      	; 0x667c <ZigBee_Read+0x146>
    667a:	8d c0       	rjmp	.+282    	; 0x6796 <ZigBee_Read+0x260>
    667c:	28 2f       	mov	r18, r24
    667e:	30 e0       	ldi	r19, 0x00	; 0
    6680:	f9 01       	movw	r30, r18
    6682:	e6 57       	subi	r30, 0x76	; 118
    6684:	fe 4a       	sbci	r31, 0xAE	; 174
    6686:	90 81       	ld	r25, Z
    6688:	9d 30       	cpi	r25, 0x0D	; 13
    668a:	09 f0       	breq	.+2      	; 0x668e <ZigBee_Read+0x158>
    668c:	84 c0       	rjmp	.+264    	; 0x6796 <ZigBee_Read+0x260>
    668e:	82 30       	cpi	r24, 0x02	; 2
    6690:	a9 f0       	breq	.+42     	; 0x66bc <ZigBee_Read+0x186>
    6692:	18 f4       	brcc	.+6      	; 0x669a <ZigBee_Read+0x164>
    6694:	81 30       	cpi	r24, 0x01	; 1
    6696:	39 f0       	breq	.+14     	; 0x66a6 <ZigBee_Read+0x170>
    6698:	6d c0       	rjmp	.+218    	; 0x6774 <ZigBee_Read+0x23e>
    669a:	83 30       	cpi	r24, 0x03	; 3
    669c:	21 f1       	breq	.+72     	; 0x66e6 <ZigBee_Read+0x1b0>
    669e:	84 30       	cpi	r24, 0x04	; 4
    66a0:	09 f4       	brne	.+2      	; 0x66a4 <ZigBee_Read+0x16e>
    66a2:	40 c0       	rjmp	.+128    	; 0x6724 <ZigBee_Read+0x1ee>
    66a4:	67 c0       	rjmp	.+206    	; 0x6774 <ZigBee_Read+0x23e>
    66a6:	f9 01       	movw	r30, r18
    66a8:	e7 57       	subi	r30, 0x77	; 119
    66aa:	fe 4a       	sbci	r31, 0xAE	; 174
    66ac:	80 81       	ld	r24, Z
    66ae:	90 e0       	ldi	r25, 0x00	; 0
    66b0:	c0 97       	sbiw	r24, 0x30	; 48
    66b2:	80 93 ed 50 	sts	0x50ED, r24	; 0x8050ed <Pan_id_1>
    66b6:	90 93 ee 50 	sts	0x50EE, r25	; 0x8050ee <Pan_id_1+0x1>
    66ba:	5c c0       	rjmp	.+184    	; 0x6774 <ZigBee_Read+0x23e>
    66bc:	f9 01       	movw	r30, r18
    66be:	e8 57       	subi	r30, 0x78	; 120
    66c0:	fe 4a       	sbci	r31, 0xAE	; 174
    66c2:	80 81       	ld	r24, Z
    66c4:	90 e0       	ldi	r25, 0x00	; 0
    66c6:	c0 97       	sbiw	r24, 0x30	; 48
    66c8:	80 93 0e 51 	sts	0x510E, r24	; 0x80510e <Pan_id_10>
    66cc:	90 93 0f 51 	sts	0x510F, r25	; 0x80510f <Pan_id_10+0x1>
    66d0:	f9 01       	movw	r30, r18
    66d2:	e7 57       	subi	r30, 0x77	; 119
    66d4:	fe 4a       	sbci	r31, 0xAE	; 174
    66d6:	80 81       	ld	r24, Z
    66d8:	90 e0       	ldi	r25, 0x00	; 0
    66da:	c0 97       	sbiw	r24, 0x30	; 48
    66dc:	80 93 ed 50 	sts	0x50ED, r24	; 0x8050ed <Pan_id_1>
    66e0:	90 93 ee 50 	sts	0x50EE, r25	; 0x8050ee <Pan_id_1+0x1>
    66e4:	47 c0       	rjmp	.+142    	; 0x6774 <ZigBee_Read+0x23e>
    66e6:	f9 01       	movw	r30, r18
    66e8:	e9 57       	subi	r30, 0x79	; 121
    66ea:	fe 4a       	sbci	r31, 0xAE	; 174
    66ec:	80 81       	ld	r24, Z
    66ee:	90 e0       	ldi	r25, 0x00	; 0
    66f0:	c0 97       	sbiw	r24, 0x30	; 48
    66f2:	80 93 ab 41 	sts	0x41AB, r24	; 0x8041ab <Pan_id_100>
    66f6:	90 93 ac 41 	sts	0x41AC, r25	; 0x8041ac <Pan_id_100+0x1>
    66fa:	f9 01       	movw	r30, r18
    66fc:	e8 57       	subi	r30, 0x78	; 120
    66fe:	fe 4a       	sbci	r31, 0xAE	; 174
    6700:	80 81       	ld	r24, Z
    6702:	90 e0       	ldi	r25, 0x00	; 0
    6704:	c0 97       	sbiw	r24, 0x30	; 48
    6706:	80 93 0e 51 	sts	0x510E, r24	; 0x80510e <Pan_id_10>
    670a:	90 93 0f 51 	sts	0x510F, r25	; 0x80510f <Pan_id_10+0x1>
    670e:	f9 01       	movw	r30, r18
    6710:	e7 57       	subi	r30, 0x77	; 119
    6712:	fe 4a       	sbci	r31, 0xAE	; 174
    6714:	80 81       	ld	r24, Z
    6716:	90 e0       	ldi	r25, 0x00	; 0
    6718:	c0 97       	sbiw	r24, 0x30	; 48
    671a:	80 93 ed 50 	sts	0x50ED, r24	; 0x8050ed <Pan_id_1>
    671e:	90 93 ee 50 	sts	0x50EE, r25	; 0x8050ee <Pan_id_1+0x1>
    6722:	28 c0       	rjmp	.+80     	; 0x6774 <ZigBee_Read+0x23e>
    6724:	f9 01       	movw	r30, r18
    6726:	ea 57       	subi	r30, 0x7A	; 122
    6728:	fe 4a       	sbci	r31, 0xAE	; 174
    672a:	80 81       	ld	r24, Z
    672c:	90 e0       	ldi	r25, 0x00	; 0
    672e:	c0 97       	sbiw	r24, 0x30	; 48
    6730:	80 93 4c 51 	sts	0x514C, r24	; 0x80514c <Pan_id_1000>
    6734:	90 93 4d 51 	sts	0x514D, r25	; 0x80514d <Pan_id_1000+0x1>
    6738:	f9 01       	movw	r30, r18
    673a:	e9 57       	subi	r30, 0x79	; 121
    673c:	fe 4a       	sbci	r31, 0xAE	; 174
    673e:	80 81       	ld	r24, Z
    6740:	90 e0       	ldi	r25, 0x00	; 0
    6742:	c0 97       	sbiw	r24, 0x30	; 48
    6744:	80 93 ab 41 	sts	0x41AB, r24	; 0x8041ab <Pan_id_100>
    6748:	90 93 ac 41 	sts	0x41AC, r25	; 0x8041ac <Pan_id_100+0x1>
    674c:	f9 01       	movw	r30, r18
    674e:	e8 57       	subi	r30, 0x78	; 120
    6750:	fe 4a       	sbci	r31, 0xAE	; 174
    6752:	80 81       	ld	r24, Z
    6754:	90 e0       	ldi	r25, 0x00	; 0
    6756:	c0 97       	sbiw	r24, 0x30	; 48
    6758:	80 93 0e 51 	sts	0x510E, r24	; 0x80510e <Pan_id_10>
    675c:	90 93 0f 51 	sts	0x510F, r25	; 0x80510f <Pan_id_10+0x1>
    6760:	f9 01       	movw	r30, r18
    6762:	e7 57       	subi	r30, 0x77	; 119
    6764:	fe 4a       	sbci	r31, 0xAE	; 174
    6766:	80 81       	ld	r24, Z
    6768:	90 e0       	ldi	r25, 0x00	; 0
    676a:	c0 97       	sbiw	r24, 0x30	; 48
    676c:	80 93 ed 50 	sts	0x50ED, r24	; 0x8050ed <Pan_id_1>
    6770:	90 93 ee 50 	sts	0x50EE, r25	; 0x8050ee <Pan_id_1+0x1>
    6774:	83 e0       	ldi	r24, 0x03	; 3
    6776:	90 e0       	ldi	r25, 0x00	; 0
    6778:	0e 94 42 04 	call	0x884	; 0x884 <Beep>
    677c:	2f ef       	ldi	r18, 0xFF	; 255
    677e:	8f e3       	ldi	r24, 0x3F	; 63
    6780:	92 e0       	ldi	r25, 0x02	; 2
    6782:	21 50       	subi	r18, 0x01	; 1
    6784:	80 40       	sbci	r24, 0x00	; 0
    6786:	90 40       	sbci	r25, 0x00	; 0
    6788:	e1 f7       	brne	.-8      	; 0x6782 <ZigBee_Read+0x24c>
    678a:	00 c0       	rjmp	.+0      	; 0x678c <ZigBee_Read+0x256>
    678c:	00 00       	nop
    678e:	0e 94 b3 2d 	call	0x5b66	; 0x5b66 <Rx3_Buff_Clear>
    6792:	c3 e0       	ldi	r28, 0x03	; 3
    6794:	2b c0       	rjmp	.+86     	; 0x67ec <ZigBee_Read+0x2b6>
    6796:	c3 30       	cpi	r28, 0x03	; 3
    6798:	29 f5       	brne	.+74     	; 0x67e4 <ZigBee_Read+0x2ae>
    679a:	28 2f       	mov	r18, r24
    679c:	30 e0       	ldi	r19, 0x00	; 0
    679e:	f9 01       	movw	r30, r18
    67a0:	e6 57       	subi	r30, 0x76	; 118
    67a2:	fe 4a       	sbci	r31, 0xAE	; 174
    67a4:	90 81       	ld	r25, Z
    67a6:	9f 34       	cpi	r25, 0x4F	; 79
    67a8:	e9 f4       	brne	.+58     	; 0x67e4 <ZigBee_Read+0x2ae>
    67aa:	f9 01       	movw	r30, r18
    67ac:	e5 57       	subi	r30, 0x75	; 117
    67ae:	fe 4a       	sbci	r31, 0xAE	; 174
    67b0:	90 81       	ld	r25, Z
    67b2:	9b 34       	cpi	r25, 0x4B	; 75
    67b4:	b9 f4       	brne	.+46     	; 0x67e4 <ZigBee_Read+0x2ae>
    67b6:	f9 01       	movw	r30, r18
    67b8:	e4 57       	subi	r30, 0x74	; 116
    67ba:	fe 4a       	sbci	r31, 0xAE	; 174
    67bc:	90 81       	ld	r25, Z
    67be:	9d 30       	cpi	r25, 0x0D	; 13
    67c0:	89 f4       	brne	.+34     	; 0x67e4 <ZigBee_Read+0x2ae>
    67c2:	83 e0       	ldi	r24, 0x03	; 3
    67c4:	90 e0       	ldi	r25, 0x00	; 0
    67c6:	0e 94 42 04 	call	0x884	; 0x884 <Beep>
    67ca:	2f ef       	ldi	r18, 0xFF	; 255
    67cc:	8f e3       	ldi	r24, 0x3F	; 63
    67ce:	92 e0       	ldi	r25, 0x02	; 2
    67d0:	21 50       	subi	r18, 0x01	; 1
    67d2:	80 40       	sbci	r24, 0x00	; 0
    67d4:	90 40       	sbci	r25, 0x00	; 0
    67d6:	e1 f7       	brne	.-8      	; 0x67d0 <ZigBee_Read+0x29a>
    67d8:	00 c0       	rjmp	.+0      	; 0x67da <ZigBee_Read+0x2a4>
    67da:	00 00       	nop
    67dc:	0e 94 b3 2d 	call	0x5b66	; 0x5b66 <Rx3_Buff_Clear>
    67e0:	c5 e0       	ldi	r28, 0x05	; 5
    67e2:	04 c0       	rjmp	.+8      	; 0x67ec <ZigBee_Read+0x2b6>
    67e4:	8f 5f       	subi	r24, 0xFF	; 255
    67e6:	8a 3f       	cpi	r24, 0xFA	; 250
    67e8:	08 f4       	brcc	.+2      	; 0x67ec <ZigBee_Read+0x2b6>
    67ea:	cd ce       	rjmp	.-614    	; 0x6586 <ZigBee_Read+0x50>
    67ec:	0e 94 7e 0e 	call	0x1cfc	; 0x1cfc <wdt_reset>
    67f0:	c5 30       	cpi	r28, 0x05	; 5
    67f2:	09 f0       	breq	.+2      	; 0x67f6 <ZigBee_Read+0x2c0>
    67f4:	a2 ce       	rjmp	.-700    	; 0x653a <ZigBee_Read+0x4>
    67f6:	cf 91       	pop	r28
    67f8:	08 95       	ret

000067fa <ZigBee_Set>:
    67fa:	ef 92       	push	r14
    67fc:	ff 92       	push	r15
    67fe:	0f 93       	push	r16
    6800:	1f 93       	push	r17
    6802:	cf 93       	push	r28
    6804:	10 92 11 51 	sts	0x5111, r1	; 0x805111 <SET+0x1>
    6808:	4c e0       	ldi	r20, 0x0C	; 12
    680a:	62 e0       	ldi	r22, 0x02	; 2
    680c:	80 e0       	ldi	r24, 0x00	; 0
    680e:	0e 94 d2 05 	call	0xba4	; 0xba4 <FND_Value_Data>
    6812:	0e 94 9b 32 	call	0x6536	; 0x6536 <ZigBee_Read>
    6816:	c1 e0       	ldi	r28, 0x01	; 1
    6818:	49 c1       	rjmp	.+658    	; 0x6aac <ZigBee_Set+0x2b2>
    681a:	80 91 50 51 	lds	r24, 0x5150	; 0x805150 <KEY+0x1>
    681e:	88 23       	and	r24, r24
    6820:	99 f0       	breq	.+38     	; 0x6848 <ZigBee_Set+0x4e>
    6822:	80 91 51 51 	lds	r24, 0x5151	; 0x805151 <KEY+0x2>
    6826:	81 30       	cpi	r24, 0x01	; 1
    6828:	31 f4       	brne	.+12     	; 0x6836 <ZigBee_Set+0x3c>
    682a:	c3 30       	cpi	r28, 0x03	; 3
    682c:	20 f4       	brcc	.+8      	; 0x6836 <ZigBee_Set+0x3c>
    682e:	cf 5f       	subi	r28, 0xFF	; 255
    6830:	10 92 51 51 	sts	0x5151, r1	; 0x805151 <KEY+0x2>
    6834:	09 c0       	rjmp	.+18     	; 0x6848 <ZigBee_Set+0x4e>
    6836:	80 91 51 51 	lds	r24, 0x5151	; 0x805151 <KEY+0x2>
    683a:	83 30       	cpi	r24, 0x03	; 3
    683c:	29 f4       	brne	.+10     	; 0x6848 <ZigBee_Set+0x4e>
    683e:	cc 23       	and	r28, r28
    6840:	19 f0       	breq	.+6      	; 0x6848 <ZigBee_Set+0x4e>
    6842:	c1 50       	subi	r28, 0x01	; 1
    6844:	10 92 51 51 	sts	0x5151, r1	; 0x805151 <KEY+0x2>
    6848:	ec 2f       	mov	r30, r28
    684a:	f0 e0       	ldi	r31, 0x00	; 0
    684c:	ed 5b       	subi	r30, 0xBD	; 189
    684e:	fe 4b       	sbci	r31, 0xBE	; 190
    6850:	80 81       	ld	r24, Z
    6852:	80 93 81 41 	sts	0x4181, r24	; 0x804181 <DIGIT+0x8>
    6856:	c1 30       	cpi	r28, 0x01	; 1
    6858:	41 f0       	breq	.+16     	; 0x686a <ZigBee_Set+0x70>
    685a:	08 f4       	brcc	.+2      	; 0x685e <ZigBee_Set+0x64>
    685c:	24 c1       	rjmp	.+584    	; 0x6aa6 <ZigBee_Set+0x2ac>
    685e:	c2 30       	cpi	r28, 0x02	; 2
    6860:	b9 f1       	breq	.+110    	; 0x68d0 <ZigBee_Set+0xd6>
    6862:	c3 30       	cpi	r28, 0x03	; 3
    6864:	09 f4       	brne	.+2      	; 0x6868 <ZigBee_Set+0x6e>
    6866:	1d c1       	rjmp	.+570    	; 0x6aa2 <ZigBee_Set+0x2a8>
    6868:	1f c1       	rjmp	.+574    	; 0x6aa8 <ZigBee_Set+0x2ae>
    686a:	e9 e7       	ldi	r30, 0x79	; 121
    686c:	f1 e4       	ldi	r31, 0x41	; 65
    686e:	8a ed       	ldi	r24, 0xDA	; 218
    6870:	83 83       	std	Z+3, r24	; 0x03
    6872:	82 e0       	ldi	r24, 0x02	; 2
    6874:	82 83       	std	Z+2, r24	; 0x02
    6876:	8a e1       	ldi	r24, 0x1A	; 26
    6878:	81 83       	std	Z+1, r24	; 0x01
    687a:	8e e2       	ldi	r24, 0x2E	; 46
    687c:	80 83       	st	Z, r24
    687e:	17 82       	std	Z+7, r1	; 0x07
    6880:	16 82       	std	Z+6, r1	; 0x06
    6882:	40 91 ec 50 	lds	r20, 0x50EC	; 0x8050ec <ZB_ch>
    6886:	8d ec       	ldi	r24, 0xCD	; 205
    6888:	48 9f       	mul	r20, r24
    688a:	81 2d       	mov	r24, r1
    688c:	11 24       	eor	r1, r1
    688e:	86 95       	lsr	r24
    6890:	86 95       	lsr	r24
    6892:	86 95       	lsr	r24
    6894:	28 2f       	mov	r18, r24
    6896:	30 e0       	ldi	r19, 0x00	; 0
    6898:	2d 5b       	subi	r18, 0xBD	; 189
    689a:	3e 4b       	sbci	r19, 0xBE	; 190
    689c:	d9 01       	movw	r26, r18
    689e:	9c 91       	ld	r25, X
    68a0:	95 83       	std	Z+5, r25	; 0x05
    68a2:	88 0f       	add	r24, r24
    68a4:	98 2f       	mov	r25, r24
    68a6:	99 0f       	add	r25, r25
    68a8:	99 0f       	add	r25, r25
    68aa:	89 0f       	add	r24, r25
    68ac:	a4 2f       	mov	r26, r20
    68ae:	a8 1b       	sub	r26, r24
    68b0:	b0 e0       	ldi	r27, 0x00	; 0
    68b2:	ad 5b       	subi	r26, 0xBD	; 189
    68b4:	be 4b       	sbci	r27, 0xBE	; 190
    68b6:	8c 91       	ld	r24, X
    68b8:	84 83       	std	Z+4, r24	; 0x04
    68ba:	13 86       	std	Z+11, r1	; 0x0b
    68bc:	12 86       	std	Z+10, r1	; 0x0a
    68be:	11 86       	std	Z+9, r1	; 0x09
    68c0:	80 91 11 51 	lds	r24, 0x5111	; 0x805111 <SET+0x1>
    68c4:	88 23       	and	r24, r24
    68c6:	09 f4       	brne	.+2      	; 0x68ca <ZigBee_Set+0xd0>
    68c8:	ef c0       	rjmp	.+478    	; 0x6aa8 <ZigBee_Set+0x2ae>
    68ca:	0e 94 4d 32 	call	0x649a	; 0x649a <ZigBee_Channel_Write>
    68ce:	ec c0       	rjmp	.+472    	; 0x6aa8 <ZigBee_Set+0x2ae>
    68d0:	e9 e7       	ldi	r30, 0x79	; 121
    68d2:	f1 e4       	ldi	r31, 0x41	; 65
    68d4:	8a ed       	ldi	r24, 0xDA	; 218
    68d6:	83 83       	std	Z+3, r24	; 0x03
    68d8:	82 e0       	ldi	r24, 0x02	; 2
    68da:	82 83       	std	Z+2, r24	; 0x02
    68dc:	80 e6       	ldi	r24, 0x60	; 96
    68de:	81 83       	std	Z+1, r24	; 0x01
    68e0:	8a e7       	ldi	r24, 0x7A	; 122
    68e2:	80 83       	st	Z, r24
    68e4:	40 91 4c 51 	lds	r20, 0x514C	; 0x80514c <Pan_id_1000>
    68e8:	50 91 4d 51 	lds	r21, 0x514D	; 0x80514d <Pan_id_1000+0x1>
    68ec:	42 95       	swap	r20
    68ee:	52 95       	swap	r21
    68f0:	50 7f       	andi	r21, 0xF0	; 240
    68f2:	54 27       	eor	r21, r20
    68f4:	40 7f       	andi	r20, 0xF0	; 240
    68f6:	54 27       	eor	r21, r20
    68f8:	80 91 ab 41 	lds	r24, 0x41AB	; 0x8041ab <Pan_id_100>
    68fc:	90 91 ac 41 	lds	r25, 0x41AC	; 0x8041ac <Pan_id_100+0x1>
    6900:	48 0f       	add	r20, r24
    6902:	59 1f       	adc	r21, r25
    6904:	42 95       	swap	r20
    6906:	52 95       	swap	r21
    6908:	50 7f       	andi	r21, 0xF0	; 240
    690a:	54 27       	eor	r21, r20
    690c:	40 7f       	andi	r20, 0xF0	; 240
    690e:	54 27       	eor	r21, r20
    6910:	80 91 0e 51 	lds	r24, 0x510E	; 0x80510e <Pan_id_10>
    6914:	90 91 0f 51 	lds	r25, 0x510F	; 0x80510f <Pan_id_10+0x1>
    6918:	48 0f       	add	r20, r24
    691a:	59 1f       	adc	r21, r25
    691c:	42 95       	swap	r20
    691e:	52 95       	swap	r21
    6920:	50 7f       	andi	r21, 0xF0	; 240
    6922:	54 27       	eor	r21, r20
    6924:	40 7f       	andi	r20, 0xF0	; 240
    6926:	54 27       	eor	r21, r20
    6928:	80 91 ed 50 	lds	r24, 0x50ED	; 0x8050ed <Pan_id_1>
    692c:	90 91 ee 50 	lds	r25, 0x50EE	; 0x8050ee <Pan_id_1+0x1>
    6930:	48 0f       	add	r20, r24
    6932:	59 1f       	adc	r21, r25
    6934:	40 93 65 51 	sts	0x5165, r20	; 0x805165 <ZB_id>
    6938:	50 93 66 51 	sts	0x5166, r21	; 0x805166 <ZB_id+0x1>
    693c:	7a 01       	movw	r14, r20
    693e:	f6 94       	lsr	r15
    6940:	e7 94       	ror	r14
    6942:	f6 94       	lsr	r15
    6944:	e7 94       	ror	r14
    6946:	f6 94       	lsr	r15
    6948:	e7 94       	ror	r14
    694a:	f6 94       	lsr	r15
    694c:	e7 94       	ror	r14
    694e:	97 01       	movw	r18, r14
    6950:	a7 e4       	ldi	r26, 0x47	; 71
    6952:	b3 e0       	ldi	r27, 0x03	; 3
    6954:	0e 94 da 3b 	call	0x77b4	; 0x77b4 <__umulhisi3>
    6958:	8c 01       	movw	r16, r24
    695a:	16 95       	lsr	r17
    695c:	07 95       	ror	r16
    695e:	16 95       	lsr	r17
    6960:	07 95       	ror	r16
    6962:	16 95       	lsr	r17
    6964:	07 95       	ror	r16
    6966:	d8 01       	movw	r26, r16
    6968:	ad 5b       	subi	r26, 0xBD	; 189
    696a:	be 4b       	sbci	r27, 0xBE	; 190
    696c:	8c 91       	ld	r24, X
    696e:	87 83       	std	Z+7, r24	; 0x07
    6970:	20 e1       	ldi	r18, 0x10	; 16
    6972:	37 e2       	ldi	r19, 0x27	; 39
    6974:	02 9f       	mul	r16, r18
    6976:	c0 01       	movw	r24, r0
    6978:	03 9f       	mul	r16, r19
    697a:	90 0d       	add	r25, r0
    697c:	12 9f       	mul	r17, r18
    697e:	90 0d       	add	r25, r0
    6980:	11 24       	eor	r1, r1
    6982:	9a 01       	movw	r18, r20
    6984:	28 1b       	sub	r18, r24
    6986:	39 0b       	sbc	r19, r25
    6988:	36 95       	lsr	r19
    698a:	27 95       	ror	r18
    698c:	36 95       	lsr	r19
    698e:	27 95       	ror	r18
    6990:	36 95       	lsr	r19
    6992:	27 95       	ror	r18
    6994:	a5 ec       	ldi	r26, 0xC5	; 197
    6996:	b0 e2       	ldi	r27, 0x20	; 32
    6998:	0e 94 da 3b 	call	0x77b4	; 0x77b4 <__umulhisi3>
    699c:	92 95       	swap	r25
    699e:	82 95       	swap	r24
    69a0:	8f 70       	andi	r24, 0x0F	; 15
    69a2:	89 27       	eor	r24, r25
    69a4:	9f 70       	andi	r25, 0x0F	; 15
    69a6:	89 27       	eor	r24, r25
    69a8:	dc 01       	movw	r26, r24
    69aa:	ad 5b       	subi	r26, 0xBD	; 189
    69ac:	be 4b       	sbci	r27, 0xBE	; 190
    69ae:	8c 91       	ld	r24, X
    69b0:	86 83       	std	Z+6, r24	; 0x06
    69b2:	9a 01       	movw	r18, r20
    69b4:	36 95       	lsr	r19
    69b6:	27 95       	ror	r18
    69b8:	36 95       	lsr	r19
    69ba:	27 95       	ror	r18
    69bc:	36 95       	lsr	r19
    69be:	27 95       	ror	r18
    69c0:	a5 ec       	ldi	r26, 0xC5	; 197
    69c2:	b0 e2       	ldi	r27, 0x20	; 32
    69c4:	0e 94 da 3b 	call	0x77b4	; 0x77b4 <__umulhisi3>
    69c8:	92 95       	swap	r25
    69ca:	82 95       	swap	r24
    69cc:	8f 70       	andi	r24, 0x0F	; 15
    69ce:	89 27       	eor	r24, r25
    69d0:	9f 70       	andi	r25, 0x0F	; 15
    69d2:	89 27       	eor	r24, r25
    69d4:	68 ee       	ldi	r22, 0xE8	; 232
    69d6:	73 e0       	ldi	r23, 0x03	; 3
    69d8:	86 9f       	mul	r24, r22
    69da:	90 01       	movw	r18, r0
    69dc:	87 9f       	mul	r24, r23
    69de:	30 0d       	add	r19, r0
    69e0:	96 9f       	mul	r25, r22
    69e2:	30 0d       	add	r19, r0
    69e4:	11 24       	eor	r1, r1
    69e6:	ca 01       	movw	r24, r20
    69e8:	82 1b       	sub	r24, r18
    69ea:	93 0b       	sbc	r25, r19
    69ec:	9c 01       	movw	r18, r24
    69ee:	36 95       	lsr	r19
    69f0:	27 95       	ror	r18
    69f2:	36 95       	lsr	r19
    69f4:	27 95       	ror	r18
    69f6:	ab e7       	ldi	r26, 0x7B	; 123
    69f8:	b4 e1       	ldi	r27, 0x14	; 20
    69fa:	0e 94 da 3b 	call	0x77b4	; 0x77b4 <__umulhisi3>
    69fe:	96 95       	lsr	r25
    6a00:	87 95       	ror	r24
    6a02:	dc 01       	movw	r26, r24
    6a04:	ad 5b       	subi	r26, 0xBD	; 189
    6a06:	be 4b       	sbci	r27, 0xBE	; 190
    6a08:	8c 91       	ld	r24, X
    6a0a:	85 83       	std	Z+5, r24	; 0x05
    6a0c:	9a 01       	movw	r18, r20
    6a0e:	36 95       	lsr	r19
    6a10:	27 95       	ror	r18
    6a12:	36 95       	lsr	r19
    6a14:	27 95       	ror	r18
    6a16:	ab e7       	ldi	r26, 0x7B	; 123
    6a18:	b4 e1       	ldi	r27, 0x14	; 20
    6a1a:	0e 94 da 3b 	call	0x77b4	; 0x77b4 <__umulhisi3>
    6a1e:	9c 01       	movw	r18, r24
    6a20:	36 95       	lsr	r19
    6a22:	27 95       	ror	r18
    6a24:	64 e6       	ldi	r22, 0x64	; 100
    6a26:	62 9f       	mul	r22, r18
    6a28:	c0 01       	movw	r24, r0
    6a2a:	63 9f       	mul	r22, r19
    6a2c:	90 0d       	add	r25, r0
    6a2e:	11 24       	eor	r1, r1
    6a30:	9a 01       	movw	r18, r20
    6a32:	28 1b       	sub	r18, r24
    6a34:	39 0b       	sbc	r19, r25
    6a36:	ad ec       	ldi	r26, 0xCD	; 205
    6a38:	bc ec       	ldi	r27, 0xCC	; 204
    6a3a:	0e 94 da 3b 	call	0x77b4	; 0x77b4 <__umulhisi3>
    6a3e:	96 95       	lsr	r25
    6a40:	87 95       	ror	r24
    6a42:	96 95       	lsr	r25
    6a44:	87 95       	ror	r24
    6a46:	96 95       	lsr	r25
    6a48:	87 95       	ror	r24
    6a4a:	dc 01       	movw	r26, r24
    6a4c:	ad 5b       	subi	r26, 0xBD	; 189
    6a4e:	be 4b       	sbci	r27, 0xBE	; 190
    6a50:	8c 91       	ld	r24, X
    6a52:	84 83       	std	Z+4, r24	; 0x04
    6a54:	9a 01       	movw	r18, r20
    6a56:	ad ec       	ldi	r26, 0xCD	; 205
    6a58:	bc ec       	ldi	r27, 0xCC	; 204
    6a5a:	0e 94 da 3b 	call	0x77b4	; 0x77b4 <__umulhisi3>
    6a5e:	96 95       	lsr	r25
    6a60:	87 95       	ror	r24
    6a62:	96 95       	lsr	r25
    6a64:	87 95       	ror	r24
    6a66:	96 95       	lsr	r25
    6a68:	87 95       	ror	r24
    6a6a:	9c 01       	movw	r18, r24
    6a6c:	22 0f       	add	r18, r18
    6a6e:	33 1f       	adc	r19, r19
    6a70:	88 0f       	add	r24, r24
    6a72:	99 1f       	adc	r25, r25
    6a74:	88 0f       	add	r24, r24
    6a76:	99 1f       	adc	r25, r25
    6a78:	88 0f       	add	r24, r24
    6a7a:	99 1f       	adc	r25, r25
    6a7c:	82 0f       	add	r24, r18
    6a7e:	93 1f       	adc	r25, r19
    6a80:	9a 01       	movw	r18, r20
    6a82:	28 1b       	sub	r18, r24
    6a84:	39 0b       	sbc	r19, r25
    6a86:	d9 01       	movw	r26, r18
    6a88:	ad 5b       	subi	r26, 0xBD	; 189
    6a8a:	be 4b       	sbci	r27, 0xBE	; 190
    6a8c:	8c 91       	ld	r24, X
    6a8e:	83 87       	std	Z+11, r24	; 0x0b
    6a90:	12 86       	std	Z+10, r1	; 0x0a
    6a92:	11 86       	std	Z+9, r1	; 0x09
    6a94:	80 91 11 51 	lds	r24, 0x5111	; 0x805111 <SET+0x1>
    6a98:	88 23       	and	r24, r24
    6a9a:	31 f0       	breq	.+12     	; 0x6aa8 <ZigBee_Set+0x2ae>
    6a9c:	0e 94 ab 2e 	call	0x5d56	; 0x5d56 <ZigBee_PanID_Write>
    6aa0:	03 c0       	rjmp	.+6      	; 0x6aa8 <ZigBee_Set+0x2ae>
    6aa2:	c1 e0       	ldi	r28, 0x01	; 1
    6aa4:	01 c0       	rjmp	.+2      	; 0x6aa8 <ZigBee_Set+0x2ae>
    6aa6:	c2 e0       	ldi	r28, 0x02	; 2
    6aa8:	0e 94 7e 0e 	call	0x1cfc	; 0x1cfc <wdt_reset>
    6aac:	80 91 10 51 	lds	r24, 0x5110	; 0x805110 <SET>
    6ab0:	81 11       	cpse	r24, r1
    6ab2:	b3 ce       	rjmp	.-666    	; 0x681a <ZigBee_Set+0x20>
    6ab4:	cf 91       	pop	r28
    6ab6:	1f 91       	pop	r17
    6ab8:	0f 91       	pop	r16
    6aba:	ff 90       	pop	r15
    6abc:	ef 90       	pop	r14
    6abe:	08 95       	ret

00006ac0 <__subsf3>:
    6ac0:	50 58       	subi	r21, 0x80	; 128

00006ac2 <__addsf3>:
    6ac2:	bb 27       	eor	r27, r27
    6ac4:	aa 27       	eor	r26, r26
    6ac6:	0e 94 78 35 	call	0x6af0	; 0x6af0 <__addsf3x>
    6aca:	0c 94 30 37 	jmp	0x6e60	; 0x6e60 <__fp_round>
    6ace:	0e 94 22 37 	call	0x6e44	; 0x6e44 <__fp_pscA>
    6ad2:	38 f0       	brcs	.+14     	; 0x6ae2 <__addsf3+0x20>
    6ad4:	0e 94 29 37 	call	0x6e52	; 0x6e52 <__fp_pscB>
    6ad8:	20 f0       	brcs	.+8      	; 0x6ae2 <__addsf3+0x20>
    6ada:	39 f4       	brne	.+14     	; 0x6aea <__addsf3+0x28>
    6adc:	9f 3f       	cpi	r25, 0xFF	; 255
    6ade:	19 f4       	brne	.+6      	; 0x6ae6 <__addsf3+0x24>
    6ae0:	26 f4       	brtc	.+8      	; 0x6aea <__addsf3+0x28>
    6ae2:	0c 94 1f 37 	jmp	0x6e3e	; 0x6e3e <__fp_nan>
    6ae6:	0e f4       	brtc	.+2      	; 0x6aea <__addsf3+0x28>
    6ae8:	e0 95       	com	r30
    6aea:	e7 fb       	bst	r30, 7
    6aec:	0c 94 19 37 	jmp	0x6e32	; 0x6e32 <__fp_inf>

00006af0 <__addsf3x>:
    6af0:	e9 2f       	mov	r30, r25
    6af2:	0e 94 41 37 	call	0x6e82	; 0x6e82 <__fp_split3>
    6af6:	58 f3       	brcs	.-42     	; 0x6ace <__addsf3+0xc>
    6af8:	ba 17       	cp	r27, r26
    6afa:	62 07       	cpc	r22, r18
    6afc:	73 07       	cpc	r23, r19
    6afe:	84 07       	cpc	r24, r20
    6b00:	95 07       	cpc	r25, r21
    6b02:	20 f0       	brcs	.+8      	; 0x6b0c <__addsf3x+0x1c>
    6b04:	79 f4       	brne	.+30     	; 0x6b24 <__addsf3x+0x34>
    6b06:	a6 f5       	brtc	.+104    	; 0x6b70 <__addsf3x+0x80>
    6b08:	0c 94 63 37 	jmp	0x6ec6	; 0x6ec6 <__fp_zero>
    6b0c:	0e f4       	brtc	.+2      	; 0x6b10 <__addsf3x+0x20>
    6b0e:	e0 95       	com	r30
    6b10:	0b 2e       	mov	r0, r27
    6b12:	ba 2f       	mov	r27, r26
    6b14:	a0 2d       	mov	r26, r0
    6b16:	0b 01       	movw	r0, r22
    6b18:	b9 01       	movw	r22, r18
    6b1a:	90 01       	movw	r18, r0
    6b1c:	0c 01       	movw	r0, r24
    6b1e:	ca 01       	movw	r24, r20
    6b20:	a0 01       	movw	r20, r0
    6b22:	11 24       	eor	r1, r1
    6b24:	ff 27       	eor	r31, r31
    6b26:	59 1b       	sub	r21, r25
    6b28:	99 f0       	breq	.+38     	; 0x6b50 <__addsf3x+0x60>
    6b2a:	59 3f       	cpi	r21, 0xF9	; 249
    6b2c:	50 f4       	brcc	.+20     	; 0x6b42 <__addsf3x+0x52>
    6b2e:	50 3e       	cpi	r21, 0xE0	; 224
    6b30:	68 f1       	brcs	.+90     	; 0x6b8c <__addsf3x+0x9c>
    6b32:	1a 16       	cp	r1, r26
    6b34:	f0 40       	sbci	r31, 0x00	; 0
    6b36:	a2 2f       	mov	r26, r18
    6b38:	23 2f       	mov	r18, r19
    6b3a:	34 2f       	mov	r19, r20
    6b3c:	44 27       	eor	r20, r20
    6b3e:	58 5f       	subi	r21, 0xF8	; 248
    6b40:	f3 cf       	rjmp	.-26     	; 0x6b28 <__addsf3x+0x38>
    6b42:	46 95       	lsr	r20
    6b44:	37 95       	ror	r19
    6b46:	27 95       	ror	r18
    6b48:	a7 95       	ror	r26
    6b4a:	f0 40       	sbci	r31, 0x00	; 0
    6b4c:	53 95       	inc	r21
    6b4e:	c9 f7       	brne	.-14     	; 0x6b42 <__addsf3x+0x52>
    6b50:	7e f4       	brtc	.+30     	; 0x6b70 <__addsf3x+0x80>
    6b52:	1f 16       	cp	r1, r31
    6b54:	ba 0b       	sbc	r27, r26
    6b56:	62 0b       	sbc	r22, r18
    6b58:	73 0b       	sbc	r23, r19
    6b5a:	84 0b       	sbc	r24, r20
    6b5c:	ba f0       	brmi	.+46     	; 0x6b8c <__addsf3x+0x9c>
    6b5e:	91 50       	subi	r25, 0x01	; 1
    6b60:	a1 f0       	breq	.+40     	; 0x6b8a <__addsf3x+0x9a>
    6b62:	ff 0f       	add	r31, r31
    6b64:	bb 1f       	adc	r27, r27
    6b66:	66 1f       	adc	r22, r22
    6b68:	77 1f       	adc	r23, r23
    6b6a:	88 1f       	adc	r24, r24
    6b6c:	c2 f7       	brpl	.-16     	; 0x6b5e <__addsf3x+0x6e>
    6b6e:	0e c0       	rjmp	.+28     	; 0x6b8c <__addsf3x+0x9c>
    6b70:	ba 0f       	add	r27, r26
    6b72:	62 1f       	adc	r22, r18
    6b74:	73 1f       	adc	r23, r19
    6b76:	84 1f       	adc	r24, r20
    6b78:	48 f4       	brcc	.+18     	; 0x6b8c <__addsf3x+0x9c>
    6b7a:	87 95       	ror	r24
    6b7c:	77 95       	ror	r23
    6b7e:	67 95       	ror	r22
    6b80:	b7 95       	ror	r27
    6b82:	f7 95       	ror	r31
    6b84:	9e 3f       	cpi	r25, 0xFE	; 254
    6b86:	08 f0       	brcs	.+2      	; 0x6b8a <__addsf3x+0x9a>
    6b88:	b0 cf       	rjmp	.-160    	; 0x6aea <__addsf3+0x28>
    6b8a:	93 95       	inc	r25
    6b8c:	88 0f       	add	r24, r24
    6b8e:	08 f0       	brcs	.+2      	; 0x6b92 <__addsf3x+0xa2>
    6b90:	99 27       	eor	r25, r25
    6b92:	ee 0f       	add	r30, r30
    6b94:	97 95       	ror	r25
    6b96:	87 95       	ror	r24
    6b98:	08 95       	ret

00006b9a <__cmpsf2>:
    6b9a:	0e 94 f5 36 	call	0x6dea	; 0x6dea <__fp_cmp>
    6b9e:	08 f4       	brcc	.+2      	; 0x6ba2 <__cmpsf2+0x8>
    6ba0:	81 e0       	ldi	r24, 0x01	; 1
    6ba2:	08 95       	ret

00006ba4 <__divsf3>:
    6ba4:	0e 94 e6 35 	call	0x6bcc	; 0x6bcc <__divsf3x>
    6ba8:	0c 94 30 37 	jmp	0x6e60	; 0x6e60 <__fp_round>
    6bac:	0e 94 29 37 	call	0x6e52	; 0x6e52 <__fp_pscB>
    6bb0:	58 f0       	brcs	.+22     	; 0x6bc8 <__divsf3+0x24>
    6bb2:	0e 94 22 37 	call	0x6e44	; 0x6e44 <__fp_pscA>
    6bb6:	40 f0       	brcs	.+16     	; 0x6bc8 <__divsf3+0x24>
    6bb8:	29 f4       	brne	.+10     	; 0x6bc4 <__divsf3+0x20>
    6bba:	5f 3f       	cpi	r21, 0xFF	; 255
    6bbc:	29 f0       	breq	.+10     	; 0x6bc8 <__divsf3+0x24>
    6bbe:	0c 94 19 37 	jmp	0x6e32	; 0x6e32 <__fp_inf>
    6bc2:	51 11       	cpse	r21, r1
    6bc4:	0c 94 64 37 	jmp	0x6ec8	; 0x6ec8 <__fp_szero>
    6bc8:	0c 94 1f 37 	jmp	0x6e3e	; 0x6e3e <__fp_nan>

00006bcc <__divsf3x>:
    6bcc:	0e 94 41 37 	call	0x6e82	; 0x6e82 <__fp_split3>
    6bd0:	68 f3       	brcs	.-38     	; 0x6bac <__divsf3+0x8>

00006bd2 <__divsf3_pse>:
    6bd2:	99 23       	and	r25, r25
    6bd4:	b1 f3       	breq	.-20     	; 0x6bc2 <__divsf3+0x1e>
    6bd6:	55 23       	and	r21, r21
    6bd8:	91 f3       	breq	.-28     	; 0x6bbe <__divsf3+0x1a>
    6bda:	95 1b       	sub	r25, r21
    6bdc:	55 0b       	sbc	r21, r21
    6bde:	bb 27       	eor	r27, r27
    6be0:	aa 27       	eor	r26, r26
    6be2:	62 17       	cp	r22, r18
    6be4:	73 07       	cpc	r23, r19
    6be6:	84 07       	cpc	r24, r20
    6be8:	38 f0       	brcs	.+14     	; 0x6bf8 <__divsf3_pse+0x26>
    6bea:	9f 5f       	subi	r25, 0xFF	; 255
    6bec:	5f 4f       	sbci	r21, 0xFF	; 255
    6bee:	22 0f       	add	r18, r18
    6bf0:	33 1f       	adc	r19, r19
    6bf2:	44 1f       	adc	r20, r20
    6bf4:	aa 1f       	adc	r26, r26
    6bf6:	a9 f3       	breq	.-22     	; 0x6be2 <__divsf3_pse+0x10>
    6bf8:	35 d0       	rcall	.+106    	; 0x6c64 <__divsf3_pse+0x92>
    6bfa:	0e 2e       	mov	r0, r30
    6bfc:	3a f0       	brmi	.+14     	; 0x6c0c <__divsf3_pse+0x3a>
    6bfe:	e0 e8       	ldi	r30, 0x80	; 128
    6c00:	32 d0       	rcall	.+100    	; 0x6c66 <__divsf3_pse+0x94>
    6c02:	91 50       	subi	r25, 0x01	; 1
    6c04:	50 40       	sbci	r21, 0x00	; 0
    6c06:	e6 95       	lsr	r30
    6c08:	00 1c       	adc	r0, r0
    6c0a:	ca f7       	brpl	.-14     	; 0x6bfe <__divsf3_pse+0x2c>
    6c0c:	2b d0       	rcall	.+86     	; 0x6c64 <__divsf3_pse+0x92>
    6c0e:	fe 2f       	mov	r31, r30
    6c10:	29 d0       	rcall	.+82     	; 0x6c64 <__divsf3_pse+0x92>
    6c12:	66 0f       	add	r22, r22
    6c14:	77 1f       	adc	r23, r23
    6c16:	88 1f       	adc	r24, r24
    6c18:	bb 1f       	adc	r27, r27
    6c1a:	26 17       	cp	r18, r22
    6c1c:	37 07       	cpc	r19, r23
    6c1e:	48 07       	cpc	r20, r24
    6c20:	ab 07       	cpc	r26, r27
    6c22:	b0 e8       	ldi	r27, 0x80	; 128
    6c24:	09 f0       	breq	.+2      	; 0x6c28 <__divsf3_pse+0x56>
    6c26:	bb 0b       	sbc	r27, r27
    6c28:	80 2d       	mov	r24, r0
    6c2a:	bf 01       	movw	r22, r30
    6c2c:	ff 27       	eor	r31, r31
    6c2e:	93 58       	subi	r25, 0x83	; 131
    6c30:	5f 4f       	sbci	r21, 0xFF	; 255
    6c32:	3a f0       	brmi	.+14     	; 0x6c42 <__divsf3_pse+0x70>
    6c34:	9e 3f       	cpi	r25, 0xFE	; 254
    6c36:	51 05       	cpc	r21, r1
    6c38:	78 f0       	brcs	.+30     	; 0x6c58 <__divsf3_pse+0x86>
    6c3a:	0c 94 19 37 	jmp	0x6e32	; 0x6e32 <__fp_inf>
    6c3e:	0c 94 64 37 	jmp	0x6ec8	; 0x6ec8 <__fp_szero>
    6c42:	5f 3f       	cpi	r21, 0xFF	; 255
    6c44:	e4 f3       	brlt	.-8      	; 0x6c3e <__divsf3_pse+0x6c>
    6c46:	98 3e       	cpi	r25, 0xE8	; 232
    6c48:	d4 f3       	brlt	.-12     	; 0x6c3e <__divsf3_pse+0x6c>
    6c4a:	86 95       	lsr	r24
    6c4c:	77 95       	ror	r23
    6c4e:	67 95       	ror	r22
    6c50:	b7 95       	ror	r27
    6c52:	f7 95       	ror	r31
    6c54:	9f 5f       	subi	r25, 0xFF	; 255
    6c56:	c9 f7       	brne	.-14     	; 0x6c4a <__divsf3_pse+0x78>
    6c58:	88 0f       	add	r24, r24
    6c5a:	91 1d       	adc	r25, r1
    6c5c:	96 95       	lsr	r25
    6c5e:	87 95       	ror	r24
    6c60:	97 f9       	bld	r25, 7
    6c62:	08 95       	ret
    6c64:	e1 e0       	ldi	r30, 0x01	; 1
    6c66:	66 0f       	add	r22, r22
    6c68:	77 1f       	adc	r23, r23
    6c6a:	88 1f       	adc	r24, r24
    6c6c:	bb 1f       	adc	r27, r27
    6c6e:	62 17       	cp	r22, r18
    6c70:	73 07       	cpc	r23, r19
    6c72:	84 07       	cpc	r24, r20
    6c74:	ba 07       	cpc	r27, r26
    6c76:	20 f0       	brcs	.+8      	; 0x6c80 <__divsf3_pse+0xae>
    6c78:	62 1b       	sub	r22, r18
    6c7a:	73 0b       	sbc	r23, r19
    6c7c:	84 0b       	sbc	r24, r20
    6c7e:	ba 0b       	sbc	r27, r26
    6c80:	ee 1f       	adc	r30, r30
    6c82:	88 f7       	brcc	.-30     	; 0x6c66 <__divsf3_pse+0x94>
    6c84:	e0 95       	com	r30
    6c86:	08 95       	ret

00006c88 <__fixsfsi>:
    6c88:	0e 94 4b 36 	call	0x6c96	; 0x6c96 <__fixunssfsi>
    6c8c:	68 94       	set
    6c8e:	b1 11       	cpse	r27, r1
    6c90:	0c 94 64 37 	jmp	0x6ec8	; 0x6ec8 <__fp_szero>
    6c94:	08 95       	ret

00006c96 <__fixunssfsi>:
    6c96:	0e 94 49 37 	call	0x6e92	; 0x6e92 <__fp_splitA>
    6c9a:	88 f0       	brcs	.+34     	; 0x6cbe <__fixunssfsi+0x28>
    6c9c:	9f 57       	subi	r25, 0x7F	; 127
    6c9e:	98 f0       	brcs	.+38     	; 0x6cc6 <__fixunssfsi+0x30>
    6ca0:	b9 2f       	mov	r27, r25
    6ca2:	99 27       	eor	r25, r25
    6ca4:	b7 51       	subi	r27, 0x17	; 23
    6ca6:	b0 f0       	brcs	.+44     	; 0x6cd4 <__fixunssfsi+0x3e>
    6ca8:	e1 f0       	breq	.+56     	; 0x6ce2 <__fixunssfsi+0x4c>
    6caa:	66 0f       	add	r22, r22
    6cac:	77 1f       	adc	r23, r23
    6cae:	88 1f       	adc	r24, r24
    6cb0:	99 1f       	adc	r25, r25
    6cb2:	1a f0       	brmi	.+6      	; 0x6cba <__fixunssfsi+0x24>
    6cb4:	ba 95       	dec	r27
    6cb6:	c9 f7       	brne	.-14     	; 0x6caa <__fixunssfsi+0x14>
    6cb8:	14 c0       	rjmp	.+40     	; 0x6ce2 <__fixunssfsi+0x4c>
    6cba:	b1 30       	cpi	r27, 0x01	; 1
    6cbc:	91 f0       	breq	.+36     	; 0x6ce2 <__fixunssfsi+0x4c>
    6cbe:	0e 94 63 37 	call	0x6ec6	; 0x6ec6 <__fp_zero>
    6cc2:	b1 e0       	ldi	r27, 0x01	; 1
    6cc4:	08 95       	ret
    6cc6:	0c 94 63 37 	jmp	0x6ec6	; 0x6ec6 <__fp_zero>
    6cca:	67 2f       	mov	r22, r23
    6ccc:	78 2f       	mov	r23, r24
    6cce:	88 27       	eor	r24, r24
    6cd0:	b8 5f       	subi	r27, 0xF8	; 248
    6cd2:	39 f0       	breq	.+14     	; 0x6ce2 <__fixunssfsi+0x4c>
    6cd4:	b9 3f       	cpi	r27, 0xF9	; 249
    6cd6:	cc f3       	brlt	.-14     	; 0x6cca <__fixunssfsi+0x34>
    6cd8:	86 95       	lsr	r24
    6cda:	77 95       	ror	r23
    6cdc:	67 95       	ror	r22
    6cde:	b3 95       	inc	r27
    6ce0:	d9 f7       	brne	.-10     	; 0x6cd8 <__fixunssfsi+0x42>
    6ce2:	3e f4       	brtc	.+14     	; 0x6cf2 <__fixunssfsi+0x5c>
    6ce4:	90 95       	com	r25
    6ce6:	80 95       	com	r24
    6ce8:	70 95       	com	r23
    6cea:	61 95       	neg	r22
    6cec:	7f 4f       	sbci	r23, 0xFF	; 255
    6cee:	8f 4f       	sbci	r24, 0xFF	; 255
    6cf0:	9f 4f       	sbci	r25, 0xFF	; 255
    6cf2:	08 95       	ret

00006cf4 <__floatunsisf>:
    6cf4:	e8 94       	clt
    6cf6:	09 c0       	rjmp	.+18     	; 0x6d0a <__floatsisf+0x12>

00006cf8 <__floatsisf>:
    6cf8:	97 fb       	bst	r25, 7
    6cfa:	3e f4       	brtc	.+14     	; 0x6d0a <__floatsisf+0x12>
    6cfc:	90 95       	com	r25
    6cfe:	80 95       	com	r24
    6d00:	70 95       	com	r23
    6d02:	61 95       	neg	r22
    6d04:	7f 4f       	sbci	r23, 0xFF	; 255
    6d06:	8f 4f       	sbci	r24, 0xFF	; 255
    6d08:	9f 4f       	sbci	r25, 0xFF	; 255
    6d0a:	99 23       	and	r25, r25
    6d0c:	a9 f0       	breq	.+42     	; 0x6d38 <__floatsisf+0x40>
    6d0e:	f9 2f       	mov	r31, r25
    6d10:	96 e9       	ldi	r25, 0x96	; 150
    6d12:	bb 27       	eor	r27, r27
    6d14:	93 95       	inc	r25
    6d16:	f6 95       	lsr	r31
    6d18:	87 95       	ror	r24
    6d1a:	77 95       	ror	r23
    6d1c:	67 95       	ror	r22
    6d1e:	b7 95       	ror	r27
    6d20:	f1 11       	cpse	r31, r1
    6d22:	f8 cf       	rjmp	.-16     	; 0x6d14 <__floatsisf+0x1c>
    6d24:	fa f4       	brpl	.+62     	; 0x6d64 <__floatsisf+0x6c>
    6d26:	bb 0f       	add	r27, r27
    6d28:	11 f4       	brne	.+4      	; 0x6d2e <__floatsisf+0x36>
    6d2a:	60 ff       	sbrs	r22, 0
    6d2c:	1b c0       	rjmp	.+54     	; 0x6d64 <__floatsisf+0x6c>
    6d2e:	6f 5f       	subi	r22, 0xFF	; 255
    6d30:	7f 4f       	sbci	r23, 0xFF	; 255
    6d32:	8f 4f       	sbci	r24, 0xFF	; 255
    6d34:	9f 4f       	sbci	r25, 0xFF	; 255
    6d36:	16 c0       	rjmp	.+44     	; 0x6d64 <__floatsisf+0x6c>
    6d38:	88 23       	and	r24, r24
    6d3a:	11 f0       	breq	.+4      	; 0x6d40 <__floatsisf+0x48>
    6d3c:	96 e9       	ldi	r25, 0x96	; 150
    6d3e:	11 c0       	rjmp	.+34     	; 0x6d62 <__floatsisf+0x6a>
    6d40:	77 23       	and	r23, r23
    6d42:	21 f0       	breq	.+8      	; 0x6d4c <__floatsisf+0x54>
    6d44:	9e e8       	ldi	r25, 0x8E	; 142
    6d46:	87 2f       	mov	r24, r23
    6d48:	76 2f       	mov	r23, r22
    6d4a:	05 c0       	rjmp	.+10     	; 0x6d56 <__floatsisf+0x5e>
    6d4c:	66 23       	and	r22, r22
    6d4e:	71 f0       	breq	.+28     	; 0x6d6c <__floatsisf+0x74>
    6d50:	96 e8       	ldi	r25, 0x86	; 134
    6d52:	86 2f       	mov	r24, r22
    6d54:	70 e0       	ldi	r23, 0x00	; 0
    6d56:	60 e0       	ldi	r22, 0x00	; 0
    6d58:	2a f0       	brmi	.+10     	; 0x6d64 <__floatsisf+0x6c>
    6d5a:	9a 95       	dec	r25
    6d5c:	66 0f       	add	r22, r22
    6d5e:	77 1f       	adc	r23, r23
    6d60:	88 1f       	adc	r24, r24
    6d62:	da f7       	brpl	.-10     	; 0x6d5a <__floatsisf+0x62>
    6d64:	88 0f       	add	r24, r24
    6d66:	96 95       	lsr	r25
    6d68:	87 95       	ror	r24
    6d6a:	97 f9       	bld	r25, 7
    6d6c:	08 95       	ret

00006d6e <__floatundisf>:
    6d6e:	e8 94       	clt

00006d70 <__fp_di2sf>:
    6d70:	f9 2f       	mov	r31, r25
    6d72:	96 eb       	ldi	r25, 0xB6	; 182
    6d74:	ff 23       	and	r31, r31
    6d76:	81 f0       	breq	.+32     	; 0x6d98 <__fp_di2sf+0x28>
    6d78:	12 16       	cp	r1, r18
    6d7a:	13 06       	cpc	r1, r19
    6d7c:	14 06       	cpc	r1, r20
    6d7e:	44 0b       	sbc	r20, r20
    6d80:	93 95       	inc	r25
    6d82:	f6 95       	lsr	r31
    6d84:	87 95       	ror	r24
    6d86:	77 95       	ror	r23
    6d88:	67 95       	ror	r22
    6d8a:	57 95       	ror	r21
    6d8c:	40 40       	sbci	r20, 0x00	; 0
    6d8e:	ff 23       	and	r31, r31
    6d90:	b9 f7       	brne	.-18     	; 0x6d80 <__fp_di2sf+0x10>
    6d92:	1b c0       	rjmp	.+54     	; 0x6dca <__fp_di2sf+0x5a>
    6d94:	99 27       	eor	r25, r25
    6d96:	08 95       	ret
    6d98:	88 23       	and	r24, r24
    6d9a:	51 f4       	brne	.+20     	; 0x6db0 <__fp_di2sf+0x40>
    6d9c:	98 50       	subi	r25, 0x08	; 8
    6d9e:	d2 f7       	brpl	.-12     	; 0x6d94 <__fp_di2sf+0x24>
    6da0:	87 2b       	or	r24, r23
    6da2:	76 2f       	mov	r23, r22
    6da4:	65 2f       	mov	r22, r21
    6da6:	54 2f       	mov	r21, r20
    6da8:	43 2f       	mov	r20, r19
    6daa:	32 2f       	mov	r19, r18
    6dac:	20 e0       	ldi	r18, 0x00	; 0
    6dae:	b1 f3       	breq	.-20     	; 0x6d9c <__fp_di2sf+0x2c>
    6db0:	12 16       	cp	r1, r18
    6db2:	13 06       	cpc	r1, r19
    6db4:	14 06       	cpc	r1, r20
    6db6:	44 0b       	sbc	r20, r20
    6db8:	88 23       	and	r24, r24
    6dba:	3a f0       	brmi	.+14     	; 0x6dca <__fp_di2sf+0x5a>
    6dbc:	9a 95       	dec	r25
    6dbe:	44 0f       	add	r20, r20
    6dc0:	55 1f       	adc	r21, r21
    6dc2:	66 1f       	adc	r22, r22
    6dc4:	77 1f       	adc	r23, r23
    6dc6:	88 1f       	adc	r24, r24
    6dc8:	ca f7       	brpl	.-14     	; 0x6dbc <__fp_di2sf+0x4c>
    6dca:	55 23       	and	r21, r21
    6dcc:	4a f4       	brpl	.+18     	; 0x6de0 <__fp_di2sf+0x70>
    6dce:	44 0f       	add	r20, r20
    6dd0:	55 1f       	adc	r21, r21
    6dd2:	11 f4       	brne	.+4      	; 0x6dd8 <__fp_di2sf+0x68>
    6dd4:	60 ff       	sbrs	r22, 0
    6dd6:	04 c0       	rjmp	.+8      	; 0x6de0 <__fp_di2sf+0x70>
    6dd8:	6f 5f       	subi	r22, 0xFF	; 255
    6dda:	7f 4f       	sbci	r23, 0xFF	; 255
    6ddc:	8f 4f       	sbci	r24, 0xFF	; 255
    6dde:	9f 4f       	sbci	r25, 0xFF	; 255
    6de0:	88 0f       	add	r24, r24
    6de2:	96 95       	lsr	r25
    6de4:	87 95       	ror	r24
    6de6:	97 f9       	bld	r25, 7
    6de8:	08 95       	ret

00006dea <__fp_cmp>:
    6dea:	99 0f       	add	r25, r25
    6dec:	00 08       	sbc	r0, r0
    6dee:	55 0f       	add	r21, r21
    6df0:	aa 0b       	sbc	r26, r26
    6df2:	e0 e8       	ldi	r30, 0x80	; 128
    6df4:	fe ef       	ldi	r31, 0xFE	; 254
    6df6:	16 16       	cp	r1, r22
    6df8:	17 06       	cpc	r1, r23
    6dfa:	e8 07       	cpc	r30, r24
    6dfc:	f9 07       	cpc	r31, r25
    6dfe:	c0 f0       	brcs	.+48     	; 0x6e30 <__fp_cmp+0x46>
    6e00:	12 16       	cp	r1, r18
    6e02:	13 06       	cpc	r1, r19
    6e04:	e4 07       	cpc	r30, r20
    6e06:	f5 07       	cpc	r31, r21
    6e08:	98 f0       	brcs	.+38     	; 0x6e30 <__fp_cmp+0x46>
    6e0a:	62 1b       	sub	r22, r18
    6e0c:	73 0b       	sbc	r23, r19
    6e0e:	84 0b       	sbc	r24, r20
    6e10:	95 0b       	sbc	r25, r21
    6e12:	39 f4       	brne	.+14     	; 0x6e22 <__fp_cmp+0x38>
    6e14:	0a 26       	eor	r0, r26
    6e16:	61 f0       	breq	.+24     	; 0x6e30 <__fp_cmp+0x46>
    6e18:	23 2b       	or	r18, r19
    6e1a:	24 2b       	or	r18, r20
    6e1c:	25 2b       	or	r18, r21
    6e1e:	21 f4       	brne	.+8      	; 0x6e28 <__fp_cmp+0x3e>
    6e20:	08 95       	ret
    6e22:	0a 26       	eor	r0, r26
    6e24:	09 f4       	brne	.+2      	; 0x6e28 <__fp_cmp+0x3e>
    6e26:	a1 40       	sbci	r26, 0x01	; 1
    6e28:	a6 95       	lsr	r26
    6e2a:	8f ef       	ldi	r24, 0xFF	; 255
    6e2c:	81 1d       	adc	r24, r1
    6e2e:	81 1d       	adc	r24, r1
    6e30:	08 95       	ret

00006e32 <__fp_inf>:
    6e32:	97 f9       	bld	r25, 7
    6e34:	9f 67       	ori	r25, 0x7F	; 127
    6e36:	80 e8       	ldi	r24, 0x80	; 128
    6e38:	70 e0       	ldi	r23, 0x00	; 0
    6e3a:	60 e0       	ldi	r22, 0x00	; 0
    6e3c:	08 95       	ret

00006e3e <__fp_nan>:
    6e3e:	9f ef       	ldi	r25, 0xFF	; 255
    6e40:	80 ec       	ldi	r24, 0xC0	; 192
    6e42:	08 95       	ret

00006e44 <__fp_pscA>:
    6e44:	00 24       	eor	r0, r0
    6e46:	0a 94       	dec	r0
    6e48:	16 16       	cp	r1, r22
    6e4a:	17 06       	cpc	r1, r23
    6e4c:	18 06       	cpc	r1, r24
    6e4e:	09 06       	cpc	r0, r25
    6e50:	08 95       	ret

00006e52 <__fp_pscB>:
    6e52:	00 24       	eor	r0, r0
    6e54:	0a 94       	dec	r0
    6e56:	12 16       	cp	r1, r18
    6e58:	13 06       	cpc	r1, r19
    6e5a:	14 06       	cpc	r1, r20
    6e5c:	05 06       	cpc	r0, r21
    6e5e:	08 95       	ret

00006e60 <__fp_round>:
    6e60:	09 2e       	mov	r0, r25
    6e62:	03 94       	inc	r0
    6e64:	00 0c       	add	r0, r0
    6e66:	11 f4       	brne	.+4      	; 0x6e6c <__fp_round+0xc>
    6e68:	88 23       	and	r24, r24
    6e6a:	52 f0       	brmi	.+20     	; 0x6e80 <__fp_round+0x20>
    6e6c:	bb 0f       	add	r27, r27
    6e6e:	40 f4       	brcc	.+16     	; 0x6e80 <__fp_round+0x20>
    6e70:	bf 2b       	or	r27, r31
    6e72:	11 f4       	brne	.+4      	; 0x6e78 <__fp_round+0x18>
    6e74:	60 ff       	sbrs	r22, 0
    6e76:	04 c0       	rjmp	.+8      	; 0x6e80 <__fp_round+0x20>
    6e78:	6f 5f       	subi	r22, 0xFF	; 255
    6e7a:	7f 4f       	sbci	r23, 0xFF	; 255
    6e7c:	8f 4f       	sbci	r24, 0xFF	; 255
    6e7e:	9f 4f       	sbci	r25, 0xFF	; 255
    6e80:	08 95       	ret

00006e82 <__fp_split3>:
    6e82:	57 fd       	sbrc	r21, 7
    6e84:	90 58       	subi	r25, 0x80	; 128
    6e86:	44 0f       	add	r20, r20
    6e88:	55 1f       	adc	r21, r21
    6e8a:	59 f0       	breq	.+22     	; 0x6ea2 <__fp_splitA+0x10>
    6e8c:	5f 3f       	cpi	r21, 0xFF	; 255
    6e8e:	71 f0       	breq	.+28     	; 0x6eac <__fp_splitA+0x1a>
    6e90:	47 95       	ror	r20

00006e92 <__fp_splitA>:
    6e92:	88 0f       	add	r24, r24
    6e94:	97 fb       	bst	r25, 7
    6e96:	99 1f       	adc	r25, r25
    6e98:	61 f0       	breq	.+24     	; 0x6eb2 <__fp_splitA+0x20>
    6e9a:	9f 3f       	cpi	r25, 0xFF	; 255
    6e9c:	79 f0       	breq	.+30     	; 0x6ebc <__fp_splitA+0x2a>
    6e9e:	87 95       	ror	r24
    6ea0:	08 95       	ret
    6ea2:	12 16       	cp	r1, r18
    6ea4:	13 06       	cpc	r1, r19
    6ea6:	14 06       	cpc	r1, r20
    6ea8:	55 1f       	adc	r21, r21
    6eaa:	f2 cf       	rjmp	.-28     	; 0x6e90 <__fp_split3+0xe>
    6eac:	46 95       	lsr	r20
    6eae:	f1 df       	rcall	.-30     	; 0x6e92 <__fp_splitA>
    6eb0:	08 c0       	rjmp	.+16     	; 0x6ec2 <__fp_splitA+0x30>
    6eb2:	16 16       	cp	r1, r22
    6eb4:	17 06       	cpc	r1, r23
    6eb6:	18 06       	cpc	r1, r24
    6eb8:	99 1f       	adc	r25, r25
    6eba:	f1 cf       	rjmp	.-30     	; 0x6e9e <__fp_splitA+0xc>
    6ebc:	86 95       	lsr	r24
    6ebe:	71 05       	cpc	r23, r1
    6ec0:	61 05       	cpc	r22, r1
    6ec2:	08 94       	sec
    6ec4:	08 95       	ret

00006ec6 <__fp_zero>:
    6ec6:	e8 94       	clt

00006ec8 <__fp_szero>:
    6ec8:	bb 27       	eor	r27, r27
    6eca:	66 27       	eor	r22, r22
    6ecc:	77 27       	eor	r23, r23
    6ece:	cb 01       	movw	r24, r22
    6ed0:	97 f9       	bld	r25, 7
    6ed2:	08 95       	ret

00006ed4 <__gesf2>:
    6ed4:	0e 94 f5 36 	call	0x6dea	; 0x6dea <__fp_cmp>
    6ed8:	08 f4       	brcc	.+2      	; 0x6edc <__gesf2+0x8>
    6eda:	8f ef       	ldi	r24, 0xFF	; 255
    6edc:	08 95       	ret

00006ede <__mulsf3>:
    6ede:	0e 94 82 37 	call	0x6f04	; 0x6f04 <__mulsf3x>
    6ee2:	0c 94 30 37 	jmp	0x6e60	; 0x6e60 <__fp_round>
    6ee6:	0e 94 22 37 	call	0x6e44	; 0x6e44 <__fp_pscA>
    6eea:	38 f0       	brcs	.+14     	; 0x6efa <__mulsf3+0x1c>
    6eec:	0e 94 29 37 	call	0x6e52	; 0x6e52 <__fp_pscB>
    6ef0:	20 f0       	brcs	.+8      	; 0x6efa <__mulsf3+0x1c>
    6ef2:	95 23       	and	r25, r21
    6ef4:	11 f0       	breq	.+4      	; 0x6efa <__mulsf3+0x1c>
    6ef6:	0c 94 19 37 	jmp	0x6e32	; 0x6e32 <__fp_inf>
    6efa:	0c 94 1f 37 	jmp	0x6e3e	; 0x6e3e <__fp_nan>
    6efe:	11 24       	eor	r1, r1
    6f00:	0c 94 64 37 	jmp	0x6ec8	; 0x6ec8 <__fp_szero>

00006f04 <__mulsf3x>:
    6f04:	0e 94 41 37 	call	0x6e82	; 0x6e82 <__fp_split3>
    6f08:	70 f3       	brcs	.-36     	; 0x6ee6 <__mulsf3+0x8>

00006f0a <__mulsf3_pse>:
    6f0a:	95 9f       	mul	r25, r21
    6f0c:	c1 f3       	breq	.-16     	; 0x6efe <__mulsf3+0x20>
    6f0e:	95 0f       	add	r25, r21
    6f10:	50 e0       	ldi	r21, 0x00	; 0
    6f12:	55 1f       	adc	r21, r21
    6f14:	62 9f       	mul	r22, r18
    6f16:	f0 01       	movw	r30, r0
    6f18:	72 9f       	mul	r23, r18
    6f1a:	bb 27       	eor	r27, r27
    6f1c:	f0 0d       	add	r31, r0
    6f1e:	b1 1d       	adc	r27, r1
    6f20:	63 9f       	mul	r22, r19
    6f22:	aa 27       	eor	r26, r26
    6f24:	f0 0d       	add	r31, r0
    6f26:	b1 1d       	adc	r27, r1
    6f28:	aa 1f       	adc	r26, r26
    6f2a:	64 9f       	mul	r22, r20
    6f2c:	66 27       	eor	r22, r22
    6f2e:	b0 0d       	add	r27, r0
    6f30:	a1 1d       	adc	r26, r1
    6f32:	66 1f       	adc	r22, r22
    6f34:	82 9f       	mul	r24, r18
    6f36:	22 27       	eor	r18, r18
    6f38:	b0 0d       	add	r27, r0
    6f3a:	a1 1d       	adc	r26, r1
    6f3c:	62 1f       	adc	r22, r18
    6f3e:	73 9f       	mul	r23, r19
    6f40:	b0 0d       	add	r27, r0
    6f42:	a1 1d       	adc	r26, r1
    6f44:	62 1f       	adc	r22, r18
    6f46:	83 9f       	mul	r24, r19
    6f48:	a0 0d       	add	r26, r0
    6f4a:	61 1d       	adc	r22, r1
    6f4c:	22 1f       	adc	r18, r18
    6f4e:	74 9f       	mul	r23, r20
    6f50:	33 27       	eor	r19, r19
    6f52:	a0 0d       	add	r26, r0
    6f54:	61 1d       	adc	r22, r1
    6f56:	23 1f       	adc	r18, r19
    6f58:	84 9f       	mul	r24, r20
    6f5a:	60 0d       	add	r22, r0
    6f5c:	21 1d       	adc	r18, r1
    6f5e:	82 2f       	mov	r24, r18
    6f60:	76 2f       	mov	r23, r22
    6f62:	6a 2f       	mov	r22, r26
    6f64:	11 24       	eor	r1, r1
    6f66:	9f 57       	subi	r25, 0x7F	; 127
    6f68:	50 40       	sbci	r21, 0x00	; 0
    6f6a:	9a f0       	brmi	.+38     	; 0x6f92 <__mulsf3_pse+0x88>
    6f6c:	f1 f0       	breq	.+60     	; 0x6faa <__mulsf3_pse+0xa0>
    6f6e:	88 23       	and	r24, r24
    6f70:	4a f0       	brmi	.+18     	; 0x6f84 <__mulsf3_pse+0x7a>
    6f72:	ee 0f       	add	r30, r30
    6f74:	ff 1f       	adc	r31, r31
    6f76:	bb 1f       	adc	r27, r27
    6f78:	66 1f       	adc	r22, r22
    6f7a:	77 1f       	adc	r23, r23
    6f7c:	88 1f       	adc	r24, r24
    6f7e:	91 50       	subi	r25, 0x01	; 1
    6f80:	50 40       	sbci	r21, 0x00	; 0
    6f82:	a9 f7       	brne	.-22     	; 0x6f6e <__mulsf3_pse+0x64>
    6f84:	9e 3f       	cpi	r25, 0xFE	; 254
    6f86:	51 05       	cpc	r21, r1
    6f88:	80 f0       	brcs	.+32     	; 0x6faa <__mulsf3_pse+0xa0>
    6f8a:	0c 94 19 37 	jmp	0x6e32	; 0x6e32 <__fp_inf>
    6f8e:	0c 94 64 37 	jmp	0x6ec8	; 0x6ec8 <__fp_szero>
    6f92:	5f 3f       	cpi	r21, 0xFF	; 255
    6f94:	e4 f3       	brlt	.-8      	; 0x6f8e <__mulsf3_pse+0x84>
    6f96:	98 3e       	cpi	r25, 0xE8	; 232
    6f98:	d4 f3       	brlt	.-12     	; 0x6f8e <__mulsf3_pse+0x84>
    6f9a:	86 95       	lsr	r24
    6f9c:	77 95       	ror	r23
    6f9e:	67 95       	ror	r22
    6fa0:	b7 95       	ror	r27
    6fa2:	f7 95       	ror	r31
    6fa4:	e7 95       	ror	r30
    6fa6:	9f 5f       	subi	r25, 0xFF	; 255
    6fa8:	c1 f7       	brne	.-16     	; 0x6f9a <__mulsf3_pse+0x90>
    6faa:	fe 2b       	or	r31, r30
    6fac:	88 0f       	add	r24, r24
    6fae:	91 1d       	adc	r25, r1
    6fb0:	96 95       	lsr	r25
    6fb2:	87 95       	ror	r24
    6fb4:	97 f9       	bld	r25, 7
    6fb6:	08 95       	ret

00006fb8 <vfprintf>:
    6fb8:	2f 92       	push	r2
    6fba:	3f 92       	push	r3
    6fbc:	4f 92       	push	r4
    6fbe:	5f 92       	push	r5
    6fc0:	6f 92       	push	r6
    6fc2:	7f 92       	push	r7
    6fc4:	8f 92       	push	r8
    6fc6:	9f 92       	push	r9
    6fc8:	af 92       	push	r10
    6fca:	bf 92       	push	r11
    6fcc:	cf 92       	push	r12
    6fce:	df 92       	push	r13
    6fd0:	ef 92       	push	r14
    6fd2:	ff 92       	push	r15
    6fd4:	0f 93       	push	r16
    6fd6:	1f 93       	push	r17
    6fd8:	cf 93       	push	r28
    6fda:	df 93       	push	r29
    6fdc:	cd b7       	in	r28, 0x3d	; 61
    6fde:	de b7       	in	r29, 0x3e	; 62
    6fe0:	60 97       	sbiw	r28, 0x10	; 16
    6fe2:	cd bf       	out	0x3d, r28	; 61
    6fe4:	de bf       	out	0x3e, r29	; 62
    6fe6:	7c 01       	movw	r14, r24
    6fe8:	1b 01       	movw	r2, r22
    6fea:	6a 01       	movw	r12, r20
    6fec:	fc 01       	movw	r30, r24
    6fee:	16 82       	std	Z+6, r1	; 0x06
    6ff0:	17 82       	std	Z+7, r1	; 0x07
    6ff2:	83 81       	ldd	r24, Z+3	; 0x03
    6ff4:	81 ff       	sbrs	r24, 1
    6ff6:	44 c3       	rjmp	.+1672   	; 0x7680 <vfprintf+0x6c8>
    6ff8:	9e 01       	movw	r18, r28
    6ffa:	2f 5f       	subi	r18, 0xFF	; 255
    6ffc:	3f 4f       	sbci	r19, 0xFF	; 255
    6ffe:	39 01       	movw	r6, r18
    7000:	f7 01       	movw	r30, r14
    7002:	93 81       	ldd	r25, Z+3	; 0x03
    7004:	f1 01       	movw	r30, r2
    7006:	93 fd       	sbrc	r25, 3
    7008:	85 91       	lpm	r24, Z+
    700a:	93 ff       	sbrs	r25, 3
    700c:	81 91       	ld	r24, Z+
    700e:	1f 01       	movw	r2, r30
    7010:	88 23       	and	r24, r24
    7012:	09 f4       	brne	.+2      	; 0x7016 <vfprintf+0x5e>
    7014:	31 c3       	rjmp	.+1634   	; 0x7678 <vfprintf+0x6c0>
    7016:	85 32       	cpi	r24, 0x25	; 37
    7018:	39 f4       	brne	.+14     	; 0x7028 <vfprintf+0x70>
    701a:	93 fd       	sbrc	r25, 3
    701c:	85 91       	lpm	r24, Z+
    701e:	93 ff       	sbrs	r25, 3
    7020:	81 91       	ld	r24, Z+
    7022:	1f 01       	movw	r2, r30
    7024:	85 32       	cpi	r24, 0x25	; 37
    7026:	39 f4       	brne	.+14     	; 0x7036 <vfprintf+0x7e>
    7028:	b7 01       	movw	r22, r14
    702a:	90 e0       	ldi	r25, 0x00	; 0
    702c:	0e 94 3c 3e 	call	0x7c78	; 0x7c78 <fputc>
    7030:	56 01       	movw	r10, r12
    7032:	65 01       	movw	r12, r10
    7034:	e5 cf       	rjmp	.-54     	; 0x7000 <vfprintf+0x48>
    7036:	10 e0       	ldi	r17, 0x00	; 0
    7038:	51 2c       	mov	r5, r1
    703a:	91 2c       	mov	r9, r1
    703c:	ff e1       	ldi	r31, 0x1F	; 31
    703e:	f9 15       	cp	r31, r9
    7040:	d8 f0       	brcs	.+54     	; 0x7078 <vfprintf+0xc0>
    7042:	8b 32       	cpi	r24, 0x2B	; 43
    7044:	79 f0       	breq	.+30     	; 0x7064 <vfprintf+0xac>
    7046:	38 f4       	brcc	.+14     	; 0x7056 <vfprintf+0x9e>
    7048:	80 32       	cpi	r24, 0x20	; 32
    704a:	79 f0       	breq	.+30     	; 0x706a <vfprintf+0xb2>
    704c:	83 32       	cpi	r24, 0x23	; 35
    704e:	a1 f4       	brne	.+40     	; 0x7078 <vfprintf+0xc0>
    7050:	f9 2d       	mov	r31, r9
    7052:	f0 61       	ori	r31, 0x10	; 16
    7054:	2e c0       	rjmp	.+92     	; 0x70b2 <vfprintf+0xfa>
    7056:	8d 32       	cpi	r24, 0x2D	; 45
    7058:	61 f0       	breq	.+24     	; 0x7072 <vfprintf+0xba>
    705a:	80 33       	cpi	r24, 0x30	; 48
    705c:	69 f4       	brne	.+26     	; 0x7078 <vfprintf+0xc0>
    705e:	29 2d       	mov	r18, r9
    7060:	21 60       	ori	r18, 0x01	; 1
    7062:	2d c0       	rjmp	.+90     	; 0x70be <vfprintf+0x106>
    7064:	39 2d       	mov	r19, r9
    7066:	32 60       	ori	r19, 0x02	; 2
    7068:	93 2e       	mov	r9, r19
    706a:	89 2d       	mov	r24, r9
    706c:	84 60       	ori	r24, 0x04	; 4
    706e:	98 2e       	mov	r9, r24
    7070:	2a c0       	rjmp	.+84     	; 0x70c6 <vfprintf+0x10e>
    7072:	e9 2d       	mov	r30, r9
    7074:	e8 60       	ori	r30, 0x08	; 8
    7076:	15 c0       	rjmp	.+42     	; 0x70a2 <vfprintf+0xea>
    7078:	97 fc       	sbrc	r9, 7
    707a:	2d c0       	rjmp	.+90     	; 0x70d6 <vfprintf+0x11e>
    707c:	20 ed       	ldi	r18, 0xD0	; 208
    707e:	28 0f       	add	r18, r24
    7080:	2a 30       	cpi	r18, 0x0A	; 10
    7082:	88 f4       	brcc	.+34     	; 0x70a6 <vfprintf+0xee>
    7084:	96 fe       	sbrs	r9, 6
    7086:	06 c0       	rjmp	.+12     	; 0x7094 <vfprintf+0xdc>
    7088:	3a e0       	ldi	r19, 0x0A	; 10
    708a:	13 9f       	mul	r17, r19
    708c:	20 0d       	add	r18, r0
    708e:	11 24       	eor	r1, r1
    7090:	12 2f       	mov	r17, r18
    7092:	19 c0       	rjmp	.+50     	; 0x70c6 <vfprintf+0x10e>
    7094:	8a e0       	ldi	r24, 0x0A	; 10
    7096:	58 9e       	mul	r5, r24
    7098:	20 0d       	add	r18, r0
    709a:	11 24       	eor	r1, r1
    709c:	52 2e       	mov	r5, r18
    709e:	e9 2d       	mov	r30, r9
    70a0:	e0 62       	ori	r30, 0x20	; 32
    70a2:	9e 2e       	mov	r9, r30
    70a4:	10 c0       	rjmp	.+32     	; 0x70c6 <vfprintf+0x10e>
    70a6:	8e 32       	cpi	r24, 0x2E	; 46
    70a8:	31 f4       	brne	.+12     	; 0x70b6 <vfprintf+0xfe>
    70aa:	96 fc       	sbrc	r9, 6
    70ac:	e5 c2       	rjmp	.+1482   	; 0x7678 <vfprintf+0x6c0>
    70ae:	f9 2d       	mov	r31, r9
    70b0:	f0 64       	ori	r31, 0x40	; 64
    70b2:	9f 2e       	mov	r9, r31
    70b4:	08 c0       	rjmp	.+16     	; 0x70c6 <vfprintf+0x10e>
    70b6:	8c 36       	cpi	r24, 0x6C	; 108
    70b8:	21 f4       	brne	.+8      	; 0x70c2 <vfprintf+0x10a>
    70ba:	29 2d       	mov	r18, r9
    70bc:	20 68       	ori	r18, 0x80	; 128
    70be:	92 2e       	mov	r9, r18
    70c0:	02 c0       	rjmp	.+4      	; 0x70c6 <vfprintf+0x10e>
    70c2:	88 36       	cpi	r24, 0x68	; 104
    70c4:	41 f4       	brne	.+16     	; 0x70d6 <vfprintf+0x11e>
    70c6:	f1 01       	movw	r30, r2
    70c8:	93 fd       	sbrc	r25, 3
    70ca:	85 91       	lpm	r24, Z+
    70cc:	93 ff       	sbrs	r25, 3
    70ce:	81 91       	ld	r24, Z+
    70d0:	1f 01       	movw	r2, r30
    70d2:	81 11       	cpse	r24, r1
    70d4:	b3 cf       	rjmp	.-154    	; 0x703c <vfprintf+0x84>
    70d6:	9b eb       	ldi	r25, 0xBB	; 187
    70d8:	98 0f       	add	r25, r24
    70da:	93 30       	cpi	r25, 0x03	; 3
    70dc:	20 f4       	brcc	.+8      	; 0x70e6 <vfprintf+0x12e>
    70de:	99 2d       	mov	r25, r9
    70e0:	90 61       	ori	r25, 0x10	; 16
    70e2:	80 5e       	subi	r24, 0xE0	; 224
    70e4:	07 c0       	rjmp	.+14     	; 0x70f4 <vfprintf+0x13c>
    70e6:	9b e9       	ldi	r25, 0x9B	; 155
    70e8:	98 0f       	add	r25, r24
    70ea:	93 30       	cpi	r25, 0x03	; 3
    70ec:	08 f0       	brcs	.+2      	; 0x70f0 <vfprintf+0x138>
    70ee:	66 c1       	rjmp	.+716    	; 0x73bc <vfprintf+0x404>
    70f0:	99 2d       	mov	r25, r9
    70f2:	9f 7e       	andi	r25, 0xEF	; 239
    70f4:	96 ff       	sbrs	r25, 6
    70f6:	16 e0       	ldi	r17, 0x06	; 6
    70f8:	9f 73       	andi	r25, 0x3F	; 63
    70fa:	99 2e       	mov	r9, r25
    70fc:	85 36       	cpi	r24, 0x65	; 101
    70fe:	19 f4       	brne	.+6      	; 0x7106 <vfprintf+0x14e>
    7100:	90 64       	ori	r25, 0x40	; 64
    7102:	99 2e       	mov	r9, r25
    7104:	08 c0       	rjmp	.+16     	; 0x7116 <vfprintf+0x15e>
    7106:	86 36       	cpi	r24, 0x66	; 102
    7108:	21 f4       	brne	.+8      	; 0x7112 <vfprintf+0x15a>
    710a:	39 2f       	mov	r19, r25
    710c:	30 68       	ori	r19, 0x80	; 128
    710e:	93 2e       	mov	r9, r19
    7110:	02 c0       	rjmp	.+4      	; 0x7116 <vfprintf+0x15e>
    7112:	11 11       	cpse	r17, r1
    7114:	11 50       	subi	r17, 0x01	; 1
    7116:	97 fe       	sbrs	r9, 7
    7118:	07 c0       	rjmp	.+14     	; 0x7128 <vfprintf+0x170>
    711a:	1c 33       	cpi	r17, 0x3C	; 60
    711c:	50 f4       	brcc	.+20     	; 0x7132 <vfprintf+0x17a>
    711e:	44 24       	eor	r4, r4
    7120:	43 94       	inc	r4
    7122:	41 0e       	add	r4, r17
    7124:	27 e0       	ldi	r18, 0x07	; 7
    7126:	0b c0       	rjmp	.+22     	; 0x713e <vfprintf+0x186>
    7128:	18 30       	cpi	r17, 0x08	; 8
    712a:	38 f0       	brcs	.+14     	; 0x713a <vfprintf+0x182>
    712c:	27 e0       	ldi	r18, 0x07	; 7
    712e:	17 e0       	ldi	r17, 0x07	; 7
    7130:	05 c0       	rjmp	.+10     	; 0x713c <vfprintf+0x184>
    7132:	27 e0       	ldi	r18, 0x07	; 7
    7134:	9c e3       	ldi	r25, 0x3C	; 60
    7136:	49 2e       	mov	r4, r25
    7138:	02 c0       	rjmp	.+4      	; 0x713e <vfprintf+0x186>
    713a:	21 2f       	mov	r18, r17
    713c:	41 2c       	mov	r4, r1
    713e:	56 01       	movw	r10, r12
    7140:	84 e0       	ldi	r24, 0x04	; 4
    7142:	a8 0e       	add	r10, r24
    7144:	b1 1c       	adc	r11, r1
    7146:	f6 01       	movw	r30, r12
    7148:	60 81       	ld	r22, Z
    714a:	71 81       	ldd	r23, Z+1	; 0x01
    714c:	82 81       	ldd	r24, Z+2	; 0x02
    714e:	93 81       	ldd	r25, Z+3	; 0x03
    7150:	04 2d       	mov	r16, r4
    7152:	a3 01       	movw	r20, r6
    7154:	0e 94 03 3d 	call	0x7a06	; 0x7a06 <__ftoa_engine>
    7158:	6c 01       	movw	r12, r24
    715a:	f9 81       	ldd	r31, Y+1	; 0x01
    715c:	fc 87       	std	Y+12, r31	; 0x0c
    715e:	f0 ff       	sbrs	r31, 0
    7160:	02 c0       	rjmp	.+4      	; 0x7166 <vfprintf+0x1ae>
    7162:	f3 ff       	sbrs	r31, 3
    7164:	06 c0       	rjmp	.+12     	; 0x7172 <vfprintf+0x1ba>
    7166:	91 fc       	sbrc	r9, 1
    7168:	06 c0       	rjmp	.+12     	; 0x7176 <vfprintf+0x1be>
    716a:	92 fe       	sbrs	r9, 2
    716c:	06 c0       	rjmp	.+12     	; 0x717a <vfprintf+0x1c2>
    716e:	00 e2       	ldi	r16, 0x20	; 32
    7170:	05 c0       	rjmp	.+10     	; 0x717c <vfprintf+0x1c4>
    7172:	0d e2       	ldi	r16, 0x2D	; 45
    7174:	03 c0       	rjmp	.+6      	; 0x717c <vfprintf+0x1c4>
    7176:	0b e2       	ldi	r16, 0x2B	; 43
    7178:	01 c0       	rjmp	.+2      	; 0x717c <vfprintf+0x1c4>
    717a:	00 e0       	ldi	r16, 0x00	; 0
    717c:	8c 85       	ldd	r24, Y+12	; 0x0c
    717e:	8c 70       	andi	r24, 0x0C	; 12
    7180:	19 f0       	breq	.+6      	; 0x7188 <vfprintf+0x1d0>
    7182:	01 11       	cpse	r16, r1
    7184:	5a c2       	rjmp	.+1204   	; 0x763a <vfprintf+0x682>
    7186:	9b c2       	rjmp	.+1334   	; 0x76be <vfprintf+0x706>
    7188:	97 fe       	sbrs	r9, 7
    718a:	10 c0       	rjmp	.+32     	; 0x71ac <vfprintf+0x1f4>
    718c:	4c 0c       	add	r4, r12
    718e:	fc 85       	ldd	r31, Y+12	; 0x0c
    7190:	f4 ff       	sbrs	r31, 4
    7192:	04 c0       	rjmp	.+8      	; 0x719c <vfprintf+0x1e4>
    7194:	8a 81       	ldd	r24, Y+2	; 0x02
    7196:	81 33       	cpi	r24, 0x31	; 49
    7198:	09 f4       	brne	.+2      	; 0x719c <vfprintf+0x1e4>
    719a:	4a 94       	dec	r4
    719c:	14 14       	cp	r1, r4
    719e:	74 f5       	brge	.+92     	; 0x71fc <vfprintf+0x244>
    71a0:	28 e0       	ldi	r18, 0x08	; 8
    71a2:	24 15       	cp	r18, r4
    71a4:	78 f5       	brcc	.+94     	; 0x7204 <vfprintf+0x24c>
    71a6:	88 e0       	ldi	r24, 0x08	; 8
    71a8:	48 2e       	mov	r4, r24
    71aa:	2c c0       	rjmp	.+88     	; 0x7204 <vfprintf+0x24c>
    71ac:	96 fc       	sbrc	r9, 6
    71ae:	2a c0       	rjmp	.+84     	; 0x7204 <vfprintf+0x24c>
    71b0:	81 2f       	mov	r24, r17
    71b2:	90 e0       	ldi	r25, 0x00	; 0
    71b4:	8c 15       	cp	r24, r12
    71b6:	9d 05       	cpc	r25, r13
    71b8:	9c f0       	brlt	.+38     	; 0x71e0 <vfprintf+0x228>
    71ba:	3c ef       	ldi	r19, 0xFC	; 252
    71bc:	c3 16       	cp	r12, r19
    71be:	3f ef       	ldi	r19, 0xFF	; 255
    71c0:	d3 06       	cpc	r13, r19
    71c2:	74 f0       	brlt	.+28     	; 0x71e0 <vfprintf+0x228>
    71c4:	89 2d       	mov	r24, r9
    71c6:	80 68       	ori	r24, 0x80	; 128
    71c8:	98 2e       	mov	r9, r24
    71ca:	0a c0       	rjmp	.+20     	; 0x71e0 <vfprintf+0x228>
    71cc:	e2 e0       	ldi	r30, 0x02	; 2
    71ce:	f0 e0       	ldi	r31, 0x00	; 0
    71d0:	ec 0f       	add	r30, r28
    71d2:	fd 1f       	adc	r31, r29
    71d4:	e1 0f       	add	r30, r17
    71d6:	f1 1d       	adc	r31, r1
    71d8:	80 81       	ld	r24, Z
    71da:	80 33       	cpi	r24, 0x30	; 48
    71dc:	19 f4       	brne	.+6      	; 0x71e4 <vfprintf+0x22c>
    71de:	11 50       	subi	r17, 0x01	; 1
    71e0:	11 11       	cpse	r17, r1
    71e2:	f4 cf       	rjmp	.-24     	; 0x71cc <vfprintf+0x214>
    71e4:	97 fe       	sbrs	r9, 7
    71e6:	0e c0       	rjmp	.+28     	; 0x7204 <vfprintf+0x24c>
    71e8:	44 24       	eor	r4, r4
    71ea:	43 94       	inc	r4
    71ec:	41 0e       	add	r4, r17
    71ee:	81 2f       	mov	r24, r17
    71f0:	90 e0       	ldi	r25, 0x00	; 0
    71f2:	c8 16       	cp	r12, r24
    71f4:	d9 06       	cpc	r13, r25
    71f6:	2c f4       	brge	.+10     	; 0x7202 <vfprintf+0x24a>
    71f8:	1c 19       	sub	r17, r12
    71fa:	04 c0       	rjmp	.+8      	; 0x7204 <vfprintf+0x24c>
    71fc:	44 24       	eor	r4, r4
    71fe:	43 94       	inc	r4
    7200:	01 c0       	rjmp	.+2      	; 0x7204 <vfprintf+0x24c>
    7202:	10 e0       	ldi	r17, 0x00	; 0
    7204:	97 fe       	sbrs	r9, 7
    7206:	06 c0       	rjmp	.+12     	; 0x7214 <vfprintf+0x25c>
    7208:	1c 14       	cp	r1, r12
    720a:	1d 04       	cpc	r1, r13
    720c:	34 f4       	brge	.+12     	; 0x721a <vfprintf+0x262>
    720e:	c6 01       	movw	r24, r12
    7210:	01 96       	adiw	r24, 0x01	; 1
    7212:	05 c0       	rjmp	.+10     	; 0x721e <vfprintf+0x266>
    7214:	85 e0       	ldi	r24, 0x05	; 5
    7216:	90 e0       	ldi	r25, 0x00	; 0
    7218:	02 c0       	rjmp	.+4      	; 0x721e <vfprintf+0x266>
    721a:	81 e0       	ldi	r24, 0x01	; 1
    721c:	90 e0       	ldi	r25, 0x00	; 0
    721e:	01 11       	cpse	r16, r1
    7220:	01 96       	adiw	r24, 0x01	; 1
    7222:	11 23       	and	r17, r17
    7224:	31 f0       	breq	.+12     	; 0x7232 <vfprintf+0x27a>
    7226:	21 2f       	mov	r18, r17
    7228:	30 e0       	ldi	r19, 0x00	; 0
    722a:	2f 5f       	subi	r18, 0xFF	; 255
    722c:	3f 4f       	sbci	r19, 0xFF	; 255
    722e:	82 0f       	add	r24, r18
    7230:	93 1f       	adc	r25, r19
    7232:	25 2d       	mov	r18, r5
    7234:	30 e0       	ldi	r19, 0x00	; 0
    7236:	82 17       	cp	r24, r18
    7238:	93 07       	cpc	r25, r19
    723a:	14 f4       	brge	.+4      	; 0x7240 <vfprintf+0x288>
    723c:	58 1a       	sub	r5, r24
    723e:	01 c0       	rjmp	.+2      	; 0x7242 <vfprintf+0x28a>
    7240:	51 2c       	mov	r5, r1
    7242:	89 2d       	mov	r24, r9
    7244:	89 70       	andi	r24, 0x09	; 9
    7246:	49 f4       	brne	.+18     	; 0x725a <vfprintf+0x2a2>
    7248:	55 20       	and	r5, r5
    724a:	39 f0       	breq	.+14     	; 0x725a <vfprintf+0x2a2>
    724c:	b7 01       	movw	r22, r14
    724e:	80 e2       	ldi	r24, 0x20	; 32
    7250:	90 e0       	ldi	r25, 0x00	; 0
    7252:	0e 94 3c 3e 	call	0x7c78	; 0x7c78 <fputc>
    7256:	5a 94       	dec	r5
    7258:	f7 cf       	rjmp	.-18     	; 0x7248 <vfprintf+0x290>
    725a:	00 23       	and	r16, r16
    725c:	29 f0       	breq	.+10     	; 0x7268 <vfprintf+0x2b0>
    725e:	b7 01       	movw	r22, r14
    7260:	80 2f       	mov	r24, r16
    7262:	90 e0       	ldi	r25, 0x00	; 0
    7264:	0e 94 3c 3e 	call	0x7c78	; 0x7c78 <fputc>
    7268:	93 fc       	sbrc	r9, 3
    726a:	09 c0       	rjmp	.+18     	; 0x727e <vfprintf+0x2c6>
    726c:	55 20       	and	r5, r5
    726e:	39 f0       	breq	.+14     	; 0x727e <vfprintf+0x2c6>
    7270:	b7 01       	movw	r22, r14
    7272:	80 e3       	ldi	r24, 0x30	; 48
    7274:	90 e0       	ldi	r25, 0x00	; 0
    7276:	0e 94 3c 3e 	call	0x7c78	; 0x7c78 <fputc>
    727a:	5a 94       	dec	r5
    727c:	f7 cf       	rjmp	.-18     	; 0x726c <vfprintf+0x2b4>
    727e:	97 fe       	sbrs	r9, 7
    7280:	4c c0       	rjmp	.+152    	; 0x731a <vfprintf+0x362>
    7282:	46 01       	movw	r8, r12
    7284:	d7 fe       	sbrs	r13, 7
    7286:	02 c0       	rjmp	.+4      	; 0x728c <vfprintf+0x2d4>
    7288:	81 2c       	mov	r8, r1
    728a:	91 2c       	mov	r9, r1
    728c:	c6 01       	movw	r24, r12
    728e:	88 19       	sub	r24, r8
    7290:	99 09       	sbc	r25, r9
    7292:	f3 01       	movw	r30, r6
    7294:	e8 0f       	add	r30, r24
    7296:	f9 1f       	adc	r31, r25
    7298:	ed 87       	std	Y+13, r30	; 0x0d
    729a:	fe 87       	std	Y+14, r31	; 0x0e
    729c:	96 01       	movw	r18, r12
    729e:	24 19       	sub	r18, r4
    72a0:	31 09       	sbc	r19, r1
    72a2:	2f 87       	std	Y+15, r18	; 0x0f
    72a4:	38 8b       	std	Y+16, r19	; 0x10
    72a6:	01 2f       	mov	r16, r17
    72a8:	10 e0       	ldi	r17, 0x00	; 0
    72aa:	11 95       	neg	r17
    72ac:	01 95       	neg	r16
    72ae:	11 09       	sbc	r17, r1
    72b0:	3f ef       	ldi	r19, 0xFF	; 255
    72b2:	83 16       	cp	r8, r19
    72b4:	93 06       	cpc	r9, r19
    72b6:	29 f4       	brne	.+10     	; 0x72c2 <vfprintf+0x30a>
    72b8:	b7 01       	movw	r22, r14
    72ba:	8e e2       	ldi	r24, 0x2E	; 46
    72bc:	90 e0       	ldi	r25, 0x00	; 0
    72be:	0e 94 3c 3e 	call	0x7c78	; 0x7c78 <fputc>
    72c2:	c8 14       	cp	r12, r8
    72c4:	d9 04       	cpc	r13, r9
    72c6:	4c f0       	brlt	.+18     	; 0x72da <vfprintf+0x322>
    72c8:	8f 85       	ldd	r24, Y+15	; 0x0f
    72ca:	98 89       	ldd	r25, Y+16	; 0x10
    72cc:	88 15       	cp	r24, r8
    72ce:	99 05       	cpc	r25, r9
    72d0:	24 f4       	brge	.+8      	; 0x72da <vfprintf+0x322>
    72d2:	ed 85       	ldd	r30, Y+13	; 0x0d
    72d4:	fe 85       	ldd	r31, Y+14	; 0x0e
    72d6:	81 81       	ldd	r24, Z+1	; 0x01
    72d8:	01 c0       	rjmp	.+2      	; 0x72dc <vfprintf+0x324>
    72da:	80 e3       	ldi	r24, 0x30	; 48
    72dc:	f1 e0       	ldi	r31, 0x01	; 1
    72de:	8f 1a       	sub	r8, r31
    72e0:	91 08       	sbc	r9, r1
    72e2:	2d 85       	ldd	r18, Y+13	; 0x0d
    72e4:	3e 85       	ldd	r19, Y+14	; 0x0e
    72e6:	2f 5f       	subi	r18, 0xFF	; 255
    72e8:	3f 4f       	sbci	r19, 0xFF	; 255
    72ea:	2d 87       	std	Y+13, r18	; 0x0d
    72ec:	3e 87       	std	Y+14, r19	; 0x0e
    72ee:	80 16       	cp	r8, r16
    72f0:	91 06       	cpc	r9, r17
    72f2:	2c f0       	brlt	.+10     	; 0x72fe <vfprintf+0x346>
    72f4:	b7 01       	movw	r22, r14
    72f6:	90 e0       	ldi	r25, 0x00	; 0
    72f8:	0e 94 3c 3e 	call	0x7c78	; 0x7c78 <fputc>
    72fc:	d9 cf       	rjmp	.-78     	; 0x72b0 <vfprintf+0x2f8>
    72fe:	c8 14       	cp	r12, r8
    7300:	d9 04       	cpc	r13, r9
    7302:	41 f4       	brne	.+16     	; 0x7314 <vfprintf+0x35c>
    7304:	9a 81       	ldd	r25, Y+2	; 0x02
    7306:	96 33       	cpi	r25, 0x36	; 54
    7308:	20 f4       	brcc	.+8      	; 0x7312 <vfprintf+0x35a>
    730a:	95 33       	cpi	r25, 0x35	; 53
    730c:	19 f4       	brne	.+6      	; 0x7314 <vfprintf+0x35c>
    730e:	3c 85       	ldd	r19, Y+12	; 0x0c
    7310:	34 ff       	sbrs	r19, 4
    7312:	81 e3       	ldi	r24, 0x31	; 49
    7314:	b7 01       	movw	r22, r14
    7316:	90 e0       	ldi	r25, 0x00	; 0
    7318:	4e c0       	rjmp	.+156    	; 0x73b6 <vfprintf+0x3fe>
    731a:	8a 81       	ldd	r24, Y+2	; 0x02
    731c:	81 33       	cpi	r24, 0x31	; 49
    731e:	19 f0       	breq	.+6      	; 0x7326 <vfprintf+0x36e>
    7320:	9c 85       	ldd	r25, Y+12	; 0x0c
    7322:	9f 7e       	andi	r25, 0xEF	; 239
    7324:	9c 87       	std	Y+12, r25	; 0x0c
    7326:	b7 01       	movw	r22, r14
    7328:	90 e0       	ldi	r25, 0x00	; 0
    732a:	0e 94 3c 3e 	call	0x7c78	; 0x7c78 <fputc>
    732e:	11 11       	cpse	r17, r1
    7330:	05 c0       	rjmp	.+10     	; 0x733c <vfprintf+0x384>
    7332:	94 fc       	sbrc	r9, 4
    7334:	18 c0       	rjmp	.+48     	; 0x7366 <vfprintf+0x3ae>
    7336:	85 e6       	ldi	r24, 0x65	; 101
    7338:	90 e0       	ldi	r25, 0x00	; 0
    733a:	17 c0       	rjmp	.+46     	; 0x736a <vfprintf+0x3b2>
    733c:	b7 01       	movw	r22, r14
    733e:	8e e2       	ldi	r24, 0x2E	; 46
    7340:	90 e0       	ldi	r25, 0x00	; 0
    7342:	0e 94 3c 3e 	call	0x7c78	; 0x7c78 <fputc>
    7346:	1e 5f       	subi	r17, 0xFE	; 254
    7348:	82 e0       	ldi	r24, 0x02	; 2
    734a:	01 e0       	ldi	r16, 0x01	; 1
    734c:	08 0f       	add	r16, r24
    734e:	f3 01       	movw	r30, r6
    7350:	e8 0f       	add	r30, r24
    7352:	f1 1d       	adc	r31, r1
    7354:	80 81       	ld	r24, Z
    7356:	b7 01       	movw	r22, r14
    7358:	90 e0       	ldi	r25, 0x00	; 0
    735a:	0e 94 3c 3e 	call	0x7c78	; 0x7c78 <fputc>
    735e:	80 2f       	mov	r24, r16
    7360:	01 13       	cpse	r16, r17
    7362:	f3 cf       	rjmp	.-26     	; 0x734a <vfprintf+0x392>
    7364:	e6 cf       	rjmp	.-52     	; 0x7332 <vfprintf+0x37a>
    7366:	85 e4       	ldi	r24, 0x45	; 69
    7368:	90 e0       	ldi	r25, 0x00	; 0
    736a:	b7 01       	movw	r22, r14
    736c:	0e 94 3c 3e 	call	0x7c78	; 0x7c78 <fputc>
    7370:	d7 fc       	sbrc	r13, 7
    7372:	06 c0       	rjmp	.+12     	; 0x7380 <vfprintf+0x3c8>
    7374:	c1 14       	cp	r12, r1
    7376:	d1 04       	cpc	r13, r1
    7378:	41 f4       	brne	.+16     	; 0x738a <vfprintf+0x3d2>
    737a:	ec 85       	ldd	r30, Y+12	; 0x0c
    737c:	e4 ff       	sbrs	r30, 4
    737e:	05 c0       	rjmp	.+10     	; 0x738a <vfprintf+0x3d2>
    7380:	d1 94       	neg	r13
    7382:	c1 94       	neg	r12
    7384:	d1 08       	sbc	r13, r1
    7386:	8d e2       	ldi	r24, 0x2D	; 45
    7388:	01 c0       	rjmp	.+2      	; 0x738c <vfprintf+0x3d4>
    738a:	8b e2       	ldi	r24, 0x2B	; 43
    738c:	b7 01       	movw	r22, r14
    738e:	90 e0       	ldi	r25, 0x00	; 0
    7390:	0e 94 3c 3e 	call	0x7c78	; 0x7c78 <fputc>
    7394:	80 e3       	ldi	r24, 0x30	; 48
    7396:	2a e0       	ldi	r18, 0x0A	; 10
    7398:	c2 16       	cp	r12, r18
    739a:	d1 04       	cpc	r13, r1
    739c:	2c f0       	brlt	.+10     	; 0x73a8 <vfprintf+0x3f0>
    739e:	8f 5f       	subi	r24, 0xFF	; 255
    73a0:	fa e0       	ldi	r31, 0x0A	; 10
    73a2:	cf 1a       	sub	r12, r31
    73a4:	d1 08       	sbc	r13, r1
    73a6:	f7 cf       	rjmp	.-18     	; 0x7396 <vfprintf+0x3de>
    73a8:	b7 01       	movw	r22, r14
    73aa:	90 e0       	ldi	r25, 0x00	; 0
    73ac:	0e 94 3c 3e 	call	0x7c78	; 0x7c78 <fputc>
    73b0:	b7 01       	movw	r22, r14
    73b2:	c6 01       	movw	r24, r12
    73b4:	c0 96       	adiw	r24, 0x30	; 48
    73b6:	0e 94 3c 3e 	call	0x7c78	; 0x7c78 <fputc>
    73ba:	54 c1       	rjmp	.+680    	; 0x7664 <vfprintf+0x6ac>
    73bc:	83 36       	cpi	r24, 0x63	; 99
    73be:	31 f0       	breq	.+12     	; 0x73cc <vfprintf+0x414>
    73c0:	83 37       	cpi	r24, 0x73	; 115
    73c2:	79 f0       	breq	.+30     	; 0x73e2 <vfprintf+0x42a>
    73c4:	83 35       	cpi	r24, 0x53	; 83
    73c6:	09 f0       	breq	.+2      	; 0x73ca <vfprintf+0x412>
    73c8:	56 c0       	rjmp	.+172    	; 0x7476 <vfprintf+0x4be>
    73ca:	20 c0       	rjmp	.+64     	; 0x740c <vfprintf+0x454>
    73cc:	56 01       	movw	r10, r12
    73ce:	32 e0       	ldi	r19, 0x02	; 2
    73d0:	a3 0e       	add	r10, r19
    73d2:	b1 1c       	adc	r11, r1
    73d4:	f6 01       	movw	r30, r12
    73d6:	80 81       	ld	r24, Z
    73d8:	89 83       	std	Y+1, r24	; 0x01
    73da:	01 e0       	ldi	r16, 0x01	; 1
    73dc:	10 e0       	ldi	r17, 0x00	; 0
    73de:	63 01       	movw	r12, r6
    73e0:	12 c0       	rjmp	.+36     	; 0x7406 <vfprintf+0x44e>
    73e2:	56 01       	movw	r10, r12
    73e4:	f2 e0       	ldi	r31, 0x02	; 2
    73e6:	af 0e       	add	r10, r31
    73e8:	b1 1c       	adc	r11, r1
    73ea:	f6 01       	movw	r30, r12
    73ec:	c0 80       	ld	r12, Z
    73ee:	d1 80       	ldd	r13, Z+1	; 0x01
    73f0:	96 fe       	sbrs	r9, 6
    73f2:	03 c0       	rjmp	.+6      	; 0x73fa <vfprintf+0x442>
    73f4:	61 2f       	mov	r22, r17
    73f6:	70 e0       	ldi	r23, 0x00	; 0
    73f8:	02 c0       	rjmp	.+4      	; 0x73fe <vfprintf+0x446>
    73fa:	6f ef       	ldi	r22, 0xFF	; 255
    73fc:	7f ef       	ldi	r23, 0xFF	; 255
    73fe:	c6 01       	movw	r24, r12
    7400:	0e 94 e6 3d 	call	0x7bcc	; 0x7bcc <strnlen>
    7404:	8c 01       	movw	r16, r24
    7406:	f9 2d       	mov	r31, r9
    7408:	ff 77       	andi	r31, 0x7F	; 127
    740a:	14 c0       	rjmp	.+40     	; 0x7434 <vfprintf+0x47c>
    740c:	56 01       	movw	r10, r12
    740e:	22 e0       	ldi	r18, 0x02	; 2
    7410:	a2 0e       	add	r10, r18
    7412:	b1 1c       	adc	r11, r1
    7414:	f6 01       	movw	r30, r12
    7416:	c0 80       	ld	r12, Z
    7418:	d1 80       	ldd	r13, Z+1	; 0x01
    741a:	96 fe       	sbrs	r9, 6
    741c:	03 c0       	rjmp	.+6      	; 0x7424 <vfprintf+0x46c>
    741e:	61 2f       	mov	r22, r17
    7420:	70 e0       	ldi	r23, 0x00	; 0
    7422:	02 c0       	rjmp	.+4      	; 0x7428 <vfprintf+0x470>
    7424:	6f ef       	ldi	r22, 0xFF	; 255
    7426:	7f ef       	ldi	r23, 0xFF	; 255
    7428:	c6 01       	movw	r24, r12
    742a:	0e 94 db 3d 	call	0x7bb6	; 0x7bb6 <strnlen_P>
    742e:	8c 01       	movw	r16, r24
    7430:	f9 2d       	mov	r31, r9
    7432:	f0 68       	ori	r31, 0x80	; 128
    7434:	9f 2e       	mov	r9, r31
    7436:	f3 fd       	sbrc	r31, 3
    7438:	1a c0       	rjmp	.+52     	; 0x746e <vfprintf+0x4b6>
    743a:	85 2d       	mov	r24, r5
    743c:	90 e0       	ldi	r25, 0x00	; 0
    743e:	08 17       	cp	r16, r24
    7440:	19 07       	cpc	r17, r25
    7442:	a8 f4       	brcc	.+42     	; 0x746e <vfprintf+0x4b6>
    7444:	b7 01       	movw	r22, r14
    7446:	80 e2       	ldi	r24, 0x20	; 32
    7448:	90 e0       	ldi	r25, 0x00	; 0
    744a:	0e 94 3c 3e 	call	0x7c78	; 0x7c78 <fputc>
    744e:	5a 94       	dec	r5
    7450:	f4 cf       	rjmp	.-24     	; 0x743a <vfprintf+0x482>
    7452:	f6 01       	movw	r30, r12
    7454:	97 fc       	sbrc	r9, 7
    7456:	85 91       	lpm	r24, Z+
    7458:	97 fe       	sbrs	r9, 7
    745a:	81 91       	ld	r24, Z+
    745c:	6f 01       	movw	r12, r30
    745e:	b7 01       	movw	r22, r14
    7460:	90 e0       	ldi	r25, 0x00	; 0
    7462:	0e 94 3c 3e 	call	0x7c78	; 0x7c78 <fputc>
    7466:	51 10       	cpse	r5, r1
    7468:	5a 94       	dec	r5
    746a:	01 50       	subi	r16, 0x01	; 1
    746c:	11 09       	sbc	r17, r1
    746e:	01 15       	cp	r16, r1
    7470:	11 05       	cpc	r17, r1
    7472:	79 f7       	brne	.-34     	; 0x7452 <vfprintf+0x49a>
    7474:	f7 c0       	rjmp	.+494    	; 0x7664 <vfprintf+0x6ac>
    7476:	84 36       	cpi	r24, 0x64	; 100
    7478:	11 f0       	breq	.+4      	; 0x747e <vfprintf+0x4c6>
    747a:	89 36       	cpi	r24, 0x69	; 105
    747c:	61 f5       	brne	.+88     	; 0x74d6 <vfprintf+0x51e>
    747e:	56 01       	movw	r10, r12
    7480:	97 fe       	sbrs	r9, 7
    7482:	09 c0       	rjmp	.+18     	; 0x7496 <vfprintf+0x4de>
    7484:	24 e0       	ldi	r18, 0x04	; 4
    7486:	a2 0e       	add	r10, r18
    7488:	b1 1c       	adc	r11, r1
    748a:	f6 01       	movw	r30, r12
    748c:	60 81       	ld	r22, Z
    748e:	71 81       	ldd	r23, Z+1	; 0x01
    7490:	82 81       	ldd	r24, Z+2	; 0x02
    7492:	93 81       	ldd	r25, Z+3	; 0x03
    7494:	0a c0       	rjmp	.+20     	; 0x74aa <vfprintf+0x4f2>
    7496:	f2 e0       	ldi	r31, 0x02	; 2
    7498:	af 0e       	add	r10, r31
    749a:	b1 1c       	adc	r11, r1
    749c:	f6 01       	movw	r30, r12
    749e:	60 81       	ld	r22, Z
    74a0:	71 81       	ldd	r23, Z+1	; 0x01
    74a2:	07 2e       	mov	r0, r23
    74a4:	00 0c       	add	r0, r0
    74a6:	88 0b       	sbc	r24, r24
    74a8:	99 0b       	sbc	r25, r25
    74aa:	f9 2d       	mov	r31, r9
    74ac:	ff 76       	andi	r31, 0x6F	; 111
    74ae:	9f 2e       	mov	r9, r31
    74b0:	97 ff       	sbrs	r25, 7
    74b2:	09 c0       	rjmp	.+18     	; 0x74c6 <vfprintf+0x50e>
    74b4:	90 95       	com	r25
    74b6:	80 95       	com	r24
    74b8:	70 95       	com	r23
    74ba:	61 95       	neg	r22
    74bc:	7f 4f       	sbci	r23, 0xFF	; 255
    74be:	8f 4f       	sbci	r24, 0xFF	; 255
    74c0:	9f 4f       	sbci	r25, 0xFF	; 255
    74c2:	f0 68       	ori	r31, 0x80	; 128
    74c4:	9f 2e       	mov	r9, r31
    74c6:	2a e0       	ldi	r18, 0x0A	; 10
    74c8:	30 e0       	ldi	r19, 0x00	; 0
    74ca:	a3 01       	movw	r20, r6
    74cc:	0e 94 bc 3e 	call	0x7d78	; 0x7d78 <__ultoa_invert>
    74d0:	c8 2e       	mov	r12, r24
    74d2:	c6 18       	sub	r12, r6
    74d4:	3f c0       	rjmp	.+126    	; 0x7554 <vfprintf+0x59c>
    74d6:	09 2d       	mov	r16, r9
    74d8:	85 37       	cpi	r24, 0x75	; 117
    74da:	21 f4       	brne	.+8      	; 0x74e4 <vfprintf+0x52c>
    74dc:	0f 7e       	andi	r16, 0xEF	; 239
    74de:	2a e0       	ldi	r18, 0x0A	; 10
    74e0:	30 e0       	ldi	r19, 0x00	; 0
    74e2:	1d c0       	rjmp	.+58     	; 0x751e <vfprintf+0x566>
    74e4:	09 7f       	andi	r16, 0xF9	; 249
    74e6:	8f 36       	cpi	r24, 0x6F	; 111
    74e8:	91 f0       	breq	.+36     	; 0x750e <vfprintf+0x556>
    74ea:	18 f4       	brcc	.+6      	; 0x74f2 <vfprintf+0x53a>
    74ec:	88 35       	cpi	r24, 0x58	; 88
    74ee:	59 f0       	breq	.+22     	; 0x7506 <vfprintf+0x54e>
    74f0:	c3 c0       	rjmp	.+390    	; 0x7678 <vfprintf+0x6c0>
    74f2:	80 37       	cpi	r24, 0x70	; 112
    74f4:	19 f0       	breq	.+6      	; 0x74fc <vfprintf+0x544>
    74f6:	88 37       	cpi	r24, 0x78	; 120
    74f8:	11 f0       	breq	.+4      	; 0x74fe <vfprintf+0x546>
    74fa:	be c0       	rjmp	.+380    	; 0x7678 <vfprintf+0x6c0>
    74fc:	00 61       	ori	r16, 0x10	; 16
    74fe:	04 ff       	sbrs	r16, 4
    7500:	09 c0       	rjmp	.+18     	; 0x7514 <vfprintf+0x55c>
    7502:	04 60       	ori	r16, 0x04	; 4
    7504:	07 c0       	rjmp	.+14     	; 0x7514 <vfprintf+0x55c>
    7506:	94 fe       	sbrs	r9, 4
    7508:	08 c0       	rjmp	.+16     	; 0x751a <vfprintf+0x562>
    750a:	06 60       	ori	r16, 0x06	; 6
    750c:	06 c0       	rjmp	.+12     	; 0x751a <vfprintf+0x562>
    750e:	28 e0       	ldi	r18, 0x08	; 8
    7510:	30 e0       	ldi	r19, 0x00	; 0
    7512:	05 c0       	rjmp	.+10     	; 0x751e <vfprintf+0x566>
    7514:	20 e1       	ldi	r18, 0x10	; 16
    7516:	30 e0       	ldi	r19, 0x00	; 0
    7518:	02 c0       	rjmp	.+4      	; 0x751e <vfprintf+0x566>
    751a:	20 e1       	ldi	r18, 0x10	; 16
    751c:	32 e0       	ldi	r19, 0x02	; 2
    751e:	56 01       	movw	r10, r12
    7520:	07 ff       	sbrs	r16, 7
    7522:	09 c0       	rjmp	.+18     	; 0x7536 <vfprintf+0x57e>
    7524:	84 e0       	ldi	r24, 0x04	; 4
    7526:	a8 0e       	add	r10, r24
    7528:	b1 1c       	adc	r11, r1
    752a:	f6 01       	movw	r30, r12
    752c:	60 81       	ld	r22, Z
    752e:	71 81       	ldd	r23, Z+1	; 0x01
    7530:	82 81       	ldd	r24, Z+2	; 0x02
    7532:	93 81       	ldd	r25, Z+3	; 0x03
    7534:	08 c0       	rjmp	.+16     	; 0x7546 <vfprintf+0x58e>
    7536:	f2 e0       	ldi	r31, 0x02	; 2
    7538:	af 0e       	add	r10, r31
    753a:	b1 1c       	adc	r11, r1
    753c:	f6 01       	movw	r30, r12
    753e:	60 81       	ld	r22, Z
    7540:	71 81       	ldd	r23, Z+1	; 0x01
    7542:	80 e0       	ldi	r24, 0x00	; 0
    7544:	90 e0       	ldi	r25, 0x00	; 0
    7546:	a3 01       	movw	r20, r6
    7548:	0e 94 bc 3e 	call	0x7d78	; 0x7d78 <__ultoa_invert>
    754c:	c8 2e       	mov	r12, r24
    754e:	c6 18       	sub	r12, r6
    7550:	0f 77       	andi	r16, 0x7F	; 127
    7552:	90 2e       	mov	r9, r16
    7554:	96 fe       	sbrs	r9, 6
    7556:	0b c0       	rjmp	.+22     	; 0x756e <vfprintf+0x5b6>
    7558:	09 2d       	mov	r16, r9
    755a:	0e 7f       	andi	r16, 0xFE	; 254
    755c:	c1 16       	cp	r12, r17
    755e:	50 f4       	brcc	.+20     	; 0x7574 <vfprintf+0x5bc>
    7560:	94 fe       	sbrs	r9, 4
    7562:	0a c0       	rjmp	.+20     	; 0x7578 <vfprintf+0x5c0>
    7564:	92 fc       	sbrc	r9, 2
    7566:	08 c0       	rjmp	.+16     	; 0x7578 <vfprintf+0x5c0>
    7568:	09 2d       	mov	r16, r9
    756a:	0e 7e       	andi	r16, 0xEE	; 238
    756c:	05 c0       	rjmp	.+10     	; 0x7578 <vfprintf+0x5c0>
    756e:	dc 2c       	mov	r13, r12
    7570:	09 2d       	mov	r16, r9
    7572:	03 c0       	rjmp	.+6      	; 0x757a <vfprintf+0x5c2>
    7574:	dc 2c       	mov	r13, r12
    7576:	01 c0       	rjmp	.+2      	; 0x757a <vfprintf+0x5c2>
    7578:	d1 2e       	mov	r13, r17
    757a:	04 ff       	sbrs	r16, 4
    757c:	0d c0       	rjmp	.+26     	; 0x7598 <vfprintf+0x5e0>
    757e:	fe 01       	movw	r30, r28
    7580:	ec 0d       	add	r30, r12
    7582:	f1 1d       	adc	r31, r1
    7584:	80 81       	ld	r24, Z
    7586:	80 33       	cpi	r24, 0x30	; 48
    7588:	11 f4       	brne	.+4      	; 0x758e <vfprintf+0x5d6>
    758a:	09 7e       	andi	r16, 0xE9	; 233
    758c:	09 c0       	rjmp	.+18     	; 0x75a0 <vfprintf+0x5e8>
    758e:	02 ff       	sbrs	r16, 2
    7590:	06 c0       	rjmp	.+12     	; 0x759e <vfprintf+0x5e6>
    7592:	d3 94       	inc	r13
    7594:	d3 94       	inc	r13
    7596:	04 c0       	rjmp	.+8      	; 0x75a0 <vfprintf+0x5e8>
    7598:	80 2f       	mov	r24, r16
    759a:	86 78       	andi	r24, 0x86	; 134
    759c:	09 f0       	breq	.+2      	; 0x75a0 <vfprintf+0x5e8>
    759e:	d3 94       	inc	r13
    75a0:	03 fd       	sbrc	r16, 3
    75a2:	11 c0       	rjmp	.+34     	; 0x75c6 <vfprintf+0x60e>
    75a4:	00 ff       	sbrs	r16, 0
    75a6:	06 c0       	rjmp	.+12     	; 0x75b4 <vfprintf+0x5fc>
    75a8:	1c 2d       	mov	r17, r12
    75aa:	d5 14       	cp	r13, r5
    75ac:	80 f4       	brcc	.+32     	; 0x75ce <vfprintf+0x616>
    75ae:	15 0d       	add	r17, r5
    75b0:	1d 19       	sub	r17, r13
    75b2:	0d c0       	rjmp	.+26     	; 0x75ce <vfprintf+0x616>
    75b4:	d5 14       	cp	r13, r5
    75b6:	58 f4       	brcc	.+22     	; 0x75ce <vfprintf+0x616>
    75b8:	b7 01       	movw	r22, r14
    75ba:	80 e2       	ldi	r24, 0x20	; 32
    75bc:	90 e0       	ldi	r25, 0x00	; 0
    75be:	0e 94 3c 3e 	call	0x7c78	; 0x7c78 <fputc>
    75c2:	d3 94       	inc	r13
    75c4:	f7 cf       	rjmp	.-18     	; 0x75b4 <vfprintf+0x5fc>
    75c6:	d5 14       	cp	r13, r5
    75c8:	10 f4       	brcc	.+4      	; 0x75ce <vfprintf+0x616>
    75ca:	5d 18       	sub	r5, r13
    75cc:	01 c0       	rjmp	.+2      	; 0x75d0 <vfprintf+0x618>
    75ce:	51 2c       	mov	r5, r1
    75d0:	04 ff       	sbrs	r16, 4
    75d2:	10 c0       	rjmp	.+32     	; 0x75f4 <vfprintf+0x63c>
    75d4:	b7 01       	movw	r22, r14
    75d6:	80 e3       	ldi	r24, 0x30	; 48
    75d8:	90 e0       	ldi	r25, 0x00	; 0
    75da:	0e 94 3c 3e 	call	0x7c78	; 0x7c78 <fputc>
    75de:	02 ff       	sbrs	r16, 2
    75e0:	17 c0       	rjmp	.+46     	; 0x7610 <vfprintf+0x658>
    75e2:	01 fd       	sbrc	r16, 1
    75e4:	03 c0       	rjmp	.+6      	; 0x75ec <vfprintf+0x634>
    75e6:	88 e7       	ldi	r24, 0x78	; 120
    75e8:	90 e0       	ldi	r25, 0x00	; 0
    75ea:	02 c0       	rjmp	.+4      	; 0x75f0 <vfprintf+0x638>
    75ec:	88 e5       	ldi	r24, 0x58	; 88
    75ee:	90 e0       	ldi	r25, 0x00	; 0
    75f0:	b7 01       	movw	r22, r14
    75f2:	0c c0       	rjmp	.+24     	; 0x760c <vfprintf+0x654>
    75f4:	80 2f       	mov	r24, r16
    75f6:	86 78       	andi	r24, 0x86	; 134
    75f8:	59 f0       	breq	.+22     	; 0x7610 <vfprintf+0x658>
    75fa:	01 ff       	sbrs	r16, 1
    75fc:	02 c0       	rjmp	.+4      	; 0x7602 <vfprintf+0x64a>
    75fe:	8b e2       	ldi	r24, 0x2B	; 43
    7600:	01 c0       	rjmp	.+2      	; 0x7604 <vfprintf+0x64c>
    7602:	80 e2       	ldi	r24, 0x20	; 32
    7604:	07 fd       	sbrc	r16, 7
    7606:	8d e2       	ldi	r24, 0x2D	; 45
    7608:	b7 01       	movw	r22, r14
    760a:	90 e0       	ldi	r25, 0x00	; 0
    760c:	0e 94 3c 3e 	call	0x7c78	; 0x7c78 <fputc>
    7610:	c1 16       	cp	r12, r17
    7612:	38 f4       	brcc	.+14     	; 0x7622 <vfprintf+0x66a>
    7614:	b7 01       	movw	r22, r14
    7616:	80 e3       	ldi	r24, 0x30	; 48
    7618:	90 e0       	ldi	r25, 0x00	; 0
    761a:	0e 94 3c 3e 	call	0x7c78	; 0x7c78 <fputc>
    761e:	11 50       	subi	r17, 0x01	; 1
    7620:	f7 cf       	rjmp	.-18     	; 0x7610 <vfprintf+0x658>
    7622:	ca 94       	dec	r12
    7624:	f3 01       	movw	r30, r6
    7626:	ec 0d       	add	r30, r12
    7628:	f1 1d       	adc	r31, r1
    762a:	80 81       	ld	r24, Z
    762c:	b7 01       	movw	r22, r14
    762e:	90 e0       	ldi	r25, 0x00	; 0
    7630:	0e 94 3c 3e 	call	0x7c78	; 0x7c78 <fputc>
    7634:	c1 10       	cpse	r12, r1
    7636:	f5 cf       	rjmp	.-22     	; 0x7622 <vfprintf+0x66a>
    7638:	15 c0       	rjmp	.+42     	; 0x7664 <vfprintf+0x6ac>
    763a:	f4 e0       	ldi	r31, 0x04	; 4
    763c:	f5 15       	cp	r31, r5
    763e:	60 f5       	brcc	.+88     	; 0x7698 <vfprintf+0x6e0>
    7640:	84 e0       	ldi	r24, 0x04	; 4
    7642:	58 1a       	sub	r5, r24
    7644:	93 fe       	sbrs	r9, 3
    7646:	1f c0       	rjmp	.+62     	; 0x7686 <vfprintf+0x6ce>
    7648:	01 11       	cpse	r16, r1
    764a:	27 c0       	rjmp	.+78     	; 0x769a <vfprintf+0x6e2>
    764c:	2c 85       	ldd	r18, Y+12	; 0x0c
    764e:	23 ff       	sbrs	r18, 3
    7650:	2a c0       	rjmp	.+84     	; 0x76a6 <vfprintf+0x6ee>
    7652:	0a e3       	ldi	r16, 0x3A	; 58
    7654:	17 e0       	ldi	r17, 0x07	; 7
    7656:	39 2d       	mov	r19, r9
    7658:	30 71       	andi	r19, 0x10	; 16
    765a:	93 2e       	mov	r9, r19
    765c:	f8 01       	movw	r30, r16
    765e:	84 91       	lpm	r24, Z
    7660:	81 11       	cpse	r24, r1
    7662:	24 c0       	rjmp	.+72     	; 0x76ac <vfprintf+0x6f4>
    7664:	55 20       	and	r5, r5
    7666:	09 f4       	brne	.+2      	; 0x766a <vfprintf+0x6b2>
    7668:	e4 cc       	rjmp	.-1592   	; 0x7032 <vfprintf+0x7a>
    766a:	b7 01       	movw	r22, r14
    766c:	80 e2       	ldi	r24, 0x20	; 32
    766e:	90 e0       	ldi	r25, 0x00	; 0
    7670:	0e 94 3c 3e 	call	0x7c78	; 0x7c78 <fputc>
    7674:	5a 94       	dec	r5
    7676:	f6 cf       	rjmp	.-20     	; 0x7664 <vfprintf+0x6ac>
    7678:	f7 01       	movw	r30, r14
    767a:	86 81       	ldd	r24, Z+6	; 0x06
    767c:	97 81       	ldd	r25, Z+7	; 0x07
    767e:	26 c0       	rjmp	.+76     	; 0x76cc <vfprintf+0x714>
    7680:	8f ef       	ldi	r24, 0xFF	; 255
    7682:	9f ef       	ldi	r25, 0xFF	; 255
    7684:	23 c0       	rjmp	.+70     	; 0x76cc <vfprintf+0x714>
    7686:	b7 01       	movw	r22, r14
    7688:	80 e2       	ldi	r24, 0x20	; 32
    768a:	90 e0       	ldi	r25, 0x00	; 0
    768c:	0e 94 3c 3e 	call	0x7c78	; 0x7c78 <fputc>
    7690:	5a 94       	dec	r5
    7692:	51 10       	cpse	r5, r1
    7694:	f8 cf       	rjmp	.-16     	; 0x7686 <vfprintf+0x6ce>
    7696:	d8 cf       	rjmp	.-80     	; 0x7648 <vfprintf+0x690>
    7698:	51 2c       	mov	r5, r1
    769a:	b7 01       	movw	r22, r14
    769c:	80 2f       	mov	r24, r16
    769e:	90 e0       	ldi	r25, 0x00	; 0
    76a0:	0e 94 3c 3e 	call	0x7c78	; 0x7c78 <fputc>
    76a4:	d3 cf       	rjmp	.-90     	; 0x764c <vfprintf+0x694>
    76a6:	0e e3       	ldi	r16, 0x3E	; 62
    76a8:	17 e0       	ldi	r17, 0x07	; 7
    76aa:	d5 cf       	rjmp	.-86     	; 0x7656 <vfprintf+0x69e>
    76ac:	91 10       	cpse	r9, r1
    76ae:	80 52       	subi	r24, 0x20	; 32
    76b0:	b7 01       	movw	r22, r14
    76b2:	90 e0       	ldi	r25, 0x00	; 0
    76b4:	0e 94 3c 3e 	call	0x7c78	; 0x7c78 <fputc>
    76b8:	0f 5f       	subi	r16, 0xFF	; 255
    76ba:	1f 4f       	sbci	r17, 0xFF	; 255
    76bc:	cf cf       	rjmp	.-98     	; 0x765c <vfprintf+0x6a4>
    76be:	23 e0       	ldi	r18, 0x03	; 3
    76c0:	25 15       	cp	r18, r5
    76c2:	10 f4       	brcc	.+4      	; 0x76c8 <vfprintf+0x710>
    76c4:	83 e0       	ldi	r24, 0x03	; 3
    76c6:	bd cf       	rjmp	.-134    	; 0x7642 <vfprintf+0x68a>
    76c8:	51 2c       	mov	r5, r1
    76ca:	c0 cf       	rjmp	.-128    	; 0x764c <vfprintf+0x694>
    76cc:	60 96       	adiw	r28, 0x10	; 16
    76ce:	cd bf       	out	0x3d, r28	; 61
    76d0:	de bf       	out	0x3e, r29	; 62
    76d2:	df 91       	pop	r29
    76d4:	cf 91       	pop	r28
    76d6:	1f 91       	pop	r17
    76d8:	0f 91       	pop	r16
    76da:	ff 90       	pop	r15
    76dc:	ef 90       	pop	r14
    76de:	df 90       	pop	r13
    76e0:	cf 90       	pop	r12
    76e2:	bf 90       	pop	r11
    76e4:	af 90       	pop	r10
    76e6:	9f 90       	pop	r9
    76e8:	8f 90       	pop	r8
    76ea:	7f 90       	pop	r7
    76ec:	6f 90       	pop	r6
    76ee:	5f 90       	pop	r5
    76f0:	4f 90       	pop	r4
    76f2:	3f 90       	pop	r3
    76f4:	2f 90       	pop	r2
    76f6:	08 95       	ret

000076f8 <__divmodhi4>:
    76f8:	97 fb       	bst	r25, 7
    76fa:	07 2e       	mov	r0, r23
    76fc:	16 f4       	brtc	.+4      	; 0x7702 <__divmodhi4+0xa>
    76fe:	00 94       	com	r0
    7700:	07 d0       	rcall	.+14     	; 0x7710 <__divmodhi4_neg1>
    7702:	77 fd       	sbrc	r23, 7
    7704:	09 d0       	rcall	.+18     	; 0x7718 <__divmodhi4_neg2>
    7706:	0e 94 ef 3c 	call	0x79de	; 0x79de <__udivmodhi4>
    770a:	07 fc       	sbrc	r0, 7
    770c:	05 d0       	rcall	.+10     	; 0x7718 <__divmodhi4_neg2>
    770e:	3e f4       	brtc	.+14     	; 0x771e <__divmodhi4_exit>

00007710 <__divmodhi4_neg1>:
    7710:	90 95       	com	r25
    7712:	81 95       	neg	r24
    7714:	9f 4f       	sbci	r25, 0xFF	; 255
    7716:	08 95       	ret

00007718 <__divmodhi4_neg2>:
    7718:	70 95       	com	r23
    771a:	61 95       	neg	r22
    771c:	7f 4f       	sbci	r23, 0xFF	; 255

0000771e <__divmodhi4_exit>:
    771e:	08 95       	ret

00007720 <__udivmodsi4>:
    7720:	a1 e2       	ldi	r26, 0x21	; 33
    7722:	1a 2e       	mov	r1, r26
    7724:	aa 1b       	sub	r26, r26
    7726:	bb 1b       	sub	r27, r27
    7728:	fd 01       	movw	r30, r26
    772a:	0d c0       	rjmp	.+26     	; 0x7746 <__udivmodsi4_ep>

0000772c <__udivmodsi4_loop>:
    772c:	aa 1f       	adc	r26, r26
    772e:	bb 1f       	adc	r27, r27
    7730:	ee 1f       	adc	r30, r30
    7732:	ff 1f       	adc	r31, r31
    7734:	a2 17       	cp	r26, r18
    7736:	b3 07       	cpc	r27, r19
    7738:	e4 07       	cpc	r30, r20
    773a:	f5 07       	cpc	r31, r21
    773c:	20 f0       	brcs	.+8      	; 0x7746 <__udivmodsi4_ep>
    773e:	a2 1b       	sub	r26, r18
    7740:	b3 0b       	sbc	r27, r19
    7742:	e4 0b       	sbc	r30, r20
    7744:	f5 0b       	sbc	r31, r21

00007746 <__udivmodsi4_ep>:
    7746:	66 1f       	adc	r22, r22
    7748:	77 1f       	adc	r23, r23
    774a:	88 1f       	adc	r24, r24
    774c:	99 1f       	adc	r25, r25
    774e:	1a 94       	dec	r1
    7750:	69 f7       	brne	.-38     	; 0x772c <__udivmodsi4_loop>
    7752:	60 95       	com	r22
    7754:	70 95       	com	r23
    7756:	80 95       	com	r24
    7758:	90 95       	com	r25
    775a:	9b 01       	movw	r18, r22
    775c:	ac 01       	movw	r20, r24
    775e:	bd 01       	movw	r22, r26
    7760:	cf 01       	movw	r24, r30
    7762:	08 95       	ret

00007764 <__divmodsi4>:
    7764:	05 2e       	mov	r0, r21
    7766:	97 fb       	bst	r25, 7
    7768:	1e f4       	brtc	.+6      	; 0x7770 <__divmodsi4+0xc>
    776a:	00 94       	com	r0
    776c:	0e 94 c9 3b 	call	0x7792	; 0x7792 <__negsi2>
    7770:	57 fd       	sbrc	r21, 7
    7772:	07 d0       	rcall	.+14     	; 0x7782 <__divmodsi4_neg2>
    7774:	0e 94 90 3b 	call	0x7720	; 0x7720 <__udivmodsi4>
    7778:	07 fc       	sbrc	r0, 7
    777a:	03 d0       	rcall	.+6      	; 0x7782 <__divmodsi4_neg2>
    777c:	4e f4       	brtc	.+18     	; 0x7790 <__divmodsi4_exit>
    777e:	0c 94 c9 3b 	jmp	0x7792	; 0x7792 <__negsi2>

00007782 <__divmodsi4_neg2>:
    7782:	50 95       	com	r21
    7784:	40 95       	com	r20
    7786:	30 95       	com	r19
    7788:	21 95       	neg	r18
    778a:	3f 4f       	sbci	r19, 0xFF	; 255
    778c:	4f 4f       	sbci	r20, 0xFF	; 255
    778e:	5f 4f       	sbci	r21, 0xFF	; 255

00007790 <__divmodsi4_exit>:
    7790:	08 95       	ret

00007792 <__negsi2>:
    7792:	90 95       	com	r25
    7794:	80 95       	com	r24
    7796:	70 95       	com	r23
    7798:	61 95       	neg	r22
    779a:	7f 4f       	sbci	r23, 0xFF	; 255
    779c:	8f 4f       	sbci	r24, 0xFF	; 255
    779e:	9f 4f       	sbci	r25, 0xFF	; 255
    77a0:	08 95       	ret

000077a2 <__tablejump2__>:
    77a2:	ee 0f       	add	r30, r30
    77a4:	ff 1f       	adc	r31, r31
    77a6:	00 24       	eor	r0, r0
    77a8:	00 1c       	adc	r0, r0
    77aa:	0b be       	out	0x3b, r0	; 59
    77ac:	07 90       	elpm	r0, Z+
    77ae:	f6 91       	elpm	r31, Z
    77b0:	e0 2d       	mov	r30, r0
    77b2:	09 94       	ijmp

000077b4 <__umulhisi3>:
    77b4:	a2 9f       	mul	r26, r18
    77b6:	b0 01       	movw	r22, r0
    77b8:	b3 9f       	mul	r27, r19
    77ba:	c0 01       	movw	r24, r0
    77bc:	a3 9f       	mul	r26, r19
    77be:	70 0d       	add	r23, r0
    77c0:	81 1d       	adc	r24, r1
    77c2:	11 24       	eor	r1, r1
    77c4:	91 1d       	adc	r25, r1
    77c6:	b2 9f       	mul	r27, r18
    77c8:	70 0d       	add	r23, r0
    77ca:	81 1d       	adc	r24, r1
    77cc:	11 24       	eor	r1, r1
    77ce:	91 1d       	adc	r25, r1
    77d0:	08 95       	ret

000077d2 <__muluhisi3>:
    77d2:	0e 94 da 3b 	call	0x77b4	; 0x77b4 <__umulhisi3>
    77d6:	a5 9f       	mul	r26, r21
    77d8:	90 0d       	add	r25, r0
    77da:	b4 9f       	mul	r27, r20
    77dc:	90 0d       	add	r25, r0
    77de:	a4 9f       	mul	r26, r20
    77e0:	80 0d       	add	r24, r0
    77e2:	91 1d       	adc	r25, r1
    77e4:	11 24       	eor	r1, r1
    77e6:	08 95       	ret

000077e8 <__muldi3>:
    77e8:	df 93       	push	r29
    77ea:	cf 93       	push	r28
    77ec:	1f 93       	push	r17
    77ee:	0f 93       	push	r16
    77f0:	9a 9d       	mul	r25, r10
    77f2:	f0 2d       	mov	r31, r0
    77f4:	21 9f       	mul	r18, r17
    77f6:	f0 0d       	add	r31, r0
    77f8:	8b 9d       	mul	r24, r11
    77fa:	f0 0d       	add	r31, r0
    77fc:	8a 9d       	mul	r24, r10
    77fe:	e0 2d       	mov	r30, r0
    7800:	f1 0d       	add	r31, r1
    7802:	03 9f       	mul	r16, r19
    7804:	f0 0d       	add	r31, r0
    7806:	02 9f       	mul	r16, r18
    7808:	e0 0d       	add	r30, r0
    780a:	f1 1d       	adc	r31, r1
    780c:	4e 9d       	mul	r20, r14
    780e:	e0 0d       	add	r30, r0
    7810:	f1 1d       	adc	r31, r1
    7812:	5e 9d       	mul	r21, r14
    7814:	f0 0d       	add	r31, r0
    7816:	4f 9d       	mul	r20, r15
    7818:	f0 0d       	add	r31, r0
    781a:	7f 93       	push	r23
    781c:	6f 93       	push	r22
    781e:	bf 92       	push	r11
    7820:	af 92       	push	r10
    7822:	5f 93       	push	r21
    7824:	4f 93       	push	r20
    7826:	d5 01       	movw	r26, r10
    7828:	0e 94 da 3b 	call	0x77b4	; 0x77b4 <__umulhisi3>
    782c:	8b 01       	movw	r16, r22
    782e:	ac 01       	movw	r20, r24
    7830:	d7 01       	movw	r26, r14
    7832:	0e 94 da 3b 	call	0x77b4	; 0x77b4 <__umulhisi3>
    7836:	eb 01       	movw	r28, r22
    7838:	e8 0f       	add	r30, r24
    783a:	f9 1f       	adc	r31, r25
    783c:	d6 01       	movw	r26, r12
    783e:	0e 94 44 3c 	call	0x7888	; 0x7888 <__muldi3_6>
    7842:	2f 91       	pop	r18
    7844:	3f 91       	pop	r19
    7846:	d6 01       	movw	r26, r12
    7848:	0e 94 da 3b 	call	0x77b4	; 0x77b4 <__umulhisi3>
    784c:	c6 0f       	add	r28, r22
    784e:	d7 1f       	adc	r29, r23
    7850:	e8 1f       	adc	r30, r24
    7852:	f9 1f       	adc	r31, r25
    7854:	af 91       	pop	r26
    7856:	bf 91       	pop	r27
    7858:	0e 94 44 3c 	call	0x7888	; 0x7888 <__muldi3_6>
    785c:	2f 91       	pop	r18
    785e:	3f 91       	pop	r19
    7860:	0e 94 da 3b 	call	0x77b4	; 0x77b4 <__umulhisi3>
    7864:	c6 0f       	add	r28, r22
    7866:	d7 1f       	adc	r29, r23
    7868:	e8 1f       	adc	r30, r24
    786a:	f9 1f       	adc	r31, r25
    786c:	d6 01       	movw	r26, r12
    786e:	0e 94 da 3b 	call	0x77b4	; 0x77b4 <__umulhisi3>
    7872:	e6 0f       	add	r30, r22
    7874:	f7 1f       	adc	r31, r23
    7876:	98 01       	movw	r18, r16
    7878:	be 01       	movw	r22, r28
    787a:	cf 01       	movw	r24, r30
    787c:	11 24       	eor	r1, r1
    787e:	0f 91       	pop	r16
    7880:	1f 91       	pop	r17
    7882:	cf 91       	pop	r28
    7884:	df 91       	pop	r29
    7886:	08 95       	ret

00007888 <__muldi3_6>:
    7888:	0e 94 da 3b 	call	0x77b4	; 0x77b4 <__umulhisi3>
    788c:	46 0f       	add	r20, r22
    788e:	57 1f       	adc	r21, r23
    7890:	c8 1f       	adc	r28, r24
    7892:	d9 1f       	adc	r29, r25
    7894:	08 f4       	brcc	.+2      	; 0x7898 <__muldi3_6+0x10>
    7896:	31 96       	adiw	r30, 0x01	; 1
    7898:	08 95       	ret

0000789a <__umoddi3>:
    789a:	68 94       	set
    789c:	01 c0       	rjmp	.+2      	; 0x78a0 <__udivdi3_umoddi3>

0000789e <__udivdi3>:
    789e:	e8 94       	clt

000078a0 <__udivdi3_umoddi3>:
    78a0:	8f 92       	push	r8
    78a2:	9f 92       	push	r9
    78a4:	cf 93       	push	r28
    78a6:	df 93       	push	r29
    78a8:	0e 94 5b 3c 	call	0x78b6	; 0x78b6 <__udivmod64>
    78ac:	df 91       	pop	r29
    78ae:	cf 91       	pop	r28
    78b0:	9f 90       	pop	r9
    78b2:	8f 90       	pop	r8
    78b4:	08 95       	ret

000078b6 <__udivmod64>:
    78b6:	88 24       	eor	r8, r8
    78b8:	99 24       	eor	r9, r9
    78ba:	f4 01       	movw	r30, r8
    78bc:	e4 01       	movw	r28, r8
    78be:	b0 e4       	ldi	r27, 0x40	; 64
    78c0:	9f 93       	push	r25
    78c2:	aa 27       	eor	r26, r26
    78c4:	9a 15       	cp	r25, r10
    78c6:	8b 04       	cpc	r8, r11
    78c8:	9c 04       	cpc	r9, r12
    78ca:	ed 05       	cpc	r30, r13
    78cc:	fe 05       	cpc	r31, r14
    78ce:	cf 05       	cpc	r28, r15
    78d0:	d0 07       	cpc	r29, r16
    78d2:	a1 07       	cpc	r26, r17
    78d4:	98 f4       	brcc	.+38     	; 0x78fc <__udivmod64+0x46>
    78d6:	ad 2f       	mov	r26, r29
    78d8:	dc 2f       	mov	r29, r28
    78da:	cf 2f       	mov	r28, r31
    78dc:	fe 2f       	mov	r31, r30
    78de:	e9 2d       	mov	r30, r9
    78e0:	98 2c       	mov	r9, r8
    78e2:	89 2e       	mov	r8, r25
    78e4:	98 2f       	mov	r25, r24
    78e6:	87 2f       	mov	r24, r23
    78e8:	76 2f       	mov	r23, r22
    78ea:	65 2f       	mov	r22, r21
    78ec:	54 2f       	mov	r21, r20
    78ee:	43 2f       	mov	r20, r19
    78f0:	32 2f       	mov	r19, r18
    78f2:	22 27       	eor	r18, r18
    78f4:	b8 50       	subi	r27, 0x08	; 8
    78f6:	31 f7       	brne	.-52     	; 0x78c4 <__udivmod64+0xe>
    78f8:	bf 91       	pop	r27
    78fa:	27 c0       	rjmp	.+78     	; 0x794a <__udivmod64+0x94>
    78fc:	1b 2e       	mov	r1, r27
    78fe:	bf 91       	pop	r27
    7900:	bb 27       	eor	r27, r27
    7902:	22 0f       	add	r18, r18
    7904:	33 1f       	adc	r19, r19
    7906:	44 1f       	adc	r20, r20
    7908:	55 1f       	adc	r21, r21
    790a:	66 1f       	adc	r22, r22
    790c:	77 1f       	adc	r23, r23
    790e:	88 1f       	adc	r24, r24
    7910:	99 1f       	adc	r25, r25
    7912:	88 1c       	adc	r8, r8
    7914:	99 1c       	adc	r9, r9
    7916:	ee 1f       	adc	r30, r30
    7918:	ff 1f       	adc	r31, r31
    791a:	cc 1f       	adc	r28, r28
    791c:	dd 1f       	adc	r29, r29
    791e:	aa 1f       	adc	r26, r26
    7920:	bb 1f       	adc	r27, r27
    7922:	8a 14       	cp	r8, r10
    7924:	9b 04       	cpc	r9, r11
    7926:	ec 05       	cpc	r30, r12
    7928:	fd 05       	cpc	r31, r13
    792a:	ce 05       	cpc	r28, r14
    792c:	df 05       	cpc	r29, r15
    792e:	a0 07       	cpc	r26, r16
    7930:	b1 07       	cpc	r27, r17
    7932:	48 f0       	brcs	.+18     	; 0x7946 <__udivmod64+0x90>
    7934:	8a 18       	sub	r8, r10
    7936:	9b 08       	sbc	r9, r11
    7938:	ec 09       	sbc	r30, r12
    793a:	fd 09       	sbc	r31, r13
    793c:	ce 09       	sbc	r28, r14
    793e:	df 09       	sbc	r29, r15
    7940:	a0 0b       	sbc	r26, r16
    7942:	b1 0b       	sbc	r27, r17
    7944:	21 60       	ori	r18, 0x01	; 1
    7946:	1a 94       	dec	r1
    7948:	e1 f6       	brne	.-72     	; 0x7902 <__udivmod64+0x4c>
    794a:	2e f4       	brtc	.+10     	; 0x7956 <__udivmod64+0xa0>
    794c:	94 01       	movw	r18, r8
    794e:	af 01       	movw	r20, r30
    7950:	be 01       	movw	r22, r28
    7952:	cd 01       	movw	r24, r26
    7954:	00 0c       	add	r0, r0
    7956:	08 95       	ret

00007958 <__ashldi3>:
    7958:	0f 93       	push	r16
    795a:	08 30       	cpi	r16, 0x08	; 8
    795c:	90 f0       	brcs	.+36     	; 0x7982 <__ashldi3+0x2a>
    795e:	98 2f       	mov	r25, r24
    7960:	87 2f       	mov	r24, r23
    7962:	76 2f       	mov	r23, r22
    7964:	65 2f       	mov	r22, r21
    7966:	54 2f       	mov	r21, r20
    7968:	43 2f       	mov	r20, r19
    796a:	32 2f       	mov	r19, r18
    796c:	22 27       	eor	r18, r18
    796e:	08 50       	subi	r16, 0x08	; 8
    7970:	f4 cf       	rjmp	.-24     	; 0x795a <__ashldi3+0x2>
    7972:	22 0f       	add	r18, r18
    7974:	33 1f       	adc	r19, r19
    7976:	44 1f       	adc	r20, r20
    7978:	55 1f       	adc	r21, r21
    797a:	66 1f       	adc	r22, r22
    797c:	77 1f       	adc	r23, r23
    797e:	88 1f       	adc	r24, r24
    7980:	99 1f       	adc	r25, r25
    7982:	0a 95       	dec	r16
    7984:	b2 f7       	brpl	.-20     	; 0x7972 <__ashldi3+0x1a>
    7986:	0f 91       	pop	r16
    7988:	08 95       	ret

0000798a <__adddi3>:
    798a:	2a 0d       	add	r18, r10
    798c:	3b 1d       	adc	r19, r11
    798e:	4c 1d       	adc	r20, r12
    7990:	5d 1d       	adc	r21, r13
    7992:	6e 1d       	adc	r22, r14
    7994:	7f 1d       	adc	r23, r15
    7996:	80 1f       	adc	r24, r16
    7998:	91 1f       	adc	r25, r17
    799a:	08 95       	ret

0000799c <__adddi3_s8>:
    799c:	00 24       	eor	r0, r0
    799e:	a7 fd       	sbrc	r26, 7
    79a0:	00 94       	com	r0
    79a2:	2a 0f       	add	r18, r26
    79a4:	30 1d       	adc	r19, r0
    79a6:	40 1d       	adc	r20, r0
    79a8:	50 1d       	adc	r21, r0
    79aa:	60 1d       	adc	r22, r0
    79ac:	70 1d       	adc	r23, r0
    79ae:	80 1d       	adc	r24, r0
    79b0:	90 1d       	adc	r25, r0
    79b2:	08 95       	ret

000079b4 <__subdi3>:
    79b4:	2a 19       	sub	r18, r10
    79b6:	3b 09       	sbc	r19, r11
    79b8:	4c 09       	sbc	r20, r12
    79ba:	5d 09       	sbc	r21, r13
    79bc:	6e 09       	sbc	r22, r14
    79be:	7f 09       	sbc	r23, r15
    79c0:	80 0b       	sbc	r24, r16
    79c2:	91 0b       	sbc	r25, r17
    79c4:	08 95       	ret

000079c6 <__cmpdi2_s8>:
    79c6:	00 24       	eor	r0, r0
    79c8:	a7 fd       	sbrc	r26, 7
    79ca:	00 94       	com	r0
    79cc:	2a 17       	cp	r18, r26
    79ce:	30 05       	cpc	r19, r0
    79d0:	40 05       	cpc	r20, r0
    79d2:	50 05       	cpc	r21, r0
    79d4:	60 05       	cpc	r22, r0
    79d6:	70 05       	cpc	r23, r0
    79d8:	80 05       	cpc	r24, r0
    79da:	90 05       	cpc	r25, r0
    79dc:	08 95       	ret

000079de <__udivmodhi4>:
    79de:	aa 1b       	sub	r26, r26
    79e0:	bb 1b       	sub	r27, r27
    79e2:	51 e1       	ldi	r21, 0x11	; 17
    79e4:	07 c0       	rjmp	.+14     	; 0x79f4 <__udivmodhi4_ep>

000079e6 <__udivmodhi4_loop>:
    79e6:	aa 1f       	adc	r26, r26
    79e8:	bb 1f       	adc	r27, r27
    79ea:	a6 17       	cp	r26, r22
    79ec:	b7 07       	cpc	r27, r23
    79ee:	10 f0       	brcs	.+4      	; 0x79f4 <__udivmodhi4_ep>
    79f0:	a6 1b       	sub	r26, r22
    79f2:	b7 0b       	sbc	r27, r23

000079f4 <__udivmodhi4_ep>:
    79f4:	88 1f       	adc	r24, r24
    79f6:	99 1f       	adc	r25, r25
    79f8:	5a 95       	dec	r21
    79fa:	a9 f7       	brne	.-22     	; 0x79e6 <__udivmodhi4_loop>
    79fc:	80 95       	com	r24
    79fe:	90 95       	com	r25
    7a00:	bc 01       	movw	r22, r24
    7a02:	cd 01       	movw	r24, r26
    7a04:	08 95       	ret

00007a06 <__ftoa_engine>:
    7a06:	28 30       	cpi	r18, 0x08	; 8
    7a08:	08 f0       	brcs	.+2      	; 0x7a0c <__ftoa_engine+0x6>
    7a0a:	27 e0       	ldi	r18, 0x07	; 7
    7a0c:	33 27       	eor	r19, r19
    7a0e:	da 01       	movw	r26, r20
    7a10:	99 0f       	add	r25, r25
    7a12:	31 1d       	adc	r19, r1
    7a14:	87 fd       	sbrc	r24, 7
    7a16:	91 60       	ori	r25, 0x01	; 1
    7a18:	00 96       	adiw	r24, 0x00	; 0
    7a1a:	61 05       	cpc	r22, r1
    7a1c:	71 05       	cpc	r23, r1
    7a1e:	39 f4       	brne	.+14     	; 0x7a2e <__ftoa_engine+0x28>
    7a20:	32 60       	ori	r19, 0x02	; 2
    7a22:	2e 5f       	subi	r18, 0xFE	; 254
    7a24:	3d 93       	st	X+, r19
    7a26:	30 e3       	ldi	r19, 0x30	; 48
    7a28:	2a 95       	dec	r18
    7a2a:	e1 f7       	brne	.-8      	; 0x7a24 <__ftoa_engine+0x1e>
    7a2c:	08 95       	ret
    7a2e:	9f 3f       	cpi	r25, 0xFF	; 255
    7a30:	30 f0       	brcs	.+12     	; 0x7a3e <__ftoa_engine+0x38>
    7a32:	80 38       	cpi	r24, 0x80	; 128
    7a34:	71 05       	cpc	r23, r1
    7a36:	61 05       	cpc	r22, r1
    7a38:	09 f0       	breq	.+2      	; 0x7a3c <__ftoa_engine+0x36>
    7a3a:	3c 5f       	subi	r19, 0xFC	; 252
    7a3c:	3c 5f       	subi	r19, 0xFC	; 252
    7a3e:	3d 93       	st	X+, r19
    7a40:	91 30       	cpi	r25, 0x01	; 1
    7a42:	08 f0       	brcs	.+2      	; 0x7a46 <__ftoa_engine+0x40>
    7a44:	80 68       	ori	r24, 0x80	; 128
    7a46:	91 1d       	adc	r25, r1
    7a48:	df 93       	push	r29
    7a4a:	cf 93       	push	r28
    7a4c:	1f 93       	push	r17
    7a4e:	0f 93       	push	r16
    7a50:	ff 92       	push	r15
    7a52:	ef 92       	push	r14
    7a54:	19 2f       	mov	r17, r25
    7a56:	98 7f       	andi	r25, 0xF8	; 248
    7a58:	96 95       	lsr	r25
    7a5a:	e9 2f       	mov	r30, r25
    7a5c:	96 95       	lsr	r25
    7a5e:	96 95       	lsr	r25
    7a60:	e9 0f       	add	r30, r25
    7a62:	ff 27       	eor	r31, r31
    7a64:	e4 56       	subi	r30, 0x64	; 100
    7a66:	f8 4f       	sbci	r31, 0xF8	; 248
    7a68:	99 27       	eor	r25, r25
    7a6a:	33 27       	eor	r19, r19
    7a6c:	ee 24       	eor	r14, r14
    7a6e:	ff 24       	eor	r15, r15
    7a70:	a7 01       	movw	r20, r14
    7a72:	e7 01       	movw	r28, r14
    7a74:	05 90       	lpm	r0, Z+
    7a76:	08 94       	sec
    7a78:	07 94       	ror	r0
    7a7a:	28 f4       	brcc	.+10     	; 0x7a86 <__ftoa_engine+0x80>
    7a7c:	36 0f       	add	r19, r22
    7a7e:	e7 1e       	adc	r14, r23
    7a80:	f8 1e       	adc	r15, r24
    7a82:	49 1f       	adc	r20, r25
    7a84:	51 1d       	adc	r21, r1
    7a86:	66 0f       	add	r22, r22
    7a88:	77 1f       	adc	r23, r23
    7a8a:	88 1f       	adc	r24, r24
    7a8c:	99 1f       	adc	r25, r25
    7a8e:	06 94       	lsr	r0
    7a90:	a1 f7       	brne	.-24     	; 0x7a7a <__ftoa_engine+0x74>
    7a92:	05 90       	lpm	r0, Z+
    7a94:	07 94       	ror	r0
    7a96:	28 f4       	brcc	.+10     	; 0x7aa2 <__ftoa_engine+0x9c>
    7a98:	e7 0e       	add	r14, r23
    7a9a:	f8 1e       	adc	r15, r24
    7a9c:	49 1f       	adc	r20, r25
    7a9e:	56 1f       	adc	r21, r22
    7aa0:	c1 1d       	adc	r28, r1
    7aa2:	77 0f       	add	r23, r23
    7aa4:	88 1f       	adc	r24, r24
    7aa6:	99 1f       	adc	r25, r25
    7aa8:	66 1f       	adc	r22, r22
    7aaa:	06 94       	lsr	r0
    7aac:	a1 f7       	brne	.-24     	; 0x7a96 <__ftoa_engine+0x90>
    7aae:	05 90       	lpm	r0, Z+
    7ab0:	07 94       	ror	r0
    7ab2:	28 f4       	brcc	.+10     	; 0x7abe <__ftoa_engine+0xb8>
    7ab4:	f8 0e       	add	r15, r24
    7ab6:	49 1f       	adc	r20, r25
    7ab8:	56 1f       	adc	r21, r22
    7aba:	c7 1f       	adc	r28, r23
    7abc:	d1 1d       	adc	r29, r1
    7abe:	88 0f       	add	r24, r24
    7ac0:	99 1f       	adc	r25, r25
    7ac2:	66 1f       	adc	r22, r22
    7ac4:	77 1f       	adc	r23, r23
    7ac6:	06 94       	lsr	r0
    7ac8:	a1 f7       	brne	.-24     	; 0x7ab2 <__ftoa_engine+0xac>
    7aca:	05 90       	lpm	r0, Z+
    7acc:	07 94       	ror	r0
    7ace:	20 f4       	brcc	.+8      	; 0x7ad8 <__ftoa_engine+0xd2>
    7ad0:	49 0f       	add	r20, r25
    7ad2:	56 1f       	adc	r21, r22
    7ad4:	c7 1f       	adc	r28, r23
    7ad6:	d8 1f       	adc	r29, r24
    7ad8:	99 0f       	add	r25, r25
    7ada:	66 1f       	adc	r22, r22
    7adc:	77 1f       	adc	r23, r23
    7ade:	88 1f       	adc	r24, r24
    7ae0:	06 94       	lsr	r0
    7ae2:	a9 f7       	brne	.-22     	; 0x7ace <__ftoa_engine+0xc8>
    7ae4:	84 91       	lpm	r24, Z
    7ae6:	10 95       	com	r17
    7ae8:	17 70       	andi	r17, 0x07	; 7
    7aea:	41 f0       	breq	.+16     	; 0x7afc <__ftoa_engine+0xf6>
    7aec:	d6 95       	lsr	r29
    7aee:	c7 95       	ror	r28
    7af0:	57 95       	ror	r21
    7af2:	47 95       	ror	r20
    7af4:	f7 94       	ror	r15
    7af6:	e7 94       	ror	r14
    7af8:	1a 95       	dec	r17
    7afa:	c1 f7       	brne	.-16     	; 0x7aec <__ftoa_engine+0xe6>
    7afc:	e2 e4       	ldi	r30, 0x42	; 66
    7afe:	f7 e0       	ldi	r31, 0x07	; 7
    7b00:	68 94       	set
    7b02:	15 90       	lpm	r1, Z+
    7b04:	15 91       	lpm	r17, Z+
    7b06:	35 91       	lpm	r19, Z+
    7b08:	65 91       	lpm	r22, Z+
    7b0a:	95 91       	lpm	r25, Z+
    7b0c:	05 90       	lpm	r0, Z+
    7b0e:	7f e2       	ldi	r23, 0x2F	; 47
    7b10:	73 95       	inc	r23
    7b12:	e1 18       	sub	r14, r1
    7b14:	f1 0a       	sbc	r15, r17
    7b16:	43 0b       	sbc	r20, r19
    7b18:	56 0b       	sbc	r21, r22
    7b1a:	c9 0b       	sbc	r28, r25
    7b1c:	d0 09       	sbc	r29, r0
    7b1e:	c0 f7       	brcc	.-16     	; 0x7b10 <__ftoa_engine+0x10a>
    7b20:	e1 0c       	add	r14, r1
    7b22:	f1 1e       	adc	r15, r17
    7b24:	43 1f       	adc	r20, r19
    7b26:	56 1f       	adc	r21, r22
    7b28:	c9 1f       	adc	r28, r25
    7b2a:	d0 1d       	adc	r29, r0
    7b2c:	7e f4       	brtc	.+30     	; 0x7b4c <__ftoa_engine+0x146>
    7b2e:	70 33       	cpi	r23, 0x30	; 48
    7b30:	11 f4       	brne	.+4      	; 0x7b36 <__ftoa_engine+0x130>
    7b32:	8a 95       	dec	r24
    7b34:	e6 cf       	rjmp	.-52     	; 0x7b02 <__ftoa_engine+0xfc>
    7b36:	e8 94       	clt
    7b38:	01 50       	subi	r16, 0x01	; 1
    7b3a:	30 f0       	brcs	.+12     	; 0x7b48 <__ftoa_engine+0x142>
    7b3c:	08 0f       	add	r16, r24
    7b3e:	0a f4       	brpl	.+2      	; 0x7b42 <__ftoa_engine+0x13c>
    7b40:	00 27       	eor	r16, r16
    7b42:	02 17       	cp	r16, r18
    7b44:	08 f4       	brcc	.+2      	; 0x7b48 <__ftoa_engine+0x142>
    7b46:	20 2f       	mov	r18, r16
    7b48:	23 95       	inc	r18
    7b4a:	02 2f       	mov	r16, r18
    7b4c:	7a 33       	cpi	r23, 0x3A	; 58
    7b4e:	28 f0       	brcs	.+10     	; 0x7b5a <__ftoa_engine+0x154>
    7b50:	79 e3       	ldi	r23, 0x39	; 57
    7b52:	7d 93       	st	X+, r23
    7b54:	2a 95       	dec	r18
    7b56:	e9 f7       	brne	.-6      	; 0x7b52 <__ftoa_engine+0x14c>
    7b58:	10 c0       	rjmp	.+32     	; 0x7b7a <__ftoa_engine+0x174>
    7b5a:	7d 93       	st	X+, r23
    7b5c:	2a 95       	dec	r18
    7b5e:	89 f6       	brne	.-94     	; 0x7b02 <__ftoa_engine+0xfc>
    7b60:	06 94       	lsr	r0
    7b62:	97 95       	ror	r25
    7b64:	67 95       	ror	r22
    7b66:	37 95       	ror	r19
    7b68:	17 95       	ror	r17
    7b6a:	17 94       	ror	r1
    7b6c:	e1 18       	sub	r14, r1
    7b6e:	f1 0a       	sbc	r15, r17
    7b70:	43 0b       	sbc	r20, r19
    7b72:	56 0b       	sbc	r21, r22
    7b74:	c9 0b       	sbc	r28, r25
    7b76:	d0 09       	sbc	r29, r0
    7b78:	98 f0       	brcs	.+38     	; 0x7ba0 <__ftoa_engine+0x19a>
    7b7a:	23 95       	inc	r18
    7b7c:	7e 91       	ld	r23, -X
    7b7e:	73 95       	inc	r23
    7b80:	7a 33       	cpi	r23, 0x3A	; 58
    7b82:	08 f0       	brcs	.+2      	; 0x7b86 <__ftoa_engine+0x180>
    7b84:	70 e3       	ldi	r23, 0x30	; 48
    7b86:	7c 93       	st	X, r23
    7b88:	20 13       	cpse	r18, r16
    7b8a:	b8 f7       	brcc	.-18     	; 0x7b7a <__ftoa_engine+0x174>
    7b8c:	7e 91       	ld	r23, -X
    7b8e:	70 61       	ori	r23, 0x10	; 16
    7b90:	7d 93       	st	X+, r23
    7b92:	30 f0       	brcs	.+12     	; 0x7ba0 <__ftoa_engine+0x19a>
    7b94:	83 95       	inc	r24
    7b96:	71 e3       	ldi	r23, 0x31	; 49
    7b98:	7d 93       	st	X+, r23
    7b9a:	70 e3       	ldi	r23, 0x30	; 48
    7b9c:	2a 95       	dec	r18
    7b9e:	e1 f7       	brne	.-8      	; 0x7b98 <__ftoa_engine+0x192>
    7ba0:	11 24       	eor	r1, r1
    7ba2:	ef 90       	pop	r14
    7ba4:	ff 90       	pop	r15
    7ba6:	0f 91       	pop	r16
    7ba8:	1f 91       	pop	r17
    7baa:	cf 91       	pop	r28
    7bac:	df 91       	pop	r29
    7bae:	99 27       	eor	r25, r25
    7bb0:	87 fd       	sbrc	r24, 7
    7bb2:	90 95       	com	r25
    7bb4:	08 95       	ret

00007bb6 <strnlen_P>:
    7bb6:	fc 01       	movw	r30, r24
    7bb8:	05 90       	lpm	r0, Z+
    7bba:	61 50       	subi	r22, 0x01	; 1
    7bbc:	70 40       	sbci	r23, 0x00	; 0
    7bbe:	01 10       	cpse	r0, r1
    7bc0:	d8 f7       	brcc	.-10     	; 0x7bb8 <strnlen_P+0x2>
    7bc2:	80 95       	com	r24
    7bc4:	90 95       	com	r25
    7bc6:	8e 0f       	add	r24, r30
    7bc8:	9f 1f       	adc	r25, r31
    7bca:	08 95       	ret

00007bcc <strnlen>:
    7bcc:	fc 01       	movw	r30, r24
    7bce:	61 50       	subi	r22, 0x01	; 1
    7bd0:	70 40       	sbci	r23, 0x00	; 0
    7bd2:	01 90       	ld	r0, Z+
    7bd4:	01 10       	cpse	r0, r1
    7bd6:	d8 f7       	brcc	.-10     	; 0x7bce <strnlen+0x2>
    7bd8:	80 95       	com	r24
    7bda:	90 95       	com	r25
    7bdc:	8e 0f       	add	r24, r30
    7bde:	9f 1f       	adc	r25, r31
    7be0:	08 95       	ret

00007be2 <fdevopen>:
    7be2:	0f 93       	push	r16
    7be4:	1f 93       	push	r17
    7be6:	cf 93       	push	r28
    7be8:	df 93       	push	r29
    7bea:	00 97       	sbiw	r24, 0x00	; 0
    7bec:	31 f4       	brne	.+12     	; 0x7bfa <fdevopen+0x18>
    7bee:	61 15       	cp	r22, r1
    7bf0:	71 05       	cpc	r23, r1
    7bf2:	19 f4       	brne	.+6      	; 0x7bfa <fdevopen+0x18>
    7bf4:	80 e0       	ldi	r24, 0x00	; 0
    7bf6:	90 e0       	ldi	r25, 0x00	; 0
    7bf8:	3a c0       	rjmp	.+116    	; 0x7c6e <fdevopen+0x8c>
    7bfa:	8b 01       	movw	r16, r22
    7bfc:	ec 01       	movw	r28, r24
    7bfe:	6e e0       	ldi	r22, 0x0E	; 14
    7c00:	70 e0       	ldi	r23, 0x00	; 0
    7c02:	81 e0       	ldi	r24, 0x01	; 1
    7c04:	90 e0       	ldi	r25, 0x00	; 0
    7c06:	0e 94 1a 3f 	call	0x7e34	; 0x7e34 <calloc>
    7c0a:	fc 01       	movw	r30, r24
    7c0c:	89 2b       	or	r24, r25
    7c0e:	91 f3       	breq	.-28     	; 0x7bf4 <fdevopen+0x12>
    7c10:	80 e8       	ldi	r24, 0x80	; 128
    7c12:	83 83       	std	Z+3, r24	; 0x03
    7c14:	01 15       	cp	r16, r1
    7c16:	11 05       	cpc	r17, r1
    7c18:	71 f0       	breq	.+28     	; 0x7c36 <fdevopen+0x54>
    7c1a:	02 87       	std	Z+10, r16	; 0x0a
    7c1c:	13 87       	std	Z+11, r17	; 0x0b
    7c1e:	81 e8       	ldi	r24, 0x81	; 129
    7c20:	83 83       	std	Z+3, r24	; 0x03
    7c22:	80 91 8d 52 	lds	r24, 0x528D	; 0x80528d <__iob>
    7c26:	90 91 8e 52 	lds	r25, 0x528E	; 0x80528e <__iob+0x1>
    7c2a:	89 2b       	or	r24, r25
    7c2c:	21 f4       	brne	.+8      	; 0x7c36 <fdevopen+0x54>
    7c2e:	e0 93 8d 52 	sts	0x528D, r30	; 0x80528d <__iob>
    7c32:	f0 93 8e 52 	sts	0x528E, r31	; 0x80528e <__iob+0x1>
    7c36:	20 97       	sbiw	r28, 0x00	; 0
    7c38:	c9 f0       	breq	.+50     	; 0x7c6c <fdevopen+0x8a>
    7c3a:	c0 87       	std	Z+8, r28	; 0x08
    7c3c:	d1 87       	std	Z+9, r29	; 0x09
    7c3e:	83 81       	ldd	r24, Z+3	; 0x03
    7c40:	82 60       	ori	r24, 0x02	; 2
    7c42:	83 83       	std	Z+3, r24	; 0x03
    7c44:	80 91 8f 52 	lds	r24, 0x528F	; 0x80528f <__iob+0x2>
    7c48:	90 91 90 52 	lds	r25, 0x5290	; 0x805290 <__iob+0x3>
    7c4c:	89 2b       	or	r24, r25
    7c4e:	71 f4       	brne	.+28     	; 0x7c6c <fdevopen+0x8a>
    7c50:	e0 93 8f 52 	sts	0x528F, r30	; 0x80528f <__iob+0x2>
    7c54:	f0 93 90 52 	sts	0x5290, r31	; 0x805290 <__iob+0x3>
    7c58:	80 91 91 52 	lds	r24, 0x5291	; 0x805291 <__iob+0x4>
    7c5c:	90 91 92 52 	lds	r25, 0x5292	; 0x805292 <__iob+0x5>
    7c60:	89 2b       	or	r24, r25
    7c62:	21 f4       	brne	.+8      	; 0x7c6c <fdevopen+0x8a>
    7c64:	e0 93 91 52 	sts	0x5291, r30	; 0x805291 <__iob+0x4>
    7c68:	f0 93 92 52 	sts	0x5292, r31	; 0x805292 <__iob+0x5>
    7c6c:	cf 01       	movw	r24, r30
    7c6e:	df 91       	pop	r29
    7c70:	cf 91       	pop	r28
    7c72:	1f 91       	pop	r17
    7c74:	0f 91       	pop	r16
    7c76:	08 95       	ret

00007c78 <fputc>:
    7c78:	0f 93       	push	r16
    7c7a:	1f 93       	push	r17
    7c7c:	cf 93       	push	r28
    7c7e:	df 93       	push	r29
    7c80:	fb 01       	movw	r30, r22
    7c82:	23 81       	ldd	r18, Z+3	; 0x03
    7c84:	21 fd       	sbrc	r18, 1
    7c86:	03 c0       	rjmp	.+6      	; 0x7c8e <fputc+0x16>
    7c88:	8f ef       	ldi	r24, 0xFF	; 255
    7c8a:	9f ef       	ldi	r25, 0xFF	; 255
    7c8c:	2c c0       	rjmp	.+88     	; 0x7ce6 <fputc+0x6e>
    7c8e:	22 ff       	sbrs	r18, 2
    7c90:	16 c0       	rjmp	.+44     	; 0x7cbe <fputc+0x46>
    7c92:	46 81       	ldd	r20, Z+6	; 0x06
    7c94:	57 81       	ldd	r21, Z+7	; 0x07
    7c96:	24 81       	ldd	r18, Z+4	; 0x04
    7c98:	35 81       	ldd	r19, Z+5	; 0x05
    7c9a:	42 17       	cp	r20, r18
    7c9c:	53 07       	cpc	r21, r19
    7c9e:	44 f4       	brge	.+16     	; 0x7cb0 <fputc+0x38>
    7ca0:	a0 81       	ld	r26, Z
    7ca2:	b1 81       	ldd	r27, Z+1	; 0x01
    7ca4:	9d 01       	movw	r18, r26
    7ca6:	2f 5f       	subi	r18, 0xFF	; 255
    7ca8:	3f 4f       	sbci	r19, 0xFF	; 255
    7caa:	20 83       	st	Z, r18
    7cac:	31 83       	std	Z+1, r19	; 0x01
    7cae:	8c 93       	st	X, r24
    7cb0:	26 81       	ldd	r18, Z+6	; 0x06
    7cb2:	37 81       	ldd	r19, Z+7	; 0x07
    7cb4:	2f 5f       	subi	r18, 0xFF	; 255
    7cb6:	3f 4f       	sbci	r19, 0xFF	; 255
    7cb8:	26 83       	std	Z+6, r18	; 0x06
    7cba:	37 83       	std	Z+7, r19	; 0x07
    7cbc:	14 c0       	rjmp	.+40     	; 0x7ce6 <fputc+0x6e>
    7cbe:	8b 01       	movw	r16, r22
    7cc0:	ec 01       	movw	r28, r24
    7cc2:	fb 01       	movw	r30, r22
    7cc4:	00 84       	ldd	r0, Z+8	; 0x08
    7cc6:	f1 85       	ldd	r31, Z+9	; 0x09
    7cc8:	e0 2d       	mov	r30, r0
    7cca:	09 95       	icall
    7ccc:	89 2b       	or	r24, r25
    7cce:	e1 f6       	brne	.-72     	; 0x7c88 <fputc+0x10>
    7cd0:	d8 01       	movw	r26, r16
    7cd2:	16 96       	adiw	r26, 0x06	; 6
    7cd4:	8d 91       	ld	r24, X+
    7cd6:	9c 91       	ld	r25, X
    7cd8:	17 97       	sbiw	r26, 0x07	; 7
    7cda:	01 96       	adiw	r24, 0x01	; 1
    7cdc:	16 96       	adiw	r26, 0x06	; 6
    7cde:	8d 93       	st	X+, r24
    7ce0:	9c 93       	st	X, r25
    7ce2:	17 97       	sbiw	r26, 0x07	; 7
    7ce4:	ce 01       	movw	r24, r28
    7ce6:	df 91       	pop	r29
    7ce8:	cf 91       	pop	r28
    7cea:	1f 91       	pop	r17
    7cec:	0f 91       	pop	r16
    7cee:	08 95       	ret

00007cf0 <printf>:
    7cf0:	cf 93       	push	r28
    7cf2:	df 93       	push	r29
    7cf4:	cd b7       	in	r28, 0x3d	; 61
    7cf6:	de b7       	in	r29, 0x3e	; 62
    7cf8:	ae 01       	movw	r20, r28
    7cfa:	4b 5f       	subi	r20, 0xFB	; 251
    7cfc:	5f 4f       	sbci	r21, 0xFF	; 255
    7cfe:	fa 01       	movw	r30, r20
    7d00:	61 91       	ld	r22, Z+
    7d02:	71 91       	ld	r23, Z+
    7d04:	af 01       	movw	r20, r30
    7d06:	80 91 8f 52 	lds	r24, 0x528F	; 0x80528f <__iob+0x2>
    7d0a:	90 91 90 52 	lds	r25, 0x5290	; 0x805290 <__iob+0x3>
    7d0e:	0e 94 dc 37 	call	0x6fb8	; 0x6fb8 <vfprintf>
    7d12:	df 91       	pop	r29
    7d14:	cf 91       	pop	r28
    7d16:	08 95       	ret

00007d18 <puts>:
    7d18:	0f 93       	push	r16
    7d1a:	1f 93       	push	r17
    7d1c:	cf 93       	push	r28
    7d1e:	df 93       	push	r29
    7d20:	e0 91 8f 52 	lds	r30, 0x528F	; 0x80528f <__iob+0x2>
    7d24:	f0 91 90 52 	lds	r31, 0x5290	; 0x805290 <__iob+0x3>
    7d28:	23 81       	ldd	r18, Z+3	; 0x03
    7d2a:	21 ff       	sbrs	r18, 1
    7d2c:	1b c0       	rjmp	.+54     	; 0x7d64 <puts+0x4c>
    7d2e:	8c 01       	movw	r16, r24
    7d30:	d0 e0       	ldi	r29, 0x00	; 0
    7d32:	c0 e0       	ldi	r28, 0x00	; 0
    7d34:	f8 01       	movw	r30, r16
    7d36:	81 91       	ld	r24, Z+
    7d38:	8f 01       	movw	r16, r30
    7d3a:	60 91 8f 52 	lds	r22, 0x528F	; 0x80528f <__iob+0x2>
    7d3e:	70 91 90 52 	lds	r23, 0x5290	; 0x805290 <__iob+0x3>
    7d42:	db 01       	movw	r26, r22
    7d44:	18 96       	adiw	r26, 0x08	; 8
    7d46:	ed 91       	ld	r30, X+
    7d48:	fc 91       	ld	r31, X
    7d4a:	19 97       	sbiw	r26, 0x09	; 9
    7d4c:	88 23       	and	r24, r24
    7d4e:	31 f0       	breq	.+12     	; 0x7d5c <puts+0x44>
    7d50:	09 95       	icall
    7d52:	89 2b       	or	r24, r25
    7d54:	79 f3       	breq	.-34     	; 0x7d34 <puts+0x1c>
    7d56:	df ef       	ldi	r29, 0xFF	; 255
    7d58:	cf ef       	ldi	r28, 0xFF	; 255
    7d5a:	ec cf       	rjmp	.-40     	; 0x7d34 <puts+0x1c>
    7d5c:	8a e0       	ldi	r24, 0x0A	; 10
    7d5e:	09 95       	icall
    7d60:	89 2b       	or	r24, r25
    7d62:	19 f0       	breq	.+6      	; 0x7d6a <puts+0x52>
    7d64:	8f ef       	ldi	r24, 0xFF	; 255
    7d66:	9f ef       	ldi	r25, 0xFF	; 255
    7d68:	02 c0       	rjmp	.+4      	; 0x7d6e <puts+0x56>
    7d6a:	8d 2f       	mov	r24, r29
    7d6c:	9c 2f       	mov	r25, r28
    7d6e:	df 91       	pop	r29
    7d70:	cf 91       	pop	r28
    7d72:	1f 91       	pop	r17
    7d74:	0f 91       	pop	r16
    7d76:	08 95       	ret

00007d78 <__ultoa_invert>:
    7d78:	fa 01       	movw	r30, r20
    7d7a:	aa 27       	eor	r26, r26
    7d7c:	28 30       	cpi	r18, 0x08	; 8
    7d7e:	51 f1       	breq	.+84     	; 0x7dd4 <__ultoa_invert+0x5c>
    7d80:	20 31       	cpi	r18, 0x10	; 16
    7d82:	81 f1       	breq	.+96     	; 0x7de4 <__ultoa_invert+0x6c>
    7d84:	e8 94       	clt
    7d86:	6f 93       	push	r22
    7d88:	6e 7f       	andi	r22, 0xFE	; 254
    7d8a:	6e 5f       	subi	r22, 0xFE	; 254
    7d8c:	7f 4f       	sbci	r23, 0xFF	; 255
    7d8e:	8f 4f       	sbci	r24, 0xFF	; 255
    7d90:	9f 4f       	sbci	r25, 0xFF	; 255
    7d92:	af 4f       	sbci	r26, 0xFF	; 255
    7d94:	b1 e0       	ldi	r27, 0x01	; 1
    7d96:	3e d0       	rcall	.+124    	; 0x7e14 <__ultoa_invert+0x9c>
    7d98:	b4 e0       	ldi	r27, 0x04	; 4
    7d9a:	3c d0       	rcall	.+120    	; 0x7e14 <__ultoa_invert+0x9c>
    7d9c:	67 0f       	add	r22, r23
    7d9e:	78 1f       	adc	r23, r24
    7da0:	89 1f       	adc	r24, r25
    7da2:	9a 1f       	adc	r25, r26
    7da4:	a1 1d       	adc	r26, r1
    7da6:	68 0f       	add	r22, r24
    7da8:	79 1f       	adc	r23, r25
    7daa:	8a 1f       	adc	r24, r26
    7dac:	91 1d       	adc	r25, r1
    7dae:	a1 1d       	adc	r26, r1
    7db0:	6a 0f       	add	r22, r26
    7db2:	71 1d       	adc	r23, r1
    7db4:	81 1d       	adc	r24, r1
    7db6:	91 1d       	adc	r25, r1
    7db8:	a1 1d       	adc	r26, r1
    7dba:	20 d0       	rcall	.+64     	; 0x7dfc <__ultoa_invert+0x84>
    7dbc:	09 f4       	brne	.+2      	; 0x7dc0 <__ultoa_invert+0x48>
    7dbe:	68 94       	set
    7dc0:	3f 91       	pop	r19
    7dc2:	2a e0       	ldi	r18, 0x0A	; 10
    7dc4:	26 9f       	mul	r18, r22
    7dc6:	11 24       	eor	r1, r1
    7dc8:	30 19       	sub	r19, r0
    7dca:	30 5d       	subi	r19, 0xD0	; 208
    7dcc:	31 93       	st	Z+, r19
    7dce:	de f6       	brtc	.-74     	; 0x7d86 <__ultoa_invert+0xe>
    7dd0:	cf 01       	movw	r24, r30
    7dd2:	08 95       	ret
    7dd4:	46 2f       	mov	r20, r22
    7dd6:	47 70       	andi	r20, 0x07	; 7
    7dd8:	40 5d       	subi	r20, 0xD0	; 208
    7dda:	41 93       	st	Z+, r20
    7ddc:	b3 e0       	ldi	r27, 0x03	; 3
    7dde:	0f d0       	rcall	.+30     	; 0x7dfe <__ultoa_invert+0x86>
    7de0:	c9 f7       	brne	.-14     	; 0x7dd4 <__ultoa_invert+0x5c>
    7de2:	f6 cf       	rjmp	.-20     	; 0x7dd0 <__ultoa_invert+0x58>
    7de4:	46 2f       	mov	r20, r22
    7de6:	4f 70       	andi	r20, 0x0F	; 15
    7de8:	40 5d       	subi	r20, 0xD0	; 208
    7dea:	4a 33       	cpi	r20, 0x3A	; 58
    7dec:	18 f0       	brcs	.+6      	; 0x7df4 <__ultoa_invert+0x7c>
    7dee:	49 5d       	subi	r20, 0xD9	; 217
    7df0:	31 fd       	sbrc	r19, 1
    7df2:	40 52       	subi	r20, 0x20	; 32
    7df4:	41 93       	st	Z+, r20
    7df6:	02 d0       	rcall	.+4      	; 0x7dfc <__ultoa_invert+0x84>
    7df8:	a9 f7       	brne	.-22     	; 0x7de4 <__ultoa_invert+0x6c>
    7dfa:	ea cf       	rjmp	.-44     	; 0x7dd0 <__ultoa_invert+0x58>
    7dfc:	b4 e0       	ldi	r27, 0x04	; 4
    7dfe:	a6 95       	lsr	r26
    7e00:	97 95       	ror	r25
    7e02:	87 95       	ror	r24
    7e04:	77 95       	ror	r23
    7e06:	67 95       	ror	r22
    7e08:	ba 95       	dec	r27
    7e0a:	c9 f7       	brne	.-14     	; 0x7dfe <__ultoa_invert+0x86>
    7e0c:	00 97       	sbiw	r24, 0x00	; 0
    7e0e:	61 05       	cpc	r22, r1
    7e10:	71 05       	cpc	r23, r1
    7e12:	08 95       	ret
    7e14:	9b 01       	movw	r18, r22
    7e16:	ac 01       	movw	r20, r24
    7e18:	0a 2e       	mov	r0, r26
    7e1a:	06 94       	lsr	r0
    7e1c:	57 95       	ror	r21
    7e1e:	47 95       	ror	r20
    7e20:	37 95       	ror	r19
    7e22:	27 95       	ror	r18
    7e24:	ba 95       	dec	r27
    7e26:	c9 f7       	brne	.-14     	; 0x7e1a <__ultoa_invert+0xa2>
    7e28:	62 0f       	add	r22, r18
    7e2a:	73 1f       	adc	r23, r19
    7e2c:	84 1f       	adc	r24, r20
    7e2e:	95 1f       	adc	r25, r21
    7e30:	a0 1d       	adc	r26, r0
    7e32:	08 95       	ret

00007e34 <calloc>:
    7e34:	0f 93       	push	r16
    7e36:	1f 93       	push	r17
    7e38:	cf 93       	push	r28
    7e3a:	df 93       	push	r29
    7e3c:	86 9f       	mul	r24, r22
    7e3e:	80 01       	movw	r16, r0
    7e40:	87 9f       	mul	r24, r23
    7e42:	10 0d       	add	r17, r0
    7e44:	96 9f       	mul	r25, r22
    7e46:	10 0d       	add	r17, r0
    7e48:	11 24       	eor	r1, r1
    7e4a:	c8 01       	movw	r24, r16
    7e4c:	0e 94 36 3f 	call	0x7e6c	; 0x7e6c <malloc>
    7e50:	ec 01       	movw	r28, r24
    7e52:	00 97       	sbiw	r24, 0x00	; 0
    7e54:	29 f0       	breq	.+10     	; 0x7e60 <calloc+0x2c>
    7e56:	a8 01       	movw	r20, r16
    7e58:	60 e0       	ldi	r22, 0x00	; 0
    7e5a:	70 e0       	ldi	r23, 0x00	; 0
    7e5c:	0e 94 57 40 	call	0x80ae	; 0x80ae <memset>
    7e60:	ce 01       	movw	r24, r28
    7e62:	df 91       	pop	r29
    7e64:	cf 91       	pop	r28
    7e66:	1f 91       	pop	r17
    7e68:	0f 91       	pop	r16
    7e6a:	08 95       	ret

00007e6c <malloc>:
    7e6c:	0f 93       	push	r16
    7e6e:	1f 93       	push	r17
    7e70:	cf 93       	push	r28
    7e72:	df 93       	push	r29
    7e74:	82 30       	cpi	r24, 0x02	; 2
    7e76:	91 05       	cpc	r25, r1
    7e78:	10 f4       	brcc	.+4      	; 0x7e7e <malloc+0x12>
    7e7a:	82 e0       	ldi	r24, 0x02	; 2
    7e7c:	90 e0       	ldi	r25, 0x00	; 0
    7e7e:	e0 91 95 52 	lds	r30, 0x5295	; 0x805295 <__flp>
    7e82:	f0 91 96 52 	lds	r31, 0x5296	; 0x805296 <__flp+0x1>
    7e86:	20 e0       	ldi	r18, 0x00	; 0
    7e88:	30 e0       	ldi	r19, 0x00	; 0
    7e8a:	a0 e0       	ldi	r26, 0x00	; 0
    7e8c:	b0 e0       	ldi	r27, 0x00	; 0
    7e8e:	30 97       	sbiw	r30, 0x00	; 0
    7e90:	19 f1       	breq	.+70     	; 0x7ed8 <malloc+0x6c>
    7e92:	40 81       	ld	r20, Z
    7e94:	51 81       	ldd	r21, Z+1	; 0x01
    7e96:	02 81       	ldd	r16, Z+2	; 0x02
    7e98:	13 81       	ldd	r17, Z+3	; 0x03
    7e9a:	48 17       	cp	r20, r24
    7e9c:	59 07       	cpc	r21, r25
    7e9e:	c8 f0       	brcs	.+50     	; 0x7ed2 <malloc+0x66>
    7ea0:	84 17       	cp	r24, r20
    7ea2:	95 07       	cpc	r25, r21
    7ea4:	69 f4       	brne	.+26     	; 0x7ec0 <malloc+0x54>
    7ea6:	10 97       	sbiw	r26, 0x00	; 0
    7ea8:	31 f0       	breq	.+12     	; 0x7eb6 <malloc+0x4a>
    7eaa:	12 96       	adiw	r26, 0x02	; 2
    7eac:	0c 93       	st	X, r16
    7eae:	12 97       	sbiw	r26, 0x02	; 2
    7eb0:	13 96       	adiw	r26, 0x03	; 3
    7eb2:	1c 93       	st	X, r17
    7eb4:	27 c0       	rjmp	.+78     	; 0x7f04 <malloc+0x98>
    7eb6:	00 93 95 52 	sts	0x5295, r16	; 0x805295 <__flp>
    7eba:	10 93 96 52 	sts	0x5296, r17	; 0x805296 <__flp+0x1>
    7ebe:	22 c0       	rjmp	.+68     	; 0x7f04 <malloc+0x98>
    7ec0:	21 15       	cp	r18, r1
    7ec2:	31 05       	cpc	r19, r1
    7ec4:	19 f0       	breq	.+6      	; 0x7ecc <malloc+0x60>
    7ec6:	42 17       	cp	r20, r18
    7ec8:	53 07       	cpc	r21, r19
    7eca:	18 f4       	brcc	.+6      	; 0x7ed2 <malloc+0x66>
    7ecc:	9a 01       	movw	r18, r20
    7ece:	bd 01       	movw	r22, r26
    7ed0:	ef 01       	movw	r28, r30
    7ed2:	df 01       	movw	r26, r30
    7ed4:	f8 01       	movw	r30, r16
    7ed6:	db cf       	rjmp	.-74     	; 0x7e8e <malloc+0x22>
    7ed8:	21 15       	cp	r18, r1
    7eda:	31 05       	cpc	r19, r1
    7edc:	f9 f0       	breq	.+62     	; 0x7f1c <malloc+0xb0>
    7ede:	28 1b       	sub	r18, r24
    7ee0:	39 0b       	sbc	r19, r25
    7ee2:	24 30       	cpi	r18, 0x04	; 4
    7ee4:	31 05       	cpc	r19, r1
    7ee6:	80 f4       	brcc	.+32     	; 0x7f08 <malloc+0x9c>
    7ee8:	8a 81       	ldd	r24, Y+2	; 0x02
    7eea:	9b 81       	ldd	r25, Y+3	; 0x03
    7eec:	61 15       	cp	r22, r1
    7eee:	71 05       	cpc	r23, r1
    7ef0:	21 f0       	breq	.+8      	; 0x7efa <malloc+0x8e>
    7ef2:	fb 01       	movw	r30, r22
    7ef4:	82 83       	std	Z+2, r24	; 0x02
    7ef6:	93 83       	std	Z+3, r25	; 0x03
    7ef8:	04 c0       	rjmp	.+8      	; 0x7f02 <malloc+0x96>
    7efa:	80 93 95 52 	sts	0x5295, r24	; 0x805295 <__flp>
    7efe:	90 93 96 52 	sts	0x5296, r25	; 0x805296 <__flp+0x1>
    7f02:	fe 01       	movw	r30, r28
    7f04:	32 96       	adiw	r30, 0x02	; 2
    7f06:	44 c0       	rjmp	.+136    	; 0x7f90 <malloc+0x124>
    7f08:	fe 01       	movw	r30, r28
    7f0a:	e2 0f       	add	r30, r18
    7f0c:	f3 1f       	adc	r31, r19
    7f0e:	81 93       	st	Z+, r24
    7f10:	91 93       	st	Z+, r25
    7f12:	22 50       	subi	r18, 0x02	; 2
    7f14:	31 09       	sbc	r19, r1
    7f16:	28 83       	st	Y, r18
    7f18:	39 83       	std	Y+1, r19	; 0x01
    7f1a:	3a c0       	rjmp	.+116    	; 0x7f90 <malloc+0x124>
    7f1c:	20 91 93 52 	lds	r18, 0x5293	; 0x805293 <__brkval>
    7f20:	30 91 94 52 	lds	r19, 0x5294	; 0x805294 <__brkval+0x1>
    7f24:	23 2b       	or	r18, r19
    7f26:	41 f4       	brne	.+16     	; 0x7f38 <malloc+0xcc>
    7f28:	20 91 02 40 	lds	r18, 0x4002	; 0x804002 <__malloc_heap_start>
    7f2c:	30 91 03 40 	lds	r19, 0x4003	; 0x804003 <__malloc_heap_start+0x1>
    7f30:	20 93 93 52 	sts	0x5293, r18	; 0x805293 <__brkval>
    7f34:	30 93 94 52 	sts	0x5294, r19	; 0x805294 <__brkval+0x1>
    7f38:	20 91 00 40 	lds	r18, 0x4000	; 0x804000 <__DATA_REGION_ORIGIN__>
    7f3c:	30 91 01 40 	lds	r19, 0x4001	; 0x804001 <__DATA_REGION_ORIGIN__+0x1>
    7f40:	21 15       	cp	r18, r1
    7f42:	31 05       	cpc	r19, r1
    7f44:	41 f4       	brne	.+16     	; 0x7f56 <malloc+0xea>
    7f46:	2d b7       	in	r18, 0x3d	; 61
    7f48:	3e b7       	in	r19, 0x3e	; 62
    7f4a:	40 91 04 40 	lds	r20, 0x4004	; 0x804004 <__malloc_margin>
    7f4e:	50 91 05 40 	lds	r21, 0x4005	; 0x804005 <__malloc_margin+0x1>
    7f52:	24 1b       	sub	r18, r20
    7f54:	35 0b       	sbc	r19, r21
    7f56:	e0 91 93 52 	lds	r30, 0x5293	; 0x805293 <__brkval>
    7f5a:	f0 91 94 52 	lds	r31, 0x5294	; 0x805294 <__brkval+0x1>
    7f5e:	e2 17       	cp	r30, r18
    7f60:	f3 07       	cpc	r31, r19
    7f62:	a0 f4       	brcc	.+40     	; 0x7f8c <malloc+0x120>
    7f64:	2e 1b       	sub	r18, r30
    7f66:	3f 0b       	sbc	r19, r31
    7f68:	28 17       	cp	r18, r24
    7f6a:	39 07       	cpc	r19, r25
    7f6c:	78 f0       	brcs	.+30     	; 0x7f8c <malloc+0x120>
    7f6e:	ac 01       	movw	r20, r24
    7f70:	4e 5f       	subi	r20, 0xFE	; 254
    7f72:	5f 4f       	sbci	r21, 0xFF	; 255
    7f74:	24 17       	cp	r18, r20
    7f76:	35 07       	cpc	r19, r21
    7f78:	48 f0       	brcs	.+18     	; 0x7f8c <malloc+0x120>
    7f7a:	4e 0f       	add	r20, r30
    7f7c:	5f 1f       	adc	r21, r31
    7f7e:	40 93 93 52 	sts	0x5293, r20	; 0x805293 <__brkval>
    7f82:	50 93 94 52 	sts	0x5294, r21	; 0x805294 <__brkval+0x1>
    7f86:	81 93       	st	Z+, r24
    7f88:	91 93       	st	Z+, r25
    7f8a:	02 c0       	rjmp	.+4      	; 0x7f90 <malloc+0x124>
    7f8c:	e0 e0       	ldi	r30, 0x00	; 0
    7f8e:	f0 e0       	ldi	r31, 0x00	; 0
    7f90:	cf 01       	movw	r24, r30
    7f92:	df 91       	pop	r29
    7f94:	cf 91       	pop	r28
    7f96:	1f 91       	pop	r17
    7f98:	0f 91       	pop	r16
    7f9a:	08 95       	ret

00007f9c <free>:
    7f9c:	cf 93       	push	r28
    7f9e:	df 93       	push	r29
    7fa0:	00 97       	sbiw	r24, 0x00	; 0
    7fa2:	09 f4       	brne	.+2      	; 0x7fa6 <free+0xa>
    7fa4:	81 c0       	rjmp	.+258    	; 0x80a8 <__RODATA_PM_OFFSET__+0xa8>
    7fa6:	fc 01       	movw	r30, r24
    7fa8:	32 97       	sbiw	r30, 0x02	; 2
    7faa:	12 82       	std	Z+2, r1	; 0x02
    7fac:	13 82       	std	Z+3, r1	; 0x03
    7fae:	a0 91 95 52 	lds	r26, 0x5295	; 0x805295 <__flp>
    7fb2:	b0 91 96 52 	lds	r27, 0x5296	; 0x805296 <__flp+0x1>
    7fb6:	10 97       	sbiw	r26, 0x00	; 0
    7fb8:	81 f4       	brne	.+32     	; 0x7fda <free+0x3e>
    7fba:	20 81       	ld	r18, Z
    7fbc:	31 81       	ldd	r19, Z+1	; 0x01
    7fbe:	82 0f       	add	r24, r18
    7fc0:	93 1f       	adc	r25, r19
    7fc2:	20 91 93 52 	lds	r18, 0x5293	; 0x805293 <__brkval>
    7fc6:	30 91 94 52 	lds	r19, 0x5294	; 0x805294 <__brkval+0x1>
    7fca:	28 17       	cp	r18, r24
    7fcc:	39 07       	cpc	r19, r25
    7fce:	51 f5       	brne	.+84     	; 0x8024 <__RODATA_PM_OFFSET__+0x24>
    7fd0:	e0 93 93 52 	sts	0x5293, r30	; 0x805293 <__brkval>
    7fd4:	f0 93 94 52 	sts	0x5294, r31	; 0x805294 <__brkval+0x1>
    7fd8:	67 c0       	rjmp	.+206    	; 0x80a8 <__RODATA_PM_OFFSET__+0xa8>
    7fda:	ed 01       	movw	r28, r26
    7fdc:	20 e0       	ldi	r18, 0x00	; 0
    7fde:	30 e0       	ldi	r19, 0x00	; 0
    7fe0:	ce 17       	cp	r28, r30
    7fe2:	df 07       	cpc	r29, r31
    7fe4:	40 f4       	brcc	.+16     	; 0x7ff6 <free+0x5a>
    7fe6:	4a 81       	ldd	r20, Y+2	; 0x02
    7fe8:	5b 81       	ldd	r21, Y+3	; 0x03
    7fea:	9e 01       	movw	r18, r28
    7fec:	41 15       	cp	r20, r1
    7fee:	51 05       	cpc	r21, r1
    7ff0:	f1 f0       	breq	.+60     	; 0x802e <__RODATA_PM_OFFSET__+0x2e>
    7ff2:	ea 01       	movw	r28, r20
    7ff4:	f5 cf       	rjmp	.-22     	; 0x7fe0 <free+0x44>
    7ff6:	c2 83       	std	Z+2, r28	; 0x02
    7ff8:	d3 83       	std	Z+3, r29	; 0x03
    7ffa:	40 81       	ld	r20, Z
    7ffc:	51 81       	ldd	r21, Z+1	; 0x01
    7ffe:	84 0f       	add	r24, r20
    8000:	95 1f       	adc	r25, r21
    8002:	c8 17       	cp	r28, r24
    8004:	d9 07       	cpc	r29, r25
    8006:	59 f4       	brne	.+22     	; 0x801e <__RODATA_PM_OFFSET__+0x1e>
    8008:	88 81       	ld	r24, Y
    800a:	99 81       	ldd	r25, Y+1	; 0x01
    800c:	84 0f       	add	r24, r20
    800e:	95 1f       	adc	r25, r21
    8010:	02 96       	adiw	r24, 0x02	; 2
    8012:	80 83       	st	Z, r24
    8014:	91 83       	std	Z+1, r25	; 0x01
    8016:	8a 81       	ldd	r24, Y+2	; 0x02
    8018:	9b 81       	ldd	r25, Y+3	; 0x03
    801a:	82 83       	std	Z+2, r24	; 0x02
    801c:	93 83       	std	Z+3, r25	; 0x03
    801e:	21 15       	cp	r18, r1
    8020:	31 05       	cpc	r19, r1
    8022:	29 f4       	brne	.+10     	; 0x802e <__RODATA_PM_OFFSET__+0x2e>
    8024:	e0 93 95 52 	sts	0x5295, r30	; 0x805295 <__flp>
    8028:	f0 93 96 52 	sts	0x5296, r31	; 0x805296 <__flp+0x1>
    802c:	3d c0       	rjmp	.+122    	; 0x80a8 <__RODATA_PM_OFFSET__+0xa8>
    802e:	e9 01       	movw	r28, r18
    8030:	ea 83       	std	Y+2, r30	; 0x02
    8032:	fb 83       	std	Y+3, r31	; 0x03
    8034:	49 91       	ld	r20, Y+
    8036:	59 91       	ld	r21, Y+
    8038:	c4 0f       	add	r28, r20
    803a:	d5 1f       	adc	r29, r21
    803c:	ec 17       	cp	r30, r28
    803e:	fd 07       	cpc	r31, r29
    8040:	61 f4       	brne	.+24     	; 0x805a <__RODATA_PM_OFFSET__+0x5a>
    8042:	80 81       	ld	r24, Z
    8044:	91 81       	ldd	r25, Z+1	; 0x01
    8046:	84 0f       	add	r24, r20
    8048:	95 1f       	adc	r25, r21
    804a:	02 96       	adiw	r24, 0x02	; 2
    804c:	e9 01       	movw	r28, r18
    804e:	88 83       	st	Y, r24
    8050:	99 83       	std	Y+1, r25	; 0x01
    8052:	82 81       	ldd	r24, Z+2	; 0x02
    8054:	93 81       	ldd	r25, Z+3	; 0x03
    8056:	8a 83       	std	Y+2, r24	; 0x02
    8058:	9b 83       	std	Y+3, r25	; 0x03
    805a:	e0 e0       	ldi	r30, 0x00	; 0
    805c:	f0 e0       	ldi	r31, 0x00	; 0
    805e:	12 96       	adiw	r26, 0x02	; 2
    8060:	8d 91       	ld	r24, X+
    8062:	9c 91       	ld	r25, X
    8064:	13 97       	sbiw	r26, 0x03	; 3
    8066:	00 97       	sbiw	r24, 0x00	; 0
    8068:	19 f0       	breq	.+6      	; 0x8070 <__RODATA_PM_OFFSET__+0x70>
    806a:	fd 01       	movw	r30, r26
    806c:	dc 01       	movw	r26, r24
    806e:	f7 cf       	rjmp	.-18     	; 0x805e <__RODATA_PM_OFFSET__+0x5e>
    8070:	8d 91       	ld	r24, X+
    8072:	9c 91       	ld	r25, X
    8074:	11 97       	sbiw	r26, 0x01	; 1
    8076:	9d 01       	movw	r18, r26
    8078:	2e 5f       	subi	r18, 0xFE	; 254
    807a:	3f 4f       	sbci	r19, 0xFF	; 255
    807c:	82 0f       	add	r24, r18
    807e:	93 1f       	adc	r25, r19
    8080:	20 91 93 52 	lds	r18, 0x5293	; 0x805293 <__brkval>
    8084:	30 91 94 52 	lds	r19, 0x5294	; 0x805294 <__brkval+0x1>
    8088:	28 17       	cp	r18, r24
    808a:	39 07       	cpc	r19, r25
    808c:	69 f4       	brne	.+26     	; 0x80a8 <__RODATA_PM_OFFSET__+0xa8>
    808e:	30 97       	sbiw	r30, 0x00	; 0
    8090:	29 f4       	brne	.+10     	; 0x809c <__RODATA_PM_OFFSET__+0x9c>
    8092:	10 92 95 52 	sts	0x5295, r1	; 0x805295 <__flp>
    8096:	10 92 96 52 	sts	0x5296, r1	; 0x805296 <__flp+0x1>
    809a:	02 c0       	rjmp	.+4      	; 0x80a0 <__RODATA_PM_OFFSET__+0xa0>
    809c:	12 82       	std	Z+2, r1	; 0x02
    809e:	13 82       	std	Z+3, r1	; 0x03
    80a0:	a0 93 93 52 	sts	0x5293, r26	; 0x805293 <__brkval>
    80a4:	b0 93 94 52 	sts	0x5294, r27	; 0x805294 <__brkval+0x1>
    80a8:	df 91       	pop	r29
    80aa:	cf 91       	pop	r28
    80ac:	08 95       	ret

000080ae <memset>:
    80ae:	dc 01       	movw	r26, r24
    80b0:	01 c0       	rjmp	.+2      	; 0x80b4 <memset+0x6>
    80b2:	6d 93       	st	X+, r22
    80b4:	41 50       	subi	r20, 0x01	; 1
    80b6:	50 40       	sbci	r21, 0x00	; 0
    80b8:	e0 f7       	brcc	.-8      	; 0x80b2 <memset+0x4>
    80ba:	08 95       	ret

000080bc <_exit>:
    80bc:	f8 94       	cli

000080be <__stop_program>:
    80be:	ff cf       	rjmp	.-2      	; 0x80be <__stop_program>
